ARM GAS  C:\Users\xhex8\AppData\Local\Temp\ccpUd0il.s 			page 1


   1              		.cpu cortex-m0plus
   2              		.arch armv6s-m
   3              		.fpu softvfp
   4              		.eabi_attribute 20, 1
   5              		.eabi_attribute 21, 1
   6              		.eabi_attribute 23, 3
   7              		.eabi_attribute 24, 1
   8              		.eabi_attribute 25, 1
   9              		.eabi_attribute 26, 1
  10              		.eabi_attribute 30, 1
  11              		.eabi_attribute 34, 0
  12              		.eabi_attribute 18, 4
  13              		.file	"stm32l0xx_hal_gpio.c"
  14              		.text
  15              	.Ltext0:
  16              		.cfi_sections	.debug_frame
  17              		.file 1 "Drivers/STM32L0xx_HAL_Driver/Src/stm32l0xx_hal_gpio.c"
  18              		.section	.text.HAL_GPIO_Init,"ax",%progbits
  19              		.align	1
  20              		.global	HAL_GPIO_Init
  21              		.syntax unified
  22              		.code	16
  23              		.thumb_func
  25              	HAL_GPIO_Init:
  26              	.LVL0:
  27              	.LFB40:
   1:Drivers/STM32L0xx_HAL_Driver/Src/stm32l0xx_hal_gpio.c **** /**
   2:Drivers/STM32L0xx_HAL_Driver/Src/stm32l0xx_hal_gpio.c ****   ******************************************************************************
   3:Drivers/STM32L0xx_HAL_Driver/Src/stm32l0xx_hal_gpio.c ****   * @file    stm32l0xx_hal_gpio.c
   4:Drivers/STM32L0xx_HAL_Driver/Src/stm32l0xx_hal_gpio.c ****   * @author  MCD Application Team
   5:Drivers/STM32L0xx_HAL_Driver/Src/stm32l0xx_hal_gpio.c ****   * @brief   GPIO HAL module driver.
   6:Drivers/STM32L0xx_HAL_Driver/Src/stm32l0xx_hal_gpio.c ****   *          This file provides firmware functions to manage the following
   7:Drivers/STM32L0xx_HAL_Driver/Src/stm32l0xx_hal_gpio.c ****   *          functionalities of the General Purpose Input/Output (GPIO) peripheral:
   8:Drivers/STM32L0xx_HAL_Driver/Src/stm32l0xx_hal_gpio.c ****   *           + Initialization and de-initialization functions
   9:Drivers/STM32L0xx_HAL_Driver/Src/stm32l0xx_hal_gpio.c ****   *           + IO operation functions
  10:Drivers/STM32L0xx_HAL_Driver/Src/stm32l0xx_hal_gpio.c ****   *
  11:Drivers/STM32L0xx_HAL_Driver/Src/stm32l0xx_hal_gpio.c ****   ******************************************************************************
  12:Drivers/STM32L0xx_HAL_Driver/Src/stm32l0xx_hal_gpio.c ****   * @attention
  13:Drivers/STM32L0xx_HAL_Driver/Src/stm32l0xx_hal_gpio.c ****   *
  14:Drivers/STM32L0xx_HAL_Driver/Src/stm32l0xx_hal_gpio.c ****   * Copyright (c) 2016 STMicroelectronics.
  15:Drivers/STM32L0xx_HAL_Driver/Src/stm32l0xx_hal_gpio.c ****   * All rights reserved.
  16:Drivers/STM32L0xx_HAL_Driver/Src/stm32l0xx_hal_gpio.c ****   *
  17:Drivers/STM32L0xx_HAL_Driver/Src/stm32l0xx_hal_gpio.c ****   * This software is licensed under terms that can be found in the LICENSE file
  18:Drivers/STM32L0xx_HAL_Driver/Src/stm32l0xx_hal_gpio.c ****   * in the root directory of this software component.
  19:Drivers/STM32L0xx_HAL_Driver/Src/stm32l0xx_hal_gpio.c ****   * If no LICENSE file comes with this software, it is provided AS-IS.
  20:Drivers/STM32L0xx_HAL_Driver/Src/stm32l0xx_hal_gpio.c ****   *
  21:Drivers/STM32L0xx_HAL_Driver/Src/stm32l0xx_hal_gpio.c ****   ******************************************************************************
  22:Drivers/STM32L0xx_HAL_Driver/Src/stm32l0xx_hal_gpio.c ****   @verbatim
  23:Drivers/STM32L0xx_HAL_Driver/Src/stm32l0xx_hal_gpio.c ****   ==============================================================================
  24:Drivers/STM32L0xx_HAL_Driver/Src/stm32l0xx_hal_gpio.c ****                     ##### GPIO Peripheral features #####
  25:Drivers/STM32L0xx_HAL_Driver/Src/stm32l0xx_hal_gpio.c ****   ==============================================================================
  26:Drivers/STM32L0xx_HAL_Driver/Src/stm32l0xx_hal_gpio.c ****   [..]
  27:Drivers/STM32L0xx_HAL_Driver/Src/stm32l0xx_hal_gpio.c ****     (+) Each port bit of the general-purpose I/O (GPIO) ports can be individually
  28:Drivers/STM32L0xx_HAL_Driver/Src/stm32l0xx_hal_gpio.c ****   configured by software in several modes:
  29:Drivers/STM32L0xx_HAL_Driver/Src/stm32l0xx_hal_gpio.c ****         (++) Input mode
  30:Drivers/STM32L0xx_HAL_Driver/Src/stm32l0xx_hal_gpio.c ****         (++) Analog mode
  31:Drivers/STM32L0xx_HAL_Driver/Src/stm32l0xx_hal_gpio.c ****         (++) Output mode
ARM GAS  C:\Users\xhex8\AppData\Local\Temp\ccpUd0il.s 			page 2


  32:Drivers/STM32L0xx_HAL_Driver/Src/stm32l0xx_hal_gpio.c ****         (++) Alternate function mode
  33:Drivers/STM32L0xx_HAL_Driver/Src/stm32l0xx_hal_gpio.c ****         (++) External interrupt/event lines
  34:Drivers/STM32L0xx_HAL_Driver/Src/stm32l0xx_hal_gpio.c **** 
  35:Drivers/STM32L0xx_HAL_Driver/Src/stm32l0xx_hal_gpio.c ****     (+) During and just after reset, the alternate functions and external interrupt
  36:Drivers/STM32L0xx_HAL_Driver/Src/stm32l0xx_hal_gpio.c ****   lines are not active and the I/O ports are configured in input floating mode.
  37:Drivers/STM32L0xx_HAL_Driver/Src/stm32l0xx_hal_gpio.c **** 
  38:Drivers/STM32L0xx_HAL_Driver/Src/stm32l0xx_hal_gpio.c ****     (+) All GPIO pins have weak internal pull-up and pull-down resistors, which can be
  39:Drivers/STM32L0xx_HAL_Driver/Src/stm32l0xx_hal_gpio.c ****   activated or not.
  40:Drivers/STM32L0xx_HAL_Driver/Src/stm32l0xx_hal_gpio.c **** 
  41:Drivers/STM32L0xx_HAL_Driver/Src/stm32l0xx_hal_gpio.c ****     (+) In Output or Alternate mode, each IO can be configured on open-drain or push-pull
  42:Drivers/STM32L0xx_HAL_Driver/Src/stm32l0xx_hal_gpio.c ****   type and the IO speed can be selected depending on the VDD value.
  43:Drivers/STM32L0xx_HAL_Driver/Src/stm32l0xx_hal_gpio.c **** 
  44:Drivers/STM32L0xx_HAL_Driver/Src/stm32l0xx_hal_gpio.c ****     (+) The microcontroller IO pins are connected to onboard peripherals/modules through a
  45:Drivers/STM32L0xx_HAL_Driver/Src/stm32l0xx_hal_gpio.c ****         multiplexer that allows only one peripheral alternate function (AF) connected
  46:Drivers/STM32L0xx_HAL_Driver/Src/stm32l0xx_hal_gpio.c ****   to an IO pin at a time. In this way, there can be no conflict between peripherals
  47:Drivers/STM32L0xx_HAL_Driver/Src/stm32l0xx_hal_gpio.c ****   sharing the same IO pin.
  48:Drivers/STM32L0xx_HAL_Driver/Src/stm32l0xx_hal_gpio.c **** 
  49:Drivers/STM32L0xx_HAL_Driver/Src/stm32l0xx_hal_gpio.c ****     (+) All ports have external interrupt/event capability. To use external interrupt
  50:Drivers/STM32L0xx_HAL_Driver/Src/stm32l0xx_hal_gpio.c ****   lines, the port must be configured in input mode. All available GPIO pins are
  51:Drivers/STM32L0xx_HAL_Driver/Src/stm32l0xx_hal_gpio.c ****   connected to the 16 external interrupt/event lines from EXTI0 to EXTI15.
  52:Drivers/STM32L0xx_HAL_Driver/Src/stm32l0xx_hal_gpio.c **** 
  53:Drivers/STM32L0xx_HAL_Driver/Src/stm32l0xx_hal_gpio.c ****     (+) The external interrupt/event controller consists of up to 28 edge detectors
  54:Drivers/STM32L0xx_HAL_Driver/Src/stm32l0xx_hal_gpio.c ****   (16 lines are connected to GPIO) for generating event/interrupt requests (each
  55:Drivers/STM32L0xx_HAL_Driver/Src/stm32l0xx_hal_gpio.c ****   input line can be independently configured to select the type (interrupt or event)
  56:Drivers/STM32L0xx_HAL_Driver/Src/stm32l0xx_hal_gpio.c ****   and the corresponding trigger event (rising or falling or both). Each line can
  57:Drivers/STM32L0xx_HAL_Driver/Src/stm32l0xx_hal_gpio.c ****   also be masked independently.
  58:Drivers/STM32L0xx_HAL_Driver/Src/stm32l0xx_hal_gpio.c **** 
  59:Drivers/STM32L0xx_HAL_Driver/Src/stm32l0xx_hal_gpio.c ****                      ##### How to use this driver #####
  60:Drivers/STM32L0xx_HAL_Driver/Src/stm32l0xx_hal_gpio.c ****   ==============================================================================
  61:Drivers/STM32L0xx_HAL_Driver/Src/stm32l0xx_hal_gpio.c ****   [..]
  62:Drivers/STM32L0xx_HAL_Driver/Src/stm32l0xx_hal_gpio.c ****     (#) Enable the GPIO IOPORT clock using the following function: __HAL_RCC_GPIOx_CLK_ENABLE().
  63:Drivers/STM32L0xx_HAL_Driver/Src/stm32l0xx_hal_gpio.c **** 
  64:Drivers/STM32L0xx_HAL_Driver/Src/stm32l0xx_hal_gpio.c ****     (#) Configure the GPIO pin(s) using HAL_GPIO_Init().
  65:Drivers/STM32L0xx_HAL_Driver/Src/stm32l0xx_hal_gpio.c ****         (++) Configure the IO mode using "Mode" member from GPIO_InitTypeDef structure
  66:Drivers/STM32L0xx_HAL_Driver/Src/stm32l0xx_hal_gpio.c ****         (++) Activate Pull-up, Pull-down resistor using "Pull" member from GPIO_InitTypeDef
  67:Drivers/STM32L0xx_HAL_Driver/Src/stm32l0xx_hal_gpio.c ****              structure.
  68:Drivers/STM32L0xx_HAL_Driver/Src/stm32l0xx_hal_gpio.c ****         (++) In case of Output or alternate function mode selection: the speed is
  69:Drivers/STM32L0xx_HAL_Driver/Src/stm32l0xx_hal_gpio.c ****              configured through "Speed" member from GPIO_InitTypeDef structure.
  70:Drivers/STM32L0xx_HAL_Driver/Src/stm32l0xx_hal_gpio.c ****         (++) In alternate mode is selection, the alternate function connected to the IO
  71:Drivers/STM32L0xx_HAL_Driver/Src/stm32l0xx_hal_gpio.c ****              is configured through "Alternate" member from GPIO_InitTypeDef structure.
  72:Drivers/STM32L0xx_HAL_Driver/Src/stm32l0xx_hal_gpio.c ****         (++) Analog mode is required when a pin is to be used as ADC channel
  73:Drivers/STM32L0xx_HAL_Driver/Src/stm32l0xx_hal_gpio.c ****              or DAC output.
  74:Drivers/STM32L0xx_HAL_Driver/Src/stm32l0xx_hal_gpio.c ****         (++) In case of external interrupt/event selection the "Mode" member from
  75:Drivers/STM32L0xx_HAL_Driver/Src/stm32l0xx_hal_gpio.c ****              GPIO_InitTypeDef structure select the type (interrupt or event) and
  76:Drivers/STM32L0xx_HAL_Driver/Src/stm32l0xx_hal_gpio.c ****              the corresponding trigger event (rising or falling or both).
  77:Drivers/STM32L0xx_HAL_Driver/Src/stm32l0xx_hal_gpio.c **** 
  78:Drivers/STM32L0xx_HAL_Driver/Src/stm32l0xx_hal_gpio.c ****     (#) In case of external interrupt/event mode selection, configure NVIC IRQ priority
  79:Drivers/STM32L0xx_HAL_Driver/Src/stm32l0xx_hal_gpio.c ****         mapped to the EXTI line using HAL_NVIC_SetPriority() and enable it using
  80:Drivers/STM32L0xx_HAL_Driver/Src/stm32l0xx_hal_gpio.c ****         HAL_NVIC_EnableIRQ().
  81:Drivers/STM32L0xx_HAL_Driver/Src/stm32l0xx_hal_gpio.c **** 
  82:Drivers/STM32L0xx_HAL_Driver/Src/stm32l0xx_hal_gpio.c ****    (#) HAL_GPIO_DeInit allows to set register values to their reset value. This function
  83:Drivers/STM32L0xx_HAL_Driver/Src/stm32l0xx_hal_gpio.c ****        is also to be used when unconfiguring pin which was used as an external interrupt
  84:Drivers/STM32L0xx_HAL_Driver/Src/stm32l0xx_hal_gpio.c ****        or in event mode. That is the only way to reset the corresponding bit in
  85:Drivers/STM32L0xx_HAL_Driver/Src/stm32l0xx_hal_gpio.c ****        EXTI & SYSCFG registers.
  86:Drivers/STM32L0xx_HAL_Driver/Src/stm32l0xx_hal_gpio.c **** 
  87:Drivers/STM32L0xx_HAL_Driver/Src/stm32l0xx_hal_gpio.c ****     (#) To get the level of a pin configured in input mode use HAL_GPIO_ReadPin().
  88:Drivers/STM32L0xx_HAL_Driver/Src/stm32l0xx_hal_gpio.c **** 
ARM GAS  C:\Users\xhex8\AppData\Local\Temp\ccpUd0il.s 			page 3


  89:Drivers/STM32L0xx_HAL_Driver/Src/stm32l0xx_hal_gpio.c ****     (#) To set/reset the level of a pin configured in output mode use
  90:Drivers/STM32L0xx_HAL_Driver/Src/stm32l0xx_hal_gpio.c ****         HAL_GPIO_WritePin()/HAL_GPIO_TogglePin().
  91:Drivers/STM32L0xx_HAL_Driver/Src/stm32l0xx_hal_gpio.c **** 
  92:Drivers/STM32L0xx_HAL_Driver/Src/stm32l0xx_hal_gpio.c ****     (#) To lock pin configuration until next reset use HAL_GPIO_LockPin().
  93:Drivers/STM32L0xx_HAL_Driver/Src/stm32l0xx_hal_gpio.c **** 
  94:Drivers/STM32L0xx_HAL_Driver/Src/stm32l0xx_hal_gpio.c ****     (#) During and just after reset, the alternate functions are not
  95:Drivers/STM32L0xx_HAL_Driver/Src/stm32l0xx_hal_gpio.c ****         active and the GPIO pins are configured in input floating mode (except JTAG
  96:Drivers/STM32L0xx_HAL_Driver/Src/stm32l0xx_hal_gpio.c ****         pins).
  97:Drivers/STM32L0xx_HAL_Driver/Src/stm32l0xx_hal_gpio.c **** 
  98:Drivers/STM32L0xx_HAL_Driver/Src/stm32l0xx_hal_gpio.c ****     (#) The LSE oscillator pins OSC32_IN and OSC32_OUT can be used as general purpose
  99:Drivers/STM32L0xx_HAL_Driver/Src/stm32l0xx_hal_gpio.c ****         (PC14 and PC15, respectively) when the LSE oscillator is off. The LSE has
 100:Drivers/STM32L0xx_HAL_Driver/Src/stm32l0xx_hal_gpio.c ****         priority over the GPIO function.
 101:Drivers/STM32L0xx_HAL_Driver/Src/stm32l0xx_hal_gpio.c **** 
 102:Drivers/STM32L0xx_HAL_Driver/Src/stm32l0xx_hal_gpio.c ****     (#) The HSE oscillator pins OSC_IN/OSC_OUT can be used as
 103:Drivers/STM32L0xx_HAL_Driver/Src/stm32l0xx_hal_gpio.c ****         general purpose PH0 and PH1, respectively, when the HSE oscillator is off.
 104:Drivers/STM32L0xx_HAL_Driver/Src/stm32l0xx_hal_gpio.c ****         The HSE has priority over the GPIO function.
 105:Drivers/STM32L0xx_HAL_Driver/Src/stm32l0xx_hal_gpio.c **** 
 106:Drivers/STM32L0xx_HAL_Driver/Src/stm32l0xx_hal_gpio.c ****   @endverbatim
 107:Drivers/STM32L0xx_HAL_Driver/Src/stm32l0xx_hal_gpio.c ****   ******************************************************************************
 108:Drivers/STM32L0xx_HAL_Driver/Src/stm32l0xx_hal_gpio.c ****   */
 109:Drivers/STM32L0xx_HAL_Driver/Src/stm32l0xx_hal_gpio.c **** 
 110:Drivers/STM32L0xx_HAL_Driver/Src/stm32l0xx_hal_gpio.c **** /* Includes ------------------------------------------------------------------*/
 111:Drivers/STM32L0xx_HAL_Driver/Src/stm32l0xx_hal_gpio.c **** #include "stm32l0xx_hal.h"
 112:Drivers/STM32L0xx_HAL_Driver/Src/stm32l0xx_hal_gpio.c **** 
 113:Drivers/STM32L0xx_HAL_Driver/Src/stm32l0xx_hal_gpio.c **** /** @addtogroup STM32L0xx_HAL_Driver
 114:Drivers/STM32L0xx_HAL_Driver/Src/stm32l0xx_hal_gpio.c ****   * @{
 115:Drivers/STM32L0xx_HAL_Driver/Src/stm32l0xx_hal_gpio.c ****   */
 116:Drivers/STM32L0xx_HAL_Driver/Src/stm32l0xx_hal_gpio.c **** 
 117:Drivers/STM32L0xx_HAL_Driver/Src/stm32l0xx_hal_gpio.c **** #ifdef HAL_GPIO_MODULE_ENABLED
 118:Drivers/STM32L0xx_HAL_Driver/Src/stm32l0xx_hal_gpio.c **** 
 119:Drivers/STM32L0xx_HAL_Driver/Src/stm32l0xx_hal_gpio.c **** /** @addtogroup GPIO
 120:Drivers/STM32L0xx_HAL_Driver/Src/stm32l0xx_hal_gpio.c ****   * @brief GPIO HAL module driver
 121:Drivers/STM32L0xx_HAL_Driver/Src/stm32l0xx_hal_gpio.c ****   * @{
 122:Drivers/STM32L0xx_HAL_Driver/Src/stm32l0xx_hal_gpio.c ****   */
 123:Drivers/STM32L0xx_HAL_Driver/Src/stm32l0xx_hal_gpio.c **** 
 124:Drivers/STM32L0xx_HAL_Driver/Src/stm32l0xx_hal_gpio.c **** /* Private define ------------------------------------------------------------*/
 125:Drivers/STM32L0xx_HAL_Driver/Src/stm32l0xx_hal_gpio.c **** /** @addtogroup GPIO_Private
 126:Drivers/STM32L0xx_HAL_Driver/Src/stm32l0xx_hal_gpio.c ****   * @{
 127:Drivers/STM32L0xx_HAL_Driver/Src/stm32l0xx_hal_gpio.c ****   */
 128:Drivers/STM32L0xx_HAL_Driver/Src/stm32l0xx_hal_gpio.c **** #define GPIO_NUMBER           (16U)
 129:Drivers/STM32L0xx_HAL_Driver/Src/stm32l0xx_hal_gpio.c **** /**
 130:Drivers/STM32L0xx_HAL_Driver/Src/stm32l0xx_hal_gpio.c ****   * @}
 131:Drivers/STM32L0xx_HAL_Driver/Src/stm32l0xx_hal_gpio.c ****   */
 132:Drivers/STM32L0xx_HAL_Driver/Src/stm32l0xx_hal_gpio.c **** /** @addtogroup GPIO_Exported_Functions
 133:Drivers/STM32L0xx_HAL_Driver/Src/stm32l0xx_hal_gpio.c ****   * @{
 134:Drivers/STM32L0xx_HAL_Driver/Src/stm32l0xx_hal_gpio.c ****   */
 135:Drivers/STM32L0xx_HAL_Driver/Src/stm32l0xx_hal_gpio.c **** 
 136:Drivers/STM32L0xx_HAL_Driver/Src/stm32l0xx_hal_gpio.c **** /** @addtogroup GPIO_Exported_Functions_Group1
 137:Drivers/STM32L0xx_HAL_Driver/Src/stm32l0xx_hal_gpio.c ****  *  @brief    Initialization and de-initialization functions
 138:Drivers/STM32L0xx_HAL_Driver/Src/stm32l0xx_hal_gpio.c ****  *
 139:Drivers/STM32L0xx_HAL_Driver/Src/stm32l0xx_hal_gpio.c **** @verbatim
 140:Drivers/STM32L0xx_HAL_Driver/Src/stm32l0xx_hal_gpio.c ****  ===============================================================================
 141:Drivers/STM32L0xx_HAL_Driver/Src/stm32l0xx_hal_gpio.c ****               ##### Initialization and de-initialization functions #####
 142:Drivers/STM32L0xx_HAL_Driver/Src/stm32l0xx_hal_gpio.c ****  ===============================================================================
 143:Drivers/STM32L0xx_HAL_Driver/Src/stm32l0xx_hal_gpio.c **** 
 144:Drivers/STM32L0xx_HAL_Driver/Src/stm32l0xx_hal_gpio.c **** @endverbatim
 145:Drivers/STM32L0xx_HAL_Driver/Src/stm32l0xx_hal_gpio.c ****   * @{
ARM GAS  C:\Users\xhex8\AppData\Local\Temp\ccpUd0il.s 			page 4


 146:Drivers/STM32L0xx_HAL_Driver/Src/stm32l0xx_hal_gpio.c ****   */
 147:Drivers/STM32L0xx_HAL_Driver/Src/stm32l0xx_hal_gpio.c **** 
 148:Drivers/STM32L0xx_HAL_Driver/Src/stm32l0xx_hal_gpio.c **** /**
 149:Drivers/STM32L0xx_HAL_Driver/Src/stm32l0xx_hal_gpio.c ****   * @brief  Initializes the GPIOx peripheral according to the specified parameters in the GPIO_Init
 150:Drivers/STM32L0xx_HAL_Driver/Src/stm32l0xx_hal_gpio.c ****   * @param  GPIOx where x can be (A..E and H) to select the GPIO peripheral for STM32L0XX family de
 151:Drivers/STM32L0xx_HAL_Driver/Src/stm32l0xx_hal_gpio.c ****   *                Note that GPIOE is not available on all devices.
 152:Drivers/STM32L0xx_HAL_Driver/Src/stm32l0xx_hal_gpio.c ****   * @param  GPIO_Init pointer to a GPIO_InitTypeDef structure that contains
 153:Drivers/STM32L0xx_HAL_Driver/Src/stm32l0xx_hal_gpio.c ****   *                    the configuration information for the specified GPIO peripheral.
 154:Drivers/STM32L0xx_HAL_Driver/Src/stm32l0xx_hal_gpio.c ****   * @retval None
 155:Drivers/STM32L0xx_HAL_Driver/Src/stm32l0xx_hal_gpio.c ****   */
 156:Drivers/STM32L0xx_HAL_Driver/Src/stm32l0xx_hal_gpio.c **** void HAL_GPIO_Init(GPIO_TypeDef  *GPIOx, GPIO_InitTypeDef *GPIO_Init)
 157:Drivers/STM32L0xx_HAL_Driver/Src/stm32l0xx_hal_gpio.c **** {
  28              		.loc 1 157 1 view -0
  29              		.cfi_startproc
  30              		@ args = 0, pretend = 0, frame = 0
  31              		@ frame_needed = 0, uses_anonymous_args = 0
  32              		.loc 1 157 1 is_stmt 0 view .LVU1
  33 0000 F0B5     		push	{r4, r5, r6, r7, lr}
  34              		.cfi_def_cfa_offset 20
  35              		.cfi_offset 4, -20
  36              		.cfi_offset 5, -16
  37              		.cfi_offset 6, -12
  38              		.cfi_offset 7, -8
  39              		.cfi_offset 14, -4
 158:Drivers/STM32L0xx_HAL_Driver/Src/stm32l0xx_hal_gpio.c ****   uint32_t position = 0x00U;
  40              		.loc 1 158 3 is_stmt 1 view .LVU2
  41              	.LVL1:
 159:Drivers/STM32L0xx_HAL_Driver/Src/stm32l0xx_hal_gpio.c ****   uint32_t iocurrent = 0x00U;
  42              		.loc 1 159 3 view .LVU3
 160:Drivers/STM32L0xx_HAL_Driver/Src/stm32l0xx_hal_gpio.c ****   uint32_t temp = 0x00U;
  43              		.loc 1 160 3 view .LVU4
 161:Drivers/STM32L0xx_HAL_Driver/Src/stm32l0xx_hal_gpio.c **** 
 162:Drivers/STM32L0xx_HAL_Driver/Src/stm32l0xx_hal_gpio.c ****   /* Check the parameters */
 163:Drivers/STM32L0xx_HAL_Driver/Src/stm32l0xx_hal_gpio.c ****   assert_param(IS_GPIO_MODE(GPIO_Init->Mode));
  44              		.loc 1 163 3 view .LVU5
 164:Drivers/STM32L0xx_HAL_Driver/Src/stm32l0xx_hal_gpio.c ****   assert_param(IS_GPIO_PIN_AVAILABLE(GPIOx, (GPIO_Init->Pin)));
  45              		.loc 1 164 3 view .LVU6
 165:Drivers/STM32L0xx_HAL_Driver/Src/stm32l0xx_hal_gpio.c **** 
 166:Drivers/STM32L0xx_HAL_Driver/Src/stm32l0xx_hal_gpio.c ****   /* Configure the port pins */
 167:Drivers/STM32L0xx_HAL_Driver/Src/stm32l0xx_hal_gpio.c ****   while (((GPIO_Init->Pin) >> position) != 0)
  46              		.loc 1 167 3 view .LVU7
 158:Drivers/STM32L0xx_HAL_Driver/Src/stm32l0xx_hal_gpio.c ****   uint32_t iocurrent = 0x00U;
  47              		.loc 1 158 12 is_stmt 0 view .LVU8
  48 0002 0023     		movs	r3, #0
  49              		.loc 1 167 9 view .LVU9
  50 0004 56E0     		b	.L2
  51              	.LVL2:
  52              	.L22:
 168:Drivers/STM32L0xx_HAL_Driver/Src/stm32l0xx_hal_gpio.c ****   {
 169:Drivers/STM32L0xx_HAL_Driver/Src/stm32l0xx_hal_gpio.c ****     /* Get the IO position */
 170:Drivers/STM32L0xx_HAL_Driver/Src/stm32l0xx_hal_gpio.c ****     iocurrent = (GPIO_Init->Pin) & (1U << position);
 171:Drivers/STM32L0xx_HAL_Driver/Src/stm32l0xx_hal_gpio.c **** 
 172:Drivers/STM32L0xx_HAL_Driver/Src/stm32l0xx_hal_gpio.c ****     if (iocurrent)
 173:Drivers/STM32L0xx_HAL_Driver/Src/stm32l0xx_hal_gpio.c ****     {
 174:Drivers/STM32L0xx_HAL_Driver/Src/stm32l0xx_hal_gpio.c ****       /*--------------------- GPIO Mode Configuration ------------------------*/
 175:Drivers/STM32L0xx_HAL_Driver/Src/stm32l0xx_hal_gpio.c ****       /* In case of Output or Alternate function mode selection */
 176:Drivers/STM32L0xx_HAL_Driver/Src/stm32l0xx_hal_gpio.c ****       if (((GPIO_Init->Mode & GPIO_MODE) == MODE_OUTPUT) ||
ARM GAS  C:\Users\xhex8\AppData\Local\Temp\ccpUd0il.s 			page 5


 177:Drivers/STM32L0xx_HAL_Driver/Src/stm32l0xx_hal_gpio.c ****           ((GPIO_Init->Mode & GPIO_MODE) == MODE_AF))
 178:Drivers/STM32L0xx_HAL_Driver/Src/stm32l0xx_hal_gpio.c ****       {
 179:Drivers/STM32L0xx_HAL_Driver/Src/stm32l0xx_hal_gpio.c ****         /* Check the Speed parameter */
 180:Drivers/STM32L0xx_HAL_Driver/Src/stm32l0xx_hal_gpio.c ****         assert_param(IS_GPIO_SPEED(GPIO_Init->Speed));
  53              		.loc 1 180 9 is_stmt 1 view .LVU10
 181:Drivers/STM32L0xx_HAL_Driver/Src/stm32l0xx_hal_gpio.c ****         /* Configure the IO Speed */
 182:Drivers/STM32L0xx_HAL_Driver/Src/stm32l0xx_hal_gpio.c ****         temp = GPIOx->OSPEEDR;
  54              		.loc 1 182 9 view .LVU11
  55              		.loc 1 182 14 is_stmt 0 view .LVU12
  56 0006 8668     		ldr	r6, [r0, #8]
  57              	.LVL3:
 183:Drivers/STM32L0xx_HAL_Driver/Src/stm32l0xx_hal_gpio.c ****         temp &= ~(GPIO_OSPEEDER_OSPEED0 << (position * 2U));
  58              		.loc 1 183 9 is_stmt 1 view .LVU13
  59              		.loc 1 183 54 is_stmt 0 view .LVU14
  60 0008 5F00     		lsls	r7, r3, #1
  61              		.loc 1 183 41 view .LVU15
  62 000a 0324     		movs	r4, #3
  63 000c BC40     		lsls	r4, r4, r7
  64              		.loc 1 183 14 view .LVU16
  65 000e A643     		bics	r6, r4
  66              	.LVL4:
 184:Drivers/STM32L0xx_HAL_Driver/Src/stm32l0xx_hal_gpio.c ****         temp |= (GPIO_Init->Speed << (position * 2U));
  67              		.loc 1 184 9 is_stmt 1 view .LVU17
  68              		.loc 1 184 27 is_stmt 0 view .LVU18
  69 0010 CC68     		ldr	r4, [r1, #12]
  70              		.loc 1 184 35 view .LVU19
  71 0012 BC40     		lsls	r4, r4, r7
  72              		.loc 1 184 14 view .LVU20
  73 0014 3443     		orrs	r4, r6
  74              	.LVL5:
 185:Drivers/STM32L0xx_HAL_Driver/Src/stm32l0xx_hal_gpio.c ****         GPIOx->OSPEEDR = temp;
  75              		.loc 1 185 9 is_stmt 1 view .LVU21
  76              		.loc 1 185 24 is_stmt 0 view .LVU22
  77 0016 8460     		str	r4, [r0, #8]
 186:Drivers/STM32L0xx_HAL_Driver/Src/stm32l0xx_hal_gpio.c **** 
 187:Drivers/STM32L0xx_HAL_Driver/Src/stm32l0xx_hal_gpio.c ****         /* Configure the IO Output Type */
 188:Drivers/STM32L0xx_HAL_Driver/Src/stm32l0xx_hal_gpio.c ****         temp = GPIOx->OTYPER;
  78              		.loc 1 188 9 is_stmt 1 view .LVU23
  79              		.loc 1 188 14 is_stmt 0 view .LVU24
  80 0018 4468     		ldr	r4, [r0, #4]
  81              	.LVL6:
 189:Drivers/STM32L0xx_HAL_Driver/Src/stm32l0xx_hal_gpio.c ****         temp &= ~(GPIO_OTYPER_OT_0 << position) ;
  82              		.loc 1 189 9 is_stmt 1 view .LVU25
  83              		.loc 1 189 14 is_stmt 0 view .LVU26
  84 001a 9443     		bics	r4, r2
  85              	.LVL7:
 190:Drivers/STM32L0xx_HAL_Driver/Src/stm32l0xx_hal_gpio.c ****         temp |= (((GPIO_Init->Mode & OUTPUT_TYPE) >> OUTPUT_TYPE_Pos) << position);
  86              		.loc 1 190 9 is_stmt 1 view .LVU27
  87              		.loc 1 190 29 is_stmt 0 view .LVU28
  88 001c 4E68     		ldr	r6, [r1, #4]
  89              		.loc 1 190 51 view .LVU29
  90 001e 3609     		lsrs	r6, r6, #4
  91 0020 0122     		movs	r2, #1
  92 0022 3240     		ands	r2, r6
  93              		.loc 1 190 71 view .LVU30
  94 0024 9A40     		lsls	r2, r2, r3
  95              		.loc 1 190 14 view .LVU31
ARM GAS  C:\Users\xhex8\AppData\Local\Temp\ccpUd0il.s 			page 6


  96 0026 2243     		orrs	r2, r4
  97              	.LVL8:
 191:Drivers/STM32L0xx_HAL_Driver/Src/stm32l0xx_hal_gpio.c ****         GPIOx->OTYPER = temp;
  98              		.loc 1 191 9 is_stmt 1 view .LVU32
  99              		.loc 1 191 23 is_stmt 0 view .LVU33
 100 0028 4260     		str	r2, [r0, #4]
 101 002a 53E0     		b	.L4
 102              	.LVL9:
 103              	.L23:
 192:Drivers/STM32L0xx_HAL_Driver/Src/stm32l0xx_hal_gpio.c ****       }
 193:Drivers/STM32L0xx_HAL_Driver/Src/stm32l0xx_hal_gpio.c **** 
 194:Drivers/STM32L0xx_HAL_Driver/Src/stm32l0xx_hal_gpio.c ****       if ((GPIO_Init->Mode & GPIO_MODE) != MODE_ANALOG)
 195:Drivers/STM32L0xx_HAL_Driver/Src/stm32l0xx_hal_gpio.c ****       {
 196:Drivers/STM32L0xx_HAL_Driver/Src/stm32l0xx_hal_gpio.c ****         /* Check the Pull parameter */
 197:Drivers/STM32L0xx_HAL_Driver/Src/stm32l0xx_hal_gpio.c ****         assert_param(IS_GPIO_PULL(GPIO_Init->Pull));
 198:Drivers/STM32L0xx_HAL_Driver/Src/stm32l0xx_hal_gpio.c **** 
 199:Drivers/STM32L0xx_HAL_Driver/Src/stm32l0xx_hal_gpio.c ****         /* Activate the Pull-up or Pull down resistor for the current IO */
 200:Drivers/STM32L0xx_HAL_Driver/Src/stm32l0xx_hal_gpio.c ****         temp = GPIOx->PUPDR;
 201:Drivers/STM32L0xx_HAL_Driver/Src/stm32l0xx_hal_gpio.c ****         temp &= ~(GPIO_PUPDR_PUPD0 << (position * 2U));
 202:Drivers/STM32L0xx_HAL_Driver/Src/stm32l0xx_hal_gpio.c ****         temp |= ((GPIO_Init->Pull) << (position * 2U));
 203:Drivers/STM32L0xx_HAL_Driver/Src/stm32l0xx_hal_gpio.c ****         GPIOx->PUPDR = temp;
 204:Drivers/STM32L0xx_HAL_Driver/Src/stm32l0xx_hal_gpio.c ****       }
 205:Drivers/STM32L0xx_HAL_Driver/Src/stm32l0xx_hal_gpio.c **** 
 206:Drivers/STM32L0xx_HAL_Driver/Src/stm32l0xx_hal_gpio.c ****       /* In case of Alternate function mode selection */
 207:Drivers/STM32L0xx_HAL_Driver/Src/stm32l0xx_hal_gpio.c ****       if ((GPIO_Init->Mode & GPIO_MODE) == MODE_AF)
 208:Drivers/STM32L0xx_HAL_Driver/Src/stm32l0xx_hal_gpio.c ****       {
 209:Drivers/STM32L0xx_HAL_Driver/Src/stm32l0xx_hal_gpio.c ****         /* Check the Alternate function parameters */
 210:Drivers/STM32L0xx_HAL_Driver/Src/stm32l0xx_hal_gpio.c ****         assert_param(IS_GPIO_AF_INSTANCE(GPIOx));
 104              		.loc 1 210 9 is_stmt 1 view .LVU34
 211:Drivers/STM32L0xx_HAL_Driver/Src/stm32l0xx_hal_gpio.c ****         assert_param(IS_GPIO_AF(GPIO_Init->Alternate));
 105              		.loc 1 211 9 view .LVU35
 212:Drivers/STM32L0xx_HAL_Driver/Src/stm32l0xx_hal_gpio.c **** 
 213:Drivers/STM32L0xx_HAL_Driver/Src/stm32l0xx_hal_gpio.c ****         /* Configure Alternate function mapped with the current IO */
 214:Drivers/STM32L0xx_HAL_Driver/Src/stm32l0xx_hal_gpio.c ****         temp = GPIOx->AFR[position >> 3U];
 106              		.loc 1 214 9 view .LVU36
 107              		.loc 1 214 36 is_stmt 0 view .LVU37
 108 002c DE08     		lsrs	r6, r3, #3
 109              		.loc 1 214 14 view .LVU38
 110 002e 0836     		adds	r6, r6, #8
 111 0030 B600     		lsls	r6, r6, #2
 112 0032 3758     		ldr	r7, [r6, r0]
 113              	.LVL10:
 215:Drivers/STM32L0xx_HAL_Driver/Src/stm32l0xx_hal_gpio.c ****         temp &= ~(0xFUL << ((uint32_t)(position & 0x07UL) * 4U));
 114              		.loc 1 215 9 is_stmt 1 view .LVU39
 115              		.loc 1 215 29 is_stmt 0 view .LVU40
 116 0034 0532     		adds	r2, r2, #5
 117 0036 1A40     		ands	r2, r3
 118              		.loc 1 215 59 view .LVU41
 119 0038 9200     		lsls	r2, r2, #2
 120              		.loc 1 215 25 view .LVU42
 121 003a 0F24     		movs	r4, #15
 122 003c 9440     		lsls	r4, r4, r2
 123              		.loc 1 215 14 view .LVU43
 124 003e A743     		bics	r7, r4
 125              	.LVL11:
 216:Drivers/STM32L0xx_HAL_Driver/Src/stm32l0xx_hal_gpio.c ****         temp |= ((uint32_t)(GPIO_Init->Alternate) << (((uint32_t)position & (uint32_t)0x07U) * 4U))
 126              		.loc 1 216 9 is_stmt 1 view .LVU44
ARM GAS  C:\Users\xhex8\AppData\Local\Temp\ccpUd0il.s 			page 7


 127              		.loc 1 216 38 is_stmt 0 view .LVU45
 128 0040 0C69     		ldr	r4, [r1, #16]
 129              		.loc 1 216 51 view .LVU46
 130 0042 9440     		lsls	r4, r4, r2
 131 0044 2200     		movs	r2, r4
 132              		.loc 1 216 14 view .LVU47
 133 0046 3A43     		orrs	r2, r7
 134              	.LVL12:
 217:Drivers/STM32L0xx_HAL_Driver/Src/stm32l0xx_hal_gpio.c ****         GPIOx->AFR[position >> 3U] = temp;
 135              		.loc 1 217 9 is_stmt 1 view .LVU48
 136              		.loc 1 217 36 is_stmt 0 view .LVU49
 137 0048 3250     		str	r2, [r6, r0]
 138 004a 56E0     		b	.L6
 139              	.LVL13:
 140              	.L24:
 218:Drivers/STM32L0xx_HAL_Driver/Src/stm32l0xx_hal_gpio.c ****       }
 219:Drivers/STM32L0xx_HAL_Driver/Src/stm32l0xx_hal_gpio.c **** 
 220:Drivers/STM32L0xx_HAL_Driver/Src/stm32l0xx_hal_gpio.c ****       /* Configure IO Direction mode (Input, Output, Alternate or Analog) */
 221:Drivers/STM32L0xx_HAL_Driver/Src/stm32l0xx_hal_gpio.c ****       temp = GPIOx->MODER;
 222:Drivers/STM32L0xx_HAL_Driver/Src/stm32l0xx_hal_gpio.c ****       temp &= ~(GPIO_MODER_MODE0 << (position * 2U));
 223:Drivers/STM32L0xx_HAL_Driver/Src/stm32l0xx_hal_gpio.c ****       temp |= ((GPIO_Init->Mode & GPIO_MODE) << (position * 2U));
 224:Drivers/STM32L0xx_HAL_Driver/Src/stm32l0xx_hal_gpio.c ****       GPIOx->MODER = temp;
 225:Drivers/STM32L0xx_HAL_Driver/Src/stm32l0xx_hal_gpio.c **** 
 226:Drivers/STM32L0xx_HAL_Driver/Src/stm32l0xx_hal_gpio.c ****       /*--------------------- EXTI Mode Configuration ------------------------*/
 227:Drivers/STM32L0xx_HAL_Driver/Src/stm32l0xx_hal_gpio.c ****       /* Configure the External Interrupt or event for the current IO */
 228:Drivers/STM32L0xx_HAL_Driver/Src/stm32l0xx_hal_gpio.c ****       if ((GPIO_Init->Mode & EXTI_MODE) != 0x00U)
 229:Drivers/STM32L0xx_HAL_Driver/Src/stm32l0xx_hal_gpio.c ****       {
 230:Drivers/STM32L0xx_HAL_Driver/Src/stm32l0xx_hal_gpio.c ****         /* Enable SYSCFG Clock */
 231:Drivers/STM32L0xx_HAL_Driver/Src/stm32l0xx_hal_gpio.c ****         __HAL_RCC_SYSCFG_CLK_ENABLE();
 232:Drivers/STM32L0xx_HAL_Driver/Src/stm32l0xx_hal_gpio.c **** 
 233:Drivers/STM32L0xx_HAL_Driver/Src/stm32l0xx_hal_gpio.c ****         temp = SYSCFG->EXTICR[position >> 2U];
 234:Drivers/STM32L0xx_HAL_Driver/Src/stm32l0xx_hal_gpio.c ****         CLEAR_BIT(temp, (0x0FUL) << (4U * (position & 0x03U)));
 235:Drivers/STM32L0xx_HAL_Driver/Src/stm32l0xx_hal_gpio.c ****         SET_BIT(temp, (GPIO_GET_INDEX(GPIOx)) << (4 * (position & 0x03U)));
 141              		.loc 1 235 9 view .LVU50
 142 004c 0526     		movs	r6, #5
 143 004e 00E0     		b	.L7
 144              	.L13:
 145 0050 0026     		movs	r6, #0
 146              	.L7:
 147              		.loc 1 235 9 discriminator 16 view .LVU51
 148 0052 A640     		lsls	r6, r6, r4
 149 0054 3400     		movs	r4, r6
 150 0056 3C43     		orrs	r4, r7
 151              	.LVL14:
 236:Drivers/STM32L0xx_HAL_Driver/Src/stm32l0xx_hal_gpio.c ****         SYSCFG->EXTICR[position >> 2U] = temp;
 152              		.loc 1 236 9 is_stmt 1 discriminator 16 view .LVU52
 153              		.loc 1 236 40 is_stmt 0 discriminator 16 view .LVU53
 154 0058 0232     		adds	r2, r2, #2
 155 005a 9200     		lsls	r2, r2, #2
 156 005c 414E     		ldr	r6, .L25
 157 005e 9451     		str	r4, [r2, r6]
 237:Drivers/STM32L0xx_HAL_Driver/Src/stm32l0xx_hal_gpio.c **** 
 238:Drivers/STM32L0xx_HAL_Driver/Src/stm32l0xx_hal_gpio.c ****         /* Clear Rising Falling edge configuration */
 239:Drivers/STM32L0xx_HAL_Driver/Src/stm32l0xx_hal_gpio.c ****         temp = EXTI->RTSR;
 158              		.loc 1 239 9 is_stmt 1 discriminator 16 view .LVU54
 159              		.loc 1 239 14 is_stmt 0 discriminator 16 view .LVU55
 160 0060 414A     		ldr	r2, .L25+4
ARM GAS  C:\Users\xhex8\AppData\Local\Temp\ccpUd0il.s 			page 8


 161 0062 9768     		ldr	r7, [r2, #8]
 162              	.LVL15:
 240:Drivers/STM32L0xx_HAL_Driver/Src/stm32l0xx_hal_gpio.c ****         temp &= ~((uint32_t)iocurrent);
 163              		.loc 1 240 9 is_stmt 1 discriminator 16 view .LVU56
 164              		.loc 1 240 17 is_stmt 0 discriminator 16 view .LVU57
 165 0064 EA43     		mvns	r2, r5
 166              		.loc 1 240 14 discriminator 16 view .LVU58
 167 0066 3E00     		movs	r6, r7
 168 0068 AE43     		bics	r6, r5
 169              	.LVL16:
 241:Drivers/STM32L0xx_HAL_Driver/Src/stm32l0xx_hal_gpio.c ****         if ((GPIO_Init->Mode & TRIGGER_RISING) != 0x00U)
 170              		.loc 1 241 9 is_stmt 1 discriminator 16 view .LVU59
 171              		.loc 1 241 23 is_stmt 0 discriminator 16 view .LVU60
 172 006a 4C68     		ldr	r4, [r1, #4]
 173              		.loc 1 241 12 discriminator 16 view .LVU61
 174 006c E402     		lsls	r4, r4, #11
 175 006e 01D5     		bpl	.L8
 242:Drivers/STM32L0xx_HAL_Driver/Src/stm32l0xx_hal_gpio.c ****         {
 243:Drivers/STM32L0xx_HAL_Driver/Src/stm32l0xx_hal_gpio.c ****           temp |= iocurrent;
 176              		.loc 1 243 11 is_stmt 1 view .LVU62
 177              		.loc 1 243 16 is_stmt 0 view .LVU63
 178 0070 3E00     		movs	r6, r7
 179              	.LVL17:
 180              		.loc 1 243 16 view .LVU64
 181 0072 2E43     		orrs	r6, r5
 182              	.LVL18:
 183              	.L8:
 244:Drivers/STM32L0xx_HAL_Driver/Src/stm32l0xx_hal_gpio.c ****         }
 245:Drivers/STM32L0xx_HAL_Driver/Src/stm32l0xx_hal_gpio.c ****         EXTI->RTSR = temp;
 184              		.loc 1 245 9 is_stmt 1 view .LVU65
 185              		.loc 1 245 20 is_stmt 0 view .LVU66
 186 0074 3C4C     		ldr	r4, .L25+4
 187 0076 A660     		str	r6, [r4, #8]
 246:Drivers/STM32L0xx_HAL_Driver/Src/stm32l0xx_hal_gpio.c **** 
 247:Drivers/STM32L0xx_HAL_Driver/Src/stm32l0xx_hal_gpio.c ****         temp = EXTI->FTSR;
 188              		.loc 1 247 9 is_stmt 1 view .LVU67
 189              		.loc 1 247 14 is_stmt 0 view .LVU68
 190 0078 E768     		ldr	r7, [r4, #12]
 191              	.LVL19:
 248:Drivers/STM32L0xx_HAL_Driver/Src/stm32l0xx_hal_gpio.c ****         temp &= ~((uint32_t)iocurrent);
 192              		.loc 1 248 9 is_stmt 1 view .LVU69
 193              		.loc 1 248 14 is_stmt 0 view .LVU70
 194 007a 3E00     		movs	r6, r7
 195 007c 1640     		ands	r6, r2
 196              	.LVL20:
 249:Drivers/STM32L0xx_HAL_Driver/Src/stm32l0xx_hal_gpio.c ****         if ((GPIO_Init->Mode & TRIGGER_FALLING) != 0x00U)
 197              		.loc 1 249 9 is_stmt 1 view .LVU71
 198              		.loc 1 249 23 is_stmt 0 view .LVU72
 199 007e 4C68     		ldr	r4, [r1, #4]
 200              		.loc 1 249 12 view .LVU73
 201 0080 A402     		lsls	r4, r4, #10
 202 0082 01D5     		bpl	.L9
 250:Drivers/STM32L0xx_HAL_Driver/Src/stm32l0xx_hal_gpio.c ****         {
 251:Drivers/STM32L0xx_HAL_Driver/Src/stm32l0xx_hal_gpio.c ****           temp |= iocurrent;
 203              		.loc 1 251 11 is_stmt 1 view .LVU74
 204              		.loc 1 251 16 is_stmt 0 view .LVU75
 205 0084 3E00     		movs	r6, r7
ARM GAS  C:\Users\xhex8\AppData\Local\Temp\ccpUd0il.s 			page 9


 206              	.LVL21:
 207              		.loc 1 251 16 view .LVU76
 208 0086 2E43     		orrs	r6, r5
 209              	.LVL22:
 210              	.L9:
 252:Drivers/STM32L0xx_HAL_Driver/Src/stm32l0xx_hal_gpio.c ****         }
 253:Drivers/STM32L0xx_HAL_Driver/Src/stm32l0xx_hal_gpio.c ****         EXTI->FTSR = temp;
 211              		.loc 1 253 9 is_stmt 1 view .LVU77
 212              		.loc 1 253 20 is_stmt 0 view .LVU78
 213 0088 374C     		ldr	r4, .L25+4
 214 008a E660     		str	r6, [r4, #12]
 254:Drivers/STM32L0xx_HAL_Driver/Src/stm32l0xx_hal_gpio.c **** 
 255:Drivers/STM32L0xx_HAL_Driver/Src/stm32l0xx_hal_gpio.c ****         temp = EXTI->EMR;
 215              		.loc 1 255 9 is_stmt 1 view .LVU79
 216              		.loc 1 255 14 is_stmt 0 view .LVU80
 217 008c 6768     		ldr	r7, [r4, #4]
 218              	.LVL23:
 256:Drivers/STM32L0xx_HAL_Driver/Src/stm32l0xx_hal_gpio.c ****         temp &= ~((uint32_t)iocurrent);
 219              		.loc 1 256 9 is_stmt 1 view .LVU81
 220              		.loc 1 256 14 is_stmt 0 view .LVU82
 221 008e 3E00     		movs	r6, r7
 222 0090 1640     		ands	r6, r2
 223              	.LVL24:
 257:Drivers/STM32L0xx_HAL_Driver/Src/stm32l0xx_hal_gpio.c ****         if ((GPIO_Init->Mode & EXTI_EVT) != 0x00U)
 224              		.loc 1 257 9 is_stmt 1 view .LVU83
 225              		.loc 1 257 23 is_stmt 0 view .LVU84
 226 0092 4C68     		ldr	r4, [r1, #4]
 227              		.loc 1 257 12 view .LVU85
 228 0094 A403     		lsls	r4, r4, #14
 229 0096 01D5     		bpl	.L10
 258:Drivers/STM32L0xx_HAL_Driver/Src/stm32l0xx_hal_gpio.c ****         {
 259:Drivers/STM32L0xx_HAL_Driver/Src/stm32l0xx_hal_gpio.c ****           temp |= iocurrent;
 230              		.loc 1 259 11 is_stmt 1 view .LVU86
 231              		.loc 1 259 16 is_stmt 0 view .LVU87
 232 0098 3E00     		movs	r6, r7
 233              	.LVL25:
 234              		.loc 1 259 16 view .LVU88
 235 009a 2E43     		orrs	r6, r5
 236              	.LVL26:
 237              	.L10:
 260:Drivers/STM32L0xx_HAL_Driver/Src/stm32l0xx_hal_gpio.c ****         }
 261:Drivers/STM32L0xx_HAL_Driver/Src/stm32l0xx_hal_gpio.c ****         EXTI->EMR = temp;
 238              		.loc 1 261 9 is_stmt 1 view .LVU89
 239              		.loc 1 261 19 is_stmt 0 view .LVU90
 240 009c 324C     		ldr	r4, .L25+4
 241 009e 6660     		str	r6, [r4, #4]
 262:Drivers/STM32L0xx_HAL_Driver/Src/stm32l0xx_hal_gpio.c **** 
 263:Drivers/STM32L0xx_HAL_Driver/Src/stm32l0xx_hal_gpio.c ****         /* Clear EXTI line configuration */
 264:Drivers/STM32L0xx_HAL_Driver/Src/stm32l0xx_hal_gpio.c ****         temp = EXTI->IMR;
 242              		.loc 1 264 9 is_stmt 1 view .LVU91
 243              		.loc 1 264 14 is_stmt 0 view .LVU92
 244 00a0 2668     		ldr	r6, [r4]
 245              	.LVL27:
 265:Drivers/STM32L0xx_HAL_Driver/Src/stm32l0xx_hal_gpio.c ****         temp &= ~((uint32_t)iocurrent);
 246              		.loc 1 265 9 is_stmt 1 view .LVU93
 247              		.loc 1 265 14 is_stmt 0 view .LVU94
 248 00a2 3240     		ands	r2, r6
ARM GAS  C:\Users\xhex8\AppData\Local\Temp\ccpUd0il.s 			page 10


 249              	.LVL28:
 266:Drivers/STM32L0xx_HAL_Driver/Src/stm32l0xx_hal_gpio.c ****         if ((GPIO_Init->Mode & EXTI_IT) != 0x00U)
 250              		.loc 1 266 9 is_stmt 1 view .LVU95
 251              		.loc 1 266 23 is_stmt 0 view .LVU96
 252 00a4 4C68     		ldr	r4, [r1, #4]
 253              		.loc 1 266 12 view .LVU97
 254 00a6 E403     		lsls	r4, r4, #15
 255 00a8 01D5     		bpl	.L11
 267:Drivers/STM32L0xx_HAL_Driver/Src/stm32l0xx_hal_gpio.c ****         {
 268:Drivers/STM32L0xx_HAL_Driver/Src/stm32l0xx_hal_gpio.c ****           temp |= iocurrent;
 256              		.loc 1 268 11 is_stmt 1 view .LVU98
 257              		.loc 1 268 16 is_stmt 0 view .LVU99
 258 00aa 2A00     		movs	r2, r5
 259              	.LVL29:
 260              		.loc 1 268 16 view .LVU100
 261 00ac 3243     		orrs	r2, r6
 262              	.LVL30:
 263              	.L11:
 269:Drivers/STM32L0xx_HAL_Driver/Src/stm32l0xx_hal_gpio.c ****         }
 270:Drivers/STM32L0xx_HAL_Driver/Src/stm32l0xx_hal_gpio.c ****         EXTI->IMR = temp;
 264              		.loc 1 270 9 is_stmt 1 view .LVU101
 265              		.loc 1 270 19 is_stmt 0 view .LVU102
 266 00ae 2E4C     		ldr	r4, .L25+4
 267 00b0 2260     		str	r2, [r4]
 268              	.LVL31:
 269              	.L3:
 271:Drivers/STM32L0xx_HAL_Driver/Src/stm32l0xx_hal_gpio.c ****       }
 272:Drivers/STM32L0xx_HAL_Driver/Src/stm32l0xx_hal_gpio.c ****     }
 273:Drivers/STM32L0xx_HAL_Driver/Src/stm32l0xx_hal_gpio.c ****     position++;
 270              		.loc 1 273 5 is_stmt 1 view .LVU103
 271              		.loc 1 273 13 is_stmt 0 view .LVU104
 272 00b2 0133     		adds	r3, r3, #1
 273              	.LVL32:
 274              	.L2:
 167:Drivers/STM32L0xx_HAL_Driver/Src/stm32l0xx_hal_gpio.c ****   {
 275              		.loc 1 167 41 is_stmt 1 view .LVU105
 167:Drivers/STM32L0xx_HAL_Driver/Src/stm32l0xx_hal_gpio.c ****   {
 276              		.loc 1 167 21 is_stmt 0 view .LVU106
 277 00b4 0C68     		ldr	r4, [r1]
 167:Drivers/STM32L0xx_HAL_Driver/Src/stm32l0xx_hal_gpio.c ****   {
 278              		.loc 1 167 28 view .LVU107
 279 00b6 2200     		movs	r2, r4
 280 00b8 DA40     		lsrs	r2, r2, r3
 167:Drivers/STM32L0xx_HAL_Driver/Src/stm32l0xx_hal_gpio.c ****   {
 281              		.loc 1 167 41 view .LVU108
 282 00ba 52D0     		beq	.L21
 170:Drivers/STM32L0xx_HAL_Driver/Src/stm32l0xx_hal_gpio.c **** 
 283              		.loc 1 170 5 is_stmt 1 view .LVU109
 170:Drivers/STM32L0xx_HAL_Driver/Src/stm32l0xx_hal_gpio.c **** 
 284              		.loc 1 170 40 is_stmt 0 view .LVU110
 285 00bc 0122     		movs	r2, #1
 286 00be 9A40     		lsls	r2, r2, r3
 170:Drivers/STM32L0xx_HAL_Driver/Src/stm32l0xx_hal_gpio.c **** 
 287              		.loc 1 170 15 view .LVU111
 288 00c0 2500     		movs	r5, r4
 289 00c2 1540     		ands	r5, r2
 290              	.LVL33:
ARM GAS  C:\Users\xhex8\AppData\Local\Temp\ccpUd0il.s 			page 11


 172:Drivers/STM32L0xx_HAL_Driver/Src/stm32l0xx_hal_gpio.c ****     {
 291              		.loc 1 172 5 is_stmt 1 view .LVU112
 172:Drivers/STM32L0xx_HAL_Driver/Src/stm32l0xx_hal_gpio.c ****     {
 292              		.loc 1 172 8 is_stmt 0 view .LVU113
 293 00c4 1442     		tst	r4, r2
 294 00c6 F4D0     		beq	.L3
 176:Drivers/STM32L0xx_HAL_Driver/Src/stm32l0xx_hal_gpio.c ****           ((GPIO_Init->Mode & GPIO_MODE) == MODE_AF))
 295              		.loc 1 176 7 is_stmt 1 view .LVU114
 176:Drivers/STM32L0xx_HAL_Driver/Src/stm32l0xx_hal_gpio.c ****           ((GPIO_Init->Mode & GPIO_MODE) == MODE_AF))
 296              		.loc 1 176 22 is_stmt 0 view .LVU115
 297 00c8 4E68     		ldr	r6, [r1, #4]
 176:Drivers/STM32L0xx_HAL_Driver/Src/stm32l0xx_hal_gpio.c ****           ((GPIO_Init->Mode & GPIO_MODE) == MODE_AF))
 298              		.loc 1 176 29 view .LVU116
 299 00ca 0324     		movs	r4, #3
 300 00cc 3440     		ands	r4, r6
 176:Drivers/STM32L0xx_HAL_Driver/Src/stm32l0xx_hal_gpio.c ****           ((GPIO_Init->Mode & GPIO_MODE) == MODE_AF))
 301              		.loc 1 176 58 view .LVU117
 302 00ce 013C     		subs	r4, r4, #1
 176:Drivers/STM32L0xx_HAL_Driver/Src/stm32l0xx_hal_gpio.c ****           ((GPIO_Init->Mode & GPIO_MODE) == MODE_AF))
 303              		.loc 1 176 10 view .LVU118
 304 00d0 012C     		cmp	r4, #1
 305 00d2 98D9     		bls	.L22
 306              	.L4:
 194:Drivers/STM32L0xx_HAL_Driver/Src/stm32l0xx_hal_gpio.c ****       {
 307              		.loc 1 194 7 is_stmt 1 view .LVU119
 194:Drivers/STM32L0xx_HAL_Driver/Src/stm32l0xx_hal_gpio.c ****       {
 308              		.loc 1 194 21 is_stmt 0 view .LVU120
 309 00d4 4C68     		ldr	r4, [r1, #4]
 194:Drivers/STM32L0xx_HAL_Driver/Src/stm32l0xx_hal_gpio.c ****       {
 310              		.loc 1 194 28 view .LVU121
 311 00d6 0322     		movs	r2, #3
 312 00d8 2240     		ands	r2, r4
 194:Drivers/STM32L0xx_HAL_Driver/Src/stm32l0xx_hal_gpio.c ****       {
 313              		.loc 1 194 10 view .LVU122
 314 00da 032A     		cmp	r2, #3
 315 00dc 08D0     		beq	.L5
 197:Drivers/STM32L0xx_HAL_Driver/Src/stm32l0xx_hal_gpio.c **** 
 316              		.loc 1 197 9 is_stmt 1 view .LVU123
 200:Drivers/STM32L0xx_HAL_Driver/Src/stm32l0xx_hal_gpio.c ****         temp &= ~(GPIO_PUPDR_PUPD0 << (position * 2U));
 317              		.loc 1 200 9 view .LVU124
 200:Drivers/STM32L0xx_HAL_Driver/Src/stm32l0xx_hal_gpio.c ****         temp &= ~(GPIO_PUPDR_PUPD0 << (position * 2U));
 318              		.loc 1 200 14 is_stmt 0 view .LVU125
 319 00de C468     		ldr	r4, [r0, #12]
 320              	.LVL34:
 201:Drivers/STM32L0xx_HAL_Driver/Src/stm32l0xx_hal_gpio.c ****         temp |= ((GPIO_Init->Pull) << (position * 2U));
 321              		.loc 1 201 9 is_stmt 1 view .LVU126
 201:Drivers/STM32L0xx_HAL_Driver/Src/stm32l0xx_hal_gpio.c ****         temp |= ((GPIO_Init->Pull) << (position * 2U));
 322              		.loc 1 201 49 is_stmt 0 view .LVU127
 323 00e0 5E00     		lsls	r6, r3, #1
 201:Drivers/STM32L0xx_HAL_Driver/Src/stm32l0xx_hal_gpio.c ****         temp |= ((GPIO_Init->Pull) << (position * 2U));
 324              		.loc 1 201 36 view .LVU128
 325 00e2 0322     		movs	r2, #3
 326 00e4 B240     		lsls	r2, r2, r6
 201:Drivers/STM32L0xx_HAL_Driver/Src/stm32l0xx_hal_gpio.c ****         temp |= ((GPIO_Init->Pull) << (position * 2U));
 327              		.loc 1 201 14 view .LVU129
 328 00e6 9443     		bics	r4, r2
 329              	.LVL35:
ARM GAS  C:\Users\xhex8\AppData\Local\Temp\ccpUd0il.s 			page 12


 202:Drivers/STM32L0xx_HAL_Driver/Src/stm32l0xx_hal_gpio.c ****         GPIOx->PUPDR = temp;
 330              		.loc 1 202 9 is_stmt 1 view .LVU130
 202:Drivers/STM32L0xx_HAL_Driver/Src/stm32l0xx_hal_gpio.c ****         GPIOx->PUPDR = temp;
 331              		.loc 1 202 28 is_stmt 0 view .LVU131
 332 00e8 8A68     		ldr	r2, [r1, #8]
 202:Drivers/STM32L0xx_HAL_Driver/Src/stm32l0xx_hal_gpio.c ****         GPIOx->PUPDR = temp;
 333              		.loc 1 202 36 view .LVU132
 334 00ea B240     		lsls	r2, r2, r6
 202:Drivers/STM32L0xx_HAL_Driver/Src/stm32l0xx_hal_gpio.c ****         GPIOx->PUPDR = temp;
 335              		.loc 1 202 14 view .LVU133
 336 00ec 2243     		orrs	r2, r4
 337              	.LVL36:
 203:Drivers/STM32L0xx_HAL_Driver/Src/stm32l0xx_hal_gpio.c ****       }
 338              		.loc 1 203 9 is_stmt 1 view .LVU134
 203:Drivers/STM32L0xx_HAL_Driver/Src/stm32l0xx_hal_gpio.c ****       }
 339              		.loc 1 203 22 is_stmt 0 view .LVU135
 340 00ee C260     		str	r2, [r0, #12]
 341              	.LVL37:
 342              	.L5:
 207:Drivers/STM32L0xx_HAL_Driver/Src/stm32l0xx_hal_gpio.c ****       {
 343              		.loc 1 207 7 is_stmt 1 view .LVU136
 207:Drivers/STM32L0xx_HAL_Driver/Src/stm32l0xx_hal_gpio.c ****       {
 344              		.loc 1 207 21 is_stmt 0 view .LVU137
 345 00f0 4C68     		ldr	r4, [r1, #4]
 207:Drivers/STM32L0xx_HAL_Driver/Src/stm32l0xx_hal_gpio.c ****       {
 346              		.loc 1 207 28 view .LVU138
 347 00f2 0322     		movs	r2, #3
 348 00f4 2240     		ands	r2, r4
 207:Drivers/STM32L0xx_HAL_Driver/Src/stm32l0xx_hal_gpio.c ****       {
 349              		.loc 1 207 10 view .LVU139
 350 00f6 022A     		cmp	r2, #2
 351 00f8 98D0     		beq	.L23
 352              	.L6:
 221:Drivers/STM32L0xx_HAL_Driver/Src/stm32l0xx_hal_gpio.c ****       temp &= ~(GPIO_MODER_MODE0 << (position * 2U));
 353              		.loc 1 221 7 is_stmt 1 view .LVU140
 221:Drivers/STM32L0xx_HAL_Driver/Src/stm32l0xx_hal_gpio.c ****       temp &= ~(GPIO_MODER_MODE0 << (position * 2U));
 354              		.loc 1 221 12 is_stmt 0 view .LVU141
 355 00fa 0468     		ldr	r4, [r0]
 356              	.LVL38:
 222:Drivers/STM32L0xx_HAL_Driver/Src/stm32l0xx_hal_gpio.c ****       temp |= ((GPIO_Init->Mode & GPIO_MODE) << (position * 2U));
 357              		.loc 1 222 7 is_stmt 1 view .LVU142
 222:Drivers/STM32L0xx_HAL_Driver/Src/stm32l0xx_hal_gpio.c ****       temp |= ((GPIO_Init->Mode & GPIO_MODE) << (position * 2U));
 358              		.loc 1 222 47 is_stmt 0 view .LVU143
 359 00fc 5E00     		lsls	r6, r3, #1
 222:Drivers/STM32L0xx_HAL_Driver/Src/stm32l0xx_hal_gpio.c ****       temp |= ((GPIO_Init->Mode & GPIO_MODE) << (position * 2U));
 360              		.loc 1 222 34 view .LVU144
 361 00fe 0322     		movs	r2, #3
 362 0100 1700     		movs	r7, r2
 363 0102 B740     		lsls	r7, r7, r6
 222:Drivers/STM32L0xx_HAL_Driver/Src/stm32l0xx_hal_gpio.c ****       temp |= ((GPIO_Init->Mode & GPIO_MODE) << (position * 2U));
 364              		.loc 1 222 12 view .LVU145
 365 0104 BC43     		bics	r4, r7
 366              	.LVL39:
 223:Drivers/STM32L0xx_HAL_Driver/Src/stm32l0xx_hal_gpio.c ****       GPIOx->MODER = temp;
 367              		.loc 1 223 7 is_stmt 1 view .LVU146
 223:Drivers/STM32L0xx_HAL_Driver/Src/stm32l0xx_hal_gpio.c ****       GPIOx->MODER = temp;
 368              		.loc 1 223 26 is_stmt 0 view .LVU147
ARM GAS  C:\Users\xhex8\AppData\Local\Temp\ccpUd0il.s 			page 13


 369 0106 4F68     		ldr	r7, [r1, #4]
 223:Drivers/STM32L0xx_HAL_Driver/Src/stm32l0xx_hal_gpio.c ****       GPIOx->MODER = temp;
 370              		.loc 1 223 33 view .LVU148
 371 0108 3A40     		ands	r2, r7
 223:Drivers/STM32L0xx_HAL_Driver/Src/stm32l0xx_hal_gpio.c ****       GPIOx->MODER = temp;
 372              		.loc 1 223 46 view .LVU149
 373 010a B240     		lsls	r2, r2, r6
 223:Drivers/STM32L0xx_HAL_Driver/Src/stm32l0xx_hal_gpio.c ****       GPIOx->MODER = temp;
 374              		.loc 1 223 12 view .LVU150
 375 010c 2243     		orrs	r2, r4
 376              	.LVL40:
 224:Drivers/STM32L0xx_HAL_Driver/Src/stm32l0xx_hal_gpio.c **** 
 377              		.loc 1 224 7 is_stmt 1 view .LVU151
 224:Drivers/STM32L0xx_HAL_Driver/Src/stm32l0xx_hal_gpio.c **** 
 378              		.loc 1 224 20 is_stmt 0 view .LVU152
 379 010e 0260     		str	r2, [r0]
 228:Drivers/STM32L0xx_HAL_Driver/Src/stm32l0xx_hal_gpio.c ****       {
 380              		.loc 1 228 7 is_stmt 1 view .LVU153
 228:Drivers/STM32L0xx_HAL_Driver/Src/stm32l0xx_hal_gpio.c ****       {
 381              		.loc 1 228 21 is_stmt 0 view .LVU154
 382 0110 4C68     		ldr	r4, [r1, #4]
 228:Drivers/STM32L0xx_HAL_Driver/Src/stm32l0xx_hal_gpio.c ****       {
 383              		.loc 1 228 28 view .LVU155
 384 0112 C022     		movs	r2, #192
 385              	.LVL41:
 228:Drivers/STM32L0xx_HAL_Driver/Src/stm32l0xx_hal_gpio.c ****       {
 386              		.loc 1 228 28 view .LVU156
 387 0114 9202     		lsls	r2, r2, #10
 228:Drivers/STM32L0xx_HAL_Driver/Src/stm32l0xx_hal_gpio.c ****       {
 388              		.loc 1 228 10 view .LVU157
 389 0116 1442     		tst	r4, r2
 390 0118 CBD0     		beq	.L3
 231:Drivers/STM32L0xx_HAL_Driver/Src/stm32l0xx_hal_gpio.c **** 
 391              		.loc 1 231 9 is_stmt 1 view .LVU158
 392 011a 144C     		ldr	r4, .L25+8
 393 011c 626B     		ldr	r2, [r4, #52]
 394 011e 0126     		movs	r6, #1
 395 0120 3243     		orrs	r2, r6
 396 0122 6263     		str	r2, [r4, #52]
 397              	.LVL42:
 233:Drivers/STM32L0xx_HAL_Driver/Src/stm32l0xx_hal_gpio.c ****         CLEAR_BIT(temp, (0x0FUL) << (4U * (position & 0x03U)));
 398              		.loc 1 233 9 view .LVU159
 233:Drivers/STM32L0xx_HAL_Driver/Src/stm32l0xx_hal_gpio.c ****         CLEAR_BIT(temp, (0x0FUL) << (4U * (position & 0x03U)));
 399              		.loc 1 233 40 is_stmt 0 view .LVU160
 400 0124 9A08     		lsrs	r2, r3, #2
 233:Drivers/STM32L0xx_HAL_Driver/Src/stm32l0xx_hal_gpio.c ****         CLEAR_BIT(temp, (0x0FUL) << (4U * (position & 0x03U)));
 401              		.loc 1 233 14 view .LVU161
 402 0126 941C     		adds	r4, r2, #2
 403 0128 A400     		lsls	r4, r4, #2
 404 012a 0E4E     		ldr	r6, .L25
 405 012c A759     		ldr	r7, [r4, r6]
 406              	.LVL43:
 234:Drivers/STM32L0xx_HAL_Driver/Src/stm32l0xx_hal_gpio.c ****         SET_BIT(temp, (GPIO_GET_INDEX(GPIOx)) << (4 * (position & 0x03U)));
 407              		.loc 1 234 9 is_stmt 1 view .LVU162
 408 012e 0324     		movs	r4, #3
 409 0130 1C40     		ands	r4, r3
 410 0132 A400     		lsls	r4, r4, #2
ARM GAS  C:\Users\xhex8\AppData\Local\Temp\ccpUd0il.s 			page 14


 411 0134 0F26     		movs	r6, #15
 412 0136 A640     		lsls	r6, r6, r4
 413 0138 B743     		bics	r7, r6
 414              	.LVL44:
 235:Drivers/STM32L0xx_HAL_Driver/Src/stm32l0xx_hal_gpio.c ****         SYSCFG->EXTICR[position >> 2U] = temp;
 415              		.loc 1 235 9 view .LVU163
 416 013a A026     		movs	r6, #160
 417 013c F605     		lsls	r6, r6, #23
 418 013e B042     		cmp	r0, r6
 419 0140 86D0     		beq	.L13
 235:Drivers/STM32L0xx_HAL_Driver/Src/stm32l0xx_hal_gpio.c ****         SYSCFG->EXTICR[position >> 2U] = temp;
 420              		.loc 1 235 9 is_stmt 0 discriminator 1 view .LVU164
 421 0142 0B4E     		ldr	r6, .L25+12
 422 0144 B042     		cmp	r0, r6
 423 0146 08D0     		beq	.L14
 235:Drivers/STM32L0xx_HAL_Driver/Src/stm32l0xx_hal_gpio.c ****         SYSCFG->EXTICR[position >> 2U] = temp;
 424              		.loc 1 235 9 discriminator 3 view .LVU165
 425 0148 0A4E     		ldr	r6, .L25+16
 426 014a B042     		cmp	r0, r6
 427 014c 07D0     		beq	.L15
 235:Drivers/STM32L0xx_HAL_Driver/Src/stm32l0xx_hal_gpio.c ****         SYSCFG->EXTICR[position >> 2U] = temp;
 428              		.loc 1 235 9 discriminator 5 view .LVU166
 429 014e 0A4E     		ldr	r6, .L25+20
 430 0150 B042     		cmp	r0, r6
 431 0152 00D1     		bne	.LCB381
 432 0154 7AE7     		b	.L24	@long jump
 433              	.LCB381:
 235:Drivers/STM32L0xx_HAL_Driver/Src/stm32l0xx_hal_gpio.c ****         SYSCFG->EXTICR[position >> 2U] = temp;
 434              		.loc 1 235 9 view .LVU167
 435 0156 0626     		movs	r6, #6
 436 0158 7BE7     		b	.L7
 437              	.L14:
 438 015a 0126     		movs	r6, #1
 439 015c 79E7     		b	.L7
 440              	.L15:
 441 015e 0226     		movs	r6, #2
 442 0160 77E7     		b	.L7
 443              	.LVL45:
 444              	.L21:
 274:Drivers/STM32L0xx_HAL_Driver/Src/stm32l0xx_hal_gpio.c ****   }
 275:Drivers/STM32L0xx_HAL_Driver/Src/stm32l0xx_hal_gpio.c **** }
 445              		.loc 1 275 1 view .LVU168
 446              		@ sp needed
 447 0162 F0BD     		pop	{r4, r5, r6, r7, pc}
 448              	.L26:
 449              		.align	2
 450              	.L25:
 451 0164 00000140 		.word	1073807360
 452 0168 00040140 		.word	1073808384
 453 016c 00100240 		.word	1073876992
 454 0170 00040050 		.word	1342178304
 455 0174 00080050 		.word	1342179328
 456 0178 001C0050 		.word	1342184448
 457              		.cfi_endproc
 458              	.LFE40:
 460              		.section	.text.HAL_GPIO_DeInit,"ax",%progbits
 461              		.align	1
ARM GAS  C:\Users\xhex8\AppData\Local\Temp\ccpUd0il.s 			page 15


 462              		.global	HAL_GPIO_DeInit
 463              		.syntax unified
 464              		.code	16
 465              		.thumb_func
 467              	HAL_GPIO_DeInit:
 468              	.LVL46:
 469              	.LFB41:
 276:Drivers/STM32L0xx_HAL_Driver/Src/stm32l0xx_hal_gpio.c **** 
 277:Drivers/STM32L0xx_HAL_Driver/Src/stm32l0xx_hal_gpio.c **** /**
 278:Drivers/STM32L0xx_HAL_Driver/Src/stm32l0xx_hal_gpio.c ****   * @brief  De-initializes the GPIOx peripheral registers to their default reset values.
 279:Drivers/STM32L0xx_HAL_Driver/Src/stm32l0xx_hal_gpio.c ****   * @param  GPIOx where x can be (A..E and H) to select the GPIO peripheral for STM32L0XX family de
 280:Drivers/STM32L0xx_HAL_Driver/Src/stm32l0xx_hal_gpio.c ****   *                Note that GPIOE is not available on all devices.
 281:Drivers/STM32L0xx_HAL_Driver/Src/stm32l0xx_hal_gpio.c ****   * @param  GPIO_Pin specifies the port bit to be written.
 282:Drivers/STM32L0xx_HAL_Driver/Src/stm32l0xx_hal_gpio.c ****   *                   This parameter can be one of GPIO_PIN_x where x can be (0..15).
 283:Drivers/STM32L0xx_HAL_Driver/Src/stm32l0xx_hal_gpio.c ****   *                   All port bits are not necessarily available on all GPIOs.
 284:Drivers/STM32L0xx_HAL_Driver/Src/stm32l0xx_hal_gpio.c ****   * @retval None
 285:Drivers/STM32L0xx_HAL_Driver/Src/stm32l0xx_hal_gpio.c ****   */
 286:Drivers/STM32L0xx_HAL_Driver/Src/stm32l0xx_hal_gpio.c **** void HAL_GPIO_DeInit(GPIO_TypeDef  *GPIOx, uint32_t GPIO_Pin)
 287:Drivers/STM32L0xx_HAL_Driver/Src/stm32l0xx_hal_gpio.c **** {
 470              		.loc 1 287 1 is_stmt 1 view -0
 471              		.cfi_startproc
 472              		@ args = 0, pretend = 0, frame = 0
 473              		@ frame_needed = 0, uses_anonymous_args = 0
 474              		.loc 1 287 1 is_stmt 0 view .LVU170
 475 0000 F0B5     		push	{r4, r5, r6, r7, lr}
 476              		.cfi_def_cfa_offset 20
 477              		.cfi_offset 4, -20
 478              		.cfi_offset 5, -16
 479              		.cfi_offset 6, -12
 480              		.cfi_offset 7, -8
 481              		.cfi_offset 14, -4
 482 0002 CE46     		mov	lr, r9
 483 0004 4746     		mov	r7, r8
 484 0006 80B5     		push	{r7, lr}
 485              		.cfi_def_cfa_offset 28
 486              		.cfi_offset 8, -28
 487              		.cfi_offset 9, -24
 488 0008 8946     		mov	r9, r1
 288:Drivers/STM32L0xx_HAL_Driver/Src/stm32l0xx_hal_gpio.c ****   uint32_t position = 0x00U;
 489              		.loc 1 288 3 is_stmt 1 view .LVU171
 490              	.LVL47:
 289:Drivers/STM32L0xx_HAL_Driver/Src/stm32l0xx_hal_gpio.c ****   uint32_t iocurrent = 0x00U;
 491              		.loc 1 289 3 view .LVU172
 290:Drivers/STM32L0xx_HAL_Driver/Src/stm32l0xx_hal_gpio.c ****   uint32_t tmp = 0x00U;
 492              		.loc 1 290 3 view .LVU173
 291:Drivers/STM32L0xx_HAL_Driver/Src/stm32l0xx_hal_gpio.c **** 
 292:Drivers/STM32L0xx_HAL_Driver/Src/stm32l0xx_hal_gpio.c ****   /* Check the parameters */
 293:Drivers/STM32L0xx_HAL_Driver/Src/stm32l0xx_hal_gpio.c ****   assert_param(IS_GPIO_PIN_AVAILABLE(GPIOx, GPIO_Pin));
 493              		.loc 1 293 3 view .LVU174
 294:Drivers/STM32L0xx_HAL_Driver/Src/stm32l0xx_hal_gpio.c **** 
 295:Drivers/STM32L0xx_HAL_Driver/Src/stm32l0xx_hal_gpio.c ****   /* Configure the port pins */
 296:Drivers/STM32L0xx_HAL_Driver/Src/stm32l0xx_hal_gpio.c ****   while ((GPIO_Pin >> position) != 0)
 494              		.loc 1 296 3 view .LVU175
 288:Drivers/STM32L0xx_HAL_Driver/Src/stm32l0xx_hal_gpio.c ****   uint32_t iocurrent = 0x00U;
 495              		.loc 1 288 12 is_stmt 0 view .LVU176
 496 000a 0023     		movs	r3, #0
 497              		.loc 1 296 9 view .LVU177
ARM GAS  C:\Users\xhex8\AppData\Local\Temp\ccpUd0il.s 			page 16


 498 000c 23E0     		b	.L28
 499              	.LVL48:
 500              	.L39:
 297:Drivers/STM32L0xx_HAL_Driver/Src/stm32l0xx_hal_gpio.c ****   {
 298:Drivers/STM32L0xx_HAL_Driver/Src/stm32l0xx_hal_gpio.c ****     /* Get the IO position */
 299:Drivers/STM32L0xx_HAL_Driver/Src/stm32l0xx_hal_gpio.c ****     iocurrent = (GPIO_Pin) & (1U << position);
 300:Drivers/STM32L0xx_HAL_Driver/Src/stm32l0xx_hal_gpio.c **** 
 301:Drivers/STM32L0xx_HAL_Driver/Src/stm32l0xx_hal_gpio.c ****     if (iocurrent)
 302:Drivers/STM32L0xx_HAL_Driver/Src/stm32l0xx_hal_gpio.c ****     {
 303:Drivers/STM32L0xx_HAL_Driver/Src/stm32l0xx_hal_gpio.c ****       /*------------------------- EXTI Mode Configuration --------------------*/
 304:Drivers/STM32L0xx_HAL_Driver/Src/stm32l0xx_hal_gpio.c ****       /* Clear the External Interrupt or Event for the current IO */
 305:Drivers/STM32L0xx_HAL_Driver/Src/stm32l0xx_hal_gpio.c **** 
 306:Drivers/STM32L0xx_HAL_Driver/Src/stm32l0xx_hal_gpio.c ****       tmp = SYSCFG->EXTICR[position >> 2U];
 307:Drivers/STM32L0xx_HAL_Driver/Src/stm32l0xx_hal_gpio.c ****       tmp &= ((0x0FUL) << (4U * (position & 0x03U)));
 308:Drivers/STM32L0xx_HAL_Driver/Src/stm32l0xx_hal_gpio.c ****       if (tmp == (GPIO_GET_INDEX(GPIOx) << (4U * (position & 0x03U))))
 501              		.loc 1 308 19 view .LVU178
 502 000e 0521     		movs	r1, #5
 503 0010 8846     		mov	r8, r1
 504 0012 01E0     		b	.L30
 505              	.L33:
 506 0014 0021     		movs	r1, #0
 507 0016 8846     		mov	r8, r1
 508              	.L30:
 509              		.loc 1 308 41 discriminator 16 view .LVU179
 510 0018 4146     		mov	r1, r8
 511 001a A140     		lsls	r1, r1, r4
 512              		.loc 1 308 10 discriminator 16 view .LVU180
 513 001c A942     		cmp	r1, r5
 514 001e 46D0     		beq	.L37
 515              	.LVL49:
 516              	.L31:
 309:Drivers/STM32L0xx_HAL_Driver/Src/stm32l0xx_hal_gpio.c ****       {
 310:Drivers/STM32L0xx_HAL_Driver/Src/stm32l0xx_hal_gpio.c ****         /* Clear EXTI line configuration */
 311:Drivers/STM32L0xx_HAL_Driver/Src/stm32l0xx_hal_gpio.c ****         EXTI->IMR &= ~((uint32_t)iocurrent);
 312:Drivers/STM32L0xx_HAL_Driver/Src/stm32l0xx_hal_gpio.c ****         EXTI->EMR &= ~((uint32_t)iocurrent);
 313:Drivers/STM32L0xx_HAL_Driver/Src/stm32l0xx_hal_gpio.c **** 
 314:Drivers/STM32L0xx_HAL_Driver/Src/stm32l0xx_hal_gpio.c ****         /* Clear Rising Falling edge configuration */
 315:Drivers/STM32L0xx_HAL_Driver/Src/stm32l0xx_hal_gpio.c ****         EXTI->FTSR &= ~((uint32_t)iocurrent);
 316:Drivers/STM32L0xx_HAL_Driver/Src/stm32l0xx_hal_gpio.c ****         EXTI->RTSR &= ~((uint32_t)iocurrent);
 317:Drivers/STM32L0xx_HAL_Driver/Src/stm32l0xx_hal_gpio.c **** 
 318:Drivers/STM32L0xx_HAL_Driver/Src/stm32l0xx_hal_gpio.c ****         tmp = (0x0FUL) << (4U * (position & 0x03U));
 319:Drivers/STM32L0xx_HAL_Driver/Src/stm32l0xx_hal_gpio.c ****         SYSCFG->EXTICR[position >> 2U] &= ~tmp;
 320:Drivers/STM32L0xx_HAL_Driver/Src/stm32l0xx_hal_gpio.c ****       }
 321:Drivers/STM32L0xx_HAL_Driver/Src/stm32l0xx_hal_gpio.c **** 
 322:Drivers/STM32L0xx_HAL_Driver/Src/stm32l0xx_hal_gpio.c ****       /*------------------------- GPIO Mode Configuration --------------------*/
 323:Drivers/STM32L0xx_HAL_Driver/Src/stm32l0xx_hal_gpio.c ****       /* Configure IO Direction in Analog Mode (reset state) */
 324:Drivers/STM32L0xx_HAL_Driver/Src/stm32l0xx_hal_gpio.c ****       GPIOx->MODER |= (GPIO_MODE_ANALOG << (position * 2U));
 517              		.loc 1 324 7 is_stmt 1 view .LVU181
 518              		.loc 1 324 12 is_stmt 0 view .LVU182
 519 0020 0468     		ldr	r4, [r0]
 520              		.loc 1 324 54 view .LVU183
 521 0022 5E00     		lsls	r6, r3, #1
 522              		.loc 1 324 41 view .LVU184
 523 0024 0325     		movs	r5, #3
 524 0026 B540     		lsls	r5, r5, r6
 525              		.loc 1 324 20 view .LVU185
 526 0028 2C43     		orrs	r4, r5
ARM GAS  C:\Users\xhex8\AppData\Local\Temp\ccpUd0il.s 			page 17


 527 002a 0460     		str	r4, [r0]
 325:Drivers/STM32L0xx_HAL_Driver/Src/stm32l0xx_hal_gpio.c **** 
 326:Drivers/STM32L0xx_HAL_Driver/Src/stm32l0xx_hal_gpio.c ****       /* Configure the default Alternate Function in current IO */
 327:Drivers/STM32L0xx_HAL_Driver/Src/stm32l0xx_hal_gpio.c ****       GPIOx->AFR[position >> 3U] &= ~(0xFUL << ((uint32_t)(position & 0x07UL) * 4U));
 528              		.loc 1 327 7 is_stmt 1 view .LVU186
 529              		.loc 1 327 17 is_stmt 0 view .LVU187
 530 002c DC08     		lsrs	r4, r3, #3
 531 002e 0834     		adds	r4, r4, #8
 532 0030 A400     		lsls	r4, r4, #2
 533 0032 2758     		ldr	r7, [r4, r0]
 534              		.loc 1 327 49 view .LVU188
 535 0034 0726     		movs	r6, #7
 536 0036 1E40     		ands	r6, r3
 537              		.loc 1 327 79 view .LVU189
 538 0038 B600     		lsls	r6, r6, #2
 539              		.loc 1 327 45 view .LVU190
 540 003a 0F21     		movs	r1, #15
 541 003c B140     		lsls	r1, r1, r6
 542              		.loc 1 327 34 view .LVU191
 543 003e 8F43     		bics	r7, r1
 544 0040 2750     		str	r7, [r4, r0]
 328:Drivers/STM32L0xx_HAL_Driver/Src/stm32l0xx_hal_gpio.c **** 
 329:Drivers/STM32L0xx_HAL_Driver/Src/stm32l0xx_hal_gpio.c ****       /* Deactivate the Pull-up oand Pull-down resistor for the current IO */
 330:Drivers/STM32L0xx_HAL_Driver/Src/stm32l0xx_hal_gpio.c ****       GPIOx->PUPDR &= ~(GPIO_PUPDR_PUPD0 << (position * 2U));
 545              		.loc 1 330 7 is_stmt 1 view .LVU192
 546              		.loc 1 330 12 is_stmt 0 view .LVU193
 547 0042 C468     		ldr	r4, [r0, #12]
 548              		.loc 1 330 20 view .LVU194
 549 0044 AC43     		bics	r4, r5
 550 0046 C460     		str	r4, [r0, #12]
 331:Drivers/STM32L0xx_HAL_Driver/Src/stm32l0xx_hal_gpio.c **** 
 332:Drivers/STM32L0xx_HAL_Driver/Src/stm32l0xx_hal_gpio.c ****       /* Configure the default value IO Output Type */
 333:Drivers/STM32L0xx_HAL_Driver/Src/stm32l0xx_hal_gpio.c ****       GPIOx->OTYPER  &= ~(GPIO_OTYPER_OT_0 << position);
 551              		.loc 1 333 7 is_stmt 1 view .LVU195
 552              		.loc 1 333 12 is_stmt 0 view .LVU196
 553 0048 4468     		ldr	r4, [r0, #4]
 554              		.loc 1 333 22 view .LVU197
 555 004a 9443     		bics	r4, r2
 556 004c 4460     		str	r4, [r0, #4]
 334:Drivers/STM32L0xx_HAL_Driver/Src/stm32l0xx_hal_gpio.c **** 
 335:Drivers/STM32L0xx_HAL_Driver/Src/stm32l0xx_hal_gpio.c ****       /* Configure the default value for IO Speed */
 336:Drivers/STM32L0xx_HAL_Driver/Src/stm32l0xx_hal_gpio.c ****       GPIOx->OSPEEDR &= ~(GPIO_OSPEEDER_OSPEED0 << (position * 2U));
 557              		.loc 1 336 7 is_stmt 1 view .LVU198
 558              		.loc 1 336 12 is_stmt 0 view .LVU199
 559 004e 8268     		ldr	r2, [r0, #8]
 560              		.loc 1 336 22 view .LVU200
 561 0050 AA43     		bics	r2, r5
 562 0052 8260     		str	r2, [r0, #8]
 563              	.L29:
 337:Drivers/STM32L0xx_HAL_Driver/Src/stm32l0xx_hal_gpio.c ****     }
 338:Drivers/STM32L0xx_HAL_Driver/Src/stm32l0xx_hal_gpio.c ****     position++;
 564              		.loc 1 338 5 is_stmt 1 view .LVU201
 565              		.loc 1 338 13 is_stmt 0 view .LVU202
 566 0054 0133     		adds	r3, r3, #1
 567              	.LVL50:
 568              	.L28:
 296:Drivers/STM32L0xx_HAL_Driver/Src/stm32l0xx_hal_gpio.c ****   {
ARM GAS  C:\Users\xhex8\AppData\Local\Temp\ccpUd0il.s 			page 18


 569              		.loc 1 296 33 is_stmt 1 view .LVU203
 296:Drivers/STM32L0xx_HAL_Driver/Src/stm32l0xx_hal_gpio.c ****   {
 570              		.loc 1 296 20 is_stmt 0 view .LVU204
 571 0056 4A46     		mov	r2, r9
 572 0058 DA40     		lsrs	r2, r2, r3
 296:Drivers/STM32L0xx_HAL_Driver/Src/stm32l0xx_hal_gpio.c ****   {
 573              		.loc 1 296 33 view .LVU205
 574 005a 3DD0     		beq	.L38
 299:Drivers/STM32L0xx_HAL_Driver/Src/stm32l0xx_hal_gpio.c **** 
 575              		.loc 1 299 5 is_stmt 1 view .LVU206
 299:Drivers/STM32L0xx_HAL_Driver/Src/stm32l0xx_hal_gpio.c **** 
 576              		.loc 1 299 34 is_stmt 0 view .LVU207
 577 005c 0122     		movs	r2, #1
 578 005e 9A40     		lsls	r2, r2, r3
 299:Drivers/STM32L0xx_HAL_Driver/Src/stm32l0xx_hal_gpio.c **** 
 579              		.loc 1 299 15 view .LVU208
 580 0060 4C46     		mov	r4, r9
 581 0062 1440     		ands	r4, r2
 582 0064 A446     		mov	ip, r4
 583              	.LVL51:
 301:Drivers/STM32L0xx_HAL_Driver/Src/stm32l0xx_hal_gpio.c ****     {
 584              		.loc 1 301 5 is_stmt 1 view .LVU209
 301:Drivers/STM32L0xx_HAL_Driver/Src/stm32l0xx_hal_gpio.c ****     {
 585              		.loc 1 301 8 is_stmt 0 view .LVU210
 586 0066 4946     		mov	r1, r9
 587 0068 1142     		tst	r1, r2
 588 006a F3D0     		beq	.L29
 589              	.LVL52:
 306:Drivers/STM32L0xx_HAL_Driver/Src/stm32l0xx_hal_gpio.c ****       tmp &= ((0x0FUL) << (4U * (position & 0x03U)));
 590              		.loc 1 306 7 is_stmt 1 view .LVU211
 306:Drivers/STM32L0xx_HAL_Driver/Src/stm32l0xx_hal_gpio.c ****       tmp &= ((0x0FUL) << (4U * (position & 0x03U)));
 591              		.loc 1 306 37 is_stmt 0 view .LVU212
 592 006c 9F08     		lsrs	r7, r3, #2
 306:Drivers/STM32L0xx_HAL_Driver/Src/stm32l0xx_hal_gpio.c ****       tmp &= ((0x0FUL) << (4U * (position & 0x03U)));
 593              		.loc 1 306 11 view .LVU213
 594 006e BC1C     		adds	r4, r7, #2
 595              	.LVL53:
 306:Drivers/STM32L0xx_HAL_Driver/Src/stm32l0xx_hal_gpio.c ****       tmp &= ((0x0FUL) << (4U * (position & 0x03U)));
 596              		.loc 1 306 11 view .LVU214
 597 0070 A400     		lsls	r4, r4, #2
 598 0072 1B4D     		ldr	r5, .L40
 599 0074 6559     		ldr	r5, [r4, r5]
 600              	.LVL54:
 307:Drivers/STM32L0xx_HAL_Driver/Src/stm32l0xx_hal_gpio.c ****       if (tmp == (GPIO_GET_INDEX(GPIOx) << (4U * (position & 0x03U))))
 601              		.loc 1 307 7 is_stmt 1 view .LVU215
 307:Drivers/STM32L0xx_HAL_Driver/Src/stm32l0xx_hal_gpio.c ****       if (tmp == (GPIO_GET_INDEX(GPIOx) << (4U * (position & 0x03U))))
 602              		.loc 1 307 43 is_stmt 0 view .LVU216
 603 0076 0326     		movs	r6, #3
 604 0078 1E40     		ands	r6, r3
 307:Drivers/STM32L0xx_HAL_Driver/Src/stm32l0xx_hal_gpio.c ****       if (tmp == (GPIO_GET_INDEX(GPIOx) << (4U * (position & 0x03U))))
 605              		.loc 1 307 31 view .LVU217
 606 007a B400     		lsls	r4, r6, #2
 307:Drivers/STM32L0xx_HAL_Driver/Src/stm32l0xx_hal_gpio.c ****       if (tmp == (GPIO_GET_INDEX(GPIOx) << (4U * (position & 0x03U))))
 607              		.loc 1 307 24 view .LVU218
 608 007c 0F26     		movs	r6, #15
 609 007e A640     		lsls	r6, r6, r4
 307:Drivers/STM32L0xx_HAL_Driver/Src/stm32l0xx_hal_gpio.c ****       if (tmp == (GPIO_GET_INDEX(GPIOx) << (4U * (position & 0x03U))))
ARM GAS  C:\Users\xhex8\AppData\Local\Temp\ccpUd0il.s 			page 19


 610              		.loc 1 307 11 view .LVU219
 611 0080 3540     		ands	r5, r6
 612              	.LVL55:
 308:Drivers/STM32L0xx_HAL_Driver/Src/stm32l0xx_hal_gpio.c ****       {
 613              		.loc 1 308 7 is_stmt 1 view .LVU220
 308:Drivers/STM32L0xx_HAL_Driver/Src/stm32l0xx_hal_gpio.c ****       {
 614              		.loc 1 308 19 is_stmt 0 view .LVU221
 615 0082 A021     		movs	r1, #160
 616              	.LVL56:
 308:Drivers/STM32L0xx_HAL_Driver/Src/stm32l0xx_hal_gpio.c ****       {
 617              		.loc 1 308 19 view .LVU222
 618 0084 C905     		lsls	r1, r1, #23
 619 0086 8842     		cmp	r0, r1
 620 0088 C4D0     		beq	.L33
 308:Drivers/STM32L0xx_HAL_Driver/Src/stm32l0xx_hal_gpio.c ****       {
 621              		.loc 1 308 19 discriminator 1 view .LVU223
 622 008a 1649     		ldr	r1, .L40+4
 623 008c 8842     		cmp	r0, r1
 624 008e 08D0     		beq	.L34
 308:Drivers/STM32L0xx_HAL_Driver/Src/stm32l0xx_hal_gpio.c ****       {
 625              		.loc 1 308 19 discriminator 3 view .LVU224
 626 0090 1549     		ldr	r1, .L40+8
 627 0092 8842     		cmp	r0, r1
 628 0094 08D0     		beq	.L35
 308:Drivers/STM32L0xx_HAL_Driver/Src/stm32l0xx_hal_gpio.c ****       {
 629              		.loc 1 308 19 discriminator 5 view .LVU225
 630 0096 1549     		ldr	r1, .L40+12
 631 0098 8842     		cmp	r0, r1
 632 009a B8D0     		beq	.L39
 308:Drivers/STM32L0xx_HAL_Driver/Src/stm32l0xx_hal_gpio.c ****       {
 633              		.loc 1 308 19 view .LVU226
 634 009c 0621     		movs	r1, #6
 635 009e 8846     		mov	r8, r1
 636 00a0 BAE7     		b	.L30
 637              	.L34:
 638 00a2 0121     		movs	r1, #1
 639 00a4 8846     		mov	r8, r1
 640 00a6 B7E7     		b	.L30
 641              	.L35:
 642 00a8 0221     		movs	r1, #2
 643 00aa 8846     		mov	r8, r1
 644 00ac B4E7     		b	.L30
 645              	.L37:
 311:Drivers/STM32L0xx_HAL_Driver/Src/stm32l0xx_hal_gpio.c ****         EXTI->EMR &= ~((uint32_t)iocurrent);
 646              		.loc 1 311 9 is_stmt 1 view .LVU227
 311:Drivers/STM32L0xx_HAL_Driver/Src/stm32l0xx_hal_gpio.c ****         EXTI->EMR &= ~((uint32_t)iocurrent);
 647              		.loc 1 311 13 is_stmt 0 view .LVU228
 648 00ae 104C     		ldr	r4, .L40+16
 649 00b0 2568     		ldr	r5, [r4]
 650              	.LVL57:
 311:Drivers/STM32L0xx_HAL_Driver/Src/stm32l0xx_hal_gpio.c ****         EXTI->EMR &= ~((uint32_t)iocurrent);
 651              		.loc 1 311 19 view .LVU229
 652 00b2 6146     		mov	r1, ip
 653 00b4 8D43     		bics	r5, r1
 654 00b6 2560     		str	r5, [r4]
 312:Drivers/STM32L0xx_HAL_Driver/Src/stm32l0xx_hal_gpio.c **** 
 655              		.loc 1 312 9 is_stmt 1 view .LVU230
ARM GAS  C:\Users\xhex8\AppData\Local\Temp\ccpUd0il.s 			page 20


 312:Drivers/STM32L0xx_HAL_Driver/Src/stm32l0xx_hal_gpio.c **** 
 656              		.loc 1 312 13 is_stmt 0 view .LVU231
 657 00b8 6568     		ldr	r5, [r4, #4]
 312:Drivers/STM32L0xx_HAL_Driver/Src/stm32l0xx_hal_gpio.c **** 
 658              		.loc 1 312 19 view .LVU232
 659 00ba 8D43     		bics	r5, r1
 660 00bc 6560     		str	r5, [r4, #4]
 315:Drivers/STM32L0xx_HAL_Driver/Src/stm32l0xx_hal_gpio.c ****         EXTI->RTSR &= ~((uint32_t)iocurrent);
 661              		.loc 1 315 9 is_stmt 1 view .LVU233
 315:Drivers/STM32L0xx_HAL_Driver/Src/stm32l0xx_hal_gpio.c ****         EXTI->RTSR &= ~((uint32_t)iocurrent);
 662              		.loc 1 315 13 is_stmt 0 view .LVU234
 663 00be E568     		ldr	r5, [r4, #12]
 315:Drivers/STM32L0xx_HAL_Driver/Src/stm32l0xx_hal_gpio.c ****         EXTI->RTSR &= ~((uint32_t)iocurrent);
 664              		.loc 1 315 20 view .LVU235
 665 00c0 8D43     		bics	r5, r1
 666 00c2 E560     		str	r5, [r4, #12]
 316:Drivers/STM32L0xx_HAL_Driver/Src/stm32l0xx_hal_gpio.c **** 
 667              		.loc 1 316 9 is_stmt 1 view .LVU236
 316:Drivers/STM32L0xx_HAL_Driver/Src/stm32l0xx_hal_gpio.c **** 
 668              		.loc 1 316 13 is_stmt 0 view .LVU237
 669 00c4 A568     		ldr	r5, [r4, #8]
 316:Drivers/STM32L0xx_HAL_Driver/Src/stm32l0xx_hal_gpio.c **** 
 670              		.loc 1 316 20 view .LVU238
 671 00c6 8D43     		bics	r5, r1
 672 00c8 A560     		str	r5, [r4, #8]
 318:Drivers/STM32L0xx_HAL_Driver/Src/stm32l0xx_hal_gpio.c ****         SYSCFG->EXTICR[position >> 2U] &= ~tmp;
 673              		.loc 1 318 9 is_stmt 1 view .LVU239
 674              	.LVL58:
 319:Drivers/STM32L0xx_HAL_Driver/Src/stm32l0xx_hal_gpio.c ****       }
 675              		.loc 1 319 9 view .LVU240
 319:Drivers/STM32L0xx_HAL_Driver/Src/stm32l0xx_hal_gpio.c ****       }
 676              		.loc 1 319 23 is_stmt 0 view .LVU241
 677 00ca 0549     		ldr	r1, .L40
 678 00cc 0237     		adds	r7, r7, #2
 679 00ce BC00     		lsls	r4, r7, #2
 680 00d0 6558     		ldr	r5, [r4, r1]
 319:Drivers/STM32L0xx_HAL_Driver/Src/stm32l0xx_hal_gpio.c ****       }
 681              		.loc 1 319 40 view .LVU242
 682 00d2 B543     		bics	r5, r6
 683 00d4 6550     		str	r5, [r4, r1]
 684 00d6 A3E7     		b	.L31
 685              	.LVL59:
 686              	.L38:
 339:Drivers/STM32L0xx_HAL_Driver/Src/stm32l0xx_hal_gpio.c ****   }
 340:Drivers/STM32L0xx_HAL_Driver/Src/stm32l0xx_hal_gpio.c **** }
 687              		.loc 1 340 1 view .LVU243
 688              		@ sp needed
 689              	.LVL60:
 690              		.loc 1 340 1 view .LVU244
 691 00d8 C0BC     		pop	{r6, r7}
 692 00da B946     		mov	r9, r7
 693 00dc B046     		mov	r8, r6
 694 00de F0BD     		pop	{r4, r5, r6, r7, pc}
 695              	.L41:
 696              		.align	2
 697              	.L40:
 698 00e0 00000140 		.word	1073807360
ARM GAS  C:\Users\xhex8\AppData\Local\Temp\ccpUd0il.s 			page 21


 699 00e4 00040050 		.word	1342178304
 700 00e8 00080050 		.word	1342179328
 701 00ec 001C0050 		.word	1342184448
 702 00f0 00040140 		.word	1073808384
 703              		.cfi_endproc
 704              	.LFE41:
 706              		.section	.text.HAL_GPIO_ReadPin,"ax",%progbits
 707              		.align	1
 708              		.global	HAL_GPIO_ReadPin
 709              		.syntax unified
 710              		.code	16
 711              		.thumb_func
 713              	HAL_GPIO_ReadPin:
 714              	.LVL61:
 715              	.LFB42:
 341:Drivers/STM32L0xx_HAL_Driver/Src/stm32l0xx_hal_gpio.c **** 
 342:Drivers/STM32L0xx_HAL_Driver/Src/stm32l0xx_hal_gpio.c **** /**
 343:Drivers/STM32L0xx_HAL_Driver/Src/stm32l0xx_hal_gpio.c ****   * @}
 344:Drivers/STM32L0xx_HAL_Driver/Src/stm32l0xx_hal_gpio.c ****   */
 345:Drivers/STM32L0xx_HAL_Driver/Src/stm32l0xx_hal_gpio.c **** 
 346:Drivers/STM32L0xx_HAL_Driver/Src/stm32l0xx_hal_gpio.c **** /** @addtogroup GPIO_Exported_Functions_Group2
 347:Drivers/STM32L0xx_HAL_Driver/Src/stm32l0xx_hal_gpio.c ****  *  @brief   GPIO Read and Write
 348:Drivers/STM32L0xx_HAL_Driver/Src/stm32l0xx_hal_gpio.c ****  *
 349:Drivers/STM32L0xx_HAL_Driver/Src/stm32l0xx_hal_gpio.c **** @verbatim
 350:Drivers/STM32L0xx_HAL_Driver/Src/stm32l0xx_hal_gpio.c ****  ===============================================================================
 351:Drivers/STM32L0xx_HAL_Driver/Src/stm32l0xx_hal_gpio.c ****                        ##### IO operation functions #####
 352:Drivers/STM32L0xx_HAL_Driver/Src/stm32l0xx_hal_gpio.c ****  ===============================================================================
 353:Drivers/STM32L0xx_HAL_Driver/Src/stm32l0xx_hal_gpio.c **** 
 354:Drivers/STM32L0xx_HAL_Driver/Src/stm32l0xx_hal_gpio.c **** @endverbatim
 355:Drivers/STM32L0xx_HAL_Driver/Src/stm32l0xx_hal_gpio.c ****   * @{
 356:Drivers/STM32L0xx_HAL_Driver/Src/stm32l0xx_hal_gpio.c ****   */
 357:Drivers/STM32L0xx_HAL_Driver/Src/stm32l0xx_hal_gpio.c **** 
 358:Drivers/STM32L0xx_HAL_Driver/Src/stm32l0xx_hal_gpio.c **** /**
 359:Drivers/STM32L0xx_HAL_Driver/Src/stm32l0xx_hal_gpio.c ****   * @brief  Reads the specified input port pin.
 360:Drivers/STM32L0xx_HAL_Driver/Src/stm32l0xx_hal_gpio.c ****   * @param  GPIOx where x can be (A..E and H) to select the GPIO peripheral for STM32L0xx family de
 361:Drivers/STM32L0xx_HAL_Driver/Src/stm32l0xx_hal_gpio.c ****   *                Note that GPIOE is not available on all devices.
 362:Drivers/STM32L0xx_HAL_Driver/Src/stm32l0xx_hal_gpio.c ****   * @param  GPIO_Pin specifies the port bit to read.
 363:Drivers/STM32L0xx_HAL_Driver/Src/stm32l0xx_hal_gpio.c ****   *                   This parameter can be GPIO_PIN_x where x can be (0..15).
 364:Drivers/STM32L0xx_HAL_Driver/Src/stm32l0xx_hal_gpio.c ****   *                   All port bits are not necessarily available on all GPIOs.
 365:Drivers/STM32L0xx_HAL_Driver/Src/stm32l0xx_hal_gpio.c ****   * @retval The input port pin value.
 366:Drivers/STM32L0xx_HAL_Driver/Src/stm32l0xx_hal_gpio.c ****   */
 367:Drivers/STM32L0xx_HAL_Driver/Src/stm32l0xx_hal_gpio.c **** GPIO_PinState HAL_GPIO_ReadPin(GPIO_TypeDef *GPIOx, uint16_t GPIO_Pin)
 368:Drivers/STM32L0xx_HAL_Driver/Src/stm32l0xx_hal_gpio.c **** {
 716              		.loc 1 368 1 is_stmt 1 view -0
 717              		.cfi_startproc
 718              		@ args = 0, pretend = 0, frame = 0
 719              		@ frame_needed = 0, uses_anonymous_args = 0
 720              		@ link register save eliminated.
 369:Drivers/STM32L0xx_HAL_Driver/Src/stm32l0xx_hal_gpio.c ****   GPIO_PinState bitstatus;
 721              		.loc 1 369 3 view .LVU246
 370:Drivers/STM32L0xx_HAL_Driver/Src/stm32l0xx_hal_gpio.c **** 
 371:Drivers/STM32L0xx_HAL_Driver/Src/stm32l0xx_hal_gpio.c ****   /* Check the parameters */
 372:Drivers/STM32L0xx_HAL_Driver/Src/stm32l0xx_hal_gpio.c ****   assert_param(IS_GPIO_PIN_AVAILABLE(GPIOx, GPIO_Pin));
 722              		.loc 1 372 3 view .LVU247
 373:Drivers/STM32L0xx_HAL_Driver/Src/stm32l0xx_hal_gpio.c **** 
 374:Drivers/STM32L0xx_HAL_Driver/Src/stm32l0xx_hal_gpio.c ****   if ((GPIOx->IDR & GPIO_Pin) != (uint32_t)GPIO_PIN_RESET)
 723              		.loc 1 374 3 view .LVU248
ARM GAS  C:\Users\xhex8\AppData\Local\Temp\ccpUd0il.s 			page 22


 724              		.loc 1 374 13 is_stmt 0 view .LVU249
 725 0000 0369     		ldr	r3, [r0, #16]
 726              		.loc 1 374 6 view .LVU250
 727 0002 0B42     		tst	r3, r1
 728 0004 01D0     		beq	.L44
 375:Drivers/STM32L0xx_HAL_Driver/Src/stm32l0xx_hal_gpio.c ****   {
 376:Drivers/STM32L0xx_HAL_Driver/Src/stm32l0xx_hal_gpio.c ****     bitstatus = GPIO_PIN_SET;
 729              		.loc 1 376 15 view .LVU251
 730 0006 0120     		movs	r0, #1
 731              	.LVL62:
 732              	.L43:
 377:Drivers/STM32L0xx_HAL_Driver/Src/stm32l0xx_hal_gpio.c ****   }
 378:Drivers/STM32L0xx_HAL_Driver/Src/stm32l0xx_hal_gpio.c ****   else
 379:Drivers/STM32L0xx_HAL_Driver/Src/stm32l0xx_hal_gpio.c ****   {
 380:Drivers/STM32L0xx_HAL_Driver/Src/stm32l0xx_hal_gpio.c ****     bitstatus = GPIO_PIN_RESET;
 381:Drivers/STM32L0xx_HAL_Driver/Src/stm32l0xx_hal_gpio.c ****   }
 382:Drivers/STM32L0xx_HAL_Driver/Src/stm32l0xx_hal_gpio.c ****   return bitstatus;
 733              		.loc 1 382 3 is_stmt 1 view .LVU252
 383:Drivers/STM32L0xx_HAL_Driver/Src/stm32l0xx_hal_gpio.c **** }
 734              		.loc 1 383 1 is_stmt 0 view .LVU253
 735              		@ sp needed
 736 0008 7047     		bx	lr
 737              	.LVL63:
 738              	.L44:
 380:Drivers/STM32L0xx_HAL_Driver/Src/stm32l0xx_hal_gpio.c ****   }
 739              		.loc 1 380 15 view .LVU254
 740 000a 0020     		movs	r0, #0
 741              	.LVL64:
 380:Drivers/STM32L0xx_HAL_Driver/Src/stm32l0xx_hal_gpio.c ****   }
 742              		.loc 1 380 15 view .LVU255
 743 000c FCE7     		b	.L43
 744              		.cfi_endproc
 745              	.LFE42:
 747              		.section	.text.HAL_GPIO_WritePin,"ax",%progbits
 748              		.align	1
 749              		.global	HAL_GPIO_WritePin
 750              		.syntax unified
 751              		.code	16
 752              		.thumb_func
 754              	HAL_GPIO_WritePin:
 755              	.LVL65:
 756              	.LFB43:
 384:Drivers/STM32L0xx_HAL_Driver/Src/stm32l0xx_hal_gpio.c **** 
 385:Drivers/STM32L0xx_HAL_Driver/Src/stm32l0xx_hal_gpio.c **** /**
 386:Drivers/STM32L0xx_HAL_Driver/Src/stm32l0xx_hal_gpio.c ****   * @brief  Sets or clears the selected data port bit.
 387:Drivers/STM32L0xx_HAL_Driver/Src/stm32l0xx_hal_gpio.c ****   *
 388:Drivers/STM32L0xx_HAL_Driver/Src/stm32l0xx_hal_gpio.c ****   * @note   This function uses GPIOx_BSRR register to allow atomic read/modify
 389:Drivers/STM32L0xx_HAL_Driver/Src/stm32l0xx_hal_gpio.c ****   *         accesses. In this way, there is no risk of an IRQ occurring between
 390:Drivers/STM32L0xx_HAL_Driver/Src/stm32l0xx_hal_gpio.c ****   *         the read and the modify access.
 391:Drivers/STM32L0xx_HAL_Driver/Src/stm32l0xx_hal_gpio.c ****   *
 392:Drivers/STM32L0xx_HAL_Driver/Src/stm32l0xx_hal_gpio.c ****   * @param  GPIOx where x can be (A..E and H) to select the GPIO peripheral for STM32L0xx family de
 393:Drivers/STM32L0xx_HAL_Driver/Src/stm32l0xx_hal_gpio.c ****   *                Note that GPIOE is not available on all devices.
 394:Drivers/STM32L0xx_HAL_Driver/Src/stm32l0xx_hal_gpio.c ****   * @param  GPIO_Pin specifies the port bit to be written.
 395:Drivers/STM32L0xx_HAL_Driver/Src/stm32l0xx_hal_gpio.c ****   *                   This parameter can be one of GPIO_PIN_x where x can be (0..15).
 396:Drivers/STM32L0xx_HAL_Driver/Src/stm32l0xx_hal_gpio.c ****   *                   All port bits are not necessarily available on all GPIOs.
 397:Drivers/STM32L0xx_HAL_Driver/Src/stm32l0xx_hal_gpio.c ****   * @param  PinState specifies the value to be written to the selected bit.
 398:Drivers/STM32L0xx_HAL_Driver/Src/stm32l0xx_hal_gpio.c ****   *                   This parameter can be one of the GPIO_PinState enum values:
ARM GAS  C:\Users\xhex8\AppData\Local\Temp\ccpUd0il.s 			page 23


 399:Drivers/STM32L0xx_HAL_Driver/Src/stm32l0xx_hal_gpio.c ****   *                        GPIO_PIN_RESET: to clear the port pin
 400:Drivers/STM32L0xx_HAL_Driver/Src/stm32l0xx_hal_gpio.c ****   *                        GPIO_PIN_SET: to set the port pin
 401:Drivers/STM32L0xx_HAL_Driver/Src/stm32l0xx_hal_gpio.c ****   * @retval None
 402:Drivers/STM32L0xx_HAL_Driver/Src/stm32l0xx_hal_gpio.c ****   */
 403:Drivers/STM32L0xx_HAL_Driver/Src/stm32l0xx_hal_gpio.c **** void HAL_GPIO_WritePin(GPIO_TypeDef *GPIOx, uint16_t GPIO_Pin, GPIO_PinState PinState)
 404:Drivers/STM32L0xx_HAL_Driver/Src/stm32l0xx_hal_gpio.c **** {
 757              		.loc 1 404 1 is_stmt 1 view -0
 758              		.cfi_startproc
 759              		@ args = 0, pretend = 0, frame = 0
 760              		@ frame_needed = 0, uses_anonymous_args = 0
 761              		@ link register save eliminated.
 405:Drivers/STM32L0xx_HAL_Driver/Src/stm32l0xx_hal_gpio.c ****   /* Check the parameters */
 406:Drivers/STM32L0xx_HAL_Driver/Src/stm32l0xx_hal_gpio.c ****   assert_param(IS_GPIO_PIN_AVAILABLE(GPIOx, GPIO_Pin));
 762              		.loc 1 406 3 view .LVU257
 407:Drivers/STM32L0xx_HAL_Driver/Src/stm32l0xx_hal_gpio.c ****   assert_param(IS_GPIO_PIN_ACTION(PinState));
 763              		.loc 1 407 3 view .LVU258
 408:Drivers/STM32L0xx_HAL_Driver/Src/stm32l0xx_hal_gpio.c **** 
 409:Drivers/STM32L0xx_HAL_Driver/Src/stm32l0xx_hal_gpio.c ****   if (PinState != GPIO_PIN_RESET)
 764              		.loc 1 409 3 view .LVU259
 765              		.loc 1 409 6 is_stmt 0 view .LVU260
 766 0000 002A     		cmp	r2, #0
 767 0002 01D0     		beq	.L46
 410:Drivers/STM32L0xx_HAL_Driver/Src/stm32l0xx_hal_gpio.c ****   {
 411:Drivers/STM32L0xx_HAL_Driver/Src/stm32l0xx_hal_gpio.c ****     GPIOx->BSRR = GPIO_Pin;
 768              		.loc 1 411 5 is_stmt 1 view .LVU261
 769              		.loc 1 411 17 is_stmt 0 view .LVU262
 770 0004 8161     		str	r1, [r0, #24]
 771              	.L45:
 412:Drivers/STM32L0xx_HAL_Driver/Src/stm32l0xx_hal_gpio.c ****   }
 413:Drivers/STM32L0xx_HAL_Driver/Src/stm32l0xx_hal_gpio.c ****   else
 414:Drivers/STM32L0xx_HAL_Driver/Src/stm32l0xx_hal_gpio.c ****   {
 415:Drivers/STM32L0xx_HAL_Driver/Src/stm32l0xx_hal_gpio.c ****     GPIOx->BRR = GPIO_Pin ;
 416:Drivers/STM32L0xx_HAL_Driver/Src/stm32l0xx_hal_gpio.c ****   }
 417:Drivers/STM32L0xx_HAL_Driver/Src/stm32l0xx_hal_gpio.c **** }
 772              		.loc 1 417 1 view .LVU263
 773              		@ sp needed
 774 0006 7047     		bx	lr
 775              	.L46:
 415:Drivers/STM32L0xx_HAL_Driver/Src/stm32l0xx_hal_gpio.c ****   }
 776              		.loc 1 415 5 is_stmt 1 view .LVU264
 415:Drivers/STM32L0xx_HAL_Driver/Src/stm32l0xx_hal_gpio.c ****   }
 777              		.loc 1 415 16 is_stmt 0 view .LVU265
 778 0008 8162     		str	r1, [r0, #40]
 779              		.loc 1 417 1 view .LVU266
 780 000a FCE7     		b	.L45
 781              		.cfi_endproc
 782              	.LFE43:
 784              		.section	.text.HAL_GPIO_TogglePin,"ax",%progbits
 785              		.align	1
 786              		.global	HAL_GPIO_TogglePin
 787              		.syntax unified
 788              		.code	16
 789              		.thumb_func
 791              	HAL_GPIO_TogglePin:
 792              	.LVL66:
 793              	.LFB44:
 418:Drivers/STM32L0xx_HAL_Driver/Src/stm32l0xx_hal_gpio.c **** 
ARM GAS  C:\Users\xhex8\AppData\Local\Temp\ccpUd0il.s 			page 24


 419:Drivers/STM32L0xx_HAL_Driver/Src/stm32l0xx_hal_gpio.c **** /**
 420:Drivers/STM32L0xx_HAL_Driver/Src/stm32l0xx_hal_gpio.c ****   * @brief  Toggles the specified GPIO pins.
 421:Drivers/STM32L0xx_HAL_Driver/Src/stm32l0xx_hal_gpio.c ****   * @param  GPIOx Where x can be (A..E and H) to select the GPIO peripheral for STM32L0xx family de
 422:Drivers/STM32L0xx_HAL_Driver/Src/stm32l0xx_hal_gpio.c ****   *                Note that GPIOE is not available on all devices.
 423:Drivers/STM32L0xx_HAL_Driver/Src/stm32l0xx_hal_gpio.c ****   *                All port bits are not necessarily available on all GPIOs.
 424:Drivers/STM32L0xx_HAL_Driver/Src/stm32l0xx_hal_gpio.c ****   * @param  GPIO_Pin Specifies the pins to be toggled.
 425:Drivers/STM32L0xx_HAL_Driver/Src/stm32l0xx_hal_gpio.c ****   * @retval None
 426:Drivers/STM32L0xx_HAL_Driver/Src/stm32l0xx_hal_gpio.c ****   */
 427:Drivers/STM32L0xx_HAL_Driver/Src/stm32l0xx_hal_gpio.c **** void HAL_GPIO_TogglePin(GPIO_TypeDef *GPIOx, uint16_t GPIO_Pin)
 428:Drivers/STM32L0xx_HAL_Driver/Src/stm32l0xx_hal_gpio.c **** {
 794              		.loc 1 428 1 is_stmt 1 view -0
 795              		.cfi_startproc
 796              		@ args = 0, pretend = 0, frame = 0
 797              		@ frame_needed = 0, uses_anonymous_args = 0
 798              		@ link register save eliminated.
 429:Drivers/STM32L0xx_HAL_Driver/Src/stm32l0xx_hal_gpio.c ****   uint32_t odr;
 799              		.loc 1 429 3 view .LVU268
 430:Drivers/STM32L0xx_HAL_Driver/Src/stm32l0xx_hal_gpio.c **** 
 431:Drivers/STM32L0xx_HAL_Driver/Src/stm32l0xx_hal_gpio.c ****   /* Check the parameters */
 432:Drivers/STM32L0xx_HAL_Driver/Src/stm32l0xx_hal_gpio.c ****   assert_param(IS_GPIO_PIN_AVAILABLE(GPIOx, GPIO_Pin));
 800              		.loc 1 432 3 view .LVU269
 433:Drivers/STM32L0xx_HAL_Driver/Src/stm32l0xx_hal_gpio.c **** 
 434:Drivers/STM32L0xx_HAL_Driver/Src/stm32l0xx_hal_gpio.c ****   /* get current Output Data Register value */
 435:Drivers/STM32L0xx_HAL_Driver/Src/stm32l0xx_hal_gpio.c ****   odr = GPIOx->ODR;
 801              		.loc 1 435 3 view .LVU270
 802              		.loc 1 435 7 is_stmt 0 view .LVU271
 803 0000 4269     		ldr	r2, [r0, #20]
 804              	.LVL67:
 436:Drivers/STM32L0xx_HAL_Driver/Src/stm32l0xx_hal_gpio.c **** 
 437:Drivers/STM32L0xx_HAL_Driver/Src/stm32l0xx_hal_gpio.c ****   /* Set selected pins that were at low level, and reset ones that were high */
 438:Drivers/STM32L0xx_HAL_Driver/Src/stm32l0xx_hal_gpio.c ****   GPIOx->BSRR = ((odr & GPIO_Pin) << GPIO_NUMBER) | (~odr & GPIO_Pin);
 805              		.loc 1 438 3 is_stmt 1 view .LVU272
 806              		.loc 1 438 23 is_stmt 0 view .LVU273
 807 0002 1300     		movs	r3, r2
 808 0004 0B40     		ands	r3, r1
 809              		.loc 1 438 35 view .LVU274
 810 0006 1B04     		lsls	r3, r3, #16
 811              		.loc 1 438 59 view .LVU275
 812 0008 9143     		bics	r1, r2
 813              	.LVL68:
 814              		.loc 1 438 51 view .LVU276
 815 000a 0B43     		orrs	r3, r1
 816              		.loc 1 438 15 view .LVU277
 817 000c 8361     		str	r3, [r0, #24]
 439:Drivers/STM32L0xx_HAL_Driver/Src/stm32l0xx_hal_gpio.c **** }
 818              		.loc 1 439 1 view .LVU278
 819              		@ sp needed
 820 000e 7047     		bx	lr
 821              		.cfi_endproc
 822              	.LFE44:
 824              		.section	.text.HAL_GPIO_LockPin,"ax",%progbits
 825              		.align	1
 826              		.global	HAL_GPIO_LockPin
 827              		.syntax unified
 828              		.code	16
 829              		.thumb_func
 831              	HAL_GPIO_LockPin:
ARM GAS  C:\Users\xhex8\AppData\Local\Temp\ccpUd0il.s 			page 25


 832              	.LVL69:
 833              	.LFB45:
 440:Drivers/STM32L0xx_HAL_Driver/Src/stm32l0xx_hal_gpio.c **** 
 441:Drivers/STM32L0xx_HAL_Driver/Src/stm32l0xx_hal_gpio.c **** /**
 442:Drivers/STM32L0xx_HAL_Driver/Src/stm32l0xx_hal_gpio.c **** * @brief  Locks GPIO Pins configuration registers.
 443:Drivers/STM32L0xx_HAL_Driver/Src/stm32l0xx_hal_gpio.c **** * @note   The locked registers are GPIOx_MODER, GPIOx_OTYPER, GPIOx_OSPEEDR,
 444:Drivers/STM32L0xx_HAL_Driver/Src/stm32l0xx_hal_gpio.c **** *         GPIOx_PUPDR, GPIOx_AFRL and GPIOx_AFRH.
 445:Drivers/STM32L0xx_HAL_Driver/Src/stm32l0xx_hal_gpio.c **** * @note   The configuration of the locked GPIO pins can no longer be modified
 446:Drivers/STM32L0xx_HAL_Driver/Src/stm32l0xx_hal_gpio.c **** *         until the next reset.
 447:Drivers/STM32L0xx_HAL_Driver/Src/stm32l0xx_hal_gpio.c **** * @param  GPIOx where x can be (A..E and H) to select the GPIO peripheral for STM32L0xx family.
 448:Drivers/STM32L0xx_HAL_Driver/Src/stm32l0xx_hal_gpio.c **** *                Note that GPIOE is not available on all devices.
 449:Drivers/STM32L0xx_HAL_Driver/Src/stm32l0xx_hal_gpio.c **** * @param  GPIO_Pin specifies the port bit to be locked.
 450:Drivers/STM32L0xx_HAL_Driver/Src/stm32l0xx_hal_gpio.c **** *         This parameter can be any combination of GPIO_Pin_x where x can be (0..15).
 451:Drivers/STM32L0xx_HAL_Driver/Src/stm32l0xx_hal_gpio.c **** *         All port bits are not necessarily available on all GPIOs.
 452:Drivers/STM32L0xx_HAL_Driver/Src/stm32l0xx_hal_gpio.c **** * @retval None
 453:Drivers/STM32L0xx_HAL_Driver/Src/stm32l0xx_hal_gpio.c **** */
 454:Drivers/STM32L0xx_HAL_Driver/Src/stm32l0xx_hal_gpio.c **** HAL_StatusTypeDef HAL_GPIO_LockPin(GPIO_TypeDef *GPIOx, uint16_t GPIO_Pin)
 455:Drivers/STM32L0xx_HAL_Driver/Src/stm32l0xx_hal_gpio.c **** {
 834              		.loc 1 455 1 is_stmt 1 view -0
 835              		.cfi_startproc
 836              		@ args = 0, pretend = 0, frame = 8
 837              		@ frame_needed = 0, uses_anonymous_args = 0
 838              		@ link register save eliminated.
 839              		.loc 1 455 1 is_stmt 0 view .LVU280
 840 0000 82B0     		sub	sp, sp, #8
 841              		.cfi_def_cfa_offset 8
 456:Drivers/STM32L0xx_HAL_Driver/Src/stm32l0xx_hal_gpio.c ****   __IO uint32_t tmp = GPIO_LCKR_LCKK;
 842              		.loc 1 456 3 is_stmt 1 view .LVU281
 843              		.loc 1 456 17 is_stmt 0 view .LVU282
 844 0002 8022     		movs	r2, #128
 845 0004 5202     		lsls	r2, r2, #9
 846 0006 0192     		str	r2, [sp, #4]
 457:Drivers/STM32L0xx_HAL_Driver/Src/stm32l0xx_hal_gpio.c **** 
 458:Drivers/STM32L0xx_HAL_Driver/Src/stm32l0xx_hal_gpio.c ****   /* Check the parameters */
 459:Drivers/STM32L0xx_HAL_Driver/Src/stm32l0xx_hal_gpio.c ****   assert_param(IS_GPIO_PIN_AVAILABLE(GPIOx, GPIO_Pin));
 847              		.loc 1 459 3 is_stmt 1 view .LVU283
 460:Drivers/STM32L0xx_HAL_Driver/Src/stm32l0xx_hal_gpio.c **** 
 461:Drivers/STM32L0xx_HAL_Driver/Src/stm32l0xx_hal_gpio.c ****   /* Apply lock key write sequence */
 462:Drivers/STM32L0xx_HAL_Driver/Src/stm32l0xx_hal_gpio.c ****   tmp |= GPIO_Pin;
 848              		.loc 1 462 3 view .LVU284
 849              		.loc 1 462 7 is_stmt 0 view .LVU285
 850 0008 019B     		ldr	r3, [sp, #4]
 851 000a 0B43     		orrs	r3, r1
 852 000c 0193     		str	r3, [sp, #4]
 463:Drivers/STM32L0xx_HAL_Driver/Src/stm32l0xx_hal_gpio.c ****   /* Set LCKx bit(s): LCKK='1' + LCK[15-0] */
 464:Drivers/STM32L0xx_HAL_Driver/Src/stm32l0xx_hal_gpio.c ****   GPIOx->LCKR = tmp;
 853              		.loc 1 464 3 is_stmt 1 view .LVU286
 854              		.loc 1 464 15 is_stmt 0 view .LVU287
 855 000e 019B     		ldr	r3, [sp, #4]
 856 0010 C361     		str	r3, [r0, #28]
 465:Drivers/STM32L0xx_HAL_Driver/Src/stm32l0xx_hal_gpio.c ****   /* Reset LCKx bit(s): LCKK='0' + LCK[15-0] */
 466:Drivers/STM32L0xx_HAL_Driver/Src/stm32l0xx_hal_gpio.c ****   GPIOx->LCKR = GPIO_Pin;
 857              		.loc 1 466 3 is_stmt 1 view .LVU288
 858              		.loc 1 466 15 is_stmt 0 view .LVU289
 859 0012 C161     		str	r1, [r0, #28]
 467:Drivers/STM32L0xx_HAL_Driver/Src/stm32l0xx_hal_gpio.c ****   /* Set LCKx bit(s): LCKK='1' + LCK[15-0] */
 468:Drivers/STM32L0xx_HAL_Driver/Src/stm32l0xx_hal_gpio.c ****   GPIOx->LCKR = tmp;
ARM GAS  C:\Users\xhex8\AppData\Local\Temp\ccpUd0il.s 			page 26


 860              		.loc 1 468 3 is_stmt 1 view .LVU290
 861              		.loc 1 468 15 is_stmt 0 view .LVU291
 862 0014 019B     		ldr	r3, [sp, #4]
 863 0016 C361     		str	r3, [r0, #28]
 469:Drivers/STM32L0xx_HAL_Driver/Src/stm32l0xx_hal_gpio.c ****   /* Read LCKK register. This read is mandatory to complete key lock sequence */
 470:Drivers/STM32L0xx_HAL_Driver/Src/stm32l0xx_hal_gpio.c ****   tmp = GPIOx->LCKR;
 864              		.loc 1 470 3 is_stmt 1 view .LVU292
 865              		.loc 1 470 14 is_stmt 0 view .LVU293
 866 0018 C369     		ldr	r3, [r0, #28]
 867              		.loc 1 470 7 view .LVU294
 868 001a 0193     		str	r3, [sp, #4]
 471:Drivers/STM32L0xx_HAL_Driver/Src/stm32l0xx_hal_gpio.c **** 
 472:Drivers/STM32L0xx_HAL_Driver/Src/stm32l0xx_hal_gpio.c ****   /* read again in order to confirm lock is active */
 473:Drivers/STM32L0xx_HAL_Driver/Src/stm32l0xx_hal_gpio.c ****   if ((GPIOx->LCKR & GPIO_LCKR_LCKK) != RESET)
 869              		.loc 1 473 3 is_stmt 1 view .LVU295
 870              		.loc 1 473 13 is_stmt 0 view .LVU296
 871 001c C369     		ldr	r3, [r0, #28]
 872              		.loc 1 473 6 view .LVU297
 873 001e 1342     		tst	r3, r2
 874 0020 02D0     		beq	.L51
 474:Drivers/STM32L0xx_HAL_Driver/Src/stm32l0xx_hal_gpio.c ****   {
 475:Drivers/STM32L0xx_HAL_Driver/Src/stm32l0xx_hal_gpio.c ****     return HAL_OK;
 875              		.loc 1 475 12 view .LVU298
 876 0022 0020     		movs	r0, #0
 877              	.LVL70:
 878              	.L50:
 476:Drivers/STM32L0xx_HAL_Driver/Src/stm32l0xx_hal_gpio.c ****   }
 477:Drivers/STM32L0xx_HAL_Driver/Src/stm32l0xx_hal_gpio.c ****   else
 478:Drivers/STM32L0xx_HAL_Driver/Src/stm32l0xx_hal_gpio.c ****   {
 479:Drivers/STM32L0xx_HAL_Driver/Src/stm32l0xx_hal_gpio.c ****     return HAL_ERROR;
 480:Drivers/STM32L0xx_HAL_Driver/Src/stm32l0xx_hal_gpio.c ****   }
 481:Drivers/STM32L0xx_HAL_Driver/Src/stm32l0xx_hal_gpio.c **** }
 879              		.loc 1 481 1 view .LVU299
 880 0024 02B0     		add	sp, sp, #8
 881              		@ sp needed
 882 0026 7047     		bx	lr
 883              	.LVL71:
 884              	.L51:
 479:Drivers/STM32L0xx_HAL_Driver/Src/stm32l0xx_hal_gpio.c ****   }
 885              		.loc 1 479 12 view .LVU300
 886 0028 0120     		movs	r0, #1
 887              	.LVL72:
 479:Drivers/STM32L0xx_HAL_Driver/Src/stm32l0xx_hal_gpio.c ****   }
 888              		.loc 1 479 12 view .LVU301
 889 002a FBE7     		b	.L50
 890              		.cfi_endproc
 891              	.LFE45:
 893              		.section	.text.HAL_GPIO_EXTI_Callback,"ax",%progbits
 894              		.align	1
 895              		.weak	HAL_GPIO_EXTI_Callback
 896              		.syntax unified
 897              		.code	16
 898              		.thumb_func
 900              	HAL_GPIO_EXTI_Callback:
 901              	.LVL73:
 902              	.LFB47:
 482:Drivers/STM32L0xx_HAL_Driver/Src/stm32l0xx_hal_gpio.c **** /**
ARM GAS  C:\Users\xhex8\AppData\Local\Temp\ccpUd0il.s 			page 27


 483:Drivers/STM32L0xx_HAL_Driver/Src/stm32l0xx_hal_gpio.c ****   * @brief  This function handles EXTI interrupt request.
 484:Drivers/STM32L0xx_HAL_Driver/Src/stm32l0xx_hal_gpio.c ****   * @param  GPIO_Pin Specifies the pins connected to the EXTI line.
 485:Drivers/STM32L0xx_HAL_Driver/Src/stm32l0xx_hal_gpio.c ****   * @retval None
 486:Drivers/STM32L0xx_HAL_Driver/Src/stm32l0xx_hal_gpio.c ****   */
 487:Drivers/STM32L0xx_HAL_Driver/Src/stm32l0xx_hal_gpio.c **** void HAL_GPIO_EXTI_IRQHandler(uint16_t GPIO_Pin)
 488:Drivers/STM32L0xx_HAL_Driver/Src/stm32l0xx_hal_gpio.c **** {
 489:Drivers/STM32L0xx_HAL_Driver/Src/stm32l0xx_hal_gpio.c ****   /* EXTI line interrupt detected */
 490:Drivers/STM32L0xx_HAL_Driver/Src/stm32l0xx_hal_gpio.c ****   if (__HAL_GPIO_EXTI_GET_IT(GPIO_Pin) != RESET)
 491:Drivers/STM32L0xx_HAL_Driver/Src/stm32l0xx_hal_gpio.c ****   {
 492:Drivers/STM32L0xx_HAL_Driver/Src/stm32l0xx_hal_gpio.c ****     __HAL_GPIO_EXTI_CLEAR_IT(GPIO_Pin);
 493:Drivers/STM32L0xx_HAL_Driver/Src/stm32l0xx_hal_gpio.c ****     HAL_GPIO_EXTI_Callback(GPIO_Pin);
 494:Drivers/STM32L0xx_HAL_Driver/Src/stm32l0xx_hal_gpio.c ****   }
 495:Drivers/STM32L0xx_HAL_Driver/Src/stm32l0xx_hal_gpio.c **** }
 496:Drivers/STM32L0xx_HAL_Driver/Src/stm32l0xx_hal_gpio.c **** 
 497:Drivers/STM32L0xx_HAL_Driver/Src/stm32l0xx_hal_gpio.c **** /**
 498:Drivers/STM32L0xx_HAL_Driver/Src/stm32l0xx_hal_gpio.c ****   * @brief  EXTI line detection callbacks.
 499:Drivers/STM32L0xx_HAL_Driver/Src/stm32l0xx_hal_gpio.c ****   * @param  GPIO_Pin Specifies the pins connected to the EXTI line.
 500:Drivers/STM32L0xx_HAL_Driver/Src/stm32l0xx_hal_gpio.c ****   * @retval None
 501:Drivers/STM32L0xx_HAL_Driver/Src/stm32l0xx_hal_gpio.c ****   */
 502:Drivers/STM32L0xx_HAL_Driver/Src/stm32l0xx_hal_gpio.c **** __weak void HAL_GPIO_EXTI_Callback(uint16_t GPIO_Pin)
 503:Drivers/STM32L0xx_HAL_Driver/Src/stm32l0xx_hal_gpio.c **** {
 903              		.loc 1 503 1 is_stmt 1 view -0
 904              		.cfi_startproc
 905              		@ args = 0, pretend = 0, frame = 0
 906              		@ frame_needed = 0, uses_anonymous_args = 0
 907              		@ link register save eliminated.
 504:Drivers/STM32L0xx_HAL_Driver/Src/stm32l0xx_hal_gpio.c ****   /* Prevent unused argument(s) compilation warning */
 505:Drivers/STM32L0xx_HAL_Driver/Src/stm32l0xx_hal_gpio.c ****   UNUSED(GPIO_Pin);
 908              		.loc 1 505 3 view .LVU303
 506:Drivers/STM32L0xx_HAL_Driver/Src/stm32l0xx_hal_gpio.c **** 
 507:Drivers/STM32L0xx_HAL_Driver/Src/stm32l0xx_hal_gpio.c ****   /* NOTE: This function Should not be modified, when the callback is needed,
 508:Drivers/STM32L0xx_HAL_Driver/Src/stm32l0xx_hal_gpio.c ****            the HAL_GPIO_EXTI_Callback could be implemented in the user file
 509:Drivers/STM32L0xx_HAL_Driver/Src/stm32l0xx_hal_gpio.c ****    */
 510:Drivers/STM32L0xx_HAL_Driver/Src/stm32l0xx_hal_gpio.c **** }
 909              		.loc 1 510 1 is_stmt 0 view .LVU304
 910              		@ sp needed
 911 0000 7047     		bx	lr
 912              		.cfi_endproc
 913              	.LFE47:
 915              		.section	.text.HAL_GPIO_EXTI_IRQHandler,"ax",%progbits
 916              		.align	1
 917              		.global	HAL_GPIO_EXTI_IRQHandler
 918              		.syntax unified
 919              		.code	16
 920              		.thumb_func
 922              	HAL_GPIO_EXTI_IRQHandler:
 923              	.LVL74:
 924              	.LFB46:
 488:Drivers/STM32L0xx_HAL_Driver/Src/stm32l0xx_hal_gpio.c ****   /* EXTI line interrupt detected */
 925              		.loc 1 488 1 is_stmt 1 view -0
 926              		.cfi_startproc
 927              		@ args = 0, pretend = 0, frame = 0
 928              		@ frame_needed = 0, uses_anonymous_args = 0
 488:Drivers/STM32L0xx_HAL_Driver/Src/stm32l0xx_hal_gpio.c ****   /* EXTI line interrupt detected */
 929              		.loc 1 488 1 is_stmt 0 view .LVU306
 930 0000 10B5     		push	{r4, lr}
 931              		.cfi_def_cfa_offset 8
ARM GAS  C:\Users\xhex8\AppData\Local\Temp\ccpUd0il.s 			page 28


 932              		.cfi_offset 4, -8
 933              		.cfi_offset 14, -4
 490:Drivers/STM32L0xx_HAL_Driver/Src/stm32l0xx_hal_gpio.c ****   {
 934              		.loc 1 490 3 is_stmt 1 view .LVU307
 490:Drivers/STM32L0xx_HAL_Driver/Src/stm32l0xx_hal_gpio.c ****   {
 935              		.loc 1 490 7 is_stmt 0 view .LVU308
 936 0002 054B     		ldr	r3, .L56
 937 0004 5B69     		ldr	r3, [r3, #20]
 490:Drivers/STM32L0xx_HAL_Driver/Src/stm32l0xx_hal_gpio.c ****   {
 938              		.loc 1 490 6 view .LVU309
 939 0006 1842     		tst	r0, r3
 940 0008 00D1     		bne	.L55
 941              	.LVL75:
 942              	.L53:
 495:Drivers/STM32L0xx_HAL_Driver/Src/stm32l0xx_hal_gpio.c **** 
 943              		.loc 1 495 1 view .LVU310
 944              		@ sp needed
 945 000a 10BD     		pop	{r4, pc}
 946              	.LVL76:
 947              	.L55:
 492:Drivers/STM32L0xx_HAL_Driver/Src/stm32l0xx_hal_gpio.c ****     HAL_GPIO_EXTI_Callback(GPIO_Pin);
 948              		.loc 1 492 5 is_stmt 1 view .LVU311
 949 000c 024B     		ldr	r3, .L56
 950 000e 5861     		str	r0, [r3, #20]
 493:Drivers/STM32L0xx_HAL_Driver/Src/stm32l0xx_hal_gpio.c ****   }
 951              		.loc 1 493 5 view .LVU312
 952 0010 FFF7FEFF 		bl	HAL_GPIO_EXTI_Callback
 953              	.LVL77:
 495:Drivers/STM32L0xx_HAL_Driver/Src/stm32l0xx_hal_gpio.c **** 
 954              		.loc 1 495 1 is_stmt 0 view .LVU313
 955 0014 F9E7     		b	.L53
 956              	.L57:
 957 0016 C046     		.align	2
 958              	.L56:
 959 0018 00040140 		.word	1073808384
 960              		.cfi_endproc
 961              	.LFE46:
 963              		.text
 964              	.Letext0:
 965              		.file 2 "c:\\users\\xhex8\\appdata\\roaming\\code\\user\\globalstorage\\bmd.stm32-for-vscode\\@xpa
 966              		.file 3 "c:\\users\\xhex8\\appdata\\roaming\\code\\user\\globalstorage\\bmd.stm32-for-vscode\\@xpa
 967              		.file 4 "Drivers/CMSIS/Device/ST/STM32L0xx/Include/stm32l031xx.h"
 968              		.file 5 "Drivers/CMSIS/Device/ST/STM32L0xx/Include/stm32l0xx.h"
 969              		.file 6 "Drivers/STM32L0xx_HAL_Driver/Inc/stm32l0xx_hal_def.h"
 970              		.file 7 "Drivers/STM32L0xx_HAL_Driver/Inc/stm32l0xx_hal_gpio.h"
ARM GAS  C:\Users\xhex8\AppData\Local\Temp\ccpUd0il.s 			page 29

