ARM GAS  C:\Users\xhex8\AppData\Local\Temp\cceXWYI3.s 			page 1


   1              		.cpu cortex-m0plus
   2              		.arch armv6s-m
   3              		.fpu softvfp
   4              		.eabi_attribute 20, 1
   5              		.eabi_attribute 21, 1
   6              		.eabi_attribute 23, 3
   7              		.eabi_attribute 24, 1
   8              		.eabi_attribute 25, 1
   9              		.eabi_attribute 26, 1
  10              		.eabi_attribute 30, 1
  11              		.eabi_attribute 34, 0
  12              		.eabi_attribute 18, 4
  13              		.file	"stm32l0xx_hal_msp.c"
  14              		.text
  15              	.Ltext0:
  16              		.cfi_sections	.debug_frame
  17              		.file 1 "Core/Src/stm32l0xx_hal_msp.c"
  18              		.section	.text.HAL_MspInit,"ax",%progbits
  19              		.align	1
  20              		.global	HAL_MspInit
  21              		.syntax unified
  22              		.code	16
  23              		.thumb_func
  25              	HAL_MspInit:
  26              	.LFB40:
   1:Core/Src/stm32l0xx_hal_msp.c **** /* USER CODE BEGIN Header */
   2:Core/Src/stm32l0xx_hal_msp.c **** /**
   3:Core/Src/stm32l0xx_hal_msp.c ****   ******************************************************************************
   4:Core/Src/stm32l0xx_hal_msp.c ****   * @file         stm32l0xx_hal_msp.c
   5:Core/Src/stm32l0xx_hal_msp.c ****   * @brief        This file provides code for the MSP Initialization
   6:Core/Src/stm32l0xx_hal_msp.c ****   *               and de-Initialization codes.
   7:Core/Src/stm32l0xx_hal_msp.c ****   ******************************************************************************
   8:Core/Src/stm32l0xx_hal_msp.c ****   * @attention
   9:Core/Src/stm32l0xx_hal_msp.c ****   *
  10:Core/Src/stm32l0xx_hal_msp.c ****   * Copyright (c) 2024 STMicroelectronics.
  11:Core/Src/stm32l0xx_hal_msp.c ****   * All rights reserved.
  12:Core/Src/stm32l0xx_hal_msp.c ****   *
  13:Core/Src/stm32l0xx_hal_msp.c ****   * This software is licensed under terms that can be found in the LICENSE file
  14:Core/Src/stm32l0xx_hal_msp.c ****   * in the root directory of this software component.
  15:Core/Src/stm32l0xx_hal_msp.c ****   * If no LICENSE file comes with this software, it is provided AS-IS.
  16:Core/Src/stm32l0xx_hal_msp.c ****   *
  17:Core/Src/stm32l0xx_hal_msp.c ****   ******************************************************************************
  18:Core/Src/stm32l0xx_hal_msp.c ****   */
  19:Core/Src/stm32l0xx_hal_msp.c **** /* USER CODE END Header */
  20:Core/Src/stm32l0xx_hal_msp.c **** 
  21:Core/Src/stm32l0xx_hal_msp.c **** /* Includes ------------------------------------------------------------------*/
  22:Core/Src/stm32l0xx_hal_msp.c **** #include "main.h"
  23:Core/Src/stm32l0xx_hal_msp.c **** /* USER CODE BEGIN Includes */
  24:Core/Src/stm32l0xx_hal_msp.c **** 
  25:Core/Src/stm32l0xx_hal_msp.c **** /* USER CODE END Includes */
  26:Core/Src/stm32l0xx_hal_msp.c **** 
  27:Core/Src/stm32l0xx_hal_msp.c **** /* Private typedef -----------------------------------------------------------*/
  28:Core/Src/stm32l0xx_hal_msp.c **** /* USER CODE BEGIN TD */
  29:Core/Src/stm32l0xx_hal_msp.c **** 
  30:Core/Src/stm32l0xx_hal_msp.c **** /* USER CODE END TD */
  31:Core/Src/stm32l0xx_hal_msp.c **** 
  32:Core/Src/stm32l0xx_hal_msp.c **** /* Private define ------------------------------------------------------------*/
ARM GAS  C:\Users\xhex8\AppData\Local\Temp\cceXWYI3.s 			page 2


  33:Core/Src/stm32l0xx_hal_msp.c **** /* USER CODE BEGIN Define */
  34:Core/Src/stm32l0xx_hal_msp.c **** 
  35:Core/Src/stm32l0xx_hal_msp.c **** /* USER CODE END Define */
  36:Core/Src/stm32l0xx_hal_msp.c **** 
  37:Core/Src/stm32l0xx_hal_msp.c **** /* Private macro -------------------------------------------------------------*/
  38:Core/Src/stm32l0xx_hal_msp.c **** /* USER CODE BEGIN Macro */
  39:Core/Src/stm32l0xx_hal_msp.c **** 
  40:Core/Src/stm32l0xx_hal_msp.c **** /* USER CODE END Macro */
  41:Core/Src/stm32l0xx_hal_msp.c **** 
  42:Core/Src/stm32l0xx_hal_msp.c **** /* Private variables ---------------------------------------------------------*/
  43:Core/Src/stm32l0xx_hal_msp.c **** /* USER CODE BEGIN PV */
  44:Core/Src/stm32l0xx_hal_msp.c **** 
  45:Core/Src/stm32l0xx_hal_msp.c **** /* USER CODE END PV */
  46:Core/Src/stm32l0xx_hal_msp.c **** 
  47:Core/Src/stm32l0xx_hal_msp.c **** /* Private function prototypes -----------------------------------------------*/
  48:Core/Src/stm32l0xx_hal_msp.c **** /* USER CODE BEGIN PFP */
  49:Core/Src/stm32l0xx_hal_msp.c **** 
  50:Core/Src/stm32l0xx_hal_msp.c **** /* USER CODE END PFP */
  51:Core/Src/stm32l0xx_hal_msp.c **** 
  52:Core/Src/stm32l0xx_hal_msp.c **** /* External functions --------------------------------------------------------*/
  53:Core/Src/stm32l0xx_hal_msp.c **** /* USER CODE BEGIN ExternalFunctions */
  54:Core/Src/stm32l0xx_hal_msp.c **** 
  55:Core/Src/stm32l0xx_hal_msp.c **** /* USER CODE END ExternalFunctions */
  56:Core/Src/stm32l0xx_hal_msp.c **** 
  57:Core/Src/stm32l0xx_hal_msp.c **** /* USER CODE BEGIN 0 */
  58:Core/Src/stm32l0xx_hal_msp.c **** 
  59:Core/Src/stm32l0xx_hal_msp.c **** /* USER CODE END 0 */
  60:Core/Src/stm32l0xx_hal_msp.c **** /**
  61:Core/Src/stm32l0xx_hal_msp.c ****   * Initializes the Global MSP.
  62:Core/Src/stm32l0xx_hal_msp.c ****   */
  63:Core/Src/stm32l0xx_hal_msp.c **** void HAL_MspInit(void)
  64:Core/Src/stm32l0xx_hal_msp.c **** {
  27              		.loc 1 64 1 view -0
  28              		.cfi_startproc
  29              		@ args = 0, pretend = 0, frame = 0
  30              		@ frame_needed = 0, uses_anonymous_args = 0
  31              		@ link register save eliminated.
  65:Core/Src/stm32l0xx_hal_msp.c **** 
  66:Core/Src/stm32l0xx_hal_msp.c ****   /* USER CODE BEGIN MspInit 0 */
  67:Core/Src/stm32l0xx_hal_msp.c **** 
  68:Core/Src/stm32l0xx_hal_msp.c ****   /* USER CODE END MspInit 0 */
  69:Core/Src/stm32l0xx_hal_msp.c **** 
  70:Core/Src/stm32l0xx_hal_msp.c ****   __HAL_RCC_SYSCFG_CLK_ENABLE();
  32              		.loc 1 70 3 view .LVU1
  33 0000 054B     		ldr	r3, .L2
  34 0002 5A6B     		ldr	r2, [r3, #52]
  35 0004 0121     		movs	r1, #1
  36 0006 0A43     		orrs	r2, r1
  37 0008 5A63     		str	r2, [r3, #52]
  71:Core/Src/stm32l0xx_hal_msp.c ****   __HAL_RCC_PWR_CLK_ENABLE();
  38              		.loc 1 71 3 view .LVU2
  39 000a 996B     		ldr	r1, [r3, #56]
  40 000c 8022     		movs	r2, #128
  41 000e 5205     		lsls	r2, r2, #21
  42 0010 0A43     		orrs	r2, r1
  43 0012 9A63     		str	r2, [r3, #56]
  72:Core/Src/stm32l0xx_hal_msp.c **** 
ARM GAS  C:\Users\xhex8\AppData\Local\Temp\cceXWYI3.s 			page 3


  73:Core/Src/stm32l0xx_hal_msp.c ****   /* System interrupt init*/
  74:Core/Src/stm32l0xx_hal_msp.c **** 
  75:Core/Src/stm32l0xx_hal_msp.c ****   /* USER CODE BEGIN MspInit 1 */
  76:Core/Src/stm32l0xx_hal_msp.c **** 
  77:Core/Src/stm32l0xx_hal_msp.c ****   /* USER CODE END MspInit 1 */
  78:Core/Src/stm32l0xx_hal_msp.c **** }
  44              		.loc 1 78 1 is_stmt 0 view .LVU3
  45              		@ sp needed
  46 0014 7047     		bx	lr
  47              	.L3:
  48 0016 C046     		.align	2
  49              	.L2:
  50 0018 00100240 		.word	1073876992
  51              		.cfi_endproc
  52              	.LFE40:
  54              		.section	.text.HAL_I2C_MspInit,"ax",%progbits
  55              		.align	1
  56              		.global	HAL_I2C_MspInit
  57              		.syntax unified
  58              		.code	16
  59              		.thumb_func
  61              	HAL_I2C_MspInit:
  62              	.LVL0:
  63              	.LFB41:
  79:Core/Src/stm32l0xx_hal_msp.c **** 
  80:Core/Src/stm32l0xx_hal_msp.c **** /**
  81:Core/Src/stm32l0xx_hal_msp.c **** * @brief I2C MSP Initialization
  82:Core/Src/stm32l0xx_hal_msp.c **** * This function configures the hardware resources used in this example
  83:Core/Src/stm32l0xx_hal_msp.c **** * @param hi2c: I2C handle pointer
  84:Core/Src/stm32l0xx_hal_msp.c **** * @retval None
  85:Core/Src/stm32l0xx_hal_msp.c **** */
  86:Core/Src/stm32l0xx_hal_msp.c **** void HAL_I2C_MspInit(I2C_HandleTypeDef* hi2c)
  87:Core/Src/stm32l0xx_hal_msp.c **** {
  64              		.loc 1 87 1 is_stmt 1 view -0
  65              		.cfi_startproc
  66              		@ args = 0, pretend = 0, frame = 24
  67              		@ frame_needed = 0, uses_anonymous_args = 0
  68              		.loc 1 87 1 is_stmt 0 view .LVU5
  69 0000 10B5     		push	{r4, lr}
  70              		.cfi_def_cfa_offset 8
  71              		.cfi_offset 4, -8
  72              		.cfi_offset 14, -4
  73 0002 86B0     		sub	sp, sp, #24
  74              		.cfi_def_cfa_offset 32
  75 0004 0400     		movs	r4, r0
  88:Core/Src/stm32l0xx_hal_msp.c ****   GPIO_InitTypeDef GPIO_InitStruct = {0};
  76              		.loc 1 88 3 is_stmt 1 view .LVU6
  77              		.loc 1 88 20 is_stmt 0 view .LVU7
  78 0006 1422     		movs	r2, #20
  79 0008 0021     		movs	r1, #0
  80 000a 01A8     		add	r0, sp, #4
  81              	.LVL1:
  82              		.loc 1 88 20 view .LVU8
  83 000c FFF7FEFF 		bl	memset
  84              	.LVL2:
  89:Core/Src/stm32l0xx_hal_msp.c ****   if(hi2c->Instance==I2C1)
  85              		.loc 1 89 3 is_stmt 1 view .LVU9
ARM GAS  C:\Users\xhex8\AppData\Local\Temp\cceXWYI3.s 			page 4


  86              		.loc 1 89 10 is_stmt 0 view .LVU10
  87 0010 2268     		ldr	r2, [r4]
  88              		.loc 1 89 5 view .LVU11
  89 0012 144B     		ldr	r3, .L7
  90 0014 9A42     		cmp	r2, r3
  91 0016 01D0     		beq	.L6
  92              	.LVL3:
  93              	.L4:
  90:Core/Src/stm32l0xx_hal_msp.c ****   {
  91:Core/Src/stm32l0xx_hal_msp.c ****   /* USER CODE BEGIN I2C1_MspInit 0 */
  92:Core/Src/stm32l0xx_hal_msp.c **** 
  93:Core/Src/stm32l0xx_hal_msp.c ****   /* USER CODE END I2C1_MspInit 0 */
  94:Core/Src/stm32l0xx_hal_msp.c **** 
  95:Core/Src/stm32l0xx_hal_msp.c ****     __HAL_RCC_GPIOA_CLK_ENABLE();
  96:Core/Src/stm32l0xx_hal_msp.c ****     /**I2C1 GPIO Configuration
  97:Core/Src/stm32l0xx_hal_msp.c ****     PA9     ------> I2C1_SCL
  98:Core/Src/stm32l0xx_hal_msp.c ****     PA10     ------> I2C1_SDA
  99:Core/Src/stm32l0xx_hal_msp.c ****     */
 100:Core/Src/stm32l0xx_hal_msp.c ****     GPIO_InitStruct.Pin = GPIO_PIN_9|GPIO_PIN_10;
 101:Core/Src/stm32l0xx_hal_msp.c ****     GPIO_InitStruct.Mode = GPIO_MODE_AF_OD;
 102:Core/Src/stm32l0xx_hal_msp.c ****     GPIO_InitStruct.Pull = GPIO_NOPULL;
 103:Core/Src/stm32l0xx_hal_msp.c ****     GPIO_InitStruct.Speed = GPIO_SPEED_FREQ_VERY_HIGH;
 104:Core/Src/stm32l0xx_hal_msp.c ****     GPIO_InitStruct.Alternate = GPIO_AF1_I2C1;
 105:Core/Src/stm32l0xx_hal_msp.c ****     HAL_GPIO_Init(GPIOA, &GPIO_InitStruct);
 106:Core/Src/stm32l0xx_hal_msp.c **** 
 107:Core/Src/stm32l0xx_hal_msp.c ****     /* Peripheral clock enable */
 108:Core/Src/stm32l0xx_hal_msp.c ****     __HAL_RCC_I2C1_CLK_ENABLE();
 109:Core/Src/stm32l0xx_hal_msp.c ****     /* I2C1 interrupt Init */
 110:Core/Src/stm32l0xx_hal_msp.c ****     HAL_NVIC_SetPriority(I2C1_IRQn, 0, 0);
 111:Core/Src/stm32l0xx_hal_msp.c ****     HAL_NVIC_EnableIRQ(I2C1_IRQn);
 112:Core/Src/stm32l0xx_hal_msp.c ****   /* USER CODE BEGIN I2C1_MspInit 1 */
 113:Core/Src/stm32l0xx_hal_msp.c **** 
 114:Core/Src/stm32l0xx_hal_msp.c ****   /* USER CODE END I2C1_MspInit 1 */
 115:Core/Src/stm32l0xx_hal_msp.c ****   }
 116:Core/Src/stm32l0xx_hal_msp.c **** 
 117:Core/Src/stm32l0xx_hal_msp.c **** }
  94              		.loc 1 117 1 view .LVU12
  95 0018 06B0     		add	sp, sp, #24
  96              		@ sp needed
  97 001a 10BD     		pop	{r4, pc}
  98              	.LVL4:
  99              	.L6:
  95:Core/Src/stm32l0xx_hal_msp.c ****     /**I2C1 GPIO Configuration
 100              		.loc 1 95 5 is_stmt 1 view .LVU13
 101              	.LBB2:
  95:Core/Src/stm32l0xx_hal_msp.c ****     /**I2C1 GPIO Configuration
 102              		.loc 1 95 5 view .LVU14
  95:Core/Src/stm32l0xx_hal_msp.c ****     /**I2C1 GPIO Configuration
 103              		.loc 1 95 5 view .LVU15
 104 001c 124C     		ldr	r4, .L7+4
 105              	.LVL5:
  95:Core/Src/stm32l0xx_hal_msp.c ****     /**I2C1 GPIO Configuration
 106              		.loc 1 95 5 is_stmt 0 view .LVU16
 107 001e E26A     		ldr	r2, [r4, #44]
 108 0020 0123     		movs	r3, #1
 109 0022 1A43     		orrs	r2, r3
 110 0024 E262     		str	r2, [r4, #44]
ARM GAS  C:\Users\xhex8\AppData\Local\Temp\cceXWYI3.s 			page 5


  95:Core/Src/stm32l0xx_hal_msp.c ****     /**I2C1 GPIO Configuration
 111              		.loc 1 95 5 is_stmt 1 view .LVU17
 112 0026 E26A     		ldr	r2, [r4, #44]
 113 0028 1A40     		ands	r2, r3
 114 002a 0092     		str	r2, [sp]
  95:Core/Src/stm32l0xx_hal_msp.c ****     /**I2C1 GPIO Configuration
 115              		.loc 1 95 5 view .LVU18
 116 002c 009A     		ldr	r2, [sp]
 117              	.LBE2:
  95:Core/Src/stm32l0xx_hal_msp.c ****     /**I2C1 GPIO Configuration
 118              		.loc 1 95 5 view .LVU19
 100:Core/Src/stm32l0xx_hal_msp.c ****     GPIO_InitStruct.Mode = GPIO_MODE_AF_OD;
 119              		.loc 1 100 5 view .LVU20
 100:Core/Src/stm32l0xx_hal_msp.c ****     GPIO_InitStruct.Mode = GPIO_MODE_AF_OD;
 120              		.loc 1 100 25 is_stmt 0 view .LVU21
 121 002e C022     		movs	r2, #192
 122 0030 D200     		lsls	r2, r2, #3
 123 0032 0192     		str	r2, [sp, #4]
 101:Core/Src/stm32l0xx_hal_msp.c ****     GPIO_InitStruct.Pull = GPIO_NOPULL;
 124              		.loc 1 101 5 is_stmt 1 view .LVU22
 101:Core/Src/stm32l0xx_hal_msp.c ****     GPIO_InitStruct.Pull = GPIO_NOPULL;
 125              		.loc 1 101 26 is_stmt 0 view .LVU23
 126 0034 1222     		movs	r2, #18
 127 0036 0292     		str	r2, [sp, #8]
 102:Core/Src/stm32l0xx_hal_msp.c ****     GPIO_InitStruct.Speed = GPIO_SPEED_FREQ_VERY_HIGH;
 128              		.loc 1 102 5 is_stmt 1 view .LVU24
 103:Core/Src/stm32l0xx_hal_msp.c ****     GPIO_InitStruct.Alternate = GPIO_AF1_I2C1;
 129              		.loc 1 103 5 view .LVU25
 103:Core/Src/stm32l0xx_hal_msp.c ****     GPIO_InitStruct.Alternate = GPIO_AF1_I2C1;
 130              		.loc 1 103 27 is_stmt 0 view .LVU26
 131 0038 0F3A     		subs	r2, r2, #15
 132 003a 0492     		str	r2, [sp, #16]
 104:Core/Src/stm32l0xx_hal_msp.c ****     HAL_GPIO_Init(GPIOA, &GPIO_InitStruct);
 133              		.loc 1 104 5 is_stmt 1 view .LVU27
 104:Core/Src/stm32l0xx_hal_msp.c ****     HAL_GPIO_Init(GPIOA, &GPIO_InitStruct);
 134              		.loc 1 104 31 is_stmt 0 view .LVU28
 135 003c 0593     		str	r3, [sp, #20]
 105:Core/Src/stm32l0xx_hal_msp.c **** 
 136              		.loc 1 105 5 is_stmt 1 view .LVU29
 137 003e A020     		movs	r0, #160
 138 0040 01A9     		add	r1, sp, #4
 139 0042 C005     		lsls	r0, r0, #23
 140 0044 FFF7FEFF 		bl	HAL_GPIO_Init
 141              	.LVL6:
 108:Core/Src/stm32l0xx_hal_msp.c ****     /* I2C1 interrupt Init */
 142              		.loc 1 108 5 view .LVU30
 143 0048 A26B     		ldr	r2, [r4, #56]
 144 004a 8023     		movs	r3, #128
 145 004c 9B03     		lsls	r3, r3, #14
 146 004e 1343     		orrs	r3, r2
 147 0050 A363     		str	r3, [r4, #56]
 110:Core/Src/stm32l0xx_hal_msp.c ****     HAL_NVIC_EnableIRQ(I2C1_IRQn);
 148              		.loc 1 110 5 view .LVU31
 149 0052 0022     		movs	r2, #0
 150 0054 0021     		movs	r1, #0
 151 0056 1720     		movs	r0, #23
 152 0058 FFF7FEFF 		bl	HAL_NVIC_SetPriority
ARM GAS  C:\Users\xhex8\AppData\Local\Temp\cceXWYI3.s 			page 6


 153              	.LVL7:
 111:Core/Src/stm32l0xx_hal_msp.c ****   /* USER CODE BEGIN I2C1_MspInit 1 */
 154              		.loc 1 111 5 view .LVU32
 155 005c 1720     		movs	r0, #23
 156 005e FFF7FEFF 		bl	HAL_NVIC_EnableIRQ
 157              	.LVL8:
 158              		.loc 1 117 1 is_stmt 0 view .LVU33
 159 0062 D9E7     		b	.L4
 160              	.L8:
 161              		.align	2
 162              	.L7:
 163 0064 00540040 		.word	1073763328
 164 0068 00100240 		.word	1073876992
 165              		.cfi_endproc
 166              	.LFE41:
 168              		.section	.text.HAL_I2C_MspDeInit,"ax",%progbits
 169              		.align	1
 170              		.global	HAL_I2C_MspDeInit
 171              		.syntax unified
 172              		.code	16
 173              		.thumb_func
 175              	HAL_I2C_MspDeInit:
 176              	.LVL9:
 177              	.LFB42:
 118:Core/Src/stm32l0xx_hal_msp.c **** 
 119:Core/Src/stm32l0xx_hal_msp.c **** /**
 120:Core/Src/stm32l0xx_hal_msp.c **** * @brief I2C MSP De-Initialization
 121:Core/Src/stm32l0xx_hal_msp.c **** * This function freeze the hardware resources used in this example
 122:Core/Src/stm32l0xx_hal_msp.c **** * @param hi2c: I2C handle pointer
 123:Core/Src/stm32l0xx_hal_msp.c **** * @retval None
 124:Core/Src/stm32l0xx_hal_msp.c **** */
 125:Core/Src/stm32l0xx_hal_msp.c **** void HAL_I2C_MspDeInit(I2C_HandleTypeDef* hi2c)
 126:Core/Src/stm32l0xx_hal_msp.c **** {
 178              		.loc 1 126 1 is_stmt 1 view -0
 179              		.cfi_startproc
 180              		@ args = 0, pretend = 0, frame = 0
 181              		@ frame_needed = 0, uses_anonymous_args = 0
 182              		.loc 1 126 1 is_stmt 0 view .LVU35
 183 0000 10B5     		push	{r4, lr}
 184              		.cfi_def_cfa_offset 8
 185              		.cfi_offset 4, -8
 186              		.cfi_offset 14, -4
 127:Core/Src/stm32l0xx_hal_msp.c ****   if(hi2c->Instance==I2C1)
 187              		.loc 1 127 3 is_stmt 1 view .LVU36
 188              		.loc 1 127 10 is_stmt 0 view .LVU37
 189 0002 0268     		ldr	r2, [r0]
 190              		.loc 1 127 5 view .LVU38
 191 0004 0C4B     		ldr	r3, .L12
 192 0006 9A42     		cmp	r2, r3
 193 0008 00D0     		beq	.L11
 194              	.LVL10:
 195              	.L9:
 128:Core/Src/stm32l0xx_hal_msp.c ****   {
 129:Core/Src/stm32l0xx_hal_msp.c ****   /* USER CODE BEGIN I2C1_MspDeInit 0 */
 130:Core/Src/stm32l0xx_hal_msp.c **** 
 131:Core/Src/stm32l0xx_hal_msp.c ****   /* USER CODE END I2C1_MspDeInit 0 */
 132:Core/Src/stm32l0xx_hal_msp.c ****     /* Peripheral clock disable */
ARM GAS  C:\Users\xhex8\AppData\Local\Temp\cceXWYI3.s 			page 7


 133:Core/Src/stm32l0xx_hal_msp.c ****     __HAL_RCC_I2C1_CLK_DISABLE();
 134:Core/Src/stm32l0xx_hal_msp.c **** 
 135:Core/Src/stm32l0xx_hal_msp.c ****     /**I2C1 GPIO Configuration
 136:Core/Src/stm32l0xx_hal_msp.c ****     PA9     ------> I2C1_SCL
 137:Core/Src/stm32l0xx_hal_msp.c ****     PA10     ------> I2C1_SDA
 138:Core/Src/stm32l0xx_hal_msp.c ****     */
 139:Core/Src/stm32l0xx_hal_msp.c ****     HAL_GPIO_DeInit(GPIOA, GPIO_PIN_9);
 140:Core/Src/stm32l0xx_hal_msp.c **** 
 141:Core/Src/stm32l0xx_hal_msp.c ****     HAL_GPIO_DeInit(GPIOA, GPIO_PIN_10);
 142:Core/Src/stm32l0xx_hal_msp.c **** 
 143:Core/Src/stm32l0xx_hal_msp.c ****     /* I2C1 interrupt DeInit */
 144:Core/Src/stm32l0xx_hal_msp.c ****     HAL_NVIC_DisableIRQ(I2C1_IRQn);
 145:Core/Src/stm32l0xx_hal_msp.c ****   /* USER CODE BEGIN I2C1_MspDeInit 1 */
 146:Core/Src/stm32l0xx_hal_msp.c **** 
 147:Core/Src/stm32l0xx_hal_msp.c ****   /* USER CODE END I2C1_MspDeInit 1 */
 148:Core/Src/stm32l0xx_hal_msp.c ****   }
 149:Core/Src/stm32l0xx_hal_msp.c **** 
 150:Core/Src/stm32l0xx_hal_msp.c **** }
 196              		.loc 1 150 1 view .LVU39
 197              		@ sp needed
 198 000a 10BD     		pop	{r4, pc}
 199              	.LVL11:
 200              	.L11:
 133:Core/Src/stm32l0xx_hal_msp.c **** 
 201              		.loc 1 133 5 is_stmt 1 view .LVU40
 202 000c 0B4A     		ldr	r2, .L12+4
 203 000e 936B     		ldr	r3, [r2, #56]
 204 0010 0B49     		ldr	r1, .L12+8
 205 0012 0B40     		ands	r3, r1
 206 0014 9363     		str	r3, [r2, #56]
 139:Core/Src/stm32l0xx_hal_msp.c **** 
 207              		.loc 1 139 5 view .LVU41
 208 0016 8021     		movs	r1, #128
 209 0018 A024     		movs	r4, #160
 210 001a E405     		lsls	r4, r4, #23
 211 001c 8900     		lsls	r1, r1, #2
 212 001e 2000     		movs	r0, r4
 213              	.LVL12:
 139:Core/Src/stm32l0xx_hal_msp.c **** 
 214              		.loc 1 139 5 is_stmt 0 view .LVU42
 215 0020 FFF7FEFF 		bl	HAL_GPIO_DeInit
 216              	.LVL13:
 141:Core/Src/stm32l0xx_hal_msp.c **** 
 217              		.loc 1 141 5 is_stmt 1 view .LVU43
 218 0024 8021     		movs	r1, #128
 219 0026 C900     		lsls	r1, r1, #3
 220 0028 2000     		movs	r0, r4
 221 002a FFF7FEFF 		bl	HAL_GPIO_DeInit
 222              	.LVL14:
 144:Core/Src/stm32l0xx_hal_msp.c ****   /* USER CODE BEGIN I2C1_MspDeInit 1 */
 223              		.loc 1 144 5 view .LVU44
 224 002e 1720     		movs	r0, #23
 225 0030 FFF7FEFF 		bl	HAL_NVIC_DisableIRQ
 226              	.LVL15:
 227              		.loc 1 150 1 is_stmt 0 view .LVU45
 228 0034 E9E7     		b	.L9
 229              	.L13:
ARM GAS  C:\Users\xhex8\AppData\Local\Temp\cceXWYI3.s 			page 8


 230 0036 C046     		.align	2
 231              	.L12:
 232 0038 00540040 		.word	1073763328
 233 003c 00100240 		.word	1073876992
 234 0040 FFFFDFFF 		.word	-2097153
 235              		.cfi_endproc
 236              	.LFE42:
 238              		.section	.text.HAL_UART_MspInit,"ax",%progbits
 239              		.align	1
 240              		.global	HAL_UART_MspInit
 241              		.syntax unified
 242              		.code	16
 243              		.thumb_func
 245              	HAL_UART_MspInit:
 246              	.LVL16:
 247              	.LFB43:
 151:Core/Src/stm32l0xx_hal_msp.c **** 
 152:Core/Src/stm32l0xx_hal_msp.c **** /**
 153:Core/Src/stm32l0xx_hal_msp.c **** * @brief UART MSP Initialization
 154:Core/Src/stm32l0xx_hal_msp.c **** * This function configures the hardware resources used in this example
 155:Core/Src/stm32l0xx_hal_msp.c **** * @param huart: UART handle pointer
 156:Core/Src/stm32l0xx_hal_msp.c **** * @retval None
 157:Core/Src/stm32l0xx_hal_msp.c **** */
 158:Core/Src/stm32l0xx_hal_msp.c **** void HAL_UART_MspInit(UART_HandleTypeDef* huart)
 159:Core/Src/stm32l0xx_hal_msp.c **** {
 248              		.loc 1 159 1 is_stmt 1 view -0
 249              		.cfi_startproc
 250              		@ args = 0, pretend = 0, frame = 24
 251              		@ frame_needed = 0, uses_anonymous_args = 0
 252              		.loc 1 159 1 is_stmt 0 view .LVU47
 253 0000 10B5     		push	{r4, lr}
 254              		.cfi_def_cfa_offset 8
 255              		.cfi_offset 4, -8
 256              		.cfi_offset 14, -4
 257 0002 86B0     		sub	sp, sp, #24
 258              		.cfi_def_cfa_offset 32
 259 0004 0400     		movs	r4, r0
 160:Core/Src/stm32l0xx_hal_msp.c ****   GPIO_InitTypeDef GPIO_InitStruct = {0};
 260              		.loc 1 160 3 is_stmt 1 view .LVU48
 261              		.loc 1 160 20 is_stmt 0 view .LVU49
 262 0006 1422     		movs	r2, #20
 263 0008 0021     		movs	r1, #0
 264 000a 01A8     		add	r0, sp, #4
 265              	.LVL17:
 266              		.loc 1 160 20 view .LVU50
 267 000c FFF7FEFF 		bl	memset
 268              	.LVL18:
 161:Core/Src/stm32l0xx_hal_msp.c ****   if(huart->Instance==LPUART1)
 269              		.loc 1 161 3 is_stmt 1 view .LVU51
 270              		.loc 1 161 11 is_stmt 0 view .LVU52
 271 0010 2268     		ldr	r2, [r4]
 272              		.loc 1 161 5 view .LVU53
 273 0012 104B     		ldr	r3, .L17
 274 0014 9A42     		cmp	r2, r3
 275 0016 01D0     		beq	.L16
 276              	.L14:
 162:Core/Src/stm32l0xx_hal_msp.c ****   {
ARM GAS  C:\Users\xhex8\AppData\Local\Temp\cceXWYI3.s 			page 9


 163:Core/Src/stm32l0xx_hal_msp.c ****   /* USER CODE BEGIN LPUART1_MspInit 0 */
 164:Core/Src/stm32l0xx_hal_msp.c **** 
 165:Core/Src/stm32l0xx_hal_msp.c ****   /* USER CODE END LPUART1_MspInit 0 */
 166:Core/Src/stm32l0xx_hal_msp.c ****     /* Peripheral clock enable */
 167:Core/Src/stm32l0xx_hal_msp.c ****     __HAL_RCC_LPUART1_CLK_ENABLE();
 168:Core/Src/stm32l0xx_hal_msp.c **** 
 169:Core/Src/stm32l0xx_hal_msp.c ****     __HAL_RCC_GPIOA_CLK_ENABLE();
 170:Core/Src/stm32l0xx_hal_msp.c ****     /**LPUART1 GPIO Configuration
 171:Core/Src/stm32l0xx_hal_msp.c ****     PA2     ------> LPUART1_TX
 172:Core/Src/stm32l0xx_hal_msp.c ****     PA3     ------> LPUART1_RX
 173:Core/Src/stm32l0xx_hal_msp.c ****     */
 174:Core/Src/stm32l0xx_hal_msp.c ****     GPIO_InitStruct.Pin = GPIO_PIN_2|GPIO_PIN_3;
 175:Core/Src/stm32l0xx_hal_msp.c ****     GPIO_InitStruct.Mode = GPIO_MODE_AF_PP;
 176:Core/Src/stm32l0xx_hal_msp.c ****     GPIO_InitStruct.Pull = GPIO_NOPULL;
 177:Core/Src/stm32l0xx_hal_msp.c ****     GPIO_InitStruct.Speed = GPIO_SPEED_FREQ_VERY_HIGH;
 178:Core/Src/stm32l0xx_hal_msp.c ****     GPIO_InitStruct.Alternate = GPIO_AF6_LPUART1;
 179:Core/Src/stm32l0xx_hal_msp.c ****     HAL_GPIO_Init(GPIOA, &GPIO_InitStruct);
 180:Core/Src/stm32l0xx_hal_msp.c **** 
 181:Core/Src/stm32l0xx_hal_msp.c ****   /* USER CODE BEGIN LPUART1_MspInit 1 */
 182:Core/Src/stm32l0xx_hal_msp.c **** 
 183:Core/Src/stm32l0xx_hal_msp.c ****   /* USER CODE END LPUART1_MspInit 1 */
 184:Core/Src/stm32l0xx_hal_msp.c ****   }
 185:Core/Src/stm32l0xx_hal_msp.c **** 
 186:Core/Src/stm32l0xx_hal_msp.c **** }
 277              		.loc 1 186 1 view .LVU54
 278 0018 06B0     		add	sp, sp, #24
 279              		@ sp needed
 280              	.LVL19:
 281              		.loc 1 186 1 view .LVU55
 282 001a 10BD     		pop	{r4, pc}
 283              	.LVL20:
 284              	.L16:
 167:Core/Src/stm32l0xx_hal_msp.c **** 
 285              		.loc 1 167 5 is_stmt 1 view .LVU56
 286 001c 0E4B     		ldr	r3, .L17+4
 287 001e 996B     		ldr	r1, [r3, #56]
 288 0020 8022     		movs	r2, #128
 289 0022 D202     		lsls	r2, r2, #11
 290 0024 0A43     		orrs	r2, r1
 291 0026 9A63     		str	r2, [r3, #56]
 169:Core/Src/stm32l0xx_hal_msp.c ****     /**LPUART1 GPIO Configuration
 292              		.loc 1 169 5 view .LVU57
 293              	.LBB3:
 169:Core/Src/stm32l0xx_hal_msp.c ****     /**LPUART1 GPIO Configuration
 294              		.loc 1 169 5 view .LVU58
 169:Core/Src/stm32l0xx_hal_msp.c ****     /**LPUART1 GPIO Configuration
 295              		.loc 1 169 5 view .LVU59
 296 0028 D96A     		ldr	r1, [r3, #44]
 297 002a 0122     		movs	r2, #1
 298 002c 1143     		orrs	r1, r2
 299 002e D962     		str	r1, [r3, #44]
 169:Core/Src/stm32l0xx_hal_msp.c ****     /**LPUART1 GPIO Configuration
 300              		.loc 1 169 5 view .LVU60
 301 0030 DB6A     		ldr	r3, [r3, #44]
 302 0032 1A40     		ands	r2, r3
 303 0034 0092     		str	r2, [sp]
 169:Core/Src/stm32l0xx_hal_msp.c ****     /**LPUART1 GPIO Configuration
ARM GAS  C:\Users\xhex8\AppData\Local\Temp\cceXWYI3.s 			page 10


 304              		.loc 1 169 5 view .LVU61
 305 0036 009B     		ldr	r3, [sp]
 306              	.LBE3:
 169:Core/Src/stm32l0xx_hal_msp.c ****     /**LPUART1 GPIO Configuration
 307              		.loc 1 169 5 view .LVU62
 174:Core/Src/stm32l0xx_hal_msp.c ****     GPIO_InitStruct.Mode = GPIO_MODE_AF_PP;
 308              		.loc 1 174 5 view .LVU63
 174:Core/Src/stm32l0xx_hal_msp.c ****     GPIO_InitStruct.Mode = GPIO_MODE_AF_PP;
 309              		.loc 1 174 25 is_stmt 0 view .LVU64
 310 0038 0C23     		movs	r3, #12
 311 003a 0193     		str	r3, [sp, #4]
 175:Core/Src/stm32l0xx_hal_msp.c ****     GPIO_InitStruct.Pull = GPIO_NOPULL;
 312              		.loc 1 175 5 is_stmt 1 view .LVU65
 175:Core/Src/stm32l0xx_hal_msp.c ****     GPIO_InitStruct.Pull = GPIO_NOPULL;
 313              		.loc 1 175 26 is_stmt 0 view .LVU66
 314 003c 0A3B     		subs	r3, r3, #10
 315 003e 0293     		str	r3, [sp, #8]
 176:Core/Src/stm32l0xx_hal_msp.c ****     GPIO_InitStruct.Speed = GPIO_SPEED_FREQ_VERY_HIGH;
 316              		.loc 1 176 5 is_stmt 1 view .LVU67
 177:Core/Src/stm32l0xx_hal_msp.c ****     GPIO_InitStruct.Alternate = GPIO_AF6_LPUART1;
 317              		.loc 1 177 5 view .LVU68
 177:Core/Src/stm32l0xx_hal_msp.c ****     GPIO_InitStruct.Alternate = GPIO_AF6_LPUART1;
 318              		.loc 1 177 27 is_stmt 0 view .LVU69
 319 0040 0133     		adds	r3, r3, #1
 320 0042 0493     		str	r3, [sp, #16]
 178:Core/Src/stm32l0xx_hal_msp.c ****     HAL_GPIO_Init(GPIOA, &GPIO_InitStruct);
 321              		.loc 1 178 5 is_stmt 1 view .LVU70
 178:Core/Src/stm32l0xx_hal_msp.c ****     HAL_GPIO_Init(GPIOA, &GPIO_InitStruct);
 322              		.loc 1 178 31 is_stmt 0 view .LVU71
 323 0044 0333     		adds	r3, r3, #3
 324 0046 0593     		str	r3, [sp, #20]
 179:Core/Src/stm32l0xx_hal_msp.c **** 
 325              		.loc 1 179 5 is_stmt 1 view .LVU72
 326 0048 A020     		movs	r0, #160
 327 004a 01A9     		add	r1, sp, #4
 328 004c C005     		lsls	r0, r0, #23
 329 004e FFF7FEFF 		bl	HAL_GPIO_Init
 330              	.LVL21:
 331              		.loc 1 186 1 is_stmt 0 view .LVU73
 332 0052 E1E7     		b	.L14
 333              	.L18:
 334              		.align	2
 335              	.L17:
 336 0054 00480040 		.word	1073760256
 337 0058 00100240 		.word	1073876992
 338              		.cfi_endproc
 339              	.LFE43:
 341              		.section	.text.HAL_UART_MspDeInit,"ax",%progbits
 342              		.align	1
 343              		.global	HAL_UART_MspDeInit
 344              		.syntax unified
 345              		.code	16
 346              		.thumb_func
 348              	HAL_UART_MspDeInit:
 349              	.LVL22:
 350              	.LFB44:
 187:Core/Src/stm32l0xx_hal_msp.c **** 
ARM GAS  C:\Users\xhex8\AppData\Local\Temp\cceXWYI3.s 			page 11


 188:Core/Src/stm32l0xx_hal_msp.c **** /**
 189:Core/Src/stm32l0xx_hal_msp.c **** * @brief UART MSP De-Initialization
 190:Core/Src/stm32l0xx_hal_msp.c **** * This function freeze the hardware resources used in this example
 191:Core/Src/stm32l0xx_hal_msp.c **** * @param huart: UART handle pointer
 192:Core/Src/stm32l0xx_hal_msp.c **** * @retval None
 193:Core/Src/stm32l0xx_hal_msp.c **** */
 194:Core/Src/stm32l0xx_hal_msp.c **** void HAL_UART_MspDeInit(UART_HandleTypeDef* huart)
 195:Core/Src/stm32l0xx_hal_msp.c **** {
 351              		.loc 1 195 1 is_stmt 1 view -0
 352              		.cfi_startproc
 353              		@ args = 0, pretend = 0, frame = 0
 354              		@ frame_needed = 0, uses_anonymous_args = 0
 355              		.loc 1 195 1 is_stmt 0 view .LVU75
 356 0000 10B5     		push	{r4, lr}
 357              		.cfi_def_cfa_offset 8
 358              		.cfi_offset 4, -8
 359              		.cfi_offset 14, -4
 196:Core/Src/stm32l0xx_hal_msp.c ****   if(huart->Instance==LPUART1)
 360              		.loc 1 196 3 is_stmt 1 view .LVU76
 361              		.loc 1 196 11 is_stmt 0 view .LVU77
 362 0002 0268     		ldr	r2, [r0]
 363              		.loc 1 196 5 view .LVU78
 364 0004 074B     		ldr	r3, .L22
 365 0006 9A42     		cmp	r2, r3
 366 0008 00D0     		beq	.L21
 367              	.LVL23:
 368              	.L19:
 197:Core/Src/stm32l0xx_hal_msp.c ****   {
 198:Core/Src/stm32l0xx_hal_msp.c ****   /* USER CODE BEGIN LPUART1_MspDeInit 0 */
 199:Core/Src/stm32l0xx_hal_msp.c **** 
 200:Core/Src/stm32l0xx_hal_msp.c ****   /* USER CODE END LPUART1_MspDeInit 0 */
 201:Core/Src/stm32l0xx_hal_msp.c ****     /* Peripheral clock disable */
 202:Core/Src/stm32l0xx_hal_msp.c ****     __HAL_RCC_LPUART1_CLK_DISABLE();
 203:Core/Src/stm32l0xx_hal_msp.c **** 
 204:Core/Src/stm32l0xx_hal_msp.c ****     /**LPUART1 GPIO Configuration
 205:Core/Src/stm32l0xx_hal_msp.c ****     PA2     ------> LPUART1_TX
 206:Core/Src/stm32l0xx_hal_msp.c ****     PA3     ------> LPUART1_RX
 207:Core/Src/stm32l0xx_hal_msp.c ****     */
 208:Core/Src/stm32l0xx_hal_msp.c ****     HAL_GPIO_DeInit(GPIOA, GPIO_PIN_2|GPIO_PIN_3);
 209:Core/Src/stm32l0xx_hal_msp.c **** 
 210:Core/Src/stm32l0xx_hal_msp.c ****   /* USER CODE BEGIN LPUART1_MspDeInit 1 */
 211:Core/Src/stm32l0xx_hal_msp.c **** 
 212:Core/Src/stm32l0xx_hal_msp.c ****   /* USER CODE END LPUART1_MspDeInit 1 */
 213:Core/Src/stm32l0xx_hal_msp.c ****   }
 214:Core/Src/stm32l0xx_hal_msp.c **** 
 215:Core/Src/stm32l0xx_hal_msp.c **** }
 369              		.loc 1 215 1 view .LVU79
 370              		@ sp needed
 371 000a 10BD     		pop	{r4, pc}
 372              	.LVL24:
 373              	.L21:
 202:Core/Src/stm32l0xx_hal_msp.c **** 
 374              		.loc 1 202 5 is_stmt 1 view .LVU80
 375 000c 064A     		ldr	r2, .L22+4
 376 000e 936B     		ldr	r3, [r2, #56]
 377 0010 0649     		ldr	r1, .L22+8
 378 0012 0B40     		ands	r3, r1
ARM GAS  C:\Users\xhex8\AppData\Local\Temp\cceXWYI3.s 			page 12


 379 0014 9363     		str	r3, [r2, #56]
 208:Core/Src/stm32l0xx_hal_msp.c **** 
 380              		.loc 1 208 5 view .LVU81
 381 0016 A020     		movs	r0, #160
 382              	.LVL25:
 208:Core/Src/stm32l0xx_hal_msp.c **** 
 383              		.loc 1 208 5 is_stmt 0 view .LVU82
 384 0018 0C21     		movs	r1, #12
 385 001a C005     		lsls	r0, r0, #23
 386 001c FFF7FEFF 		bl	HAL_GPIO_DeInit
 387              	.LVL26:
 388              		.loc 1 215 1 view .LVU83
 389 0020 F3E7     		b	.L19
 390              	.L23:
 391 0022 C046     		.align	2
 392              	.L22:
 393 0024 00480040 		.word	1073760256
 394 0028 00100240 		.word	1073876992
 395 002c FFFFFBFF 		.word	-262145
 396              		.cfi_endproc
 397              	.LFE44:
 399              		.text
 400              	.Letext0:
 401              		.file 2 "Drivers/CMSIS/Device/ST/STM32L0xx/Include/stm32l031xx.h"
 402              		.file 3 "c:\\users\\xhex8\\appdata\\roaming\\code\\user\\globalstorage\\bmd.stm32-for-vscode\\@xpa
 403              		.file 4 "c:\\users\\xhex8\\appdata\\roaming\\code\\user\\globalstorage\\bmd.stm32-for-vscode\\@xpa
 404              		.file 5 "Drivers/STM32L0xx_HAL_Driver/Inc/stm32l0xx_hal_def.h"
 405              		.file 6 "Drivers/STM32L0xx_HAL_Driver/Inc/stm32l0xx_hal_gpio.h"
 406              		.file 7 "Drivers/STM32L0xx_HAL_Driver/Inc/stm32l0xx_hal_dma.h"
 407              		.file 8 "Drivers/STM32L0xx_HAL_Driver/Inc/stm32l0xx_hal_i2c.h"
 408              		.file 9 "Drivers/STM32L0xx_HAL_Driver/Inc/stm32l0xx_hal_uart.h"
 409              		.file 10 "Drivers/STM32L0xx_HAL_Driver/Inc/stm32l0xx_hal_cortex.h"
 410              		.file 11 "<built-in>"
ARM GAS  C:\Users\xhex8\AppData\Local\Temp\cceXWYI3.s 			page 13

