ARM GAS  C:\Users\sapph\AppData\Local\Temp\cc1fiECZ.s 			page 1


   1              		.cpu cortex-m33
   2              		.arch armv8-m.main
   3              		.fpu fpv4-sp-d16
   4              		.arch_extension dsp
   5              		.eabi_attribute 27, 1
   6              		.eabi_attribute 28, 1
   7              		.eabi_attribute 20, 1
   8              		.eabi_attribute 21, 1
   9              		.eabi_attribute 23, 3
  10              		.eabi_attribute 24, 1
  11              		.eabi_attribute 25, 1
  12              		.eabi_attribute 26, 1
  13              		.eabi_attribute 30, 1
  14              		.eabi_attribute 34, 1
  15              		.eabi_attribute 18, 4
  16              		.file	"usbd_composite_builder.c"
  17              		.text
  18              	.Ltext0:
  19              		.cfi_sections	.debug_frame
  20              		.file 1 "USB/Class/CompositeBuilder/Src/usbd_composite_builder.c"
  21              		.section	.text.USBD_CMPSIT_GetFSCfgDesc,"ax",%progbits
  22              		.align	1
  23              		.global	USBD_CMPSIT_GetFSCfgDesc
  24              		.syntax unified
  25              		.thumb
  26              		.thumb_func
  28              	USBD_CMPSIT_GetFSCfgDesc:
  29              	.LVL0:
  30              	.LFB166:
   1:USB/Class/CompositeBuilder/Src/usbd_composite_builder.c **** /**
   2:USB/Class/CompositeBuilder/Src/usbd_composite_builder.c ****   ******************************************************************************
   3:USB/Class/CompositeBuilder/Src/usbd_composite_builder.c ****   * @file    usbd_composite_builder.c
   4:USB/Class/CompositeBuilder/Src/usbd_composite_builder.c ****   * @author  MCD Application Team
   5:USB/Class/CompositeBuilder/Src/usbd_composite_builder.c ****   * @brief   This file provides all the composite builder functions.
   6:USB/Class/CompositeBuilder/Src/usbd_composite_builder.c ****   ******************************************************************************
   7:USB/Class/CompositeBuilder/Src/usbd_composite_builder.c ****   * @attention
   8:USB/Class/CompositeBuilder/Src/usbd_composite_builder.c ****   *
   9:USB/Class/CompositeBuilder/Src/usbd_composite_builder.c ****   * Copyright (c) 2021 STMicroelectronics.
  10:USB/Class/CompositeBuilder/Src/usbd_composite_builder.c ****   * All rights reserved.
  11:USB/Class/CompositeBuilder/Src/usbd_composite_builder.c ****   *
  12:USB/Class/CompositeBuilder/Src/usbd_composite_builder.c ****   * This software is licensed under terms that can be found in the LICENSE file
  13:USB/Class/CompositeBuilder/Src/usbd_composite_builder.c ****   * in the root directory of this software component.
  14:USB/Class/CompositeBuilder/Src/usbd_composite_builder.c ****   * If no LICENSE file comes with this software, it is provided AS-IS.
  15:USB/Class/CompositeBuilder/Src/usbd_composite_builder.c ****   *
  16:USB/Class/CompositeBuilder/Src/usbd_composite_builder.c ****   ******************************************************************************
  17:USB/Class/CompositeBuilder/Src/usbd_composite_builder.c ****   * @verbatim
  18:USB/Class/CompositeBuilder/Src/usbd_composite_builder.c ****   *
  19:USB/Class/CompositeBuilder/Src/usbd_composite_builder.c ****   *          ===================================================================
  20:USB/Class/CompositeBuilder/Src/usbd_composite_builder.c ****   *                                Composite Builder  Description
  21:USB/Class/CompositeBuilder/Src/usbd_composite_builder.c ****   *          ===================================================================
  22:USB/Class/CompositeBuilder/Src/usbd_composite_builder.c ****   *
  23:USB/Class/CompositeBuilder/Src/usbd_composite_builder.c ****   *           The composite builder builds the configuration descriptors based on
  24:USB/Class/CompositeBuilder/Src/usbd_composite_builder.c ****   *           the selection of classes by user.
  25:USB/Class/CompositeBuilder/Src/usbd_composite_builder.c ****   *           It includes all USB Device classes in order to instantiate their
  26:USB/Class/CompositeBuilder/Src/usbd_composite_builder.c ****   *           descriptors, but for better management, it is possible to optimize
  27:USB/Class/CompositeBuilder/Src/usbd_composite_builder.c ****   *           footprint by removing unused classes. It is possible to do so by
  28:USB/Class/CompositeBuilder/Src/usbd_composite_builder.c ****   *           commenting the relative define in usbd_conf.h.
ARM GAS  C:\Users\sapph\AppData\Local\Temp\cc1fiECZ.s 			page 2


  29:USB/Class/CompositeBuilder/Src/usbd_composite_builder.c ****   *
  30:USB/Class/CompositeBuilder/Src/usbd_composite_builder.c ****   *  @endverbatim
  31:USB/Class/CompositeBuilder/Src/usbd_composite_builder.c ****   *
  32:USB/Class/CompositeBuilder/Src/usbd_composite_builder.c ****   ******************************************************************************
  33:USB/Class/CompositeBuilder/Src/usbd_composite_builder.c ****   */
  34:USB/Class/CompositeBuilder/Src/usbd_composite_builder.c **** 
  35:USB/Class/CompositeBuilder/Src/usbd_composite_builder.c **** /* BSPDependencies
  36:USB/Class/CompositeBuilder/Src/usbd_composite_builder.c **** - None
  37:USB/Class/CompositeBuilder/Src/usbd_composite_builder.c **** EndBSPDependencies */
  38:USB/Class/CompositeBuilder/Src/usbd_composite_builder.c **** 
  39:USB/Class/CompositeBuilder/Src/usbd_composite_builder.c **** /* Includes ------------------------------------------------------------------*/
  40:USB/Class/CompositeBuilder/Src/usbd_composite_builder.c **** #include "usbd_composite_builder.h"
  41:USB/Class/CompositeBuilder/Src/usbd_composite_builder.c **** 
  42:USB/Class/CompositeBuilder/Src/usbd_composite_builder.c **** #ifdef USE_USBD_COMPOSITE
  43:USB/Class/CompositeBuilder/Src/usbd_composite_builder.c **** 
  44:USB/Class/CompositeBuilder/Src/usbd_composite_builder.c **** /** @addtogroup STM32_USB_DEVICE_LIBRARY
  45:USB/Class/CompositeBuilder/Src/usbd_composite_builder.c ****   * @{
  46:USB/Class/CompositeBuilder/Src/usbd_composite_builder.c ****   */
  47:USB/Class/CompositeBuilder/Src/usbd_composite_builder.c **** 
  48:USB/Class/CompositeBuilder/Src/usbd_composite_builder.c **** 
  49:USB/Class/CompositeBuilder/Src/usbd_composite_builder.c **** /** @defgroup CMPSIT_CORE
  50:USB/Class/CompositeBuilder/Src/usbd_composite_builder.c ****   * @brief Mass storage core module
  51:USB/Class/CompositeBuilder/Src/usbd_composite_builder.c ****   * @{
  52:USB/Class/CompositeBuilder/Src/usbd_composite_builder.c ****   */
  53:USB/Class/CompositeBuilder/Src/usbd_composite_builder.c **** 
  54:USB/Class/CompositeBuilder/Src/usbd_composite_builder.c **** /** @defgroup CMPSIT_CORE_Private_TypesDefinitions
  55:USB/Class/CompositeBuilder/Src/usbd_composite_builder.c ****   * @{
  56:USB/Class/CompositeBuilder/Src/usbd_composite_builder.c ****   */
  57:USB/Class/CompositeBuilder/Src/usbd_composite_builder.c **** /**
  58:USB/Class/CompositeBuilder/Src/usbd_composite_builder.c ****   * @}
  59:USB/Class/CompositeBuilder/Src/usbd_composite_builder.c ****   */
  60:USB/Class/CompositeBuilder/Src/usbd_composite_builder.c **** 
  61:USB/Class/CompositeBuilder/Src/usbd_composite_builder.c **** 
  62:USB/Class/CompositeBuilder/Src/usbd_composite_builder.c **** /** @defgroup CMPSIT_CORE_Private_Defines
  63:USB/Class/CompositeBuilder/Src/usbd_composite_builder.c ****   * @{
  64:USB/Class/CompositeBuilder/Src/usbd_composite_builder.c ****   */
  65:USB/Class/CompositeBuilder/Src/usbd_composite_builder.c **** 
  66:USB/Class/CompositeBuilder/Src/usbd_composite_builder.c **** /**
  67:USB/Class/CompositeBuilder/Src/usbd_composite_builder.c ****   * @}
  68:USB/Class/CompositeBuilder/Src/usbd_composite_builder.c ****   */
  69:USB/Class/CompositeBuilder/Src/usbd_composite_builder.c **** 
  70:USB/Class/CompositeBuilder/Src/usbd_composite_builder.c **** 
  71:USB/Class/CompositeBuilder/Src/usbd_composite_builder.c **** /** @defgroup CMPSIT_CORE_Private_Macros
  72:USB/Class/CompositeBuilder/Src/usbd_composite_builder.c ****   * @{
  73:USB/Class/CompositeBuilder/Src/usbd_composite_builder.c ****   */
  74:USB/Class/CompositeBuilder/Src/usbd_composite_builder.c **** /**
  75:USB/Class/CompositeBuilder/Src/usbd_composite_builder.c ****   * @}
  76:USB/Class/CompositeBuilder/Src/usbd_composite_builder.c ****   */
  77:USB/Class/CompositeBuilder/Src/usbd_composite_builder.c **** 
  78:USB/Class/CompositeBuilder/Src/usbd_composite_builder.c **** 
  79:USB/Class/CompositeBuilder/Src/usbd_composite_builder.c **** /** @defgroup CMPSIT_CORE_Private_FunctionPrototypes
  80:USB/Class/CompositeBuilder/Src/usbd_composite_builder.c ****   * @{
  81:USB/Class/CompositeBuilder/Src/usbd_composite_builder.c ****   */
  82:USB/Class/CompositeBuilder/Src/usbd_composite_builder.c **** /* uint8_t  USBD_CMPSIT_Init (USBD_HandleTypeDef *pdev,
  83:USB/Class/CompositeBuilder/Src/usbd_composite_builder.c ****                             uint8_t cfgidx); */ /* Function not used for the moment */
  84:USB/Class/CompositeBuilder/Src/usbd_composite_builder.c **** 
  85:USB/Class/CompositeBuilder/Src/usbd_composite_builder.c **** /* uint8_t  USBD_CMPSIT_DeInit (USBD_HandleTypeDef *pdev,
ARM GAS  C:\Users\sapph\AppData\Local\Temp\cc1fiECZ.s 			page 3


  86:USB/Class/CompositeBuilder/Src/usbd_composite_builder.c ****                               uint8_t cfgidx); */ /* Function not used for the moment */
  87:USB/Class/CompositeBuilder/Src/usbd_composite_builder.c **** 
  88:USB/Class/CompositeBuilder/Src/usbd_composite_builder.c **** uint8_t  *USBD_CMPSIT_GetFSCfgDesc(uint16_t *length);
  89:USB/Class/CompositeBuilder/Src/usbd_composite_builder.c **** #ifdef USE_USB_HS
  90:USB/Class/CompositeBuilder/Src/usbd_composite_builder.c **** uint8_t  *USBD_CMPSIT_GetHSCfgDesc(uint16_t *length);
  91:USB/Class/CompositeBuilder/Src/usbd_composite_builder.c **** #endif /* USE_USB_HS */
  92:USB/Class/CompositeBuilder/Src/usbd_composite_builder.c **** 
  93:USB/Class/CompositeBuilder/Src/usbd_composite_builder.c **** uint8_t  *USBD_CMPSIT_GetOtherSpeedCfgDesc(uint16_t *length);
  94:USB/Class/CompositeBuilder/Src/usbd_composite_builder.c **** 
  95:USB/Class/CompositeBuilder/Src/usbd_composite_builder.c **** uint8_t  *USBD_CMPSIT_GetDeviceQualifierDescriptor(uint16_t *length);
  96:USB/Class/CompositeBuilder/Src/usbd_composite_builder.c **** 
  97:USB/Class/CompositeBuilder/Src/usbd_composite_builder.c **** static uint8_t USBD_CMPSIT_FindFreeIFNbr(USBD_HandleTypeDef *pdev);
  98:USB/Class/CompositeBuilder/Src/usbd_composite_builder.c **** 
  99:USB/Class/CompositeBuilder/Src/usbd_composite_builder.c **** static void  USBD_CMPSIT_AddConfDesc(uint32_t Conf, __IO uint32_t *pSze);
 100:USB/Class/CompositeBuilder/Src/usbd_composite_builder.c **** 
 101:USB/Class/CompositeBuilder/Src/usbd_composite_builder.c **** static void  USBD_CMPSIT_AssignEp(USBD_HandleTypeDef *pdev, uint8_t Add, uint8_t Type, uint32_t Sze
 102:USB/Class/CompositeBuilder/Src/usbd_composite_builder.c **** 
 103:USB/Class/CompositeBuilder/Src/usbd_composite_builder.c **** 
 104:USB/Class/CompositeBuilder/Src/usbd_composite_builder.c **** #if USBD_CMPSIT_ACTIVATE_HID == 1U
 105:USB/Class/CompositeBuilder/Src/usbd_composite_builder.c **** static void  USBD_CMPSIT_HIDMouseDesc(USBD_HandleTypeDef *pdev, uint32_t pConf, __IO uint32_t *Sze,
 106:USB/Class/CompositeBuilder/Src/usbd_composite_builder.c **** #endif /* USBD_CMPSIT_ACTIVATE_HID == 1U */
 107:USB/Class/CompositeBuilder/Src/usbd_composite_builder.c **** 
 108:USB/Class/CompositeBuilder/Src/usbd_composite_builder.c **** #if USBD_CMPSIT_ACTIVATE_MSC == 1U
 109:USB/Class/CompositeBuilder/Src/usbd_composite_builder.c **** static void  USBD_CMPSIT_MSCDesc(USBD_HandleTypeDef *pdev, uint32_t pConf, __IO uint32_t *Sze, uint
 110:USB/Class/CompositeBuilder/Src/usbd_composite_builder.c **** #endif /* USBD_CMPSIT_ACTIVATE_MSC == 1U */
 111:USB/Class/CompositeBuilder/Src/usbd_composite_builder.c **** 
 112:USB/Class/CompositeBuilder/Src/usbd_composite_builder.c **** #if USBD_CMPSIT_ACTIVATE_CDC == 1U
 113:USB/Class/CompositeBuilder/Src/usbd_composite_builder.c **** static void  USBD_CMPSIT_CDCDesc(USBD_HandleTypeDef *pdev, uint32_t pConf, __IO uint32_t *Sze, uint
 114:USB/Class/CompositeBuilder/Src/usbd_composite_builder.c **** #endif /* USBD_CMPSIT_ACTIVATE_CDC == 1U */
 115:USB/Class/CompositeBuilder/Src/usbd_composite_builder.c **** 
 116:USB/Class/CompositeBuilder/Src/usbd_composite_builder.c **** #if USBD_CMPSIT_ACTIVATE_DFU == 1U
 117:USB/Class/CompositeBuilder/Src/usbd_composite_builder.c **** static void  USBD_CMPSIT_DFUDesc(USBD_HandleTypeDef *pdev, uint32_t pConf, __IO uint32_t *Sze, uint
 118:USB/Class/CompositeBuilder/Src/usbd_composite_builder.c **** #endif /* USBD_CMPSIT_ACTIVATE_DFU == 1U */
 119:USB/Class/CompositeBuilder/Src/usbd_composite_builder.c **** 
 120:USB/Class/CompositeBuilder/Src/usbd_composite_builder.c **** #if USBD_CMPSIT_ACTIVATE_RNDIS == 1U
 121:USB/Class/CompositeBuilder/Src/usbd_composite_builder.c **** static void  USBD_CMPSIT_RNDISDesc(USBD_HandleTypeDef *pdev, uint32_t pConf, __IO uint32_t *Sze, ui
 122:USB/Class/CompositeBuilder/Src/usbd_composite_builder.c **** #endif /* USBD_CMPSIT_ACTIVATE_RNDIS == 1U */
 123:USB/Class/CompositeBuilder/Src/usbd_composite_builder.c **** 
 124:USB/Class/CompositeBuilder/Src/usbd_composite_builder.c **** #if USBD_CMPSIT_ACTIVATE_CDC_ECM == 1U
 125:USB/Class/CompositeBuilder/Src/usbd_composite_builder.c **** static void  USBD_CMPSIT_CDC_ECMDesc(USBD_HandleTypeDef *pdev, uint32_t pConf, __IO uint32_t *Sze, 
 126:USB/Class/CompositeBuilder/Src/usbd_composite_builder.c **** #endif /* USBD_CMPSIT_ACTIVATE_CDC_ECM == 1U */
 127:USB/Class/CompositeBuilder/Src/usbd_composite_builder.c **** 
 128:USB/Class/CompositeBuilder/Src/usbd_composite_builder.c **** #if USBD_CMPSIT_ACTIVATE_AUDIO == 1U
 129:USB/Class/CompositeBuilder/Src/usbd_composite_builder.c **** static void  USBD_CMPSIT_AUDIODesc(USBD_HandleTypeDef *pdev, uint32_t pConf, __IO uint32_t *Sze, ui
 130:USB/Class/CompositeBuilder/Src/usbd_composite_builder.c **** #endif /* USBD_CMPSIT_ACTIVATE_AUDIO == 1U */
 131:USB/Class/CompositeBuilder/Src/usbd_composite_builder.c **** 
 132:USB/Class/CompositeBuilder/Src/usbd_composite_builder.c **** #if USBD_CMPSIT_ACTIVATE_CUSTOMHID == 1
 133:USB/Class/CompositeBuilder/Src/usbd_composite_builder.c **** static void  USBD_CMPSIT_CUSTOMHIDDesc(USBD_HandleTypeDef *pdev, uint32_t pConf, __IO uint32_t *Sze
 134:USB/Class/CompositeBuilder/Src/usbd_composite_builder.c **** #endif /* USBD_CMPSIT_ACTIVATE_CUSTOMHID == 1U */
 135:USB/Class/CompositeBuilder/Src/usbd_composite_builder.c **** 
 136:USB/Class/CompositeBuilder/Src/usbd_composite_builder.c **** #if USBD_CMPSIT_ACTIVATE_VIDEO == 1U
 137:USB/Class/CompositeBuilder/Src/usbd_composite_builder.c **** static void  USBD_CMPSIT_VIDEODesc(USBD_HandleTypeDef *pdev, uint32_t pConf, __IO uint32_t *Sze, ui
 138:USB/Class/CompositeBuilder/Src/usbd_composite_builder.c **** #endif /* USBD_CMPSIT_ACTIVATE_VIDEO == 1U */
 139:USB/Class/CompositeBuilder/Src/usbd_composite_builder.c **** 
 140:USB/Class/CompositeBuilder/Src/usbd_composite_builder.c **** #if USBD_CMPSIT_ACTIVATE_PRINTER == 1U
 141:USB/Class/CompositeBuilder/Src/usbd_composite_builder.c **** static void  USBD_CMPSIT_PRNTDesc(USBD_HandleTypeDef *pdev, uint32_t pConf, __IO uint32_t *Sze, uin
 142:USB/Class/CompositeBuilder/Src/usbd_composite_builder.c **** #endif /* USBD_CMPSIT_ACTIVATE_PRINTER == 1U */
ARM GAS  C:\Users\sapph\AppData\Local\Temp\cc1fiECZ.s 			page 4


 143:USB/Class/CompositeBuilder/Src/usbd_composite_builder.c **** 
 144:USB/Class/CompositeBuilder/Src/usbd_composite_builder.c **** #if USBD_CMPSIT_ACTIVATE_CCID == 1U
 145:USB/Class/CompositeBuilder/Src/usbd_composite_builder.c **** static void  USBD_CMPSIT_CCIDDesc(USBD_HandleTypeDef *pdev, uint32_t pConf, __IO uint32_t *Sze, uin
 146:USB/Class/CompositeBuilder/Src/usbd_composite_builder.c **** #endif /* USBD_CMPSIT_ACTIVATE_CCID == 1U */
 147:USB/Class/CompositeBuilder/Src/usbd_composite_builder.c **** 
 148:USB/Class/CompositeBuilder/Src/usbd_composite_builder.c **** #if USBD_CMPSIT_ACTIVATE_MTP == 1U
 149:USB/Class/CompositeBuilder/Src/usbd_composite_builder.c **** static void  USBD_CMPSIT_MTPDesc(USBD_HandleTypeDef *pdev, uint32_t pConf, __IO uint32_t *Sze, uint
 150:USB/Class/CompositeBuilder/Src/usbd_composite_builder.c **** #endif /* USBD_CMPSIT_ACTIVATE_MTP == 1U */
 151:USB/Class/CompositeBuilder/Src/usbd_composite_builder.c **** 
 152:USB/Class/CompositeBuilder/Src/usbd_composite_builder.c **** /**
 153:USB/Class/CompositeBuilder/Src/usbd_composite_builder.c ****   * @}
 154:USB/Class/CompositeBuilder/Src/usbd_composite_builder.c ****   */
 155:USB/Class/CompositeBuilder/Src/usbd_composite_builder.c **** 
 156:USB/Class/CompositeBuilder/Src/usbd_composite_builder.c **** 
 157:USB/Class/CompositeBuilder/Src/usbd_composite_builder.c **** /** @defgroup CMPSIT_CORE_Private_Variables
 158:USB/Class/CompositeBuilder/Src/usbd_composite_builder.c ****   * @{
 159:USB/Class/CompositeBuilder/Src/usbd_composite_builder.c ****   */
 160:USB/Class/CompositeBuilder/Src/usbd_composite_builder.c **** /* This structure is used only for the Configuration descriptors and Device Qualifier */
 161:USB/Class/CompositeBuilder/Src/usbd_composite_builder.c **** USBD_ClassTypeDef  USBD_CMPSIT =
 162:USB/Class/CompositeBuilder/Src/usbd_composite_builder.c **** {
 163:USB/Class/CompositeBuilder/Src/usbd_composite_builder.c ****   NULL, /* Init, */
 164:USB/Class/CompositeBuilder/Src/usbd_composite_builder.c ****   NULL, /* DeInit, */
 165:USB/Class/CompositeBuilder/Src/usbd_composite_builder.c ****   NULL, /* Setup, */
 166:USB/Class/CompositeBuilder/Src/usbd_composite_builder.c ****   NULL, /* EP0_TxSent, */
 167:USB/Class/CompositeBuilder/Src/usbd_composite_builder.c ****   NULL, /* EP0_RxReady, */
 168:USB/Class/CompositeBuilder/Src/usbd_composite_builder.c ****   NULL, /* DataIn, */
 169:USB/Class/CompositeBuilder/Src/usbd_composite_builder.c ****   NULL, /* DataOut, */
 170:USB/Class/CompositeBuilder/Src/usbd_composite_builder.c ****   NULL, /* SOF,  */
 171:USB/Class/CompositeBuilder/Src/usbd_composite_builder.c ****   NULL,
 172:USB/Class/CompositeBuilder/Src/usbd_composite_builder.c ****   NULL,
 173:USB/Class/CompositeBuilder/Src/usbd_composite_builder.c **** #ifdef USE_USB_HS
 174:USB/Class/CompositeBuilder/Src/usbd_composite_builder.c ****   USBD_CMPSIT_GetHSCfgDesc,
 175:USB/Class/CompositeBuilder/Src/usbd_composite_builder.c **** #else
 176:USB/Class/CompositeBuilder/Src/usbd_composite_builder.c ****   NULL,
 177:USB/Class/CompositeBuilder/Src/usbd_composite_builder.c **** #endif /* USE_USB_HS */
 178:USB/Class/CompositeBuilder/Src/usbd_composite_builder.c ****   USBD_CMPSIT_GetFSCfgDesc,
 179:USB/Class/CompositeBuilder/Src/usbd_composite_builder.c ****   USBD_CMPSIT_GetOtherSpeedCfgDesc,
 180:USB/Class/CompositeBuilder/Src/usbd_composite_builder.c ****   USBD_CMPSIT_GetDeviceQualifierDescriptor,
 181:USB/Class/CompositeBuilder/Src/usbd_composite_builder.c **** #if (USBD_SUPPORT_USER_STRING_DESC == 1U)
 182:USB/Class/CompositeBuilder/Src/usbd_composite_builder.c ****   NULL,
 183:USB/Class/CompositeBuilder/Src/usbd_composite_builder.c **** #endif /* USBD_SUPPORT_USER_STRING_DESC */
 184:USB/Class/CompositeBuilder/Src/usbd_composite_builder.c **** };
 185:USB/Class/CompositeBuilder/Src/usbd_composite_builder.c **** 
 186:USB/Class/CompositeBuilder/Src/usbd_composite_builder.c **** /* The generic configuration descriptor buffer that will be filled by builder
 187:USB/Class/CompositeBuilder/Src/usbd_composite_builder.c ****    Size of the buffer is the maximum possible configuration descriptor size. */
 188:USB/Class/CompositeBuilder/Src/usbd_composite_builder.c **** __ALIGN_BEGIN static uint8_t USBD_CMPSIT_FSCfgDesc[USBD_CMPST_MAX_CONFDESC_SZ]  __ALIGN_END = {0};
 189:USB/Class/CompositeBuilder/Src/usbd_composite_builder.c **** static uint8_t *pCmpstFSConfDesc = USBD_CMPSIT_FSCfgDesc;
 190:USB/Class/CompositeBuilder/Src/usbd_composite_builder.c **** /* Variable that dynamically holds the current size of the configuration descriptor */
 191:USB/Class/CompositeBuilder/Src/usbd_composite_builder.c **** static __IO uint32_t CurrFSConfDescSz = 0U;
 192:USB/Class/CompositeBuilder/Src/usbd_composite_builder.c **** 
 193:USB/Class/CompositeBuilder/Src/usbd_composite_builder.c **** #ifdef USE_USB_HS
 194:USB/Class/CompositeBuilder/Src/usbd_composite_builder.c **** __ALIGN_BEGIN static uint8_t USBD_CMPSIT_HSCfgDesc[USBD_CMPST_MAX_CONFDESC_SZ]  __ALIGN_END = {0};
 195:USB/Class/CompositeBuilder/Src/usbd_composite_builder.c **** static uint8_t *pCmpstHSConfDesc = USBD_CMPSIT_HSCfgDesc;
 196:USB/Class/CompositeBuilder/Src/usbd_composite_builder.c **** /* Variable that dynamically holds the current size of the configuration descriptor */
 197:USB/Class/CompositeBuilder/Src/usbd_composite_builder.c **** static __IO uint32_t CurrHSConfDescSz = 0U;
 198:USB/Class/CompositeBuilder/Src/usbd_composite_builder.c **** #endif /* USE_USB_HS */
 199:USB/Class/CompositeBuilder/Src/usbd_composite_builder.c **** 
ARM GAS  C:\Users\sapph\AppData\Local\Temp\cc1fiECZ.s 			page 5


 200:USB/Class/CompositeBuilder/Src/usbd_composite_builder.c **** /* USB Standard Device Descriptor */
 201:USB/Class/CompositeBuilder/Src/usbd_composite_builder.c **** __ALIGN_BEGIN static uint8_t USBD_CMPSIT_DeviceQualifierDesc[USB_LEN_DEV_QUALIFIER_DESC]  __ALIGN_E
 202:USB/Class/CompositeBuilder/Src/usbd_composite_builder.c **** {
 203:USB/Class/CompositeBuilder/Src/usbd_composite_builder.c ****   USB_LEN_DEV_QUALIFIER_DESC,      /* bLength */
 204:USB/Class/CompositeBuilder/Src/usbd_composite_builder.c ****   USB_DESC_TYPE_DEVICE_QUALIFIER,  /* bDescriptorType */
 205:USB/Class/CompositeBuilder/Src/usbd_composite_builder.c ****   0x00,                            /* bcdDevice low */
 206:USB/Class/CompositeBuilder/Src/usbd_composite_builder.c ****   0x02,                            /* bcdDevice high */
 207:USB/Class/CompositeBuilder/Src/usbd_composite_builder.c ****   0xEF,                            /* Class */
 208:USB/Class/CompositeBuilder/Src/usbd_composite_builder.c ****   0x02,                            /* SubClass */
 209:USB/Class/CompositeBuilder/Src/usbd_composite_builder.c ****   0x01,                            /* Protocol */
 210:USB/Class/CompositeBuilder/Src/usbd_composite_builder.c ****   0x40,                            /* bMaxPacketSize0 */
 211:USB/Class/CompositeBuilder/Src/usbd_composite_builder.c ****   0x01,                            /* bNumConfigurations */
 212:USB/Class/CompositeBuilder/Src/usbd_composite_builder.c ****   0x00,                            /* bReserved */
 213:USB/Class/CompositeBuilder/Src/usbd_composite_builder.c **** };
 214:USB/Class/CompositeBuilder/Src/usbd_composite_builder.c **** 
 215:USB/Class/CompositeBuilder/Src/usbd_composite_builder.c **** /**
 216:USB/Class/CompositeBuilder/Src/usbd_composite_builder.c ****   * @}
 217:USB/Class/CompositeBuilder/Src/usbd_composite_builder.c ****   */
 218:USB/Class/CompositeBuilder/Src/usbd_composite_builder.c **** 
 219:USB/Class/CompositeBuilder/Src/usbd_composite_builder.c **** 
 220:USB/Class/CompositeBuilder/Src/usbd_composite_builder.c **** /** @defgroup CMPSIT_CORE_Private_Functions
 221:USB/Class/CompositeBuilder/Src/usbd_composite_builder.c ****   * @{
 222:USB/Class/CompositeBuilder/Src/usbd_composite_builder.c ****   */
 223:USB/Class/CompositeBuilder/Src/usbd_composite_builder.c **** 
 224:USB/Class/CompositeBuilder/Src/usbd_composite_builder.c **** /**
 225:USB/Class/CompositeBuilder/Src/usbd_composite_builder.c ****   * @brief  USBD_CMPSIT_AddClass
 226:USB/Class/CompositeBuilder/Src/usbd_composite_builder.c ****   *         Register a class in the class builder
 227:USB/Class/CompositeBuilder/Src/usbd_composite_builder.c ****   * @param  pdev: device instance
 228:USB/Class/CompositeBuilder/Src/usbd_composite_builder.c ****   * @param  pclass: pointer to the class structure to be added
 229:USB/Class/CompositeBuilder/Src/usbd_composite_builder.c ****   * @param  class: type of the class to be added (from USBD_CompositeClassTypeDef)
 230:USB/Class/CompositeBuilder/Src/usbd_composite_builder.c ****   * @param  cfgidx: configuration index
 231:USB/Class/CompositeBuilder/Src/usbd_composite_builder.c ****   * @retval status
 232:USB/Class/CompositeBuilder/Src/usbd_composite_builder.c ****   */
 233:USB/Class/CompositeBuilder/Src/usbd_composite_builder.c **** uint8_t  USBD_CMPSIT_AddClass(USBD_HandleTypeDef *pdev,
 234:USB/Class/CompositeBuilder/Src/usbd_composite_builder.c ****                               USBD_ClassTypeDef *pclass,
 235:USB/Class/CompositeBuilder/Src/usbd_composite_builder.c ****                               USBD_CompositeClassTypeDef class,
 236:USB/Class/CompositeBuilder/Src/usbd_composite_builder.c ****                               uint8_t cfgidx)
 237:USB/Class/CompositeBuilder/Src/usbd_composite_builder.c **** {
 238:USB/Class/CompositeBuilder/Src/usbd_composite_builder.c ****   if ((pdev->classId < USBD_MAX_SUPPORTED_CLASS) && (pdev->tclasslist[pdev->classId].Active == 0U))
 239:USB/Class/CompositeBuilder/Src/usbd_composite_builder.c ****   {
 240:USB/Class/CompositeBuilder/Src/usbd_composite_builder.c ****     /* Store the class parameters in the global tab */
 241:USB/Class/CompositeBuilder/Src/usbd_composite_builder.c ****     pdev->pClass[pdev->classId] = pclass;
 242:USB/Class/CompositeBuilder/Src/usbd_composite_builder.c ****     pdev->tclasslist[pdev->classId].ClassId = pdev->classId;
 243:USB/Class/CompositeBuilder/Src/usbd_composite_builder.c ****     pdev->tclasslist[pdev->classId].Active = 1U;
 244:USB/Class/CompositeBuilder/Src/usbd_composite_builder.c ****     pdev->tclasslist[pdev->classId].ClassType = class;
 245:USB/Class/CompositeBuilder/Src/usbd_composite_builder.c **** 
 246:USB/Class/CompositeBuilder/Src/usbd_composite_builder.c ****     /* Call configuration descriptor builder and endpoint configuration builder */
 247:USB/Class/CompositeBuilder/Src/usbd_composite_builder.c ****     if (USBD_CMPSIT_AddToConfDesc(pdev) != (uint8_t)USBD_OK)
 248:USB/Class/CompositeBuilder/Src/usbd_composite_builder.c ****     {
 249:USB/Class/CompositeBuilder/Src/usbd_composite_builder.c ****       return (uint8_t)USBD_FAIL;
 250:USB/Class/CompositeBuilder/Src/usbd_composite_builder.c ****     }
 251:USB/Class/CompositeBuilder/Src/usbd_composite_builder.c ****   }
 252:USB/Class/CompositeBuilder/Src/usbd_composite_builder.c **** 
 253:USB/Class/CompositeBuilder/Src/usbd_composite_builder.c ****   UNUSED(cfgidx);
 254:USB/Class/CompositeBuilder/Src/usbd_composite_builder.c **** 
 255:USB/Class/CompositeBuilder/Src/usbd_composite_builder.c ****   return (uint8_t)USBD_OK;
 256:USB/Class/CompositeBuilder/Src/usbd_composite_builder.c **** }
ARM GAS  C:\Users\sapph\AppData\Local\Temp\cc1fiECZ.s 			page 6


 257:USB/Class/CompositeBuilder/Src/usbd_composite_builder.c **** 
 258:USB/Class/CompositeBuilder/Src/usbd_composite_builder.c **** 
 259:USB/Class/CompositeBuilder/Src/usbd_composite_builder.c **** /**
 260:USB/Class/CompositeBuilder/Src/usbd_composite_builder.c ****   * @brief  USBD_CMPSIT_AddToConfDesc
 261:USB/Class/CompositeBuilder/Src/usbd_composite_builder.c ****   *         Add a new class to the configuration descriptor
 262:USB/Class/CompositeBuilder/Src/usbd_composite_builder.c ****   * @param  pdev: device instance
 263:USB/Class/CompositeBuilder/Src/usbd_composite_builder.c ****   * @retval status
 264:USB/Class/CompositeBuilder/Src/usbd_composite_builder.c ****   */
 265:USB/Class/CompositeBuilder/Src/usbd_composite_builder.c **** uint8_t  USBD_CMPSIT_AddToConfDesc(USBD_HandleTypeDef *pdev)
 266:USB/Class/CompositeBuilder/Src/usbd_composite_builder.c **** {
 267:USB/Class/CompositeBuilder/Src/usbd_composite_builder.c ****   uint8_t idxIf = 0U;
 268:USB/Class/CompositeBuilder/Src/usbd_composite_builder.c ****   uint8_t iEp = 0U;
 269:USB/Class/CompositeBuilder/Src/usbd_composite_builder.c **** 
 270:USB/Class/CompositeBuilder/Src/usbd_composite_builder.c ****   /* For the first class instance, start building the config descriptor common part */
 271:USB/Class/CompositeBuilder/Src/usbd_composite_builder.c ****   if (pdev->classId == 0U)
 272:USB/Class/CompositeBuilder/Src/usbd_composite_builder.c ****   {
 273:USB/Class/CompositeBuilder/Src/usbd_composite_builder.c ****     /* Add configuration and IAD descriptors */
 274:USB/Class/CompositeBuilder/Src/usbd_composite_builder.c ****     USBD_CMPSIT_AddConfDesc((uint32_t)pCmpstFSConfDesc, &CurrFSConfDescSz);
 275:USB/Class/CompositeBuilder/Src/usbd_composite_builder.c **** #ifdef USE_USB_HS
 276:USB/Class/CompositeBuilder/Src/usbd_composite_builder.c ****     USBD_CMPSIT_AddConfDesc((uint32_t)pCmpstHSConfDesc, &CurrHSConfDescSz);
 277:USB/Class/CompositeBuilder/Src/usbd_composite_builder.c **** #endif /* USE_USB_HS */
 278:USB/Class/CompositeBuilder/Src/usbd_composite_builder.c ****   }
 279:USB/Class/CompositeBuilder/Src/usbd_composite_builder.c **** 
 280:USB/Class/CompositeBuilder/Src/usbd_composite_builder.c ****   switch (pdev->tclasslist[pdev->classId].ClassType)
 281:USB/Class/CompositeBuilder/Src/usbd_composite_builder.c ****   {
 282:USB/Class/CompositeBuilder/Src/usbd_composite_builder.c **** #if USBD_CMPSIT_ACTIVATE_HID == 1
 283:USB/Class/CompositeBuilder/Src/usbd_composite_builder.c ****     case CLASS_TYPE_HID:
 284:USB/Class/CompositeBuilder/Src/usbd_composite_builder.c ****       /* Setup Max packet sizes (for HID, no dependency on USB Speed, both HS/FS have same packet s
 285:USB/Class/CompositeBuilder/Src/usbd_composite_builder.c ****       pdev->tclasslist[pdev->classId].CurrPcktSze = HID_EPIN_SIZE;
 286:USB/Class/CompositeBuilder/Src/usbd_composite_builder.c **** 
 287:USB/Class/CompositeBuilder/Src/usbd_composite_builder.c ****       /* Find the first available interface slot and Assign number of interfaces */
 288:USB/Class/CompositeBuilder/Src/usbd_composite_builder.c ****       idxIf = USBD_CMPSIT_FindFreeIFNbr(pdev);
 289:USB/Class/CompositeBuilder/Src/usbd_composite_builder.c ****       pdev->tclasslist[pdev->classId].NumIf = 1U;
 290:USB/Class/CompositeBuilder/Src/usbd_composite_builder.c ****       pdev->tclasslist[pdev->classId].Ifs[0] = idxIf;
 291:USB/Class/CompositeBuilder/Src/usbd_composite_builder.c **** 
 292:USB/Class/CompositeBuilder/Src/usbd_composite_builder.c ****       /* Assign endpoint numbers */
 293:USB/Class/CompositeBuilder/Src/usbd_composite_builder.c ****       pdev->tclasslist[pdev->classId].NumEps = 1U; /* EP1_IN */
 294:USB/Class/CompositeBuilder/Src/usbd_composite_builder.c **** 
 295:USB/Class/CompositeBuilder/Src/usbd_composite_builder.c ****       /* Set IN endpoint slot */
 296:USB/Class/CompositeBuilder/Src/usbd_composite_builder.c ****       iEp = pdev->tclasslist[pdev->classId].EpAdd[0];
 297:USB/Class/CompositeBuilder/Src/usbd_composite_builder.c **** 
 298:USB/Class/CompositeBuilder/Src/usbd_composite_builder.c ****       /* Assign IN Endpoint */
 299:USB/Class/CompositeBuilder/Src/usbd_composite_builder.c ****       USBD_CMPSIT_AssignEp(pdev, iEp, USBD_EP_TYPE_INTR, pdev->tclasslist[pdev->classId].CurrPcktSz
 300:USB/Class/CompositeBuilder/Src/usbd_composite_builder.c **** 
 301:USB/Class/CompositeBuilder/Src/usbd_composite_builder.c ****       /* Configure and Append the Descriptor */
 302:USB/Class/CompositeBuilder/Src/usbd_composite_builder.c ****       USBD_CMPSIT_HIDMouseDesc(pdev, (uint32_t)pCmpstFSConfDesc, &CurrFSConfDescSz, (uint8_t)USBD_S
 303:USB/Class/CompositeBuilder/Src/usbd_composite_builder.c **** 
 304:USB/Class/CompositeBuilder/Src/usbd_composite_builder.c **** #ifdef USE_USB_HS
 305:USB/Class/CompositeBuilder/Src/usbd_composite_builder.c ****       USBD_CMPSIT_HIDMouseDesc(pdev, (uint32_t)pCmpstHSConfDesc, &CurrHSConfDescSz, (uint8_t)USBD_S
 306:USB/Class/CompositeBuilder/Src/usbd_composite_builder.c **** #endif /* USE_USB_HS */
 307:USB/Class/CompositeBuilder/Src/usbd_composite_builder.c **** 
 308:USB/Class/CompositeBuilder/Src/usbd_composite_builder.c ****       break;
 309:USB/Class/CompositeBuilder/Src/usbd_composite_builder.c **** #endif /* USBD_CMPSIT_ACTIVATE_HID */
 310:USB/Class/CompositeBuilder/Src/usbd_composite_builder.c **** 
 311:USB/Class/CompositeBuilder/Src/usbd_composite_builder.c **** #if USBD_CMPSIT_ACTIVATE_MSC == 1
 312:USB/Class/CompositeBuilder/Src/usbd_composite_builder.c ****     case CLASS_TYPE_MSC:
 313:USB/Class/CompositeBuilder/Src/usbd_composite_builder.c ****       /* Setup default Max packet size */
ARM GAS  C:\Users\sapph\AppData\Local\Temp\cc1fiECZ.s 			page 7


 314:USB/Class/CompositeBuilder/Src/usbd_composite_builder.c ****       pdev->tclasslist[pdev->classId].CurrPcktSze = MSC_MAX_FS_PACKET;
 315:USB/Class/CompositeBuilder/Src/usbd_composite_builder.c **** 
 316:USB/Class/CompositeBuilder/Src/usbd_composite_builder.c ****       /* Find the first available interface slot and Assign number of interfaces */
 317:USB/Class/CompositeBuilder/Src/usbd_composite_builder.c ****       idxIf = USBD_CMPSIT_FindFreeIFNbr(pdev);
 318:USB/Class/CompositeBuilder/Src/usbd_composite_builder.c ****       pdev->tclasslist[pdev->classId].NumIf = 1U;
 319:USB/Class/CompositeBuilder/Src/usbd_composite_builder.c ****       pdev->tclasslist[pdev->classId].Ifs[0] = idxIf;
 320:USB/Class/CompositeBuilder/Src/usbd_composite_builder.c **** 
 321:USB/Class/CompositeBuilder/Src/usbd_composite_builder.c ****       /* Assign endpoint numbers */
 322:USB/Class/CompositeBuilder/Src/usbd_composite_builder.c ****       pdev->tclasslist[pdev->classId].NumEps = 2U; /* EP1_IN, EP1_OUT */
 323:USB/Class/CompositeBuilder/Src/usbd_composite_builder.c **** 
 324:USB/Class/CompositeBuilder/Src/usbd_composite_builder.c ****       /* Set IN endpoint slot */
 325:USB/Class/CompositeBuilder/Src/usbd_composite_builder.c ****       iEp = pdev->tclasslist[pdev->classId].EpAdd[0];
 326:USB/Class/CompositeBuilder/Src/usbd_composite_builder.c ****       USBD_CMPSIT_AssignEp(pdev, iEp, USBD_EP_TYPE_BULK, pdev->tclasslist[pdev->classId].CurrPcktSz
 327:USB/Class/CompositeBuilder/Src/usbd_composite_builder.c **** 
 328:USB/Class/CompositeBuilder/Src/usbd_composite_builder.c ****       /* Set OUT endpoint slot */
 329:USB/Class/CompositeBuilder/Src/usbd_composite_builder.c ****       iEp = pdev->tclasslist[pdev->classId].EpAdd[1];
 330:USB/Class/CompositeBuilder/Src/usbd_composite_builder.c ****       USBD_CMPSIT_AssignEp(pdev, iEp, USBD_EP_TYPE_BULK, pdev->tclasslist[pdev->classId].CurrPcktSz
 331:USB/Class/CompositeBuilder/Src/usbd_composite_builder.c **** 
 332:USB/Class/CompositeBuilder/Src/usbd_composite_builder.c ****       /* Configure and Append the Descriptor */
 333:USB/Class/CompositeBuilder/Src/usbd_composite_builder.c ****       USBD_CMPSIT_MSCDesc(pdev, (uint32_t)pCmpstFSConfDesc, &CurrFSConfDescSz, (uint8_t)USBD_SPEED_
 334:USB/Class/CompositeBuilder/Src/usbd_composite_builder.c **** 
 335:USB/Class/CompositeBuilder/Src/usbd_composite_builder.c **** #ifdef USE_USB_HS
 336:USB/Class/CompositeBuilder/Src/usbd_composite_builder.c ****       USBD_CMPSIT_MSCDesc(pdev, (uint32_t)pCmpstHSConfDesc, &CurrHSConfDescSz, (uint8_t)USBD_SPEED_
 337:USB/Class/CompositeBuilder/Src/usbd_composite_builder.c **** #endif /* USE_USB_HS */
 338:USB/Class/CompositeBuilder/Src/usbd_composite_builder.c **** 
 339:USB/Class/CompositeBuilder/Src/usbd_composite_builder.c ****       break;
 340:USB/Class/CompositeBuilder/Src/usbd_composite_builder.c **** #endif /* USBD_CMPSIT_ACTIVATE_MSC */
 341:USB/Class/CompositeBuilder/Src/usbd_composite_builder.c **** 
 342:USB/Class/CompositeBuilder/Src/usbd_composite_builder.c **** #if USBD_CMPSIT_ACTIVATE_CDC == 1
 343:USB/Class/CompositeBuilder/Src/usbd_composite_builder.c ****     case CLASS_TYPE_CDC:
 344:USB/Class/CompositeBuilder/Src/usbd_composite_builder.c ****       /* Setup default Max packet size for FS device */
 345:USB/Class/CompositeBuilder/Src/usbd_composite_builder.c ****       pdev->tclasslist[pdev->classId].CurrPcktSze = CDC_DATA_FS_MAX_PACKET_SIZE;
 346:USB/Class/CompositeBuilder/Src/usbd_composite_builder.c **** 
 347:USB/Class/CompositeBuilder/Src/usbd_composite_builder.c ****       /* Find the first available interface slot and Assign number of interfaces */
 348:USB/Class/CompositeBuilder/Src/usbd_composite_builder.c ****       idxIf = USBD_CMPSIT_FindFreeIFNbr(pdev);
 349:USB/Class/CompositeBuilder/Src/usbd_composite_builder.c ****       pdev->tclasslist[pdev->classId].NumIf = 2U;
 350:USB/Class/CompositeBuilder/Src/usbd_composite_builder.c ****       pdev->tclasslist[pdev->classId].Ifs[0] = idxIf;
 351:USB/Class/CompositeBuilder/Src/usbd_composite_builder.c ****       pdev->tclasslist[pdev->classId].Ifs[1] = (uint8_t)(idxIf + 1U);
 352:USB/Class/CompositeBuilder/Src/usbd_composite_builder.c **** 
 353:USB/Class/CompositeBuilder/Src/usbd_composite_builder.c ****       /* Assign endpoint numbers */
 354:USB/Class/CompositeBuilder/Src/usbd_composite_builder.c ****       pdev->tclasslist[pdev->classId].NumEps = 3U;
 355:USB/Class/CompositeBuilder/Src/usbd_composite_builder.c **** 
 356:USB/Class/CompositeBuilder/Src/usbd_composite_builder.c ****       /* Set IN endpoint slot */
 357:USB/Class/CompositeBuilder/Src/usbd_composite_builder.c ****       iEp = pdev->tclasslist[pdev->classId].EpAdd[0];
 358:USB/Class/CompositeBuilder/Src/usbd_composite_builder.c ****       USBD_CMPSIT_AssignEp(pdev, iEp, USBD_EP_TYPE_BULK, pdev->tclasslist[pdev->classId].CurrPcktSz
 359:USB/Class/CompositeBuilder/Src/usbd_composite_builder.c **** 
 360:USB/Class/CompositeBuilder/Src/usbd_composite_builder.c ****       /* Set OUT endpoint slot */
 361:USB/Class/CompositeBuilder/Src/usbd_composite_builder.c ****       iEp = pdev->tclasslist[pdev->classId].EpAdd[1];
 362:USB/Class/CompositeBuilder/Src/usbd_composite_builder.c ****       USBD_CMPSIT_AssignEp(pdev, iEp, USBD_EP_TYPE_BULK, pdev->tclasslist[pdev->classId].CurrPcktSz
 363:USB/Class/CompositeBuilder/Src/usbd_composite_builder.c **** 
 364:USB/Class/CompositeBuilder/Src/usbd_composite_builder.c ****       /* Set the second IN endpoint slot */
 365:USB/Class/CompositeBuilder/Src/usbd_composite_builder.c ****       iEp = pdev->tclasslist[pdev->classId].EpAdd[2];
 366:USB/Class/CompositeBuilder/Src/usbd_composite_builder.c ****       USBD_CMPSIT_AssignEp(pdev, iEp, USBD_EP_TYPE_INTR, CDC_CMD_PACKET_SIZE);
 367:USB/Class/CompositeBuilder/Src/usbd_composite_builder.c **** 
 368:USB/Class/CompositeBuilder/Src/usbd_composite_builder.c ****       /* Configure and Append the Descriptor */
 369:USB/Class/CompositeBuilder/Src/usbd_composite_builder.c ****       USBD_CMPSIT_CDCDesc(pdev, (uint32_t)pCmpstFSConfDesc, &CurrFSConfDescSz, (uint8_t)USBD_SPEED_
 370:USB/Class/CompositeBuilder/Src/usbd_composite_builder.c **** 
ARM GAS  C:\Users\sapph\AppData\Local\Temp\cc1fiECZ.s 			page 8


 371:USB/Class/CompositeBuilder/Src/usbd_composite_builder.c **** #ifdef USE_USB_HS
 372:USB/Class/CompositeBuilder/Src/usbd_composite_builder.c ****       USBD_CMPSIT_CDCDesc(pdev, (uint32_t)pCmpstHSConfDesc, &CurrHSConfDescSz, (uint8_t)USBD_SPEED_
 373:USB/Class/CompositeBuilder/Src/usbd_composite_builder.c **** #endif /* USE_USB_HS */
 374:USB/Class/CompositeBuilder/Src/usbd_composite_builder.c **** 
 375:USB/Class/CompositeBuilder/Src/usbd_composite_builder.c ****       break;
 376:USB/Class/CompositeBuilder/Src/usbd_composite_builder.c **** #endif /* USBD_CMPSIT_ACTIVATE_CDC */
 377:USB/Class/CompositeBuilder/Src/usbd_composite_builder.c **** 
 378:USB/Class/CompositeBuilder/Src/usbd_composite_builder.c **** #if USBD_CMPSIT_ACTIVATE_DFU == 1
 379:USB/Class/CompositeBuilder/Src/usbd_composite_builder.c ****     case CLASS_TYPE_DFU:
 380:USB/Class/CompositeBuilder/Src/usbd_composite_builder.c ****       /* Setup Max packet sizes (for DFU, no dependency on USB Speed, both HS/FS have same packet s
 381:USB/Class/CompositeBuilder/Src/usbd_composite_builder.c ****       pdev->tclasslist[pdev->classId].CurrPcktSze = 64U;
 382:USB/Class/CompositeBuilder/Src/usbd_composite_builder.c **** 
 383:USB/Class/CompositeBuilder/Src/usbd_composite_builder.c ****       /* Find the first available interface slot and Assign number of interfaces */
 384:USB/Class/CompositeBuilder/Src/usbd_composite_builder.c ****       idxIf = USBD_CMPSIT_FindFreeIFNbr(pdev);
 385:USB/Class/CompositeBuilder/Src/usbd_composite_builder.c ****       pdev->tclasslist[pdev->classId].NumIf = 1U;
 386:USB/Class/CompositeBuilder/Src/usbd_composite_builder.c ****       pdev->tclasslist[pdev->classId].Ifs[0] = idxIf;
 387:USB/Class/CompositeBuilder/Src/usbd_composite_builder.c **** 
 388:USB/Class/CompositeBuilder/Src/usbd_composite_builder.c ****       /* Assign endpoint numbers */
 389:USB/Class/CompositeBuilder/Src/usbd_composite_builder.c ****       pdev->tclasslist[pdev->classId].NumEps = 0U; /* only EP0 is used */
 390:USB/Class/CompositeBuilder/Src/usbd_composite_builder.c **** 
 391:USB/Class/CompositeBuilder/Src/usbd_composite_builder.c ****       /* Configure and Append the Descriptor */
 392:USB/Class/CompositeBuilder/Src/usbd_composite_builder.c ****       USBD_CMPSIT_DFUDesc(pdev, (uint32_t)pCmpstFSConfDesc, &CurrFSConfDescSz, (uint8_t)USBD_SPEED_
 393:USB/Class/CompositeBuilder/Src/usbd_composite_builder.c **** 
 394:USB/Class/CompositeBuilder/Src/usbd_composite_builder.c **** #ifdef USE_USB_HS
 395:USB/Class/CompositeBuilder/Src/usbd_composite_builder.c ****       USBD_CMPSIT_DFUDesc(pdev, (uint32_t)pCmpstHSConfDesc, &CurrHSConfDescSz, (uint8_t)USBD_SPEED_
 396:USB/Class/CompositeBuilder/Src/usbd_composite_builder.c **** #endif /* USE_USB_HS */
 397:USB/Class/CompositeBuilder/Src/usbd_composite_builder.c **** 
 398:USB/Class/CompositeBuilder/Src/usbd_composite_builder.c ****       break;
 399:USB/Class/CompositeBuilder/Src/usbd_composite_builder.c **** #endif /* USBD_CMPSIT_ACTIVATE_DFU */
 400:USB/Class/CompositeBuilder/Src/usbd_composite_builder.c **** 
 401:USB/Class/CompositeBuilder/Src/usbd_composite_builder.c **** #if USBD_CMPSIT_ACTIVATE_RNDIS == 1
 402:USB/Class/CompositeBuilder/Src/usbd_composite_builder.c ****     case CLASS_TYPE_RNDIS:
 403:USB/Class/CompositeBuilder/Src/usbd_composite_builder.c ****       /* Setup default Max packet size */
 404:USB/Class/CompositeBuilder/Src/usbd_composite_builder.c ****       pdev->tclasslist[pdev->classId].CurrPcktSze = CDC_RNDIS_DATA_FS_MAX_PACKET_SIZE;
 405:USB/Class/CompositeBuilder/Src/usbd_composite_builder.c **** 
 406:USB/Class/CompositeBuilder/Src/usbd_composite_builder.c ****       /* Find the first available interface slot and Assign number of interfaces */
 407:USB/Class/CompositeBuilder/Src/usbd_composite_builder.c ****       idxIf = USBD_CMPSIT_FindFreeIFNbr(pdev);
 408:USB/Class/CompositeBuilder/Src/usbd_composite_builder.c ****       pdev->tclasslist[pdev->classId].NumIf = 2U;
 409:USB/Class/CompositeBuilder/Src/usbd_composite_builder.c ****       pdev->tclasslist[pdev->classId].Ifs[0] = idxIf;
 410:USB/Class/CompositeBuilder/Src/usbd_composite_builder.c ****       pdev->tclasslist[pdev->classId].Ifs[1] = (uint8_t)(idxIf + 1U);
 411:USB/Class/CompositeBuilder/Src/usbd_composite_builder.c **** 
 412:USB/Class/CompositeBuilder/Src/usbd_composite_builder.c ****       /* Assign endpoint numbers */
 413:USB/Class/CompositeBuilder/Src/usbd_composite_builder.c ****       pdev->tclasslist[pdev->classId].NumEps = 3U;
 414:USB/Class/CompositeBuilder/Src/usbd_composite_builder.c **** 
 415:USB/Class/CompositeBuilder/Src/usbd_composite_builder.c ****       /* Set IN endpoint slot */
 416:USB/Class/CompositeBuilder/Src/usbd_composite_builder.c ****       iEp = pdev->tclasslist[pdev->classId].EpAdd[0];
 417:USB/Class/CompositeBuilder/Src/usbd_composite_builder.c ****       USBD_CMPSIT_AssignEp(pdev, iEp, USBD_EP_TYPE_BULK, pdev->tclasslist[pdev->classId].CurrPcktSz
 418:USB/Class/CompositeBuilder/Src/usbd_composite_builder.c **** 
 419:USB/Class/CompositeBuilder/Src/usbd_composite_builder.c ****       /* Set OUT endpoint slot */
 420:USB/Class/CompositeBuilder/Src/usbd_composite_builder.c ****       iEp = pdev->tclasslist[pdev->classId].EpAdd[1];
 421:USB/Class/CompositeBuilder/Src/usbd_composite_builder.c ****       USBD_CMPSIT_AssignEp(pdev, iEp, USBD_EP_TYPE_BULK, pdev->tclasslist[pdev->classId].CurrPcktSz
 422:USB/Class/CompositeBuilder/Src/usbd_composite_builder.c **** 
 423:USB/Class/CompositeBuilder/Src/usbd_composite_builder.c ****       /* Set the second IN endpoint slot */
 424:USB/Class/CompositeBuilder/Src/usbd_composite_builder.c ****       iEp = pdev->tclasslist[pdev->classId].EpAdd[2];
 425:USB/Class/CompositeBuilder/Src/usbd_composite_builder.c ****       USBD_CMPSIT_AssignEp(pdev, iEp, USBD_EP_TYPE_INTR, CDC_RNDIS_CMD_PACKET_SIZE);
 426:USB/Class/CompositeBuilder/Src/usbd_composite_builder.c **** 
 427:USB/Class/CompositeBuilder/Src/usbd_composite_builder.c ****       /* Configure and Append the Descriptor */
ARM GAS  C:\Users\sapph\AppData\Local\Temp\cc1fiECZ.s 			page 9


 428:USB/Class/CompositeBuilder/Src/usbd_composite_builder.c ****       USBD_CMPSIT_RNDISDesc(pdev, (uint32_t)pCmpstFSConfDesc, &CurrFSConfDescSz, (uint8_t)USBD_SPEE
 429:USB/Class/CompositeBuilder/Src/usbd_composite_builder.c **** 
 430:USB/Class/CompositeBuilder/Src/usbd_composite_builder.c **** #ifdef USE_USB_HS
 431:USB/Class/CompositeBuilder/Src/usbd_composite_builder.c ****       USBD_CMPSIT_RNDISDesc(pdev, (uint32_t)pCmpstHSConfDesc, &CurrHSConfDescSz, (uint8_t)USBD_SPEE
 432:USB/Class/CompositeBuilder/Src/usbd_composite_builder.c **** #endif /* USE_USB_HS */
 433:USB/Class/CompositeBuilder/Src/usbd_composite_builder.c **** 
 434:USB/Class/CompositeBuilder/Src/usbd_composite_builder.c ****       break;
 435:USB/Class/CompositeBuilder/Src/usbd_composite_builder.c **** #endif /* USBD_CMPSIT_ACTIVATE_RNDIS */
 436:USB/Class/CompositeBuilder/Src/usbd_composite_builder.c **** 
 437:USB/Class/CompositeBuilder/Src/usbd_composite_builder.c **** #if USBD_CMPSIT_ACTIVATE_CDC_ECM == 1
 438:USB/Class/CompositeBuilder/Src/usbd_composite_builder.c ****     case CLASS_TYPE_ECM:
 439:USB/Class/CompositeBuilder/Src/usbd_composite_builder.c ****       /* Setup default Max packet size */
 440:USB/Class/CompositeBuilder/Src/usbd_composite_builder.c ****       pdev->tclasslist[pdev->classId].CurrPcktSze = CDC_ECM_DATA_FS_MAX_PACKET_SIZE;
 441:USB/Class/CompositeBuilder/Src/usbd_composite_builder.c **** 
 442:USB/Class/CompositeBuilder/Src/usbd_composite_builder.c ****       /* Find the first available interface slot and Assign number of interfaces */
 443:USB/Class/CompositeBuilder/Src/usbd_composite_builder.c ****       idxIf = USBD_CMPSIT_FindFreeIFNbr(pdev);
 444:USB/Class/CompositeBuilder/Src/usbd_composite_builder.c ****       pdev->tclasslist[pdev->classId].NumIf = 2U;
 445:USB/Class/CompositeBuilder/Src/usbd_composite_builder.c ****       pdev->tclasslist[pdev->classId].Ifs[0] = idxIf;
 446:USB/Class/CompositeBuilder/Src/usbd_composite_builder.c ****       pdev->tclasslist[pdev->classId].Ifs[1] = (uint8_t)(idxIf + 1U);
 447:USB/Class/CompositeBuilder/Src/usbd_composite_builder.c **** 
 448:USB/Class/CompositeBuilder/Src/usbd_composite_builder.c ****       /* Assign endpoint numbers */
 449:USB/Class/CompositeBuilder/Src/usbd_composite_builder.c ****       pdev->tclasslist[pdev->classId].NumEps = 3U; /* EP1_IN, EP1_OUT,CMD_EP2 */
 450:USB/Class/CompositeBuilder/Src/usbd_composite_builder.c **** 
 451:USB/Class/CompositeBuilder/Src/usbd_composite_builder.c ****       /* Set IN endpoint slot */
 452:USB/Class/CompositeBuilder/Src/usbd_composite_builder.c ****       iEp = pdev->tclasslist[pdev->classId].EpAdd[0];
 453:USB/Class/CompositeBuilder/Src/usbd_composite_builder.c ****       USBD_CMPSIT_AssignEp(pdev, iEp, USBD_EP_TYPE_BULK, pdev->tclasslist[pdev->classId].CurrPcktSz
 454:USB/Class/CompositeBuilder/Src/usbd_composite_builder.c **** 
 455:USB/Class/CompositeBuilder/Src/usbd_composite_builder.c ****       /* Set OUT endpoint slot */
 456:USB/Class/CompositeBuilder/Src/usbd_composite_builder.c ****       iEp = pdev->tclasslist[pdev->classId].EpAdd[1];
 457:USB/Class/CompositeBuilder/Src/usbd_composite_builder.c ****       USBD_CMPSIT_AssignEp(pdev, iEp, USBD_EP_TYPE_BULK, pdev->tclasslist[pdev->classId].CurrPcktSz
 458:USB/Class/CompositeBuilder/Src/usbd_composite_builder.c **** 
 459:USB/Class/CompositeBuilder/Src/usbd_composite_builder.c ****       /* Set the second IN endpoint slot */
 460:USB/Class/CompositeBuilder/Src/usbd_composite_builder.c ****       iEp = pdev->tclasslist[pdev->classId].EpAdd[2];
 461:USB/Class/CompositeBuilder/Src/usbd_composite_builder.c ****       USBD_CMPSIT_AssignEp(pdev, iEp, USBD_EP_TYPE_INTR, CDC_ECM_CMD_PACKET_SIZE);
 462:USB/Class/CompositeBuilder/Src/usbd_composite_builder.c **** 
 463:USB/Class/CompositeBuilder/Src/usbd_composite_builder.c ****       /* Configure and Append the Descriptor */
 464:USB/Class/CompositeBuilder/Src/usbd_composite_builder.c ****       USBD_CMPSIT_CDC_ECMDesc(pdev, (uint32_t)pCmpstFSConfDesc, &CurrFSConfDescSz, (uint8_t)USBD_SP
 465:USB/Class/CompositeBuilder/Src/usbd_composite_builder.c **** 
 466:USB/Class/CompositeBuilder/Src/usbd_composite_builder.c **** #ifdef USE_USB_HS
 467:USB/Class/CompositeBuilder/Src/usbd_composite_builder.c ****       USBD_CMPSIT_CDC_ECMDesc(pdev, (uint32_t)pCmpstHSConfDesc, &CurrHSConfDescSz, (uint8_t)USBD_SP
 468:USB/Class/CompositeBuilder/Src/usbd_composite_builder.c **** #endif /* USE_USB_HS */
 469:USB/Class/CompositeBuilder/Src/usbd_composite_builder.c **** 
 470:USB/Class/CompositeBuilder/Src/usbd_composite_builder.c ****       break;
 471:USB/Class/CompositeBuilder/Src/usbd_composite_builder.c **** #endif /* USBD_CMPSIT_ACTIVATE_CDC_ECM */
 472:USB/Class/CompositeBuilder/Src/usbd_composite_builder.c **** 
 473:USB/Class/CompositeBuilder/Src/usbd_composite_builder.c **** #if USBD_CMPSIT_ACTIVATE_AUDIO == 1
 474:USB/Class/CompositeBuilder/Src/usbd_composite_builder.c ****     case CLASS_TYPE_AUDIO:
 475:USB/Class/CompositeBuilder/Src/usbd_composite_builder.c ****       /* Setup Max packet sizes*/
 476:USB/Class/CompositeBuilder/Src/usbd_composite_builder.c ****       pdev->tclasslist[pdev->classId].CurrPcktSze = USBD_AUDIO_GetEpPcktSze(pdev, 0U, 0U);
 477:USB/Class/CompositeBuilder/Src/usbd_composite_builder.c **** 
 478:USB/Class/CompositeBuilder/Src/usbd_composite_builder.c ****       /* Find the first available interface slot and Assign number of interfaces */
 479:USB/Class/CompositeBuilder/Src/usbd_composite_builder.c ****       idxIf = USBD_CMPSIT_FindFreeIFNbr(pdev);
 480:USB/Class/CompositeBuilder/Src/usbd_composite_builder.c ****       pdev->tclasslist[pdev->classId].NumIf = 2U;
 481:USB/Class/CompositeBuilder/Src/usbd_composite_builder.c ****       pdev->tclasslist[pdev->classId].Ifs[0] = idxIf;
 482:USB/Class/CompositeBuilder/Src/usbd_composite_builder.c ****       pdev->tclasslist[pdev->classId].Ifs[1] = (uint8_t)(idxIf + 1U);
 483:USB/Class/CompositeBuilder/Src/usbd_composite_builder.c **** 
 484:USB/Class/CompositeBuilder/Src/usbd_composite_builder.c ****       /* Assign endpoint numbers */
ARM GAS  C:\Users\sapph\AppData\Local\Temp\cc1fiECZ.s 			page 10


 485:USB/Class/CompositeBuilder/Src/usbd_composite_builder.c ****       pdev->tclasslist[pdev->classId].NumEps = 1U; /* EP1_OUT*/
 486:USB/Class/CompositeBuilder/Src/usbd_composite_builder.c **** 
 487:USB/Class/CompositeBuilder/Src/usbd_composite_builder.c ****       /* Set OUT endpoint slot */
 488:USB/Class/CompositeBuilder/Src/usbd_composite_builder.c ****       iEp = pdev->tclasslist[pdev->classId].EpAdd[0];
 489:USB/Class/CompositeBuilder/Src/usbd_composite_builder.c **** 
 490:USB/Class/CompositeBuilder/Src/usbd_composite_builder.c ****       /* Assign OUT Endpoint */
 491:USB/Class/CompositeBuilder/Src/usbd_composite_builder.c ****       USBD_CMPSIT_AssignEp(pdev, iEp, USBD_EP_TYPE_ISOC, pdev->tclasslist[pdev->classId].CurrPcktSz
 492:USB/Class/CompositeBuilder/Src/usbd_composite_builder.c **** 
 493:USB/Class/CompositeBuilder/Src/usbd_composite_builder.c ****       /* Configure and Append the Descriptor (only FS mode supported) */
 494:USB/Class/CompositeBuilder/Src/usbd_composite_builder.c ****       USBD_CMPSIT_AUDIODesc(pdev, (uint32_t)pCmpstFSConfDesc, &CurrFSConfDescSz, (uint8_t)USBD_SPEE
 495:USB/Class/CompositeBuilder/Src/usbd_composite_builder.c **** 
 496:USB/Class/CompositeBuilder/Src/usbd_composite_builder.c ****       break;
 497:USB/Class/CompositeBuilder/Src/usbd_composite_builder.c **** #endif /* USBD_CMPSIT_ACTIVATE_AUDIO */
 498:USB/Class/CompositeBuilder/Src/usbd_composite_builder.c **** 
 499:USB/Class/CompositeBuilder/Src/usbd_composite_builder.c **** #if USBD_CMPSIT_ACTIVATE_CUSTOMHID == 1
 500:USB/Class/CompositeBuilder/Src/usbd_composite_builder.c ****     case CLASS_TYPE_CHID:
 501:USB/Class/CompositeBuilder/Src/usbd_composite_builder.c ****       /* Setup Max packet sizes */
 502:USB/Class/CompositeBuilder/Src/usbd_composite_builder.c ****       pdev->tclasslist[pdev->classId].CurrPcktSze = CUSTOM_HID_EPOUT_SIZE;
 503:USB/Class/CompositeBuilder/Src/usbd_composite_builder.c **** 
 504:USB/Class/CompositeBuilder/Src/usbd_composite_builder.c ****       /* Find the first available interface slot and Assign number of interfaces */
 505:USB/Class/CompositeBuilder/Src/usbd_composite_builder.c ****       idxIf = USBD_CMPSIT_FindFreeIFNbr(pdev);
 506:USB/Class/CompositeBuilder/Src/usbd_composite_builder.c ****       pdev->tclasslist[pdev->classId].NumIf = 1U;
 507:USB/Class/CompositeBuilder/Src/usbd_composite_builder.c ****       pdev->tclasslist[pdev->classId].Ifs[0] = idxIf;
 508:USB/Class/CompositeBuilder/Src/usbd_composite_builder.c **** 
 509:USB/Class/CompositeBuilder/Src/usbd_composite_builder.c ****       /* Assign endpoint numbers */
 510:USB/Class/CompositeBuilder/Src/usbd_composite_builder.c ****       pdev->tclasslist[pdev->classId].NumEps = 2U; /* EP1_IN, EP1_OUT */
 511:USB/Class/CompositeBuilder/Src/usbd_composite_builder.c **** 
 512:USB/Class/CompositeBuilder/Src/usbd_composite_builder.c ****       /* Set IN endpoint slot */
 513:USB/Class/CompositeBuilder/Src/usbd_composite_builder.c ****       iEp = pdev->tclasslist[pdev->classId].EpAdd[0];
 514:USB/Class/CompositeBuilder/Src/usbd_composite_builder.c ****       USBD_CMPSIT_AssignEp(pdev, iEp, USBD_EP_TYPE_INTR, pdev->tclasslist[pdev->classId].CurrPcktSz
 515:USB/Class/CompositeBuilder/Src/usbd_composite_builder.c **** 
 516:USB/Class/CompositeBuilder/Src/usbd_composite_builder.c ****       /* Set OUT endpoint slot */
 517:USB/Class/CompositeBuilder/Src/usbd_composite_builder.c ****       iEp = pdev->tclasslist[pdev->classId].EpAdd[1];
 518:USB/Class/CompositeBuilder/Src/usbd_composite_builder.c ****       USBD_CMPSIT_AssignEp(pdev, iEp, USBD_EP_TYPE_INTR, pdev->tclasslist[pdev->classId].CurrPcktSz
 519:USB/Class/CompositeBuilder/Src/usbd_composite_builder.c **** 
 520:USB/Class/CompositeBuilder/Src/usbd_composite_builder.c ****       /* Configure and Append the Descriptor */
 521:USB/Class/CompositeBuilder/Src/usbd_composite_builder.c ****       USBD_CMPSIT_CUSTOMHIDDesc(pdev, (uint32_t)pCmpstFSConfDesc, &CurrFSConfDescSz, (uint8_t)USBD_
 522:USB/Class/CompositeBuilder/Src/usbd_composite_builder.c **** 
 523:USB/Class/CompositeBuilder/Src/usbd_composite_builder.c **** #ifdef USE_USB_HS
 524:USB/Class/CompositeBuilder/Src/usbd_composite_builder.c ****       USBD_CMPSIT_CUSTOMHIDDesc(pdev, (uint32_t)pCmpstHSConfDesc, &CurrHSConfDescSz, (uint8_t)USBD_
 525:USB/Class/CompositeBuilder/Src/usbd_composite_builder.c **** #endif /* USE_USB_HS */
 526:USB/Class/CompositeBuilder/Src/usbd_composite_builder.c **** 
 527:USB/Class/CompositeBuilder/Src/usbd_composite_builder.c ****       break;
 528:USB/Class/CompositeBuilder/Src/usbd_composite_builder.c **** #endif /* USBD_CMPSIT_ACTIVATE_CUSTOMHID */
 529:USB/Class/CompositeBuilder/Src/usbd_composite_builder.c **** 
 530:USB/Class/CompositeBuilder/Src/usbd_composite_builder.c **** #if USBD_CMPSIT_ACTIVATE_VIDEO == 1
 531:USB/Class/CompositeBuilder/Src/usbd_composite_builder.c ****     case CLASS_TYPE_VIDEO:
 532:USB/Class/CompositeBuilder/Src/usbd_composite_builder.c ****       /* Setup default Max packet size */
 533:USB/Class/CompositeBuilder/Src/usbd_composite_builder.c ****       pdev->tclasslist[pdev->classId].CurrPcktSze = UVC_ISO_FS_MPS;
 534:USB/Class/CompositeBuilder/Src/usbd_composite_builder.c **** 
 535:USB/Class/CompositeBuilder/Src/usbd_composite_builder.c ****       /* Find the first available interface slot and Assign number of interfaces */
 536:USB/Class/CompositeBuilder/Src/usbd_composite_builder.c ****       idxIf = USBD_CMPSIT_FindFreeIFNbr(pdev);
 537:USB/Class/CompositeBuilder/Src/usbd_composite_builder.c ****       pdev->tclasslist[pdev->classId].NumIf = 2U;
 538:USB/Class/CompositeBuilder/Src/usbd_composite_builder.c ****       pdev->tclasslist[pdev->classId].Ifs[0] = idxIf;
 539:USB/Class/CompositeBuilder/Src/usbd_composite_builder.c ****       pdev->tclasslist[pdev->classId].Ifs[1] = (uint8_t)(idxIf + 1U);
 540:USB/Class/CompositeBuilder/Src/usbd_composite_builder.c **** 
 541:USB/Class/CompositeBuilder/Src/usbd_composite_builder.c ****       /* Assign endpoint numbers */
ARM GAS  C:\Users\sapph\AppData\Local\Temp\cc1fiECZ.s 			page 11


 542:USB/Class/CompositeBuilder/Src/usbd_composite_builder.c ****       pdev->tclasslist[pdev->classId].NumEps = 1U; /* EP1_IN */
 543:USB/Class/CompositeBuilder/Src/usbd_composite_builder.c **** 
 544:USB/Class/CompositeBuilder/Src/usbd_composite_builder.c ****       /* Set IN endpoint slot */
 545:USB/Class/CompositeBuilder/Src/usbd_composite_builder.c ****       iEp = pdev->tclasslist[pdev->classId].EpAdd[0];
 546:USB/Class/CompositeBuilder/Src/usbd_composite_builder.c **** 
 547:USB/Class/CompositeBuilder/Src/usbd_composite_builder.c ****       /* Assign IN Endpoint */
 548:USB/Class/CompositeBuilder/Src/usbd_composite_builder.c ****       USBD_CMPSIT_AssignEp(pdev, iEp, USBD_EP_TYPE_ISOC, pdev->tclasslist[pdev->classId].CurrPcktSz
 549:USB/Class/CompositeBuilder/Src/usbd_composite_builder.c **** 
 550:USB/Class/CompositeBuilder/Src/usbd_composite_builder.c ****       /* Configure and Append the Descriptor */
 551:USB/Class/CompositeBuilder/Src/usbd_composite_builder.c ****       USBD_CMPSIT_VIDEODesc(pdev, (uint32_t)pCmpstFSConfDesc, &CurrFSConfDescSz, (uint8_t)USBD_SPEE
 552:USB/Class/CompositeBuilder/Src/usbd_composite_builder.c **** 
 553:USB/Class/CompositeBuilder/Src/usbd_composite_builder.c **** #ifdef USE_USB_HS
 554:USB/Class/CompositeBuilder/Src/usbd_composite_builder.c ****       USBD_CMPSIT_VIDEODesc(pdev, (uint32_t)pCmpstHSConfDesc, &CurrHSConfDescSz, (uint8_t)USBD_SPEE
 555:USB/Class/CompositeBuilder/Src/usbd_composite_builder.c **** #endif /* USE_USB_HS */
 556:USB/Class/CompositeBuilder/Src/usbd_composite_builder.c **** 
 557:USB/Class/CompositeBuilder/Src/usbd_composite_builder.c ****       break;
 558:USB/Class/CompositeBuilder/Src/usbd_composite_builder.c **** #endif /* USBD_CMPSIT_ACTIVATE_VIDEO */
 559:USB/Class/CompositeBuilder/Src/usbd_composite_builder.c **** 
 560:USB/Class/CompositeBuilder/Src/usbd_composite_builder.c **** #if USBD_CMPSIT_ACTIVATE_PRINTER == 1
 561:USB/Class/CompositeBuilder/Src/usbd_composite_builder.c ****     case CLASS_TYPE_PRINTER:
 562:USB/Class/CompositeBuilder/Src/usbd_composite_builder.c **** 
 563:USB/Class/CompositeBuilder/Src/usbd_composite_builder.c ****       /* Setup default Max packet size */
 564:USB/Class/CompositeBuilder/Src/usbd_composite_builder.c ****       pdev->tclasslist[pdev->classId].CurrPcktSze = PRNT_DATA_FS_MAX_PACKET_SIZE;
 565:USB/Class/CompositeBuilder/Src/usbd_composite_builder.c **** 
 566:USB/Class/CompositeBuilder/Src/usbd_composite_builder.c ****       /* Find the first available interface slot and Assign number of interfaces */
 567:USB/Class/CompositeBuilder/Src/usbd_composite_builder.c ****       idxIf = USBD_CMPSIT_FindFreeIFNbr(pdev);
 568:USB/Class/CompositeBuilder/Src/usbd_composite_builder.c ****       pdev->tclasslist[pdev->classId].NumIf = 1U;
 569:USB/Class/CompositeBuilder/Src/usbd_composite_builder.c ****       pdev->tclasslist[pdev->classId].Ifs[0] = idxIf;
 570:USB/Class/CompositeBuilder/Src/usbd_composite_builder.c **** 
 571:USB/Class/CompositeBuilder/Src/usbd_composite_builder.c ****       /* Assign endpoint numbers */
 572:USB/Class/CompositeBuilder/Src/usbd_composite_builder.c ****       pdev->tclasslist[pdev->classId].NumEps = 2U;
 573:USB/Class/CompositeBuilder/Src/usbd_composite_builder.c **** 
 574:USB/Class/CompositeBuilder/Src/usbd_composite_builder.c ****       /* Set IN endpoint slot */
 575:USB/Class/CompositeBuilder/Src/usbd_composite_builder.c ****       iEp = pdev->tclasslist[pdev->classId].EpAdd[0];
 576:USB/Class/CompositeBuilder/Src/usbd_composite_builder.c ****       USBD_CMPSIT_AssignEp(pdev, iEp, USBD_EP_TYPE_BULK, pdev->tclasslist[pdev->classId].CurrPcktSz
 577:USB/Class/CompositeBuilder/Src/usbd_composite_builder.c **** 
 578:USB/Class/CompositeBuilder/Src/usbd_composite_builder.c ****       /* Set OUT endpoint slot */
 579:USB/Class/CompositeBuilder/Src/usbd_composite_builder.c ****       iEp = pdev->tclasslist[pdev->classId].EpAdd[1];
 580:USB/Class/CompositeBuilder/Src/usbd_composite_builder.c ****       USBD_CMPSIT_AssignEp(pdev, iEp, USBD_EP_TYPE_BULK, pdev->tclasslist[pdev->classId].CurrPcktSz
 581:USB/Class/CompositeBuilder/Src/usbd_composite_builder.c **** 
 582:USB/Class/CompositeBuilder/Src/usbd_composite_builder.c ****       /* Configure and Append the Descriptor */
 583:USB/Class/CompositeBuilder/Src/usbd_composite_builder.c ****       USBD_CMPSIT_PRNTDesc(pdev, (uint32_t)pCmpstFSConfDesc, &CurrFSConfDescSz, (uint8_t)USBD_SPEED
 584:USB/Class/CompositeBuilder/Src/usbd_composite_builder.c **** 
 585:USB/Class/CompositeBuilder/Src/usbd_composite_builder.c **** #ifdef USE_USB_HS
 586:USB/Class/CompositeBuilder/Src/usbd_composite_builder.c ****       USBD_CMPSIT_PRNTDesc(pdev, (uint32_t)pCmpstHSConfDesc, &CurrHSConfDescSz, (uint8_t)USBD_SPEED
 587:USB/Class/CompositeBuilder/Src/usbd_composite_builder.c **** #endif /* USE_USB_HS */
 588:USB/Class/CompositeBuilder/Src/usbd_composite_builder.c **** 
 589:USB/Class/CompositeBuilder/Src/usbd_composite_builder.c ****       break;
 590:USB/Class/CompositeBuilder/Src/usbd_composite_builder.c **** #endif /* USBD_CMPSIT_ACTIVATE_PRINTER */
 591:USB/Class/CompositeBuilder/Src/usbd_composite_builder.c **** 
 592:USB/Class/CompositeBuilder/Src/usbd_composite_builder.c **** #if USBD_CMPSIT_ACTIVATE_CCID == 1
 593:USB/Class/CompositeBuilder/Src/usbd_composite_builder.c **** 
 594:USB/Class/CompositeBuilder/Src/usbd_composite_builder.c ****     case CLASS_TYPE_CCID:
 595:USB/Class/CompositeBuilder/Src/usbd_composite_builder.c ****       /* Setup default Max packet size */
 596:USB/Class/CompositeBuilder/Src/usbd_composite_builder.c ****       pdev->tclasslist[pdev->classId].CurrPcktSze = CCID_DATA_FS_MAX_PACKET_SIZE;
 597:USB/Class/CompositeBuilder/Src/usbd_composite_builder.c **** 
 598:USB/Class/CompositeBuilder/Src/usbd_composite_builder.c ****       /* Find the first available interface slot and Assign number of interfaces */
ARM GAS  C:\Users\sapph\AppData\Local\Temp\cc1fiECZ.s 			page 12


 599:USB/Class/CompositeBuilder/Src/usbd_composite_builder.c ****       idxIf = USBD_CMPSIT_FindFreeIFNbr(pdev);
 600:USB/Class/CompositeBuilder/Src/usbd_composite_builder.c ****       pdev->tclasslist[pdev->classId].NumIf = 1U;
 601:USB/Class/CompositeBuilder/Src/usbd_composite_builder.c ****       pdev->tclasslist[pdev->classId].Ifs[0] = idxIf;
 602:USB/Class/CompositeBuilder/Src/usbd_composite_builder.c **** 
 603:USB/Class/CompositeBuilder/Src/usbd_composite_builder.c ****       /* Assign endpoint numbers */
 604:USB/Class/CompositeBuilder/Src/usbd_composite_builder.c ****       pdev->tclasslist[pdev->classId].NumEps = 3U;
 605:USB/Class/CompositeBuilder/Src/usbd_composite_builder.c **** 
 606:USB/Class/CompositeBuilder/Src/usbd_composite_builder.c ****       /* Set IN endpoint slot */
 607:USB/Class/CompositeBuilder/Src/usbd_composite_builder.c ****       iEp = pdev->tclasslist[pdev->classId].EpAdd[0];
 608:USB/Class/CompositeBuilder/Src/usbd_composite_builder.c ****       USBD_CMPSIT_AssignEp(pdev, iEp, USBD_EP_TYPE_BULK, pdev->tclasslist[pdev->classId].CurrPcktSz
 609:USB/Class/CompositeBuilder/Src/usbd_composite_builder.c **** 
 610:USB/Class/CompositeBuilder/Src/usbd_composite_builder.c ****       /* Set OUT endpoint slot */
 611:USB/Class/CompositeBuilder/Src/usbd_composite_builder.c ****       iEp = pdev->tclasslist[pdev->classId].EpAdd[1];
 612:USB/Class/CompositeBuilder/Src/usbd_composite_builder.c ****       USBD_CMPSIT_AssignEp(pdev, iEp, USBD_EP_TYPE_BULK, pdev->tclasslist[pdev->classId].CurrPcktSz
 613:USB/Class/CompositeBuilder/Src/usbd_composite_builder.c **** 
 614:USB/Class/CompositeBuilder/Src/usbd_composite_builder.c ****       /* Set the second IN endpoint slot */
 615:USB/Class/CompositeBuilder/Src/usbd_composite_builder.c ****       iEp = pdev->tclasslist[pdev->classId].EpAdd[2];
 616:USB/Class/CompositeBuilder/Src/usbd_composite_builder.c ****       USBD_CMPSIT_AssignEp(pdev, iEp, USBD_EP_TYPE_INTR, CCID_CMD_PACKET_SIZE);
 617:USB/Class/CompositeBuilder/Src/usbd_composite_builder.c **** 
 618:USB/Class/CompositeBuilder/Src/usbd_composite_builder.c ****       /* Configure and Append the Descriptor */
 619:USB/Class/CompositeBuilder/Src/usbd_composite_builder.c ****       USBD_CMPSIT_CCIDDesc(pdev, (uint32_t)pCmpstFSConfDesc, &CurrFSConfDescSz, (uint8_t)USBD_SPEED
 620:USB/Class/CompositeBuilder/Src/usbd_composite_builder.c **** 
 621:USB/Class/CompositeBuilder/Src/usbd_composite_builder.c **** #ifdef USE_USB_HS
 622:USB/Class/CompositeBuilder/Src/usbd_composite_builder.c ****       USBD_CMPSIT_CCIDDesc(pdev, (uint32_t)pCmpstHSConfDesc, &CurrHSConfDescSz, (uint8_t)USBD_SPEED
 623:USB/Class/CompositeBuilder/Src/usbd_composite_builder.c **** #endif /* USE_USB_HS */
 624:USB/Class/CompositeBuilder/Src/usbd_composite_builder.c **** 
 625:USB/Class/CompositeBuilder/Src/usbd_composite_builder.c ****       break;
 626:USB/Class/CompositeBuilder/Src/usbd_composite_builder.c **** #endif /* USBD_CMPSIT_ACTIVATE_CCID */
 627:USB/Class/CompositeBuilder/Src/usbd_composite_builder.c **** 
 628:USB/Class/CompositeBuilder/Src/usbd_composite_builder.c **** #if USBD_CMPSIT_ACTIVATE_MTP == 1
 629:USB/Class/CompositeBuilder/Src/usbd_composite_builder.c **** 
 630:USB/Class/CompositeBuilder/Src/usbd_composite_builder.c ****     case CLASS_TYPE_MTP:
 631:USB/Class/CompositeBuilder/Src/usbd_composite_builder.c ****       /* Setup default Max packet sizes */
 632:USB/Class/CompositeBuilder/Src/usbd_composite_builder.c ****       pdev->tclasslist[pdev->classId].CurrPcktSze = MTP_DATA_MAX_FS_PACKET_SIZE;
 633:USB/Class/CompositeBuilder/Src/usbd_composite_builder.c **** 
 634:USB/Class/CompositeBuilder/Src/usbd_composite_builder.c ****       /* Find the first available interface slot and Assign number of interfaces */
 635:USB/Class/CompositeBuilder/Src/usbd_composite_builder.c ****       idxIf = USBD_CMPSIT_FindFreeIFNbr(pdev);
 636:USB/Class/CompositeBuilder/Src/usbd_composite_builder.c ****       pdev->tclasslist[pdev->classId].NumIf = 1U;
 637:USB/Class/CompositeBuilder/Src/usbd_composite_builder.c ****       pdev->tclasslist[pdev->classId].Ifs[0] = idxIf;
 638:USB/Class/CompositeBuilder/Src/usbd_composite_builder.c **** 
 639:USB/Class/CompositeBuilder/Src/usbd_composite_builder.c ****       /* Assign endpoint numbers */
 640:USB/Class/CompositeBuilder/Src/usbd_composite_builder.c ****       pdev->tclasslist[pdev->classId].NumEps = 3U;
 641:USB/Class/CompositeBuilder/Src/usbd_composite_builder.c **** 
 642:USB/Class/CompositeBuilder/Src/usbd_composite_builder.c ****       /* Set IN endpoint slot */
 643:USB/Class/CompositeBuilder/Src/usbd_composite_builder.c ****       iEp = pdev->tclasslist[pdev->classId].EpAdd[0];
 644:USB/Class/CompositeBuilder/Src/usbd_composite_builder.c ****       USBD_CMPSIT_AssignEp(pdev, iEp, USBD_EP_TYPE_BULK, pdev->tclasslist[pdev->classId].CurrPcktSz
 645:USB/Class/CompositeBuilder/Src/usbd_composite_builder.c **** 
 646:USB/Class/CompositeBuilder/Src/usbd_composite_builder.c ****       /* Set OUT endpoint slot */
 647:USB/Class/CompositeBuilder/Src/usbd_composite_builder.c ****       iEp = pdev->tclasslist[pdev->classId].EpAdd[1];
 648:USB/Class/CompositeBuilder/Src/usbd_composite_builder.c ****       USBD_CMPSIT_AssignEp(pdev, iEp, USBD_EP_TYPE_BULK, pdev->tclasslist[pdev->classId].CurrPcktSz
 649:USB/Class/CompositeBuilder/Src/usbd_composite_builder.c **** 
 650:USB/Class/CompositeBuilder/Src/usbd_composite_builder.c ****       /* Set the second IN endpoint slot */
 651:USB/Class/CompositeBuilder/Src/usbd_composite_builder.c ****       iEp = pdev->tclasslist[pdev->classId].EpAdd[2];
 652:USB/Class/CompositeBuilder/Src/usbd_composite_builder.c ****       USBD_CMPSIT_AssignEp(pdev, iEp, USBD_EP_TYPE_INTR, MTP_CMD_PACKET_SIZE);
 653:USB/Class/CompositeBuilder/Src/usbd_composite_builder.c **** 
 654:USB/Class/CompositeBuilder/Src/usbd_composite_builder.c ****       /* Configure and Append the Descriptor */
 655:USB/Class/CompositeBuilder/Src/usbd_composite_builder.c ****       USBD_CMPSIT_MTPDesc(pdev, (uint32_t)pCmpstFSConfDesc, &CurrFSConfDescSz, (uint8_t)USBD_SPEED_
ARM GAS  C:\Users\sapph\AppData\Local\Temp\cc1fiECZ.s 			page 13


 656:USB/Class/CompositeBuilder/Src/usbd_composite_builder.c **** 
 657:USB/Class/CompositeBuilder/Src/usbd_composite_builder.c **** #ifdef USE_USB_HS
 658:USB/Class/CompositeBuilder/Src/usbd_composite_builder.c ****       USBD_CMPSIT_MTPDesc(pdev, (uint32_t)pCmpstHSConfDesc, &CurrHSConfDescSz, (uint8_t)USBD_SPEED_
 659:USB/Class/CompositeBuilder/Src/usbd_composite_builder.c **** #endif /* USE_USB_HS */
 660:USB/Class/CompositeBuilder/Src/usbd_composite_builder.c **** 
 661:USB/Class/CompositeBuilder/Src/usbd_composite_builder.c ****       break;
 662:USB/Class/CompositeBuilder/Src/usbd_composite_builder.c **** #endif /* USBD_CMPSIT_ACTIVATE_MTP */
 663:USB/Class/CompositeBuilder/Src/usbd_composite_builder.c **** 
 664:USB/Class/CompositeBuilder/Src/usbd_composite_builder.c ****     default:
 665:USB/Class/CompositeBuilder/Src/usbd_composite_builder.c ****       UNUSED(idxIf);
 666:USB/Class/CompositeBuilder/Src/usbd_composite_builder.c ****       UNUSED(iEp);
 667:USB/Class/CompositeBuilder/Src/usbd_composite_builder.c ****       UNUSED(USBD_CMPSIT_FindFreeIFNbr);
 668:USB/Class/CompositeBuilder/Src/usbd_composite_builder.c ****       UNUSED(USBD_CMPSIT_AssignEp);
 669:USB/Class/CompositeBuilder/Src/usbd_composite_builder.c ****       break;
 670:USB/Class/CompositeBuilder/Src/usbd_composite_builder.c ****   }
 671:USB/Class/CompositeBuilder/Src/usbd_composite_builder.c **** 
 672:USB/Class/CompositeBuilder/Src/usbd_composite_builder.c ****   return (uint8_t)USBD_OK;
 673:USB/Class/CompositeBuilder/Src/usbd_composite_builder.c **** }
 674:USB/Class/CompositeBuilder/Src/usbd_composite_builder.c **** 
 675:USB/Class/CompositeBuilder/Src/usbd_composite_builder.c **** /**
 676:USB/Class/CompositeBuilder/Src/usbd_composite_builder.c ****   * @brief  USBD_CMPSIT_GetFSCfgDesc
 677:USB/Class/CompositeBuilder/Src/usbd_composite_builder.c ****   *         return configuration descriptor for both FS and HS modes
 678:USB/Class/CompositeBuilder/Src/usbd_composite_builder.c ****   * @param  length : pointer data length
 679:USB/Class/CompositeBuilder/Src/usbd_composite_builder.c ****   * @retval pointer to descriptor buffer
 680:USB/Class/CompositeBuilder/Src/usbd_composite_builder.c ****   */
 681:USB/Class/CompositeBuilder/Src/usbd_composite_builder.c **** uint8_t  *USBD_CMPSIT_GetFSCfgDesc(uint16_t *length)
 682:USB/Class/CompositeBuilder/Src/usbd_composite_builder.c **** {
  31              		.loc 1 682 1 view -0
  32              		.cfi_startproc
  33              		@ args = 0, pretend = 0, frame = 0
  34              		@ frame_needed = 0, uses_anonymous_args = 0
  35              		@ link register save eliminated.
 683:USB/Class/CompositeBuilder/Src/usbd_composite_builder.c ****   *length = (uint16_t)CurrFSConfDescSz;
  36              		.loc 1 683 3 view .LVU1
  37              		.loc 1 683 13 is_stmt 0 view .LVU2
  38 0000 024B     		ldr	r3, .L2
  39 0002 1B68     		ldr	r3, [r3]
  40              		.loc 1 683 11 view .LVU3
  41 0004 0380     		strh	r3, [r0]	@ movhi
 684:USB/Class/CompositeBuilder/Src/usbd_composite_builder.c **** 
 685:USB/Class/CompositeBuilder/Src/usbd_composite_builder.c ****   return USBD_CMPSIT_FSCfgDesc;
  42              		.loc 1 685 3 is_stmt 1 view .LVU4
 686:USB/Class/CompositeBuilder/Src/usbd_composite_builder.c **** }
  43              		.loc 1 686 1 is_stmt 0 view .LVU5
  44 0006 0248     		ldr	r0, .L2+4
  45              	.LVL1:
  46              		.loc 1 686 1 view .LVU6
  47 0008 7047     		bx	lr
  48              	.L3:
  49 000a 00BF     		.align	2
  50              	.L2:
  51 000c 00000000 		.word	CurrFSConfDescSz
  52 0010 00000000 		.word	USBD_CMPSIT_FSCfgDesc
  53              		.cfi_endproc
  54              	.LFE166:
  56              		.section	.text.USBD_CMPSIT_GetOtherSpeedCfgDesc,"ax",%progbits
  57              		.align	1
ARM GAS  C:\Users\sapph\AppData\Local\Temp\cc1fiECZ.s 			page 14


  58              		.global	USBD_CMPSIT_GetOtherSpeedCfgDesc
  59              		.syntax unified
  60              		.thumb
  61              		.thumb_func
  63              	USBD_CMPSIT_GetOtherSpeedCfgDesc:
  64              	.LVL2:
  65              	.LFB167:
 687:USB/Class/CompositeBuilder/Src/usbd_composite_builder.c **** 
 688:USB/Class/CompositeBuilder/Src/usbd_composite_builder.c **** #ifdef USE_USB_HS
 689:USB/Class/CompositeBuilder/Src/usbd_composite_builder.c **** /**
 690:USB/Class/CompositeBuilder/Src/usbd_composite_builder.c ****   * @brief  USBD_CMPSIT_GetHSCfgDesc
 691:USB/Class/CompositeBuilder/Src/usbd_composite_builder.c ****   *         return configuration descriptor for both FS and HS modes
 692:USB/Class/CompositeBuilder/Src/usbd_composite_builder.c ****   * @param  length : pointer data length
 693:USB/Class/CompositeBuilder/Src/usbd_composite_builder.c ****   * @retval pointer to descriptor buffer
 694:USB/Class/CompositeBuilder/Src/usbd_composite_builder.c ****   */
 695:USB/Class/CompositeBuilder/Src/usbd_composite_builder.c **** uint8_t  *USBD_CMPSIT_GetHSCfgDesc(uint16_t *length)
 696:USB/Class/CompositeBuilder/Src/usbd_composite_builder.c **** {
 697:USB/Class/CompositeBuilder/Src/usbd_composite_builder.c ****   *length = (uint16_t)CurrHSConfDescSz;
 698:USB/Class/CompositeBuilder/Src/usbd_composite_builder.c **** 
 699:USB/Class/CompositeBuilder/Src/usbd_composite_builder.c ****   return USBD_CMPSIT_HSCfgDesc;
 700:USB/Class/CompositeBuilder/Src/usbd_composite_builder.c **** }
 701:USB/Class/CompositeBuilder/Src/usbd_composite_builder.c **** #endif /* USE_USB_HS */
 702:USB/Class/CompositeBuilder/Src/usbd_composite_builder.c **** 
 703:USB/Class/CompositeBuilder/Src/usbd_composite_builder.c **** /**
 704:USB/Class/CompositeBuilder/Src/usbd_composite_builder.c ****   * @brief  USBD_CMPSIT_GetOtherSpeedCfgDesc
 705:USB/Class/CompositeBuilder/Src/usbd_composite_builder.c ****   *         return other speed configuration descriptor
 706:USB/Class/CompositeBuilder/Src/usbd_composite_builder.c ****   * @param  length : pointer data length
 707:USB/Class/CompositeBuilder/Src/usbd_composite_builder.c ****   * @retval pointer to descriptor buffer
 708:USB/Class/CompositeBuilder/Src/usbd_composite_builder.c ****   */
 709:USB/Class/CompositeBuilder/Src/usbd_composite_builder.c **** uint8_t  *USBD_CMPSIT_GetOtherSpeedCfgDesc(uint16_t *length)
 710:USB/Class/CompositeBuilder/Src/usbd_composite_builder.c **** {
  66              		.loc 1 710 1 is_stmt 1 view -0
  67              		.cfi_startproc
  68              		@ args = 0, pretend = 0, frame = 0
  69              		@ frame_needed = 0, uses_anonymous_args = 0
  70              		@ link register save eliminated.
 711:USB/Class/CompositeBuilder/Src/usbd_composite_builder.c ****   *length = (uint16_t)CurrFSConfDescSz;
  71              		.loc 1 711 3 view .LVU8
  72              		.loc 1 711 13 is_stmt 0 view .LVU9
  73 0000 024B     		ldr	r3, .L5
  74 0002 1B68     		ldr	r3, [r3]
  75              		.loc 1 711 11 view .LVU10
  76 0004 0380     		strh	r3, [r0]	@ movhi
 712:USB/Class/CompositeBuilder/Src/usbd_composite_builder.c **** 
 713:USB/Class/CompositeBuilder/Src/usbd_composite_builder.c ****   return USBD_CMPSIT_FSCfgDesc;
  77              		.loc 1 713 3 is_stmt 1 view .LVU11
 714:USB/Class/CompositeBuilder/Src/usbd_composite_builder.c **** }
  78              		.loc 1 714 1 is_stmt 0 view .LVU12
  79 0006 0248     		ldr	r0, .L5+4
  80              	.LVL3:
  81              		.loc 1 714 1 view .LVU13
  82 0008 7047     		bx	lr
  83              	.L6:
  84 000a 00BF     		.align	2
  85              	.L5:
  86 000c 00000000 		.word	CurrFSConfDescSz
  87 0010 00000000 		.word	USBD_CMPSIT_FSCfgDesc
ARM GAS  C:\Users\sapph\AppData\Local\Temp\cc1fiECZ.s 			page 15


  88              		.cfi_endproc
  89              	.LFE167:
  91              		.section	.text.USBD_CMPSIT_GetDeviceQualifierDescriptor,"ax",%progbits
  92              		.align	1
  93              		.global	USBD_CMPSIT_GetDeviceQualifierDescriptor
  94              		.syntax unified
  95              		.thumb
  96              		.thumb_func
  98              	USBD_CMPSIT_GetDeviceQualifierDescriptor:
  99              	.LVL4:
 100              	.LFB168:
 715:USB/Class/CompositeBuilder/Src/usbd_composite_builder.c **** 
 716:USB/Class/CompositeBuilder/Src/usbd_composite_builder.c **** /**
 717:USB/Class/CompositeBuilder/Src/usbd_composite_builder.c ****   * @brief  DeviceQualifierDescriptor
 718:USB/Class/CompositeBuilder/Src/usbd_composite_builder.c ****   *         return Device Qualifier descriptor
 719:USB/Class/CompositeBuilder/Src/usbd_composite_builder.c ****   * @param  length : pointer data length
 720:USB/Class/CompositeBuilder/Src/usbd_composite_builder.c ****   * @retval pointer to descriptor buffer
 721:USB/Class/CompositeBuilder/Src/usbd_composite_builder.c ****   */
 722:USB/Class/CompositeBuilder/Src/usbd_composite_builder.c **** uint8_t  *USBD_CMPSIT_GetDeviceQualifierDescriptor(uint16_t *length)
 723:USB/Class/CompositeBuilder/Src/usbd_composite_builder.c **** {
 101              		.loc 1 723 1 is_stmt 1 view -0
 102              		.cfi_startproc
 103              		@ args = 0, pretend = 0, frame = 0
 104              		@ frame_needed = 0, uses_anonymous_args = 0
 105              		@ link register save eliminated.
 724:USB/Class/CompositeBuilder/Src/usbd_composite_builder.c ****   *length = (uint16_t)(sizeof(USBD_CMPSIT_DeviceQualifierDesc));
 106              		.loc 1 724 3 view .LVU15
 107              		.loc 1 724 11 is_stmt 0 view .LVU16
 108 0000 0A23     		movs	r3, #10
 109 0002 0380     		strh	r3, [r0]	@ movhi
 725:USB/Class/CompositeBuilder/Src/usbd_composite_builder.c ****   return USBD_CMPSIT_DeviceQualifierDesc;
 110              		.loc 1 725 3 is_stmt 1 view .LVU17
 726:USB/Class/CompositeBuilder/Src/usbd_composite_builder.c **** }
 111              		.loc 1 726 1 is_stmt 0 view .LVU18
 112 0004 0048     		ldr	r0, .L8
 113              	.LVL5:
 114              		.loc 1 726 1 view .LVU19
 115 0006 7047     		bx	lr
 116              	.L9:
 117              		.align	2
 118              	.L8:
 119 0008 00000000 		.word	USBD_CMPSIT_DeviceQualifierDesc
 120              		.cfi_endproc
 121              	.LFE168:
 123              		.section	.text.USBD_CMPSIT_FindFreeIFNbr,"ax",%progbits
 124              		.align	1
 125              		.syntax unified
 126              		.thumb
 127              		.thumb_func
 129              	USBD_CMPSIT_FindFreeIFNbr:
 130              	.LVL6:
 131              	.LFB169:
 727:USB/Class/CompositeBuilder/Src/usbd_composite_builder.c **** 
 728:USB/Class/CompositeBuilder/Src/usbd_composite_builder.c **** /**
 729:USB/Class/CompositeBuilder/Src/usbd_composite_builder.c ****   * @brief  USBD_CMPSIT_FindFreeIFNbr
 730:USB/Class/CompositeBuilder/Src/usbd_composite_builder.c ****   *         Find the first interface available slot
 731:USB/Class/CompositeBuilder/Src/usbd_composite_builder.c ****   * @param  pdev: device instance
ARM GAS  C:\Users\sapph\AppData\Local\Temp\cc1fiECZ.s 			page 16


 732:USB/Class/CompositeBuilder/Src/usbd_composite_builder.c ****   * @retval The interface number to be used
 733:USB/Class/CompositeBuilder/Src/usbd_composite_builder.c ****   */
 734:USB/Class/CompositeBuilder/Src/usbd_composite_builder.c **** static uint8_t USBD_CMPSIT_FindFreeIFNbr(USBD_HandleTypeDef *pdev)
 735:USB/Class/CompositeBuilder/Src/usbd_composite_builder.c **** {
 132              		.loc 1 735 1 is_stmt 1 view -0
 133              		.cfi_startproc
 134              		@ args = 0, pretend = 0, frame = 0
 135              		@ frame_needed = 0, uses_anonymous_args = 0
 136              		@ link register save eliminated.
 736:USB/Class/CompositeBuilder/Src/usbd_composite_builder.c ****   uint32_t idx = 0U;
 137              		.loc 1 736 3 view .LVU21
 737:USB/Class/CompositeBuilder/Src/usbd_composite_builder.c **** 
 738:USB/Class/CompositeBuilder/Src/usbd_composite_builder.c ****   /* Unroll all already activated classes */
 739:USB/Class/CompositeBuilder/Src/usbd_composite_builder.c ****   for (uint32_t i = 0U; i < pdev->NumClasses; i++)
 138              		.loc 1 739 3 view .LVU22
 139              	.LBB2:
 140              		.loc 1 739 8 view .LVU23
 141              		.loc 1 739 17 is_stmt 0 view .LVU24
 142 0000 4FF0000C 		mov	ip, #0
 143              	.LBE2:
 736:USB/Class/CompositeBuilder/Src/usbd_composite_builder.c ****   uint32_t idx = 0U;
 144              		.loc 1 736 12 view .LVU25
 145 0004 6146     		mov	r1, ip
 146              	.LBB5:
 147              		.loc 1 739 3 view .LVU26
 148 0006 0AE0     		b	.L11
 149              	.LVL7:
 150              	.L12:
 151              	.LBB3:
 740:USB/Class/CompositeBuilder/Src/usbd_composite_builder.c ****   {
 741:USB/Class/CompositeBuilder/Src/usbd_composite_builder.c ****     /* Unroll each class interfaces */
 742:USB/Class/CompositeBuilder/Src/usbd_composite_builder.c ****     for (uint32_t j = 0U; j < pdev->tclasslist[i].NumIf; j++)
 743:USB/Class/CompositeBuilder/Src/usbd_composite_builder.c ****     {
 744:USB/Class/CompositeBuilder/Src/usbd_composite_builder.c ****       /* Increment the interface counter index */
 745:USB/Class/CompositeBuilder/Src/usbd_composite_builder.c ****       idx++;
 152              		.loc 1 745 7 is_stmt 1 view .LVU27
 153              		.loc 1 745 10 is_stmt 0 view .LVU28
 154 0008 0131     		adds	r1, r1, #1
 155              	.LVL8:
 742:USB/Class/CompositeBuilder/Src/usbd_composite_builder.c ****     {
 156              		.loc 1 742 59 is_stmt 1 discriminator 3 view .LVU29
 157 000a 0132     		adds	r2, r2, #1
 158              	.LVL9:
 159              	.L13:
 742:USB/Class/CompositeBuilder/Src/usbd_composite_builder.c ****     {
 160              		.loc 1 742 29 discriminator 1 view .LVU30
 742:USB/Class/CompositeBuilder/Src/usbd_composite_builder.c ****     {
 161              		.loc 1 742 50 is_stmt 0 discriminator 1 view .LVU31
 162 000c 2C23     		movs	r3, #44
 163 000e 03FB0C03 		mla	r3, r3, ip, r0
 164 0012 D3F80833 		ldr	r3, [r3, #776]
 742:USB/Class/CompositeBuilder/Src/usbd_composite_builder.c ****     {
 165              		.loc 1 742 29 discriminator 1 view .LVU32
 166 0016 9342     		cmp	r3, r2
 167 0018 F6D8     		bhi	.L12
 742:USB/Class/CompositeBuilder/Src/usbd_composite_builder.c ****     {
 168              		.loc 1 742 29 discriminator 1 view .LVU33
ARM GAS  C:\Users\sapph\AppData\Local\Temp\cc1fiECZ.s 			page 17


 169              	.LBE3:
 739:USB/Class/CompositeBuilder/Src/usbd_composite_builder.c ****   {
 170              		.loc 1 739 48 is_stmt 1 discriminator 2 view .LVU34
 171 001a 0CF1010C 		add	ip, ip, #1
 172              	.LVL10:
 173              	.L11:
 739:USB/Class/CompositeBuilder/Src/usbd_composite_builder.c ****   {
 174              		.loc 1 739 27 discriminator 1 view .LVU35
 739:USB/Class/CompositeBuilder/Src/usbd_composite_builder.c ****   {
 175              		.loc 1 739 33 is_stmt 0 discriminator 1 view .LVU36
 176 001e D0F8E432 		ldr	r3, [r0, #740]
 739:USB/Class/CompositeBuilder/Src/usbd_composite_builder.c ****   {
 177              		.loc 1 739 27 discriminator 1 view .LVU37
 178 0022 6345     		cmp	r3, ip
 179 0024 01D9     		bls	.L15
 180              	.LBB4:
 742:USB/Class/CompositeBuilder/Src/usbd_composite_builder.c ****     {
 181              		.loc 1 742 19 view .LVU38
 182 0026 0022     		movs	r2, #0
 183 0028 F0E7     		b	.L13
 184              	.L15:
 185              	.LBE4:
 186              	.LBE5:
 746:USB/Class/CompositeBuilder/Src/usbd_composite_builder.c ****     }
 747:USB/Class/CompositeBuilder/Src/usbd_composite_builder.c ****   }
 748:USB/Class/CompositeBuilder/Src/usbd_composite_builder.c **** 
 749:USB/Class/CompositeBuilder/Src/usbd_composite_builder.c ****   /* Return the first available interface slot */
 750:USB/Class/CompositeBuilder/Src/usbd_composite_builder.c ****   return (uint8_t)idx;
 187              		.loc 1 750 3 is_stmt 1 view .LVU39
 751:USB/Class/CompositeBuilder/Src/usbd_composite_builder.c **** }
 188              		.loc 1 751 1 is_stmt 0 view .LVU40
 189 002a C8B2     		uxtb	r0, r1
 190              	.LVL11:
 191              		.loc 1 751 1 view .LVU41
 192 002c 7047     		bx	lr
 193              		.cfi_endproc
 194              	.LFE169:
 196              		.section	.text.USBD_CMPSIT_AddConfDesc,"ax",%progbits
 197              		.align	1
 198              		.syntax unified
 199              		.thumb
 200              		.thumb_func
 202              	USBD_CMPSIT_AddConfDesc:
 203              	.LVL12:
 204              	.LFB170:
 752:USB/Class/CompositeBuilder/Src/usbd_composite_builder.c **** 
 753:USB/Class/CompositeBuilder/Src/usbd_composite_builder.c **** /**
 754:USB/Class/CompositeBuilder/Src/usbd_composite_builder.c ****   * @brief  USBD_CMPSIT_AddToConfDesc
 755:USB/Class/CompositeBuilder/Src/usbd_composite_builder.c ****   *         Add a new class to the configuration descriptor
 756:USB/Class/CompositeBuilder/Src/usbd_composite_builder.c ****   * @param  pdev: device instance
 757:USB/Class/CompositeBuilder/Src/usbd_composite_builder.c ****   * @retval none
 758:USB/Class/CompositeBuilder/Src/usbd_composite_builder.c ****   */
 759:USB/Class/CompositeBuilder/Src/usbd_composite_builder.c **** static void  USBD_CMPSIT_AddConfDesc(uint32_t Conf, __IO uint32_t *pSze)
 760:USB/Class/CompositeBuilder/Src/usbd_composite_builder.c **** {
 205              		.loc 1 760 1 is_stmt 1 view -0
 206              		.cfi_startproc
 207              		@ args = 0, pretend = 0, frame = 0
ARM GAS  C:\Users\sapph\AppData\Local\Temp\cc1fiECZ.s 			page 18


 208              		@ frame_needed = 0, uses_anonymous_args = 0
 209              		@ link register save eliminated.
 761:USB/Class/CompositeBuilder/Src/usbd_composite_builder.c ****   /* Intermediate variable to comply with MISRA-C Rule 11.3 */
 762:USB/Class/CompositeBuilder/Src/usbd_composite_builder.c ****   USBD_ConfigDescTypeDef *ptr = (USBD_ConfigDescTypeDef *)Conf;
 210              		.loc 1 762 3 view .LVU43
 763:USB/Class/CompositeBuilder/Src/usbd_composite_builder.c **** 
 764:USB/Class/CompositeBuilder/Src/usbd_composite_builder.c ****   ptr->bLength = (uint8_t)sizeof(USBD_ConfigDescTypeDef);
 211              		.loc 1 764 3 view .LVU44
 212              		.loc 1 764 16 is_stmt 0 view .LVU45
 213 0000 0923     		movs	r3, #9
 214 0002 0370     		strb	r3, [r0]
 765:USB/Class/CompositeBuilder/Src/usbd_composite_builder.c ****   ptr->bDescriptorType = USB_DESC_TYPE_CONFIGURATION;
 215              		.loc 1 765 3 is_stmt 1 view .LVU46
 216              		.loc 1 765 24 is_stmt 0 view .LVU47
 217 0004 0223     		movs	r3, #2
 218 0006 4370     		strb	r3, [r0, #1]
 766:USB/Class/CompositeBuilder/Src/usbd_composite_builder.c ****   ptr->wTotalLength = 0U;
 219              		.loc 1 766 3 is_stmt 1 view .LVU48
 220              		.loc 1 766 21 is_stmt 0 view .LVU49
 221 0008 0023     		movs	r3, #0
 222 000a 8370     		strb	r3, [r0, #2]
 223 000c C370     		strb	r3, [r0, #3]
 767:USB/Class/CompositeBuilder/Src/usbd_composite_builder.c ****   ptr->bNumInterfaces = 0U;
 224              		.loc 1 767 3 is_stmt 1 view .LVU50
 225              		.loc 1 767 23 is_stmt 0 view .LVU51
 226 000e 0371     		strb	r3, [r0, #4]
 768:USB/Class/CompositeBuilder/Src/usbd_composite_builder.c ****   ptr->bConfigurationValue = 1U;
 227              		.loc 1 768 3 is_stmt 1 view .LVU52
 228              		.loc 1 768 28 is_stmt 0 view .LVU53
 229 0010 0123     		movs	r3, #1
 230 0012 4371     		strb	r3, [r0, #5]
 769:USB/Class/CompositeBuilder/Src/usbd_composite_builder.c ****   ptr->iConfiguration = USBD_CONFIG_STR_DESC_IDX;
 231              		.loc 1 769 3 is_stmt 1 view .LVU54
 232              		.loc 1 769 23 is_stmt 0 view .LVU55
 233 0014 0423     		movs	r3, #4
 234 0016 8371     		strb	r3, [r0, #6]
 770:USB/Class/CompositeBuilder/Src/usbd_composite_builder.c **** 
 771:USB/Class/CompositeBuilder/Src/usbd_composite_builder.c **** #if (USBD_SELF_POWERED == 1U)
 772:USB/Class/CompositeBuilder/Src/usbd_composite_builder.c ****   ptr->bmAttributes = 0xC0U;   /* bmAttributes: Self Powered according to user configuration */
 235              		.loc 1 772 3 is_stmt 1 view .LVU56
 236              		.loc 1 772 21 is_stmt 0 view .LVU57
 237 0018 C023     		movs	r3, #192
 238 001a C371     		strb	r3, [r0, #7]
 773:USB/Class/CompositeBuilder/Src/usbd_composite_builder.c **** #else
 774:USB/Class/CompositeBuilder/Src/usbd_composite_builder.c ****   ptr->bmAttributes = 0x80U;   /* bmAttributes: Bus Powered according to user configuration */
 775:USB/Class/CompositeBuilder/Src/usbd_composite_builder.c **** #endif /* USBD_SELF_POWERED */
 776:USB/Class/CompositeBuilder/Src/usbd_composite_builder.c **** 
 777:USB/Class/CompositeBuilder/Src/usbd_composite_builder.c ****   ptr->bMaxPower = USBD_MAX_POWER;
 239              		.loc 1 777 3 is_stmt 1 view .LVU58
 240              		.loc 1 777 18 is_stmt 0 view .LVU59
 241 001c 3223     		movs	r3, #50
 242 001e 0372     		strb	r3, [r0, #8]
 778:USB/Class/CompositeBuilder/Src/usbd_composite_builder.c **** 
 779:USB/Class/CompositeBuilder/Src/usbd_composite_builder.c ****   *pSze += sizeof(USBD_ConfigDescTypeDef);
 243              		.loc 1 779 3 is_stmt 1 view .LVU60
 244 0020 0B68     		ldr	r3, [r1]
 245              		.loc 1 779 9 is_stmt 0 view .LVU61
ARM GAS  C:\Users\sapph\AppData\Local\Temp\cc1fiECZ.s 			page 19


 246 0022 0933     		adds	r3, r3, #9
 247 0024 0B60     		str	r3, [r1]
 780:USB/Class/CompositeBuilder/Src/usbd_composite_builder.c **** }
 248              		.loc 1 780 1 view .LVU62
 249 0026 7047     		bx	lr
 250              		.cfi_endproc
 251              	.LFE170:
 253              		.section	.text.USBD_CMPSIT_AssignEp,"ax",%progbits
 254              		.align	1
 255              		.syntax unified
 256              		.thumb
 257              		.thumb_func
 259              	USBD_CMPSIT_AssignEp:
 260              	.LVL13:
 261              	.LFB171:
 781:USB/Class/CompositeBuilder/Src/usbd_composite_builder.c **** 
 782:USB/Class/CompositeBuilder/Src/usbd_composite_builder.c **** /**
 783:USB/Class/CompositeBuilder/Src/usbd_composite_builder.c ****   * @brief  USBD_CMPSIT_AssignEp
 784:USB/Class/CompositeBuilder/Src/usbd_composite_builder.c ****   *         Assign and endpoint
 785:USB/Class/CompositeBuilder/Src/usbd_composite_builder.c ****   * @param  pdev: device instance
 786:USB/Class/CompositeBuilder/Src/usbd_composite_builder.c ****   * @param  Add: Endpoint address
 787:USB/Class/CompositeBuilder/Src/usbd_composite_builder.c ****   * @param  Type: Endpoint type
 788:USB/Class/CompositeBuilder/Src/usbd_composite_builder.c ****   * @param  Sze: Endpoint max packet size
 789:USB/Class/CompositeBuilder/Src/usbd_composite_builder.c ****   * @retval none
 790:USB/Class/CompositeBuilder/Src/usbd_composite_builder.c ****   */
 791:USB/Class/CompositeBuilder/Src/usbd_composite_builder.c **** static void  USBD_CMPSIT_AssignEp(USBD_HandleTypeDef *pdev, uint8_t Add, uint8_t Type, uint32_t Sze
 792:USB/Class/CompositeBuilder/Src/usbd_composite_builder.c **** {
 262              		.loc 1 792 1 is_stmt 1 view -0
 263              		.cfi_startproc
 264              		@ args = 0, pretend = 0, frame = 0
 265              		@ frame_needed = 0, uses_anonymous_args = 0
 266              		.loc 1 792 1 is_stmt 0 view .LVU64
 267 0000 30B5     		push	{r4, r5, lr}
 268              		.cfi_def_cfa_offset 12
 269              		.cfi_offset 4, -12
 270              		.cfi_offset 5, -8
 271              		.cfi_offset 14, -4
 793:USB/Class/CompositeBuilder/Src/usbd_composite_builder.c ****   uint32_t idx = 0U;
 272              		.loc 1 793 3 is_stmt 1 view .LVU65
 273              	.LVL14:
 794:USB/Class/CompositeBuilder/Src/usbd_composite_builder.c **** 
 795:USB/Class/CompositeBuilder/Src/usbd_composite_builder.c ****   /* Find the first available endpoint slot */
 796:USB/Class/CompositeBuilder/Src/usbd_composite_builder.c ****   while (((idx < (pdev->tclasslist[pdev->classId]).NumEps) && \
 274              		.loc 1 796 3 view .LVU66
 793:USB/Class/CompositeBuilder/Src/usbd_composite_builder.c ****   uint32_t idx = 0U;
 275              		.loc 1 793 12 is_stmt 0 view .LVU67
 276 0002 4FF0000E 		mov	lr, #0
 277              		.loc 1 796 9 view .LVU68
 278 0006 01E0     		b	.L18
 279              	.LVL15:
 280              	.L20:
 797:USB/Class/CompositeBuilder/Src/usbd_composite_builder.c ****           ((pdev->tclasslist[pdev->classId].Eps[idx].is_used) != 0U)))
 798:USB/Class/CompositeBuilder/Src/usbd_composite_builder.c ****   {
 799:USB/Class/CompositeBuilder/Src/usbd_composite_builder.c ****     /* Increment the index */
 800:USB/Class/CompositeBuilder/Src/usbd_composite_builder.c ****     idx++;
 281              		.loc 1 800 5 is_stmt 1 view .LVU69
 282              		.loc 1 800 8 is_stmt 0 view .LVU70
ARM GAS  C:\Users\sapph\AppData\Local\Temp\cc1fiECZ.s 			page 20


 283 0008 0EF1010E 		add	lr, lr, #1
 284              	.LVL16:
 285              	.L18:
 796:USB/Class/CompositeBuilder/Src/usbd_composite_builder.c ****           ((pdev->tclasslist[pdev->classId].Eps[idx].is_used) != 0U)))
 286              		.loc 1 796 60 is_stmt 1 view .LVU71
 796:USB/Class/CompositeBuilder/Src/usbd_composite_builder.c ****           ((pdev->tclasslist[pdev->classId].Eps[idx].is_used) != 0U)))
 287              		.loc 1 796 40 is_stmt 0 view .LVU72
 288 000c D0F8E042 		ldr	r4, [r0, #736]
 796:USB/Class/CompositeBuilder/Src/usbd_composite_builder.c ****           ((pdev->tclasslist[pdev->classId].Eps[idx].is_used) != 0U)))
 289              		.loc 1 796 51 view .LVU73
 290 0010 4FF02C0C 		mov	ip, #44
 291 0014 0CFB040C 		mla	ip, ip, r4, r0
 292 0018 DCF8F452 		ldr	r5, [ip, #756]
 796:USB/Class/CompositeBuilder/Src/usbd_composite_builder.c ****           ((pdev->tclasslist[pdev->classId].Eps[idx].is_used) != 0U)))
 293              		.loc 1 796 60 view .LVU74
 294 001c 7545     		cmp	r5, lr
 295 001e 0CD9     		bls	.L19
 797:USB/Class/CompositeBuilder/Src/usbd_composite_builder.c ****           ((pdev->tclasslist[pdev->classId].Eps[idx].is_used) != 0U)))
 296              		.loc 1 797 53 view .LVU75
 297 0020 04EB840C 		add	ip, r4, r4, lsl #2
 298 0024 04EB4C0C 		add	ip, r4, ip, lsl #1
 299 0028 F444     		add	ip, ip, lr
 300 002a 0CF1BE0C 		add	ip, ip, #190
 301 002e 00EB8C0C 		add	ip, r0, ip, lsl #2
 302 0032 9CF80350 		ldrb	r5, [ip, #3]	@ zero_extendqisi2
 796:USB/Class/CompositeBuilder/Src/usbd_composite_builder.c ****           ((pdev->tclasslist[pdev->classId].Eps[idx].is_used) != 0U)))
 303              		.loc 1 796 60 discriminator 1 view .LVU76
 304 0036 002D     		cmp	r5, #0
 305 0038 E6D1     		bne	.L20
 306              	.L19:
 801:USB/Class/CompositeBuilder/Src/usbd_composite_builder.c ****   }
 802:USB/Class/CompositeBuilder/Src/usbd_composite_builder.c **** 
 803:USB/Class/CompositeBuilder/Src/usbd_composite_builder.c ****   /* Configure the endpoint */
 804:USB/Class/CompositeBuilder/Src/usbd_composite_builder.c ****   pdev->tclasslist[pdev->classId].Eps[idx].add = Add;
 307              		.loc 1 804 3 is_stmt 1 view .LVU77
 308              		.loc 1 804 48 is_stmt 0 view .LVU78
 309 003a 04EB8405 		add	r5, r4, r4, lsl #2
 310 003e 04EB4504 		add	r4, r4, r5, lsl #1
 311 0042 7444     		add	r4, r4, lr
 312 0044 BE34     		adds	r4, r4, #190
 313 0046 00F82410 		strb	r1, [r0, r4, lsl #2]
 805:USB/Class/CompositeBuilder/Src/usbd_composite_builder.c ****   pdev->tclasslist[pdev->classId].Eps[idx].type = Type;
 314              		.loc 1 805 3 is_stmt 1 view .LVU79
 315              		.loc 1 805 49 is_stmt 0 view .LVU80
 316 004a 00EB8400 		add	r0, r0, r4, lsl #2
 317              	.LVL17:
 318              		.loc 1 805 49 view .LVU81
 319 004e 4270     		strb	r2, [r0, #1]
 806:USB/Class/CompositeBuilder/Src/usbd_composite_builder.c ****   pdev->tclasslist[pdev->classId].Eps[idx].size = (uint8_t)Sze;
 320              		.loc 1 806 3 is_stmt 1 view .LVU82
 321              		.loc 1 806 49 is_stmt 0 view .LVU83
 322 0050 8370     		strb	r3, [r0, #2]
 807:USB/Class/CompositeBuilder/Src/usbd_composite_builder.c ****   pdev->tclasslist[pdev->classId].Eps[idx].is_used = 1U;
 323              		.loc 1 807 3 is_stmt 1 view .LVU84
 324              		.loc 1 807 52 is_stmt 0 view .LVU85
 325 0052 0123     		movs	r3, #1
 326              	.LVL18:
ARM GAS  C:\Users\sapph\AppData\Local\Temp\cc1fiECZ.s 			page 21


 327              		.loc 1 807 52 view .LVU86
 328 0054 C370     		strb	r3, [r0, #3]
 808:USB/Class/CompositeBuilder/Src/usbd_composite_builder.c **** }
 329              		.loc 1 808 1 view .LVU87
 330 0056 30BD     		pop	{r4, r5, pc}
 331              		.cfi_endproc
 332              	.LFE171:
 334              		.section	.text.USBD_CMPSIT_HIDMouseDesc,"ax",%progbits
 335              		.align	1
 336              		.syntax unified
 337              		.thumb
 338              		.thumb_func
 340              	USBD_CMPSIT_HIDMouseDesc:
 341              	.LVL19:
 342              	.LFB172:
 809:USB/Class/CompositeBuilder/Src/usbd_composite_builder.c **** 
 810:USB/Class/CompositeBuilder/Src/usbd_composite_builder.c **** #if USBD_CMPSIT_ACTIVATE_HID == 1
 811:USB/Class/CompositeBuilder/Src/usbd_composite_builder.c **** /**
 812:USB/Class/CompositeBuilder/Src/usbd_composite_builder.c ****   * @brief  USBD_CMPSIT_HIDMouseDesc
 813:USB/Class/CompositeBuilder/Src/usbd_composite_builder.c ****   *         Configure and Append the HID Mouse Descriptor
 814:USB/Class/CompositeBuilder/Src/usbd_composite_builder.c ****   * @param  pdev: device instance
 815:USB/Class/CompositeBuilder/Src/usbd_composite_builder.c ****   * @param  pConf: Configuration descriptor pointer
 816:USB/Class/CompositeBuilder/Src/usbd_composite_builder.c ****   * @param  Sze: pointer to the current configuration descriptor size
 817:USB/Class/CompositeBuilder/Src/usbd_composite_builder.c ****   * @retval None
 818:USB/Class/CompositeBuilder/Src/usbd_composite_builder.c ****   */
 819:USB/Class/CompositeBuilder/Src/usbd_composite_builder.c **** static void  USBD_CMPSIT_HIDMouseDesc(USBD_HandleTypeDef *pdev, uint32_t pConf,
 820:USB/Class/CompositeBuilder/Src/usbd_composite_builder.c ****                                       __IO uint32_t *Sze, uint8_t speed)
 821:USB/Class/CompositeBuilder/Src/usbd_composite_builder.c **** {
 343              		.loc 1 821 1 is_stmt 1 view -0
 344              		.cfi_startproc
 345              		@ args = 0, pretend = 0, frame = 0
 346              		@ frame_needed = 0, uses_anonymous_args = 0
 347              		.loc 1 821 1 is_stmt 0 view .LVU89
 348 0000 2DE9F043 		push	{r4, r5, r6, r7, r8, r9, lr}
 349              		.cfi_def_cfa_offset 28
 350              		.cfi_offset 4, -28
 351              		.cfi_offset 5, -24
 352              		.cfi_offset 6, -20
 353              		.cfi_offset 7, -16
 354              		.cfi_offset 8, -12
 355              		.cfi_offset 9, -8
 356              		.cfi_offset 14, -4
 822:USB/Class/CompositeBuilder/Src/usbd_composite_builder.c ****   static USBD_IfDescTypeDef *pIfDesc;
 357              		.loc 1 822 3 is_stmt 1 view .LVU90
 823:USB/Class/CompositeBuilder/Src/usbd_composite_builder.c ****   static USBD_EpDescTypeDef *pEpDesc;
 358              		.loc 1 823 3 view .LVU91
 824:USB/Class/CompositeBuilder/Src/usbd_composite_builder.c ****   static USBD_HIDDescTypeDef *pHidMouseDesc;
 359              		.loc 1 824 3 view .LVU92
 825:USB/Class/CompositeBuilder/Src/usbd_composite_builder.c **** 
 826:USB/Class/CompositeBuilder/Src/usbd_composite_builder.c ****   /* Append HID Interface descriptor to Configuration descriptor */
 827:USB/Class/CompositeBuilder/Src/usbd_composite_builder.c ****   __USBD_CMPSIT_SET_IF(pdev->tclasslist[pdev->classId].Ifs[0], 0U, \
 360              		.loc 1 827 3 view .LVU93
 361              		.loc 1 827 3 view .LVU94
 362 0004 1568     		ldr	r5, [r2]
 363 0006 6C18     		adds	r4, r5, r1
 364 0008 324E     		ldr	r6, .L26
 365 000a 3460     		str	r4, [r6]
ARM GAS  C:\Users\sapph\AppData\Local\Temp\cc1fiECZ.s 			page 22


 366              		.loc 1 827 3 view .LVU95
 367 000c 0926     		movs	r6, #9
 368 000e 6E54     		strb	r6, [r5, r1]
 369              		.loc 1 827 3 view .LVU96
 370 0010 0425     		movs	r5, #4
 371 0012 6570     		strb	r5, [r4, #1]
 372              		.loc 1 827 3 view .LVU97
 373 0014 D0F8E052 		ldr	r5, [r0, #736]
 374 0018 4FF02C0E 		mov	lr, #44
 375 001c 0EFB0505 		mla	r5, lr, r5, r0
 376 0020 95F80C53 		ldrb	r5, [r5, #780]	@ zero_extendqisi2
 377 0024 A570     		strb	r5, [r4, #2]
 378              		.loc 1 827 3 view .LVU98
 379 0026 4FF0000C 		mov	ip, #0
 380 002a 84F803C0 		strb	ip, [r4, #3]
 381              		.loc 1 827 3 view .LVU99
 382 002e D0F8E052 		ldr	r5, [r0, #736]
 383 0032 0EFB0505 		mla	r5, lr, r5, r0
 384 0036 95F8F452 		ldrb	r5, [r5, #756]	@ zero_extendqisi2
 385 003a 2571     		strb	r5, [r4, #4]
 386              		.loc 1 827 3 view .LVU100
 387 003c 0325     		movs	r5, #3
 388 003e 6571     		strb	r5, [r4, #5]
 389              		.loc 1 827 3 view .LVU101
 390 0040 0127     		movs	r7, #1
 391 0042 A771     		strb	r7, [r4, #6]
 392              		.loc 1 827 3 view .LVU102
 393 0044 4FF00208 		mov	r8, #2
 394 0048 84F80780 		strb	r8, [r4, #7]
 395              		.loc 1 827 3 view .LVU103
 396 004c 84F808C0 		strb	ip, [r4, #8]
 397              		.loc 1 827 3 view .LVU104
 398 0050 1468     		ldr	r4, [r2]
 399 0052 3444     		add	r4, r4, r6
 400 0054 1460     		str	r4, [r2]
 401              		.loc 1 827 3 view .LVU105
 828:USB/Class/CompositeBuilder/Src/usbd_composite_builder.c ****                        (uint8_t)(pdev->tclasslist[pdev->classId].NumEps), 0x03U, 0x01U, 0x02U, 0U);
 829:USB/Class/CompositeBuilder/Src/usbd_composite_builder.c **** 
 830:USB/Class/CompositeBuilder/Src/usbd_composite_builder.c ****   /* Append HID Functional descriptor to Configuration descriptor */
 831:USB/Class/CompositeBuilder/Src/usbd_composite_builder.c ****   pHidMouseDesc = ((USBD_HIDDescTypeDef *)(pConf + *Sze));
 402              		.loc 1 831 3 view .LVU106
 403              		.loc 1 831 52 is_stmt 0 view .LVU107
 404 0056 D2F80080 		ldr	r8, [r2]
 405              		.loc 1 831 50 view .LVU108
 406 005a 08EB0104 		add	r4, r8, r1
 407              		.loc 1 831 17 view .LVU109
 408 005e DFF87C90 		ldr	r9, .L26+8
 409 0062 C9F80040 		str	r4, [r9]
 832:USB/Class/CompositeBuilder/Src/usbd_composite_builder.c ****   pHidMouseDesc->bLength = (uint8_t)sizeof(USBD_HIDDescTypeDef);
 410              		.loc 1 832 3 is_stmt 1 view .LVU110
 411              		.loc 1 832 26 is_stmt 0 view .LVU111
 412 0066 08F80160 		strb	r6, [r8, r1]
 833:USB/Class/CompositeBuilder/Src/usbd_composite_builder.c ****   pHidMouseDesc->bDescriptorType = HID_DESCRIPTOR_TYPE;
 413              		.loc 1 833 3 is_stmt 1 view .LVU112
 414              		.loc 1 833 34 is_stmt 0 view .LVU113
 415 006a 2126     		movs	r6, #33
 416 006c 6670     		strb	r6, [r4, #1]
ARM GAS  C:\Users\sapph\AppData\Local\Temp\cc1fiECZ.s 			page 23


 834:USB/Class/CompositeBuilder/Src/usbd_composite_builder.c ****   pHidMouseDesc->bcdHID = 0x0111U;
 417              		.loc 1 834 3 is_stmt 1 view .LVU114
 418              		.loc 1 834 25 is_stmt 0 view .LVU115
 419 006e 1126     		movs	r6, #17
 420 0070 A670     		strb	r6, [r4, #2]
 421 0072 E770     		strb	r7, [r4, #3]
 835:USB/Class/CompositeBuilder/Src/usbd_composite_builder.c ****   pHidMouseDesc->bCountryCode = 0x00U;
 422              		.loc 1 835 3 is_stmt 1 view .LVU116
 423              		.loc 1 835 31 is_stmt 0 view .LVU117
 424 0074 84F804C0 		strb	ip, [r4, #4]
 836:USB/Class/CompositeBuilder/Src/usbd_composite_builder.c ****   pHidMouseDesc->bNumDescriptors = 0x01U;
 425              		.loc 1 836 3 is_stmt 1 view .LVU118
 426              		.loc 1 836 34 is_stmt 0 view .LVU119
 427 0078 6771     		strb	r7, [r4, #5]
 837:USB/Class/CompositeBuilder/Src/usbd_composite_builder.c ****   pHidMouseDesc->bHIDDescriptorType = 0x22U;
 428              		.loc 1 837 3 is_stmt 1 view .LVU120
 429              		.loc 1 837 37 is_stmt 0 view .LVU121
 430 007a 2226     		movs	r6, #34
 431 007c A671     		strb	r6, [r4, #6]
 838:USB/Class/CompositeBuilder/Src/usbd_composite_builder.c ****   pHidMouseDesc->wItemLength = HID_MOUSE_REPORT_DESC_SIZE;
 432              		.loc 1 838 3 is_stmt 1 view .LVU122
 433              		.loc 1 838 30 is_stmt 0 view .LVU123
 434 007e 4A26     		movs	r6, #74
 435 0080 E671     		strb	r6, [r4, #7]
 436 0082 84F808C0 		strb	ip, [r4, #8]
 839:USB/Class/CompositeBuilder/Src/usbd_composite_builder.c ****   *Sze += (uint32_t)sizeof(USBD_HIDDescTypeDef);
 437              		.loc 1 839 3 is_stmt 1 view .LVU124
 438 0086 1468     		ldr	r4, [r2]
 439              		.loc 1 839 8 is_stmt 0 view .LVU125
 440 0088 0934     		adds	r4, r4, #9
 441 008a 1460     		str	r4, [r2]
 840:USB/Class/CompositeBuilder/Src/usbd_composite_builder.c **** 
 841:USB/Class/CompositeBuilder/Src/usbd_composite_builder.c ****   /* Append Endpoint descriptor to Configuration descriptor */
 842:USB/Class/CompositeBuilder/Src/usbd_composite_builder.c ****   __USBD_CMPSIT_SET_EP(pdev->tclasslist[pdev->classId].Eps[0].add, USBD_EP_TYPE_INTR, HID_EPIN_SIZE
 442              		.loc 1 842 3 is_stmt 1 view .LVU126
 443              		.loc 1 842 3 view .LVU127
 444 008c 1668     		ldr	r6, [r2]
 445 008e 7418     		adds	r4, r6, r1
 446 0090 114F     		ldr	r7, .L26+4
 447 0092 3C60     		str	r4, [r7]
 448              		.loc 1 842 3 view .LVU128
 449 0094 0727     		movs	r7, #7
 450 0096 7754     		strb	r7, [r6, r1]
 451              		.loc 1 842 3 view .LVU129
 452 0098 0526     		movs	r6, #5
 453 009a 6670     		strb	r6, [r4, #1]
 454              		.loc 1 842 3 view .LVU130
 455 009c D0F8E062 		ldr	r6, [r0, #736]
 456 00a0 0EFB0600 		mla	r0, lr, r6, r0
 457              	.LVL20:
 458              		.loc 1 842 3 is_stmt 0 view .LVU131
 459 00a4 90F8F802 		ldrb	r0, [r0, #760]	@ zero_extendqisi2
 460 00a8 A070     		strb	r0, [r4, #2]
 461              		.loc 1 842 3 is_stmt 1 view .LVU132
 462 00aa E570     		strb	r5, [r4, #3]
 463              		.loc 1 842 3 view .LVU133
 464 00ac 0420     		movs	r0, #4
ARM GAS  C:\Users\sapph\AppData\Local\Temp\cc1fiECZ.s 			page 24


 465 00ae 2071     		strb	r0, [r4, #4]
 466 00b0 84F805C0 		strb	ip, [r4, #5]
 467              		.loc 1 842 3 view .LVU134
 468 00b4 53B9     		cbnz	r3, .L23
 469              		.loc 1 842 3 discriminator 1 view .LVU135
 470 00b6 A771     		strb	r7, [r4, #6]
 471              	.LVL21:
 472              	.L24:
 473              		.loc 1 842 3 discriminator 4 view .LVU136
 474 00b8 1368     		ldr	r3, [r2]
 475 00ba 0733     		adds	r3, r3, #7
 476 00bc 1360     		str	r3, [r2]
 477              		.loc 1 842 3 discriminator 4 view .LVU137
 843:USB/Class/CompositeBuilder/Src/usbd_composite_builder.c ****                        HID_HS_BINTERVAL, HID_FS_BINTERVAL);
 844:USB/Class/CompositeBuilder/Src/usbd_composite_builder.c **** 
 845:USB/Class/CompositeBuilder/Src/usbd_composite_builder.c ****   /* Update Config Descriptor and IAD descriptor */
 846:USB/Class/CompositeBuilder/Src/usbd_composite_builder.c ****   ((USBD_ConfigDescTypeDef *)pConf)->bNumInterfaces += 1U;
 478              		.loc 1 846 3 view .LVU138
 479              		.loc 1 846 36 is_stmt 0 view .LVU139
 480 00be 0B79     		ldrb	r3, [r1, #4]	@ zero_extendqisi2
 481              		.loc 1 846 53 view .LVU140
 482 00c0 0133     		adds	r3, r3, #1
 483 00c2 0B71     		strb	r3, [r1, #4]
 847:USB/Class/CompositeBuilder/Src/usbd_composite_builder.c ****   ((USBD_ConfigDescTypeDef *)pConf)->wTotalLength  = (uint16_t)(*Sze);
 484              		.loc 1 847 3 is_stmt 1 view .LVU141
 485              		.loc 1 847 65 is_stmt 0 view .LVU142
 486 00c4 1368     		ldr	r3, [r2]
 487              		.loc 1 847 52 view .LVU143
 488 00c6 4B80     		strh	r3, [r1, #2]	@ unaligned
 848:USB/Class/CompositeBuilder/Src/usbd_composite_builder.c **** }
 489              		.loc 1 848 1 view .LVU144
 490 00c8 BDE8F083 		pop	{r4, r5, r6, r7, r8, r9, pc}
 491              	.LVL22:
 492              	.L23:
 842:USB/Class/CompositeBuilder/Src/usbd_composite_builder.c ****                        HID_HS_BINTERVAL, HID_FS_BINTERVAL);
 493              		.loc 1 842 3 is_stmt 1 discriminator 2 view .LVU145
 494 00cc 0A23     		movs	r3, #10
 495              	.LVL23:
 842:USB/Class/CompositeBuilder/Src/usbd_composite_builder.c ****                        HID_HS_BINTERVAL, HID_FS_BINTERVAL);
 496              		.loc 1 842 3 is_stmt 0 discriminator 2 view .LVU146
 497 00ce A371     		strb	r3, [r4, #6]
 498 00d0 F2E7     		b	.L24
 499              	.L27:
 500 00d2 00BF     		.align	2
 501              	.L26:
 502 00d4 00000000 		.word	pIfDesc.9
 503 00d8 00000000 		.word	pEpDesc.7
 504 00dc 00000000 		.word	pHidMouseDesc.8
 505              		.cfi_endproc
 506              	.LFE172:
 508              		.section	.text.USBD_CMPSIT_CDCDesc,"ax",%progbits
 509              		.align	1
 510              		.syntax unified
 511              		.thumb
 512              		.thumb_func
 514              	USBD_CMPSIT_CDCDesc:
 515              	.LVL24:
ARM GAS  C:\Users\sapph\AppData\Local\Temp\cc1fiECZ.s 			page 25


 516              	.LFB173:
 849:USB/Class/CompositeBuilder/Src/usbd_composite_builder.c **** #endif /* USBD_CMPSIT_ACTIVATE_HID == 1 */
 850:USB/Class/CompositeBuilder/Src/usbd_composite_builder.c **** 
 851:USB/Class/CompositeBuilder/Src/usbd_composite_builder.c **** #if USBD_CMPSIT_ACTIVATE_MSC == 1
 852:USB/Class/CompositeBuilder/Src/usbd_composite_builder.c **** /**
 853:USB/Class/CompositeBuilder/Src/usbd_composite_builder.c ****   * @brief  USBD_CMPSIT_MSCDesc
 854:USB/Class/CompositeBuilder/Src/usbd_composite_builder.c ****   *         Configure and Append the MSC Descriptor
 855:USB/Class/CompositeBuilder/Src/usbd_composite_builder.c ****   * @param  pdev: device instance
 856:USB/Class/CompositeBuilder/Src/usbd_composite_builder.c ****   * @param  pConf: Configuration descriptor pointer
 857:USB/Class/CompositeBuilder/Src/usbd_composite_builder.c ****   * @param  Sze: pointer to the current configuration descriptor size
 858:USB/Class/CompositeBuilder/Src/usbd_composite_builder.c ****   * @retval None
 859:USB/Class/CompositeBuilder/Src/usbd_composite_builder.c ****   */
 860:USB/Class/CompositeBuilder/Src/usbd_composite_builder.c **** static void  USBD_CMPSIT_MSCDesc(USBD_HandleTypeDef *pdev, uint32_t pConf, __IO uint32_t *Sze, uint
 861:USB/Class/CompositeBuilder/Src/usbd_composite_builder.c **** {
 862:USB/Class/CompositeBuilder/Src/usbd_composite_builder.c ****   USBD_IfDescTypeDef *pIfDesc;
 863:USB/Class/CompositeBuilder/Src/usbd_composite_builder.c ****   USBD_EpDescTypeDef *pEpDesc;
 864:USB/Class/CompositeBuilder/Src/usbd_composite_builder.c **** 
 865:USB/Class/CompositeBuilder/Src/usbd_composite_builder.c ****   /* Append MSC Interface descriptor */
 866:USB/Class/CompositeBuilder/Src/usbd_composite_builder.c ****   __USBD_CMPSIT_SET_IF((pdev->tclasslist[pdev->classId].Ifs[0]), (0U), \
 867:USB/Class/CompositeBuilder/Src/usbd_composite_builder.c ****                        (uint8_t)(pdev->tclasslist[pdev->classId].NumEps), (0x08U), (0x06U), (0x50U)
 868:USB/Class/CompositeBuilder/Src/usbd_composite_builder.c **** 
 869:USB/Class/CompositeBuilder/Src/usbd_composite_builder.c ****   if (speed == (uint8_t)USBD_SPEED_HIGH)
 870:USB/Class/CompositeBuilder/Src/usbd_composite_builder.c ****   {
 871:USB/Class/CompositeBuilder/Src/usbd_composite_builder.c ****     pdev->tclasslist[pdev->classId].CurrPcktSze = MSC_MAX_HS_PACKET;
 872:USB/Class/CompositeBuilder/Src/usbd_composite_builder.c ****   }
 873:USB/Class/CompositeBuilder/Src/usbd_composite_builder.c **** 
 874:USB/Class/CompositeBuilder/Src/usbd_composite_builder.c ****   /* Append Endpoint descriptor to Configuration descriptor */
 875:USB/Class/CompositeBuilder/Src/usbd_composite_builder.c ****   __USBD_CMPSIT_SET_EP((pdev->tclasslist[pdev->classId].Eps[0].add), (USBD_EP_TYPE_BULK), \
 876:USB/Class/CompositeBuilder/Src/usbd_composite_builder.c ****                        (pdev->tclasslist[pdev->classId].CurrPcktSze), (0U), (0U));
 877:USB/Class/CompositeBuilder/Src/usbd_composite_builder.c **** 
 878:USB/Class/CompositeBuilder/Src/usbd_composite_builder.c ****   /* Append Endpoint descriptor to Configuration descriptor */
 879:USB/Class/CompositeBuilder/Src/usbd_composite_builder.c ****   __USBD_CMPSIT_SET_EP((pdev->tclasslist[pdev->classId].Eps[1].add), (USBD_EP_TYPE_BULK), \
 880:USB/Class/CompositeBuilder/Src/usbd_composite_builder.c ****                        (pdev->tclasslist[pdev->classId].CurrPcktSze), (0U), (0U));
 881:USB/Class/CompositeBuilder/Src/usbd_composite_builder.c **** 
 882:USB/Class/CompositeBuilder/Src/usbd_composite_builder.c ****   /* Update Config Descriptor and IAD descriptor */
 883:USB/Class/CompositeBuilder/Src/usbd_composite_builder.c ****   ((USBD_ConfigDescTypeDef *)pConf)->bNumInterfaces += 1U;
 884:USB/Class/CompositeBuilder/Src/usbd_composite_builder.c ****   ((USBD_ConfigDescTypeDef *)pConf)->wTotalLength = (uint16_t)(*Sze);
 885:USB/Class/CompositeBuilder/Src/usbd_composite_builder.c **** }
 886:USB/Class/CompositeBuilder/Src/usbd_composite_builder.c **** #endif /* USBD_CMPSIT_ACTIVATE_MSC == 1 */
 887:USB/Class/CompositeBuilder/Src/usbd_composite_builder.c **** 
 888:USB/Class/CompositeBuilder/Src/usbd_composite_builder.c **** #if USBD_CMPSIT_ACTIVATE_CDC == 1
 889:USB/Class/CompositeBuilder/Src/usbd_composite_builder.c **** /**
 890:USB/Class/CompositeBuilder/Src/usbd_composite_builder.c ****   * @brief  USBD_CMPSIT_MSCDesc
 891:USB/Class/CompositeBuilder/Src/usbd_composite_builder.c ****   *         Configure and Append the HID Mouse Descriptor
 892:USB/Class/CompositeBuilder/Src/usbd_composite_builder.c ****   * @param  pdev: device instance
 893:USB/Class/CompositeBuilder/Src/usbd_composite_builder.c ****   * @param  pConf: Configuration descriptor pointer
 894:USB/Class/CompositeBuilder/Src/usbd_composite_builder.c ****   * @param  Sze: pointer to the current configuration descriptor size
 895:USB/Class/CompositeBuilder/Src/usbd_composite_builder.c ****   * @retval None
 896:USB/Class/CompositeBuilder/Src/usbd_composite_builder.c ****   */
 897:USB/Class/CompositeBuilder/Src/usbd_composite_builder.c **** static void  USBD_CMPSIT_CDCDesc(USBD_HandleTypeDef *pdev, uint32_t pConf, __IO uint32_t *Sze, uint
 898:USB/Class/CompositeBuilder/Src/usbd_composite_builder.c **** {
 517              		.loc 1 898 1 is_stmt 1 view -0
 518              		.cfi_startproc
 519              		@ args = 0, pretend = 0, frame = 0
 520              		@ frame_needed = 0, uses_anonymous_args = 0
 521              		.loc 1 898 1 is_stmt 0 view .LVU148
 522 0000 2DE9F04F 		push	{r4, r5, r6, r7, r8, r9, r10, fp, lr}
ARM GAS  C:\Users\sapph\AppData\Local\Temp\cc1fiECZ.s 			page 26


 523              		.cfi_def_cfa_offset 36
 524              		.cfi_offset 4, -36
 525              		.cfi_offset 5, -32
 526              		.cfi_offset 6, -28
 527              		.cfi_offset 7, -24
 528              		.cfi_offset 8, -20
 529              		.cfi_offset 9, -16
 530              		.cfi_offset 10, -12
 531              		.cfi_offset 11, -8
 532              		.cfi_offset 14, -4
 899:USB/Class/CompositeBuilder/Src/usbd_composite_builder.c ****   static USBD_IfDescTypeDef               *pIfDesc;
 533              		.loc 1 899 3 is_stmt 1 view .LVU149
 900:USB/Class/CompositeBuilder/Src/usbd_composite_builder.c ****   static USBD_EpDescTypeDef               *pEpDesc;
 534              		.loc 1 900 3 view .LVU150
 901:USB/Class/CompositeBuilder/Src/usbd_composite_builder.c ****   static USBD_CDCHeaderFuncDescTypeDef    *pHeadDesc;
 535              		.loc 1 901 3 view .LVU151
 902:USB/Class/CompositeBuilder/Src/usbd_composite_builder.c ****   static USBD_CDCCallMgmFuncDescTypeDef   *pCallMgmDesc;
 536              		.loc 1 902 3 view .LVU152
 903:USB/Class/CompositeBuilder/Src/usbd_composite_builder.c ****   static USBD_CDCACMFuncDescTypeDef       *pACMDesc;
 537              		.loc 1 903 3 view .LVU153
 904:USB/Class/CompositeBuilder/Src/usbd_composite_builder.c ****   static USBD_CDCUnionFuncDescTypeDef     *pUnionDesc;
 538              		.loc 1 904 3 view .LVU154
 905:USB/Class/CompositeBuilder/Src/usbd_composite_builder.c **** #if USBD_COMPOSITE_USE_IAD == 1
 906:USB/Class/CompositeBuilder/Src/usbd_composite_builder.c ****   static USBD_IadDescTypeDef              *pIadDesc;
 539              		.loc 1 906 3 view .LVU155
 907:USB/Class/CompositeBuilder/Src/usbd_composite_builder.c **** #endif /* USBD_COMPOSITE_USE_IAD == 1 */
 908:USB/Class/CompositeBuilder/Src/usbd_composite_builder.c **** 
 909:USB/Class/CompositeBuilder/Src/usbd_composite_builder.c **** #if USBD_COMPOSITE_USE_IAD == 1
 910:USB/Class/CompositeBuilder/Src/usbd_composite_builder.c ****   pIadDesc                          = ((USBD_IadDescTypeDef *)(pConf + *Sze));
 540              		.loc 1 910 3 view .LVU156
 541              		.loc 1 910 72 is_stmt 0 view .LVU157
 542 0004 1568     		ldr	r5, [r2]
 543              		.loc 1 910 70 view .LVU158
 544 0006 6C18     		adds	r4, r5, r1
 545              		.loc 1 910 37 view .LVU159
 546 0008 984E     		ldr	r6, .L37
 547 000a 3460     		str	r4, [r6]
 911:USB/Class/CompositeBuilder/Src/usbd_composite_builder.c ****   pIadDesc->bLength                 = (uint8_t)sizeof(USBD_IadDescTypeDef);
 548              		.loc 1 911 3 is_stmt 1 view .LVU160
 549              		.loc 1 911 37 is_stmt 0 view .LVU161
 550 000c 0826     		movs	r6, #8
 551 000e 6E54     		strb	r6, [r5, r1]
 912:USB/Class/CompositeBuilder/Src/usbd_composite_builder.c ****   pIadDesc->bDescriptorType         = USB_DESC_TYPE_IAD; /* IAD descriptor */
 552              		.loc 1 912 3 is_stmt 1 view .LVU162
 553              		.loc 1 912 37 is_stmt 0 view .LVU163
 554 0010 0B25     		movs	r5, #11
 555 0012 6570     		strb	r5, [r4, #1]
 913:USB/Class/CompositeBuilder/Src/usbd_composite_builder.c ****   pIadDesc->bFirstInterface         = pdev->tclasslist[pdev->classId].Ifs[0];
 556              		.loc 1 913 3 is_stmt 1 view .LVU164
 557              		.loc 1 913 60 is_stmt 0 view .LVU165
 558 0014 D0F8E062 		ldr	r6, [r0, #736]
 559              		.loc 1 913 74 view .LVU166
 560 0018 2C25     		movs	r5, #44
 561 001a 05FB0606 		mla	r6, r5, r6, r0
 562 001e 96F80C63 		ldrb	r6, [r6, #780]	@ zero_extendqisi2
 563              		.loc 1 913 37 view .LVU167
 564 0022 A670     		strb	r6, [r4, #2]
ARM GAS  C:\Users\sapph\AppData\Local\Temp\cc1fiECZ.s 			page 27


 914:USB/Class/CompositeBuilder/Src/usbd_composite_builder.c ****   pIadDesc->bInterfaceCount         = 2U;    /* 2 interfaces */
 565              		.loc 1 914 3 is_stmt 1 view .LVU168
 566              		.loc 1 914 37 is_stmt 0 view .LVU169
 567 0024 4FF0020C 		mov	ip, #2
 568 0028 84F803C0 		strb	ip, [r4, #3]
 915:USB/Class/CompositeBuilder/Src/usbd_composite_builder.c ****   pIadDesc->bFunctionClass          = 0x02U;
 569              		.loc 1 915 3 is_stmt 1 view .LVU170
 570              		.loc 1 915 37 is_stmt 0 view .LVU171
 571 002c 84F804C0 		strb	ip, [r4, #4]
 916:USB/Class/CompositeBuilder/Src/usbd_composite_builder.c ****   pIadDesc->bFunctionSubClass       = 0x02U;
 572              		.loc 1 916 3 is_stmt 1 view .LVU172
 573              		.loc 1 916 37 is_stmt 0 view .LVU173
 574 0030 84F805C0 		strb	ip, [r4, #5]
 917:USB/Class/CompositeBuilder/Src/usbd_composite_builder.c ****   pIadDesc->bFunctionProtocol       = 0x01U;
 575              		.loc 1 917 3 is_stmt 1 view .LVU174
 576              		.loc 1 917 37 is_stmt 0 view .LVU175
 577 0034 0127     		movs	r7, #1
 578 0036 A771     		strb	r7, [r4, #6]
 918:USB/Class/CompositeBuilder/Src/usbd_composite_builder.c ****   pIadDesc->iFunction               = 0U; /* String Index */
 579              		.loc 1 918 3 is_stmt 1 view .LVU176
 580              		.loc 1 918 37 is_stmt 0 view .LVU177
 581 0038 4FF0000E 		mov	lr, #0
 582 003c 84F807E0 		strb	lr, [r4, #7]
 919:USB/Class/CompositeBuilder/Src/usbd_composite_builder.c ****   *Sze                              += (uint32_t)sizeof(USBD_IadDescTypeDef);
 583              		.loc 1 919 3 is_stmt 1 view .LVU178
 584 0040 1468     		ldr	r4, [r2]
 585              		.loc 1 919 37 is_stmt 0 view .LVU179
 586 0042 0834     		adds	r4, r4, #8
 587 0044 1460     		str	r4, [r2]
 920:USB/Class/CompositeBuilder/Src/usbd_composite_builder.c **** #endif /* USBD_COMPOSITE_USE_IAD == 1 */
 921:USB/Class/CompositeBuilder/Src/usbd_composite_builder.c **** 
 922:USB/Class/CompositeBuilder/Src/usbd_composite_builder.c ****   /* Control Interface Descriptor */
 923:USB/Class/CompositeBuilder/Src/usbd_composite_builder.c ****   __USBD_CMPSIT_SET_IF(pdev->tclasslist[pdev->classId].Ifs[0], 0U, 1U, 0x02, 0x02U, 0x01U, 0U);
 588              		.loc 1 923 3 is_stmt 1 view .LVU180
 589              		.loc 1 923 3 view .LVU181
 590 0046 1668     		ldr	r6, [r2]
 591 0048 7418     		adds	r4, r6, r1
 592 004a DFF82882 		ldr	r8, .L37+8
 593 004e C8F80040 		str	r4, [r8]
 594              		.loc 1 923 3 view .LVU182
 595 0052 4FF00908 		mov	r8, #9
 596 0056 06F80180 		strb	r8, [r6, r1]
 597              		.loc 1 923 3 view .LVU183
 598 005a 4FF00408 		mov	r8, #4
 599 005e 84F80180 		strb	r8, [r4, #1]
 600              		.loc 1 923 3 view .LVU184
 601 0062 D0F8E062 		ldr	r6, [r0, #736]
 602 0066 05FB0606 		mla	r6, r5, r6, r0
 603 006a 96F80C63 		ldrb	r6, [r6, #780]	@ zero_extendqisi2
 604 006e A670     		strb	r6, [r4, #2]
 605              		.loc 1 923 3 view .LVU185
 606 0070 84F803E0 		strb	lr, [r4, #3]
 607              		.loc 1 923 3 view .LVU186
 608 0074 2771     		strb	r7, [r4, #4]
 609              		.loc 1 923 3 view .LVU187
 610 0076 84F805C0 		strb	ip, [r4, #5]
 611              		.loc 1 923 3 view .LVU188
ARM GAS  C:\Users\sapph\AppData\Local\Temp\cc1fiECZ.s 			page 28


 612 007a 84F806C0 		strb	ip, [r4, #6]
 613              		.loc 1 923 3 view .LVU189
 614 007e E771     		strb	r7, [r4, #7]
 615              		.loc 1 923 3 view .LVU190
 616 0080 84F808E0 		strb	lr, [r4, #8]
 617              		.loc 1 923 3 view .LVU191
 618 0084 1468     		ldr	r4, [r2]
 619 0086 0934     		adds	r4, r4, #9
 620 0088 1460     		str	r4, [r2]
 621              		.loc 1 923 3 view .LVU192
 924:USB/Class/CompositeBuilder/Src/usbd_composite_builder.c **** 
 925:USB/Class/CompositeBuilder/Src/usbd_composite_builder.c ****   /* Control interface headers */
 926:USB/Class/CompositeBuilder/Src/usbd_composite_builder.c ****   pHeadDesc = ((USBD_CDCHeaderFuncDescTypeDef *)((uint32_t)pConf + *Sze));
 622              		.loc 1 926 3 view .LVU193
 623              		.loc 1 926 68 is_stmt 0 view .LVU194
 624 008a D2F80090 		ldr	r9, [r2]
 625              		.loc 1 926 66 view .LVU195
 626 008e 09EB0104 		add	r4, r9, r1
 627              		.loc 1 926 13 view .LVU196
 628 0092 774E     		ldr	r6, .L37+4
 629 0094 3460     		str	r4, [r6]
 927:USB/Class/CompositeBuilder/Src/usbd_composite_builder.c ****   /* Header Functional Descriptor*/
 928:USB/Class/CompositeBuilder/Src/usbd_composite_builder.c ****   pHeadDesc->bLength = 0x05U;
 630              		.loc 1 928 3 is_stmt 1 view .LVU197
 631              		.loc 1 928 22 is_stmt 0 view .LVU198
 632 0096 0526     		movs	r6, #5
 633 0098 09F80160 		strb	r6, [r9, r1]
 929:USB/Class/CompositeBuilder/Src/usbd_composite_builder.c ****   pHeadDesc->bDescriptorType = 0x24U;
 634              		.loc 1 929 3 is_stmt 1 view .LVU199
 635              		.loc 1 929 30 is_stmt 0 view .LVU200
 636 009c 4FF02409 		mov	r9, #36
 637 00a0 84F80190 		strb	r9, [r4, #1]
 930:USB/Class/CompositeBuilder/Src/usbd_composite_builder.c ****   pHeadDesc->bDescriptorSubtype = 0x00U;
 638              		.loc 1 930 3 is_stmt 1 view .LVU201
 639              		.loc 1 930 33 is_stmt 0 view .LVU202
 640 00a4 84F802E0 		strb	lr, [r4, #2]
 931:USB/Class/CompositeBuilder/Src/usbd_composite_builder.c ****   pHeadDesc->bcdCDC = 0x0110U;
 641              		.loc 1 931 3 is_stmt 1 view .LVU203
 642              		.loc 1 931 21 is_stmt 0 view .LVU204
 643 00a8 4FF0100A 		mov	r10, #16
 644 00ac 84F803A0 		strb	r10, [r4, #3]
 645 00b0 2771     		strb	r7, [r4, #4]
 932:USB/Class/CompositeBuilder/Src/usbd_composite_builder.c ****   *Sze += (uint32_t)sizeof(USBD_CDCHeaderFuncDescTypeDef);
 646              		.loc 1 932 3 is_stmt 1 view .LVU205
 647 00b2 1468     		ldr	r4, [r2]
 648              		.loc 1 932 8 is_stmt 0 view .LVU206
 649 00b4 3444     		add	r4, r4, r6
 650 00b6 1460     		str	r4, [r2]
 933:USB/Class/CompositeBuilder/Src/usbd_composite_builder.c **** 
 934:USB/Class/CompositeBuilder/Src/usbd_composite_builder.c ****   /* Call Management Functional Descriptor */
 935:USB/Class/CompositeBuilder/Src/usbd_composite_builder.c ****   pCallMgmDesc = ((USBD_CDCCallMgmFuncDescTypeDef *)((uint32_t)pConf + *Sze));
 651              		.loc 1 935 3 is_stmt 1 view .LVU207
 652              		.loc 1 935 72 is_stmt 0 view .LVU208
 653 00b8 D2F800A0 		ldr	r10, [r2]
 654              		.loc 1 935 70 view .LVU209
 655 00bc 0AEB0104 		add	r4, r10, r1
 656              		.loc 1 935 16 view .LVU210
ARM GAS  C:\Users\sapph\AppData\Local\Temp\cc1fiECZ.s 			page 29


 657 00c0 DFF8B8B1 		ldr	fp, .L37+16
 658 00c4 CBF80040 		str	r4, [fp]
 936:USB/Class/CompositeBuilder/Src/usbd_composite_builder.c ****   pCallMgmDesc->bLength = 0x05U;
 659              		.loc 1 936 3 is_stmt 1 view .LVU211
 660              		.loc 1 936 25 is_stmt 0 view .LVU212
 661 00c8 0AF80160 		strb	r6, [r10, r1]
 937:USB/Class/CompositeBuilder/Src/usbd_composite_builder.c ****   pCallMgmDesc->bDescriptorType = 0x24U;
 662              		.loc 1 937 3 is_stmt 1 view .LVU213
 663              		.loc 1 937 33 is_stmt 0 view .LVU214
 664 00cc 84F80190 		strb	r9, [r4, #1]
 938:USB/Class/CompositeBuilder/Src/usbd_composite_builder.c ****   pCallMgmDesc->bDescriptorSubtype = 0x01U;
 665              		.loc 1 938 3 is_stmt 1 view .LVU215
 666              		.loc 1 938 36 is_stmt 0 view .LVU216
 667 00d0 A770     		strb	r7, [r4, #2]
 939:USB/Class/CompositeBuilder/Src/usbd_composite_builder.c ****   pCallMgmDesc->bmCapabilities = 0x00U;
 668              		.loc 1 939 3 is_stmt 1 view .LVU217
 669              		.loc 1 939 32 is_stmt 0 view .LVU218
 670 00d2 84F803E0 		strb	lr, [r4, #3]
 940:USB/Class/CompositeBuilder/Src/usbd_composite_builder.c ****   pCallMgmDesc->bDataInterface = pdev->tclasslist[pdev->classId].Ifs[1];
 671              		.loc 1 940 3 is_stmt 1 view .LVU219
 672              		.loc 1 940 55 is_stmt 0 view .LVU220
 673 00d6 D0F8E072 		ldr	r7, [r0, #736]
 674              		.loc 1 940 69 view .LVU221
 675 00da 05FB0707 		mla	r7, r5, r7, r0
 676 00de 97F80D73 		ldrb	r7, [r7, #781]	@ zero_extendqisi2
 677              		.loc 1 940 32 view .LVU222
 678 00e2 2771     		strb	r7, [r4, #4]
 941:USB/Class/CompositeBuilder/Src/usbd_composite_builder.c ****   *Sze += (uint32_t)sizeof(USBD_CDCCallMgmFuncDescTypeDef);
 679              		.loc 1 941 3 is_stmt 1 view .LVU223
 680 00e4 1468     		ldr	r4, [r2]
 681              		.loc 1 941 8 is_stmt 0 view .LVU224
 682 00e6 3444     		add	r4, r4, r6
 683 00e8 1460     		str	r4, [r2]
 942:USB/Class/CompositeBuilder/Src/usbd_composite_builder.c **** 
 943:USB/Class/CompositeBuilder/Src/usbd_composite_builder.c ****   /* ACM Functional Descriptor*/
 944:USB/Class/CompositeBuilder/Src/usbd_composite_builder.c ****   pACMDesc = ((USBD_CDCACMFuncDescTypeDef *)((uint32_t)pConf + *Sze));
 684              		.loc 1 944 3 is_stmt 1 view .LVU225
 685              		.loc 1 944 64 is_stmt 0 view .LVU226
 686 00ea 1768     		ldr	r7, [r2]
 687              		.loc 1 944 62 view .LVU227
 688 00ec 7C18     		adds	r4, r7, r1
 689              		.loc 1 944 12 view .LVU228
 690 00ee DFF890A1 		ldr	r10, .L37+20
 691 00f2 CAF80040 		str	r4, [r10]
 945:USB/Class/CompositeBuilder/Src/usbd_composite_builder.c ****   pACMDesc->bLength = 0x04U;
 692              		.loc 1 945 3 is_stmt 1 view .LVU229
 693              		.loc 1 945 21 is_stmt 0 view .LVU230
 694 00f6 07F80180 		strb	r8, [r7, r1]
 946:USB/Class/CompositeBuilder/Src/usbd_composite_builder.c ****   pACMDesc->bDescriptorType = 0x24U;
 695              		.loc 1 946 3 is_stmt 1 view .LVU231
 696              		.loc 1 946 29 is_stmt 0 view .LVU232
 697 00fa 84F80190 		strb	r9, [r4, #1]
 947:USB/Class/CompositeBuilder/Src/usbd_composite_builder.c ****   pACMDesc->bDescriptorSubtype = 0x02U;
 698              		.loc 1 947 3 is_stmt 1 view .LVU233
 699              		.loc 1 947 32 is_stmt 0 view .LVU234
 700 00fe 84F802C0 		strb	ip, [r4, #2]
 948:USB/Class/CompositeBuilder/Src/usbd_composite_builder.c ****   pACMDesc->bmCapabilities = 0x02U;
ARM GAS  C:\Users\sapph\AppData\Local\Temp\cc1fiECZ.s 			page 30


 701              		.loc 1 948 3 is_stmt 1 view .LVU235
 702              		.loc 1 948 28 is_stmt 0 view .LVU236
 703 0102 84F803C0 		strb	ip, [r4, #3]
 949:USB/Class/CompositeBuilder/Src/usbd_composite_builder.c ****   *Sze += (uint32_t)sizeof(USBD_CDCACMFuncDescTypeDef);
 704              		.loc 1 949 3 is_stmt 1 view .LVU237
 705 0106 1468     		ldr	r4, [r2]
 706              		.loc 1 949 8 is_stmt 0 view .LVU238
 707 0108 4444     		add	r4, r4, r8
 708 010a 1460     		str	r4, [r2]
 950:USB/Class/CompositeBuilder/Src/usbd_composite_builder.c **** 
 951:USB/Class/CompositeBuilder/Src/usbd_composite_builder.c ****   /* Union Functional Descriptor*/
 952:USB/Class/CompositeBuilder/Src/usbd_composite_builder.c ****   pUnionDesc = ((USBD_CDCUnionFuncDescTypeDef *)((uint32_t)pConf + *Sze));
 709              		.loc 1 952 3 is_stmt 1 view .LVU239
 710              		.loc 1 952 68 is_stmt 0 view .LVU240
 711 010c 1768     		ldr	r7, [r2]
 712              		.loc 1 952 66 view .LVU241
 713 010e 7C18     		adds	r4, r7, r1
 714              		.loc 1 952 14 view .LVU242
 715 0110 DFF870C1 		ldr	ip, .L37+24
 716 0114 CCF80040 		str	r4, [ip]
 953:USB/Class/CompositeBuilder/Src/usbd_composite_builder.c ****   pUnionDesc->bLength = 0x05U;
 717              		.loc 1 953 3 is_stmt 1 view .LVU243
 718              		.loc 1 953 23 is_stmt 0 view .LVU244
 719 0118 7E54     		strb	r6, [r7, r1]
 954:USB/Class/CompositeBuilder/Src/usbd_composite_builder.c ****   pUnionDesc->bDescriptorType = 0x24U;
 720              		.loc 1 954 3 is_stmt 1 view .LVU245
 721              		.loc 1 954 31 is_stmt 0 view .LVU246
 722 011a 84F80190 		strb	r9, [r4, #1]
 955:USB/Class/CompositeBuilder/Src/usbd_composite_builder.c ****   pUnionDesc->bDescriptorSubtype = 0x06U;
 723              		.loc 1 955 3 is_stmt 1 view .LVU247
 724              		.loc 1 955 34 is_stmt 0 view .LVU248
 725 011e 0627     		movs	r7, #6
 726 0120 A770     		strb	r7, [r4, #2]
 956:USB/Class/CompositeBuilder/Src/usbd_composite_builder.c ****   pUnionDesc->bMasterInterface = pdev->tclasslist[pdev->classId].Ifs[0];
 727              		.loc 1 956 3 is_stmt 1 view .LVU249
 728              		.loc 1 956 55 is_stmt 0 view .LVU250
 729 0122 D0F8E072 		ldr	r7, [r0, #736]
 730              		.loc 1 956 69 view .LVU251
 731 0126 05FB0707 		mla	r7, r5, r7, r0
 732 012a 97F80C73 		ldrb	r7, [r7, #780]	@ zero_extendqisi2
 733              		.loc 1 956 32 view .LVU252
 734 012e E770     		strb	r7, [r4, #3]
 957:USB/Class/CompositeBuilder/Src/usbd_composite_builder.c ****   pUnionDesc->bSlaveInterface = pdev->tclasslist[pdev->classId].Ifs[1];
 735              		.loc 1 957 3 is_stmt 1 view .LVU253
 736              		.loc 1 957 54 is_stmt 0 view .LVU254
 737 0130 D0F8E072 		ldr	r7, [r0, #736]
 738              		.loc 1 957 68 view .LVU255
 739 0134 05FB0707 		mla	r7, r5, r7, r0
 740 0138 97F80D73 		ldrb	r7, [r7, #781]	@ zero_extendqisi2
 741              		.loc 1 957 31 view .LVU256
 742 013c 2771     		strb	r7, [r4, #4]
 958:USB/Class/CompositeBuilder/Src/usbd_composite_builder.c ****   *Sze += (uint32_t)sizeof(USBD_CDCUnionFuncDescTypeDef);
 743              		.loc 1 958 3 is_stmt 1 view .LVU257
 744 013e 1468     		ldr	r4, [r2]
 745              		.loc 1 958 8 is_stmt 0 view .LVU258
 746 0140 3444     		add	r4, r4, r6
 747 0142 1460     		str	r4, [r2]
ARM GAS  C:\Users\sapph\AppData\Local\Temp\cc1fiECZ.s 			page 31


 959:USB/Class/CompositeBuilder/Src/usbd_composite_builder.c **** 
 960:USB/Class/CompositeBuilder/Src/usbd_composite_builder.c ****   /* Append Endpoint descriptor to Configuration descriptor */
 961:USB/Class/CompositeBuilder/Src/usbd_composite_builder.c ****   __USBD_CMPSIT_SET_EP(pdev->tclasslist[pdev->classId].Eps[2].add, \
 748              		.loc 1 961 3 is_stmt 1 view .LVU259
 749              		.loc 1 961 3 view .LVU260
 750 0144 1768     		ldr	r7, [r2]
 751 0146 7C18     		adds	r4, r7, r1
 752 0148 DFF82CC1 		ldr	ip, .L37+12
 753 014c CCF80040 		str	r4, [ip]
 754              		.loc 1 961 3 view .LVU261
 755 0150 4FF0070C 		mov	ip, #7
 756 0154 07F801C0 		strb	ip, [r7, r1]
 757              		.loc 1 961 3 view .LVU262
 758 0158 6670     		strb	r6, [r4, #1]
 759              		.loc 1 961 3 view .LVU263
 760 015a D0F8E062 		ldr	r6, [r0, #736]
 761 015e 05FB0606 		mla	r6, r5, r6, r0
 762 0162 96F80053 		ldrb	r5, [r6, #768]	@ zero_extendqisi2
 763 0166 A570     		strb	r5, [r4, #2]
 764              		.loc 1 961 3 view .LVU264
 765 0168 0325     		movs	r5, #3
 766 016a E570     		strb	r5, [r4, #3]
 767              		.loc 1 961 3 view .LVU265
 768 016c 0825     		movs	r5, #8
 769 016e 2571     		strb	r5, [r4, #4]
 770 0170 84F805E0 		strb	lr, [r4, #5]
 771              		.loc 1 961 3 view .LVU266
 772 0174 1D46     		mov	r5, r3
 773 0176 002B     		cmp	r3, #0
 774 0178 6FD1     		bne	.L29
 775              		.loc 1 961 3 discriminator 1 view .LVU267
 776 017a 1023     		movs	r3, #16
 777              	.LVL25:
 778              		.loc 1 961 3 is_stmt 0 discriminator 1 view .LVU268
 779 017c A371     		strb	r3, [r4, #6]
 780              	.L30:
 781              		.loc 1 961 3 is_stmt 1 discriminator 4 view .LVU269
 782 017e 1368     		ldr	r3, [r2]
 783 0180 0733     		adds	r3, r3, #7
 784 0182 1360     		str	r3, [r2]
 785              		.loc 1 961 3 discriminator 4 view .LVU270
 962:USB/Class/CompositeBuilder/Src/usbd_composite_builder.c ****                        USBD_EP_TYPE_INTR, CDC_CMD_PACKET_SIZE, CDC_HS_BINTERVAL, CDC_FS_BINTERVAL);
 963:USB/Class/CompositeBuilder/Src/usbd_composite_builder.c **** 
 964:USB/Class/CompositeBuilder/Src/usbd_composite_builder.c ****   /* Data Interface Descriptor */
 965:USB/Class/CompositeBuilder/Src/usbd_composite_builder.c ****   __USBD_CMPSIT_SET_IF(pdev->tclasslist[pdev->classId].Ifs[1], 0U, 2U, 0x0A, 0U, 0U, 0U);
 786              		.loc 1 965 3 view .LVU271
 787              		.loc 1 965 3 view .LVU272
 788 0184 1468     		ldr	r4, [r2]
 789 0186 6318     		adds	r3, r4, r1
 790 0188 3A4E     		ldr	r6, .L37+8
 791 018a 3360     		str	r3, [r6]
 792              		.loc 1 965 3 view .LVU273
 793 018c 0926     		movs	r6, #9
 794 018e 6654     		strb	r6, [r4, r1]
 795              		.loc 1 965 3 view .LVU274
 796 0190 0424     		movs	r4, #4
 797 0192 5C70     		strb	r4, [r3, #1]
ARM GAS  C:\Users\sapph\AppData\Local\Temp\cc1fiECZ.s 			page 32


 798              		.loc 1 965 3 view .LVU275
 799 0194 D0F8E042 		ldr	r4, [r0, #736]
 800 0198 2C26     		movs	r6, #44
 801 019a 06FB0404 		mla	r4, r6, r4, r0
 802 019e 94F80D43 		ldrb	r4, [r4, #781]	@ zero_extendqisi2
 803 01a2 9C70     		strb	r4, [r3, #2]
 804              		.loc 1 965 3 view .LVU276
 805 01a4 0024     		movs	r4, #0
 806 01a6 DC70     		strb	r4, [r3, #3]
 807              		.loc 1 965 3 view .LVU277
 808 01a8 0226     		movs	r6, #2
 809 01aa 1E71     		strb	r6, [r3, #4]
 810              		.loc 1 965 3 view .LVU278
 811 01ac 0A26     		movs	r6, #10
 812 01ae 5E71     		strb	r6, [r3, #5]
 813              		.loc 1 965 3 view .LVU279
 814 01b0 9C71     		strb	r4, [r3, #6]
 815              		.loc 1 965 3 view .LVU280
 816 01b2 DC71     		strb	r4, [r3, #7]
 817              		.loc 1 965 3 view .LVU281
 818 01b4 1C72     		strb	r4, [r3, #8]
 819              		.loc 1 965 3 view .LVU282
 820 01b6 1368     		ldr	r3, [r2]
 821 01b8 0933     		adds	r3, r3, #9
 822 01ba 1360     		str	r3, [r2]
 823              		.loc 1 965 3 view .LVU283
 966:USB/Class/CompositeBuilder/Src/usbd_composite_builder.c **** 
 967:USB/Class/CompositeBuilder/Src/usbd_composite_builder.c ****   if (speed == (uint8_t)USBD_SPEED_HIGH)
 824              		.loc 1 967 3 view .LVU284
 825              		.loc 1 967 6 is_stmt 0 view .LVU285
 826 01bc 45B9     		cbnz	r5, .L31
 968:USB/Class/CompositeBuilder/Src/usbd_composite_builder.c ****   {
 969:USB/Class/CompositeBuilder/Src/usbd_composite_builder.c ****     pdev->tclasslist[pdev->classId].CurrPcktSze = CDC_DATA_HS_MAX_PACKET_SIZE;
 827              		.loc 1 969 5 is_stmt 1 view .LVU286
 828              		.loc 1 969 26 is_stmt 0 view .LVU287
 829 01be D0F8E032 		ldr	r3, [r0, #736]
 830              		.loc 1 969 49 view .LVU288
 831 01c2 2C24     		movs	r4, #44
 832 01c4 04FB0303 		mla	r3, r4, r3, r0
 833 01c8 4FF40074 		mov	r4, #512
 834 01cc C3F81043 		str	r4, [r3, #784]
 835              	.L31:
 970:USB/Class/CompositeBuilder/Src/usbd_composite_builder.c ****   }
 971:USB/Class/CompositeBuilder/Src/usbd_composite_builder.c **** 
 972:USB/Class/CompositeBuilder/Src/usbd_composite_builder.c ****   /* Append Endpoint descriptor to Configuration descriptor */
 973:USB/Class/CompositeBuilder/Src/usbd_composite_builder.c ****   __USBD_CMPSIT_SET_EP((pdev->tclasslist[pdev->classId].Eps[0].add), \
 836              		.loc 1 973 3 is_stmt 1 view .LVU289
 837              		.loc 1 973 3 view .LVU290
 838 01d0 1468     		ldr	r4, [r2]
 839 01d2 6318     		adds	r3, r4, r1
 840 01d4 284E     		ldr	r6, .L37+12
 841 01d6 3360     		str	r3, [r6]
 842              		.loc 1 973 3 view .LVU291
 843 01d8 0726     		movs	r6, #7
 844 01da 6654     		strb	r6, [r4, r1]
 845              		.loc 1 973 3 view .LVU292
 846 01dc 0524     		movs	r4, #5
ARM GAS  C:\Users\sapph\AppData\Local\Temp\cc1fiECZ.s 			page 33


 847 01de 5C70     		strb	r4, [r3, #1]
 848              		.loc 1 973 3 view .LVU293
 849 01e0 D0F8E042 		ldr	r4, [r0, #736]
 850 01e4 2C26     		movs	r6, #44
 851 01e6 06FB0404 		mla	r4, r6, r4, r0
 852 01ea 94F8F842 		ldrb	r4, [r4, #760]	@ zero_extendqisi2
 853 01ee 9C70     		strb	r4, [r3, #2]
 854              		.loc 1 973 3 view .LVU294
 855 01f0 0224     		movs	r4, #2
 856 01f2 DC70     		strb	r4, [r3, #3]
 857              		.loc 1 973 3 view .LVU295
 858 01f4 D0F8E042 		ldr	r4, [r0, #736]
 859 01f8 06FB0404 		mla	r4, r6, r4, r0
 860 01fc B4F81043 		ldrh	r4, [r4, #784]
 861 0200 9C80     		strh	r4, [r3, #4]	@ unaligned
 862              		.loc 1 973 3 view .LVU296
 863 0202 6DBB     		cbnz	r5, .L32
 864              		.loc 1 973 3 discriminator 1 view .LVU297
 865 0204 0024     		movs	r4, #0
 866 0206 9C71     		strb	r4, [r3, #6]
 867              	.L33:
 868              		.loc 1 973 3 discriminator 4 view .LVU298
 869 0208 1368     		ldr	r3, [r2]
 870 020a 0733     		adds	r3, r3, #7
 871 020c 1360     		str	r3, [r2]
 872              		.loc 1 973 3 discriminator 4 view .LVU299
 974:USB/Class/CompositeBuilder/Src/usbd_composite_builder.c ****                        (USBD_EP_TYPE_BULK), (pdev->tclasslist[pdev->classId].CurrPcktSze), (0U), (0
 975:USB/Class/CompositeBuilder/Src/usbd_composite_builder.c **** 
 976:USB/Class/CompositeBuilder/Src/usbd_composite_builder.c ****   /* Append Endpoint descriptor to Configuration descriptor */
 977:USB/Class/CompositeBuilder/Src/usbd_composite_builder.c ****   __USBD_CMPSIT_SET_EP((pdev->tclasslist[pdev->classId].Eps[1].add), \
 873              		.loc 1 977 3 view .LVU300
 874              		.loc 1 977 3 view .LVU301
 875 020e 1468     		ldr	r4, [r2]
 876 0210 6318     		adds	r3, r4, r1
 877 0212 194E     		ldr	r6, .L37+12
 878 0214 3360     		str	r3, [r6]
 879              		.loc 1 977 3 view .LVU302
 880 0216 0726     		movs	r6, #7
 881 0218 6654     		strb	r6, [r4, r1]
 882              		.loc 1 977 3 view .LVU303
 883 021a 0524     		movs	r4, #5
 884 021c 5C70     		strb	r4, [r3, #1]
 885              		.loc 1 977 3 view .LVU304
 886 021e D0F8E042 		ldr	r4, [r0, #736]
 887 0222 2C26     		movs	r6, #44
 888 0224 06FB0404 		mla	r4, r6, r4, r0
 889 0228 94F8FC42 		ldrb	r4, [r4, #764]	@ zero_extendqisi2
 890 022c 9C70     		strb	r4, [r3, #2]
 891              		.loc 1 977 3 view .LVU305
 892 022e 0224     		movs	r4, #2
 893 0230 DC70     		strb	r4, [r3, #3]
 894              		.loc 1 977 3 view .LVU306
 895 0232 D0F8E042 		ldr	r4, [r0, #736]
 896 0236 06FB0400 		mla	r0, r6, r4, r0
 897              	.LVL26:
 898              		.loc 1 977 3 is_stmt 0 view .LVU307
 899 023a B0F81003 		ldrh	r0, [r0, #784]
ARM GAS  C:\Users\sapph\AppData\Local\Temp\cc1fiECZ.s 			page 34


 900 023e 9880     		strh	r0, [r3, #4]	@ unaligned
 901              		.loc 1 977 3 is_stmt 1 view .LVU308
 902 0240 8DB9     		cbnz	r5, .L34
 903              		.loc 1 977 3 discriminator 1 view .LVU309
 904 0242 0020     		movs	r0, #0
 905 0244 9871     		strb	r0, [r3, #6]
 906              	.L35:
 907              		.loc 1 977 3 discriminator 4 view .LVU310
 908 0246 1368     		ldr	r3, [r2]
 909 0248 0733     		adds	r3, r3, #7
 910 024a 1360     		str	r3, [r2]
 911              		.loc 1 977 3 discriminator 4 view .LVU311
 978:USB/Class/CompositeBuilder/Src/usbd_composite_builder.c ****                        (USBD_EP_TYPE_BULK), (pdev->tclasslist[pdev->classId].CurrPcktSze), (0U), (0
 979:USB/Class/CompositeBuilder/Src/usbd_composite_builder.c **** 
 980:USB/Class/CompositeBuilder/Src/usbd_composite_builder.c ****   /* Update Config Descriptor and IAD descriptor */
 981:USB/Class/CompositeBuilder/Src/usbd_composite_builder.c ****   ((USBD_ConfigDescTypeDef *)pConf)->bNumInterfaces += 2U;
 912              		.loc 1 981 3 view .LVU312
 913              		.loc 1 981 36 is_stmt 0 view .LVU313
 914 024c 0B79     		ldrb	r3, [r1, #4]	@ zero_extendqisi2
 915              		.loc 1 981 53 view .LVU314
 916 024e 0233     		adds	r3, r3, #2
 917 0250 0B71     		strb	r3, [r1, #4]
 982:USB/Class/CompositeBuilder/Src/usbd_composite_builder.c ****   ((USBD_ConfigDescTypeDef *)pConf)->wTotalLength = (uint16_t)(*Sze);
 918              		.loc 1 982 3 is_stmt 1 view .LVU315
 919              		.loc 1 982 64 is_stmt 0 view .LVU316
 920 0252 1368     		ldr	r3, [r2]
 921              		.loc 1 982 51 view .LVU317
 922 0254 4B80     		strh	r3, [r1, #2]	@ unaligned
 983:USB/Class/CompositeBuilder/Src/usbd_composite_builder.c **** }
 923              		.loc 1 983 1 view .LVU318
 924 0256 BDE8F08F 		pop	{r4, r5, r6, r7, r8, r9, r10, fp, pc}
 925              	.LVL27:
 926              	.L29:
 961:USB/Class/CompositeBuilder/Src/usbd_composite_builder.c ****                        USBD_EP_TYPE_INTR, CDC_CMD_PACKET_SIZE, CDC_HS_BINTERVAL, CDC_FS_BINTERVAL);
 927              		.loc 1 961 3 is_stmt 1 discriminator 2 view .LVU319
 928 025a 1023     		movs	r3, #16
 929              	.LVL28:
 961:USB/Class/CompositeBuilder/Src/usbd_composite_builder.c ****                        USBD_EP_TYPE_INTR, CDC_CMD_PACKET_SIZE, CDC_HS_BINTERVAL, CDC_FS_BINTERVAL);
 930              		.loc 1 961 3 is_stmt 0 discriminator 2 view .LVU320
 931 025c A371     		strb	r3, [r4, #6]
 932 025e 8EE7     		b	.L30
 933              	.L32:
 973:USB/Class/CompositeBuilder/Src/usbd_composite_builder.c ****                        (USBD_EP_TYPE_BULK), (pdev->tclasslist[pdev->classId].CurrPcktSze), (0U), (0
 934              		.loc 1 973 3 is_stmt 1 discriminator 2 view .LVU321
 935 0260 0024     		movs	r4, #0
 936 0262 9C71     		strb	r4, [r3, #6]
 937 0264 D0E7     		b	.L33
 938              	.LVL29:
 939              	.L34:
 977:USB/Class/CompositeBuilder/Src/usbd_composite_builder.c ****                        (USBD_EP_TYPE_BULK), (pdev->tclasslist[pdev->classId].CurrPcktSze), (0U), (0
 940              		.loc 1 977 3 discriminator 2 view .LVU322
 941 0266 0020     		movs	r0, #0
 942 0268 9871     		strb	r0, [r3, #6]
 943 026a ECE7     		b	.L35
 944              	.L38:
 945              		.align	2
 946              	.L37:
ARM GAS  C:\Users\sapph\AppData\Local\Temp\cc1fiECZ.s 			page 35


 947 026c 00000000 		.word	pIadDesc.6
 948 0270 00000000 		.word	pHeadDesc.4
 949 0274 00000000 		.word	pIfDesc.5
 950 0278 00000000 		.word	pEpDesc.0
 951 027c 00000000 		.word	pCallMgmDesc.3
 952 0280 00000000 		.word	pACMDesc.2
 953 0284 00000000 		.word	pUnionDesc.1
 954              		.cfi_endproc
 955              	.LFE173:
 957              		.section	.text.USBD_CMPSIT_AddToConfDesc,"ax",%progbits
 958              		.align	1
 959              		.global	USBD_CMPSIT_AddToConfDesc
 960              		.syntax unified
 961              		.thumb
 962              		.thumb_func
 964              	USBD_CMPSIT_AddToConfDesc:
 965              	.LVL30:
 966              	.LFB165:
 266:USB/Class/CompositeBuilder/Src/usbd_composite_builder.c ****   uint8_t idxIf = 0U;
 967              		.loc 1 266 1 view -0
 968              		.cfi_startproc
 969              		@ args = 0, pretend = 0, frame = 0
 970              		@ frame_needed = 0, uses_anonymous_args = 0
 266:USB/Class/CompositeBuilder/Src/usbd_composite_builder.c ****   uint8_t idxIf = 0U;
 971              		.loc 1 266 1 is_stmt 0 view .LVU324
 972 0000 2DE9F843 		push	{r3, r4, r5, r6, r7, r8, r9, lr}
 973              		.cfi_def_cfa_offset 32
 974              		.cfi_offset 3, -32
 975              		.cfi_offset 4, -28
 976              		.cfi_offset 5, -24
 977              		.cfi_offset 6, -20
 978              		.cfi_offset 7, -16
 979              		.cfi_offset 8, -12
 980              		.cfi_offset 9, -8
 981              		.cfi_offset 14, -4
 982 0004 0446     		mov	r4, r0
 267:USB/Class/CompositeBuilder/Src/usbd_composite_builder.c ****   uint8_t iEp = 0U;
 983              		.loc 1 267 3 is_stmt 1 view .LVU325
 984              	.LVL31:
 268:USB/Class/CompositeBuilder/Src/usbd_composite_builder.c **** 
 985              		.loc 1 268 3 view .LVU326
 271:USB/Class/CompositeBuilder/Src/usbd_composite_builder.c ****   {
 986              		.loc 1 271 3 view .LVU327
 271:USB/Class/CompositeBuilder/Src/usbd_composite_builder.c ****   {
 987              		.loc 1 271 11 is_stmt 0 view .LVU328
 988 0006 D0F8E032 		ldr	r3, [r0, #736]
 271:USB/Class/CompositeBuilder/Src/usbd_composite_builder.c ****   {
 989              		.loc 1 271 6 view .LVU329
 990 000a 002B     		cmp	r3, #0
 991 000c 49D0     		beq	.L45
 992              	.LVL32:
 993              	.L40:
 280:USB/Class/CompositeBuilder/Src/usbd_composite_builder.c ****   {
 994              		.loc 1 280 3 is_stmt 1 view .LVU330
 280:USB/Class/CompositeBuilder/Src/usbd_composite_builder.c ****   {
 995              		.loc 1 280 32 is_stmt 0 view .LVU331
 996 000e D4F8E052 		ldr	r5, [r4, #736]
ARM GAS  C:\Users\sapph\AppData\Local\Temp\cc1fiECZ.s 			page 36


 280:USB/Class/CompositeBuilder/Src/usbd_composite_builder.c ****   {
 997              		.loc 1 280 42 view .LVU332
 998 0012 2C22     		movs	r2, #44
 999 0014 02FB0542 		mla	r2, r2, r5, r4
 1000 0018 92F8E822 		ldrb	r2, [r2, #744]	@ zero_extendqisi2
 280:USB/Class/CompositeBuilder/Src/usbd_composite_builder.c ****   {
 1001              		.loc 1 280 3 view .LVU333
 1002 001c 012A     		cmp	r2, #1
 1003 001e 46D0     		beq	.L41
 1004 0020 022A     		cmp	r2, #2
 1005 0022 63D1     		bne	.L43
 345:USB/Class/CompositeBuilder/Src/usbd_composite_builder.c **** 
 1006              		.loc 1 345 7 is_stmt 1 view .LVU334
 345:USB/Class/CompositeBuilder/Src/usbd_composite_builder.c **** 
 1007              		.loc 1 345 51 is_stmt 0 view .LVU335
 1008 0024 2C26     		movs	r6, #44
 1009 0026 06FB0545 		mla	r5, r6, r5, r4
 1010 002a 4FF04008 		mov	r8, #64
 1011 002e C5F81083 		str	r8, [r5, #784]
 348:USB/Class/CompositeBuilder/Src/usbd_composite_builder.c ****       pdev->tclasslist[pdev->classId].NumIf = 2U;
 1012              		.loc 1 348 7 is_stmt 1 view .LVU336
 348:USB/Class/CompositeBuilder/Src/usbd_composite_builder.c ****       pdev->tclasslist[pdev->classId].NumIf = 2U;
 1013              		.loc 1 348 15 is_stmt 0 view .LVU337
 1014 0032 2046     		mov	r0, r4
 1015 0034 FFF7FEFF 		bl	USBD_CMPSIT_FindFreeIFNbr
 1016              	.LVL33:
 349:USB/Class/CompositeBuilder/Src/usbd_composite_builder.c ****       pdev->tclasslist[pdev->classId].Ifs[0] = idxIf;
 1017              		.loc 1 349 7 is_stmt 1 view .LVU338
 349:USB/Class/CompositeBuilder/Src/usbd_composite_builder.c ****       pdev->tclasslist[pdev->classId].Ifs[0] = idxIf;
 1018              		.loc 1 349 45 is_stmt 0 view .LVU339
 1019 0038 0227     		movs	r7, #2
 1020 003a C5F80873 		str	r7, [r5, #776]
 350:USB/Class/CompositeBuilder/Src/usbd_composite_builder.c ****       pdev->tclasslist[pdev->classId].Ifs[1] = (uint8_t)(idxIf + 1U);
 1021              		.loc 1 350 7 is_stmt 1 view .LVU340
 350:USB/Class/CompositeBuilder/Src/usbd_composite_builder.c ****       pdev->tclasslist[pdev->classId].Ifs[1] = (uint8_t)(idxIf + 1U);
 1022              		.loc 1 350 46 is_stmt 0 view .LVU341
 1023 003e 85F80C03 		strb	r0, [r5, #780]
 351:USB/Class/CompositeBuilder/Src/usbd_composite_builder.c **** 
 1024              		.loc 1 351 7 is_stmt 1 view .LVU342
 351:USB/Class/CompositeBuilder/Src/usbd_composite_builder.c **** 
 1025              		.loc 1 351 48 is_stmt 0 view .LVU343
 1026 0042 0130     		adds	r0, r0, #1
 1027              	.LVL34:
 351:USB/Class/CompositeBuilder/Src/usbd_composite_builder.c **** 
 1028              		.loc 1 351 46 view .LVU344
 1029 0044 85F80D03 		strb	r0, [r5, #781]
 354:USB/Class/CompositeBuilder/Src/usbd_composite_builder.c **** 
 1030              		.loc 1 354 7 is_stmt 1 view .LVU345
 354:USB/Class/CompositeBuilder/Src/usbd_composite_builder.c **** 
 1031              		.loc 1 354 46 is_stmt 0 view .LVU346
 1032 0048 4FF00309 		mov	r9, #3
 1033 004c C5F8F492 		str	r9, [r5, #756]
 357:USB/Class/CompositeBuilder/Src/usbd_composite_builder.c ****       USBD_CMPSIT_AssignEp(pdev, iEp, USBD_EP_TYPE_BULK, pdev->tclasslist[pdev->classId].CurrPcktSz
 1034              		.loc 1 357 7 is_stmt 1 view .LVU347
 357:USB/Class/CompositeBuilder/Src/usbd_composite_builder.c ****       USBD_CMPSIT_AssignEp(pdev, iEp, USBD_EP_TYPE_BULK, pdev->tclasslist[pdev->classId].CurrPcktSz
 1035              		.loc 1 357 44 is_stmt 0 view .LVU348
 1036 0050 D5F80413 		ldr	r1, [r5, #772]
ARM GAS  C:\Users\sapph\AppData\Local\Temp\cc1fiECZ.s 			page 37


 1037              	.LVL35:
 358:USB/Class/CompositeBuilder/Src/usbd_composite_builder.c **** 
 1038              		.loc 1 358 7 is_stmt 1 view .LVU349
 1039 0054 4346     		mov	r3, r8
 1040 0056 3A46     		mov	r2, r7
 1041 0058 0978     		ldrb	r1, [r1]	@ zero_extendqisi2
 1042              	.LVL36:
 358:USB/Class/CompositeBuilder/Src/usbd_composite_builder.c **** 
 1043              		.loc 1 358 7 is_stmt 0 view .LVU350
 1044 005a 2046     		mov	r0, r4
 1045 005c FFF7FEFF 		bl	USBD_CMPSIT_AssignEp
 1046              	.LVL37:
 361:USB/Class/CompositeBuilder/Src/usbd_composite_builder.c ****       USBD_CMPSIT_AssignEp(pdev, iEp, USBD_EP_TYPE_BULK, pdev->tclasslist[pdev->classId].CurrPcktSz
 1047              		.loc 1 361 7 is_stmt 1 view .LVU351
 361:USB/Class/CompositeBuilder/Src/usbd_composite_builder.c ****       USBD_CMPSIT_AssignEp(pdev, iEp, USBD_EP_TYPE_BULK, pdev->tclasslist[pdev->classId].CurrPcktSz
 1048              		.loc 1 361 34 is_stmt 0 view .LVU352
 1049 0060 D4F8E032 		ldr	r3, [r4, #736]
 361:USB/Class/CompositeBuilder/Src/usbd_composite_builder.c ****       USBD_CMPSIT_AssignEp(pdev, iEp, USBD_EP_TYPE_BULK, pdev->tclasslist[pdev->classId].CurrPcktSz
 1050              		.loc 1 361 44 view .LVU353
 1051 0064 06FB0343 		mla	r3, r6, r3, r4
 1052 0068 D3F80413 		ldr	r1, [r3, #772]
 1053              	.LVL38:
 362:USB/Class/CompositeBuilder/Src/usbd_composite_builder.c **** 
 1054              		.loc 1 362 7 is_stmt 1 view .LVU354
 1055 006c D3F81033 		ldr	r3, [r3, #784]
 1056 0070 3A46     		mov	r2, r7
 1057 0072 4978     		ldrb	r1, [r1, #1]	@ zero_extendqisi2
 1058              	.LVL39:
 362:USB/Class/CompositeBuilder/Src/usbd_composite_builder.c **** 
 1059              		.loc 1 362 7 is_stmt 0 view .LVU355
 1060 0074 2046     		mov	r0, r4
 1061 0076 FFF7FEFF 		bl	USBD_CMPSIT_AssignEp
 1062              	.LVL40:
 365:USB/Class/CompositeBuilder/Src/usbd_composite_builder.c ****       USBD_CMPSIT_AssignEp(pdev, iEp, USBD_EP_TYPE_INTR, CDC_CMD_PACKET_SIZE);
 1063              		.loc 1 365 7 is_stmt 1 view .LVU356
 365:USB/Class/CompositeBuilder/Src/usbd_composite_builder.c ****       USBD_CMPSIT_AssignEp(pdev, iEp, USBD_EP_TYPE_INTR, CDC_CMD_PACKET_SIZE);
 1064              		.loc 1 365 34 is_stmt 0 view .LVU357
 1065 007a D4F8E032 		ldr	r3, [r4, #736]
 365:USB/Class/CompositeBuilder/Src/usbd_composite_builder.c ****       USBD_CMPSIT_AssignEp(pdev, iEp, USBD_EP_TYPE_INTR, CDC_CMD_PACKET_SIZE);
 1066              		.loc 1 365 44 view .LVU358
 1067 007e 06FB0343 		mla	r3, r6, r3, r4
 1068 0082 D3F80413 		ldr	r1, [r3, #772]
 1069              	.LVL41:
 366:USB/Class/CompositeBuilder/Src/usbd_composite_builder.c **** 
 1070              		.loc 1 366 7 is_stmt 1 view .LVU359
 1071 0086 0823     		movs	r3, #8
 1072 0088 4A46     		mov	r2, r9
 1073 008a 8978     		ldrb	r1, [r1, #2]	@ zero_extendqisi2
 1074              	.LVL42:
 366:USB/Class/CompositeBuilder/Src/usbd_composite_builder.c **** 
 1075              		.loc 1 366 7 is_stmt 0 view .LVU360
 1076 008c 2046     		mov	r0, r4
 1077 008e FFF7FEFF 		bl	USBD_CMPSIT_AssignEp
 1078              	.LVL43:
 369:USB/Class/CompositeBuilder/Src/usbd_composite_builder.c **** 
 1079              		.loc 1 369 7 is_stmt 1 view .LVU361
 1080 0092 0123     		movs	r3, #1
ARM GAS  C:\Users\sapph\AppData\Local\Temp\cc1fiECZ.s 			page 38


 1081 0094 174A     		ldr	r2, .L46
 1082 0096 1849     		ldr	r1, .L46+4
 1083 0098 0968     		ldr	r1, [r1]
 1084 009a 2046     		mov	r0, r4
 1085 009c FFF7FEFF 		bl	USBD_CMPSIT_CDCDesc
 1086              	.LVL44:
 375:USB/Class/CompositeBuilder/Src/usbd_composite_builder.c **** #endif /* USBD_CMPSIT_ACTIVATE_CDC */
 1087              		.loc 1 375 7 view .LVU362
 1088 00a0 24E0     		b	.L43
 1089              	.LVL45:
 1090              	.L45:
 274:USB/Class/CompositeBuilder/Src/usbd_composite_builder.c **** #ifdef USE_USB_HS
 1091              		.loc 1 274 5 view .LVU363
 1092 00a2 1449     		ldr	r1, .L46
 1093 00a4 144B     		ldr	r3, .L46+4
 1094 00a6 1868     		ldr	r0, [r3]
 1095              	.LVL46:
 274:USB/Class/CompositeBuilder/Src/usbd_composite_builder.c **** #ifdef USE_USB_HS
 1096              		.loc 1 274 5 is_stmt 0 view .LVU364
 1097 00a8 FFF7FEFF 		bl	USBD_CMPSIT_AddConfDesc
 1098              	.LVL47:
 1099 00ac AFE7     		b	.L40
 1100              	.L41:
 285:USB/Class/CompositeBuilder/Src/usbd_composite_builder.c **** 
 1101              		.loc 1 285 7 is_stmt 1 view .LVU365
 285:USB/Class/CompositeBuilder/Src/usbd_composite_builder.c **** 
 1102              		.loc 1 285 51 is_stmt 0 view .LVU366
 1103 00ae 2C22     		movs	r2, #44
 1104 00b0 02FB0545 		mla	r5, r2, r5, r4
 1105 00b4 0427     		movs	r7, #4
 1106 00b6 C5F81073 		str	r7, [r5, #784]
 288:USB/Class/CompositeBuilder/Src/usbd_composite_builder.c ****       pdev->tclasslist[pdev->classId].NumIf = 1U;
 1107              		.loc 1 288 7 is_stmt 1 view .LVU367
 288:USB/Class/CompositeBuilder/Src/usbd_composite_builder.c ****       pdev->tclasslist[pdev->classId].NumIf = 1U;
 1108              		.loc 1 288 15 is_stmt 0 view .LVU368
 1109 00ba 2046     		mov	r0, r4
 1110 00bc FFF7FEFF 		bl	USBD_CMPSIT_FindFreeIFNbr
 1111              	.LVL48:
 289:USB/Class/CompositeBuilder/Src/usbd_composite_builder.c ****       pdev->tclasslist[pdev->classId].Ifs[0] = idxIf;
 1112              		.loc 1 289 7 is_stmt 1 view .LVU369
 289:USB/Class/CompositeBuilder/Src/usbd_composite_builder.c ****       pdev->tclasslist[pdev->classId].Ifs[0] = idxIf;
 1113              		.loc 1 289 45 is_stmt 0 view .LVU370
 1114 00c0 0126     		movs	r6, #1
 1115 00c2 C5F80863 		str	r6, [r5, #776]
 290:USB/Class/CompositeBuilder/Src/usbd_composite_builder.c **** 
 1116              		.loc 1 290 7 is_stmt 1 view .LVU371
 290:USB/Class/CompositeBuilder/Src/usbd_composite_builder.c **** 
 1117              		.loc 1 290 46 is_stmt 0 view .LVU372
 1118 00c6 85F80C03 		strb	r0, [r5, #780]
 293:USB/Class/CompositeBuilder/Src/usbd_composite_builder.c **** 
 1119              		.loc 1 293 7 is_stmt 1 view .LVU373
 293:USB/Class/CompositeBuilder/Src/usbd_composite_builder.c **** 
 1120              		.loc 1 293 46 is_stmt 0 view .LVU374
 1121 00ca C5F8F462 		str	r6, [r5, #756]
 296:USB/Class/CompositeBuilder/Src/usbd_composite_builder.c **** 
 1122              		.loc 1 296 7 is_stmt 1 view .LVU375
 296:USB/Class/CompositeBuilder/Src/usbd_composite_builder.c **** 
ARM GAS  C:\Users\sapph\AppData\Local\Temp\cc1fiECZ.s 			page 39


 1123              		.loc 1 296 44 is_stmt 0 view .LVU376
 1124 00ce D5F80413 		ldr	r1, [r5, #772]
 1125              	.LVL49:
 299:USB/Class/CompositeBuilder/Src/usbd_composite_builder.c **** 
 1126              		.loc 1 299 7 is_stmt 1 view .LVU377
 1127 00d2 3B46     		mov	r3, r7
 1128 00d4 0322     		movs	r2, #3
 1129 00d6 0978     		ldrb	r1, [r1]	@ zero_extendqisi2
 1130              	.LVL50:
 299:USB/Class/CompositeBuilder/Src/usbd_composite_builder.c **** 
 1131              		.loc 1 299 7 is_stmt 0 view .LVU378
 1132 00d8 2046     		mov	r0, r4
 1133              	.LVL51:
 299:USB/Class/CompositeBuilder/Src/usbd_composite_builder.c **** 
 1134              		.loc 1 299 7 view .LVU379
 1135 00da FFF7FEFF 		bl	USBD_CMPSIT_AssignEp
 1136              	.LVL52:
 302:USB/Class/CompositeBuilder/Src/usbd_composite_builder.c **** 
 1137              		.loc 1 302 7 is_stmt 1 view .LVU380
 1138 00de 3346     		mov	r3, r6
 1139 00e0 044A     		ldr	r2, .L46
 1140 00e2 0549     		ldr	r1, .L46+4
 1141 00e4 0968     		ldr	r1, [r1]
 1142 00e6 2046     		mov	r0, r4
 1143 00e8 FFF7FEFF 		bl	USBD_CMPSIT_HIDMouseDesc
 1144              	.LVL53:
 308:USB/Class/CompositeBuilder/Src/usbd_composite_builder.c **** #endif /* USBD_CMPSIT_ACTIVATE_HID */
 1145              		.loc 1 308 7 view .LVU381
 1146              	.L43:
 672:USB/Class/CompositeBuilder/Src/usbd_composite_builder.c **** }
 1147              		.loc 1 672 3 view .LVU382
 673:USB/Class/CompositeBuilder/Src/usbd_composite_builder.c **** 
 1148              		.loc 1 673 1 is_stmt 0 view .LVU383
 1149 00ec 0020     		movs	r0, #0
 1150 00ee BDE8F883 		pop	{r3, r4, r5, r6, r7, r8, r9, pc}
 1151              	.LVL54:
 1152              	.L47:
 673:USB/Class/CompositeBuilder/Src/usbd_composite_builder.c **** 
 1153              		.loc 1 673 1 view .LVU384
 1154 00f2 00BF     		.align	2
 1155              	.L46:
 1156 00f4 00000000 		.word	CurrFSConfDescSz
 1157 00f8 00000000 		.word	pCmpstFSConfDesc
 1158              		.cfi_endproc
 1159              	.LFE165:
 1161              		.section	.text.USBD_CMPSIT_AddClass,"ax",%progbits
 1162              		.align	1
 1163              		.global	USBD_CMPSIT_AddClass
 1164              		.syntax unified
 1165              		.thumb
 1166              		.thumb_func
 1168              	USBD_CMPSIT_AddClass:
 1169              	.LVL55:
 1170              	.LFB164:
 237:USB/Class/CompositeBuilder/Src/usbd_composite_builder.c ****   if ((pdev->classId < USBD_MAX_SUPPORTED_CLASS) && (pdev->tclasslist[pdev->classId].Active == 0U))
 1171              		.loc 1 237 1 is_stmt 1 view -0
 1172              		.cfi_startproc
ARM GAS  C:\Users\sapph\AppData\Local\Temp\cc1fiECZ.s 			page 40


 1173              		@ args = 0, pretend = 0, frame = 0
 1174              		@ frame_needed = 0, uses_anonymous_args = 0
 238:USB/Class/CompositeBuilder/Src/usbd_composite_builder.c ****   {
 1175              		.loc 1 238 3 view .LVU386
 238:USB/Class/CompositeBuilder/Src/usbd_composite_builder.c ****   {
 1176              		.loc 1 238 12 is_stmt 0 view .LVU387
 1177 0000 D0F8E032 		ldr	r3, [r0, #736]
 1178              	.LVL56:
 238:USB/Class/CompositeBuilder/Src/usbd_composite_builder.c ****   {
 1179              		.loc 1 238 6 view .LVU388
 1180 0004 012B     		cmp	r3, #1
 1181 0006 01D9     		bls	.L57
 255:USB/Class/CompositeBuilder/Src/usbd_composite_builder.c **** }
 1182              		.loc 1 255 10 view .LVU389
 1183 0008 0020     		movs	r0, #0
 1184              	.LVL57:
 256:USB/Class/CompositeBuilder/Src/usbd_composite_builder.c **** 
 1185              		.loc 1 256 1 view .LVU390
 1186 000a 7047     		bx	lr
 1187              	.LVL58:
 1188              	.L57:
 237:USB/Class/CompositeBuilder/Src/usbd_composite_builder.c ****   if ((pdev->classId < USBD_MAX_SUPPORTED_CLASS) && (pdev->tclasslist[pdev->classId].Active == 0U))
 1189              		.loc 1 237 1 view .LVU391
 1190 000c 10B5     		push	{r4, lr}
 1191              		.cfi_def_cfa_offset 8
 1192              		.cfi_offset 4, -8
 1193              		.cfi_offset 14, -4
 238:USB/Class/CompositeBuilder/Src/usbd_composite_builder.c ****   {
 1194              		.loc 1 238 85 discriminator 1 view .LVU392
 1195 000e 4FF02C0C 		mov	ip, #44
 1196 0012 0CFB030C 		mla	ip, ip, r3, r0
 1197 0016 DCF8F042 		ldr	r4, [ip, #752]
 238:USB/Class/CompositeBuilder/Src/usbd_composite_builder.c ****   {
 1198              		.loc 1 238 50 discriminator 1 view .LVU393
 1199 001a 0CB1     		cbz	r4, .L58
 255:USB/Class/CompositeBuilder/Src/usbd_composite_builder.c **** }
 1200              		.loc 1 255 10 view .LVU394
 1201 001c 0020     		movs	r0, #0
 1202              	.LVL59:
 1203              	.L49:
 256:USB/Class/CompositeBuilder/Src/usbd_composite_builder.c **** 
 1204              		.loc 1 256 1 view .LVU395
 1205 001e 10BD     		pop	{r4, pc}
 1206              	.LVL60:
 1207              	.L58:
 241:USB/Class/CompositeBuilder/Src/usbd_composite_builder.c ****     pdev->tclasslist[pdev->classId].ClassId = pdev->classId;
 1208              		.loc 1 241 5 is_stmt 1 view .LVU396
 241:USB/Class/CompositeBuilder/Src/usbd_composite_builder.c ****     pdev->tclasslist[pdev->classId].ClassId = pdev->classId;
 1209              		.loc 1 241 33 is_stmt 0 view .LVU397
 1210 0020 03F1AE04 		add	r4, r3, #174
 1211 0024 40F82410 		str	r1, [r0, r4, lsl #2]
 242:USB/Class/CompositeBuilder/Src/usbd_composite_builder.c ****     pdev->tclasslist[pdev->classId].Active = 1U;
 1212              		.loc 1 242 5 is_stmt 1 view .LVU398
 242:USB/Class/CompositeBuilder/Src/usbd_composite_builder.c ****     pdev->tclasslist[pdev->classId].Active = 1U;
 1213              		.loc 1 242 45 is_stmt 0 view .LVU399
 1214 0028 CCF8EC32 		str	r3, [ip, #748]
 243:USB/Class/CompositeBuilder/Src/usbd_composite_builder.c ****     pdev->tclasslist[pdev->classId].ClassType = class;
ARM GAS  C:\Users\sapph\AppData\Local\Temp\cc1fiECZ.s 			page 41


 1215              		.loc 1 243 5 is_stmt 1 view .LVU400
 243:USB/Class/CompositeBuilder/Src/usbd_composite_builder.c ****     pdev->tclasslist[pdev->classId].ClassType = class;
 1216              		.loc 1 243 44 is_stmt 0 view .LVU401
 1217 002c 0123     		movs	r3, #1
 1218 002e CCF8F032 		str	r3, [ip, #752]
 244:USB/Class/CompositeBuilder/Src/usbd_composite_builder.c **** 
 1219              		.loc 1 244 5 is_stmt 1 view .LVU402
 244:USB/Class/CompositeBuilder/Src/usbd_composite_builder.c **** 
 1220              		.loc 1 244 47 is_stmt 0 view .LVU403
 1221 0032 8CF8E822 		strb	r2, [ip, #744]
 247:USB/Class/CompositeBuilder/Src/usbd_composite_builder.c ****     {
 1222              		.loc 1 247 5 is_stmt 1 view .LVU404
 247:USB/Class/CompositeBuilder/Src/usbd_composite_builder.c ****     {
 1223              		.loc 1 247 9 is_stmt 0 view .LVU405
 1224 0036 FFF7FEFF 		bl	USBD_CMPSIT_AddToConfDesc
 1225              	.LVL61:
 247:USB/Class/CompositeBuilder/Src/usbd_composite_builder.c ****     {
 1226              		.loc 1 247 8 discriminator 1 view .LVU406
 1227 003a 0028     		cmp	r0, #0
 1228 003c EFD0     		beq	.L49
 249:USB/Class/CompositeBuilder/Src/usbd_composite_builder.c ****     }
 1229              		.loc 1 249 14 view .LVU407
 1230 003e 0320     		movs	r0, #3
 1231 0040 EDE7     		b	.L49
 1232              		.cfi_endproc
 1233              	.LFE164:
 1235              		.section	.text.USBD_CMPSIT_SetClassID,"ax",%progbits
 1236              		.align	1
 1237              		.global	USBD_CMPSIT_SetClassID
 1238              		.syntax unified
 1239              		.thumb
 1240              		.thumb_func
 1242              	USBD_CMPSIT_SetClassID:
 1243              	.LVL62:
 1244              	.LFB174:
 984:USB/Class/CompositeBuilder/Src/usbd_composite_builder.c **** #endif /* USBD_CMPSIT_ACTIVATE_CDC == 1 */
 985:USB/Class/CompositeBuilder/Src/usbd_composite_builder.c **** 
 986:USB/Class/CompositeBuilder/Src/usbd_composite_builder.c **** #if USBD_CMPSIT_ACTIVATE_DFU == 1
 987:USB/Class/CompositeBuilder/Src/usbd_composite_builder.c **** /**
 988:USB/Class/CompositeBuilder/Src/usbd_composite_builder.c ****   * @brief  USBD_CMPSIT_DFUDesc
 989:USB/Class/CompositeBuilder/Src/usbd_composite_builder.c ****   *         Configure and Append the DFU Descriptor
 990:USB/Class/CompositeBuilder/Src/usbd_composite_builder.c ****   * @param  pdev: device instance
 991:USB/Class/CompositeBuilder/Src/usbd_composite_builder.c ****   * @param  pConf: Configuration descriptor pointer
 992:USB/Class/CompositeBuilder/Src/usbd_composite_builder.c ****   * @param  Sze: pointer to the current configuration descriptor size
 993:USB/Class/CompositeBuilder/Src/usbd_composite_builder.c ****   * @retval None
 994:USB/Class/CompositeBuilder/Src/usbd_composite_builder.c ****   */
 995:USB/Class/CompositeBuilder/Src/usbd_composite_builder.c **** static void  USBD_CMPSIT_DFUDesc(USBD_HandleTypeDef *pdev, uint32_t pConf, __IO uint32_t *Sze, uint
 996:USB/Class/CompositeBuilder/Src/usbd_composite_builder.c **** {
 997:USB/Class/CompositeBuilder/Src/usbd_composite_builder.c ****   static USBD_IfDescTypeDef *pIfDesc;
 998:USB/Class/CompositeBuilder/Src/usbd_composite_builder.c ****   static USBD_DFUFuncDescTypeDef *pDFUFuncDesc;
 999:USB/Class/CompositeBuilder/Src/usbd_composite_builder.c ****   uint32_t idx;
1000:USB/Class/CompositeBuilder/Src/usbd_composite_builder.c ****   UNUSED(speed);
1001:USB/Class/CompositeBuilder/Src/usbd_composite_builder.c **** 
1002:USB/Class/CompositeBuilder/Src/usbd_composite_builder.c ****   for (idx = 0U; idx < USBD_DFU_MAX_ITF_NUM; idx++)
1003:USB/Class/CompositeBuilder/Src/usbd_composite_builder.c ****   {
1004:USB/Class/CompositeBuilder/Src/usbd_composite_builder.c ****     /* Append DFU Interface descriptor to Configuration descriptor */
1005:USB/Class/CompositeBuilder/Src/usbd_composite_builder.c ****     __USBD_CMPSIT_SET_IF(pdev->tclasslist[pdev->classId].Ifs[0], (uint8_t)idx, 0U, 0xFEU, 0x01U, 0x
ARM GAS  C:\Users\sapph\AppData\Local\Temp\cc1fiECZ.s 			page 42


1006:USB/Class/CompositeBuilder/Src/usbd_composite_builder.c ****                          (uint8_t)USBD_IDX_INTERFACE_STR + 1U + (uint8_t)idx);
1007:USB/Class/CompositeBuilder/Src/usbd_composite_builder.c ****   }
1008:USB/Class/CompositeBuilder/Src/usbd_composite_builder.c **** 
1009:USB/Class/CompositeBuilder/Src/usbd_composite_builder.c ****   /* Append DFU Functional descriptor to Configuration descriptor */
1010:USB/Class/CompositeBuilder/Src/usbd_composite_builder.c ****   pDFUFuncDesc = ((USBD_DFUFuncDescTypeDef *)(pConf + *Sze));
1011:USB/Class/CompositeBuilder/Src/usbd_composite_builder.c ****   pDFUFuncDesc->bLength              = (uint8_t)sizeof(USBD_DFUFuncDescTypeDef);
1012:USB/Class/CompositeBuilder/Src/usbd_composite_builder.c ****   pDFUFuncDesc->bDescriptorType      = DFU_DESCRIPTOR_TYPE;
1013:USB/Class/CompositeBuilder/Src/usbd_composite_builder.c ****   pDFUFuncDesc->bmAttributes         = USBD_DFU_BM_ATTRIBUTES;
1014:USB/Class/CompositeBuilder/Src/usbd_composite_builder.c ****   pDFUFuncDesc->wDetachTimeout       = USBD_DFU_DETACH_TIMEOUT;
1015:USB/Class/CompositeBuilder/Src/usbd_composite_builder.c ****   pDFUFuncDesc->wTransferSze         = USBD_DFU_XFER_SIZE;
1016:USB/Class/CompositeBuilder/Src/usbd_composite_builder.c ****   pDFUFuncDesc->bcdDFUVersion        = 0x011AU;
1017:USB/Class/CompositeBuilder/Src/usbd_composite_builder.c ****   *Sze                              += (uint32_t)sizeof(USBD_DFUFuncDescTypeDef);
1018:USB/Class/CompositeBuilder/Src/usbd_composite_builder.c **** 
1019:USB/Class/CompositeBuilder/Src/usbd_composite_builder.c ****   /* Update Config Descriptor and IAD descriptor */
1020:USB/Class/CompositeBuilder/Src/usbd_composite_builder.c ****   ((USBD_ConfigDescTypeDef *)pConf)->bNumInterfaces += 1U;
1021:USB/Class/CompositeBuilder/Src/usbd_composite_builder.c ****   ((USBD_ConfigDescTypeDef *)pConf)->wTotalLength = (uint16_t)(*Sze);
1022:USB/Class/CompositeBuilder/Src/usbd_composite_builder.c **** 
1023:USB/Class/CompositeBuilder/Src/usbd_composite_builder.c ****   UNUSED(idx);
1024:USB/Class/CompositeBuilder/Src/usbd_composite_builder.c **** }
1025:USB/Class/CompositeBuilder/Src/usbd_composite_builder.c **** #endif /* USBD_CMPSIT_ACTIVATE_DFU == 1 */
1026:USB/Class/CompositeBuilder/Src/usbd_composite_builder.c **** 
1027:USB/Class/CompositeBuilder/Src/usbd_composite_builder.c **** #if USBD_CMPSIT_ACTIVATE_CDC_ECM == 1
1028:USB/Class/CompositeBuilder/Src/usbd_composite_builder.c **** /**
1029:USB/Class/CompositeBuilder/Src/usbd_composite_builder.c ****   * @brief  USBD_CMPSIT_CDC_ECMDesc
1030:USB/Class/CompositeBuilder/Src/usbd_composite_builder.c ****   *         Configure and Append the CDC_ECM Descriptor
1031:USB/Class/CompositeBuilder/Src/usbd_composite_builder.c ****   * @param  pdev: device instance
1032:USB/Class/CompositeBuilder/Src/usbd_composite_builder.c ****   * @param  pConf: Configuration descriptor pointer
1033:USB/Class/CompositeBuilder/Src/usbd_composite_builder.c ****   * @param  Sze: pointer to the current configuration descriptor size
1034:USB/Class/CompositeBuilder/Src/usbd_composite_builder.c ****   * @retval None
1035:USB/Class/CompositeBuilder/Src/usbd_composite_builder.c ****   */
1036:USB/Class/CompositeBuilder/Src/usbd_composite_builder.c **** static void  USBD_CMPSIT_CDC_ECMDesc(USBD_HandleTypeDef *pdev, uint32_t pConf, __IO uint32_t *Sze, 
1037:USB/Class/CompositeBuilder/Src/usbd_composite_builder.c **** {
1038:USB/Class/CompositeBuilder/Src/usbd_composite_builder.c ****   static USBD_IfDescTypeDef             *pIfDesc;
1039:USB/Class/CompositeBuilder/Src/usbd_composite_builder.c ****   static USBD_EpDescTypeDef             *pEpDesc;
1040:USB/Class/CompositeBuilder/Src/usbd_composite_builder.c ****   static USBD_ECMFuncDescTypeDef        *pFuncDesc;
1041:USB/Class/CompositeBuilder/Src/usbd_composite_builder.c ****   static USBD_IadDescTypeDef            *pIadDesc;
1042:USB/Class/CompositeBuilder/Src/usbd_composite_builder.c **** 
1043:USB/Class/CompositeBuilder/Src/usbd_composite_builder.c ****   static USBD_CDCHeaderFuncDescTypeDef  *pHeadDesc;
1044:USB/Class/CompositeBuilder/Src/usbd_composite_builder.c ****   static USBD_CDCUnionFuncDescTypeDef   *pUnionDesc;
1045:USB/Class/CompositeBuilder/Src/usbd_composite_builder.c **** 
1046:USB/Class/CompositeBuilder/Src/usbd_composite_builder.c **** #if USBD_COMPOSITE_USE_IAD == 1
1047:USB/Class/CompositeBuilder/Src/usbd_composite_builder.c ****   pIadDesc                          = ((USBD_IadDescTypeDef *)(pConf + *Sze));
1048:USB/Class/CompositeBuilder/Src/usbd_composite_builder.c ****   pIadDesc->bLength                 = (uint8_t)sizeof(USBD_IadDescTypeDef);
1049:USB/Class/CompositeBuilder/Src/usbd_composite_builder.c ****   pIadDesc->bDescriptorType         = USB_DESC_TYPE_IAD; /* IAD descriptor */
1050:USB/Class/CompositeBuilder/Src/usbd_composite_builder.c ****   pIadDesc->bFirstInterface         = pdev->tclasslist[pdev->classId].Ifs[0];
1051:USB/Class/CompositeBuilder/Src/usbd_composite_builder.c ****   pIadDesc->bInterfaceCount         = 2U;    /* 2 interfaces */
1052:USB/Class/CompositeBuilder/Src/usbd_composite_builder.c ****   pIadDesc->bFunctionClass          = 0x02U;
1053:USB/Class/CompositeBuilder/Src/usbd_composite_builder.c ****   pIadDesc->bFunctionSubClass       = 0x06U;
1054:USB/Class/CompositeBuilder/Src/usbd_composite_builder.c ****   pIadDesc->bFunctionProtocol       = 0x00U;
1055:USB/Class/CompositeBuilder/Src/usbd_composite_builder.c ****   pIadDesc->iFunction               = 0U; /* String Index */
1056:USB/Class/CompositeBuilder/Src/usbd_composite_builder.c ****   *Sze                             += (uint32_t)sizeof(USBD_IadDescTypeDef);
1057:USB/Class/CompositeBuilder/Src/usbd_composite_builder.c **** #endif /* USBD_COMPOSITE_USE_IAD == 1 */
1058:USB/Class/CompositeBuilder/Src/usbd_composite_builder.c **** 
1059:USB/Class/CompositeBuilder/Src/usbd_composite_builder.c ****   /* Append ECM Interface descriptor to Configuration descriptor */
1060:USB/Class/CompositeBuilder/Src/usbd_composite_builder.c ****   __USBD_CMPSIT_SET_IF(pdev->tclasslist[pdev->classId].Ifs[0], 0U, 1U, 0x02U, 0x06U, 0U, 0U);
1061:USB/Class/CompositeBuilder/Src/usbd_composite_builder.c **** 
1062:USB/Class/CompositeBuilder/Src/usbd_composite_builder.c ****   /* Append ECM header functional descriptor to Configuration descriptor */
ARM GAS  C:\Users\sapph\AppData\Local\Temp\cc1fiECZ.s 			page 43


1063:USB/Class/CompositeBuilder/Src/usbd_composite_builder.c ****   pHeadDesc = ((USBD_CDCHeaderFuncDescTypeDef *)(pConf + *Sze));
1064:USB/Class/CompositeBuilder/Src/usbd_composite_builder.c ****   pHeadDesc->bLength                 = (uint8_t)sizeof(USBD_CDCHeaderFuncDescTypeDef);
1065:USB/Class/CompositeBuilder/Src/usbd_composite_builder.c ****   pHeadDesc->bDescriptorType         = USBD_FUNC_DESCRIPTOR_TYPE;
1066:USB/Class/CompositeBuilder/Src/usbd_composite_builder.c ****   pHeadDesc->bDescriptorSubtype      = 0x00U;
1067:USB/Class/CompositeBuilder/Src/usbd_composite_builder.c ****   pHeadDesc->bcdCDC                  = 0x1000U;
1068:USB/Class/CompositeBuilder/Src/usbd_composite_builder.c ****   *Sze += (uint32_t)sizeof(USBD_CDCHeaderFuncDescTypeDef);
1069:USB/Class/CompositeBuilder/Src/usbd_composite_builder.c **** 
1070:USB/Class/CompositeBuilder/Src/usbd_composite_builder.c ****   /* Append ECM functional descriptor to Configuration descriptor */
1071:USB/Class/CompositeBuilder/Src/usbd_composite_builder.c ****   pFuncDesc = ((USBD_ECMFuncDescTypeDef *)(pConf + *Sze));
1072:USB/Class/CompositeBuilder/Src/usbd_composite_builder.c ****   pFuncDesc->bFunctionLength         = (uint8_t)sizeof(USBD_ECMFuncDescTypeDef);
1073:USB/Class/CompositeBuilder/Src/usbd_composite_builder.c ****   pFuncDesc->bDescriptorType         = USBD_FUNC_DESCRIPTOR_TYPE;
1074:USB/Class/CompositeBuilder/Src/usbd_composite_builder.c ****   pFuncDesc->bDescriptorSubType      = USBD_DESC_SUBTYPE_ACM;
1075:USB/Class/CompositeBuilder/Src/usbd_composite_builder.c ****   pFuncDesc->iMacAddress             = CDC_ECM_MAC_STRING_INDEX;
1076:USB/Class/CompositeBuilder/Src/usbd_composite_builder.c ****   pFuncDesc->bEthernetStatistics3    = CDC_ECM_ETH_STATS_BYTE3;
1077:USB/Class/CompositeBuilder/Src/usbd_composite_builder.c ****   pFuncDesc->bEthernetStatistics2    = CDC_ECM_ETH_STATS_BYTE2;
1078:USB/Class/CompositeBuilder/Src/usbd_composite_builder.c ****   pFuncDesc->bEthernetStatistics1    = CDC_ECM_ETH_STATS_BYTE1;
1079:USB/Class/CompositeBuilder/Src/usbd_composite_builder.c ****   pFuncDesc->bEthernetStatistics0    = CDC_ECM_ETH_STATS_BYTE0;
1080:USB/Class/CompositeBuilder/Src/usbd_composite_builder.c ****   pFuncDesc->wMaxSegmentSize         = CDC_ECM_ETH_MAX_SEGSZE;
1081:USB/Class/CompositeBuilder/Src/usbd_composite_builder.c ****   pFuncDesc->bNumberMCFiltes         = CDC_ECM_ETH_NBR_MACFILTERS;
1082:USB/Class/CompositeBuilder/Src/usbd_composite_builder.c ****   pFuncDesc->bNumberPowerFiltes      = CDC_ECM_ETH_NBR_PWRFILTERS;
1083:USB/Class/CompositeBuilder/Src/usbd_composite_builder.c ****   *Sze += (uint32_t)sizeof(USBD_ECMFuncDescTypeDef);
1084:USB/Class/CompositeBuilder/Src/usbd_composite_builder.c **** 
1085:USB/Class/CompositeBuilder/Src/usbd_composite_builder.c ****   /* Append ECM Union functional descriptor to Configuration descriptor */
1086:USB/Class/CompositeBuilder/Src/usbd_composite_builder.c ****   pUnionDesc = ((USBD_CDCUnionFuncDescTypeDef *)(pConf + *Sze));
1087:USB/Class/CompositeBuilder/Src/usbd_composite_builder.c ****   pUnionDesc->bLength             = (uint8_t)sizeof(USBD_CDCUnionFuncDescTypeDef);
1088:USB/Class/CompositeBuilder/Src/usbd_composite_builder.c ****   pUnionDesc->bDescriptorType     = 0x24U;
1089:USB/Class/CompositeBuilder/Src/usbd_composite_builder.c ****   pUnionDesc->bDescriptorSubtype  = 0x06U;
1090:USB/Class/CompositeBuilder/Src/usbd_composite_builder.c ****   pUnionDesc->bMasterInterface    = pdev->tclasslist[pdev->classId].Ifs[0];
1091:USB/Class/CompositeBuilder/Src/usbd_composite_builder.c ****   pUnionDesc->bSlaveInterface     = pdev->tclasslist[pdev->classId].Ifs[1];
1092:USB/Class/CompositeBuilder/Src/usbd_composite_builder.c ****   *Sze += (uint32_t)sizeof(USBD_CDCUnionFuncDescTypeDef);
1093:USB/Class/CompositeBuilder/Src/usbd_composite_builder.c **** 
1094:USB/Class/CompositeBuilder/Src/usbd_composite_builder.c ****   /* Append ECM Communication IN Endpoint Descriptor to Configuration descriptor */
1095:USB/Class/CompositeBuilder/Src/usbd_composite_builder.c ****   __USBD_CMPSIT_SET_EP(pdev->tclasslist[pdev->classId].Eps[2].add, USBD_EP_TYPE_INTR, CDC_ECM_CMD_P
1096:USB/Class/CompositeBuilder/Src/usbd_composite_builder.c ****                        CDC_ECM_HS_BINTERVAL, CDC_ECM_FS_BINTERVAL);
1097:USB/Class/CompositeBuilder/Src/usbd_composite_builder.c **** 
1098:USB/Class/CompositeBuilder/Src/usbd_composite_builder.c ****   /* Append ECM Data class interface descriptor to Configuration descriptor */
1099:USB/Class/CompositeBuilder/Src/usbd_composite_builder.c ****   __USBD_CMPSIT_SET_IF(pdev->tclasslist[pdev->classId].Ifs[1], 0U, 2U, 0x0AU, 0U, 0U, 0U);
1100:USB/Class/CompositeBuilder/Src/usbd_composite_builder.c **** 
1101:USB/Class/CompositeBuilder/Src/usbd_composite_builder.c ****   if (speed == (uint8_t)USBD_SPEED_HIGH)
1102:USB/Class/CompositeBuilder/Src/usbd_composite_builder.c ****   {
1103:USB/Class/CompositeBuilder/Src/usbd_composite_builder.c ****     pdev->tclasslist[pdev->classId].CurrPcktSze = CDC_ECM_DATA_HS_MAX_PACKET_SIZE;
1104:USB/Class/CompositeBuilder/Src/usbd_composite_builder.c ****   }
1105:USB/Class/CompositeBuilder/Src/usbd_composite_builder.c **** 
1106:USB/Class/CompositeBuilder/Src/usbd_composite_builder.c ****   /* Append ECM OUT Endpoint Descriptor to Configuration descriptor */
1107:USB/Class/CompositeBuilder/Src/usbd_composite_builder.c ****   __USBD_CMPSIT_SET_EP((pdev->tclasslist[pdev->classId].Eps[0].add), (USBD_EP_TYPE_BULK), \
1108:USB/Class/CompositeBuilder/Src/usbd_composite_builder.c ****                        (pdev->tclasslist[pdev->classId].CurrPcktSze), (CDC_ECM_HS_BINTERVAL), (CDC_
1109:USB/Class/CompositeBuilder/Src/usbd_composite_builder.c **** 
1110:USB/Class/CompositeBuilder/Src/usbd_composite_builder.c ****   /* Append ECM IN Endpoint Descriptor to Configuration descriptor */
1111:USB/Class/CompositeBuilder/Src/usbd_composite_builder.c ****   __USBD_CMPSIT_SET_EP((pdev->tclasslist[pdev->classId].Eps[1].add), (USBD_EP_TYPE_BULK), \
1112:USB/Class/CompositeBuilder/Src/usbd_composite_builder.c ****                        (pdev->tclasslist[pdev->classId].CurrPcktSze), (CDC_ECM_HS_BINTERVAL), (CDC_
1113:USB/Class/CompositeBuilder/Src/usbd_composite_builder.c **** 
1114:USB/Class/CompositeBuilder/Src/usbd_composite_builder.c ****   /* Update Config Descriptor and IAD descriptor */
1115:USB/Class/CompositeBuilder/Src/usbd_composite_builder.c ****   ((USBD_ConfigDescTypeDef *)pConf)->bNumInterfaces += 2U;
1116:USB/Class/CompositeBuilder/Src/usbd_composite_builder.c ****   ((USBD_ConfigDescTypeDef *)pConf)->wTotalLength = (uint16_t)(*Sze);
1117:USB/Class/CompositeBuilder/Src/usbd_composite_builder.c **** }
1118:USB/Class/CompositeBuilder/Src/usbd_composite_builder.c **** #endif /* USBD_CMPSIT_ACTIVATE_CDC_ECM */
1119:USB/Class/CompositeBuilder/Src/usbd_composite_builder.c **** 
ARM GAS  C:\Users\sapph\AppData\Local\Temp\cc1fiECZ.s 			page 44


1120:USB/Class/CompositeBuilder/Src/usbd_composite_builder.c **** #if USBD_CMPSIT_ACTIVATE_AUDIO == 1
1121:USB/Class/CompositeBuilder/Src/usbd_composite_builder.c **** /**
1122:USB/Class/CompositeBuilder/Src/usbd_composite_builder.c ****   * @brief  USBD_CMPSIT_AUDIODesc
1123:USB/Class/CompositeBuilder/Src/usbd_composite_builder.c ****   *         Configure and Append the AUDIO Descriptor
1124:USB/Class/CompositeBuilder/Src/usbd_composite_builder.c ****   * @param  pdev: device instance
1125:USB/Class/CompositeBuilder/Src/usbd_composite_builder.c ****   * @param  pConf: Configuration descriptor pointer
1126:USB/Class/CompositeBuilder/Src/usbd_composite_builder.c ****   * @param  Sze: pointer to the current configuration descriptor size
1127:USB/Class/CompositeBuilder/Src/usbd_composite_builder.c ****   * @retval None
1128:USB/Class/CompositeBuilder/Src/usbd_composite_builder.c ****   */
1129:USB/Class/CompositeBuilder/Src/usbd_composite_builder.c **** static void  USBD_CMPSIT_AUDIODesc(USBD_HandleTypeDef *pdev, uint32_t pConf, __IO uint32_t *Sze, ui
1130:USB/Class/CompositeBuilder/Src/usbd_composite_builder.c **** {
1131:USB/Class/CompositeBuilder/Src/usbd_composite_builder.c ****   static USBD_IfDescTypeDef *pIfDesc;
1132:USB/Class/CompositeBuilder/Src/usbd_composite_builder.c ****   static USBD_IadDescTypeDef *pIadDesc;
1133:USB/Class/CompositeBuilder/Src/usbd_composite_builder.c ****   UNUSED(speed);
1134:USB/Class/CompositeBuilder/Src/usbd_composite_builder.c **** 
1135:USB/Class/CompositeBuilder/Src/usbd_composite_builder.c ****   /* Append AUDIO Interface descriptor to Configuration descriptor */
1136:USB/Class/CompositeBuilder/Src/usbd_composite_builder.c ****   USBD_SpeakerIfDescTypeDef            *pSpIfDesc;
1137:USB/Class/CompositeBuilder/Src/usbd_composite_builder.c ****   USBD_SpeakerInDescTypeDef            *pSpInDesc;
1138:USB/Class/CompositeBuilder/Src/usbd_composite_builder.c ****   USBD_SpeakerFeatureDescTypeDef       *pSpFDesc;
1139:USB/Class/CompositeBuilder/Src/usbd_composite_builder.c ****   USBD_SpeakerOutDescTypeDef           *pSpOutDesc;
1140:USB/Class/CompositeBuilder/Src/usbd_composite_builder.c ****   USBD_SpeakerStreamIfDescTypeDef      *pSpStrDesc;
1141:USB/Class/CompositeBuilder/Src/usbd_composite_builder.c ****   USBD_SpeakerIIIFormatIfDescTypeDef   *pSpIIIDesc;
1142:USB/Class/CompositeBuilder/Src/usbd_composite_builder.c ****   USBD_SpeakerEndDescTypeDef           *pSpEpDesc;
1143:USB/Class/CompositeBuilder/Src/usbd_composite_builder.c ****   USBD_SpeakerEndStDescTypeDef         *pSpEpStDesc;
1144:USB/Class/CompositeBuilder/Src/usbd_composite_builder.c **** 
1145:USB/Class/CompositeBuilder/Src/usbd_composite_builder.c **** #if USBD_COMPOSITE_USE_IAD == 1
1146:USB/Class/CompositeBuilder/Src/usbd_composite_builder.c ****   pIadDesc                          = ((USBD_IadDescTypeDef *)(pConf + *Sze));
1147:USB/Class/CompositeBuilder/Src/usbd_composite_builder.c ****   pIadDesc->bLength                 = (uint8_t)sizeof(USBD_IadDescTypeDef);
1148:USB/Class/CompositeBuilder/Src/usbd_composite_builder.c ****   pIadDesc->bDescriptorType         = USB_DESC_TYPE_IAD; /* IAD descriptor */
1149:USB/Class/CompositeBuilder/Src/usbd_composite_builder.c ****   pIadDesc->bFirstInterface         = pdev->tclasslist[pdev->classId].Ifs[0];
1150:USB/Class/CompositeBuilder/Src/usbd_composite_builder.c ****   pIadDesc->bInterfaceCount         = 2U;    /* 2 interfaces */
1151:USB/Class/CompositeBuilder/Src/usbd_composite_builder.c ****   pIadDesc->bFunctionClass          = USB_DEVICE_CLASS_AUDIO;
1152:USB/Class/CompositeBuilder/Src/usbd_composite_builder.c ****   pIadDesc->bFunctionSubClass       = AUDIO_SUBCLASS_AUDIOCONTROL;
1153:USB/Class/CompositeBuilder/Src/usbd_composite_builder.c ****   pIadDesc->bFunctionProtocol       = AUDIO_PROTOCOL_UNDEFINED;
1154:USB/Class/CompositeBuilder/Src/usbd_composite_builder.c ****   pIadDesc->iFunction               = 0U; /* String Index */
1155:USB/Class/CompositeBuilder/Src/usbd_composite_builder.c ****   *Sze                             += (uint32_t)sizeof(USBD_IadDescTypeDef);
1156:USB/Class/CompositeBuilder/Src/usbd_composite_builder.c **** #endif /* USBD_COMPOSITE_USE_IAD == 1 */
1157:USB/Class/CompositeBuilder/Src/usbd_composite_builder.c **** 
1158:USB/Class/CompositeBuilder/Src/usbd_composite_builder.c ****   /* Append AUDIO Interface descriptor to Configuration descriptor */
1159:USB/Class/CompositeBuilder/Src/usbd_composite_builder.c ****   __USBD_CMPSIT_SET_IF(pdev->tclasslist[pdev->classId].Ifs[0], 0U, 0U, USB_DEVICE_CLASS_AUDIO, \
1160:USB/Class/CompositeBuilder/Src/usbd_composite_builder.c ****                        AUDIO_SUBCLASS_AUDIOCONTROL, AUDIO_PROTOCOL_UNDEFINED, 0U);
1161:USB/Class/CompositeBuilder/Src/usbd_composite_builder.c **** 
1162:USB/Class/CompositeBuilder/Src/usbd_composite_builder.c ****   /* Append AUDIO USB Speaker Class-specific AC Interface descriptor to Configuration descriptor */
1163:USB/Class/CompositeBuilder/Src/usbd_composite_builder.c ****   pSpIfDesc = ((USBD_SpeakerIfDescTypeDef *)(pConf + *Sze));
1164:USB/Class/CompositeBuilder/Src/usbd_composite_builder.c ****   pSpIfDesc->bLength = (uint8_t)sizeof(USBD_IfDescTypeDef);
1165:USB/Class/CompositeBuilder/Src/usbd_composite_builder.c ****   pSpIfDesc->bDescriptorType = AUDIO_INTERFACE_DESCRIPTOR_TYPE;
1166:USB/Class/CompositeBuilder/Src/usbd_composite_builder.c ****   pSpIfDesc->bDescriptorSubtype = AUDIO_CONTROL_HEADER;
1167:USB/Class/CompositeBuilder/Src/usbd_composite_builder.c ****   pSpIfDesc->bcdADC = 0x0100U;
1168:USB/Class/CompositeBuilder/Src/usbd_composite_builder.c ****   pSpIfDesc->wTotalLength = 0x0027U;
1169:USB/Class/CompositeBuilder/Src/usbd_composite_builder.c ****   pSpIfDesc->bInCollection = 0x01U;
1170:USB/Class/CompositeBuilder/Src/usbd_composite_builder.c ****   pSpIfDesc->baInterfaceNr = 0x01U;
1171:USB/Class/CompositeBuilder/Src/usbd_composite_builder.c ****   *Sze += (uint32_t)sizeof(USBD_IfDescTypeDef);
1172:USB/Class/CompositeBuilder/Src/usbd_composite_builder.c **** 
1173:USB/Class/CompositeBuilder/Src/usbd_composite_builder.c ****   /* Append USB Speaker Input Terminal Descriptor to Configuration descriptor*/
1174:USB/Class/CompositeBuilder/Src/usbd_composite_builder.c ****   pSpInDesc = ((USBD_SpeakerInDescTypeDef *)(pConf + *Sze));
1175:USB/Class/CompositeBuilder/Src/usbd_composite_builder.c ****   pSpInDesc->bLength = (uint8_t)sizeof(USBD_SpeakerInDescTypeDef);
1176:USB/Class/CompositeBuilder/Src/usbd_composite_builder.c ****   pSpInDesc->bDescriptorType = AUDIO_INTERFACE_DESCRIPTOR_TYPE;
ARM GAS  C:\Users\sapph\AppData\Local\Temp\cc1fiECZ.s 			page 45


1177:USB/Class/CompositeBuilder/Src/usbd_composite_builder.c ****   pSpInDesc->bDescriptorSubtype = AUDIO_CONTROL_INPUT_TERMINAL;
1178:USB/Class/CompositeBuilder/Src/usbd_composite_builder.c ****   pSpInDesc->bTerminalID = 0x01U;
1179:USB/Class/CompositeBuilder/Src/usbd_composite_builder.c ****   pSpInDesc->wTerminalType = 0x0101U;
1180:USB/Class/CompositeBuilder/Src/usbd_composite_builder.c ****   pSpInDesc->bAssocTerminal = 0x00U;
1181:USB/Class/CompositeBuilder/Src/usbd_composite_builder.c ****   pSpInDesc->bNrChannels = 0x01U;
1182:USB/Class/CompositeBuilder/Src/usbd_composite_builder.c ****   pSpInDesc->wChannelConfig = 0x0000U;
1183:USB/Class/CompositeBuilder/Src/usbd_composite_builder.c ****   pSpInDesc->iChannelNames = 0x00U;
1184:USB/Class/CompositeBuilder/Src/usbd_composite_builder.c ****   pSpInDesc->iTerminal = 0x00U;
1185:USB/Class/CompositeBuilder/Src/usbd_composite_builder.c ****   *Sze += (uint32_t)sizeof(USBD_SpeakerInDescTypeDef);
1186:USB/Class/CompositeBuilder/Src/usbd_composite_builder.c **** 
1187:USB/Class/CompositeBuilder/Src/usbd_composite_builder.c ****   /*Append USB Speaker Audio Feature Unit Descriptor to Configuration descriptor */
1188:USB/Class/CompositeBuilder/Src/usbd_composite_builder.c ****   pSpFDesc = ((USBD_SpeakerFeatureDescTypeDef *)(pConf + *Sze));
1189:USB/Class/CompositeBuilder/Src/usbd_composite_builder.c ****   pSpFDesc->bLength = (uint8_t)sizeof(USBD_SpeakerFeatureDescTypeDef);
1190:USB/Class/CompositeBuilder/Src/usbd_composite_builder.c ****   pSpFDesc->bDescriptorType = AUDIO_INTERFACE_DESCRIPTOR_TYPE;
1191:USB/Class/CompositeBuilder/Src/usbd_composite_builder.c ****   pSpFDesc->bDescriptorSubtype = AUDIO_CONTROL_FEATURE_UNIT;
1192:USB/Class/CompositeBuilder/Src/usbd_composite_builder.c ****   pSpFDesc->bUnitID = AUDIO_OUT_STREAMING_CTRL;
1193:USB/Class/CompositeBuilder/Src/usbd_composite_builder.c ****   pSpFDesc->bSourceID = 0x01U;
1194:USB/Class/CompositeBuilder/Src/usbd_composite_builder.c ****   pSpFDesc->bControlSize = 0x01U;
1195:USB/Class/CompositeBuilder/Src/usbd_composite_builder.c ****   pSpFDesc->bmaControls = AUDIO_CONTROL_MUTE;
1196:USB/Class/CompositeBuilder/Src/usbd_composite_builder.c ****   pSpFDesc->iTerminal = 0x00U;
1197:USB/Class/CompositeBuilder/Src/usbd_composite_builder.c ****   *Sze += (uint32_t)sizeof(USBD_SpeakerFeatureDescTypeDef);
1198:USB/Class/CompositeBuilder/Src/usbd_composite_builder.c **** 
1199:USB/Class/CompositeBuilder/Src/usbd_composite_builder.c ****   /*Append USB Speaker Output Terminal Descriptor to Configuration descriptor*/
1200:USB/Class/CompositeBuilder/Src/usbd_composite_builder.c ****   pSpOutDesc = ((USBD_SpeakerOutDescTypeDef *)(pConf + *Sze));
1201:USB/Class/CompositeBuilder/Src/usbd_composite_builder.c ****   pSpOutDesc->bLength = (uint8_t)sizeof(USBD_SpeakerOutDescTypeDef);
1202:USB/Class/CompositeBuilder/Src/usbd_composite_builder.c ****   pSpOutDesc->bDescriptorType = AUDIO_INTERFACE_DESCRIPTOR_TYPE;
1203:USB/Class/CompositeBuilder/Src/usbd_composite_builder.c ****   pSpOutDesc->bDescriptorSubtype = AUDIO_CONTROL_OUTPUT_TERMINAL;
1204:USB/Class/CompositeBuilder/Src/usbd_composite_builder.c ****   pSpOutDesc->bTerminalID = 0x03U;
1205:USB/Class/CompositeBuilder/Src/usbd_composite_builder.c ****   pSpOutDesc->wTerminalType = 0x0301U;
1206:USB/Class/CompositeBuilder/Src/usbd_composite_builder.c ****   pSpOutDesc->bAssocTerminal = 0x00U;
1207:USB/Class/CompositeBuilder/Src/usbd_composite_builder.c ****   pSpOutDesc->bSourceID = 0x02U;
1208:USB/Class/CompositeBuilder/Src/usbd_composite_builder.c ****   pSpOutDesc->iTerminal = 0x00U;
1209:USB/Class/CompositeBuilder/Src/usbd_composite_builder.c ****   *Sze += (uint32_t)sizeof(USBD_SpeakerOutDescTypeDef);
1210:USB/Class/CompositeBuilder/Src/usbd_composite_builder.c **** 
1211:USB/Class/CompositeBuilder/Src/usbd_composite_builder.c ****   /* USB Speaker Standard AS Interface Descriptor - Audio Streaming Zero Bandwidth */
1212:USB/Class/CompositeBuilder/Src/usbd_composite_builder.c ****   /* Interface 1, Alternate Setting 0*/
1213:USB/Class/CompositeBuilder/Src/usbd_composite_builder.c ****   __USBD_CMPSIT_SET_IF(pdev->tclasslist[pdev->classId].Ifs[1], 0U, 0U, USB_DEVICE_CLASS_AUDIO, \
1214:USB/Class/CompositeBuilder/Src/usbd_composite_builder.c ****                        AUDIO_SUBCLASS_AUDIOSTREAMING, AUDIO_PROTOCOL_UNDEFINED, 0U);
1215:USB/Class/CompositeBuilder/Src/usbd_composite_builder.c **** 
1216:USB/Class/CompositeBuilder/Src/usbd_composite_builder.c ****   /* USB Speaker Standard AS Interface Descriptor -Audio Streaming Operational */
1217:USB/Class/CompositeBuilder/Src/usbd_composite_builder.c ****   /* Interface 1, Alternate Setting 1*/
1218:USB/Class/CompositeBuilder/Src/usbd_composite_builder.c ****   __USBD_CMPSIT_SET_IF(pdev->tclasslist[pdev->classId].Ifs[1], 0x01U, 0x01U, USB_DEVICE_CLASS_AUDIO
1219:USB/Class/CompositeBuilder/Src/usbd_composite_builder.c ****                        AUDIO_SUBCLASS_AUDIOSTREAMING, AUDIO_PROTOCOL_UNDEFINED, 0U);
1220:USB/Class/CompositeBuilder/Src/usbd_composite_builder.c **** 
1221:USB/Class/CompositeBuilder/Src/usbd_composite_builder.c ****   /* USB Speaker Audio Streaming Interface Descriptor */
1222:USB/Class/CompositeBuilder/Src/usbd_composite_builder.c ****   pSpStrDesc = ((USBD_SpeakerStreamIfDescTypeDef *)(pConf + *Sze));
1223:USB/Class/CompositeBuilder/Src/usbd_composite_builder.c ****   pSpStrDesc->bLength = (uint8_t)sizeof(USBD_SpeakerStreamIfDescTypeDef);
1224:USB/Class/CompositeBuilder/Src/usbd_composite_builder.c ****   pSpStrDesc->bDescriptorType = AUDIO_INTERFACE_DESCRIPTOR_TYPE;
1225:USB/Class/CompositeBuilder/Src/usbd_composite_builder.c ****   pSpStrDesc->bDescriptorSubtype = AUDIO_STREAMING_GENERAL;
1226:USB/Class/CompositeBuilder/Src/usbd_composite_builder.c ****   pSpStrDesc->bTerminalLink = 0x01U;
1227:USB/Class/CompositeBuilder/Src/usbd_composite_builder.c ****   pSpStrDesc->bDelay = 0x01U;
1228:USB/Class/CompositeBuilder/Src/usbd_composite_builder.c ****   pSpStrDesc->wFormatTag = 0x0001U;
1229:USB/Class/CompositeBuilder/Src/usbd_composite_builder.c ****   *Sze += (uint32_t)sizeof(USBD_SpeakerStreamIfDescTypeDef);
1230:USB/Class/CompositeBuilder/Src/usbd_composite_builder.c **** 
1231:USB/Class/CompositeBuilder/Src/usbd_composite_builder.c ****   /* USB Speaker Audio Type III Format Interface Descriptor */
1232:USB/Class/CompositeBuilder/Src/usbd_composite_builder.c ****   pSpIIIDesc = ((USBD_SpeakerIIIFormatIfDescTypeDef *)(pConf + *Sze));
1233:USB/Class/CompositeBuilder/Src/usbd_composite_builder.c ****   pSpIIIDesc->bLength = (uint8_t)sizeof(USBD_SpeakerIIIFormatIfDescTypeDef);
ARM GAS  C:\Users\sapph\AppData\Local\Temp\cc1fiECZ.s 			page 46


1234:USB/Class/CompositeBuilder/Src/usbd_composite_builder.c ****   pSpIIIDesc->bDescriptorType = AUDIO_INTERFACE_DESCRIPTOR_TYPE;
1235:USB/Class/CompositeBuilder/Src/usbd_composite_builder.c ****   pSpIIIDesc->bDescriptorSubtype = AUDIO_STREAMING_FORMAT_TYPE;
1236:USB/Class/CompositeBuilder/Src/usbd_composite_builder.c ****   pSpIIIDesc->bFormatType = AUDIO_FORMAT_TYPE_I;
1237:USB/Class/CompositeBuilder/Src/usbd_composite_builder.c ****   pSpIIIDesc->bNrChannels = 0x02U;
1238:USB/Class/CompositeBuilder/Src/usbd_composite_builder.c ****   pSpIIIDesc->bSubFrameSize = 0x02U;
1239:USB/Class/CompositeBuilder/Src/usbd_composite_builder.c ****   pSpIIIDesc->bBitResolution = 16U;
1240:USB/Class/CompositeBuilder/Src/usbd_composite_builder.c ****   pSpIIIDesc->bSamFreqType = 1U;
1241:USB/Class/CompositeBuilder/Src/usbd_composite_builder.c ****   pSpIIIDesc->tSamFreq2 = 0x80U;
1242:USB/Class/CompositeBuilder/Src/usbd_composite_builder.c ****   pSpIIIDesc->tSamFreq1 = 0xBBU;
1243:USB/Class/CompositeBuilder/Src/usbd_composite_builder.c ****   pSpIIIDesc->tSamFreq0 = 0x00U;
1244:USB/Class/CompositeBuilder/Src/usbd_composite_builder.c ****   *Sze += (uint32_t)sizeof(USBD_SpeakerIIIFormatIfDescTypeDef);
1245:USB/Class/CompositeBuilder/Src/usbd_composite_builder.c **** 
1246:USB/Class/CompositeBuilder/Src/usbd_composite_builder.c ****   /* Endpoint 1 - Standard Descriptor */
1247:USB/Class/CompositeBuilder/Src/usbd_composite_builder.c ****   pSpEpDesc = ((USBD_SpeakerEndDescTypeDef *)(pConf + *Sze));
1248:USB/Class/CompositeBuilder/Src/usbd_composite_builder.c ****   pSpEpDesc->bLength = 0x09U;
1249:USB/Class/CompositeBuilder/Src/usbd_composite_builder.c ****   pSpEpDesc->bDescriptorType = USB_DESC_TYPE_ENDPOINT;
1250:USB/Class/CompositeBuilder/Src/usbd_composite_builder.c ****   pSpEpDesc->bEndpointAddress = pdev->tclasslist[pdev->classId].Eps[0].add;
1251:USB/Class/CompositeBuilder/Src/usbd_composite_builder.c ****   pSpEpDesc->bmAttributes = USBD_EP_TYPE_ISOC;
1252:USB/Class/CompositeBuilder/Src/usbd_composite_builder.c ****   pSpEpDesc->wMaxPacketSize = (uint16_t)USBD_AUDIO_GetEpPcktSze(pdev, 0U, 0U);
1253:USB/Class/CompositeBuilder/Src/usbd_composite_builder.c ****   pSpEpDesc->bInterval = 0x01U;
1254:USB/Class/CompositeBuilder/Src/usbd_composite_builder.c ****   pSpEpDesc->bRefresh = 0x00U;
1255:USB/Class/CompositeBuilder/Src/usbd_composite_builder.c ****   pSpEpDesc->bSynchAddress = 0x00U;
1256:USB/Class/CompositeBuilder/Src/usbd_composite_builder.c ****   *Sze += 0x09U;
1257:USB/Class/CompositeBuilder/Src/usbd_composite_builder.c **** 
1258:USB/Class/CompositeBuilder/Src/usbd_composite_builder.c ****   /* Endpoint - Audio Streaming Descriptor*/
1259:USB/Class/CompositeBuilder/Src/usbd_composite_builder.c ****   pSpEpStDesc = ((USBD_SpeakerEndStDescTypeDef *)(pConf + *Sze));
1260:USB/Class/CompositeBuilder/Src/usbd_composite_builder.c ****   pSpEpStDesc->bLength = (uint8_t)sizeof(USBD_SpeakerEndStDescTypeDef);
1261:USB/Class/CompositeBuilder/Src/usbd_composite_builder.c ****   pSpEpStDesc->bDescriptorType = AUDIO_ENDPOINT_DESCRIPTOR_TYPE;
1262:USB/Class/CompositeBuilder/Src/usbd_composite_builder.c ****   pSpEpStDesc->bDescriptor = AUDIO_ENDPOINT_GENERAL;
1263:USB/Class/CompositeBuilder/Src/usbd_composite_builder.c ****   pSpEpStDesc->bmAttributes = 0x00U;
1264:USB/Class/CompositeBuilder/Src/usbd_composite_builder.c ****   pSpEpStDesc->bLockDelayUnits = 0x00U;
1265:USB/Class/CompositeBuilder/Src/usbd_composite_builder.c ****   pSpEpStDesc->wLockDelay = 0x0000U;
1266:USB/Class/CompositeBuilder/Src/usbd_composite_builder.c ****   *Sze += (uint32_t)sizeof(USBD_SpeakerEndStDescTypeDef);
1267:USB/Class/CompositeBuilder/Src/usbd_composite_builder.c **** 
1268:USB/Class/CompositeBuilder/Src/usbd_composite_builder.c ****   /* Update Config Descriptor and IAD descriptor */
1269:USB/Class/CompositeBuilder/Src/usbd_composite_builder.c ****   ((USBD_ConfigDescTypeDef *)pConf)->bNumInterfaces += 2U;
1270:USB/Class/CompositeBuilder/Src/usbd_composite_builder.c ****   ((USBD_ConfigDescTypeDef *)pConf)->wTotalLength = (uint16_t)(*Sze);
1271:USB/Class/CompositeBuilder/Src/usbd_composite_builder.c **** }
1272:USB/Class/CompositeBuilder/Src/usbd_composite_builder.c **** #endif /* USBD_CMPSIT_ACTIVATE_AUDIO */
1273:USB/Class/CompositeBuilder/Src/usbd_composite_builder.c **** 
1274:USB/Class/CompositeBuilder/Src/usbd_composite_builder.c **** #if USBD_CMPSIT_ACTIVATE_RNDIS == 1
1275:USB/Class/CompositeBuilder/Src/usbd_composite_builder.c **** /**
1276:USB/Class/CompositeBuilder/Src/usbd_composite_builder.c ****   * @brief  USBD_CMPSIT_MSCDesc
1277:USB/Class/CompositeBuilder/Src/usbd_composite_builder.c ****   *         Configure and Append the CDC_RNDIS Descriptor
1278:USB/Class/CompositeBuilder/Src/usbd_composite_builder.c ****   * @param  pdev: device instance
1279:USB/Class/CompositeBuilder/Src/usbd_composite_builder.c ****   * @param  pConf: Configuration descriptor pointer
1280:USB/Class/CompositeBuilder/Src/usbd_composite_builder.c ****   * @param  Sze: pointer to the current configuration descriptor size
1281:USB/Class/CompositeBuilder/Src/usbd_composite_builder.c ****   * @retval None
1282:USB/Class/CompositeBuilder/Src/usbd_composite_builder.c ****   */
1283:USB/Class/CompositeBuilder/Src/usbd_composite_builder.c **** static void  USBD_CMPSIT_RNDISDesc(USBD_HandleTypeDef *pdev, uint32_t pConf, __IO uint32_t *Sze, ui
1284:USB/Class/CompositeBuilder/Src/usbd_composite_builder.c **** {
1285:USB/Class/CompositeBuilder/Src/usbd_composite_builder.c ****   static USBD_IfDescTypeDef               *pIfDesc;
1286:USB/Class/CompositeBuilder/Src/usbd_composite_builder.c ****   static USBD_EpDescTypeDef               *pEpDesc;
1287:USB/Class/CompositeBuilder/Src/usbd_composite_builder.c ****   static USBD_CDCHeaderFuncDescTypeDef    *pHeadDesc;
1288:USB/Class/CompositeBuilder/Src/usbd_composite_builder.c ****   static USBD_CDCCallMgmFuncDescTypeDef   *pCallMgmDesc;
1289:USB/Class/CompositeBuilder/Src/usbd_composite_builder.c ****   static USBD_CDCACMFuncDescTypeDef       *pACMDesc;
1290:USB/Class/CompositeBuilder/Src/usbd_composite_builder.c ****   static USBD_CDCUnionFuncDescTypeDef     *pUnionDesc;
ARM GAS  C:\Users\sapph\AppData\Local\Temp\cc1fiECZ.s 			page 47


1291:USB/Class/CompositeBuilder/Src/usbd_composite_builder.c ****   static USBD_IadDescTypeDef              *pIadDesc;
1292:USB/Class/CompositeBuilder/Src/usbd_composite_builder.c **** 
1293:USB/Class/CompositeBuilder/Src/usbd_composite_builder.c **** #if USBD_COMPOSITE_USE_IAD == 1
1294:USB/Class/CompositeBuilder/Src/usbd_composite_builder.c ****   pIadDesc                          = ((USBD_IadDescTypeDef *)(pConf + *Sze));
1295:USB/Class/CompositeBuilder/Src/usbd_composite_builder.c ****   pIadDesc->bLength                 = (uint8_t)sizeof(USBD_IadDescTypeDef);
1296:USB/Class/CompositeBuilder/Src/usbd_composite_builder.c ****   pIadDesc->bDescriptorType         = USB_DESC_TYPE_IAD; /* IAD descriptor */
1297:USB/Class/CompositeBuilder/Src/usbd_composite_builder.c ****   pIadDesc->bFirstInterface         = pdev->tclasslist[pdev->classId].Ifs[0];
1298:USB/Class/CompositeBuilder/Src/usbd_composite_builder.c ****   pIadDesc->bInterfaceCount         = 2U;    /* 2 interfaces */
1299:USB/Class/CompositeBuilder/Src/usbd_composite_builder.c ****   pIadDesc->bFunctionClass          = 0xE0U;
1300:USB/Class/CompositeBuilder/Src/usbd_composite_builder.c ****   pIadDesc->bFunctionSubClass       = 0x01U;
1301:USB/Class/CompositeBuilder/Src/usbd_composite_builder.c ****   pIadDesc->bFunctionProtocol       = 0x03U;
1302:USB/Class/CompositeBuilder/Src/usbd_composite_builder.c ****   pIadDesc->iFunction               = 0U; /* String Index */
1303:USB/Class/CompositeBuilder/Src/usbd_composite_builder.c ****   *Sze                              += (uint32_t)sizeof(USBD_IadDescTypeDef);
1304:USB/Class/CompositeBuilder/Src/usbd_composite_builder.c **** #endif /* USBD_COMPOSITE_USE_IAD == 1 */
1305:USB/Class/CompositeBuilder/Src/usbd_composite_builder.c **** 
1306:USB/Class/CompositeBuilder/Src/usbd_composite_builder.c ****   /* Control Interface Descriptor */
1307:USB/Class/CompositeBuilder/Src/usbd_composite_builder.c ****   __USBD_CMPSIT_SET_IF(pdev->tclasslist[pdev->classId].Ifs[0], 0U, 1U, 0x02, 0x02, 0xFF, 0U);
1308:USB/Class/CompositeBuilder/Src/usbd_composite_builder.c **** 
1309:USB/Class/CompositeBuilder/Src/usbd_composite_builder.c ****   /* Control interface headers */
1310:USB/Class/CompositeBuilder/Src/usbd_composite_builder.c ****   pHeadDesc = ((USBD_CDCHeaderFuncDescTypeDef *)(pConf + *Sze));
1311:USB/Class/CompositeBuilder/Src/usbd_composite_builder.c ****   /* Header Functional Descriptor*/
1312:USB/Class/CompositeBuilder/Src/usbd_composite_builder.c ****   pHeadDesc->bLength            = (uint8_t)sizeof(USBD_CDCHeaderFuncDescTypeDef);
1313:USB/Class/CompositeBuilder/Src/usbd_composite_builder.c ****   pHeadDesc->bDescriptorType    = 0x24U;
1314:USB/Class/CompositeBuilder/Src/usbd_composite_builder.c ****   pHeadDesc->bDescriptorSubtype = 0x00U;
1315:USB/Class/CompositeBuilder/Src/usbd_composite_builder.c ****   pHeadDesc->bcdCDC             = 0x0110U;
1316:USB/Class/CompositeBuilder/Src/usbd_composite_builder.c ****   *Sze += (uint32_t)sizeof(USBD_CDCHeaderFuncDescTypeDef);
1317:USB/Class/CompositeBuilder/Src/usbd_composite_builder.c **** 
1318:USB/Class/CompositeBuilder/Src/usbd_composite_builder.c ****   /* Call Management Functional Descriptor*/
1319:USB/Class/CompositeBuilder/Src/usbd_composite_builder.c ****   pCallMgmDesc                     = ((USBD_CDCCallMgmFuncDescTypeDef *)(pConf + *Sze));
1320:USB/Class/CompositeBuilder/Src/usbd_composite_builder.c ****   pCallMgmDesc->bLength            = (uint8_t)sizeof(USBD_CDCCallMgmFuncDescTypeDef);
1321:USB/Class/CompositeBuilder/Src/usbd_composite_builder.c ****   pCallMgmDesc->bDescriptorType    = 0x24U;
1322:USB/Class/CompositeBuilder/Src/usbd_composite_builder.c ****   pCallMgmDesc->bDescriptorSubtype = 0x01U;
1323:USB/Class/CompositeBuilder/Src/usbd_composite_builder.c ****   pCallMgmDesc->bmCapabilities     = 0x00U;
1324:USB/Class/CompositeBuilder/Src/usbd_composite_builder.c ****   pCallMgmDesc->bDataInterface     = pdev->tclasslist[pdev->classId].Ifs[1];
1325:USB/Class/CompositeBuilder/Src/usbd_composite_builder.c ****   *Sze += (uint32_t)sizeof(USBD_CDCCallMgmFuncDescTypeDef);
1326:USB/Class/CompositeBuilder/Src/usbd_composite_builder.c **** 
1327:USB/Class/CompositeBuilder/Src/usbd_composite_builder.c ****   /* ACM Functional Descriptor*/
1328:USB/Class/CompositeBuilder/Src/usbd_composite_builder.c ****   pACMDesc                      = ((USBD_CDCACMFuncDescTypeDef *)(pConf + *Sze));
1329:USB/Class/CompositeBuilder/Src/usbd_composite_builder.c ****   pACMDesc->bLength             = (uint8_t)sizeof(USBD_CDCACMFuncDescTypeDef);
1330:USB/Class/CompositeBuilder/Src/usbd_composite_builder.c ****   pACMDesc->bDescriptorType     = 0x24U;
1331:USB/Class/CompositeBuilder/Src/usbd_composite_builder.c ****   pACMDesc->bDescriptorSubtype  = 0x02U;
1332:USB/Class/CompositeBuilder/Src/usbd_composite_builder.c ****   pACMDesc->bmCapabilities      = 0x00U;
1333:USB/Class/CompositeBuilder/Src/usbd_composite_builder.c ****   *Sze += (uint32_t)sizeof(USBD_CDCACMFuncDescTypeDef);
1334:USB/Class/CompositeBuilder/Src/usbd_composite_builder.c **** 
1335:USB/Class/CompositeBuilder/Src/usbd_composite_builder.c ****   /* Union Functional Descriptor*/
1336:USB/Class/CompositeBuilder/Src/usbd_composite_builder.c ****   pUnionDesc                      = ((USBD_CDCUnionFuncDescTypeDef *)(pConf + *Sze));
1337:USB/Class/CompositeBuilder/Src/usbd_composite_builder.c ****   pUnionDesc->bLength             = (uint8_t)sizeof(USBD_CDCUnionFuncDescTypeDef);
1338:USB/Class/CompositeBuilder/Src/usbd_composite_builder.c ****   pUnionDesc->bDescriptorType     = 0x24U;
1339:USB/Class/CompositeBuilder/Src/usbd_composite_builder.c ****   pUnionDesc->bDescriptorSubtype  = 0x06U;
1340:USB/Class/CompositeBuilder/Src/usbd_composite_builder.c ****   pUnionDesc->bMasterInterface    = pdev->tclasslist[pdev->classId].Ifs[0];
1341:USB/Class/CompositeBuilder/Src/usbd_composite_builder.c ****   pUnionDesc->bSlaveInterface     = pdev->tclasslist[pdev->classId].Ifs[1];
1342:USB/Class/CompositeBuilder/Src/usbd_composite_builder.c ****   *Sze += (uint32_t)sizeof(USBD_CDCUnionFuncDescTypeDef);
1343:USB/Class/CompositeBuilder/Src/usbd_composite_builder.c **** 
1344:USB/Class/CompositeBuilder/Src/usbd_composite_builder.c ****   /* Append Endpoint descriptor to Configuration descriptor */
1345:USB/Class/CompositeBuilder/Src/usbd_composite_builder.c ****   __USBD_CMPSIT_SET_EP(pdev->tclasslist[pdev->classId].Eps[2].add, USBD_EP_TYPE_INTR, \
1346:USB/Class/CompositeBuilder/Src/usbd_composite_builder.c ****                        CDC_RNDIS_CMD_PACKET_SIZE, CDC_RNDIS_HS_BINTERVAL, CDC_RNDIS_FS_BINTERVAL);
1347:USB/Class/CompositeBuilder/Src/usbd_composite_builder.c **** 
ARM GAS  C:\Users\sapph\AppData\Local\Temp\cc1fiECZ.s 			page 48


1348:USB/Class/CompositeBuilder/Src/usbd_composite_builder.c ****   /* Data Interface Descriptor */
1349:USB/Class/CompositeBuilder/Src/usbd_composite_builder.c ****   __USBD_CMPSIT_SET_IF(pdev->tclasslist[pdev->classId].Ifs[1], 0U, 2U, 0x0AU, 0x00U, 0x00U, 0U);
1350:USB/Class/CompositeBuilder/Src/usbd_composite_builder.c **** 
1351:USB/Class/CompositeBuilder/Src/usbd_composite_builder.c ****   if (speed == (uint8_t)USBD_SPEED_HIGH)
1352:USB/Class/CompositeBuilder/Src/usbd_composite_builder.c ****   {
1353:USB/Class/CompositeBuilder/Src/usbd_composite_builder.c ****     pdev->tclasslist[pdev->classId].CurrPcktSze = CDC_RNDIS_DATA_HS_MAX_PACKET_SIZE;
1354:USB/Class/CompositeBuilder/Src/usbd_composite_builder.c ****   }
1355:USB/Class/CompositeBuilder/Src/usbd_composite_builder.c **** 
1356:USB/Class/CompositeBuilder/Src/usbd_composite_builder.c ****   /* Append Endpoint descriptor to Configuration descriptor */
1357:USB/Class/CompositeBuilder/Src/usbd_composite_builder.c ****   __USBD_CMPSIT_SET_EP((pdev->tclasslist[pdev->classId].Eps[0].add), (USBD_EP_TYPE_BULK), \
1358:USB/Class/CompositeBuilder/Src/usbd_composite_builder.c ****                        (pdev->tclasslist[pdev->classId].CurrPcktSze), (0U), (0U));
1359:USB/Class/CompositeBuilder/Src/usbd_composite_builder.c **** 
1360:USB/Class/CompositeBuilder/Src/usbd_composite_builder.c ****   /* Append Endpoint descriptor to Configuration descriptor */
1361:USB/Class/CompositeBuilder/Src/usbd_composite_builder.c ****   __USBD_CMPSIT_SET_EP((pdev->tclasslist[pdev->classId].Eps[1].add), (USBD_EP_TYPE_BULK), \
1362:USB/Class/CompositeBuilder/Src/usbd_composite_builder.c ****                        (pdev->tclasslist[pdev->classId].CurrPcktSze), (0U), (0U));
1363:USB/Class/CompositeBuilder/Src/usbd_composite_builder.c **** 
1364:USB/Class/CompositeBuilder/Src/usbd_composite_builder.c ****   /* Update Config Descriptor and IAD descriptor */
1365:USB/Class/CompositeBuilder/Src/usbd_composite_builder.c ****   ((USBD_ConfigDescTypeDef *)pConf)->bNumInterfaces += 2U;
1366:USB/Class/CompositeBuilder/Src/usbd_composite_builder.c ****   ((USBD_ConfigDescTypeDef *)pConf)->wTotalLength = (uint16_t)(*Sze);
1367:USB/Class/CompositeBuilder/Src/usbd_composite_builder.c **** }
1368:USB/Class/CompositeBuilder/Src/usbd_composite_builder.c **** #endif /* USBD_CMPSIT_ACTIVATE_RNDIS == 1 */
1369:USB/Class/CompositeBuilder/Src/usbd_composite_builder.c **** 
1370:USB/Class/CompositeBuilder/Src/usbd_composite_builder.c **** #if USBD_CMPSIT_ACTIVATE_CUSTOMHID == 1
1371:USB/Class/CompositeBuilder/Src/usbd_composite_builder.c **** /**
1372:USB/Class/CompositeBuilder/Src/usbd_composite_builder.c ****   * @brief  USBD_CMPSIT_CUSTOMHIDDesc
1373:USB/Class/CompositeBuilder/Src/usbd_composite_builder.c ****   *         Configure and Append the MSC Descriptor
1374:USB/Class/CompositeBuilder/Src/usbd_composite_builder.c ****   * @param  pdev: device instance
1375:USB/Class/CompositeBuilder/Src/usbd_composite_builder.c ****   * @param  pConf: Configuration descriptor pointer
1376:USB/Class/CompositeBuilder/Src/usbd_composite_builder.c ****   * @param  Sze: pointer to the current configuration descriptor size
1377:USB/Class/CompositeBuilder/Src/usbd_composite_builder.c ****   * @retval None
1378:USB/Class/CompositeBuilder/Src/usbd_composite_builder.c ****   */
1379:USB/Class/CompositeBuilder/Src/usbd_composite_builder.c **** static void  USBD_CMPSIT_CUSTOMHIDDesc(USBD_HandleTypeDef *pdev, uint32_t pConf, __IO uint32_t *Sze
1380:USB/Class/CompositeBuilder/Src/usbd_composite_builder.c **** {
1381:USB/Class/CompositeBuilder/Src/usbd_composite_builder.c ****   static USBD_IfDescTypeDef *pIfDesc;
1382:USB/Class/CompositeBuilder/Src/usbd_composite_builder.c ****   static USBD_EpDescTypeDef *pEpDesc;
1383:USB/Class/CompositeBuilder/Src/usbd_composite_builder.c ****   static USBD_DescTypeDef *pDesc;
1384:USB/Class/CompositeBuilder/Src/usbd_composite_builder.c **** 
1385:USB/Class/CompositeBuilder/Src/usbd_composite_builder.c ****   /* Control Interface Descriptor */
1386:USB/Class/CompositeBuilder/Src/usbd_composite_builder.c ****   __USBD_CMPSIT_SET_IF(pdev->tclasslist[pdev->classId].Ifs[0],  0U, 2U, 3U, 0U, 0U, 0U);
1387:USB/Class/CompositeBuilder/Src/usbd_composite_builder.c **** 
1388:USB/Class/CompositeBuilder/Src/usbd_composite_builder.c ****   /* Descriptor of CUSTOM_HID */
1389:USB/Class/CompositeBuilder/Src/usbd_composite_builder.c ****   pDesc = ((USBD_DescTypeDef *)((uint32_t)pConf + *Sze));
1390:USB/Class/CompositeBuilder/Src/usbd_composite_builder.c ****   pDesc->bLength = 0x09U;
1391:USB/Class/CompositeBuilder/Src/usbd_composite_builder.c ****   pDesc->bDescriptorTypeCHID = CUSTOM_HID_DESCRIPTOR_TYPE;
1392:USB/Class/CompositeBuilder/Src/usbd_composite_builder.c ****   pDesc->bcdCUSTOM_HID = 0x0111U;
1393:USB/Class/CompositeBuilder/Src/usbd_composite_builder.c ****   pDesc->bCountryCode = 0x00U;
1394:USB/Class/CompositeBuilder/Src/usbd_composite_builder.c ****   pDesc->bNumDescriptors = 0x01U;
1395:USB/Class/CompositeBuilder/Src/usbd_composite_builder.c ****   pDesc->bDescriptorType = 0x22U;
1396:USB/Class/CompositeBuilder/Src/usbd_composite_builder.c ****   pDesc->wItemLength = USBD_CUSTOM_HID_REPORT_DESC_SIZE;
1397:USB/Class/CompositeBuilder/Src/usbd_composite_builder.c ****   *Sze += (uint32_t)sizeof(USBD_DescTypeDef);
1398:USB/Class/CompositeBuilder/Src/usbd_composite_builder.c **** 
1399:USB/Class/CompositeBuilder/Src/usbd_composite_builder.c ****   /* Descriptor of Custom HID endpoints */
1400:USB/Class/CompositeBuilder/Src/usbd_composite_builder.c ****   /* Append Endpoint descriptor to Configuration descriptor */
1401:USB/Class/CompositeBuilder/Src/usbd_composite_builder.c ****   __USBD_CMPSIT_SET_EP(pdev->tclasslist[pdev->classId].Eps[0].add, \
1402:USB/Class/CompositeBuilder/Src/usbd_composite_builder.c ****                        USBD_EP_TYPE_INTR, CUSTOM_HID_EPIN_SIZE, CUSTOM_HID_HS_BINTERVAL, CUSTOM_HID
1403:USB/Class/CompositeBuilder/Src/usbd_composite_builder.c **** 
1404:USB/Class/CompositeBuilder/Src/usbd_composite_builder.c ****   /* Append Endpoint descriptor to Configuration descriptor */
ARM GAS  C:\Users\sapph\AppData\Local\Temp\cc1fiECZ.s 			page 49


1405:USB/Class/CompositeBuilder/Src/usbd_composite_builder.c ****   __USBD_CMPSIT_SET_EP(pdev->tclasslist[pdev->classId].Eps[1].add, \
1406:USB/Class/CompositeBuilder/Src/usbd_composite_builder.c ****                        USBD_EP_TYPE_INTR, CUSTOM_HID_EPIN_SIZE, CUSTOM_HID_HS_BINTERVAL, CUSTOM_HID
1407:USB/Class/CompositeBuilder/Src/usbd_composite_builder.c **** 
1408:USB/Class/CompositeBuilder/Src/usbd_composite_builder.c ****   /* Update Config Descriptor and IAD descriptor */
1409:USB/Class/CompositeBuilder/Src/usbd_composite_builder.c ****   ((USBD_ConfigDescTypeDef *)pConf)->bNumInterfaces += 1U;
1410:USB/Class/CompositeBuilder/Src/usbd_composite_builder.c ****   ((USBD_ConfigDescTypeDef *)pConf)->wTotalLength = (uint16_t)(*Sze);
1411:USB/Class/CompositeBuilder/Src/usbd_composite_builder.c **** }
1412:USB/Class/CompositeBuilder/Src/usbd_composite_builder.c **** #endif /* USBD_CMPSIT_ACTIVATE_CUSTOMHID == 1U */
1413:USB/Class/CompositeBuilder/Src/usbd_composite_builder.c **** 
1414:USB/Class/CompositeBuilder/Src/usbd_composite_builder.c **** #if USBD_CMPSIT_ACTIVATE_VIDEO == 1
1415:USB/Class/CompositeBuilder/Src/usbd_composite_builder.c **** /**
1416:USB/Class/CompositeBuilder/Src/usbd_composite_builder.c ****   * @brief  USBD_CMPSIT_VIDEODesc
1417:USB/Class/CompositeBuilder/Src/usbd_composite_builder.c ****   *         Configure and Append the VIDEO Descriptor
1418:USB/Class/CompositeBuilder/Src/usbd_composite_builder.c ****   * @param  pdev: device instance
1419:USB/Class/CompositeBuilder/Src/usbd_composite_builder.c ****   * @param  pConf: Configuration descriptor pointer
1420:USB/Class/CompositeBuilder/Src/usbd_composite_builder.c ****   * @param  Sze: pointer to the current configuration descriptor size
1421:USB/Class/CompositeBuilder/Src/usbd_composite_builder.c ****   * @retval None
1422:USB/Class/CompositeBuilder/Src/usbd_composite_builder.c ****   */
1423:USB/Class/CompositeBuilder/Src/usbd_composite_builder.c **** static void  USBD_CMPSIT_VIDEODesc(USBD_HandleTypeDef *pdev, uint32_t pConf, __IO uint32_t *Sze, ui
1424:USB/Class/CompositeBuilder/Src/usbd_composite_builder.c **** {
1425:USB/Class/CompositeBuilder/Src/usbd_composite_builder.c **** #ifdef USBD_UVC_FORMAT_UNCOMPRESSED
1426:USB/Class/CompositeBuilder/Src/usbd_composite_builder.c ****   __ALIGN_BEGIN static uint8_t usbd_uvc_guid[16] __ALIGN_END = {DBVAL(UVC_UNCOMPRESSED_GUID), 0x00,
1427:USB/Class/CompositeBuilder/Src/usbd_composite_builder.c ****                                                                 0x00, 0x80, 0x00, 0x00, 0xAA, 0x00,
1428:USB/Class/CompositeBuilder/Src/usbd_composite_builder.c ****                                                                };
1429:USB/Class/CompositeBuilder/Src/usbd_composite_builder.c **** #endif /* USBD_UVC_FORMAT_UNCOMPRESSED */
1430:USB/Class/CompositeBuilder/Src/usbd_composite_builder.c ****   static USBD_IfDescTypeDef *pIfDesc;
1431:USB/Class/CompositeBuilder/Src/usbd_composite_builder.c ****   static USBD_IadDescTypeDef *pIadDesc;
1432:USB/Class/CompositeBuilder/Src/usbd_composite_builder.c **** 
1433:USB/Class/CompositeBuilder/Src/usbd_composite_builder.c ****   /* Append AUDIO Interface descriptor to Configuration descriptor */
1434:USB/Class/CompositeBuilder/Src/usbd_composite_builder.c ****   USBD_specificVCInDescTypeDef            *pSVCInDesc;
1435:USB/Class/CompositeBuilder/Src/usbd_composite_builder.c ****   USBD_InputTerminalDescTypeDef           *pInTerDesc;
1436:USB/Class/CompositeBuilder/Src/usbd_composite_builder.c ****   USBD_OutputTerminalDescTypeDef          *pOuTerDesc;
1437:USB/Class/CompositeBuilder/Src/usbd_composite_builder.c ****   USBD_ClassSpecificVsHeaderDescTypeDef   *pSpHeaDesc;
1438:USB/Class/CompositeBuilder/Src/usbd_composite_builder.c ****   USBD_PayloadFormatDescTypeDef           *pPayForDesc;
1439:USB/Class/CompositeBuilder/Src/usbd_composite_builder.c **** #ifdef USBD_UVC_FORMAT_UNCOMPRESSED
1440:USB/Class/CompositeBuilder/Src/usbd_composite_builder.c ****   USBD_ColorMatchingDescTypeDef           *pColMaDesc;
1441:USB/Class/CompositeBuilder/Src/usbd_composite_builder.c **** #endif /* USBD_UVC_FORMAT_UNCOMPRESSED */
1442:USB/Class/CompositeBuilder/Src/usbd_composite_builder.c ****   USBD_StandardVCDataEPDescTypeDef        *pSVCDEP;
1443:USB/Class/CompositeBuilder/Src/usbd_composite_builder.c ****   USBD_VIDEO_VSFrameDescTypeDef           *pClassSpecVS;
1444:USB/Class/CompositeBuilder/Src/usbd_composite_builder.c **** 
1445:USB/Class/CompositeBuilder/Src/usbd_composite_builder.c **** #if USBD_COMPOSITE_USE_IAD == 1
1446:USB/Class/CompositeBuilder/Src/usbd_composite_builder.c ****   pIadDesc                          = ((USBD_IadDescTypeDef *)(pConf + *Sze));
1447:USB/Class/CompositeBuilder/Src/usbd_composite_builder.c ****   pIadDesc->bLength                 = (uint8_t)sizeof(USBD_IadDescTypeDef);
1448:USB/Class/CompositeBuilder/Src/usbd_composite_builder.c ****   pIadDesc->bDescriptorType         = USB_DESC_TYPE_IAD; /* IAD descriptor */
1449:USB/Class/CompositeBuilder/Src/usbd_composite_builder.c ****   pIadDesc->bFirstInterface         = pdev->tclasslist[pdev->classId].Ifs[0];
1450:USB/Class/CompositeBuilder/Src/usbd_composite_builder.c ****   pIadDesc->bInterfaceCount         = 2U;    /* 2 interfaces */
1451:USB/Class/CompositeBuilder/Src/usbd_composite_builder.c ****   pIadDesc->bFunctionClass          = UVC_CC_VIDEO;
1452:USB/Class/CompositeBuilder/Src/usbd_composite_builder.c ****   pIadDesc->bFunctionSubClass       = SC_VIDEO_INTERFACE_COLLECTION;
1453:USB/Class/CompositeBuilder/Src/usbd_composite_builder.c ****   pIadDesc->bFunctionProtocol       = PC_PROTOCOL_UNDEFINED;
1454:USB/Class/CompositeBuilder/Src/usbd_composite_builder.c ****   pIadDesc->iFunction               = 0U; /* String Index */
1455:USB/Class/CompositeBuilder/Src/usbd_composite_builder.c ****   *Sze                             += (uint32_t)sizeof(USBD_IadDescTypeDef);
1456:USB/Class/CompositeBuilder/Src/usbd_composite_builder.c **** #endif /* USBD_COMPOSITE_USE_IAD == 1 */
1457:USB/Class/CompositeBuilder/Src/usbd_composite_builder.c **** 
1458:USB/Class/CompositeBuilder/Src/usbd_composite_builder.c ****   /* Append VIDEO Interface descriptor to Configuration descriptor */
1459:USB/Class/CompositeBuilder/Src/usbd_composite_builder.c ****   __USBD_CMPSIT_SET_IF(pdev->tclasslist[pdev->classId].Ifs[0], 0U, 0U, UVC_CC_VIDEO, 1U, PC_PROTOCO
1460:USB/Class/CompositeBuilder/Src/usbd_composite_builder.c **** 
1461:USB/Class/CompositeBuilder/Src/usbd_composite_builder.c ****   /* Append Class-specific VC Interface Descriptor to Configuration descriptor*/
ARM GAS  C:\Users\sapph\AppData\Local\Temp\cc1fiECZ.s 			page 50


1462:USB/Class/CompositeBuilder/Src/usbd_composite_builder.c ****   pSVCInDesc = ((USBD_specificVCInDescTypeDef *)(pConf + *Sze));
1463:USB/Class/CompositeBuilder/Src/usbd_composite_builder.c ****   pSVCInDesc->bLength = (uint8_t)sizeof(USBD_specificVCInDescTypeDef);
1464:USB/Class/CompositeBuilder/Src/usbd_composite_builder.c ****   pSVCInDesc->bDescriptorType = CS_INTERFACE;
1465:USB/Class/CompositeBuilder/Src/usbd_composite_builder.c ****   pSVCInDesc->bDescriptorSubtype = VC_HEADER;
1466:USB/Class/CompositeBuilder/Src/usbd_composite_builder.c ****   pSVCInDesc->bcdUVC = UVC_VERSION;
1467:USB/Class/CompositeBuilder/Src/usbd_composite_builder.c ****   pSVCInDesc->wTotalLength = 0x001EU;
1468:USB/Class/CompositeBuilder/Src/usbd_composite_builder.c ****   pSVCInDesc->dwClockFrequency = 0x02DC6C00U;
1469:USB/Class/CompositeBuilder/Src/usbd_composite_builder.c ****   pSVCInDesc->baInterfaceNr = 0x01U;
1470:USB/Class/CompositeBuilder/Src/usbd_composite_builder.c ****   pSVCInDesc->iTerminal = 0x01U;
1471:USB/Class/CompositeBuilder/Src/usbd_composite_builder.c ****   *Sze += (uint32_t)sizeof(USBD_specificVCInDescTypeDef);
1472:USB/Class/CompositeBuilder/Src/usbd_composite_builder.c **** 
1473:USB/Class/CompositeBuilder/Src/usbd_composite_builder.c ****   /*Append Input Terminal Descriptor to Configuration descriptor */
1474:USB/Class/CompositeBuilder/Src/usbd_composite_builder.c ****   pInTerDesc = ((USBD_InputTerminalDescTypeDef *)(pConf + *Sze));
1475:USB/Class/CompositeBuilder/Src/usbd_composite_builder.c ****   pInTerDesc->bLength = (uint8_t)sizeof(USBD_InputTerminalDescTypeDef);
1476:USB/Class/CompositeBuilder/Src/usbd_composite_builder.c ****   pInTerDesc->bDescriptorType = CS_INTERFACE;
1477:USB/Class/CompositeBuilder/Src/usbd_composite_builder.c ****   pInTerDesc->bDescriptorSubtype = VC_INPUT_TERMINAL;
1478:USB/Class/CompositeBuilder/Src/usbd_composite_builder.c ****   pInTerDesc->bTerminalID = 0x01U;
1479:USB/Class/CompositeBuilder/Src/usbd_composite_builder.c ****   pInTerDesc->wTerminalType = ITT_VENDOR_SPECIFIC;
1480:USB/Class/CompositeBuilder/Src/usbd_composite_builder.c ****   pInTerDesc->bAssocTerminal = 0x00U;
1481:USB/Class/CompositeBuilder/Src/usbd_composite_builder.c ****   pInTerDesc->iTerminal =  0x00U;
1482:USB/Class/CompositeBuilder/Src/usbd_composite_builder.c ****   *Sze += (uint32_t)sizeof(USBD_InputTerminalDescTypeDef);
1483:USB/Class/CompositeBuilder/Src/usbd_composite_builder.c **** 
1484:USB/Class/CompositeBuilder/Src/usbd_composite_builder.c ****   /* Append Output Terminal Descriptor to Configuration descriptor */
1485:USB/Class/CompositeBuilder/Src/usbd_composite_builder.c ****   pOuTerDesc = ((USBD_OutputTerminalDescTypeDef *)(pConf + *Sze));
1486:USB/Class/CompositeBuilder/Src/usbd_composite_builder.c ****   pOuTerDesc->bLength = (uint8_t)sizeof(USBD_OutputTerminalDescTypeDef);
1487:USB/Class/CompositeBuilder/Src/usbd_composite_builder.c ****   pOuTerDesc->bDescriptorType = CS_INTERFACE;
1488:USB/Class/CompositeBuilder/Src/usbd_composite_builder.c ****   pOuTerDesc->bDescriptorSubtype = VC_OUTPUT_TERMINAL;
1489:USB/Class/CompositeBuilder/Src/usbd_composite_builder.c ****   pOuTerDesc->bTerminalID = 0x02U;
1490:USB/Class/CompositeBuilder/Src/usbd_composite_builder.c ****   pOuTerDesc->wTerminalType = TT_STREAMING;
1491:USB/Class/CompositeBuilder/Src/usbd_composite_builder.c ****   pOuTerDesc->bAssocTerminal = 0x00U;
1492:USB/Class/CompositeBuilder/Src/usbd_composite_builder.c ****   pOuTerDesc->bSourceID = 0x01U;
1493:USB/Class/CompositeBuilder/Src/usbd_composite_builder.c ****   pOuTerDesc->iTerminal = 0x00U;
1494:USB/Class/CompositeBuilder/Src/usbd_composite_builder.c ****   *Sze += (uint32_t)sizeof(USBD_OutputTerminalDescTypeDef);
1495:USB/Class/CompositeBuilder/Src/usbd_composite_builder.c **** 
1496:USB/Class/CompositeBuilder/Src/usbd_composite_builder.c ****   /* Standard VS (Video Streaming) Interface Descriptor */
1497:USB/Class/CompositeBuilder/Src/usbd_composite_builder.c ****   /* Interface 1, Alternate Setting 0 = Zero Bandwidth*/
1498:USB/Class/CompositeBuilder/Src/usbd_composite_builder.c ****   __USBD_CMPSIT_SET_IF(pdev->tclasslist[pdev->classId].Ifs[1], 0U, 0U, UVC_CC_VIDEO, \
1499:USB/Class/CompositeBuilder/Src/usbd_composite_builder.c ****                        SC_VIDEOSTREAMING, PC_PROTOCOL_UNDEFINED, 0U);
1500:USB/Class/CompositeBuilder/Src/usbd_composite_builder.c **** 
1501:USB/Class/CompositeBuilder/Src/usbd_composite_builder.c ****   /* Append Class-specific VS Header Descriptor (Input) to Configuration descriptor */
1502:USB/Class/CompositeBuilder/Src/usbd_composite_builder.c ****   pSpHeaDesc = ((USBD_ClassSpecificVsHeaderDescTypeDef *)(pConf + *Sze));
1503:USB/Class/CompositeBuilder/Src/usbd_composite_builder.c ****   pSpHeaDesc->bLength = (uint8_t)sizeof(USBD_ClassSpecificVsHeaderDescTypeDef);
1504:USB/Class/CompositeBuilder/Src/usbd_composite_builder.c ****   pSpHeaDesc->bDescriptorType = CS_INTERFACE;
1505:USB/Class/CompositeBuilder/Src/usbd_composite_builder.c ****   pSpHeaDesc->bDescriptorSubtype = VS_INPUT_HEADER;
1506:USB/Class/CompositeBuilder/Src/usbd_composite_builder.c ****   pSpHeaDesc->bNumFormats = 0x4D01U;
1507:USB/Class/CompositeBuilder/Src/usbd_composite_builder.c ****   pSpHeaDesc->bVideoControlSize = 0x00U;
1508:USB/Class/CompositeBuilder/Src/usbd_composite_builder.c ****   pSpHeaDesc->bEndPointAddress = UVC_IN_EP;
1509:USB/Class/CompositeBuilder/Src/usbd_composite_builder.c ****   pSpHeaDesc->bmInfo = 0x00U;
1510:USB/Class/CompositeBuilder/Src/usbd_composite_builder.c ****   pSpHeaDesc->bTerminalLink = 0x02U;
1511:USB/Class/CompositeBuilder/Src/usbd_composite_builder.c ****   pSpHeaDesc->bStillCaptureMethod = 0x00U;
1512:USB/Class/CompositeBuilder/Src/usbd_composite_builder.c ****   pSpHeaDesc->bTriggerSupport = 0x00U;
1513:USB/Class/CompositeBuilder/Src/usbd_composite_builder.c ****   pSpHeaDesc->bTriggerUsage = 0x00U;
1514:USB/Class/CompositeBuilder/Src/usbd_composite_builder.c ****   pSpHeaDesc->bControlSize = 0x01U;
1515:USB/Class/CompositeBuilder/Src/usbd_composite_builder.c ****   pSpHeaDesc->bmaControls = 0x00U;
1516:USB/Class/CompositeBuilder/Src/usbd_composite_builder.c ****   *Sze += (uint32_t)sizeof(USBD_ClassSpecificVsHeaderDescTypeDef);
1517:USB/Class/CompositeBuilder/Src/usbd_composite_builder.c **** 
1518:USB/Class/CompositeBuilder/Src/usbd_composite_builder.c ****   /* Append Payload Format Descriptor to Configuration descriptor */
ARM GAS  C:\Users\sapph\AppData\Local\Temp\cc1fiECZ.s 			page 51


1519:USB/Class/CompositeBuilder/Src/usbd_composite_builder.c ****   pPayForDesc = ((USBD_PayloadFormatDescTypeDef *)(pConf + *Sze));
1520:USB/Class/CompositeBuilder/Src/usbd_composite_builder.c ****   pPayForDesc->bLength = (uint8_t)sizeof(USBD_PayloadFormatDescTypeDef);
1521:USB/Class/CompositeBuilder/Src/usbd_composite_builder.c ****   pPayForDesc->bDescriptorType = CS_INTERFACE;
1522:USB/Class/CompositeBuilder/Src/usbd_composite_builder.c ****   pPayForDesc->bDescriptorSubType = VS_FORMAT_SUBTYPE;
1523:USB/Class/CompositeBuilder/Src/usbd_composite_builder.c ****   pPayForDesc->bFormatIndex = 0x01U;
1524:USB/Class/CompositeBuilder/Src/usbd_composite_builder.c ****   pPayForDesc->bNumFrameDescriptor = 0x01U;
1525:USB/Class/CompositeBuilder/Src/usbd_composite_builder.c **** #ifdef USBD_UVC_FORMAT_UNCOMPRESSED
1526:USB/Class/CompositeBuilder/Src/usbd_composite_builder.c ****   (void)USBD_memcpy(pPayForDesc->pGiudFormat, usbd_uvc_guid, 16);
1527:USB/Class/CompositeBuilder/Src/usbd_composite_builder.c ****   pPayForDesc->bBitsPerPixel = UVC_BITS_PER_PIXEL;
1528:USB/Class/CompositeBuilder/Src/usbd_composite_builder.c **** #else
1529:USB/Class/CompositeBuilder/Src/usbd_composite_builder.c ****   pPayForDesc->bmFlags = 0x01U;
1530:USB/Class/CompositeBuilder/Src/usbd_composite_builder.c **** #endif /* USBD_UVC_FORMAT_UNCOMPRESSED */
1531:USB/Class/CompositeBuilder/Src/usbd_composite_builder.c ****   pPayForDesc->bDefaultFrameIndex = 0x01U;
1532:USB/Class/CompositeBuilder/Src/usbd_composite_builder.c ****   pPayForDesc->bAspectRatioX = 0x00U;
1533:USB/Class/CompositeBuilder/Src/usbd_composite_builder.c ****   pPayForDesc->bAspectRatioY = 0x00U;
1534:USB/Class/CompositeBuilder/Src/usbd_composite_builder.c ****   pPayForDesc->bInterlaceFlags = 0x00U;
1535:USB/Class/CompositeBuilder/Src/usbd_composite_builder.c ****   pPayForDesc->bCopyProtect = 0x00U;
1536:USB/Class/CompositeBuilder/Src/usbd_composite_builder.c ****   *Sze += (uint32_t)sizeof(USBD_PayloadFormatDescTypeDef);
1537:USB/Class/CompositeBuilder/Src/usbd_composite_builder.c **** 
1538:USB/Class/CompositeBuilder/Src/usbd_composite_builder.c ****   /* Append Class-specific VS (Video Streaming) Frame Descriptor to Configuration descriptor */
1539:USB/Class/CompositeBuilder/Src/usbd_composite_builder.c ****   pClassSpecVS = ((USBD_VIDEO_VSFrameDescTypeDef *)(pConf + *Sze));
1540:USB/Class/CompositeBuilder/Src/usbd_composite_builder.c ****   pClassSpecVS->bLength = (uint8_t)sizeof(USBD_VIDEO_VSFrameDescTypeDef);
1541:USB/Class/CompositeBuilder/Src/usbd_composite_builder.c ****   pClassSpecVS->bDescriptorType = CS_INTERFACE;
1542:USB/Class/CompositeBuilder/Src/usbd_composite_builder.c ****   pClassSpecVS->bDescriptorSubType = VS_FRAME_SUBTYPE;
1543:USB/Class/CompositeBuilder/Src/usbd_composite_builder.c ****   pClassSpecVS->bFrameIndex = 0x01U;
1544:USB/Class/CompositeBuilder/Src/usbd_composite_builder.c **** 
1545:USB/Class/CompositeBuilder/Src/usbd_composite_builder.c **** #ifdef USBD_UVC_FORMAT_UNCOMPRESSED
1546:USB/Class/CompositeBuilder/Src/usbd_composite_builder.c ****   pClassSpecVS->bmCapabilities = 0x00U;
1547:USB/Class/CompositeBuilder/Src/usbd_composite_builder.c **** #else
1548:USB/Class/CompositeBuilder/Src/usbd_composite_builder.c ****   pClassSpecVS->bmCapabilities = 0x02U;
1549:USB/Class/CompositeBuilder/Src/usbd_composite_builder.c **** #endif /* USBD_UVC_FORMAT_UNCOMPRESSED */
1550:USB/Class/CompositeBuilder/Src/usbd_composite_builder.c **** 
1551:USB/Class/CompositeBuilder/Src/usbd_composite_builder.c ****   pClassSpecVS->wWidth = UVC_WIDTH;
1552:USB/Class/CompositeBuilder/Src/usbd_composite_builder.c ****   pClassSpecVS->wHeight = UVC_HEIGHT;
1553:USB/Class/CompositeBuilder/Src/usbd_composite_builder.c **** 
1554:USB/Class/CompositeBuilder/Src/usbd_composite_builder.c ****   if (speed == (uint8_t)USBD_SPEED_HIGH)
1555:USB/Class/CompositeBuilder/Src/usbd_composite_builder.c ****   {
1556:USB/Class/CompositeBuilder/Src/usbd_composite_builder.c ****     pClassSpecVS->dwMinBitRate = UVC_MIN_BIT_RATE(UVC_CAM_FPS_HS);
1557:USB/Class/CompositeBuilder/Src/usbd_composite_builder.c ****     pClassSpecVS->dwMaxBitRate = UVC_MAX_BIT_RATE(UVC_CAM_FPS_HS);
1558:USB/Class/CompositeBuilder/Src/usbd_composite_builder.c ****     pClassSpecVS->dwDefaultFrameInterval = UVC_INTERVAL(UVC_CAM_FPS_HS);
1559:USB/Class/CompositeBuilder/Src/usbd_composite_builder.c ****     pClassSpecVS->dwMinFrameInterval = UVC_INTERVAL(UVC_CAM_FPS_HS);
1560:USB/Class/CompositeBuilder/Src/usbd_composite_builder.c ****   }
1561:USB/Class/CompositeBuilder/Src/usbd_composite_builder.c ****   else
1562:USB/Class/CompositeBuilder/Src/usbd_composite_builder.c ****   {
1563:USB/Class/CompositeBuilder/Src/usbd_composite_builder.c ****     pClassSpecVS->dwMinBitRate = UVC_MIN_BIT_RATE(UVC_CAM_FPS_FS);
1564:USB/Class/CompositeBuilder/Src/usbd_composite_builder.c ****     pClassSpecVS->dwMaxBitRate = UVC_MAX_BIT_RATE(UVC_CAM_FPS_FS);
1565:USB/Class/CompositeBuilder/Src/usbd_composite_builder.c ****     pClassSpecVS->dwDefaultFrameInterval = UVC_INTERVAL(UVC_CAM_FPS_FS);
1566:USB/Class/CompositeBuilder/Src/usbd_composite_builder.c ****     pClassSpecVS->dwMinFrameInterval = UVC_INTERVAL(UVC_CAM_FPS_FS);
1567:USB/Class/CompositeBuilder/Src/usbd_composite_builder.c ****   }
1568:USB/Class/CompositeBuilder/Src/usbd_composite_builder.c **** 
1569:USB/Class/CompositeBuilder/Src/usbd_composite_builder.c ****   pClassSpecVS->dwMaxVideoFrameBufSize = UVC_MAX_FRAME_SIZE;
1570:USB/Class/CompositeBuilder/Src/usbd_composite_builder.c ****   pClassSpecVS->bFrameIntervalType = 0x01U;
1571:USB/Class/CompositeBuilder/Src/usbd_composite_builder.c **** 
1572:USB/Class/CompositeBuilder/Src/usbd_composite_builder.c ****   *Sze += (uint32_t)sizeof(USBD_VIDEO_VSFrameDescTypeDef);
1573:USB/Class/CompositeBuilder/Src/usbd_composite_builder.c **** 
1574:USB/Class/CompositeBuilder/Src/usbd_composite_builder.c **** #ifdef USBD_UVC_FORMAT_UNCOMPRESSED
1575:USB/Class/CompositeBuilder/Src/usbd_composite_builder.c ****   /* Append Color Matching Descriptor to Configuration descriptor */
ARM GAS  C:\Users\sapph\AppData\Local\Temp\cc1fiECZ.s 			page 52


1576:USB/Class/CompositeBuilder/Src/usbd_composite_builder.c ****   pColMaDesc = ((USBD_ColorMatchingDescTypeDef *)(pConf + *Sze));
1577:USB/Class/CompositeBuilder/Src/usbd_composite_builder.c ****   pColMaDesc->bLength = (uint8_t)sizeof(USBD_ColorMatchingDescTypeDef);
1578:USB/Class/CompositeBuilder/Src/usbd_composite_builder.c ****   pColMaDesc->bDescriptorType = CS_INTERFACE;
1579:USB/Class/CompositeBuilder/Src/usbd_composite_builder.c ****   pColMaDesc->bDescriptorSubType = VS_COLORFORMAT;
1580:USB/Class/CompositeBuilder/Src/usbd_composite_builder.c ****   pColMaDesc->bColorPrimarie = UVC_COLOR_PRIMARIE;
1581:USB/Class/CompositeBuilder/Src/usbd_composite_builder.c ****   pColMaDesc->bTransferCharacteristics = UVC_TFR_CHARACTERISTICS;
1582:USB/Class/CompositeBuilder/Src/usbd_composite_builder.c ****   pColMaDesc->bMatrixCoefficients = UVC_MATRIX_COEFFICIENTS;
1583:USB/Class/CompositeBuilder/Src/usbd_composite_builder.c ****   *Sze += (uint32_t)sizeof(USBD_ColorMatchingDescTypeDef);
1584:USB/Class/CompositeBuilder/Src/usbd_composite_builder.c **** #endif /* USBD_UVC_FORMAT_UNCOMPRESSED */
1585:USB/Class/CompositeBuilder/Src/usbd_composite_builder.c **** 
1586:USB/Class/CompositeBuilder/Src/usbd_composite_builder.c ****   /* USB Standard VS Interface  Descriptor - data transfer mode */
1587:USB/Class/CompositeBuilder/Src/usbd_composite_builder.c ****   /* Interface 1, Alternate Setting 1*/
1588:USB/Class/CompositeBuilder/Src/usbd_composite_builder.c ****   __USBD_CMPSIT_SET_IF(1U, 1U, 1U, UVC_CC_VIDEO, SC_VIDEOSTREAMING, PC_PROTOCOL_UNDEFINED, 0U);
1589:USB/Class/CompositeBuilder/Src/usbd_composite_builder.c **** 
1590:USB/Class/CompositeBuilder/Src/usbd_composite_builder.c ****   /* Standard VS (Video Streaming) data Endpoint */
1591:USB/Class/CompositeBuilder/Src/usbd_composite_builder.c ****   pSVCDEP = ((USBD_StandardVCDataEPDescTypeDef *)(pConf + *Sze));
1592:USB/Class/CompositeBuilder/Src/usbd_composite_builder.c ****   pSVCDEP->bLength = (uint8_t)sizeof(USBD_StandardVCDataEPDescTypeDef);
1593:USB/Class/CompositeBuilder/Src/usbd_composite_builder.c ****   pSVCDEP->bDescriptorType = USB_DESC_TYPE_ENDPOINT;
1594:USB/Class/CompositeBuilder/Src/usbd_composite_builder.c ****   pSVCDEP->bEndpointAddress = UVC_IN_EP;
1595:USB/Class/CompositeBuilder/Src/usbd_composite_builder.c ****   pSVCDEP->bmAttributes = 0x05U;
1596:USB/Class/CompositeBuilder/Src/usbd_composite_builder.c ****   pSVCDEP->bInterval = 0x01U;
1597:USB/Class/CompositeBuilder/Src/usbd_composite_builder.c **** 
1598:USB/Class/CompositeBuilder/Src/usbd_composite_builder.c ****   if (speed == (uint8_t)USBD_SPEED_HIGH)
1599:USB/Class/CompositeBuilder/Src/usbd_composite_builder.c ****   {
1600:USB/Class/CompositeBuilder/Src/usbd_composite_builder.c ****     pSVCDEP->wMaxPacketSize = UVC_ISO_HS_MPS;
1601:USB/Class/CompositeBuilder/Src/usbd_composite_builder.c ****   }
1602:USB/Class/CompositeBuilder/Src/usbd_composite_builder.c ****   else
1603:USB/Class/CompositeBuilder/Src/usbd_composite_builder.c ****   {
1604:USB/Class/CompositeBuilder/Src/usbd_composite_builder.c ****     pSVCDEP->wMaxPacketSize = UVC_ISO_FS_MPS;
1605:USB/Class/CompositeBuilder/Src/usbd_composite_builder.c ****   }
1606:USB/Class/CompositeBuilder/Src/usbd_composite_builder.c **** 
1607:USB/Class/CompositeBuilder/Src/usbd_composite_builder.c ****   *Sze += (uint32_t)sizeof(USBD_StandardVCDataEPDescTypeDef);
1608:USB/Class/CompositeBuilder/Src/usbd_composite_builder.c **** 
1609:USB/Class/CompositeBuilder/Src/usbd_composite_builder.c ****   /* Update Config Descriptor and IAD descriptor */
1610:USB/Class/CompositeBuilder/Src/usbd_composite_builder.c ****   ((USBD_ConfigDescTypeDef *)pConf)->bNumInterfaces += 2U;
1611:USB/Class/CompositeBuilder/Src/usbd_composite_builder.c ****   ((USBD_ConfigDescTypeDef *)pConf)->wTotalLength = (uint16_t)(*Sze);
1612:USB/Class/CompositeBuilder/Src/usbd_composite_builder.c **** }
1613:USB/Class/CompositeBuilder/Src/usbd_composite_builder.c **** #endif /* USBD_CMPSIT_ACTIVATE_VIDEO == 1 */
1614:USB/Class/CompositeBuilder/Src/usbd_composite_builder.c **** 
1615:USB/Class/CompositeBuilder/Src/usbd_composite_builder.c **** #if USBD_CMPSIT_ACTIVATE_PRINTER == 1
1616:USB/Class/CompositeBuilder/Src/usbd_composite_builder.c **** /**
1617:USB/Class/CompositeBuilder/Src/usbd_composite_builder.c ****   * @brief  USBD_CMPSIT_PRINTERDesc
1618:USB/Class/CompositeBuilder/Src/usbd_composite_builder.c ****   *         Configure and Append the PRINTER Descriptor
1619:USB/Class/CompositeBuilder/Src/usbd_composite_builder.c ****   * @param  pdev: device instance
1620:USB/Class/CompositeBuilder/Src/usbd_composite_builder.c ****   * @param  pConf: Configuration descriptor pointer
1621:USB/Class/CompositeBuilder/Src/usbd_composite_builder.c ****   * @param  Sze: pointer to the current configuration descriptor size
1622:USB/Class/CompositeBuilder/Src/usbd_composite_builder.c ****   * @retval None
1623:USB/Class/CompositeBuilder/Src/usbd_composite_builder.c ****   */
1624:USB/Class/CompositeBuilder/Src/usbd_composite_builder.c **** static void  USBD_CMPSIT_PRNTDesc(USBD_HandleTypeDef *pdev, uint32_t pConf, __IO uint32_t *Sze, uin
1625:USB/Class/CompositeBuilder/Src/usbd_composite_builder.c **** {
1626:USB/Class/CompositeBuilder/Src/usbd_composite_builder.c ****   static USBD_IfDescTypeDef *pIfDesc;
1627:USB/Class/CompositeBuilder/Src/usbd_composite_builder.c ****   static USBD_EpDescTypeDef *pEpDesc;
1628:USB/Class/CompositeBuilder/Src/usbd_composite_builder.c **** 
1629:USB/Class/CompositeBuilder/Src/usbd_composite_builder.c ****   /* Control Interface Descriptor */
1630:USB/Class/CompositeBuilder/Src/usbd_composite_builder.c ****   __USBD_CMPSIT_SET_IF(pdev->tclasslist[pdev->classId].Ifs[0], 0U, 0x02, 0x07, 0x01U, USB_PRNT_BIDI
1631:USB/Class/CompositeBuilder/Src/usbd_composite_builder.c **** 
1632:USB/Class/CompositeBuilder/Src/usbd_composite_builder.c ****   if (speed == (uint8_t)USBD_SPEED_HIGH)
ARM GAS  C:\Users\sapph\AppData\Local\Temp\cc1fiECZ.s 			page 53


1633:USB/Class/CompositeBuilder/Src/usbd_composite_builder.c ****   {
1634:USB/Class/CompositeBuilder/Src/usbd_composite_builder.c ****     pdev->tclasslist[pdev->classId].CurrPcktSze = PRNT_DATA_HS_MAX_PACKET_SIZE;
1635:USB/Class/CompositeBuilder/Src/usbd_composite_builder.c ****   }
1636:USB/Class/CompositeBuilder/Src/usbd_composite_builder.c **** 
1637:USB/Class/CompositeBuilder/Src/usbd_composite_builder.c ****   /* Append Endpoint descriptor to Configuration descriptor */
1638:USB/Class/CompositeBuilder/Src/usbd_composite_builder.c ****   __USBD_CMPSIT_SET_EP((pdev->tclasslist[pdev->classId].Eps[1].add), \
1639:USB/Class/CompositeBuilder/Src/usbd_composite_builder.c ****                        (USBD_EP_TYPE_BULK), (pdev->tclasslist[pdev->classId].CurrPcktSze), (0U), (0
1640:USB/Class/CompositeBuilder/Src/usbd_composite_builder.c **** 
1641:USB/Class/CompositeBuilder/Src/usbd_composite_builder.c ****   /* Append Endpoint descriptor to Configuration descriptor */
1642:USB/Class/CompositeBuilder/Src/usbd_composite_builder.c ****   __USBD_CMPSIT_SET_EP((pdev->tclasslist[pdev->classId].Eps[0].add), \
1643:USB/Class/CompositeBuilder/Src/usbd_composite_builder.c ****                        (USBD_EP_TYPE_BULK), (pdev->tclasslist[pdev->classId].CurrPcktSze), (0U), (0
1644:USB/Class/CompositeBuilder/Src/usbd_composite_builder.c **** 
1645:USB/Class/CompositeBuilder/Src/usbd_composite_builder.c ****   /* Update Config Descriptor and IAD descriptor */
1646:USB/Class/CompositeBuilder/Src/usbd_composite_builder.c ****   ((USBD_ConfigDescTypeDef *)pConf)->bNumInterfaces += 1U;
1647:USB/Class/CompositeBuilder/Src/usbd_composite_builder.c ****   ((USBD_ConfigDescTypeDef *)pConf)->wTotalLength = (uint16_t)(*Sze);
1648:USB/Class/CompositeBuilder/Src/usbd_composite_builder.c **** }
1649:USB/Class/CompositeBuilder/Src/usbd_composite_builder.c **** #endif /* USBD_CMPSIT_ACTIVATE_PRINTER == 1 */
1650:USB/Class/CompositeBuilder/Src/usbd_composite_builder.c **** 
1651:USB/Class/CompositeBuilder/Src/usbd_composite_builder.c **** #if USBD_CMPSIT_ACTIVATE_CCID == 1
1652:USB/Class/CompositeBuilder/Src/usbd_composite_builder.c **** /**
1653:USB/Class/CompositeBuilder/Src/usbd_composite_builder.c ****   * @brief  USBD_CMPSIT_CCIDDesc
1654:USB/Class/CompositeBuilder/Src/usbd_composite_builder.c ****   *         Configure and Append the CCID Descriptor
1655:USB/Class/CompositeBuilder/Src/usbd_composite_builder.c ****   * @param  pdev: device instance
1656:USB/Class/CompositeBuilder/Src/usbd_composite_builder.c ****   * @param  pConf: Configuration descriptor pointer
1657:USB/Class/CompositeBuilder/Src/usbd_composite_builder.c ****   * @param  Sze: pointer to the current configuration descriptor size
1658:USB/Class/CompositeBuilder/Src/usbd_composite_builder.c ****   * @retval None
1659:USB/Class/CompositeBuilder/Src/usbd_composite_builder.c ****   */
1660:USB/Class/CompositeBuilder/Src/usbd_composite_builder.c **** static void  USBD_CMPSIT_CCIDDesc(USBD_HandleTypeDef *pdev, uint32_t pConf, __IO uint32_t *Sze, uin
1661:USB/Class/CompositeBuilder/Src/usbd_composite_builder.c **** {
1662:USB/Class/CompositeBuilder/Src/usbd_composite_builder.c ****   static USBD_IfDescTypeDef *pIfDesc;
1663:USB/Class/CompositeBuilder/Src/usbd_composite_builder.c ****   static USBD_EpDescTypeDef *pEpDesc;
1664:USB/Class/CompositeBuilder/Src/usbd_composite_builder.c ****   static USBD_CCID_DescTypeDef *pDesc;
1665:USB/Class/CompositeBuilder/Src/usbd_composite_builder.c **** 
1666:USB/Class/CompositeBuilder/Src/usbd_composite_builder.c ****   /* Control Interface Descriptor */
1667:USB/Class/CompositeBuilder/Src/usbd_composite_builder.c ****   __USBD_CMPSIT_SET_IF(pdev->tclasslist[pdev->classId].Ifs[0], 0U, 0x03, 0x0BU, 0U, 0U, 0U);
1668:USB/Class/CompositeBuilder/Src/usbd_composite_builder.c **** 
1669:USB/Class/CompositeBuilder/Src/usbd_composite_builder.c ****   /* Control interface headers */
1670:USB/Class/CompositeBuilder/Src/usbd_composite_builder.c ****   pDesc = ((USBD_CCID_DescTypeDef *)((uint32_t)pConf + *Sze));
1671:USB/Class/CompositeBuilder/Src/usbd_composite_builder.c **** 
1672:USB/Class/CompositeBuilder/Src/usbd_composite_builder.c ****   /* Device Descriptor */
1673:USB/Class/CompositeBuilder/Src/usbd_composite_builder.c ****   pDesc->bLength = 0x36U;
1674:USB/Class/CompositeBuilder/Src/usbd_composite_builder.c ****   pDesc->bDescriptorType = 0x21U;
1675:USB/Class/CompositeBuilder/Src/usbd_composite_builder.c ****   pDesc->bcdCCID = 0x0110U;
1676:USB/Class/CompositeBuilder/Src/usbd_composite_builder.c ****   pDesc->bMaxSlotIndex = 0x00U;
1677:USB/Class/CompositeBuilder/Src/usbd_composite_builder.c ****   pDesc->bVoltageSupport = CCID_VOLTAGE_SUPP;
1678:USB/Class/CompositeBuilder/Src/usbd_composite_builder.c ****   pDesc->dwProtocols = USBD_CCID_PROTOCOL;
1679:USB/Class/CompositeBuilder/Src/usbd_composite_builder.c ****   pDesc->dwDefaultClock = USBD_CCID_DEFAULT_CLOCK_FREQ;
1680:USB/Class/CompositeBuilder/Src/usbd_composite_builder.c ****   pDesc->dwMaximumClock = USBD_CCID_MAX_CLOCK_FREQ;
1681:USB/Class/CompositeBuilder/Src/usbd_composite_builder.c ****   pDesc->bNumClockSupported = 0x00U;
1682:USB/Class/CompositeBuilder/Src/usbd_composite_builder.c ****   pDesc->dwDataRate = USBD_CCID_DEFAULT_DATA_RATE;
1683:USB/Class/CompositeBuilder/Src/usbd_composite_builder.c ****   pDesc->dwMaxDataRate = USBD_CCID_MAX_DATA_RATE;
1684:USB/Class/CompositeBuilder/Src/usbd_composite_builder.c ****   pDesc->bNumDataRatesSupported = 0x35U;
1685:USB/Class/CompositeBuilder/Src/usbd_composite_builder.c ****   pDesc->dwMaxIFSD = USBD_CCID_MAX_INF_FIELD_SIZE;
1686:USB/Class/CompositeBuilder/Src/usbd_composite_builder.c ****   pDesc->dwSynchProtocols = 0U;
1687:USB/Class/CompositeBuilder/Src/usbd_composite_builder.c ****   pDesc->dwMechanical = 0U;
1688:USB/Class/CompositeBuilder/Src/usbd_composite_builder.c ****   pDesc->dwFeatures = 0x000104BAU;
1689:USB/Class/CompositeBuilder/Src/usbd_composite_builder.c ****   pDesc->dwMaxCCIDMessageLength = CCID_MAX_BLOCK_SIZE_HEADER;
ARM GAS  C:\Users\sapph\AppData\Local\Temp\cc1fiECZ.s 			page 54


1690:USB/Class/CompositeBuilder/Src/usbd_composite_builder.c ****   pDesc->bClassGetResponse = 0U;
1691:USB/Class/CompositeBuilder/Src/usbd_composite_builder.c ****   pDesc->bClassEnvelope = 0U;
1692:USB/Class/CompositeBuilder/Src/usbd_composite_builder.c ****   pDesc->wLcdLayout = 0U;
1693:USB/Class/CompositeBuilder/Src/usbd_composite_builder.c ****   pDesc->bPINSupport = 0x03U;
1694:USB/Class/CompositeBuilder/Src/usbd_composite_builder.c ****   pDesc->bMaxCCIDBusySlots = 0x01U;
1695:USB/Class/CompositeBuilder/Src/usbd_composite_builder.c **** 
1696:USB/Class/CompositeBuilder/Src/usbd_composite_builder.c ****   *Sze += (uint32_t)sizeof(USBD_CCID_DescTypeDef);
1697:USB/Class/CompositeBuilder/Src/usbd_composite_builder.c **** 
1698:USB/Class/CompositeBuilder/Src/usbd_composite_builder.c ****   if (speed == (uint8_t)USBD_SPEED_HIGH)
1699:USB/Class/CompositeBuilder/Src/usbd_composite_builder.c ****   {
1700:USB/Class/CompositeBuilder/Src/usbd_composite_builder.c ****     pdev->tclasslist[pdev->classId].CurrPcktSze = CCID_DATA_HS_MAX_PACKET_SIZE;
1701:USB/Class/CompositeBuilder/Src/usbd_composite_builder.c ****   }
1702:USB/Class/CompositeBuilder/Src/usbd_composite_builder.c **** 
1703:USB/Class/CompositeBuilder/Src/usbd_composite_builder.c ****   /* Append Endpoint descriptor to Configuration descriptor */
1704:USB/Class/CompositeBuilder/Src/usbd_composite_builder.c ****   __USBD_CMPSIT_SET_EP((pdev->tclasslist[pdev->classId].Eps[0].add), \
1705:USB/Class/CompositeBuilder/Src/usbd_composite_builder.c ****                        (USBD_EP_TYPE_BULK), (pdev->tclasslist[pdev->classId].CurrPcktSze), (0U), (0
1706:USB/Class/CompositeBuilder/Src/usbd_composite_builder.c **** 
1707:USB/Class/CompositeBuilder/Src/usbd_composite_builder.c ****   /* Append Endpoint descriptor to Configuration descriptor */
1708:USB/Class/CompositeBuilder/Src/usbd_composite_builder.c ****   __USBD_CMPSIT_SET_EP((pdev->tclasslist[pdev->classId].Eps[1].add), \
1709:USB/Class/CompositeBuilder/Src/usbd_composite_builder.c ****                        (USBD_EP_TYPE_BULK), (pdev->tclasslist[pdev->classId].CurrPcktSze), (0U), (0
1710:USB/Class/CompositeBuilder/Src/usbd_composite_builder.c **** 
1711:USB/Class/CompositeBuilder/Src/usbd_composite_builder.c ****   /* Append Endpoint descriptor to Configuration descriptor */
1712:USB/Class/CompositeBuilder/Src/usbd_composite_builder.c ****   __USBD_CMPSIT_SET_EP(pdev->tclasslist[pdev->classId].Eps[2].add, \
1713:USB/Class/CompositeBuilder/Src/usbd_composite_builder.c ****                        USBD_EP_TYPE_INTR, CCID_CMD_PACKET_SIZE, CCID_CMD_HS_BINTERVAL, CCID_CMD_FS_
1714:USB/Class/CompositeBuilder/Src/usbd_composite_builder.c **** 
1715:USB/Class/CompositeBuilder/Src/usbd_composite_builder.c ****   /* Update Config Descriptor and IAD descriptor */
1716:USB/Class/CompositeBuilder/Src/usbd_composite_builder.c ****   ((USBD_ConfigDescTypeDef *)pConf)->bNumInterfaces += 1U;
1717:USB/Class/CompositeBuilder/Src/usbd_composite_builder.c ****   ((USBD_ConfigDescTypeDef *)pConf)->wTotalLength = (uint16_t)(*Sze);
1718:USB/Class/CompositeBuilder/Src/usbd_composite_builder.c **** }
1719:USB/Class/CompositeBuilder/Src/usbd_composite_builder.c **** #endif /* USBD_CMPSIT_ACTIVATE_CCID == 1 */
1720:USB/Class/CompositeBuilder/Src/usbd_composite_builder.c **** 
1721:USB/Class/CompositeBuilder/Src/usbd_composite_builder.c **** #if USBD_CMPSIT_ACTIVATE_MTP == 1
1722:USB/Class/CompositeBuilder/Src/usbd_composite_builder.c **** /**
1723:USB/Class/CompositeBuilder/Src/usbd_composite_builder.c ****   * @brief  USBD_CMPSIT_MTPDesc
1724:USB/Class/CompositeBuilder/Src/usbd_composite_builder.c ****   *         Configure and Append the MTP Descriptor
1725:USB/Class/CompositeBuilder/Src/usbd_composite_builder.c ****   * @param  pdev: device instance
1726:USB/Class/CompositeBuilder/Src/usbd_composite_builder.c ****   * @param  pConf: Configuration descriptor pointer
1727:USB/Class/CompositeBuilder/Src/usbd_composite_builder.c ****   * @param  Sze: pointer to the current configuration descriptor size
1728:USB/Class/CompositeBuilder/Src/usbd_composite_builder.c ****   * @retval None
