ARM GAS  C:\Users\sapph\AppData\Local\Temp\ccBKhYU1.s 			page 1


   1              		.cpu cortex-m33
   2              		.arch armv8-m.main
   3              		.fpu fpv4-sp-d16
   4              		.arch_extension dsp
   5              		.eabi_attribute 27, 1
   6              		.eabi_attribute 28, 1
   7              		.eabi_attribute 20, 1
   8              		.eabi_attribute 21, 1
   9              		.eabi_attribute 23, 3
  10              		.eabi_attribute 24, 1
  11              		.eabi_attribute 25, 1
  12              		.eabi_attribute 26, 1
  13              		.eabi_attribute 30, 1
  14              		.eabi_attribute 34, 1
  15              		.eabi_attribute 18, 4
  16              		.file	"ux_device_keyboard.c"
  17              		.text
  18              	.Ltext0:
  19              		.cfi_sections	.debug_frame
  20              		.file 1 "USBX/App/ux_device_keyboard.c"
  21              		.section	.text.USBD_HID_Keyboard_Activate,"ax",%progbits
  22              		.align	1
  23              		.global	USBD_HID_Keyboard_Activate
  24              		.syntax unified
  25              		.thumb
  26              		.thumb_func
  28              	USBD_HID_Keyboard_Activate:
  29              	.LVL0:
  30              	.LFB3:
   1:USBX/App/ux_device_keyboard.c **** /* USER CODE BEGIN Header */
   2:USBX/App/ux_device_keyboard.c **** /**
   3:USBX/App/ux_device_keyboard.c ****   ******************************************************************************
   4:USBX/App/ux_device_keyboard.c ****   * @file    ux_device_keyboard.c
   5:USBX/App/ux_device_keyboard.c ****   * @author  MCD Application Team
   6:USBX/App/ux_device_keyboard.c ****   * @brief   USBX Device HID Keyboard applicative source file
   7:USBX/App/ux_device_keyboard.c ****   ******************************************************************************
   8:USBX/App/ux_device_keyboard.c ****   * @attention
   9:USBX/App/ux_device_keyboard.c ****   *
  10:USBX/App/ux_device_keyboard.c ****   * Copyright (c) 2022 STMicroelectronics.
  11:USBX/App/ux_device_keyboard.c ****   * All rights reserved.
  12:USBX/App/ux_device_keyboard.c ****   *
  13:USBX/App/ux_device_keyboard.c ****   * This software is licensed under terms that can be found in the LICENSE file
  14:USBX/App/ux_device_keyboard.c ****   * in the root directory of this software component.
  15:USBX/App/ux_device_keyboard.c ****   * If no LICENSE file comes with this software, it is provided AS-IS.
  16:USBX/App/ux_device_keyboard.c ****   *
  17:USBX/App/ux_device_keyboard.c ****   ******************************************************************************
  18:USBX/App/ux_device_keyboard.c ****   */
  19:USBX/App/ux_device_keyboard.c **** /* USER CODE END Header */
  20:USBX/App/ux_device_keyboard.c **** 
  21:USBX/App/ux_device_keyboard.c **** /* Includes ------------------------------------------------------------------*/
  22:USBX/App/ux_device_keyboard.c **** #include "ux_device_keyboard.h"
  23:USBX/App/ux_device_keyboard.c **** 
  24:USBX/App/ux_device_keyboard.c **** /* Private includes ----------------------------------------------------------*/
  25:USBX/App/ux_device_keyboard.c **** /* USER CODE BEGIN Includes */
  26:USBX/App/ux_device_keyboard.c **** 
  27:USBX/App/ux_device_keyboard.c **** /* USER CODE END Includes */
  28:USBX/App/ux_device_keyboard.c **** 
ARM GAS  C:\Users\sapph\AppData\Local\Temp\ccBKhYU1.s 			page 2


  29:USBX/App/ux_device_keyboard.c **** /* Private typedef -----------------------------------------------------------*/
  30:USBX/App/ux_device_keyboard.c **** /* USER CODE BEGIN PTD */
  31:USBX/App/ux_device_keyboard.c **** 
  32:USBX/App/ux_device_keyboard.c **** /* USER CODE END PTD */
  33:USBX/App/ux_device_keyboard.c **** 
  34:USBX/App/ux_device_keyboard.c **** /* Private define ------------------------------------------------------------*/
  35:USBX/App/ux_device_keyboard.c **** /* USER CODE BEGIN PD */
  36:USBX/App/ux_device_keyboard.c **** 
  37:USBX/App/ux_device_keyboard.c **** /* USER CODE END PD */
  38:USBX/App/ux_device_keyboard.c **** 
  39:USBX/App/ux_device_keyboard.c **** /* Private macro -------------------------------------------------------------*/
  40:USBX/App/ux_device_keyboard.c **** /* USER CODE BEGIN PM */
  41:USBX/App/ux_device_keyboard.c **** 
  42:USBX/App/ux_device_keyboard.c **** /* USER CODE END PM */
  43:USBX/App/ux_device_keyboard.c **** 
  44:USBX/App/ux_device_keyboard.c **** /* Private variables ---------------------------------------------------------*/
  45:USBX/App/ux_device_keyboard.c **** /* USER CODE BEGIN PV */
  46:USBX/App/ux_device_keyboard.c **** 
  47:USBX/App/ux_device_keyboard.c **** /* USER CODE END PV */
  48:USBX/App/ux_device_keyboard.c **** 
  49:USBX/App/ux_device_keyboard.c **** /* Private function prototypes -----------------------------------------------*/
  50:USBX/App/ux_device_keyboard.c **** /* USER CODE BEGIN PFP */
  51:USBX/App/ux_device_keyboard.c **** 
  52:USBX/App/ux_device_keyboard.c **** /* USER CODE END PFP */
  53:USBX/App/ux_device_keyboard.c **** 
  54:USBX/App/ux_device_keyboard.c **** /* Private user code ---------------------------------------------------------*/
  55:USBX/App/ux_device_keyboard.c **** /* USER CODE BEGIN 0 */
  56:USBX/App/ux_device_keyboard.c **** 
  57:USBX/App/ux_device_keyboard.c **** /* USER CODE END 0 */
  58:USBX/App/ux_device_keyboard.c **** 
  59:USBX/App/ux_device_keyboard.c **** /**
  60:USBX/App/ux_device_keyboard.c ****   * @brief  USBD_HID_Keyboard_Activate
  61:USBX/App/ux_device_keyboard.c ****   *         This function is called when insertion of a HID Keyboard device.
  62:USBX/App/ux_device_keyboard.c ****   * @param  hid_instance: Pointer to the hid class instance.
  63:USBX/App/ux_device_keyboard.c ****   * @retval none
  64:USBX/App/ux_device_keyboard.c ****   */
  65:USBX/App/ux_device_keyboard.c **** VOID USBD_HID_Keyboard_Activate(VOID *hid_instance)
  66:USBX/App/ux_device_keyboard.c **** {
  31              		.loc 1 66 1 view -0
  32              		.cfi_startproc
  33              		@ args = 0, pretend = 0, frame = 0
  34              		@ frame_needed = 0, uses_anonymous_args = 0
  35              		@ link register save eliminated.
  67:USBX/App/ux_device_keyboard.c ****   /* USER CODE BEGIN USBD_HID_Keyboard_Activate */
  68:USBX/App/ux_device_keyboard.c ****   UX_PARAMETER_NOT_USED(hid_instance);
  36              		.loc 1 68 3 view .LVU1
  69:USBX/App/ux_device_keyboard.c ****   /* USER CODE END USBD_HID_Keyboard_Activate */
  70:USBX/App/ux_device_keyboard.c **** 
  71:USBX/App/ux_device_keyboard.c ****   return;
  37              		.loc 1 71 3 view .LVU2
  72:USBX/App/ux_device_keyboard.c **** }
  38              		.loc 1 72 1 is_stmt 0 view .LVU3
  39 0000 7047     		bx	lr
  40              		.cfi_endproc
  41              	.LFE3:
  43              		.section	.text.USBD_HID_Keyboard_Deactivate,"ax",%progbits
  44              		.align	1
ARM GAS  C:\Users\sapph\AppData\Local\Temp\ccBKhYU1.s 			page 3


  45              		.global	USBD_HID_Keyboard_Deactivate
  46              		.syntax unified
  47              		.thumb
  48              		.thumb_func
  50              	USBD_HID_Keyboard_Deactivate:
  51              	.LVL1:
  52              	.LFB4:
  73:USBX/App/ux_device_keyboard.c **** 
  74:USBX/App/ux_device_keyboard.c **** /**
  75:USBX/App/ux_device_keyboard.c ****   * @brief  USBD_HID_Keyboard_Deactivate
  76:USBX/App/ux_device_keyboard.c ****   *         This function is called when extraction of a HID Keyboard device.
  77:USBX/App/ux_device_keyboard.c ****   * @param  hid_instance: Pointer to the hid class instance.
  78:USBX/App/ux_device_keyboard.c ****   * @retval none
  79:USBX/App/ux_device_keyboard.c ****   */
  80:USBX/App/ux_device_keyboard.c **** VOID USBD_HID_Keyboard_Deactivate(VOID *hid_instance)
  81:USBX/App/ux_device_keyboard.c **** {
  53              		.loc 1 81 1 is_stmt 1 view -0
  54              		.cfi_startproc
  55              		@ args = 0, pretend = 0, frame = 0
  56              		@ frame_needed = 0, uses_anonymous_args = 0
  57              		@ link register save eliminated.
  82:USBX/App/ux_device_keyboard.c ****   /* USER CODE BEGIN USBD_HID_Keyboard_Deactivate */
  83:USBX/App/ux_device_keyboard.c ****   UX_PARAMETER_NOT_USED(hid_instance);
  58              		.loc 1 83 3 view .LVU5
  84:USBX/App/ux_device_keyboard.c ****   /* USER CODE END USBD_HID_Keyboard_Deactivate */
  85:USBX/App/ux_device_keyboard.c **** 
  86:USBX/App/ux_device_keyboard.c ****   return;
  59              		.loc 1 86 3 view .LVU6
  87:USBX/App/ux_device_keyboard.c **** }
  60              		.loc 1 87 1 is_stmt 0 view .LVU7
  61 0000 7047     		bx	lr
  62              		.cfi_endproc
  63              	.LFE4:
  65              		.section	.text.USBD_HID_Keyboard_SetReport,"ax",%progbits
  66              		.align	1
  67              		.global	USBD_HID_Keyboard_SetReport
  68              		.syntax unified
  69              		.thumb
  70              		.thumb_func
  72              	USBD_HID_Keyboard_SetReport:
  73              	.LVL2:
  74              	.LFB5:
  88:USBX/App/ux_device_keyboard.c **** 
  89:USBX/App/ux_device_keyboard.c **** /**
  90:USBX/App/ux_device_keyboard.c ****   * @brief  USBD_HID_Keyboard_SetReport
  91:USBX/App/ux_device_keyboard.c ****   *         This function is invoked when the host sends a HID SET_REPORT
  92:USBX/App/ux_device_keyboard.c ****   *         to the application over Endpoint 0.
  93:USBX/App/ux_device_keyboard.c ****   * @param  hid_instance: Pointer to the hid class instance.
  94:USBX/App/ux_device_keyboard.c ****   * @param  hid_event: Pointer to structure of the hid event.
  95:USBX/App/ux_device_keyboard.c ****   * @retval status
  96:USBX/App/ux_device_keyboard.c ****   */
  97:USBX/App/ux_device_keyboard.c **** UINT USBD_HID_Keyboard_SetReport(UX_SLAVE_CLASS_HID *hid_instance,
  98:USBX/App/ux_device_keyboard.c ****                                  UX_SLAVE_CLASS_HID_EVENT *hid_event)
  99:USBX/App/ux_device_keyboard.c **** {
  75              		.loc 1 99 1 is_stmt 1 view -0
  76              		.cfi_startproc
  77              		@ args = 0, pretend = 0, frame = 0
ARM GAS  C:\Users\sapph\AppData\Local\Temp\ccBKhYU1.s 			page 4


  78              		@ frame_needed = 0, uses_anonymous_args = 0
  79              		@ link register save eliminated.
 100:USBX/App/ux_device_keyboard.c ****   UINT status = UX_SUCCESS;
  80              		.loc 1 100 3 view .LVU9
 101:USBX/App/ux_device_keyboard.c **** 
 102:USBX/App/ux_device_keyboard.c ****   /* USER CODE BEGIN USBD_HID_Keyboard_SetReport */
 103:USBX/App/ux_device_keyboard.c ****   UX_PARAMETER_NOT_USED(hid_instance);
  81              		.loc 1 103 3 view .LVU10
 104:USBX/App/ux_device_keyboard.c ****   UX_PARAMETER_NOT_USED(hid_event);
  82              		.loc 1 104 3 view .LVU11
 105:USBX/App/ux_device_keyboard.c ****   /* USER CODE END USBD_HID_Keyboard_SetReport */
 106:USBX/App/ux_device_keyboard.c **** 
 107:USBX/App/ux_device_keyboard.c ****   return status;
  83              		.loc 1 107 3 view .LVU12
 108:USBX/App/ux_device_keyboard.c **** }
  84              		.loc 1 108 1 is_stmt 0 view .LVU13
  85 0000 0020     		movs	r0, #0
  86              	.LVL3:
  87              		.loc 1 108 1 view .LVU14
  88 0002 7047     		bx	lr
  89              		.cfi_endproc
  90              	.LFE5:
  92              		.section	.text.USBD_HID_Keyboard_GetReport,"ax",%progbits
  93              		.align	1
  94              		.global	USBD_HID_Keyboard_GetReport
  95              		.syntax unified
  96              		.thumb
  97              		.thumb_func
  99              	USBD_HID_Keyboard_GetReport:
 100              	.LVL4:
 101              	.LFB6:
 109:USBX/App/ux_device_keyboard.c **** 
 110:USBX/App/ux_device_keyboard.c **** /**
 111:USBX/App/ux_device_keyboard.c ****   * @brief  USBD_HID_Keyboard_GetReport
 112:USBX/App/ux_device_keyboard.c ****   *         This function is invoked when host is requesting event through
 113:USBX/App/ux_device_keyboard.c ****   *         control GET_REPORT request.
 114:USBX/App/ux_device_keyboard.c ****   * @param  hid_instance: Pointer to the hid class instance.
 115:USBX/App/ux_device_keyboard.c ****   * @param  hid_event: Pointer to structure of the hid event.
 116:USBX/App/ux_device_keyboard.c ****   * @retval status
 117:USBX/App/ux_device_keyboard.c ****   */
 118:USBX/App/ux_device_keyboard.c **** UINT USBD_HID_Keyboard_GetReport(UX_SLAVE_CLASS_HID *hid_instance,
 119:USBX/App/ux_device_keyboard.c ****                                  UX_SLAVE_CLASS_HID_EVENT *hid_event)
 120:USBX/App/ux_device_keyboard.c **** {
 102              		.loc 1 120 1 is_stmt 1 view -0
 103              		.cfi_startproc
 104              		@ args = 0, pretend = 0, frame = 0
 105              		@ frame_needed = 0, uses_anonymous_args = 0
 106              		@ link register save eliminated.
 121:USBX/App/ux_device_keyboard.c ****   UINT status = UX_SUCCESS;
 107              		.loc 1 121 3 view .LVU16
 122:USBX/App/ux_device_keyboard.c **** 
 123:USBX/App/ux_device_keyboard.c ****   /* USER CODE BEGIN USBD_HID_Keyboard_GetReport */
 124:USBX/App/ux_device_keyboard.c ****   UX_PARAMETER_NOT_USED(hid_instance);
 108              		.loc 1 124 3 view .LVU17
 125:USBX/App/ux_device_keyboard.c ****   UX_PARAMETER_NOT_USED(hid_event);
 109              		.loc 1 125 3 view .LVU18
 126:USBX/App/ux_device_keyboard.c ****   /* USER CODE END USBD_HID_Keyboard_GetReport */
ARM GAS  C:\Users\sapph\AppData\Local\Temp\ccBKhYU1.s 			page 5


 127:USBX/App/ux_device_keyboard.c **** 
 128:USBX/App/ux_device_keyboard.c ****   return status;
 110              		.loc 1 128 3 view .LVU19
 129:USBX/App/ux_device_keyboard.c **** }
 111              		.loc 1 129 1 is_stmt 0 view .LVU20
 112 0000 0020     		movs	r0, #0
 113              	.LVL5:
 114              		.loc 1 129 1 view .LVU21
 115 0002 7047     		bx	lr
 116              		.cfi_endproc
 117              	.LFE6:
 119              		.text
 120              	.Letext0:
 121              		.file 2 "Middlewares/ST/usbx/ports/generic/inc/ux_port.h"
 122              		.file 3 "Middlewares/ST/usbx/common/core/inc/ux_api.h"
 123              		.file 4 "Middlewares/ST/usbx/common/usbx_device_classes/inc/ux_device_class_hid.h"
ARM GAS  C:\Users\sapph\AppData\Local\Temp\ccBKhYU1.s 			page 6

