ARM GAS  C:\Users\sapph\AppData\Local\Temp\cc9DFAEo.s 			page 1


   1              		.cpu cortex-m33
   2              		.arch armv8-m.main
   3              		.fpu fpv4-sp-d16
   4              		.arch_extension dsp
   5              		.eabi_attribute 27, 1
   6              		.eabi_attribute 28, 1
   7              		.eabi_attribute 20, 1
   8              		.eabi_attribute 21, 1
   9              		.eabi_attribute 23, 3
  10              		.eabi_attribute 24, 1
  11              		.eabi_attribute 25, 1
  12              		.eabi_attribute 26, 1
  13              		.eabi_attribute 30, 1
  14              		.eabi_attribute 34, 1
  15              		.eabi_attribute 18, 4
  16              		.file	"ux_device_class_hid_initialize.c"
  17              		.text
  18              	.Ltext0:
  19              		.cfi_sections	.debug_frame
  20              		.file 1 "Middlewares/ST/usbx/common/usbx_device_classes/src/ux_device_class_hid_initialize.c"
  21              		.section	.text._ux_device_class_hid_initialize,"ax",%progbits
  22              		.align	1
  23              		.global	_ux_device_class_hid_initialize
  24              		.syntax unified
  25              		.thumb
  26              		.thumb_func
  28              	_ux_device_class_hid_initialize:
  29              	.LVL0:
  30              	.LFB3:
   1:Middlewares/ST/usbx/common/usbx_device_classes/src/ux_device_class_hid_initialize.c **** /**************************************************************************/
   2:Middlewares/ST/usbx/common/usbx_device_classes/src/ux_device_class_hid_initialize.c **** /*                                                                        */
   3:Middlewares/ST/usbx/common/usbx_device_classes/src/ux_device_class_hid_initialize.c **** /*       Copyright (c) Microsoft Corporation. All rights reserved.        */
   4:Middlewares/ST/usbx/common/usbx_device_classes/src/ux_device_class_hid_initialize.c **** /*                                                                        */
   5:Middlewares/ST/usbx/common/usbx_device_classes/src/ux_device_class_hid_initialize.c **** /*       This software is licensed under the Microsoft Software License   */
   6:Middlewares/ST/usbx/common/usbx_device_classes/src/ux_device_class_hid_initialize.c **** /*       Terms for Microsoft Azure RTOS. Full text of the license can be  */
   7:Middlewares/ST/usbx/common/usbx_device_classes/src/ux_device_class_hid_initialize.c **** /*       found in the LICENSE file at https://aka.ms/AzureRTOS_EULA       */
   8:Middlewares/ST/usbx/common/usbx_device_classes/src/ux_device_class_hid_initialize.c **** /*       and in the root directory of this software.                      */
   9:Middlewares/ST/usbx/common/usbx_device_classes/src/ux_device_class_hid_initialize.c **** /*                                                                        */
  10:Middlewares/ST/usbx/common/usbx_device_classes/src/ux_device_class_hid_initialize.c **** /**************************************************************************/
  11:Middlewares/ST/usbx/common/usbx_device_classes/src/ux_device_class_hid_initialize.c **** 
  12:Middlewares/ST/usbx/common/usbx_device_classes/src/ux_device_class_hid_initialize.c **** /**************************************************************************/
  13:Middlewares/ST/usbx/common/usbx_device_classes/src/ux_device_class_hid_initialize.c **** /**                                                                       */ 
  14:Middlewares/ST/usbx/common/usbx_device_classes/src/ux_device_class_hid_initialize.c **** /** USBX Component                                                        */ 
  15:Middlewares/ST/usbx/common/usbx_device_classes/src/ux_device_class_hid_initialize.c **** /**                                                                       */
  16:Middlewares/ST/usbx/common/usbx_device_classes/src/ux_device_class_hid_initialize.c **** /**   Device HID Class                                                    */
  17:Middlewares/ST/usbx/common/usbx_device_classes/src/ux_device_class_hid_initialize.c **** /**                                                                       */
  18:Middlewares/ST/usbx/common/usbx_device_classes/src/ux_device_class_hid_initialize.c **** /**************************************************************************/
  19:Middlewares/ST/usbx/common/usbx_device_classes/src/ux_device_class_hid_initialize.c **** /**************************************************************************/
  20:Middlewares/ST/usbx/common/usbx_device_classes/src/ux_device_class_hid_initialize.c **** 
  21:Middlewares/ST/usbx/common/usbx_device_classes/src/ux_device_class_hid_initialize.c **** #define UX_SOURCE_CODE
  22:Middlewares/ST/usbx/common/usbx_device_classes/src/ux_device_class_hid_initialize.c **** 
  23:Middlewares/ST/usbx/common/usbx_device_classes/src/ux_device_class_hid_initialize.c **** 
  24:Middlewares/ST/usbx/common/usbx_device_classes/src/ux_device_class_hid_initialize.c **** /* Include necessary system files.  */
  25:Middlewares/ST/usbx/common/usbx_device_classes/src/ux_device_class_hid_initialize.c **** 
  26:Middlewares/ST/usbx/common/usbx_device_classes/src/ux_device_class_hid_initialize.c **** #include "ux_api.h"
  27:Middlewares/ST/usbx/common/usbx_device_classes/src/ux_device_class_hid_initialize.c **** #include "ux_device_class_hid.h"
  28:Middlewares/ST/usbx/common/usbx_device_classes/src/ux_device_class_hid_initialize.c **** #include "ux_device_stack.h"
ARM GAS  C:\Users\sapph\AppData\Local\Temp\cc9DFAEo.s 			page 2


  29:Middlewares/ST/usbx/common/usbx_device_classes/src/ux_device_class_hid_initialize.c **** 
  30:Middlewares/ST/usbx/common/usbx_device_classes/src/ux_device_class_hid_initialize.c **** 
  31:Middlewares/ST/usbx/common/usbx_device_classes/src/ux_device_class_hid_initialize.c **** /**************************************************************************/ 
  32:Middlewares/ST/usbx/common/usbx_device_classes/src/ux_device_class_hid_initialize.c **** /*                                                                        */ 
  33:Middlewares/ST/usbx/common/usbx_device_classes/src/ux_device_class_hid_initialize.c **** /*  FUNCTION                                               RELEASE        */ 
  34:Middlewares/ST/usbx/common/usbx_device_classes/src/ux_device_class_hid_initialize.c **** /*                                                                        */ 
  35:Middlewares/ST/usbx/common/usbx_device_classes/src/ux_device_class_hid_initialize.c **** /*    _ux_device_class_hid_initialize                     PORTABLE C      */ 
  36:Middlewares/ST/usbx/common/usbx_device_classes/src/ux_device_class_hid_initialize.c **** /*                                                           6.2.0        */
  37:Middlewares/ST/usbx/common/usbx_device_classes/src/ux_device_class_hid_initialize.c **** /*  AUTHOR                                                                */
  38:Middlewares/ST/usbx/common/usbx_device_classes/src/ux_device_class_hid_initialize.c **** /*                                                                        */
  39:Middlewares/ST/usbx/common/usbx_device_classes/src/ux_device_class_hid_initialize.c **** /*    Chaoqiong Xiao, Microsoft Corporation                               */
  40:Middlewares/ST/usbx/common/usbx_device_classes/src/ux_device_class_hid_initialize.c **** /*                                                                        */
  41:Middlewares/ST/usbx/common/usbx_device_classes/src/ux_device_class_hid_initialize.c **** /*  DESCRIPTION                                                           */
  42:Middlewares/ST/usbx/common/usbx_device_classes/src/ux_device_class_hid_initialize.c **** /*                                                                        */ 
  43:Middlewares/ST/usbx/common/usbx_device_classes/src/ux_device_class_hid_initialize.c **** /*    This function initializes the USB HID device.                       */ 
  44:Middlewares/ST/usbx/common/usbx_device_classes/src/ux_device_class_hid_initialize.c **** /*    This function is called by the class register function. It is only  */ 
  45:Middlewares/ST/usbx/common/usbx_device_classes/src/ux_device_class_hid_initialize.c **** /*    done once.                                                          */ 
  46:Middlewares/ST/usbx/common/usbx_device_classes/src/ux_device_class_hid_initialize.c **** /*                                                                        */ 
  47:Middlewares/ST/usbx/common/usbx_device_classes/src/ux_device_class_hid_initialize.c **** /*  INPUT                                                                 */ 
  48:Middlewares/ST/usbx/common/usbx_device_classes/src/ux_device_class_hid_initialize.c **** /*                                                                        */ 
  49:Middlewares/ST/usbx/common/usbx_device_classes/src/ux_device_class_hid_initialize.c **** /*    command                              Pointer to hid command         */ 
  50:Middlewares/ST/usbx/common/usbx_device_classes/src/ux_device_class_hid_initialize.c **** /*                                                                        */ 
  51:Middlewares/ST/usbx/common/usbx_device_classes/src/ux_device_class_hid_initialize.c **** /*  OUTPUT                                                                */ 
  52:Middlewares/ST/usbx/common/usbx_device_classes/src/ux_device_class_hid_initialize.c **** /*                                                                        */ 
  53:Middlewares/ST/usbx/common/usbx_device_classes/src/ux_device_class_hid_initialize.c **** /*    Completion Status                                                   */ 
  54:Middlewares/ST/usbx/common/usbx_device_classes/src/ux_device_class_hid_initialize.c **** /*                                                                        */ 
  55:Middlewares/ST/usbx/common/usbx_device_classes/src/ux_device_class_hid_initialize.c **** /*  CALLS                                                                 */ 
  56:Middlewares/ST/usbx/common/usbx_device_classes/src/ux_device_class_hid_initialize.c **** /*                                                                        */ 
  57:Middlewares/ST/usbx/common/usbx_device_classes/src/ux_device_class_hid_initialize.c **** /*    _ux_utility_memory_allocate           Allocate memory               */
  58:Middlewares/ST/usbx/common/usbx_device_classes/src/ux_device_class_hid_initialize.c **** /*    _ux_utility_memory_free               Free memory                   */
  59:Middlewares/ST/usbx/common/usbx_device_classes/src/ux_device_class_hid_initialize.c **** /*    _ux_device_thread_create              Create thread                 */
  60:Middlewares/ST/usbx/common/usbx_device_classes/src/ux_device_class_hid_initialize.c **** /*    _ux_device_thread_delete              Delete thread                 */
  61:Middlewares/ST/usbx/common/usbx_device_classes/src/ux_device_class_hid_initialize.c **** /*    _ux_utility_event_flags_create        Create event flags group      */
  62:Middlewares/ST/usbx/common/usbx_device_classes/src/ux_device_class_hid_initialize.c **** /*                                                                        */ 
  63:Middlewares/ST/usbx/common/usbx_device_classes/src/ux_device_class_hid_initialize.c **** /*  CALLED BY                                                             */ 
  64:Middlewares/ST/usbx/common/usbx_device_classes/src/ux_device_class_hid_initialize.c **** /*                                                                        */ 
  65:Middlewares/ST/usbx/common/usbx_device_classes/src/ux_device_class_hid_initialize.c **** /*    USBX Source Code                                                    */ 
  66:Middlewares/ST/usbx/common/usbx_device_classes/src/ux_device_class_hid_initialize.c **** /*                                                                        */ 
  67:Middlewares/ST/usbx/common/usbx_device_classes/src/ux_device_class_hid_initialize.c **** /*  RELEASE HISTORY                                                       */ 
  68:Middlewares/ST/usbx/common/usbx_device_classes/src/ux_device_class_hid_initialize.c **** /*                                                                        */ 
  69:Middlewares/ST/usbx/common/usbx_device_classes/src/ux_device_class_hid_initialize.c **** /*    DATE              NAME                      DESCRIPTION             */ 
  70:Middlewares/ST/usbx/common/usbx_device_classes/src/ux_device_class_hid_initialize.c **** /*                                                                        */ 
  71:Middlewares/ST/usbx/common/usbx_device_classes/src/ux_device_class_hid_initialize.c **** /*  05-19-2020     Chaoqiong Xiao           Initial Version 6.0           */
  72:Middlewares/ST/usbx/common/usbx_device_classes/src/ux_device_class_hid_initialize.c **** /*  09-30-2020     Chaoqiong Xiao           Modified comment(s),          */
  73:Middlewares/ST/usbx/common/usbx_device_classes/src/ux_device_class_hid_initialize.c **** /*                                            used UX prefix to refer to  */
  74:Middlewares/ST/usbx/common/usbx_device_classes/src/ux_device_class_hid_initialize.c **** /*                                            TX symbols instead of using */
  75:Middlewares/ST/usbx/common/usbx_device_classes/src/ux_device_class_hid_initialize.c **** /*                                            them directly,              */
  76:Middlewares/ST/usbx/common/usbx_device_classes/src/ux_device_class_hid_initialize.c **** /*                                            resulting in version 6.1    */
  77:Middlewares/ST/usbx/common/usbx_device_classes/src/ux_device_class_hid_initialize.c **** /*  01-31-2022     Chaoqiong Xiao           Modified comment(s),          */
  78:Middlewares/ST/usbx/common/usbx_device_classes/src/ux_device_class_hid_initialize.c **** /*                                            added standalone support,   */
  79:Middlewares/ST/usbx/common/usbx_device_classes/src/ux_device_class_hid_initialize.c **** /*                                            added interrupt OUT support,*/
  80:Middlewares/ST/usbx/common/usbx_device_classes/src/ux_device_class_hid_initialize.c **** /*                                            resulting in version 6.1.10 */
  81:Middlewares/ST/usbx/common/usbx_device_classes/src/ux_device_class_hid_initialize.c **** /*  04-25-2022     Chaoqiong Xiao           Modified comment(s),          */
  82:Middlewares/ST/usbx/common/usbx_device_classes/src/ux_device_class_hid_initialize.c **** /*                                            resulting in version 6.1.11 */
  83:Middlewares/ST/usbx/common/usbx_device_classes/src/ux_device_class_hid_initialize.c **** /*  07-29-2022     Chaoqiong Xiao           Modified comment(s),          */
  84:Middlewares/ST/usbx/common/usbx_device_classes/src/ux_device_class_hid_initialize.c **** /*                                            added standalone receiver,  */
  85:Middlewares/ST/usbx/common/usbx_device_classes/src/ux_device_class_hid_initialize.c **** /*                                            fixed parameter/variable    */
ARM GAS  C:\Users\sapph\AppData\Local\Temp\cc9DFAEo.s 			page 3


  86:Middlewares/ST/usbx/common/usbx_device_classes/src/ux_device_class_hid_initialize.c **** /*                                            names conflict C++ keyword, */
  87:Middlewares/ST/usbx/common/usbx_device_classes/src/ux_device_class_hid_initialize.c **** /*                                            resulting in version 6.1.12 */
  88:Middlewares/ST/usbx/common/usbx_device_classes/src/ux_device_class_hid_initialize.c **** /*  10-31-2022     Chaoqiong Xiao           Modified comment(s),          */
  89:Middlewares/ST/usbx/common/usbx_device_classes/src/ux_device_class_hid_initialize.c **** /*                                            fixed compile warnings,     */
  90:Middlewares/ST/usbx/common/usbx_device_classes/src/ux_device_class_hid_initialize.c **** /*                                            resulting in version 6.2.0  */
  91:Middlewares/ST/usbx/common/usbx_device_classes/src/ux_device_class_hid_initialize.c **** /*                                                                        */
  92:Middlewares/ST/usbx/common/usbx_device_classes/src/ux_device_class_hid_initialize.c **** /**************************************************************************/
  93:Middlewares/ST/usbx/common/usbx_device_classes/src/ux_device_class_hid_initialize.c **** UINT  _ux_device_class_hid_initialize(UX_SLAVE_CLASS_COMMAND *command)
  94:Middlewares/ST/usbx/common/usbx_device_classes/src/ux_device_class_hid_initialize.c **** {
  31              		.loc 1 94 1 view -0
  32              		.cfi_startproc
  33              		@ args = 0, pretend = 0, frame = 0
  34              		@ frame_needed = 0, uses_anonymous_args = 0
  35              		.loc 1 94 1 is_stmt 0 view .LVU1
  36 0000 70B5     		push	{r4, r5, r6, lr}
  37              		.cfi_def_cfa_offset 16
  38              		.cfi_offset 4, -16
  39              		.cfi_offset 5, -12
  40              		.cfi_offset 6, -8
  41              		.cfi_offset 14, -4
  42 0002 0546     		mov	r5, r0
  95:Middlewares/ST/usbx/common/usbx_device_classes/src/ux_device_class_hid_initialize.c ****                                           
  96:Middlewares/ST/usbx/common/usbx_device_classes/src/ux_device_class_hid_initialize.c **** UX_SLAVE_CLASS_HID                      *hid;
  43              		.loc 1 96 1 is_stmt 1 view .LVU2
  97:Middlewares/ST/usbx/common/usbx_device_classes/src/ux_device_class_hid_initialize.c **** UX_SLAVE_CLASS_HID_PARAMETER            *hid_parameter;
  44              		.loc 1 97 1 view .LVU3
  98:Middlewares/ST/usbx/common/usbx_device_classes/src/ux_device_class_hid_initialize.c **** UX_SLAVE_CLASS                          *class_ptr;
  45              		.loc 1 98 1 view .LVU4
  99:Middlewares/ST/usbx/common/usbx_device_classes/src/ux_device_class_hid_initialize.c **** UINT                                    status = UX_SUCCESS;
  46              		.loc 1 99 1 view .LVU5
  47              	.LVL1:
 100:Middlewares/ST/usbx/common/usbx_device_classes/src/ux_device_class_hid_initialize.c **** 
 101:Middlewares/ST/usbx/common/usbx_device_classes/src/ux_device_class_hid_initialize.c **** 
 102:Middlewares/ST/usbx/common/usbx_device_classes/src/ux_device_class_hid_initialize.c ****     /* Get the class container.  */
 103:Middlewares/ST/usbx/common/usbx_device_classes/src/ux_device_class_hid_initialize.c ****     class_ptr =  command -> ux_slave_class_command_class_ptr;
  48              		.loc 1 103 5 view .LVU6
  49              		.loc 1 103 15 is_stmt 0 view .LVU7
  50 0004 066A     		ldr	r6, [r0, #32]
  51              	.LVL2:
 104:Middlewares/ST/usbx/common/usbx_device_classes/src/ux_device_class_hid_initialize.c **** 
 105:Middlewares/ST/usbx/common/usbx_device_classes/src/ux_device_class_hid_initialize.c ****     /* Create an instance of the device hid class.  */
 106:Middlewares/ST/usbx/common/usbx_device_classes/src/ux_device_class_hid_initialize.c ****     hid =  _ux_utility_memory_allocate(UX_NO_ALIGN, UX_REGULAR_MEMORY, sizeof(UX_SLAVE_CLASS_HID));
  52              		.loc 1 106 5 is_stmt 1 view .LVU8
  53              		.loc 1 106 12 is_stmt 0 view .LVU9
  54 0006 7822     		movs	r2, #120
  55 0008 0021     		movs	r1, #0
  56 000a 0846     		mov	r0, r1
  57              	.LVL3:
  58              		.loc 1 106 12 view .LVU10
  59 000c FFF7FEFF 		bl	_ux_utility_memory_allocate
  60              	.LVL4:
 107:Middlewares/ST/usbx/common/usbx_device_classes/src/ux_device_class_hid_initialize.c **** 
 108:Middlewares/ST/usbx/common/usbx_device_classes/src/ux_device_class_hid_initialize.c ****     /* Check for successful allocation.  */
 109:Middlewares/ST/usbx/common/usbx_device_classes/src/ux_device_class_hid_initialize.c ****     if (hid == UX_NULL)
  61              		.loc 1 109 5 is_stmt 1 view .LVU11
  62              		.loc 1 109 8 is_stmt 0 view .LVU12
  63 0010 0028     		cmp	r0, #0
ARM GAS  C:\Users\sapph\AppData\Local\Temp\cc9DFAEo.s 			page 4


  64 0012 2BD0     		beq	.L4
  65 0014 0446     		mov	r4, r0
 110:Middlewares/ST/usbx/common/usbx_device_classes/src/ux_device_class_hid_initialize.c ****         return(UX_MEMORY_INSUFFICIENT);
 111:Middlewares/ST/usbx/common/usbx_device_classes/src/ux_device_class_hid_initialize.c **** 
 112:Middlewares/ST/usbx/common/usbx_device_classes/src/ux_device_class_hid_initialize.c ****     /* Save the address of the HID instance inside the HID container.  */
 113:Middlewares/ST/usbx/common/usbx_device_classes/src/ux_device_class_hid_initialize.c ****     class_ptr -> ux_slave_class_instance = (VOID *) hid;
  66              		.loc 1 113 5 is_stmt 1 view .LVU13
  67              		.loc 1 113 42 is_stmt 0 view .LVU14
  68 0016 B064     		str	r0, [r6, #72]
 114:Middlewares/ST/usbx/common/usbx_device_classes/src/ux_device_class_hid_initialize.c **** 
 115:Middlewares/ST/usbx/common/usbx_device_classes/src/ux_device_class_hid_initialize.c **** #if !defined(UX_DEVICE_STANDALONE)
 116:Middlewares/ST/usbx/common/usbx_device_classes/src/ux_device_class_hid_initialize.c **** 
 117:Middlewares/ST/usbx/common/usbx_device_classes/src/ux_device_class_hid_initialize.c ****     /* Allocate some memory for the thread stack. */
 118:Middlewares/ST/usbx/common/usbx_device_classes/src/ux_device_class_hid_initialize.c ****     class_ptr -> ux_slave_class_thread_stack =  
 119:Middlewares/ST/usbx/common/usbx_device_classes/src/ux_device_class_hid_initialize.c ****             _ux_utility_memory_allocate(UX_NO_ALIGN, UX_REGULAR_MEMORY, UX_DEVICE_CLASS_HID_THREAD_
 120:Middlewares/ST/usbx/common/usbx_device_classes/src/ux_device_class_hid_initialize.c ****     
 121:Middlewares/ST/usbx/common/usbx_device_classes/src/ux_device_class_hid_initialize.c ****     /* Check for successful allocation.  */
 122:Middlewares/ST/usbx/common/usbx_device_classes/src/ux_device_class_hid_initialize.c ****     if (class_ptr -> ux_slave_class_thread_stack == UX_NULL)
 123:Middlewares/ST/usbx/common/usbx_device_classes/src/ux_device_class_hid_initialize.c ****         status = UX_MEMORY_INSUFFICIENT;
 124:Middlewares/ST/usbx/common/usbx_device_classes/src/ux_device_class_hid_initialize.c **** 
 125:Middlewares/ST/usbx/common/usbx_device_classes/src/ux_device_class_hid_initialize.c ****     /* This instance needs to be running in a different thread. So start
 126:Middlewares/ST/usbx/common/usbx_device_classes/src/ux_device_class_hid_initialize.c ****        a new thread. We pass a pointer to the class to the new thread.  This thread
 127:Middlewares/ST/usbx/common/usbx_device_classes/src/ux_device_class_hid_initialize.c ****        does not start until we have a instance of the class. */
 128:Middlewares/ST/usbx/common/usbx_device_classes/src/ux_device_class_hid_initialize.c ****     if (status == UX_SUCCESS)
 129:Middlewares/ST/usbx/common/usbx_device_classes/src/ux_device_class_hid_initialize.c ****         status =  _ux_device_thread_create(&class_ptr -> ux_slave_class_thread, "ux_slave_hid_threa
 130:Middlewares/ST/usbx/common/usbx_device_classes/src/ux_device_class_hid_initialize.c ****                     _ux_device_class_hid_interrupt_thread,
 131:Middlewares/ST/usbx/common/usbx_device_classes/src/ux_device_class_hid_initialize.c ****                     (ULONG) (ALIGN_TYPE) class_ptr, (VOID *) class_ptr -> ux_slave_class_thread_sta
 132:Middlewares/ST/usbx/common/usbx_device_classes/src/ux_device_class_hid_initialize.c ****                     UX_DEVICE_CLASS_HID_THREAD_STACK_SIZE, UX_THREAD_PRIORITY_CLASS,
 133:Middlewares/ST/usbx/common/usbx_device_classes/src/ux_device_class_hid_initialize.c ****                     UX_THREAD_PRIORITY_CLASS, UX_NO_TIME_SLICE, UX_DONT_START);
 134:Middlewares/ST/usbx/common/usbx_device_classes/src/ux_device_class_hid_initialize.c **** #else
 135:Middlewares/ST/usbx/common/usbx_device_classes/src/ux_device_class_hid_initialize.c **** 
 136:Middlewares/ST/usbx/common/usbx_device_classes/src/ux_device_class_hid_initialize.c ****     /* Set task function.  */
 137:Middlewares/ST/usbx/common/usbx_device_classes/src/ux_device_class_hid_initialize.c ****     class_ptr -> ux_slave_class_task_function = _ux_device_class_hid_tasks_run;
  69              		.loc 1 137 5 is_stmt 1 view .LVU15
  70              		.loc 1 137 47 is_stmt 0 view .LVU16
  71 0018 154B     		ldr	r3, .L6
  72 001a 3365     		str	r3, [r6, #80]
 138:Middlewares/ST/usbx/common/usbx_device_classes/src/ux_device_class_hid_initialize.c **** #endif
 139:Middlewares/ST/usbx/common/usbx_device_classes/src/ux_device_class_hid_initialize.c **** 
 140:Middlewares/ST/usbx/common/usbx_device_classes/src/ux_device_class_hid_initialize.c ****     /* Check the creation of this thread.  */
 141:Middlewares/ST/usbx/common/usbx_device_classes/src/ux_device_class_hid_initialize.c ****     if (status == UX_SUCCESS)
  73              		.loc 1 141 5 is_stmt 1 view .LVU17
 142:Middlewares/ST/usbx/common/usbx_device_classes/src/ux_device_class_hid_initialize.c ****     {
 143:Middlewares/ST/usbx/common/usbx_device_classes/src/ux_device_class_hid_initialize.c **** 
 144:Middlewares/ST/usbx/common/usbx_device_classes/src/ux_device_class_hid_initialize.c **** #if !defined(UX_DEVICE_STANDALONE)
 145:Middlewares/ST/usbx/common/usbx_device_classes/src/ux_device_class_hid_initialize.c ****         UX_THREAD_EXTENSION_PTR_SET(&(class_ptr -> ux_slave_class_thread), class_ptr)
 146:Middlewares/ST/usbx/common/usbx_device_classes/src/ux_device_class_hid_initialize.c **** #endif
 147:Middlewares/ST/usbx/common/usbx_device_classes/src/ux_device_class_hid_initialize.c **** 
 148:Middlewares/ST/usbx/common/usbx_device_classes/src/ux_device_class_hid_initialize.c ****         /* Get the pointer to the application parameters for the hid class.  */
 149:Middlewares/ST/usbx/common/usbx_device_classes/src/ux_device_class_hid_initialize.c ****         hid_parameter =  command -> ux_slave_class_command_parameter;
  74              		.loc 1 149 9 view .LVU18
  75              		.loc 1 149 23 is_stmt 0 view .LVU19
  76 001c 6D6A     		ldr	r5, [r5, #36]
  77              	.LVL5:
 150:Middlewares/ST/usbx/common/usbx_device_classes/src/ux_device_class_hid_initialize.c **** 
 151:Middlewares/ST/usbx/common/usbx_device_classes/src/ux_device_class_hid_initialize.c ****         /* Store all the application parameter information about the report.  */
 152:Middlewares/ST/usbx/common/usbx_device_classes/src/ux_device_class_hid_initialize.c ****         hid -> ux_device_class_hid_report_address             = hid_parameter -> ux_device_class_hi
ARM GAS  C:\Users\sapph\AppData\Local\Temp\cc9DFAEo.s 			page 5


  78              		.loc 1 152 9 is_stmt 1 view .LVU20
  79              		.loc 1 152 79 is_stmt 0 view .LVU21
  80 001e AB68     		ldr	r3, [r5, #8]
  81              		.loc 1 152 63 view .LVU22
  82 0020 C361     		str	r3, [r0, #28]
 153:Middlewares/ST/usbx/common/usbx_device_classes/src/ux_device_class_hid_initialize.c ****         hid -> ux_device_class_hid_report_length              = hid_parameter -> ux_device_class_hi
  83              		.loc 1 153 9 is_stmt 1 view .LVU23
  84              		.loc 1 153 79 is_stmt 0 view .LVU24
  85 0022 2B69     		ldr	r3, [r5, #16]
  86              		.loc 1 153 63 view .LVU25
  87 0024 4362     		str	r3, [r0, #36]
 154:Middlewares/ST/usbx/common/usbx_device_classes/src/ux_device_class_hid_initialize.c ****         hid -> ux_device_class_hid_report_id                  = hid_parameter -> ux_device_class_hi
  88              		.loc 1 154 9 is_stmt 1 view .LVU26
  89              		.loc 1 154 79 is_stmt 0 view .LVU27
  90 0026 EB68     		ldr	r3, [r5, #12]
  91              		.loc 1 154 63 view .LVU28
  92 0028 0362     		str	r3, [r0, #32]
 155:Middlewares/ST/usbx/common/usbx_device_classes/src/ux_device_class_hid_initialize.c **** 
 156:Middlewares/ST/usbx/common/usbx_device_classes/src/ux_device_class_hid_initialize.c ****         /* Store the callback function.  */
 157:Middlewares/ST/usbx/common/usbx_device_classes/src/ux_device_class_hid_initialize.c ****         hid -> ux_device_class_hid_callback                   = hid_parameter -> ux_device_class_hi
  93              		.loc 1 157 9 is_stmt 1 view .LVU29
  94              		.loc 1 157 79 is_stmt 0 view .LVU30
  95 002a 6B69     		ldr	r3, [r5, #20]
  96              		.loc 1 157 63 view .LVU31
  97 002c C360     		str	r3, [r0, #12]
 158:Middlewares/ST/usbx/common/usbx_device_classes/src/ux_device_class_hid_initialize.c ****         hid -> ux_device_class_hid_get_callback               = hid_parameter -> ux_device_class_hi
  98              		.loc 1 158 9 is_stmt 1 view .LVU32
  99              		.loc 1 158 79 is_stmt 0 view .LVU33
 100 002e AB69     		ldr	r3, [r5, #24]
 101              		.loc 1 158 63 view .LVU34
 102 0030 0361     		str	r3, [r0, #16]
 159:Middlewares/ST/usbx/common/usbx_device_classes/src/ux_device_class_hid_initialize.c **** 
 160:Middlewares/ST/usbx/common/usbx_device_classes/src/ux_device_class_hid_initialize.c ****         /* Create the event array.  */
 161:Middlewares/ST/usbx/common/usbx_device_classes/src/ux_device_class_hid_initialize.c ****         hid -> ux_device_class_hid_event_array =  _ux_utility_memory_allocate_mulc_safe(UX_NO_ALIGN
 103              		.loc 1 161 9 is_stmt 1 view .LVU35
 104              		.loc 1 161 51 is_stmt 0 view .LVU36
 105 0032 1023     		movs	r3, #16
 106 0034 2C22     		movs	r2, #44
 107 0036 0021     		movs	r1, #0
 108 0038 0846     		mov	r0, r1
 109              	.LVL6:
 110              		.loc 1 161 51 view .LVU37
 111 003a FFF7FEFF 		bl	_ux_utility_memory_allocate_mulc_safe
 112              	.LVL7:
 113              		.loc 1 161 48 discriminator 1 view .LVU38
 114 003e A066     		str	r0, [r4, #104]
 162:Middlewares/ST/usbx/common/usbx_device_classes/src/ux_device_class_hid_initialize.c **** 
 163:Middlewares/ST/usbx/common/usbx_device_classes/src/ux_device_class_hid_initialize.c ****         /* Check for successful allocation.  */
 164:Middlewares/ST/usbx/common/usbx_device_classes/src/ux_device_class_hid_initialize.c ****         if (hid -> ux_device_class_hid_event_array != UX_NULL)
 115              		.loc 1 164 9 is_stmt 1 view .LVU39
 116              		.loc 1 164 12 is_stmt 0 view .LVU40
 117 0040 68B1     		cbz	r0, .L3
 165:Middlewares/ST/usbx/common/usbx_device_classes/src/ux_device_class_hid_initialize.c ****         {
 166:Middlewares/ST/usbx/common/usbx_device_classes/src/ux_device_class_hid_initialize.c **** 
 167:Middlewares/ST/usbx/common/usbx_device_classes/src/ux_device_class_hid_initialize.c ****             /* Initialize the head and tail of the notification round robin buffers. 
 168:Middlewares/ST/usbx/common/usbx_device_classes/src/ux_device_class_hid_initialize.c ****                At first, the head and tail are pointing to the beginning of the array.  */
 169:Middlewares/ST/usbx/common/usbx_device_classes/src/ux_device_class_hid_initialize.c ****             hid -> ux_device_class_hid_event_array_head =  hid -> ux_device_class_hid_event_array;
ARM GAS  C:\Users\sapph\AppData\Local\Temp\cc9DFAEo.s 			page 6


 118              		.loc 1 169 13 is_stmt 1 view .LVU41
 119              		.loc 1 169 57 is_stmt 0 view .LVU42
 120 0042 E066     		str	r0, [r4, #108]
 170:Middlewares/ST/usbx/common/usbx_device_classes/src/ux_device_class_hid_initialize.c ****             hid -> ux_device_class_hid_event_array_tail =  hid -> ux_device_class_hid_event_array;
 121              		.loc 1 170 13 is_stmt 1 view .LVU43
 122              		.loc 1 170 57 is_stmt 0 view .LVU44
 123 0044 2067     		str	r0, [r4, #112]
 171:Middlewares/ST/usbx/common/usbx_device_classes/src/ux_device_class_hid_initialize.c ****             hid -> ux_device_class_hid_event_array_end  =  hid -> ux_device_class_hid_event_array +
 124              		.loc 1 171 13 is_stmt 1 view .LVU45
 125              		.loc 1 171 99 is_stmt 0 view .LVU46
 126 0046 00F53070 		add	r0, r0, #704
 127              		.loc 1 171 57 view .LVU47
 128 004a 6067     		str	r0, [r4, #116]
 172:Middlewares/ST/usbx/common/usbx_device_classes/src/ux_device_class_hid_initialize.c **** 
 173:Middlewares/ST/usbx/common/usbx_device_classes/src/ux_device_class_hid_initialize.c ****             /* Store the start and stop signals if needed by the application.  */
 174:Middlewares/ST/usbx/common/usbx_device_classes/src/ux_device_class_hid_initialize.c ****             hid -> ux_slave_class_hid_instance_activate = hid_parameter -> ux_slave_class_hid_insta
 129              		.loc 1 174 13 is_stmt 1 view .LVU48
 130              		.loc 1 174 73 is_stmt 0 view .LVU49
 131 004c 2B68     		ldr	r3, [r5]
 132              		.loc 1 174 57 view .LVU50
 133 004e 6361     		str	r3, [r4, #20]
 175:Middlewares/ST/usbx/common/usbx_device_classes/src/ux_device_class_hid_initialize.c ****             hid -> ux_slave_class_hid_instance_deactivate = hid_parameter -> ux_slave_class_hid_ins
 134              		.loc 1 175 13 is_stmt 1 view .LVU51
 135              		.loc 1 175 75 is_stmt 0 view .LVU52
 136 0050 6B68     		ldr	r3, [r5, #4]
 137              		.loc 1 175 59 view .LVU53
 138 0052 A361     		str	r3, [r4, #24]
 176:Middlewares/ST/usbx/common/usbx_device_classes/src/ux_device_class_hid_initialize.c **** 
 177:Middlewares/ST/usbx/common/usbx_device_classes/src/ux_device_class_hid_initialize.c ****             /* By default no event wait timeout.  */
 178:Middlewares/ST/usbx/common/usbx_device_classes/src/ux_device_class_hid_initialize.c ****             hid -> ux_device_class_hid_event_wait_timeout = UX_WAIT_FOREVER;
 139              		.loc 1 178 13 is_stmt 1 view .LVU54
 140              		.loc 1 178 59 is_stmt 0 view .LVU55
 141 0054 4FF0FF33 		mov	r3, #-1
 142 0058 2366     		str	r3, [r4, #96]
 179:Middlewares/ST/usbx/common/usbx_device_classes/src/ux_device_class_hid_initialize.c **** 
 180:Middlewares/ST/usbx/common/usbx_device_classes/src/ux_device_class_hid_initialize.c **** #if !defined(UX_DEVICE_STANDALONE)
 181:Middlewares/ST/usbx/common/usbx_device_classes/src/ux_device_class_hid_initialize.c **** 
 182:Middlewares/ST/usbx/common/usbx_device_classes/src/ux_device_class_hid_initialize.c ****             /* Create a event flag group for the hid class to synchronize with the event interrupt 
 183:Middlewares/ST/usbx/common/usbx_device_classes/src/ux_device_class_hid_initialize.c ****             status =  _ux_utility_event_flags_create(&hid -> ux_device_class_hid_event_flags_group,
 184:Middlewares/ST/usbx/common/usbx_device_classes/src/ux_device_class_hid_initialize.c **** 
 185:Middlewares/ST/usbx/common/usbx_device_classes/src/ux_device_class_hid_initialize.c ****             /* Check status.  */
 186:Middlewares/ST/usbx/common/usbx_device_classes/src/ux_device_class_hid_initialize.c ****             if (status != UX_SUCCESS)
 187:Middlewares/ST/usbx/common/usbx_device_classes/src/ux_device_class_hid_initialize.c ****                 status = UX_EVENT_ERROR;
 188:Middlewares/ST/usbx/common/usbx_device_classes/src/ux_device_class_hid_initialize.c ****             else
 189:Middlewares/ST/usbx/common/usbx_device_classes/src/ux_device_class_hid_initialize.c **** #endif
 190:Middlewares/ST/usbx/common/usbx_device_classes/src/ux_device_class_hid_initialize.c ****             {
 191:Middlewares/ST/usbx/common/usbx_device_classes/src/ux_device_class_hid_initialize.c **** #if defined(UX_DEVICE_CLASS_HID_INTERRUPT_OUT_SUPPORT)
 192:Middlewares/ST/usbx/common/usbx_device_classes/src/ux_device_class_hid_initialize.c **** 
 193:Middlewares/ST/usbx/common/usbx_device_classes/src/ux_device_class_hid_initialize.c **** #if !defined(UX_DEVICE_STANDALONE)
 194:Middlewares/ST/usbx/common/usbx_device_classes/src/ux_device_class_hid_initialize.c **** 
 195:Middlewares/ST/usbx/common/usbx_device_classes/src/ux_device_class_hid_initialize.c ****                 /* Create a mutex for reading reentry check.  */
 196:Middlewares/ST/usbx/common/usbx_device_classes/src/ux_device_class_hid_initialize.c ****                 status = _ux_utility_mutex_create(&hid -> ux_device_class_hid_read_mutex,
 197:Middlewares/ST/usbx/common/usbx_device_classes/src/ux_device_class_hid_initialize.c ****                                                   "ux_device_class_hid_read_mutex");
 198:Middlewares/ST/usbx/common/usbx_device_classes/src/ux_device_class_hid_initialize.c ****                 if (status == UX_SUCCESS)
 199:Middlewares/ST/usbx/common/usbx_device_classes/src/ux_device_class_hid_initialize.c ****                 {
 200:Middlewares/ST/usbx/common/usbx_device_classes/src/ux_device_class_hid_initialize.c **** #endif
 201:Middlewares/ST/usbx/common/usbx_device_classes/src/ux_device_class_hid_initialize.c **** 
ARM GAS  C:\Users\sapph\AppData\Local\Temp\cc9DFAEo.s 			page 7


 202:Middlewares/ST/usbx/common/usbx_device_classes/src/ux_device_class_hid_initialize.c ****                     /* If receiver is enabled by parameter, initialize it.  */
 203:Middlewares/ST/usbx/common/usbx_device_classes/src/ux_device_class_hid_initialize.c ****                     if (hid_parameter -> ux_device_class_hid_parameter_receiver_initialize)
 204:Middlewares/ST/usbx/common/usbx_device_classes/src/ux_device_class_hid_initialize.c ****                     {
 205:Middlewares/ST/usbx/common/usbx_device_classes/src/ux_device_class_hid_initialize.c **** 
 206:Middlewares/ST/usbx/common/usbx_device_classes/src/ux_device_class_hid_initialize.c ****                         /* Allocate buffer for receiver and receiver events.  */
 207:Middlewares/ST/usbx/common/usbx_device_classes/src/ux_device_class_hid_initialize.c ****                         status = hid_parameter ->
 208:Middlewares/ST/usbx/common/usbx_device_classes/src/ux_device_class_hid_initialize.c ****                                 ux_device_class_hid_parameter_receiver_initialize(hid,
 209:Middlewares/ST/usbx/common/usbx_device_classes/src/ux_device_class_hid_initialize.c ****                                                 hid_parameter,
 210:Middlewares/ST/usbx/common/usbx_device_classes/src/ux_device_class_hid_initialize.c ****                                                 &hid -> ux_device_class_hid_receiver);
 211:Middlewares/ST/usbx/common/usbx_device_classes/src/ux_device_class_hid_initialize.c ****                     }
 212:Middlewares/ST/usbx/common/usbx_device_classes/src/ux_device_class_hid_initialize.c **** 
 213:Middlewares/ST/usbx/common/usbx_device_classes/src/ux_device_class_hid_initialize.c ****                     /* Done success, return.  */
 214:Middlewares/ST/usbx/common/usbx_device_classes/src/ux_device_class_hid_initialize.c ****                     if (status == UX_SUCCESS)
 215:Middlewares/ST/usbx/common/usbx_device_classes/src/ux_device_class_hid_initialize.c ****                         return(status);
 216:Middlewares/ST/usbx/common/usbx_device_classes/src/ux_device_class_hid_initialize.c **** 
 217:Middlewares/ST/usbx/common/usbx_device_classes/src/ux_device_class_hid_initialize.c **** #if !defined(UX_DEVICE_STANDALONE)
 218:Middlewares/ST/usbx/common/usbx_device_classes/src/ux_device_class_hid_initialize.c **** 
 219:Middlewares/ST/usbx/common/usbx_device_classes/src/ux_device_class_hid_initialize.c ****                     /* There is error, delete mutex.  */
 220:Middlewares/ST/usbx/common/usbx_device_classes/src/ux_device_class_hid_initialize.c ****                     _ux_device_mutex_delete(&hid -> ux_device_class_hid_read_mutex);
 221:Middlewares/ST/usbx/common/usbx_device_classes/src/ux_device_class_hid_initialize.c ****                 }
 222:Middlewares/ST/usbx/common/usbx_device_classes/src/ux_device_class_hid_initialize.c ****                 else
 223:Middlewares/ST/usbx/common/usbx_device_classes/src/ux_device_class_hid_initialize.c ****                     status = UX_MUTEX_ERROR;
 224:Middlewares/ST/usbx/common/usbx_device_classes/src/ux_device_class_hid_initialize.c **** 
 225:Middlewares/ST/usbx/common/usbx_device_classes/src/ux_device_class_hid_initialize.c ****                 /* There is error, delete event flags.  */
 226:Middlewares/ST/usbx/common/usbx_device_classes/src/ux_device_class_hid_initialize.c ****                 _ux_utility_event_flags_delete(&hid -> ux_device_class_hid_event_flags_group);
 227:Middlewares/ST/usbx/common/usbx_device_classes/src/ux_device_class_hid_initialize.c **** #endif
 228:Middlewares/ST/usbx/common/usbx_device_classes/src/ux_device_class_hid_initialize.c **** #else
 229:Middlewares/ST/usbx/common/usbx_device_classes/src/ux_device_class_hid_initialize.c ****                 return(status);
 143              		.loc 1 229 17 is_stmt 1 view .LVU56
 144              		.loc 1 229 23 is_stmt 0 view .LVU57
 145 005a 0020     		movs	r0, #0
 146              	.LVL8:
 147              	.L1:
 230:Middlewares/ST/usbx/common/usbx_device_classes/src/ux_device_class_hid_initialize.c **** #endif
 231:Middlewares/ST/usbx/common/usbx_device_classes/src/ux_device_class_hid_initialize.c **** 
 232:Middlewares/ST/usbx/common/usbx_device_classes/src/ux_device_class_hid_initialize.c ****             }
 233:Middlewares/ST/usbx/common/usbx_device_classes/src/ux_device_class_hid_initialize.c **** 
 234:Middlewares/ST/usbx/common/usbx_device_classes/src/ux_device_class_hid_initialize.c **** #if !defined(UX_DEVICE_STANDALONE) || defined(UX_DEVICE_CLASS_HID_INTERRUPT_OUT_SUPPORT)
 235:Middlewares/ST/usbx/common/usbx_device_classes/src/ux_device_class_hid_initialize.c **** 
 236:Middlewares/ST/usbx/common/usbx_device_classes/src/ux_device_class_hid_initialize.c ****             /* There is still initialization activities after array creation,
 237:Middlewares/ST/usbx/common/usbx_device_classes/src/ux_device_class_hid_initialize.c ****              * and some error occurs in this stage.  */
 238:Middlewares/ST/usbx/common/usbx_device_classes/src/ux_device_class_hid_initialize.c ****             /* Free allocated event array memory.  */
 239:Middlewares/ST/usbx/common/usbx_device_classes/src/ux_device_class_hid_initialize.c ****             _ux_utility_memory_free(hid -> ux_device_class_hid_event_array);
 240:Middlewares/ST/usbx/common/usbx_device_classes/src/ux_device_class_hid_initialize.c **** #endif
 241:Middlewares/ST/usbx/common/usbx_device_classes/src/ux_device_class_hid_initialize.c **** 
 242:Middlewares/ST/usbx/common/usbx_device_classes/src/ux_device_class_hid_initialize.c ****         }
 243:Middlewares/ST/usbx/common/usbx_device_classes/src/ux_device_class_hid_initialize.c ****         else
 244:Middlewares/ST/usbx/common/usbx_device_classes/src/ux_device_class_hid_initialize.c ****             status =  UX_MEMORY_INSUFFICIENT;
 245:Middlewares/ST/usbx/common/usbx_device_classes/src/ux_device_class_hid_initialize.c **** 
 246:Middlewares/ST/usbx/common/usbx_device_classes/src/ux_device_class_hid_initialize.c **** #if !defined(UX_DEVICE_STANDALONE)
 247:Middlewares/ST/usbx/common/usbx_device_classes/src/ux_device_class_hid_initialize.c **** 
 248:Middlewares/ST/usbx/common/usbx_device_classes/src/ux_device_class_hid_initialize.c ****         /* Delete thread.  */
 249:Middlewares/ST/usbx/common/usbx_device_classes/src/ux_device_class_hid_initialize.c ****         _ux_device_thread_delete(&class_ptr -> ux_slave_class_thread);
 250:Middlewares/ST/usbx/common/usbx_device_classes/src/ux_device_class_hid_initialize.c **** #endif
 251:Middlewares/ST/usbx/common/usbx_device_classes/src/ux_device_class_hid_initialize.c ****     }
 252:Middlewares/ST/usbx/common/usbx_device_classes/src/ux_device_class_hid_initialize.c ****     else
 253:Middlewares/ST/usbx/common/usbx_device_classes/src/ux_device_class_hid_initialize.c ****         status = (UX_THREAD_ERROR);
ARM GAS  C:\Users\sapph\AppData\Local\Temp\cc9DFAEo.s 			page 8


 254:Middlewares/ST/usbx/common/usbx_device_classes/src/ux_device_class_hid_initialize.c **** 
 255:Middlewares/ST/usbx/common/usbx_device_classes/src/ux_device_class_hid_initialize.c **** #if !defined(UX_DEVICE_STANDALONE)
 256:Middlewares/ST/usbx/common/usbx_device_classes/src/ux_device_class_hid_initialize.c **** 
 257:Middlewares/ST/usbx/common/usbx_device_classes/src/ux_device_class_hid_initialize.c ****     /* Free stack. */
 258:Middlewares/ST/usbx/common/usbx_device_classes/src/ux_device_class_hid_initialize.c ****     if (class_ptr -> ux_slave_class_thread_stack)
 259:Middlewares/ST/usbx/common/usbx_device_classes/src/ux_device_class_hid_initialize.c ****         _ux_utility_memory_free(class_ptr -> ux_slave_class_thread_stack);
 260:Middlewares/ST/usbx/common/usbx_device_classes/src/ux_device_class_hid_initialize.c **** #endif
 261:Middlewares/ST/usbx/common/usbx_device_classes/src/ux_device_class_hid_initialize.c **** 
 262:Middlewares/ST/usbx/common/usbx_device_classes/src/ux_device_class_hid_initialize.c ****     /* Unmount instance. */
 263:Middlewares/ST/usbx/common/usbx_device_classes/src/ux_device_class_hid_initialize.c ****     class_ptr -> ux_slave_class_instance =  UX_NULL;
 264:Middlewares/ST/usbx/common/usbx_device_classes/src/ux_device_class_hid_initialize.c **** 
 265:Middlewares/ST/usbx/common/usbx_device_classes/src/ux_device_class_hid_initialize.c ****     /* Free HID instance. */
 266:Middlewares/ST/usbx/common/usbx_device_classes/src/ux_device_class_hid_initialize.c ****     _ux_utility_memory_free(hid);
 267:Middlewares/ST/usbx/common/usbx_device_classes/src/ux_device_class_hid_initialize.c **** 
 268:Middlewares/ST/usbx/common/usbx_device_classes/src/ux_device_class_hid_initialize.c ****     /* Return completion status.  */
 269:Middlewares/ST/usbx/common/usbx_device_classes/src/ux_device_class_hid_initialize.c ****     return(status);
 270:Middlewares/ST/usbx/common/usbx_device_classes/src/ux_device_class_hid_initialize.c **** }
 148              		.loc 1 270 1 view .LVU58
 149 005c 70BD     		pop	{r4, r5, r6, pc}
 150              	.LVL9:
 151              	.L3:
 244:Middlewares/ST/usbx/common/usbx_device_classes/src/ux_device_class_hid_initialize.c **** 
 152              		.loc 1 244 13 is_stmt 1 view .LVU59
 263:Middlewares/ST/usbx/common/usbx_device_classes/src/ux_device_class_hid_initialize.c **** 
 153              		.loc 1 263 5 view .LVU60
 263:Middlewares/ST/usbx/common/usbx_device_classes/src/ux_device_class_hid_initialize.c **** 
 154              		.loc 1 263 42 is_stmt 0 view .LVU61
 155 005e 0023     		movs	r3, #0
 156 0060 B364     		str	r3, [r6, #72]
 266:Middlewares/ST/usbx/common/usbx_device_classes/src/ux_device_class_hid_initialize.c **** 
 157              		.loc 1 266 5 is_stmt 1 view .LVU62
 158 0062 2046     		mov	r0, r4
 159 0064 FFF7FEFF 		bl	_ux_utility_memory_free
 160              	.LVL10:
 269:Middlewares/ST/usbx/common/usbx_device_classes/src/ux_device_class_hid_initialize.c **** }
 161              		.loc 1 269 5 view .LVU63
 269:Middlewares/ST/usbx/common/usbx_device_classes/src/ux_device_class_hid_initialize.c **** }
 162              		.loc 1 269 11 is_stmt 0 view .LVU64
 163 0068 1220     		movs	r0, #18
 164 006a F7E7     		b	.L1
 165              	.LVL11:
 166              	.L4:
 110:Middlewares/ST/usbx/common/usbx_device_classes/src/ux_device_class_hid_initialize.c **** 
 167              		.loc 1 110 15 view .LVU65
 168 006c 1220     		movs	r0, #18
 169              	.LVL12:
 110:Middlewares/ST/usbx/common/usbx_device_classes/src/ux_device_class_hid_initialize.c **** 
 170              		.loc 1 110 15 view .LVU66
 171 006e F5E7     		b	.L1
 172              	.L7:
 173              		.align	2
 174              	.L6:
 175 0070 00000000 		.word	_ux_device_class_hid_tasks_run
 176              		.cfi_endproc
 177              	.LFE3:
 179              		.text
 180              	.Letext0:
ARM GAS  C:\Users\sapph\AppData\Local\Temp\cc9DFAEo.s 			page 9


 181              		.file 2 "Middlewares/ST/usbx/ports/generic/inc/ux_port.h"
 182              		.file 3 "Middlewares/ST/usbx/common/core/inc/ux_api.h"
 183              		.file 4 "Middlewares/ST/usbx/common/usbx_device_classes/inc/ux_device_class_hid.h"
 184              		.file 5 "Middlewares/ST/usbx/common/core/inc/ux_utility.h"
ARM GAS  C:\Users\sapph\AppData\Local\Temp\cc9DFAEo.s 			page 10

