ARM GAS  C:\Users\sapph\AppData\Local\Temp\cc2Sqpei.s 			page 1


   1              		.cpu cortex-m33
   2              		.arch armv8-m.main
   3              		.fpu fpv4-sp-d16
   4              		.arch_extension dsp
   5              		.eabi_attribute 27, 1
   6              		.eabi_attribute 28, 1
   7              		.eabi_attribute 20, 1
   8              		.eabi_attribute 21, 1
   9              		.eabi_attribute 23, 3
  10              		.eabi_attribute 24, 1
  11              		.eabi_attribute 25, 1
  12              		.eabi_attribute 26, 1
  13              		.eabi_attribute 30, 1
  14              		.eabi_attribute 34, 1
  15              		.eabi_attribute 18, 4
  16              		.file	"ux_device_class_hid_activate.c"
  17              		.text
  18              	.Ltext0:
  19              		.cfi_sections	.debug_frame
  20              		.file 1 "Middlewares/ST/usbx/common/usbx_device_classes/src/ux_device_class_hid_activate.c"
  21              		.section	.text._ux_device_class_hid_activate,"ax",%progbits
  22              		.align	1
  23              		.global	_ux_device_class_hid_activate
  24              		.syntax unified
  25              		.thumb
  26              		.thumb_func
  28              	_ux_device_class_hid_activate:
  29              	.LVL0:
  30              	.LFB3:
   1:Middlewares/ST/usbx/common/usbx_device_classes/src/ux_device_class_hid_activate.c **** /**************************************************************************/
   2:Middlewares/ST/usbx/common/usbx_device_classes/src/ux_device_class_hid_activate.c **** /*                                                                        */
   3:Middlewares/ST/usbx/common/usbx_device_classes/src/ux_device_class_hid_activate.c **** /*       Copyright (c) Microsoft Corporation. All rights reserved.        */
   4:Middlewares/ST/usbx/common/usbx_device_classes/src/ux_device_class_hid_activate.c **** /*                                                                        */
   5:Middlewares/ST/usbx/common/usbx_device_classes/src/ux_device_class_hid_activate.c **** /*       This software is licensed under the Microsoft Software License   */
   6:Middlewares/ST/usbx/common/usbx_device_classes/src/ux_device_class_hid_activate.c **** /*       Terms for Microsoft Azure RTOS. Full text of the license can be  */
   7:Middlewares/ST/usbx/common/usbx_device_classes/src/ux_device_class_hid_activate.c **** /*       found in the LICENSE file at https://aka.ms/AzureRTOS_EULA       */
   8:Middlewares/ST/usbx/common/usbx_device_classes/src/ux_device_class_hid_activate.c **** /*       and in the root directory of this software.                      */
   9:Middlewares/ST/usbx/common/usbx_device_classes/src/ux_device_class_hid_activate.c **** /*                                                                        */
  10:Middlewares/ST/usbx/common/usbx_device_classes/src/ux_device_class_hid_activate.c **** /**************************************************************************/
  11:Middlewares/ST/usbx/common/usbx_device_classes/src/ux_device_class_hid_activate.c **** 
  12:Middlewares/ST/usbx/common/usbx_device_classes/src/ux_device_class_hid_activate.c **** /**************************************************************************/
  13:Middlewares/ST/usbx/common/usbx_device_classes/src/ux_device_class_hid_activate.c **** /**                                                                       */
  14:Middlewares/ST/usbx/common/usbx_device_classes/src/ux_device_class_hid_activate.c **** /** USBX Component                                                        */
  15:Middlewares/ST/usbx/common/usbx_device_classes/src/ux_device_class_hid_activate.c **** /**                                                                       */
  16:Middlewares/ST/usbx/common/usbx_device_classes/src/ux_device_class_hid_activate.c **** /**   Device HID Class                                                    */
  17:Middlewares/ST/usbx/common/usbx_device_classes/src/ux_device_class_hid_activate.c **** /**                                                                       */
  18:Middlewares/ST/usbx/common/usbx_device_classes/src/ux_device_class_hid_activate.c **** /**************************************************************************/
  19:Middlewares/ST/usbx/common/usbx_device_classes/src/ux_device_class_hid_activate.c **** /**************************************************************************/
  20:Middlewares/ST/usbx/common/usbx_device_classes/src/ux_device_class_hid_activate.c **** 
  21:Middlewares/ST/usbx/common/usbx_device_classes/src/ux_device_class_hid_activate.c **** #define UX_SOURCE_CODE
  22:Middlewares/ST/usbx/common/usbx_device_classes/src/ux_device_class_hid_activate.c **** 
  23:Middlewares/ST/usbx/common/usbx_device_classes/src/ux_device_class_hid_activate.c **** 
  24:Middlewares/ST/usbx/common/usbx_device_classes/src/ux_device_class_hid_activate.c **** /* Include necessary system files.  */
  25:Middlewares/ST/usbx/common/usbx_device_classes/src/ux_device_class_hid_activate.c **** 
  26:Middlewares/ST/usbx/common/usbx_device_classes/src/ux_device_class_hid_activate.c **** #include "ux_api.h"
  27:Middlewares/ST/usbx/common/usbx_device_classes/src/ux_device_class_hid_activate.c **** #include "ux_device_class_hid.h"
  28:Middlewares/ST/usbx/common/usbx_device_classes/src/ux_device_class_hid_activate.c **** #include "ux_device_stack.h"
ARM GAS  C:\Users\sapph\AppData\Local\Temp\cc2Sqpei.s 			page 2


  29:Middlewares/ST/usbx/common/usbx_device_classes/src/ux_device_class_hid_activate.c **** 
  30:Middlewares/ST/usbx/common/usbx_device_classes/src/ux_device_class_hid_activate.c **** 
  31:Middlewares/ST/usbx/common/usbx_device_classes/src/ux_device_class_hid_activate.c **** /**************************************************************************/
  32:Middlewares/ST/usbx/common/usbx_device_classes/src/ux_device_class_hid_activate.c **** /*                                                                        */
  33:Middlewares/ST/usbx/common/usbx_device_classes/src/ux_device_class_hid_activate.c **** /*  FUNCTION                                               RELEASE        */
  34:Middlewares/ST/usbx/common/usbx_device_classes/src/ux_device_class_hid_activate.c **** /*                                                                        */
  35:Middlewares/ST/usbx/common/usbx_device_classes/src/ux_device_class_hid_activate.c **** /*    _ux_device_class_hid_activate                       PORTABLE C      */
  36:Middlewares/ST/usbx/common/usbx_device_classes/src/ux_device_class_hid_activate.c **** /*                                                           6.1.12       */
  37:Middlewares/ST/usbx/common/usbx_device_classes/src/ux_device_class_hid_activate.c **** /*  AUTHOR                                                                */
  38:Middlewares/ST/usbx/common/usbx_device_classes/src/ux_device_class_hid_activate.c **** /*                                                                        */
  39:Middlewares/ST/usbx/common/usbx_device_classes/src/ux_device_class_hid_activate.c **** /*    Chaoqiong Xiao, Microsoft Corporation                               */
  40:Middlewares/ST/usbx/common/usbx_device_classes/src/ux_device_class_hid_activate.c **** /*                                                                        */
  41:Middlewares/ST/usbx/common/usbx_device_classes/src/ux_device_class_hid_activate.c **** /*  DESCRIPTION                                                           */
  42:Middlewares/ST/usbx/common/usbx_device_classes/src/ux_device_class_hid_activate.c **** /*                                                                        */
  43:Middlewares/ST/usbx/common/usbx_device_classes/src/ux_device_class_hid_activate.c **** /*    This function activates an instance of a HID device.                */
  44:Middlewares/ST/usbx/common/usbx_device_classes/src/ux_device_class_hid_activate.c **** /*                                                                        */
  45:Middlewares/ST/usbx/common/usbx_device_classes/src/ux_device_class_hid_activate.c **** /*  INPUT                                                                 */
  46:Middlewares/ST/usbx/common/usbx_device_classes/src/ux_device_class_hid_activate.c **** /*                                                                        */
  47:Middlewares/ST/usbx/common/usbx_device_classes/src/ux_device_class_hid_activate.c **** /*    command                              Pointer to hid command         */
  48:Middlewares/ST/usbx/common/usbx_device_classes/src/ux_device_class_hid_activate.c **** /*                                                                        */
  49:Middlewares/ST/usbx/common/usbx_device_classes/src/ux_device_class_hid_activate.c **** /*  OUTPUT                                                                */
  50:Middlewares/ST/usbx/common/usbx_device_classes/src/ux_device_class_hid_activate.c **** /*                                                                        */
  51:Middlewares/ST/usbx/common/usbx_device_classes/src/ux_device_class_hid_activate.c **** /*    Completion Status                                                   */
  52:Middlewares/ST/usbx/common/usbx_device_classes/src/ux_device_class_hid_activate.c **** /*                                                                        */
  53:Middlewares/ST/usbx/common/usbx_device_classes/src/ux_device_class_hid_activate.c **** /*  CALLS                                                                 */
  54:Middlewares/ST/usbx/common/usbx_device_classes/src/ux_device_class_hid_activate.c **** /*                                                                        */
  55:Middlewares/ST/usbx/common/usbx_device_classes/src/ux_device_class_hid_activate.c **** /*    _ux_device_thread_resume              Resume thread                 */
  56:Middlewares/ST/usbx/common/usbx_device_classes/src/ux_device_class_hid_activate.c **** /*                                                                        */
  57:Middlewares/ST/usbx/common/usbx_device_classes/src/ux_device_class_hid_activate.c **** /*  CALLED BY                                                             */
  58:Middlewares/ST/usbx/common/usbx_device_classes/src/ux_device_class_hid_activate.c **** /*                                                                        */
  59:Middlewares/ST/usbx/common/usbx_device_classes/src/ux_device_class_hid_activate.c **** /*    USBX Source Code                                                    */
  60:Middlewares/ST/usbx/common/usbx_device_classes/src/ux_device_class_hid_activate.c **** /*                                                                        */
  61:Middlewares/ST/usbx/common/usbx_device_classes/src/ux_device_class_hid_activate.c **** /*  RELEASE HISTORY                                                       */
  62:Middlewares/ST/usbx/common/usbx_device_classes/src/ux_device_class_hid_activate.c **** /*                                                                        */
  63:Middlewares/ST/usbx/common/usbx_device_classes/src/ux_device_class_hid_activate.c **** /*    DATE              NAME                      DESCRIPTION             */
  64:Middlewares/ST/usbx/common/usbx_device_classes/src/ux_device_class_hid_activate.c **** /*                                                                        */
  65:Middlewares/ST/usbx/common/usbx_device_classes/src/ux_device_class_hid_activate.c **** /*  05-19-2020     Chaoqiong Xiao           Initial Version 6.0           */
  66:Middlewares/ST/usbx/common/usbx_device_classes/src/ux_device_class_hid_activate.c **** /*  09-30-2020     Chaoqiong Xiao           Modified comment(s),          */
  67:Middlewares/ST/usbx/common/usbx_device_classes/src/ux_device_class_hid_activate.c **** /*                                            resulting in version 6.1    */
  68:Middlewares/ST/usbx/common/usbx_device_classes/src/ux_device_class_hid_activate.c **** /*  12-31-2020     Chaoqiong Xiao           Modified comment(s),          */
  69:Middlewares/ST/usbx/common/usbx_device_classes/src/ux_device_class_hid_activate.c **** /*                                            added Get/Set Protocol      */
  70:Middlewares/ST/usbx/common/usbx_device_classes/src/ux_device_class_hid_activate.c **** /*                                            request support,            */
  71:Middlewares/ST/usbx/common/usbx_device_classes/src/ux_device_class_hid_activate.c **** /*                                            resulting in version 6.1.3  */
  72:Middlewares/ST/usbx/common/usbx_device_classes/src/ux_device_class_hid_activate.c **** /*  10-15-2021     Chaoqiong Xiao           Modified comment(s),          */
  73:Middlewares/ST/usbx/common/usbx_device_classes/src/ux_device_class_hid_activate.c **** /*                                            added packet size assert,   */
  74:Middlewares/ST/usbx/common/usbx_device_classes/src/ux_device_class_hid_activate.c **** /*                                            resulting in version 6.1.9  */
  75:Middlewares/ST/usbx/common/usbx_device_classes/src/ux_device_class_hid_activate.c **** /*  01-31-2022     Chaoqiong Xiao           Modified comment(s),          */
  76:Middlewares/ST/usbx/common/usbx_device_classes/src/ux_device_class_hid_activate.c **** /*                                            added standalone support,   */
  77:Middlewares/ST/usbx/common/usbx_device_classes/src/ux_device_class_hid_activate.c **** /*                                            added interrupt OUT support,*/
  78:Middlewares/ST/usbx/common/usbx_device_classes/src/ux_device_class_hid_activate.c **** /*                                            added packet size assert,   */
  79:Middlewares/ST/usbx/common/usbx_device_classes/src/ux_device_class_hid_activate.c **** /*                                            resulting in version 6.1.10 */
  80:Middlewares/ST/usbx/common/usbx_device_classes/src/ux_device_class_hid_activate.c **** /*  07-29-2022     Chaoqiong Xiao           Modified comment(s),          */
  81:Middlewares/ST/usbx/common/usbx_device_classes/src/ux_device_class_hid_activate.c **** /*                                            added standalone receiver,  */
  82:Middlewares/ST/usbx/common/usbx_device_classes/src/ux_device_class_hid_activate.c **** /*                                            fixed standalone tx length, */
  83:Middlewares/ST/usbx/common/usbx_device_classes/src/ux_device_class_hid_activate.c **** /*                                            fixed standalone EP IN init,*/
  84:Middlewares/ST/usbx/common/usbx_device_classes/src/ux_device_class_hid_activate.c **** /*                                            fixed parameter/variable    */
  85:Middlewares/ST/usbx/common/usbx_device_classes/src/ux_device_class_hid_activate.c **** /*                                            names conflict C++ keyword, */
ARM GAS  C:\Users\sapph\AppData\Local\Temp\cc2Sqpei.s 			page 3


  86:Middlewares/ST/usbx/common/usbx_device_classes/src/ux_device_class_hid_activate.c **** /*                                            resulting in version 6.1.12 */
  87:Middlewares/ST/usbx/common/usbx_device_classes/src/ux_device_class_hid_activate.c **** /*                                                                        */
  88:Middlewares/ST/usbx/common/usbx_device_classes/src/ux_device_class_hid_activate.c **** /**************************************************************************/
  89:Middlewares/ST/usbx/common/usbx_device_classes/src/ux_device_class_hid_activate.c **** UINT  _ux_device_class_hid_activate(UX_SLAVE_CLASS_COMMAND *command)
  90:Middlewares/ST/usbx/common/usbx_device_classes/src/ux_device_class_hid_activate.c **** {
  31              		.loc 1 90 1 view -0
  32              		.cfi_startproc
  33              		@ args = 0, pretend = 0, frame = 0
  34              		@ frame_needed = 0, uses_anonymous_args = 0
  35              		.loc 1 90 1 is_stmt 0 view .LVU1
  36 0000 38B5     		push	{r3, r4, r5, lr}
  37              		.cfi_def_cfa_offset 16
  38              		.cfi_offset 3, -16
  39              		.cfi_offset 4, -12
  40              		.cfi_offset 5, -8
  41              		.cfi_offset 14, -4
  91:Middlewares/ST/usbx/common/usbx_device_classes/src/ux_device_class_hid_activate.c **** 
  92:Middlewares/ST/usbx/common/usbx_device_classes/src/ux_device_class_hid_activate.c **** UX_SLAVE_INTERFACE                      *interface_ptr;
  42              		.loc 1 92 1 is_stmt 1 view .LVU2
  93:Middlewares/ST/usbx/common/usbx_device_classes/src/ux_device_class_hid_activate.c **** UX_SLAVE_CLASS                          *class_ptr;
  43              		.loc 1 93 1 view .LVU3
  94:Middlewares/ST/usbx/common/usbx_device_classes/src/ux_device_class_hid_activate.c **** UX_SLAVE_CLASS_HID                      *hid;
  44              		.loc 1 94 1 view .LVU4
  95:Middlewares/ST/usbx/common/usbx_device_classes/src/ux_device_class_hid_activate.c **** UX_SLAVE_ENDPOINT                       *endpoint_interrupt;
  45              		.loc 1 95 1 view .LVU5
  96:Middlewares/ST/usbx/common/usbx_device_classes/src/ux_device_class_hid_activate.c **** UX_SLAVE_ENDPOINT                       *endpoint_in = UX_NULL;
  46              		.loc 1 96 1 view .LVU6
  47              	.LVL1:
  97:Middlewares/ST/usbx/common/usbx_device_classes/src/ux_device_class_hid_activate.c **** #if defined(UX_DEVICE_CLASS_HID_INTERRUPT_OUT_SUPPORT)
  98:Middlewares/ST/usbx/common/usbx_device_classes/src/ux_device_class_hid_activate.c **** UX_SLAVE_ENDPOINT                       *endpoint_out = UX_NULL;
  99:Middlewares/ST/usbx/common/usbx_device_classes/src/ux_device_class_hid_activate.c **** #endif
 100:Middlewares/ST/usbx/common/usbx_device_classes/src/ux_device_class_hid_activate.c **** 
 101:Middlewares/ST/usbx/common/usbx_device_classes/src/ux_device_class_hid_activate.c ****     /* Get the class container.  */
 102:Middlewares/ST/usbx/common/usbx_device_classes/src/ux_device_class_hid_activate.c ****     class_ptr =  command -> ux_slave_class_command_class_ptr;
  48              		.loc 1 102 5 view .LVU7
  49              		.loc 1 102 15 is_stmt 0 view .LVU8
  50 0002 036A     		ldr	r3, [r0, #32]
  51              	.LVL2:
 103:Middlewares/ST/usbx/common/usbx_device_classes/src/ux_device_class_hid_activate.c **** 
 104:Middlewares/ST/usbx/common/usbx_device_classes/src/ux_device_class_hid_activate.c ****     /* Get the class instance in the container.  */
 105:Middlewares/ST/usbx/common/usbx_device_classes/src/ux_device_class_hid_activate.c ****     hid =  (UX_SLAVE_CLASS_HID *) class_ptr -> ux_slave_class_instance;
  52              		.loc 1 105 5 is_stmt 1 view .LVU9
  53              		.loc 1 105 9 is_stmt 0 view .LVU10
  54 0004 9D6C     		ldr	r5, [r3, #72]
  55              	.LVL3:
 106:Middlewares/ST/usbx/common/usbx_device_classes/src/ux_device_class_hid_activate.c **** 
 107:Middlewares/ST/usbx/common/usbx_device_classes/src/ux_device_class_hid_activate.c ****     /* Get the interface that owns this instance.  */
 108:Middlewares/ST/usbx/common/usbx_device_classes/src/ux_device_class_hid_activate.c ****     interface_ptr =  (UX_SLAVE_INTERFACE  *) command -> ux_slave_class_command_interface;
  56              		.loc 1 108 5 is_stmt 1 view .LVU11
  57              		.loc 1 108 19 is_stmt 0 view .LVU12
  58 0006 8368     		ldr	r3, [r0, #8]
  59              	.LVL4:
 109:Middlewares/ST/usbx/common/usbx_device_classes/src/ux_device_class_hid_activate.c **** 
 110:Middlewares/ST/usbx/common/usbx_device_classes/src/ux_device_class_hid_activate.c ****     /* Store the class instance into the interface.  */
 111:Middlewares/ST/usbx/common/usbx_device_classes/src/ux_device_class_hid_activate.c ****     interface_ptr -> ux_slave_interface_class_instance =  (VOID *)hid;
  60              		.loc 1 111 5 is_stmt 1 view .LVU13
  61              		.loc 1 111 56 is_stmt 0 view .LVU14
ARM GAS  C:\Users\sapph\AppData\Local\Temp\cc2Sqpei.s 			page 4


  62 0008 9D60     		str	r5, [r3, #8]
  63              	.LVL5:
 112:Middlewares/ST/usbx/common/usbx_device_classes/src/ux_device_class_hid_activate.c **** 
 113:Middlewares/ST/usbx/common/usbx_device_classes/src/ux_device_class_hid_activate.c ****     /* Now the opposite, store the interface in the class instance.  */
 114:Middlewares/ST/usbx/common/usbx_device_classes/src/ux_device_class_hid_activate.c ****     hid -> ux_slave_class_hid_interface =  interface_ptr;
  64              		.loc 1 114 5 is_stmt 1 view .LVU15
  65              		.loc 1 114 41 is_stmt 0 view .LVU16
  66 000a 2B60     		str	r3, [r5]
 115:Middlewares/ST/usbx/common/usbx_device_classes/src/ux_device_class_hid_activate.c **** 
 116:Middlewares/ST/usbx/common/usbx_device_classes/src/ux_device_class_hid_activate.c ****     /* Locate the endpoints.  */
 117:Middlewares/ST/usbx/common/usbx_device_classes/src/ux_device_class_hid_activate.c ****     endpoint_interrupt =  interface_ptr -> ux_slave_interface_first_endpoint;
  67              		.loc 1 117 5 is_stmt 1 view .LVU17
  68              		.loc 1 117 24 is_stmt 0 view .LVU18
  69 000c 5C6B     		ldr	r4, [r3, #52]
  70              	.LVL6:
 118:Middlewares/ST/usbx/common/usbx_device_classes/src/ux_device_class_hid_activate.c **** 
 119:Middlewares/ST/usbx/common/usbx_device_classes/src/ux_device_class_hid_activate.c ****     /* Check if interrupt IN endpoint exists.  */
 120:Middlewares/ST/usbx/common/usbx_device_classes/src/ux_device_class_hid_activate.c ****     while (endpoint_interrupt != UX_NULL)
  71              		.loc 1 120 5 is_stmt 1 view .LVU19
  72              		.loc 1 120 11 is_stmt 0 view .LVU20
  73 000e 00E0     		b	.L2
  74              	.LVL7:
  75              	.L3:
 121:Middlewares/ST/usbx/common/usbx_device_classes/src/ux_device_class_hid_activate.c ****     {
 122:Middlewares/ST/usbx/common/usbx_device_classes/src/ux_device_class_hid_activate.c ****         if ((endpoint_interrupt -> ux_slave_endpoint_descriptor.bmAttributes &
 123:Middlewares/ST/usbx/common/usbx_device_classes/src/ux_device_class_hid_activate.c ****              UX_MASK_ENDPOINT_TYPE) == UX_INTERRUPT_ENDPOINT)
 124:Middlewares/ST/usbx/common/usbx_device_classes/src/ux_device_class_hid_activate.c ****         {
 125:Middlewares/ST/usbx/common/usbx_device_classes/src/ux_device_class_hid_activate.c ****             if ((endpoint_interrupt -> ux_slave_endpoint_descriptor.bEndpointAddress &
 126:Middlewares/ST/usbx/common/usbx_device_classes/src/ux_device_class_hid_activate.c ****                  UX_ENDPOINT_DIRECTION) == UX_ENDPOINT_IN)
 127:Middlewares/ST/usbx/common/usbx_device_classes/src/ux_device_class_hid_activate.c ****             {
 128:Middlewares/ST/usbx/common/usbx_device_classes/src/ux_device_class_hid_activate.c **** 
 129:Middlewares/ST/usbx/common/usbx_device_classes/src/ux_device_class_hid_activate.c ****                 /* It's interrupt IN endpoint we need.  */
 130:Middlewares/ST/usbx/common/usbx_device_classes/src/ux_device_class_hid_activate.c ****                 endpoint_in = endpoint_interrupt;
 131:Middlewares/ST/usbx/common/usbx_device_classes/src/ux_device_class_hid_activate.c **** #if defined(UX_DEVICE_CLASS_HID_INTERRUPT_OUT_SUPPORT)
 132:Middlewares/ST/usbx/common/usbx_device_classes/src/ux_device_class_hid_activate.c ****                 if (endpoint_out != UX_NULL)
 133:Middlewares/ST/usbx/common/usbx_device_classes/src/ux_device_class_hid_activate.c **** #endif
 134:Middlewares/ST/usbx/common/usbx_device_classes/src/ux_device_class_hid_activate.c ****                     break;
 135:Middlewares/ST/usbx/common/usbx_device_classes/src/ux_device_class_hid_activate.c ****             }
 136:Middlewares/ST/usbx/common/usbx_device_classes/src/ux_device_class_hid_activate.c **** #if defined(UX_DEVICE_CLASS_HID_INTERRUPT_OUT_SUPPORT)
 137:Middlewares/ST/usbx/common/usbx_device_classes/src/ux_device_class_hid_activate.c ****             else
 138:Middlewares/ST/usbx/common/usbx_device_classes/src/ux_device_class_hid_activate.c ****             {
 139:Middlewares/ST/usbx/common/usbx_device_classes/src/ux_device_class_hid_activate.c **** 
 140:Middlewares/ST/usbx/common/usbx_device_classes/src/ux_device_class_hid_activate.c ****                 /* It's optional interrupt OUT endpoint.  */
 141:Middlewares/ST/usbx/common/usbx_device_classes/src/ux_device_class_hid_activate.c ****                 endpoint_out = endpoint_interrupt;
 142:Middlewares/ST/usbx/common/usbx_device_classes/src/ux_device_class_hid_activate.c ****                 if (endpoint_in != UX_NULL)
 143:Middlewares/ST/usbx/common/usbx_device_classes/src/ux_device_class_hid_activate.c ****                     break;
 144:Middlewares/ST/usbx/common/usbx_device_classes/src/ux_device_class_hid_activate.c ****             }
 145:Middlewares/ST/usbx/common/usbx_device_classes/src/ux_device_class_hid_activate.c **** #endif
 146:Middlewares/ST/usbx/common/usbx_device_classes/src/ux_device_class_hid_activate.c ****         }
 147:Middlewares/ST/usbx/common/usbx_device_classes/src/ux_device_class_hid_activate.c **** 
 148:Middlewares/ST/usbx/common/usbx_device_classes/src/ux_device_class_hid_activate.c ****         /* Try next endpoint.  */
 149:Middlewares/ST/usbx/common/usbx_device_classes/src/ux_device_class_hid_activate.c ****         endpoint_interrupt =  endpoint_interrupt -> ux_slave_endpoint_next_endpoint;
  76              		.loc 1 149 9 is_stmt 1 view .LVU21
  77              		.loc 1 149 28 is_stmt 0 view .LVU22
  78 0010 646A     		ldr	r4, [r4, #36]
  79              	.LVL8:
  80              	.L2:
ARM GAS  C:\Users\sapph\AppData\Local\Temp\cc2Sqpei.s 			page 5


 120:Middlewares/ST/usbx/common/usbx_device_classes/src/ux_device_class_hid_activate.c ****     {
  81              		.loc 1 120 31 is_stmt 1 view .LVU23
  82 0012 44B1     		cbz	r4, .L4
 122:Middlewares/ST/usbx/common/usbx_device_classes/src/ux_device_class_hid_activate.c ****              UX_MASK_ENDPOINT_TYPE) == UX_INTERRUPT_ENDPOINT)
  83              		.loc 1 122 9 view .LVU24
 122:Middlewares/ST/usbx/common/usbx_device_classes/src/ux_device_class_hid_activate.c ****              UX_MASK_ENDPOINT_TYPE) == UX_INTERRUPT_ENDPOINT)
  84              		.loc 1 122 64 is_stmt 0 view .LVU25
  85 0014 A369     		ldr	r3, [r4, #24]
 122:Middlewares/ST/usbx/common/usbx_device_classes/src/ux_device_class_hid_activate.c ****              UX_MASK_ENDPOINT_TYPE) == UX_INTERRUPT_ENDPOINT)
  86              		.loc 1 122 78 view .LVU26
  87 0016 03F00303 		and	r3, r3, #3
 122:Middlewares/ST/usbx/common/usbx_device_classes/src/ux_device_class_hid_activate.c ****              UX_MASK_ENDPOINT_TYPE) == UX_INTERRUPT_ENDPOINT)
  88              		.loc 1 122 12 view .LVU27
  89 001a 032B     		cmp	r3, #3
  90 001c F8D1     		bne	.L3
 125:Middlewares/ST/usbx/common/usbx_device_classes/src/ux_device_class_hid_activate.c ****                  UX_ENDPOINT_DIRECTION) == UX_ENDPOINT_IN)
  91              		.loc 1 125 13 is_stmt 1 view .LVU28
 125:Middlewares/ST/usbx/common/usbx_device_classes/src/ux_device_class_hid_activate.c ****                  UX_ENDPOINT_DIRECTION) == UX_ENDPOINT_IN)
  92              		.loc 1 125 68 is_stmt 0 view .LVU29
  93 001e 6369     		ldr	r3, [r4, #20]
 125:Middlewares/ST/usbx/common/usbx_device_classes/src/ux_device_class_hid_activate.c ****                  UX_ENDPOINT_DIRECTION) == UX_ENDPOINT_IN)
  94              		.loc 1 125 16 view .LVU30
  95 0020 13F0800F 		tst	r3, #128
  96 0024 F4D0     		beq	.L3
  97              	.L4:
  98              	.LVL9:
 150:Middlewares/ST/usbx/common/usbx_device_classes/src/ux_device_class_hid_activate.c ****     }
 151:Middlewares/ST/usbx/common/usbx_device_classes/src/ux_device_class_hid_activate.c **** 
 152:Middlewares/ST/usbx/common/usbx_device_classes/src/ux_device_class_hid_activate.c ****     /* Check if we found right endpoint.  */
 153:Middlewares/ST/usbx/common/usbx_device_classes/src/ux_device_class_hid_activate.c ****     if (endpoint_in == UX_NULL)
  99              		.loc 1 153 5 is_stmt 1 view .LVU31
 100              		.loc 1 153 8 is_stmt 0 view .LVU32
 101 0026 94B1     		cbz	r4, .L7
 154:Middlewares/ST/usbx/common/usbx_device_classes/src/ux_device_class_hid_activate.c ****         return (UX_ERROR);
 155:Middlewares/ST/usbx/common/usbx_device_classes/src/ux_device_class_hid_activate.c **** 
 156:Middlewares/ST/usbx/common/usbx_device_classes/src/ux_device_class_hid_activate.c ****     /* Validate event buffer size (fits largest transfer payload size).  */
 157:Middlewares/ST/usbx/common/usbx_device_classes/src/ux_device_class_hid_activate.c ****     UX_ASSERT(UX_DEVICE_CLASS_HID_EVENT_BUFFER_LENGTH >=
 158:Middlewares/ST/usbx/common/usbx_device_classes/src/ux_device_class_hid_activate.c ****               endpoint_in -> ux_slave_endpoint_transfer_request.
 159:Middlewares/ST/usbx/common/usbx_device_classes/src/ux_device_class_hid_activate.c ****                             ux_slave_transfer_request_transfer_length);
 102              		.loc 1 159 71 is_stmt 1 view .LVU33
 160:Middlewares/ST/usbx/common/usbx_device_classes/src/ux_device_class_hid_activate.c **** 
 161:Middlewares/ST/usbx/common/usbx_device_classes/src/ux_device_class_hid_activate.c ****     /* Default HID protocol is report protocol.  */
 162:Middlewares/ST/usbx/common/usbx_device_classes/src/ux_device_class_hid_activate.c ****     hid -> ux_device_class_hid_protocol = UX_DEVICE_CLASS_HID_PROTOCOL_REPORT;
 103              		.loc 1 162 5 view .LVU34
 104              		.loc 1 162 41 is_stmt 0 view .LVU35
 105 0028 0123     		movs	r3, #1
 106 002a 6B66     		str	r3, [r5, #100]
 163:Middlewares/ST/usbx/common/usbx_device_classes/src/ux_device_class_hid_activate.c **** 
 164:Middlewares/ST/usbx/common/usbx_device_classes/src/ux_device_class_hid_activate.c ****     /* Save the endpoints in the hid instance.  */
 165:Middlewares/ST/usbx/common/usbx_device_classes/src/ux_device_class_hid_activate.c ****     hid -> ux_device_class_hid_interrupt_endpoint         = endpoint_in;
 107              		.loc 1 165 5 is_stmt 1 view .LVU36
 108              		.loc 1 165 59 is_stmt 0 view .LVU37
 109 002c 6C60     		str	r4, [r5, #4]
 166:Middlewares/ST/usbx/common/usbx_device_classes/src/ux_device_class_hid_activate.c **** 
 167:Middlewares/ST/usbx/common/usbx_device_classes/src/ux_device_class_hid_activate.c **** #if defined(UX_DEVICE_CLASS_HID_INTERRUPT_OUT_SUPPORT)
 168:Middlewares/ST/usbx/common/usbx_device_classes/src/ux_device_class_hid_activate.c **** 
 169:Middlewares/ST/usbx/common/usbx_device_classes/src/ux_device_class_hid_activate.c ****     /* Save endpoint OUT.  */
ARM GAS  C:\Users\sapph\AppData\Local\Temp\cc2Sqpei.s 			page 6


 170:Middlewares/ST/usbx/common/usbx_device_classes/src/ux_device_class_hid_activate.c ****     hid -> ux_device_class_hid_read_endpoint              = endpoint_out;
 171:Middlewares/ST/usbx/common/usbx_device_classes/src/ux_device_class_hid_activate.c **** 
 172:Middlewares/ST/usbx/common/usbx_device_classes/src/ux_device_class_hid_activate.c ****     /* Resume receiver thread/task (if present).  */
 173:Middlewares/ST/usbx/common/usbx_device_classes/src/ux_device_class_hid_activate.c ****     if (hid -> ux_device_class_hid_receiver && endpoint_out)
 174:Middlewares/ST/usbx/common/usbx_device_classes/src/ux_device_class_hid_activate.c ****     {
 175:Middlewares/ST/usbx/common/usbx_device_classes/src/ux_device_class_hid_activate.c **** 
 176:Middlewares/ST/usbx/common/usbx_device_classes/src/ux_device_class_hid_activate.c ****         /* Reset events.  */
 177:Middlewares/ST/usbx/common/usbx_device_classes/src/ux_device_class_hid_activate.c ****         hid -> ux_device_class_hid_receiver -> ux_device_class_hid_receiver_event_save_pos =
 178:Middlewares/ST/usbx/common/usbx_device_classes/src/ux_device_class_hid_activate.c ****             hid -> ux_device_class_hid_receiver -> ux_device_class_hid_receiver_events;
 179:Middlewares/ST/usbx/common/usbx_device_classes/src/ux_device_class_hid_activate.c ****         hid -> ux_device_class_hid_receiver -> ux_device_class_hid_receiver_event_read_pos =
 180:Middlewares/ST/usbx/common/usbx_device_classes/src/ux_device_class_hid_activate.c ****             hid -> ux_device_class_hid_receiver -> ux_device_class_hid_receiver_events;
 181:Middlewares/ST/usbx/common/usbx_device_classes/src/ux_device_class_hid_activate.c ****         _ux_utility_memory_set(
 182:Middlewares/ST/usbx/common/usbx_device_classes/src/ux_device_class_hid_activate.c ****             hid -> ux_device_class_hid_receiver -> ux_device_class_hid_receiver_events, 0x00,
 183:Middlewares/ST/usbx/common/usbx_device_classes/src/ux_device_class_hid_activate.c ****             (ALIGN_TYPE)hid -> ux_device_class_hid_receiver -> ux_device_class_hid_receiver_events_
 184:Middlewares/ST/usbx/common/usbx_device_classes/src/ux_device_class_hid_activate.c ****             (ALIGN_TYPE)hid -> ux_device_class_hid_receiver -> ux_device_class_hid_receiver_events)
 185:Middlewares/ST/usbx/common/usbx_device_classes/src/ux_device_class_hid_activate.c **** 
 186:Middlewares/ST/usbx/common/usbx_device_classes/src/ux_device_class_hid_activate.c **** #if !defined(UX_DEVICE_STANDALONE)
 187:Middlewares/ST/usbx/common/usbx_device_classes/src/ux_device_class_hid_activate.c **** 
 188:Middlewares/ST/usbx/common/usbx_device_classes/src/ux_device_class_hid_activate.c ****         /* Resume thread.  */
 189:Middlewares/ST/usbx/common/usbx_device_classes/src/ux_device_class_hid_activate.c ****         _ux_utility_thread_resume(&hid -> ux_device_class_hid_receiver -> ux_device_class_hid_recei
 190:Middlewares/ST/usbx/common/usbx_device_classes/src/ux_device_class_hid_activate.c **** #else
 191:Middlewares/ST/usbx/common/usbx_device_classes/src/ux_device_class_hid_activate.c **** 
 192:Middlewares/ST/usbx/common/usbx_device_classes/src/ux_device_class_hid_activate.c ****         /* Setup read state for receiver.  */
 193:Middlewares/ST/usbx/common/usbx_device_classes/src/ux_device_class_hid_activate.c ****         hid -> ux_device_class_hid_read_state = UX_DEVICE_CLASS_HID_RECEIVER_START;
 194:Middlewares/ST/usbx/common/usbx_device_classes/src/ux_device_class_hid_activate.c **** #endif
 195:Middlewares/ST/usbx/common/usbx_device_classes/src/ux_device_class_hid_activate.c ****     }
 196:Middlewares/ST/usbx/common/usbx_device_classes/src/ux_device_class_hid_activate.c **** #endif
 197:Middlewares/ST/usbx/common/usbx_device_classes/src/ux_device_class_hid_activate.c **** 
 198:Middlewares/ST/usbx/common/usbx_device_classes/src/ux_device_class_hid_activate.c **** #if !defined(UX_DEVICE_STANDALONE)
 199:Middlewares/ST/usbx/common/usbx_device_classes/src/ux_device_class_hid_activate.c **** 
 200:Middlewares/ST/usbx/common/usbx_device_classes/src/ux_device_class_hid_activate.c ****     /* Resume thread.  */
 201:Middlewares/ST/usbx/common/usbx_device_classes/src/ux_device_class_hid_activate.c ****     _ux_device_thread_resume(&class_ptr -> ux_slave_class_thread);
 202:Middlewares/ST/usbx/common/usbx_device_classes/src/ux_device_class_hid_activate.c **** #else
 203:Middlewares/ST/usbx/common/usbx_device_classes/src/ux_device_class_hid_activate.c **** 
 204:Middlewares/ST/usbx/common/usbx_device_classes/src/ux_device_class_hid_activate.c ****     /* Reset event buffered for background transfer.  */
 205:Middlewares/ST/usbx/common/usbx_device_classes/src/ux_device_class_hid_activate.c ****     _ux_utility_memory_set((VOID *)&hid -> ux_device_class_hid_event, 0,
 110              		.loc 1 205 5 is_stmt 1 view .LVU38
 111 002e 2C22     		movs	r2, #44
 112 0030 0021     		movs	r1, #0
 113 0032 05F13000 		add	r0, r5, #48
 114              	.LVL10:
 115              		.loc 1 205 5 is_stmt 0 view .LVU39
 116 0036 FFF7FEFF 		bl	_ux_utility_memory_set
 117              	.LVL11:
 206:Middlewares/ST/usbx/common/usbx_device_classes/src/ux_device_class_hid_activate.c ****                                             sizeof(UX_SLAVE_CLASS_HID_EVENT)); /* Use case of memse
 207:Middlewares/ST/usbx/common/usbx_device_classes/src/ux_device_class_hid_activate.c ****     hid -> ux_device_class_hid_event.ux_device_class_hid_event_length =
 118              		.loc 1 207 5 is_stmt 1 view .LVU40
 208:Middlewares/ST/usbx/common/usbx_device_classes/src/ux_device_class_hid_activate.c ****                     endpoint_in -> ux_slave_endpoint_transfer_request.
 119              		.loc 1 208 70 is_stmt 0 view .LVU41
 120 003a 236D     		ldr	r3, [r4, #80]
 207:Middlewares/ST/usbx/common/usbx_device_classes/src/ux_device_class_hid_activate.c ****                     endpoint_in -> ux_slave_endpoint_transfer_request.
 121              		.loc 1 207 71 view .LVU42
 122 003c AB65     		str	r3, [r5, #88]
 209:Middlewares/ST/usbx/common/usbx_device_classes/src/ux_device_class_hid_activate.c ****                                     ux_slave_transfer_request_transfer_length;
 210:Middlewares/ST/usbx/common/usbx_device_classes/src/ux_device_class_hid_activate.c **** 
 211:Middlewares/ST/usbx/common/usbx_device_classes/src/ux_device_class_hid_activate.c ****     /* Reset event sending state.  */
 212:Middlewares/ST/usbx/common/usbx_device_classes/src/ux_device_class_hid_activate.c ****     hid -> ux_device_class_hid_event_state = UX_STATE_RESET;
ARM GAS  C:\Users\sapph\AppData\Local\Temp\cc2Sqpei.s 			page 7


 123              		.loc 1 212 5 is_stmt 1 view .LVU43
 124              		.loc 1 212 44 is_stmt 0 view .LVU44
 125 003e 0023     		movs	r3, #0
 126 0040 AB62     		str	r3, [r5, #40]
 213:Middlewares/ST/usbx/common/usbx_device_classes/src/ux_device_class_hid_activate.c **** #endif
 214:Middlewares/ST/usbx/common/usbx_device_classes/src/ux_device_class_hid_activate.c **** 
 215:Middlewares/ST/usbx/common/usbx_device_classes/src/ux_device_class_hid_activate.c **** 
 216:Middlewares/ST/usbx/common/usbx_device_classes/src/ux_device_class_hid_activate.c ****     /* If there is a activate function call it.  */
 217:Middlewares/ST/usbx/common/usbx_device_classes/src/ux_device_class_hid_activate.c ****     if (hid -> ux_slave_class_hid_instance_activate != UX_NULL)
 127              		.loc 1 217 5 is_stmt 1 view .LVU45
 128              		.loc 1 217 13 is_stmt 0 view .LVU46
 129 0042 6B69     		ldr	r3, [r5, #20]
 130              		.loc 1 217 8 view .LVU47
 131 0044 2BB1     		cbz	r3, .L8
 218:Middlewares/ST/usbx/common/usbx_device_classes/src/ux_device_class_hid_activate.c ****     {
 219:Middlewares/ST/usbx/common/usbx_device_classes/src/ux_device_class_hid_activate.c **** 
 220:Middlewares/ST/usbx/common/usbx_device_classes/src/ux_device_class_hid_activate.c ****         /* Invoke the application.  */
 221:Middlewares/ST/usbx/common/usbx_device_classes/src/ux_device_class_hid_activate.c ****         hid -> ux_slave_class_hid_instance_activate(hid);
 132              		.loc 1 221 9 is_stmt 1 view .LVU48
 133 0046 2846     		mov	r0, r5
 134 0048 9847     		blx	r3
 135              	.LVL12:
 222:Middlewares/ST/usbx/common/usbx_device_classes/src/ux_device_class_hid_activate.c ****     }
 223:Middlewares/ST/usbx/common/usbx_device_classes/src/ux_device_class_hid_activate.c **** 
 224:Middlewares/ST/usbx/common/usbx_device_classes/src/ux_device_class_hid_activate.c ****     /* If trace is enabled, insert this event into the trace buffer.  */
 225:Middlewares/ST/usbx/common/usbx_device_classes/src/ux_device_class_hid_activate.c ****     UX_TRACE_IN_LINE_INSERT(UX_TRACE_DEVICE_CLASS_HID_ACTIVATE, hid, 0, 0, 0, UX_TRACE_DEVICE_CLASS
 226:Middlewares/ST/usbx/common/usbx_device_classes/src/ux_device_class_hid_activate.c **** 
 227:Middlewares/ST/usbx/common/usbx_device_classes/src/ux_device_class_hid_activate.c ****     /* If trace is enabled, register this object.  */
 228:Middlewares/ST/usbx/common/usbx_device_classes/src/ux_device_class_hid_activate.c ****     UX_TRACE_OBJECT_REGISTER(UX_TRACE_DEVICE_OBJECT_TYPE_INTERFACE, hid, 0, 0, 0)
 229:Middlewares/ST/usbx/common/usbx_device_classes/src/ux_device_class_hid_activate.c **** 
 230:Middlewares/ST/usbx/common/usbx_device_classes/src/ux_device_class_hid_activate.c ****     /* Return completion status.  */
 231:Middlewares/ST/usbx/common/usbx_device_classes/src/ux_device_class_hid_activate.c ****     return(UX_SUCCESS);
 136              		.loc 1 231 11 is_stmt 0 view .LVU49
 137 004a 0020     		movs	r0, #0
 138              	.L1:
 232:Middlewares/ST/usbx/common/usbx_device_classes/src/ux_device_class_hid_activate.c **** }
 139              		.loc 1 232 1 view .LVU50
 140 004c 38BD     		pop	{r3, r4, r5, pc}
 141              	.LVL13:
 142              	.L7:
 154:Middlewares/ST/usbx/common/usbx_device_classes/src/ux_device_class_hid_activate.c **** 
 143              		.loc 1 154 16 view .LVU51
 144 004e FF20     		movs	r0, #255
 145              	.LVL14:
 154:Middlewares/ST/usbx/common/usbx_device_classes/src/ux_device_class_hid_activate.c **** 
 146              		.loc 1 154 16 view .LVU52
 147 0050 FCE7     		b	.L1
 148              	.LVL15:
 149              	.L8:
 231:Middlewares/ST/usbx/common/usbx_device_classes/src/ux_device_class_hid_activate.c **** }
 150              		.loc 1 231 11 view .LVU53
 151 0052 0020     		movs	r0, #0
 152 0054 FAE7     		b	.L1
 153              		.cfi_endproc
 154              	.LFE3:
 156              		.text
 157              	.Letext0:
ARM GAS  C:\Users\sapph\AppData\Local\Temp\cc2Sqpei.s 			page 8


 158              		.file 2 "Middlewares/ST/usbx/ports/generic/inc/ux_port.h"
 159              		.file 3 "Middlewares/ST/usbx/common/core/inc/ux_api.h"
 160              		.file 4 "Middlewares/ST/usbx/common/usbx_device_classes/inc/ux_device_class_hid.h"
 161              		.file 5 "Middlewares/ST/usbx/common/core/inc/ux_utility.h"
ARM GAS  C:\Users\sapph\AppData\Local\Temp\cc2Sqpei.s 			page 9

