ARM GAS  C:\Users\sapph\AppData\Local\Temp\ccI7uC3d.s 			page 1


   1              		.cpu cortex-m33
   2              		.arch armv8-m.main
   3              		.fpu fpv4-sp-d16
   4              		.arch_extension dsp
   5              		.eabi_attribute 27, 1
   6              		.eabi_attribute 28, 1
   7              		.eabi_attribute 20, 1
   8              		.eabi_attribute 21, 1
   9              		.eabi_attribute 23, 3
  10              		.eabi_attribute 24, 1
  11              		.eabi_attribute 25, 1
  12              		.eabi_attribute 26, 1
  13              		.eabi_attribute 30, 1
  14              		.eabi_attribute 34, 1
  15              		.eabi_attribute 18, 4
  16              		.file	"ux_device_stack_interface_start.c"
  17              		.text
  18              	.Ltext0:
  19              		.cfi_sections	.debug_frame
  20              		.file 1 "Middlewares/ST/usbx/common/core/src/ux_device_stack_interface_start.c"
  21              		.section	.text._ux_device_stack_interface_start,"ax",%progbits
  22              		.align	1
  23              		.global	_ux_device_stack_interface_start
  24              		.syntax unified
  25              		.thumb
  26              		.thumb_func
  28              	_ux_device_stack_interface_start:
  29              	.LVL0:
  30              	.LFB3:
   1:Middlewares/ST/usbx/common/core/src/ux_device_stack_interface_start.c **** /**************************************************************************/
   2:Middlewares/ST/usbx/common/core/src/ux_device_stack_interface_start.c **** /*                                                                        */
   3:Middlewares/ST/usbx/common/core/src/ux_device_stack_interface_start.c **** /*       Copyright (c) Microsoft Corporation. All rights reserved.        */
   4:Middlewares/ST/usbx/common/core/src/ux_device_stack_interface_start.c **** /*                                                                        */
   5:Middlewares/ST/usbx/common/core/src/ux_device_stack_interface_start.c **** /*       This software is licensed under the Microsoft Software License   */
   6:Middlewares/ST/usbx/common/core/src/ux_device_stack_interface_start.c **** /*       Terms for Microsoft Azure RTOS. Full text of the license can be  */
   7:Middlewares/ST/usbx/common/core/src/ux_device_stack_interface_start.c **** /*       found in the LICENSE file at https://aka.ms/AzureRTOS_EULA       */
   8:Middlewares/ST/usbx/common/core/src/ux_device_stack_interface_start.c **** /*       and in the root directory of this software.                      */
   9:Middlewares/ST/usbx/common/core/src/ux_device_stack_interface_start.c **** /*                                                                        */
  10:Middlewares/ST/usbx/common/core/src/ux_device_stack_interface_start.c **** /**************************************************************************/
  11:Middlewares/ST/usbx/common/core/src/ux_device_stack_interface_start.c **** 
  12:Middlewares/ST/usbx/common/core/src/ux_device_stack_interface_start.c **** 
  13:Middlewares/ST/usbx/common/core/src/ux_device_stack_interface_start.c **** /**************************************************************************/
  14:Middlewares/ST/usbx/common/core/src/ux_device_stack_interface_start.c **** /**************************************************************************/
  15:Middlewares/ST/usbx/common/core/src/ux_device_stack_interface_start.c **** /**                                                                       */ 
  16:Middlewares/ST/usbx/common/core/src/ux_device_stack_interface_start.c **** /** USBX Component                                                        */ 
  17:Middlewares/ST/usbx/common/core/src/ux_device_stack_interface_start.c **** /**                                                                       */
  18:Middlewares/ST/usbx/common/core/src/ux_device_stack_interface_start.c **** /**   Device Stack                                                        */
  19:Middlewares/ST/usbx/common/core/src/ux_device_stack_interface_start.c **** /**                                                                       */
  20:Middlewares/ST/usbx/common/core/src/ux_device_stack_interface_start.c **** /**************************************************************************/
  21:Middlewares/ST/usbx/common/core/src/ux_device_stack_interface_start.c **** /**************************************************************************/
  22:Middlewares/ST/usbx/common/core/src/ux_device_stack_interface_start.c **** 
  23:Middlewares/ST/usbx/common/core/src/ux_device_stack_interface_start.c **** #define UX_SOURCE_CODE
  24:Middlewares/ST/usbx/common/core/src/ux_device_stack_interface_start.c **** 
  25:Middlewares/ST/usbx/common/core/src/ux_device_stack_interface_start.c **** 
  26:Middlewares/ST/usbx/common/core/src/ux_device_stack_interface_start.c **** /* Include necessary system files.  */
  27:Middlewares/ST/usbx/common/core/src/ux_device_stack_interface_start.c **** 
  28:Middlewares/ST/usbx/common/core/src/ux_device_stack_interface_start.c **** #include "ux_api.h"
ARM GAS  C:\Users\sapph\AppData\Local\Temp\ccI7uC3d.s 			page 2


  29:Middlewares/ST/usbx/common/core/src/ux_device_stack_interface_start.c **** #include "ux_device_stack.h"
  30:Middlewares/ST/usbx/common/core/src/ux_device_stack_interface_start.c **** 
  31:Middlewares/ST/usbx/common/core/src/ux_device_stack_interface_start.c **** 
  32:Middlewares/ST/usbx/common/core/src/ux_device_stack_interface_start.c **** /**************************************************************************/
  33:Middlewares/ST/usbx/common/core/src/ux_device_stack_interface_start.c **** /*                                                                        */
  34:Middlewares/ST/usbx/common/core/src/ux_device_stack_interface_start.c **** /*  FUNCTION                                               RELEASE        */
  35:Middlewares/ST/usbx/common/core/src/ux_device_stack_interface_start.c **** /*                                                                        */
  36:Middlewares/ST/usbx/common/core/src/ux_device_stack_interface_start.c **** /*    _ux_device_stack_interface_start                    PORTABLE C      */
  37:Middlewares/ST/usbx/common/core/src/ux_device_stack_interface_start.c **** /*                                                           6.1.12       */
  38:Middlewares/ST/usbx/common/core/src/ux_device_stack_interface_start.c **** /*  AUTHOR                                                                */
  39:Middlewares/ST/usbx/common/core/src/ux_device_stack_interface_start.c **** /*                                                                        */
  40:Middlewares/ST/usbx/common/core/src/ux_device_stack_interface_start.c **** /*    Chaoqiong Xiao, Microsoft Corporation                               */
  41:Middlewares/ST/usbx/common/core/src/ux_device_stack_interface_start.c **** /*                                                                        */
  42:Middlewares/ST/usbx/common/core/src/ux_device_stack_interface_start.c **** /*  DESCRIPTION                                                           */
  43:Middlewares/ST/usbx/common/core/src/ux_device_stack_interface_start.c **** /*                                                                        */
  44:Middlewares/ST/usbx/common/core/src/ux_device_stack_interface_start.c **** /*    This function starts an interface associated with the enabled       */
  45:Middlewares/ST/usbx/common/core/src/ux_device_stack_interface_start.c **** /*    configuration.                                                      */
  46:Middlewares/ST/usbx/common/core/src/ux_device_stack_interface_start.c **** /*                                                                        */
  47:Middlewares/ST/usbx/common/core/src/ux_device_stack_interface_start.c **** /*  INPUT                                                                 */
  48:Middlewares/ST/usbx/common/core/src/ux_device_stack_interface_start.c **** /*                                                                        */
  49:Middlewares/ST/usbx/common/core/src/ux_device_stack_interface_start.c **** /*    interface                             Pointer to interface          */ 
  50:Middlewares/ST/usbx/common/core/src/ux_device_stack_interface_start.c **** /*                                                                        */
  51:Middlewares/ST/usbx/common/core/src/ux_device_stack_interface_start.c **** /*  OUTPUT                                                                */
  52:Middlewares/ST/usbx/common/core/src/ux_device_stack_interface_start.c **** /*                                                                        */
  53:Middlewares/ST/usbx/common/core/src/ux_device_stack_interface_start.c **** /*    Completion Status                                                   */ 
  54:Middlewares/ST/usbx/common/core/src/ux_device_stack_interface_start.c **** /*                                                                        */
  55:Middlewares/ST/usbx/common/core/src/ux_device_stack_interface_start.c **** /*  CALLS                                                                 */ 
  56:Middlewares/ST/usbx/common/core/src/ux_device_stack_interface_start.c **** /*                                                                        */ 
  57:Middlewares/ST/usbx/common/core/src/ux_device_stack_interface_start.c **** /*    (ux_slave_class_entry_function)       Device class entry function   */ 
  58:Middlewares/ST/usbx/common/core/src/ux_device_stack_interface_start.c **** /*                                                                        */ 
  59:Middlewares/ST/usbx/common/core/src/ux_device_stack_interface_start.c **** /*  CALLED BY                                                             */ 
  60:Middlewares/ST/usbx/common/core/src/ux_device_stack_interface_start.c **** /*                                                                        */ 
  61:Middlewares/ST/usbx/common/core/src/ux_device_stack_interface_start.c **** /*    Application                                                         */ 
  62:Middlewares/ST/usbx/common/core/src/ux_device_stack_interface_start.c **** /*    Device Stack                                                        */
  63:Middlewares/ST/usbx/common/core/src/ux_device_stack_interface_start.c **** /*                                                                        */ 
  64:Middlewares/ST/usbx/common/core/src/ux_device_stack_interface_start.c **** /*  RELEASE HISTORY                                                       */ 
  65:Middlewares/ST/usbx/common/core/src/ux_device_stack_interface_start.c **** /*                                                                        */ 
  66:Middlewares/ST/usbx/common/core/src/ux_device_stack_interface_start.c **** /*    DATE              NAME                      DESCRIPTION             */ 
  67:Middlewares/ST/usbx/common/core/src/ux_device_stack_interface_start.c **** /*                                                                        */ 
  68:Middlewares/ST/usbx/common/core/src/ux_device_stack_interface_start.c **** /*  05-19-2020     Chaoqiong Xiao           Initial Version 6.0           */
  69:Middlewares/ST/usbx/common/core/src/ux_device_stack_interface_start.c **** /*  09-30-2020     Chaoqiong Xiao           Modified comment(s),          */
  70:Middlewares/ST/usbx/common/core/src/ux_device_stack_interface_start.c **** /*                                            resulting in version 6.1    */
  71:Middlewares/ST/usbx/common/core/src/ux_device_stack_interface_start.c **** /*  07-29-2022     Chaoqiong Xiao           Modified comment(s),          */
  72:Middlewares/ST/usbx/common/core/src/ux_device_stack_interface_start.c **** /*                                            fixed parameter/variable    */
  73:Middlewares/ST/usbx/common/core/src/ux_device_stack_interface_start.c **** /*                                            names conflict C++ keyword, */
  74:Middlewares/ST/usbx/common/core/src/ux_device_stack_interface_start.c **** /*                                            resulting in version 6.1.12 */
  75:Middlewares/ST/usbx/common/core/src/ux_device_stack_interface_start.c **** /*                                                                        */
  76:Middlewares/ST/usbx/common/core/src/ux_device_stack_interface_start.c **** /**************************************************************************/
  77:Middlewares/ST/usbx/common/core/src/ux_device_stack_interface_start.c **** UINT  _ux_device_stack_interface_start(UX_SLAVE_INTERFACE *interface_ptr)
  78:Middlewares/ST/usbx/common/core/src/ux_device_stack_interface_start.c **** {
  31              		.loc 1 78 1 view -0
  32              		.cfi_startproc
  33              		@ args = 0, pretend = 0, frame = 48
  34              		@ frame_needed = 0, uses_anonymous_args = 0
  35              		.loc 1 78 1 is_stmt 0 view .LVU1
  36 0000 30B5     		push	{r4, r5, lr}
  37              		.cfi_def_cfa_offset 12
ARM GAS  C:\Users\sapph\AppData\Local\Temp\ccI7uC3d.s 			page 3


  38              		.cfi_offset 4, -12
  39              		.cfi_offset 5, -8
  40              		.cfi_offset 14, -4
  41 0002 8DB0     		sub	sp, sp, #52
  42              		.cfi_def_cfa_offset 64
  79:Middlewares/ST/usbx/common/core/src/ux_device_stack_interface_start.c **** 
  80:Middlewares/ST/usbx/common/core/src/ux_device_stack_interface_start.c **** UX_SLAVE_DEVICE             *device;
  43              		.loc 1 80 1 is_stmt 1 view .LVU2
  81:Middlewares/ST/usbx/common/core/src/ux_device_stack_interface_start.c **** UX_SLAVE_CLASS              *class_ptr;
  44              		.loc 1 81 1 view .LVU3
  82:Middlewares/ST/usbx/common/core/src/ux_device_stack_interface_start.c **** UINT                        status;
  45              		.loc 1 82 1 view .LVU4
  83:Middlewares/ST/usbx/common/core/src/ux_device_stack_interface_start.c **** UX_SLAVE_CLASS_COMMAND      class_command;
  46              		.loc 1 83 1 view .LVU5
  84:Middlewares/ST/usbx/common/core/src/ux_device_stack_interface_start.c **** 
  85:Middlewares/ST/usbx/common/core/src/ux_device_stack_interface_start.c **** 
  86:Middlewares/ST/usbx/common/core/src/ux_device_stack_interface_start.c ****     /* Get the class for the interface.  */
  87:Middlewares/ST/usbx/common/core/src/ux_device_stack_interface_start.c ****     class_ptr =  _ux_system_slave -> ux_system_slave_interface_class_array[interface_ptr -> ux_slav
  47              		.loc 1 87 5 view .LVU6
  48              		.loc 1 87 35 is_stmt 0 view .LVU7
  49 0004 144B     		ldr	r3, .L8
  50 0006 1A68     		ldr	r2, [r3]
  51              		.loc 1 87 122 view .LVU8
  52 0008 4369     		ldr	r3, [r0, #20]
  53              		.loc 1 87 15 view .LVU9
  54 000a 5233     		adds	r3, r3, #82
  55 000c 52F82350 		ldr	r5, [r2, r3, lsl #2]
  56              	.LVL1:
  88:Middlewares/ST/usbx/common/core/src/ux_device_stack_interface_start.c **** 
  89:Middlewares/ST/usbx/common/core/src/ux_device_stack_interface_start.c ****     /* Check if class driver is available. */
  90:Middlewares/ST/usbx/common/core/src/ux_device_stack_interface_start.c ****     if (class_ptr == UX_NULL)
  57              		.loc 1 90 5 is_stmt 1 view .LVU10
  58              		.loc 1 90 8 is_stmt 0 view .LVU11
  59 0010 FDB1     		cbz	r5, .L4
  60 0012 0446     		mov	r4, r0
  91:Middlewares/ST/usbx/common/core/src/ux_device_stack_interface_start.c **** 
  92:Middlewares/ST/usbx/common/core/src/ux_device_stack_interface_start.c ****         /* There is no class driver supported. */
  93:Middlewares/ST/usbx/common/core/src/ux_device_stack_interface_start.c ****         return (UX_NO_CLASS_MATCH);
  94:Middlewares/ST/usbx/common/core/src/ux_device_stack_interface_start.c **** 
  95:Middlewares/ST/usbx/common/core/src/ux_device_stack_interface_start.c ****     /* Get the pointer to the device.  */
  96:Middlewares/ST/usbx/common/core/src/ux_device_stack_interface_start.c ****     device =  &_ux_system_slave -> ux_system_slave_device;
  61              		.loc 1 96 5 is_stmt 1 view .LVU12
  62              	.LVL2:
  97:Middlewares/ST/usbx/common/core/src/ux_device_stack_interface_start.c **** 
  98:Middlewares/ST/usbx/common/core/src/ux_device_stack_interface_start.c ****     /* Build all the fields of the Class Command.  */
  99:Middlewares/ST/usbx/common/core/src/ux_device_stack_interface_start.c ****     class_command.ux_slave_class_command_request   =    UX_SLAVE_CLASS_COMMAND_QUERY;
  63              		.loc 1 99 5 view .LVU13
  64              		.loc 1 99 52 is_stmt 0 view .LVU14
  65 0014 0123     		movs	r3, #1
  66 0016 0193     		str	r3, [sp, #4]
 100:Middlewares/ST/usbx/common/core/src/ux_device_stack_interface_start.c ****     class_command.ux_slave_class_command_interface =   (VOID *)interface_ptr;
  67              		.loc 1 100 5 is_stmt 1 view .LVU15
  68              		.loc 1 100 52 is_stmt 0 view .LVU16
  69 0018 0390     		str	r0, [sp, #12]
 101:Middlewares/ST/usbx/common/core/src/ux_device_stack_interface_start.c ****     class_command.ux_slave_class_command_class     =   interface_ptr -> ux_slave_interface_descript
  70              		.loc 1 101 5 is_stmt 1 view .LVU17
  71              		.loc 1 101 102 is_stmt 0 view .LVU18
ARM GAS  C:\Users\sapph\AppData\Local\Temp\ccI7uC3d.s 			page 4


  72 001a 036A     		ldr	r3, [r0, #32]
  73              		.loc 1 101 52 view .LVU19
  74 001c 0693     		str	r3, [sp, #24]
 102:Middlewares/ST/usbx/common/core/src/ux_device_stack_interface_start.c ****     class_command.ux_slave_class_command_subclass  =   interface_ptr -> ux_slave_interface_descript
  75              		.loc 1 102 5 is_stmt 1 view .LVU20
  76              		.loc 1 102 102 is_stmt 0 view .LVU21
  77 001e 436A     		ldr	r3, [r0, #36]
  78              		.loc 1 102 52 view .LVU22
  79 0020 0793     		str	r3, [sp, #28]
 103:Middlewares/ST/usbx/common/core/src/ux_device_stack_interface_start.c ****     class_command.ux_slave_class_command_protocol  =   interface_ptr -> ux_slave_interface_descript
  80              		.loc 1 103 5 is_stmt 1 view .LVU23
  81              		.loc 1 103 102 is_stmt 0 view .LVU24
  82 0022 836A     		ldr	r3, [r0, #40]
  83              		.loc 1 103 52 view .LVU25
  84 0024 0893     		str	r3, [sp, #32]
 104:Middlewares/ST/usbx/common/core/src/ux_device_stack_interface_start.c ****     class_command.ux_slave_class_command_vid       =   device -> ux_slave_device_descriptor.idVendo
  85              		.loc 1 104 5 is_stmt 1 view .LVU26
  86              		.loc 1 104 92 is_stmt 0 view .LVU27
  87 0026 536C     		ldr	r3, [r2, #68]
  88              		.loc 1 104 52 view .LVU28
  89 0028 0593     		str	r3, [sp, #20]
 105:Middlewares/ST/usbx/common/core/src/ux_device_stack_interface_start.c ****     class_command.ux_slave_class_command_pid       =   device -> ux_slave_device_descriptor.idProdu
  90              		.loc 1 105 5 is_stmt 1 view .LVU29
  91              		.loc 1 105 92 is_stmt 0 view .LVU30
  92 002a 936C     		ldr	r3, [r2, #72]
  93              		.loc 1 105 52 view .LVU31
  94 002c 0493     		str	r3, [sp, #16]
 106:Middlewares/ST/usbx/common/core/src/ux_device_stack_interface_start.c **** 
 107:Middlewares/ST/usbx/common/core/src/ux_device_stack_interface_start.c ****     /* We can now memorize the interface pointer associated with this class.  */
 108:Middlewares/ST/usbx/common/core/src/ux_device_stack_interface_start.c ****     class_ptr -> ux_slave_class_interface = interface_ptr;
  95              		.loc 1 108 5 is_stmt 1 view .LVU32
  96              		.loc 1 108 43 is_stmt 0 view .LVU33
  97 002e 2866     		str	r0, [r5, #96]
 109:Middlewares/ST/usbx/common/core/src/ux_device_stack_interface_start.c ****     
 110:Middlewares/ST/usbx/common/core/src/ux_device_stack_interface_start.c ****     /* We have found a potential candidate. Call this registered class entry function.  */
 111:Middlewares/ST/usbx/common/core/src/ux_device_stack_interface_start.c ****     status = class_ptr -> ux_slave_class_entry_function(&class_command);
  98              		.loc 1 111 5 is_stmt 1 view .LVU34
  99              		.loc 1 111 24 is_stmt 0 view .LVU35
 100 0030 6B6C     		ldr	r3, [r5, #68]
 101              		.loc 1 111 14 view .LVU36
 102 0032 01A8     		add	r0, sp, #4
 103              	.LVL3:
 104              		.loc 1 111 14 view .LVU37
 105 0034 9847     		blx	r3
 106              	.LVL4:
 112:Middlewares/ST/usbx/common/core/src/ux_device_stack_interface_start.c **** 
 113:Middlewares/ST/usbx/common/core/src/ux_device_stack_interface_start.c ****     /* The status tells us if the registered class wants to own this class.  */
 114:Middlewares/ST/usbx/common/core/src/ux_device_stack_interface_start.c ****     if (status == UX_SUCCESS)
 107              		.loc 1 114 5 is_stmt 1 view .LVU38
 108              		.loc 1 114 8 is_stmt 0 view .LVU39
 109 0036 10B1     		cbz	r0, .L7
 115:Middlewares/ST/usbx/common/core/src/ux_device_stack_interface_start.c ****     {
 116:Middlewares/ST/usbx/common/core/src/ux_device_stack_interface_start.c **** 
 117:Middlewares/ST/usbx/common/core/src/ux_device_stack_interface_start.c ****         /* Store the class container. */
 118:Middlewares/ST/usbx/common/core/src/ux_device_stack_interface_start.c ****         class_command.ux_slave_class_command_class_ptr =  class_ptr;
 119:Middlewares/ST/usbx/common/core/src/ux_device_stack_interface_start.c ****         
 120:Middlewares/ST/usbx/common/core/src/ux_device_stack_interface_start.c ****         /* Store the command.  */
ARM GAS  C:\Users\sapph\AppData\Local\Temp\ccI7uC3d.s 			page 5


 121:Middlewares/ST/usbx/common/core/src/ux_device_stack_interface_start.c ****         class_command.ux_slave_class_command_request =  UX_SLAVE_CLASS_COMMAND_ACTIVATE;
 122:Middlewares/ST/usbx/common/core/src/ux_device_stack_interface_start.c ****         
 123:Middlewares/ST/usbx/common/core/src/ux_device_stack_interface_start.c ****         /* Activate the class.  */
 124:Middlewares/ST/usbx/common/core/src/ux_device_stack_interface_start.c ****         status = class_ptr -> ux_slave_class_entry_function(&class_command);
 125:Middlewares/ST/usbx/common/core/src/ux_device_stack_interface_start.c **** 
 126:Middlewares/ST/usbx/common/core/src/ux_device_stack_interface_start.c ****         /* If the class was successfully activated, set the class for the interface.  */
 127:Middlewares/ST/usbx/common/core/src/ux_device_stack_interface_start.c ****         if(status == UX_SUCCESS)
 128:Middlewares/ST/usbx/common/core/src/ux_device_stack_interface_start.c ****             interface_ptr -> ux_slave_interface_class =  class_ptr;
 129:Middlewares/ST/usbx/common/core/src/ux_device_stack_interface_start.c **** 
 130:Middlewares/ST/usbx/common/core/src/ux_device_stack_interface_start.c ****         return(status); 
 131:Middlewares/ST/usbx/common/core/src/ux_device_stack_interface_start.c ****     }
 132:Middlewares/ST/usbx/common/core/src/ux_device_stack_interface_start.c **** 
 133:Middlewares/ST/usbx/common/core/src/ux_device_stack_interface_start.c ****     /* There is no driver who want to own this class!  */
 134:Middlewares/ST/usbx/common/core/src/ux_device_stack_interface_start.c ****     return(UX_NO_CLASS_MATCH);
 110              		.loc 1 134 11 view .LVU40
 111 0038 5720     		movs	r0, #87
 112              	.LVL5:
 113              	.L1:
 135:Middlewares/ST/usbx/common/core/src/ux_device_stack_interface_start.c **** }
 114              		.loc 1 135 1 view .LVU41
 115 003a 0DB0     		add	sp, sp, #52
 116              		.cfi_remember_state
 117              		.cfi_def_cfa_offset 12
 118              		@ sp needed
 119 003c 30BD     		pop	{r4, r5, pc}
 120              	.LVL6:
 121              	.L7:
 122              		.cfi_restore_state
 118:Middlewares/ST/usbx/common/core/src/ux_device_stack_interface_start.c ****         
 123              		.loc 1 118 9 is_stmt 1 view .LVU42
 118:Middlewares/ST/usbx/common/core/src/ux_device_stack_interface_start.c ****         
 124              		.loc 1 118 56 is_stmt 0 view .LVU43
 125 003e 0995     		str	r5, [sp, #36]
 121:Middlewares/ST/usbx/common/core/src/ux_device_stack_interface_start.c ****         
 126              		.loc 1 121 9 is_stmt 1 view .LVU44
 121:Middlewares/ST/usbx/common/core/src/ux_device_stack_interface_start.c ****         
 127              		.loc 1 121 54 is_stmt 0 view .LVU45
 128 0040 0223     		movs	r3, #2
 129 0042 0193     		str	r3, [sp, #4]
 124:Middlewares/ST/usbx/common/core/src/ux_device_stack_interface_start.c **** 
 130              		.loc 1 124 9 is_stmt 1 view .LVU46
 124:Middlewares/ST/usbx/common/core/src/ux_device_stack_interface_start.c **** 
 131              		.loc 1 124 28 is_stmt 0 view .LVU47
 132 0044 6B6C     		ldr	r3, [r5, #68]
 124:Middlewares/ST/usbx/common/core/src/ux_device_stack_interface_start.c **** 
 133              		.loc 1 124 18 view .LVU48
 134 0046 01A8     		add	r0, sp, #4
 135              	.LVL7:
 124:Middlewares/ST/usbx/common/core/src/ux_device_stack_interface_start.c **** 
 136              		.loc 1 124 18 view .LVU49
 137 0048 9847     		blx	r3
 138              	.LVL8:
 127:Middlewares/ST/usbx/common/core/src/ux_device_stack_interface_start.c ****             interface_ptr -> ux_slave_interface_class =  class_ptr;
 139              		.loc 1 127 9 is_stmt 1 view .LVU50
 127:Middlewares/ST/usbx/common/core/src/ux_device_stack_interface_start.c ****             interface_ptr -> ux_slave_interface_class =  class_ptr;
 140              		.loc 1 127 11 is_stmt 0 view .LVU51
 141 004a 0028     		cmp	r0, #0
ARM GAS  C:\Users\sapph\AppData\Local\Temp\ccI7uC3d.s 			page 6


 142 004c F5D1     		bne	.L1
 128:Middlewares/ST/usbx/common/core/src/ux_device_stack_interface_start.c **** 
 143              		.loc 1 128 13 is_stmt 1 view .LVU52
 128:Middlewares/ST/usbx/common/core/src/ux_device_stack_interface_start.c **** 
 144              		.loc 1 128 55 is_stmt 0 view .LVU53
 145 004e 6560     		str	r5, [r4, #4]
 130:Middlewares/ST/usbx/common/core/src/ux_device_stack_interface_start.c ****     }
 146              		.loc 1 130 9 is_stmt 1 view .LVU54
 130:Middlewares/ST/usbx/common/core/src/ux_device_stack_interface_start.c ****     }
 147              		.loc 1 130 15 is_stmt 0 view .LVU55
 148 0050 F3E7     		b	.L1
 149              	.LVL9:
 150              	.L4:
  93:Middlewares/ST/usbx/common/core/src/ux_device_stack_interface_start.c **** 
 151              		.loc 1 93 16 view .LVU56
 152 0052 5720     		movs	r0, #87
 153              	.LVL10:
  93:Middlewares/ST/usbx/common/core/src/ux_device_stack_interface_start.c **** 
 154              		.loc 1 93 16 view .LVU57
 155 0054 F1E7     		b	.L1
 156              	.L9:
 157 0056 00BF     		.align	2
 158              	.L8:
 159 0058 00000000 		.word	_ux_system_slave
 160              		.cfi_endproc
 161              	.LFE3:
 163              		.text
 164              	.Letext0:
 165              		.file 2 "Middlewares/ST/usbx/ports/generic/inc/ux_port.h"
 166              		.file 3 "Middlewares/ST/usbx/common/core/inc/ux_api.h"
 167              		.file 4 "Middlewares/ST/usbx/common/core/inc/ux_system.h"
ARM GAS  C:\Users\sapph\AppData\Local\Temp\ccI7uC3d.s 			page 7

