ARM GAS  C:\Users\sapph\AppData\Local\Temp\ccw3t0OM.s 			page 1


   1              		.cpu cortex-m33
   2              		.arch armv8-m.main
   3              		.fpu fpv4-sp-d16
   4              		.arch_extension dsp
   5              		.eabi_attribute 27, 1
   6              		.eabi_attribute 28, 1
   7              		.eabi_attribute 20, 1
   8              		.eabi_attribute 21, 1
   9              		.eabi_attribute 23, 3
  10              		.eabi_attribute 24, 1
  11              		.eabi_attribute 25, 1
  12              		.eabi_attribute 26, 1
  13              		.eabi_attribute 30, 1
  14              		.eabi_attribute 34, 1
  15              		.eabi_attribute 18, 4
  16              		.file	"ux_device_stack_descriptor_send.c"
  17              		.text
  18              	.Ltext0:
  19              		.cfi_sections	.debug_frame
  20              		.file 1 "Middlewares/ST/usbx/common/core/src/ux_device_stack_descriptor_send.c"
  21              		.section	.text._ux_device_stack_descriptor_send,"ax",%progbits
  22              		.align	1
  23              		.global	_ux_device_stack_descriptor_send
  24              		.syntax unified
  25              		.thumb
  26              		.thumb_func
  28              	_ux_device_stack_descriptor_send:
  29              	.LVL0:
  30              	.LFB3:
   1:Middlewares/ST/usbx/common/core/src/ux_device_stack_descriptor_send.c **** /**************************************************************************/
   2:Middlewares/ST/usbx/common/core/src/ux_device_stack_descriptor_send.c **** /*                                                                        */
   3:Middlewares/ST/usbx/common/core/src/ux_device_stack_descriptor_send.c **** /*       Copyright (c) Microsoft Corporation. All rights reserved.        */
   4:Middlewares/ST/usbx/common/core/src/ux_device_stack_descriptor_send.c **** /*                                                                        */
   5:Middlewares/ST/usbx/common/core/src/ux_device_stack_descriptor_send.c **** /*       This software is licensed under the Microsoft Software License   */
   6:Middlewares/ST/usbx/common/core/src/ux_device_stack_descriptor_send.c **** /*       Terms for Microsoft Azure RTOS. Full text of the license can be  */
   7:Middlewares/ST/usbx/common/core/src/ux_device_stack_descriptor_send.c **** /*       found in the LICENSE file at https://aka.ms/AzureRTOS_EULA       */
   8:Middlewares/ST/usbx/common/core/src/ux_device_stack_descriptor_send.c **** /*       and in the root directory of this software.                      */
   9:Middlewares/ST/usbx/common/core/src/ux_device_stack_descriptor_send.c **** /*                                                                        */
  10:Middlewares/ST/usbx/common/core/src/ux_device_stack_descriptor_send.c **** /**************************************************************************/
  11:Middlewares/ST/usbx/common/core/src/ux_device_stack_descriptor_send.c **** 
  12:Middlewares/ST/usbx/common/core/src/ux_device_stack_descriptor_send.c **** 
  13:Middlewares/ST/usbx/common/core/src/ux_device_stack_descriptor_send.c **** /**************************************************************************/
  14:Middlewares/ST/usbx/common/core/src/ux_device_stack_descriptor_send.c **** /**************************************************************************/
  15:Middlewares/ST/usbx/common/core/src/ux_device_stack_descriptor_send.c **** /**                                                                       */
  16:Middlewares/ST/usbx/common/core/src/ux_device_stack_descriptor_send.c **** /** USBX Component                                                        */
  17:Middlewares/ST/usbx/common/core/src/ux_device_stack_descriptor_send.c **** /**                                                                       */
  18:Middlewares/ST/usbx/common/core/src/ux_device_stack_descriptor_send.c **** /**   Device Stack                                                        */
  19:Middlewares/ST/usbx/common/core/src/ux_device_stack_descriptor_send.c **** /**                                                                       */
  20:Middlewares/ST/usbx/common/core/src/ux_device_stack_descriptor_send.c **** /**************************************************************************/
  21:Middlewares/ST/usbx/common/core/src/ux_device_stack_descriptor_send.c **** /**************************************************************************/
  22:Middlewares/ST/usbx/common/core/src/ux_device_stack_descriptor_send.c **** 
  23:Middlewares/ST/usbx/common/core/src/ux_device_stack_descriptor_send.c **** #define UX_SOURCE_CODE
  24:Middlewares/ST/usbx/common/core/src/ux_device_stack_descriptor_send.c **** 
  25:Middlewares/ST/usbx/common/core/src/ux_device_stack_descriptor_send.c **** 
  26:Middlewares/ST/usbx/common/core/src/ux_device_stack_descriptor_send.c **** /* Include necessary system files.  */
  27:Middlewares/ST/usbx/common/core/src/ux_device_stack_descriptor_send.c **** 
  28:Middlewares/ST/usbx/common/core/src/ux_device_stack_descriptor_send.c **** #include "ux_api.h"
ARM GAS  C:\Users\sapph\AppData\Local\Temp\ccw3t0OM.s 			page 2


  29:Middlewares/ST/usbx/common/core/src/ux_device_stack_descriptor_send.c **** #include "ux_device_stack.h"
  30:Middlewares/ST/usbx/common/core/src/ux_device_stack_descriptor_send.c **** 
  31:Middlewares/ST/usbx/common/core/src/ux_device_stack_descriptor_send.c **** 
  32:Middlewares/ST/usbx/common/core/src/ux_device_stack_descriptor_send.c **** #if (UX_SLAVE_REQUEST_CONTROL_MAX_LENGTH < UX_DEVICE_DESCRIPTOR_LENGTH) || \
  33:Middlewares/ST/usbx/common/core/src/ux_device_stack_descriptor_send.c ****     (UX_SLAVE_REQUEST_CONTROL_MAX_LENGTH < UX_DEVICE_QUALIFIER_DESCRIPTOR_LENGTH) || \
  34:Middlewares/ST/usbx/common/core/src/ux_device_stack_descriptor_send.c ****     (UX_SLAVE_REQUEST_CONTROL_MAX_LENGTH < UX_OTG_DESCRIPTOR_LENGTH)
  35:Middlewares/ST/usbx/common/core/src/ux_device_stack_descriptor_send.c **** #error UX_SLAVE_REQUEST_CONTROL_MAX_LENGTH too small, please check
  36:Middlewares/ST/usbx/common/core/src/ux_device_stack_descriptor_send.c **** #endif
  37:Middlewares/ST/usbx/common/core/src/ux_device_stack_descriptor_send.c **** 
  38:Middlewares/ST/usbx/common/core/src/ux_device_stack_descriptor_send.c **** /**************************************************************************/
  39:Middlewares/ST/usbx/common/core/src/ux_device_stack_descriptor_send.c **** /*                                                                        */
  40:Middlewares/ST/usbx/common/core/src/ux_device_stack_descriptor_send.c **** /*  FUNCTION                                               RELEASE        */
  41:Middlewares/ST/usbx/common/core/src/ux_device_stack_descriptor_send.c **** /*                                                                        */
  42:Middlewares/ST/usbx/common/core/src/ux_device_stack_descriptor_send.c **** /*    _ux_device_stack_descriptor_send                    PORTABLE C      */
  43:Middlewares/ST/usbx/common/core/src/ux_device_stack_descriptor_send.c **** /*                                                           6.1.11       */
  44:Middlewares/ST/usbx/common/core/src/ux_device_stack_descriptor_send.c **** /*  AUTHOR                                                                */
  45:Middlewares/ST/usbx/common/core/src/ux_device_stack_descriptor_send.c **** /*                                                                        */
  46:Middlewares/ST/usbx/common/core/src/ux_device_stack_descriptor_send.c **** /*    Chaoqiong Xiao, Microsoft Corporation                               */
  47:Middlewares/ST/usbx/common/core/src/ux_device_stack_descriptor_send.c **** /*                                                                        */
  48:Middlewares/ST/usbx/common/core/src/ux_device_stack_descriptor_send.c **** /*  DESCRIPTION                                                           */
  49:Middlewares/ST/usbx/common/core/src/ux_device_stack_descriptor_send.c **** /*                                                                        */
  50:Middlewares/ST/usbx/common/core/src/ux_device_stack_descriptor_send.c **** /*    This function sends back the device descriptor required by the host.*/
  51:Middlewares/ST/usbx/common/core/src/ux_device_stack_descriptor_send.c **** /*                                                                        */
  52:Middlewares/ST/usbx/common/core/src/ux_device_stack_descriptor_send.c **** /*  INPUT                                                                 */
  53:Middlewares/ST/usbx/common/core/src/ux_device_stack_descriptor_send.c **** /*                                                                        */
  54:Middlewares/ST/usbx/common/core/src/ux_device_stack_descriptor_send.c **** /*    descriptor_type                       Descriptor type               */
  55:Middlewares/ST/usbx/common/core/src/ux_device_stack_descriptor_send.c **** /*    descriptor_index                      Index of descriptor           */
  56:Middlewares/ST/usbx/common/core/src/ux_device_stack_descriptor_send.c **** /*    host_length                           Length requested by host      */
  57:Middlewares/ST/usbx/common/core/src/ux_device_stack_descriptor_send.c **** /*                                                                        */
  58:Middlewares/ST/usbx/common/core/src/ux_device_stack_descriptor_send.c **** /*  OUTPUT                                                                */
  59:Middlewares/ST/usbx/common/core/src/ux_device_stack_descriptor_send.c **** /*                                                                        */
  60:Middlewares/ST/usbx/common/core/src/ux_device_stack_descriptor_send.c **** /*    Completion Status                                                   */
  61:Middlewares/ST/usbx/common/core/src/ux_device_stack_descriptor_send.c **** /*                                                                        */
  62:Middlewares/ST/usbx/common/core/src/ux_device_stack_descriptor_send.c **** /*  CALLS                                                                 */
  63:Middlewares/ST/usbx/common/core/src/ux_device_stack_descriptor_send.c **** /*                                                                        */
  64:Middlewares/ST/usbx/common/core/src/ux_device_stack_descriptor_send.c **** /*    (ux_slave_dcd_function)               DCD dispatch function         */
  65:Middlewares/ST/usbx/common/core/src/ux_device_stack_descriptor_send.c **** /*    _ux_device_stack_transfer_request     Process transfer request      */
  66:Middlewares/ST/usbx/common/core/src/ux_device_stack_descriptor_send.c **** /*    _ux_utility_descriptor_parse          Parse descriptor              */
  67:Middlewares/ST/usbx/common/core/src/ux_device_stack_descriptor_send.c **** /*    _ux_utility_memory_copy               Memory copy                   */
  68:Middlewares/ST/usbx/common/core/src/ux_device_stack_descriptor_send.c **** /*    _ux_utility_short_get                 Get short value               */
  69:Middlewares/ST/usbx/common/core/src/ux_device_stack_descriptor_send.c **** /*                                                                        */
  70:Middlewares/ST/usbx/common/core/src/ux_device_stack_descriptor_send.c **** /*  CALLED BY                                                             */
  71:Middlewares/ST/usbx/common/core/src/ux_device_stack_descriptor_send.c **** /*                                                                        */
  72:Middlewares/ST/usbx/common/core/src/ux_device_stack_descriptor_send.c **** /*    Application                                                         */
  73:Middlewares/ST/usbx/common/core/src/ux_device_stack_descriptor_send.c **** /*    Device Stack                                                        */
  74:Middlewares/ST/usbx/common/core/src/ux_device_stack_descriptor_send.c **** /*                                                                        */
  75:Middlewares/ST/usbx/common/core/src/ux_device_stack_descriptor_send.c **** /*  RELEASE HISTORY                                                       */
  76:Middlewares/ST/usbx/common/core/src/ux_device_stack_descriptor_send.c **** /*                                                                        */
  77:Middlewares/ST/usbx/common/core/src/ux_device_stack_descriptor_send.c **** /*    DATE              NAME                      DESCRIPTION             */
  78:Middlewares/ST/usbx/common/core/src/ux_device_stack_descriptor_send.c **** /*                                                                        */
  79:Middlewares/ST/usbx/common/core/src/ux_device_stack_descriptor_send.c **** /*  05-19-2020     Chaoqiong Xiao           Initial Version 6.0           */
  80:Middlewares/ST/usbx/common/core/src/ux_device_stack_descriptor_send.c **** /*  09-30-2020     Chaoqiong Xiao           Modified comment(s),          */
  81:Middlewares/ST/usbx/common/core/src/ux_device_stack_descriptor_send.c **** /*                                            optimized descriptor search */
  82:Middlewares/ST/usbx/common/core/src/ux_device_stack_descriptor_send.c **** /*                                            logic, verified memset and  */
  83:Middlewares/ST/usbx/common/core/src/ux_device_stack_descriptor_send.c **** /*                                            memcpy cases,               */
  84:Middlewares/ST/usbx/common/core/src/ux_device_stack_descriptor_send.c **** /*                                            resulting in version 6.1    */
  85:Middlewares/ST/usbx/common/core/src/ux_device_stack_descriptor_send.c **** /*  12-31-2020     Chaoqiong Xiao           Modified comment(s),          */
ARM GAS  C:\Users\sapph\AppData\Local\Temp\ccw3t0OM.s 			page 3


  86:Middlewares/ST/usbx/common/core/src/ux_device_stack_descriptor_send.c **** /*                                            added BOS support,          */
  87:Middlewares/ST/usbx/common/core/src/ux_device_stack_descriptor_send.c **** /*                                            resulting in version 6.1.3  */
  88:Middlewares/ST/usbx/common/core/src/ux_device_stack_descriptor_send.c **** /*  04-25-2022     Chaoqiong Xiao           Modified comment(s),          */
  89:Middlewares/ST/usbx/common/core/src/ux_device_stack_descriptor_send.c **** /*                                            internal clean up,          */
  90:Middlewares/ST/usbx/common/core/src/ux_device_stack_descriptor_send.c **** /*                                            resulting in version 6.1.11 */
  91:Middlewares/ST/usbx/common/core/src/ux_device_stack_descriptor_send.c **** /*                                                                        */
  92:Middlewares/ST/usbx/common/core/src/ux_device_stack_descriptor_send.c **** /**************************************************************************/
  93:Middlewares/ST/usbx/common/core/src/ux_device_stack_descriptor_send.c **** UINT  _ux_device_stack_descriptor_send(ULONG descriptor_type, ULONG request_index, ULONG host_lengt
  94:Middlewares/ST/usbx/common/core/src/ux_device_stack_descriptor_send.c **** {
  31              		.loc 1 94 1 view -0
  32              		.cfi_startproc
  33              		@ args = 0, pretend = 0, frame = 48
  34              		@ frame_needed = 0, uses_anonymous_args = 0
  35              		.loc 1 94 1 is_stmt 0 view .LVU1
  36 0000 2DE9F04F 		push	{r4, r5, r6, r7, r8, r9, r10, fp, lr}
  37              		.cfi_def_cfa_offset 36
  38              		.cfi_offset 4, -36
  39              		.cfi_offset 5, -32
  40              		.cfi_offset 6, -28
  41              		.cfi_offset 7, -24
  42              		.cfi_offset 8, -20
  43              		.cfi_offset 9, -16
  44              		.cfi_offset 10, -12
  45              		.cfi_offset 11, -8
  46              		.cfi_offset 14, -4
  47 0004 8DB0     		sub	sp, sp, #52
  48              		.cfi_def_cfa_offset 88
  49 0006 1746     		mov	r7, r2
  95:Middlewares/ST/usbx/common/core/src/ux_device_stack_descriptor_send.c **** 
  96:Middlewares/ST/usbx/common/core/src/ux_device_stack_descriptor_send.c **** UX_SLAVE_DCD                    *dcd;
  50              		.loc 1 96 1 is_stmt 1 view .LVU2
  97:Middlewares/ST/usbx/common/core/src/ux_device_stack_descriptor_send.c **** UX_SLAVE_DEVICE                 *device;
  51              		.loc 1 97 1 view .LVU3
  98:Middlewares/ST/usbx/common/core/src/ux_device_stack_descriptor_send.c **** ULONG                           descriptor_index;
  52              		.loc 1 98 1 view .LVU4
  99:Middlewares/ST/usbx/common/core/src/ux_device_stack_descriptor_send.c **** ULONG                           parsed_descriptor_index;
  53              		.loc 1 99 1 view .LVU5
 100:Middlewares/ST/usbx/common/core/src/ux_device_stack_descriptor_send.c **** UX_SLAVE_TRANSFER               *transfer_request;
  54              		.loc 1 100 1 view .LVU6
 101:Middlewares/ST/usbx/common/core/src/ux_device_stack_descriptor_send.c **** UX_CONFIGURATION_DESCRIPTOR     configuration_descriptor;
  55              		.loc 1 101 1 view .LVU7
 102:Middlewares/ST/usbx/common/core/src/ux_device_stack_descriptor_send.c **** #ifndef UX_BOS_SUPPORT_DISABLE
 103:Middlewares/ST/usbx/common/core/src/ux_device_stack_descriptor_send.c **** UX_BOS_DESCRIPTOR               bos_descriptor;
  56              		.loc 1 103 1 view .LVU8
 104:Middlewares/ST/usbx/common/core/src/ux_device_stack_descriptor_send.c **** #endif
 105:Middlewares/ST/usbx/common/core/src/ux_device_stack_descriptor_send.c **** UX_SLAVE_ENDPOINT               *endpoint;
  57              		.loc 1 105 1 view .LVU9
 106:Middlewares/ST/usbx/common/core/src/ux_device_stack_descriptor_send.c **** UCHAR                           *device_framework;
  58              		.loc 1 106 1 view .LVU10
 107:Middlewares/ST/usbx/common/core/src/ux_device_stack_descriptor_send.c **** UCHAR                           *device_framework_end;
  59              		.loc 1 107 1 view .LVU11
 108:Middlewares/ST/usbx/common/core/src/ux_device_stack_descriptor_send.c **** ULONG                           device_framework_length;
  60              		.loc 1 108 1 view .LVU12
 109:Middlewares/ST/usbx/common/core/src/ux_device_stack_descriptor_send.c **** ULONG                           descriptor_length;
  61              		.loc 1 109 1 view .LVU13
 110:Middlewares/ST/usbx/common/core/src/ux_device_stack_descriptor_send.c **** ULONG                           target_descriptor_length = 0;
  62              		.loc 1 110 1 view .LVU14
ARM GAS  C:\Users\sapph\AppData\Local\Temp\ccw3t0OM.s 			page 4


  63              	.LVL1:
 111:Middlewares/ST/usbx/common/core/src/ux_device_stack_descriptor_send.c **** UINT                            status =  UX_ERROR;
  64              		.loc 1 111 1 view .LVU15
 112:Middlewares/ST/usbx/common/core/src/ux_device_stack_descriptor_send.c **** ULONG                           length;
  65              		.loc 1 112 1 view .LVU16
 113:Middlewares/ST/usbx/common/core/src/ux_device_stack_descriptor_send.c **** UCHAR                           *string_memory;
  66              		.loc 1 113 1 view .LVU17
 114:Middlewares/ST/usbx/common/core/src/ux_device_stack_descriptor_send.c **** UCHAR                           *string_framework;
  67              		.loc 1 114 1 view .LVU18
 115:Middlewares/ST/usbx/common/core/src/ux_device_stack_descriptor_send.c **** ULONG                           string_framework_length;
  68              		.loc 1 115 1 view .LVU19
 116:Middlewares/ST/usbx/common/core/src/ux_device_stack_descriptor_send.c **** ULONG                           string_length;
  69              		.loc 1 116 1 view .LVU20
 117:Middlewares/ST/usbx/common/core/src/ux_device_stack_descriptor_send.c **** 
 118:Middlewares/ST/usbx/common/core/src/ux_device_stack_descriptor_send.c ****     /* If trace is enabled, insert this event into the trace buffer.  */
 119:Middlewares/ST/usbx/common/core/src/ux_device_stack_descriptor_send.c ****     UX_TRACE_IN_LINE_INSERT(UX_TRACE_DEVICE_STACK_DESCRIPTOR_SEND, descriptor_type, request_index, 
 120:Middlewares/ST/usbx/common/core/src/ux_device_stack_descriptor_send.c **** 
 121:Middlewares/ST/usbx/common/core/src/ux_device_stack_descriptor_send.c ****     /* Get the pointer to the DCD.  */
 122:Middlewares/ST/usbx/common/core/src/ux_device_stack_descriptor_send.c ****     dcd =  &_ux_system_slave -> ux_system_slave_dcd;
  70              		.loc 1 122 5 view .LVU21
  71              		.loc 1 122 30 is_stmt 0 view .LVU22
  72 0008 964B     		ldr	r3, .L54
  73 000a 1E68     		ldr	r6, [r3]
  74              	.LVL2:
 123:Middlewares/ST/usbx/common/core/src/ux_device_stack_descriptor_send.c **** 
 124:Middlewares/ST/usbx/common/core/src/ux_device_stack_descriptor_send.c ****     /* Get the pointer to the device.  */
 125:Middlewares/ST/usbx/common/core/src/ux_device_stack_descriptor_send.c ****     device =  &_ux_system_slave -> ux_system_slave_device;
  75              		.loc 1 125 5 is_stmt 1 view .LVU23
 126:Middlewares/ST/usbx/common/core/src/ux_device_stack_descriptor_send.c **** 
 127:Middlewares/ST/usbx/common/core/src/ux_device_stack_descriptor_send.c ****     /* Get the control endpoint associated with the device.  */
 128:Middlewares/ST/usbx/common/core/src/ux_device_stack_descriptor_send.c ****     endpoint =  &device -> ux_slave_device_control_endpoint;
  76              		.loc 1 128 5 view .LVU24
  77              		.loc 1 128 14 is_stmt 0 view .LVU25
  78 000c 06F1600A 		add	r10, r6, #96
  79              	.LVL3:
 129:Middlewares/ST/usbx/common/core/src/ux_device_stack_descriptor_send.c **** 
 130:Middlewares/ST/usbx/common/core/src/ux_device_stack_descriptor_send.c ****     /* Get the pointer to the transfer request associated with the endpoint.  */
 131:Middlewares/ST/usbx/common/core/src/ux_device_stack_descriptor_send.c ****     transfer_request =  &endpoint -> ux_slave_endpoint_transfer_request;
  80              		.loc 1 131 5 is_stmt 1 view .LVU26
  81              		.loc 1 131 22 is_stmt 0 view .LVU27
  82 0010 06F19008 		add	r8, r6, #144
  83              	.LVL4:
 132:Middlewares/ST/usbx/common/core/src/ux_device_stack_descriptor_send.c **** 
 133:Middlewares/ST/usbx/common/core/src/ux_device_stack_descriptor_send.c ****     /* Set the direction to OUT.  */
 134:Middlewares/ST/usbx/common/core/src/ux_device_stack_descriptor_send.c ****     transfer_request -> ux_slave_transfer_request_phase =  UX_TRANSFER_PHASE_DATA_OUT;
  84              		.loc 1 134 5 is_stmt 1 view .LVU28
  85              		.loc 1 134 57 is_stmt 0 view .LVU29
  86 0014 0323     		movs	r3, #3
  87 0016 C6F8B830 		str	r3, [r6, #184]
 135:Middlewares/ST/usbx/common/core/src/ux_device_stack_descriptor_send.c **** 
 136:Middlewares/ST/usbx/common/core/src/ux_device_stack_descriptor_send.c ****     /* Isolate the descriptor index.  */
 137:Middlewares/ST/usbx/common/core/src/ux_device_stack_descriptor_send.c ****     descriptor_index =  descriptor_type & 0xff;
  88              		.loc 1 137 5 is_stmt 1 view .LVU30
  89              		.loc 1 137 22 is_stmt 0 view .LVU31
  90 001a 5FFA80F9 		uxtb	r9, r0
  91              	.LVL5:
 138:Middlewares/ST/usbx/common/core/src/ux_device_stack_descriptor_send.c **** 
ARM GAS  C:\Users\sapph\AppData\Local\Temp\ccw3t0OM.s 			page 5


 139:Middlewares/ST/usbx/common/core/src/ux_device_stack_descriptor_send.c ****     /* Reset the parsed index.  */
 140:Middlewares/ST/usbx/common/core/src/ux_device_stack_descriptor_send.c ****     parsed_descriptor_index =  0;
  92              		.loc 1 140 5 is_stmt 1 view .LVU32
 141:Middlewares/ST/usbx/common/core/src/ux_device_stack_descriptor_send.c **** 
 142:Middlewares/ST/usbx/common/core/src/ux_device_stack_descriptor_send.c ****     /* Shift the descriptor type in the low byte field.  */
 143:Middlewares/ST/usbx/common/core/src/ux_device_stack_descriptor_send.c ****     descriptor_type =  (UCHAR) ((descriptor_type >> 8) & 0xff);
  93              		.loc 1 143 5 view .LVU33
  94              		.loc 1 143 24 is_stmt 0 view .LVU34
  95 001e C0F30724 		ubfx	r4, r0, #8, #8
  96              	.LVL6:
 144:Middlewares/ST/usbx/common/core/src/ux_device_stack_descriptor_send.c **** 
 145:Middlewares/ST/usbx/common/core/src/ux_device_stack_descriptor_send.c ****     /* Default descriptor length is host length.  */
 146:Middlewares/ST/usbx/common/core/src/ux_device_stack_descriptor_send.c ****     length =  host_length;
  97              		.loc 1 146 5 is_stmt 1 view .LVU35
 147:Middlewares/ST/usbx/common/core/src/ux_device_stack_descriptor_send.c **** 
 148:Middlewares/ST/usbx/common/core/src/ux_device_stack_descriptor_send.c ****     /* What type of descriptor do we need to return?  */
 149:Middlewares/ST/usbx/common/core/src/ux_device_stack_descriptor_send.c ****     switch (descriptor_type)
  98              		.loc 1 149 5 view .LVU36
  99 0022 631E     		subs	r3, r4, #1
 100 0024 0E2B     		cmp	r3, #14
 101 0026 00F21681 		bhi	.L2
 102 002a DFE813F0 		tbh	[pc, r3, lsl #1]
 103              	.LVL7:
 104              	.L4:
 105 002e 0F00     		.2byte	(.L8-.L4)/2
 106 0030 3E00     		.2byte	(.L3-.L4)/2
 107 0032 9000     		.2byte	(.L7-.L4)/2
 108 0034 1401     		.2byte	(.L2-.L4)/2
 109 0036 1401     		.2byte	(.L2-.L4)/2
 110 0038 1700     		.2byte	(.L37-.L4)/2
 111 003a 3E00     		.2byte	(.L3-.L4)/2
 112 003c 1401     		.2byte	(.L2-.L4)/2
 113 003e 2A00     		.2byte	(.L38-.L4)/2
 114 0040 1401     		.2byte	(.L2-.L4)/2
 115 0042 1401     		.2byte	(.L2-.L4)/2
 116 0044 1401     		.2byte	(.L2-.L4)/2
 117 0046 1401     		.2byte	(.L2-.L4)/2
 118 0048 1401     		.2byte	(.L2-.L4)/2
 119 004a 3E00     		.2byte	(.L3-.L4)/2
 120              		.p2align 1
 121              	.L8:
 150:Middlewares/ST/usbx/common/core/src/ux_device_stack_descriptor_send.c ****     {
 151:Middlewares/ST/usbx/common/core/src/ux_device_stack_descriptor_send.c **** 
 152:Middlewares/ST/usbx/common/core/src/ux_device_stack_descriptor_send.c ****     case UX_DEVICE_DESCRIPTOR_ITEM:
 153:Middlewares/ST/usbx/common/core/src/ux_device_stack_descriptor_send.c **** 
 154:Middlewares/ST/usbx/common/core/src/ux_device_stack_descriptor_send.c **** 		/* Setup device descriptor length.  */
 155:Middlewares/ST/usbx/common/core/src/ux_device_stack_descriptor_send.c ****         if (host_length > UX_DEVICE_DESCRIPTOR_LENGTH)
 122              		.loc 1 155 9 view .LVU37
 123              		.loc 1 155 12 is_stmt 0 view .LVU38
 124 004c 122F     		cmp	r7, #18
 125 004e 03D8     		bhi	.L39
 146:Middlewares/ST/usbx/common/core/src/ux_device_stack_descriptor_send.c **** 
 126              		.loc 1 146 12 view .LVU39
 127 0050 3D46     		mov	r5, r7
 128              	.L9:
 129              	.LVL8:
 156:Middlewares/ST/usbx/common/core/src/ux_device_stack_descriptor_send.c ****             length =  UX_DEVICE_DESCRIPTOR_LENGTH;
ARM GAS  C:\Users\sapph\AppData\Local\Temp\ccw3t0OM.s 			page 6


 157:Middlewares/ST/usbx/common/core/src/ux_device_stack_descriptor_send.c **** 
 158:Middlewares/ST/usbx/common/core/src/ux_device_stack_descriptor_send.c ****         /* Fall through.  */
 159:Middlewares/ST/usbx/common/core/src/ux_device_stack_descriptor_send.c ****     case UX_DEVICE_QUALIFIER_DESCRIPTOR_ITEM:
 160:Middlewares/ST/usbx/common/core/src/ux_device_stack_descriptor_send.c **** 
 161:Middlewares/ST/usbx/common/core/src/ux_device_stack_descriptor_send.c ****         /* Setup qualifier descriptor length.  */
 162:Middlewares/ST/usbx/common/core/src/ux_device_stack_descriptor_send.c ****         if (descriptor_type == UX_DEVICE_QUALIFIER_DESCRIPTOR_ITEM &&
 130              		.loc 1 162 9 is_stmt 1 view .LVU40
 131              		.loc 1 162 12 is_stmt 0 view .LVU41
 132 0052 062C     		cmp	r4, #6
 133 0054 06D1     		bne	.L10
 134 0056 02E0     		b	.L6
 135              	.LVL9:
 136              	.L39:
 156:Middlewares/ST/usbx/common/core/src/ux_device_stack_descriptor_send.c ****             length =  UX_DEVICE_DESCRIPTOR_LENGTH;
 137              		.loc 1 156 20 view .LVU42
 138 0058 1225     		movs	r5, #18
 139 005a FAE7     		b	.L9
 140              	.L37:
 149:Middlewares/ST/usbx/common/core/src/ux_device_stack_descriptor_send.c ****     {
 141              		.loc 1 149 5 view .LVU43
 142 005c 3D46     		mov	r5, r7
 143              	.LVL10:
 144              	.L6:
 145              		.loc 1 162 68 discriminator 1 view .LVU44
 146 005e 0A2F     		cmp	r7, #10
 147 0060 00D9     		bls	.L10
 163:Middlewares/ST/usbx/common/core/src/ux_device_stack_descriptor_send.c ****             host_length > UX_DEVICE_QUALIFIER_DESCRIPTOR_LENGTH)
 164:Middlewares/ST/usbx/common/core/src/ux_device_stack_descriptor_send.c ****             length =  UX_DEVICE_QUALIFIER_DESCRIPTOR_LENGTH;
 148              		.loc 1 164 20 view .LVU45
 149 0062 0A25     		movs	r5, #10
 150              	.L10:
 151              	.LVL11:
 165:Middlewares/ST/usbx/common/core/src/ux_device_stack_descriptor_send.c **** 
 166:Middlewares/ST/usbx/common/core/src/ux_device_stack_descriptor_send.c ****         /* Fall through.  */
 167:Middlewares/ST/usbx/common/core/src/ux_device_stack_descriptor_send.c ****     case UX_OTG_DESCRIPTOR_ITEM:
 168:Middlewares/ST/usbx/common/core/src/ux_device_stack_descriptor_send.c **** 
 169:Middlewares/ST/usbx/common/core/src/ux_device_stack_descriptor_send.c ****         /* Setup OTG descriptor length.  */
 170:Middlewares/ST/usbx/common/core/src/ux_device_stack_descriptor_send.c ****         if (descriptor_type == UX_OTG_DESCRIPTOR_ITEM &&
 152              		.loc 1 170 9 is_stmt 1 view .LVU46
 153              		.loc 1 170 12 is_stmt 0 view .LVU47
 154 0064 092C     		cmp	r4, #9
 155 0066 0DD0     		beq	.L5
 156              	.LVL12:
 157              	.L11:
 171:Middlewares/ST/usbx/common/core/src/ux_device_stack_descriptor_send.c ****             host_length > UX_OTG_DESCRIPTOR_LENGTH)
 172:Middlewares/ST/usbx/common/core/src/ux_device_stack_descriptor_send.c ****             length =  UX_OTG_DESCRIPTOR_LENGTH;
 173:Middlewares/ST/usbx/common/core/src/ux_device_stack_descriptor_send.c **** 
 174:Middlewares/ST/usbx/common/core/src/ux_device_stack_descriptor_send.c ****         /* We may or may not have a device qualifier descriptor.  */
 175:Middlewares/ST/usbx/common/core/src/ux_device_stack_descriptor_send.c ****         device_framework =  _ux_system_slave -> ux_system_slave_device_framework;
 158              		.loc 1 175 9 is_stmt 1 view .LVU48
 159              		.loc 1 175 26 is_stmt 0 view .LVU49
 160 0068 D6F81411 		ldr	r1, [r6, #276]
 161              	.LVL13:
 176:Middlewares/ST/usbx/common/core/src/ux_device_stack_descriptor_send.c ****         device_framework_length =  _ux_system_slave -> ux_system_slave_device_framework_length;
 162              		.loc 1 176 9 is_stmt 1 view .LVU50
 163              		.loc 1 176 33 is_stmt 0 view .LVU51
 164 006c D6F81821 		ldr	r2, [r6, #280]
ARM GAS  C:\Users\sapph\AppData\Local\Temp\ccw3t0OM.s 			page 7


 165              	.LVL14:
 177:Middlewares/ST/usbx/common/core/src/ux_device_stack_descriptor_send.c ****         device_framework_end = device_framework + device_framework_length;
 166              		.loc 1 177 9 is_stmt 1 view .LVU52
 167              		.loc 1 177 30 is_stmt 0 view .LVU53
 168 0070 0A44     		add	r2, r2, r1
 169              	.LVL15:
 178:Middlewares/ST/usbx/common/core/src/ux_device_stack_descriptor_send.c **** 
 179:Middlewares/ST/usbx/common/core/src/ux_device_stack_descriptor_send.c ****         /* Parse the device framework and locate a device qualifier descriptor.  */
 180:Middlewares/ST/usbx/common/core/src/ux_device_stack_descriptor_send.c ****         while (device_framework < device_framework_end)
 170              		.loc 1 180 9 is_stmt 1 view .LVU54
 171              	.L12:
 172              		.loc 1 180 33 view .LVU55
 173 0072 9142     		cmp	r1, r2
 174 0074 15D2     		bcs	.L44
 181:Middlewares/ST/usbx/common/core/src/ux_device_stack_descriptor_send.c ****         {
 182:Middlewares/ST/usbx/common/core/src/ux_device_stack_descriptor_send.c **** 
 183:Middlewares/ST/usbx/common/core/src/ux_device_stack_descriptor_send.c ****             /* Get descriptor length.  */
 184:Middlewares/ST/usbx/common/core/src/ux_device_stack_descriptor_send.c ****             descriptor_length =  (ULONG) *device_framework;
 175              		.loc 1 184 13 view .LVU56
 176              		.loc 1 184 42 is_stmt 0 view .LVU57
 177 0076 0878     		ldrb	r0, [r1]	@ zero_extendqisi2
 178              	.LVL16:
 185:Middlewares/ST/usbx/common/core/src/ux_device_stack_descriptor_send.c **** 
 186:Middlewares/ST/usbx/common/core/src/ux_device_stack_descriptor_send.c ****             /* Check if this is a descriptor expected.  */
 187:Middlewares/ST/usbx/common/core/src/ux_device_stack_descriptor_send.c ****             if (*(device_framework + 1) == descriptor_type)
 179              		.loc 1 187 13 is_stmt 1 view .LVU58
 180              		.loc 1 187 17 is_stmt 0 view .LVU59
 181 0078 4B78     		ldrb	r3, [r1, #1]	@ zero_extendqisi2
 182              		.loc 1 187 16 view .LVU60
 183 007a A342     		cmp	r3, r4
 184 007c 06D0     		beq	.L45
 188:Middlewares/ST/usbx/common/core/src/ux_device_stack_descriptor_send.c ****             {
 189:Middlewares/ST/usbx/common/core/src/ux_device_stack_descriptor_send.c **** 
 190:Middlewares/ST/usbx/common/core/src/ux_device_stack_descriptor_send.c ****                 /* Copy the device descriptor into the transfer request memory.  */
 191:Middlewares/ST/usbx/common/core/src/ux_device_stack_descriptor_send.c ****                 _ux_utility_memory_copy(transfer_request -> ux_slave_transfer_request_data_pointer,
 192:Middlewares/ST/usbx/common/core/src/ux_device_stack_descriptor_send.c ****                                                 device_framework, length); /* Use case of memcpy is
 193:Middlewares/ST/usbx/common/core/src/ux_device_stack_descriptor_send.c **** 
 194:Middlewares/ST/usbx/common/core/src/ux_device_stack_descriptor_send.c ****                 /* Perform the data transfer.  */
 195:Middlewares/ST/usbx/common/core/src/ux_device_stack_descriptor_send.c ****                 status =  _ux_device_stack_transfer_request(transfer_request, length, host_length);
 196:Middlewares/ST/usbx/common/core/src/ux_device_stack_descriptor_send.c ****                 break;
 197:Middlewares/ST/usbx/common/core/src/ux_device_stack_descriptor_send.c ****             }
 198:Middlewares/ST/usbx/common/core/src/ux_device_stack_descriptor_send.c **** 
 199:Middlewares/ST/usbx/common/core/src/ux_device_stack_descriptor_send.c ****             /* Adjust what is left of the device framework.  */
 200:Middlewares/ST/usbx/common/core/src/ux_device_stack_descriptor_send.c ****             device_framework_length -=  descriptor_length;
 185              		.loc 1 200 13 is_stmt 1 view .LVU61
 201:Middlewares/ST/usbx/common/core/src/ux_device_stack_descriptor_send.c **** 
 202:Middlewares/ST/usbx/common/core/src/ux_device_stack_descriptor_send.c ****             /* Point to the next descriptor.  */
 203:Middlewares/ST/usbx/common/core/src/ux_device_stack_descriptor_send.c ****             device_framework +=  descriptor_length;
 186              		.loc 1 203 13 view .LVU62
 187              		.loc 1 203 30 is_stmt 0 view .LVU63
 188 007e 0144     		add	r1, r1, r0
 189              	.LVL17:
 190              		.loc 1 203 30 view .LVU64
 191 0080 F7E7     		b	.L12
 192              	.LVL18:
 193              	.L38:
 149:Middlewares/ST/usbx/common/core/src/ux_device_stack_descriptor_send.c ****     {
ARM GAS  C:\Users\sapph\AppData\Local\Temp\ccw3t0OM.s 			page 8


 194              		.loc 1 149 5 view .LVU65
 195 0082 3D46     		mov	r5, r7
 196              	.LVL19:
 197              	.L5:
 170:Middlewares/ST/usbx/common/core/src/ux_device_stack_descriptor_send.c ****             host_length > UX_OTG_DESCRIPTOR_LENGTH)
 198              		.loc 1 170 55 discriminator 1 view .LVU66
 199 0084 052F     		cmp	r7, #5
 200 0086 EFD9     		bls	.L11
 172:Middlewares/ST/usbx/common/core/src/ux_device_stack_descriptor_send.c **** 
 201              		.loc 1 172 20 view .LVU67
 202 0088 0525     		movs	r5, #5
 203 008a EDE7     		b	.L11
 204              	.LVL20:
 205              	.L45:
 191:Middlewares/ST/usbx/common/core/src/ux_device_stack_descriptor_send.c ****                                                 device_framework, length); /* Use case of memcpy is
 206              		.loc 1 191 17 is_stmt 1 view .LVU68
 207 008c 2A46     		mov	r2, r5
 208              	.LVL21:
 191:Middlewares/ST/usbx/common/core/src/ux_device_stack_descriptor_send.c ****                                                 device_framework, length); /* Use case of memcpy is
 209              		.loc 1 191 17 is_stmt 0 view .LVU69
 210 008e D6F89C00 		ldr	r0, [r6, #156]
 211              	.LVL22:
 191:Middlewares/ST/usbx/common/core/src/ux_device_stack_descriptor_send.c ****                                                 device_framework, length); /* Use case of memcpy is
 212              		.loc 1 191 17 view .LVU70
 213 0092 FFF7FEFF 		bl	_ux_utility_memory_copy
 214              	.LVL23:
 195:Middlewares/ST/usbx/common/core/src/ux_device_stack_descriptor_send.c ****                 break;
 215              		.loc 1 195 17 is_stmt 1 view .LVU71
 195:Middlewares/ST/usbx/common/core/src/ux_device_stack_descriptor_send.c ****                 break;
 216              		.loc 1 195 27 is_stmt 0 view .LVU72
 217 0096 3A46     		mov	r2, r7
 218 0098 2946     		mov	r1, r5
 219 009a 4046     		mov	r0, r8
 220 009c FFF7FEFF 		bl	_ux_device_stack_transfer_request
 221              	.LVL24:
 196:Middlewares/ST/usbx/common/core/src/ux_device_stack_descriptor_send.c ****             }
 222              		.loc 1 196 17 is_stmt 1 view .LVU73
 223 00a0 00E0     		b	.L1
 224              	.LVL25:
 225              	.L44:
 111:Middlewares/ST/usbx/common/core/src/ux_device_stack_descriptor_send.c **** ULONG                           length;
 226              		.loc 1 111 33 is_stmt 0 view .LVU74
 227 00a2 FF20     		movs	r0, #255
 228              	.LVL26:
 229              	.L1:
 204:Middlewares/ST/usbx/common/core/src/ux_device_stack_descriptor_send.c ****         }
 205:Middlewares/ST/usbx/common/core/src/ux_device_stack_descriptor_send.c ****         break;
 206:Middlewares/ST/usbx/common/core/src/ux_device_stack_descriptor_send.c **** 
 207:Middlewares/ST/usbx/common/core/src/ux_device_stack_descriptor_send.c **** #ifndef UX_BOS_SUPPORT_DISABLE
 208:Middlewares/ST/usbx/common/core/src/ux_device_stack_descriptor_send.c ****     case UX_BOS_DESCRIPTOR_ITEM:
 209:Middlewares/ST/usbx/common/core/src/ux_device_stack_descriptor_send.c ****         /* Fall through.  */
 210:Middlewares/ST/usbx/common/core/src/ux_device_stack_descriptor_send.c **** #endif
 211:Middlewares/ST/usbx/common/core/src/ux_device_stack_descriptor_send.c ****     case UX_OTHER_SPEED_DESCRIPTOR_ITEM:
 212:Middlewares/ST/usbx/common/core/src/ux_device_stack_descriptor_send.c ****         /* Fall through.  */
 213:Middlewares/ST/usbx/common/core/src/ux_device_stack_descriptor_send.c ****     case UX_CONFIGURATION_DESCRIPTOR_ITEM:
 214:Middlewares/ST/usbx/common/core/src/ux_device_stack_descriptor_send.c **** 
 215:Middlewares/ST/usbx/common/core/src/ux_device_stack_descriptor_send.c ****         if (descriptor_type == UX_OTHER_SPEED_DESCRIPTOR_ITEM)
ARM GAS  C:\Users\sapph\AppData\Local\Temp\ccw3t0OM.s 			page 9


 216:Middlewares/ST/usbx/common/core/src/ux_device_stack_descriptor_send.c ****         {
 217:Middlewares/ST/usbx/common/core/src/ux_device_stack_descriptor_send.c **** 
 218:Middlewares/ST/usbx/common/core/src/ux_device_stack_descriptor_send.c ****             /* This request is used by the host to find out the capability of this device
 219:Middlewares/ST/usbx/common/core/src/ux_device_stack_descriptor_send.c ****             if it was running at full speed. The behavior is the same as in a GET_CONFIGURATIOn des
 220:Middlewares/ST/usbx/common/core/src/ux_device_stack_descriptor_send.c ****             but we do not use the current device framework but rather the full speed framework. */
 221:Middlewares/ST/usbx/common/core/src/ux_device_stack_descriptor_send.c ****             device_framework =  _ux_system_slave -> ux_system_slave_device_framework_full_speed;
 222:Middlewares/ST/usbx/common/core/src/ux_device_stack_descriptor_send.c ****             device_framework_length =  _ux_system_slave -> ux_system_slave_device_framework_length_
 223:Middlewares/ST/usbx/common/core/src/ux_device_stack_descriptor_send.c ****             device_framework_end = device_framework + device_framework_length;
 224:Middlewares/ST/usbx/common/core/src/ux_device_stack_descriptor_send.c ****         }
 225:Middlewares/ST/usbx/common/core/src/ux_device_stack_descriptor_send.c ****         else
 226:Middlewares/ST/usbx/common/core/src/ux_device_stack_descriptor_send.c ****         {
 227:Middlewares/ST/usbx/common/core/src/ux_device_stack_descriptor_send.c **** 
 228:Middlewares/ST/usbx/common/core/src/ux_device_stack_descriptor_send.c ****             /* We may have multiple configurations !, the index will tell us what
 229:Middlewares/ST/usbx/common/core/src/ux_device_stack_descriptor_send.c ****             configuration descriptor we need to return.  */
 230:Middlewares/ST/usbx/common/core/src/ux_device_stack_descriptor_send.c ****             device_framework =  _ux_system_slave -> ux_system_slave_device_framework;
 231:Middlewares/ST/usbx/common/core/src/ux_device_stack_descriptor_send.c ****             device_framework_length =  _ux_system_slave -> ux_system_slave_device_framework_length;
 232:Middlewares/ST/usbx/common/core/src/ux_device_stack_descriptor_send.c ****             device_framework_end = device_framework + device_framework_length;
 233:Middlewares/ST/usbx/common/core/src/ux_device_stack_descriptor_send.c ****         }
 234:Middlewares/ST/usbx/common/core/src/ux_device_stack_descriptor_send.c **** 
 235:Middlewares/ST/usbx/common/core/src/ux_device_stack_descriptor_send.c ****         /* Parse the device framework and locate a configuration descriptor.  */
 236:Middlewares/ST/usbx/common/core/src/ux_device_stack_descriptor_send.c ****         while (device_framework < device_framework_end)
 237:Middlewares/ST/usbx/common/core/src/ux_device_stack_descriptor_send.c ****         {
 238:Middlewares/ST/usbx/common/core/src/ux_device_stack_descriptor_send.c **** 
 239:Middlewares/ST/usbx/common/core/src/ux_device_stack_descriptor_send.c ****             /* Get descriptor length. */
 240:Middlewares/ST/usbx/common/core/src/ux_device_stack_descriptor_send.c ****             descriptor_length =  (ULONG) *device_framework;
 241:Middlewares/ST/usbx/common/core/src/ux_device_stack_descriptor_send.c **** 
 242:Middlewares/ST/usbx/common/core/src/ux_device_stack_descriptor_send.c **** #ifndef UX_BOS_SUPPORT_DISABLE
 243:Middlewares/ST/usbx/common/core/src/ux_device_stack_descriptor_send.c **** 
 244:Middlewares/ST/usbx/common/core/src/ux_device_stack_descriptor_send.c ****             /* Check if we are finding BOS descriptor.  */
 245:Middlewares/ST/usbx/common/core/src/ux_device_stack_descriptor_send.c ****             if (descriptor_type == UX_BOS_DESCRIPTOR_ITEM)
 246:Middlewares/ST/usbx/common/core/src/ux_device_stack_descriptor_send.c ****             {
 247:Middlewares/ST/usbx/common/core/src/ux_device_stack_descriptor_send.c ****                 if (*(device_framework + 1) == UX_BOS_DESCRIPTOR_ITEM)
 248:Middlewares/ST/usbx/common/core/src/ux_device_stack_descriptor_send.c ****                 {
 249:Middlewares/ST/usbx/common/core/src/ux_device_stack_descriptor_send.c **** 
 250:Middlewares/ST/usbx/common/core/src/ux_device_stack_descriptor_send.c ****                     /* Parse the BOS descriptor.  */
 251:Middlewares/ST/usbx/common/core/src/ux_device_stack_descriptor_send.c ****                     _ux_utility_descriptor_parse(device_framework,
 252:Middlewares/ST/usbx/common/core/src/ux_device_stack_descriptor_send.c ****                                 _ux_system_bos_descriptor_structure,
 253:Middlewares/ST/usbx/common/core/src/ux_device_stack_descriptor_send.c ****                                 UX_BOS_DESCRIPTOR_ENTRIES,
 254:Middlewares/ST/usbx/common/core/src/ux_device_stack_descriptor_send.c ****                                 (UCHAR *) &bos_descriptor);
 255:Middlewares/ST/usbx/common/core/src/ux_device_stack_descriptor_send.c **** 
 256:Middlewares/ST/usbx/common/core/src/ux_device_stack_descriptor_send.c ****                     /* Get the length of entire BOS descriptor.  */
 257:Middlewares/ST/usbx/common/core/src/ux_device_stack_descriptor_send.c ****                     target_descriptor_length = bos_descriptor.wTotalLength;
 258:Middlewares/ST/usbx/common/core/src/ux_device_stack_descriptor_send.c **** 
 259:Middlewares/ST/usbx/common/core/src/ux_device_stack_descriptor_send.c ****                     /* Descriptor is found.  */
 260:Middlewares/ST/usbx/common/core/src/ux_device_stack_descriptor_send.c ****                     status = UX_SUCCESS;
 261:Middlewares/ST/usbx/common/core/src/ux_device_stack_descriptor_send.c ****                     break;
 262:Middlewares/ST/usbx/common/core/src/ux_device_stack_descriptor_send.c ****                 }
 263:Middlewares/ST/usbx/common/core/src/ux_device_stack_descriptor_send.c ****             }
 264:Middlewares/ST/usbx/common/core/src/ux_device_stack_descriptor_send.c ****             else
 265:Middlewares/ST/usbx/common/core/src/ux_device_stack_descriptor_send.c **** #endif
 266:Middlewares/ST/usbx/common/core/src/ux_device_stack_descriptor_send.c **** 
 267:Middlewares/ST/usbx/common/core/src/ux_device_stack_descriptor_send.c ****             {
 268:Middlewares/ST/usbx/common/core/src/ux_device_stack_descriptor_send.c **** 
 269:Middlewares/ST/usbx/common/core/src/ux_device_stack_descriptor_send.c ****                 /* Check if this is a configuration descriptor.  We are cheating here. Instead of c
 270:Middlewares/ST/usbx/common/core/src/ux_device_stack_descriptor_send.c ****                 a OTHER SPEED descriptor, we simply scan the configuration descriptor for the Full 
 271:Middlewares/ST/usbx/common/core/src/ux_device_stack_descriptor_send.c ****                 framework and return this configuration after we manually changed the configuration
 272:Middlewares/ST/usbx/common/core/src/ux_device_stack_descriptor_send.c ****                 item into a Other Speed Descriptor. */
ARM GAS  C:\Users\sapph\AppData\Local\Temp\ccw3t0OM.s 			page 10


 273:Middlewares/ST/usbx/common/core/src/ux_device_stack_descriptor_send.c ****                 if (*(device_framework + 1) == UX_CONFIGURATION_DESCRIPTOR_ITEM)
 274:Middlewares/ST/usbx/common/core/src/ux_device_stack_descriptor_send.c ****                 {
 275:Middlewares/ST/usbx/common/core/src/ux_device_stack_descriptor_send.c **** 
 276:Middlewares/ST/usbx/common/core/src/ux_device_stack_descriptor_send.c ****                     /* Check the index. It must be the same as the one requested.  */
 277:Middlewares/ST/usbx/common/core/src/ux_device_stack_descriptor_send.c ****                     if (parsed_descriptor_index == descriptor_index)
 278:Middlewares/ST/usbx/common/core/src/ux_device_stack_descriptor_send.c ****                     {
 279:Middlewares/ST/usbx/common/core/src/ux_device_stack_descriptor_send.c **** 
 280:Middlewares/ST/usbx/common/core/src/ux_device_stack_descriptor_send.c ****                         /* Parse the configuration descriptor. */
 281:Middlewares/ST/usbx/common/core/src/ux_device_stack_descriptor_send.c ****                         _ux_utility_descriptor_parse(device_framework,
 282:Middlewares/ST/usbx/common/core/src/ux_device_stack_descriptor_send.c ****                                     _ux_system_configuration_descriptor_structure,
 283:Middlewares/ST/usbx/common/core/src/ux_device_stack_descriptor_send.c ****                                     UX_CONFIGURATION_DESCRIPTOR_ENTRIES,
 284:Middlewares/ST/usbx/common/core/src/ux_device_stack_descriptor_send.c ****                                     (UCHAR *) &configuration_descriptor);
 285:Middlewares/ST/usbx/common/core/src/ux_device_stack_descriptor_send.c **** 
 286:Middlewares/ST/usbx/common/core/src/ux_device_stack_descriptor_send.c ****                         /* Get the length of entire configuration descriptor.  */
 287:Middlewares/ST/usbx/common/core/src/ux_device_stack_descriptor_send.c ****                         target_descriptor_length = configuration_descriptor.wTotalLength;
 288:Middlewares/ST/usbx/common/core/src/ux_device_stack_descriptor_send.c **** 
 289:Middlewares/ST/usbx/common/core/src/ux_device_stack_descriptor_send.c ****                         /* Descriptor is found.  */
 290:Middlewares/ST/usbx/common/core/src/ux_device_stack_descriptor_send.c ****                         status = UX_SUCCESS;
 291:Middlewares/ST/usbx/common/core/src/ux_device_stack_descriptor_send.c ****                         break;
 292:Middlewares/ST/usbx/common/core/src/ux_device_stack_descriptor_send.c ****                     }
 293:Middlewares/ST/usbx/common/core/src/ux_device_stack_descriptor_send.c ****                     else
 294:Middlewares/ST/usbx/common/core/src/ux_device_stack_descriptor_send.c ****                     {
 295:Middlewares/ST/usbx/common/core/src/ux_device_stack_descriptor_send.c **** 
 296:Middlewares/ST/usbx/common/core/src/ux_device_stack_descriptor_send.c ****                         /* There may be more configuration descriptors in this framework.  */
 297:Middlewares/ST/usbx/common/core/src/ux_device_stack_descriptor_send.c ****                         parsed_descriptor_index++;
 298:Middlewares/ST/usbx/common/core/src/ux_device_stack_descriptor_send.c ****                     }
 299:Middlewares/ST/usbx/common/core/src/ux_device_stack_descriptor_send.c ****                 }
 300:Middlewares/ST/usbx/common/core/src/ux_device_stack_descriptor_send.c ****             }
 301:Middlewares/ST/usbx/common/core/src/ux_device_stack_descriptor_send.c **** 
 302:Middlewares/ST/usbx/common/core/src/ux_device_stack_descriptor_send.c ****             /* Adjust what is left of the device framework.  */
 303:Middlewares/ST/usbx/common/core/src/ux_device_stack_descriptor_send.c ****             device_framework_length -=  descriptor_length;
 304:Middlewares/ST/usbx/common/core/src/ux_device_stack_descriptor_send.c **** 
 305:Middlewares/ST/usbx/common/core/src/ux_device_stack_descriptor_send.c ****             /* Point to the next descriptor.  */
 306:Middlewares/ST/usbx/common/core/src/ux_device_stack_descriptor_send.c ****             device_framework +=  descriptor_length;
 307:Middlewares/ST/usbx/common/core/src/ux_device_stack_descriptor_send.c ****         }
 308:Middlewares/ST/usbx/common/core/src/ux_device_stack_descriptor_send.c **** 
 309:Middlewares/ST/usbx/common/core/src/ux_device_stack_descriptor_send.c ****         /* Send the descriptor.  */
 310:Middlewares/ST/usbx/common/core/src/ux_device_stack_descriptor_send.c ****         if (status == UX_SUCCESS)
 311:Middlewares/ST/usbx/common/core/src/ux_device_stack_descriptor_send.c ****         {
 312:Middlewares/ST/usbx/common/core/src/ux_device_stack_descriptor_send.c **** 
 313:Middlewares/ST/usbx/common/core/src/ux_device_stack_descriptor_send.c ****             /* Ensure the host does not demand a length beyond our descriptor (Windows does that)
 314:Middlewares/ST/usbx/common/core/src/ux_device_stack_descriptor_send.c ****                 and do not return more than what is allowed.  */
 315:Middlewares/ST/usbx/common/core/src/ux_device_stack_descriptor_send.c ****             if (target_descriptor_length < host_length)
 316:Middlewares/ST/usbx/common/core/src/ux_device_stack_descriptor_send.c ****                 length =  target_descriptor_length;
 317:Middlewares/ST/usbx/common/core/src/ux_device_stack_descriptor_send.c ****             else
 318:Middlewares/ST/usbx/common/core/src/ux_device_stack_descriptor_send.c ****                 length =  host_length;
 319:Middlewares/ST/usbx/common/core/src/ux_device_stack_descriptor_send.c **** 
 320:Middlewares/ST/usbx/common/core/src/ux_device_stack_descriptor_send.c ****             /* Check buffer length, since total descriptors length may exceed buffer...  */
 321:Middlewares/ST/usbx/common/core/src/ux_device_stack_descriptor_send.c ****             if (length > UX_SLAVE_REQUEST_CONTROL_MAX_LENGTH)
 322:Middlewares/ST/usbx/common/core/src/ux_device_stack_descriptor_send.c ****             {
 323:Middlewares/ST/usbx/common/core/src/ux_device_stack_descriptor_send.c ****                 /* Error trap. */
 324:Middlewares/ST/usbx/common/core/src/ux_device_stack_descriptor_send.c ****                 _ux_system_error_handler(UX_SYSTEM_LEVEL_THREAD, UX_SYSTEM_CONTEXT_DEVICE_STACK, UX
 325:Middlewares/ST/usbx/common/core/src/ux_device_stack_descriptor_send.c **** 
 326:Middlewares/ST/usbx/common/core/src/ux_device_stack_descriptor_send.c ****                 /* If trace is enabled, insert this event into the trace buffer.  */
 327:Middlewares/ST/usbx/common/core/src/ux_device_stack_descriptor_send.c ****                 UX_TRACE_IN_LINE_INSERT(UX_TRACE_ERROR, UX_MEMORY_INSUFFICIENT, device, 0, 0, UX_TR
 328:Middlewares/ST/usbx/common/core/src/ux_device_stack_descriptor_send.c **** 
 329:Middlewares/ST/usbx/common/core/src/ux_device_stack_descriptor_send.c ****                 /* Stall the endpoint.  */
ARM GAS  C:\Users\sapph\AppData\Local\Temp\ccw3t0OM.s 			page 11


 330:Middlewares/ST/usbx/common/core/src/ux_device_stack_descriptor_send.c ****                 status =  dcd -> ux_slave_dcd_function(dcd, UX_DCD_STALL_ENDPOINT, endpoint);
 331:Middlewares/ST/usbx/common/core/src/ux_device_stack_descriptor_send.c ****                 break;
 332:Middlewares/ST/usbx/common/core/src/ux_device_stack_descriptor_send.c ****             }
 333:Middlewares/ST/usbx/common/core/src/ux_device_stack_descriptor_send.c **** 
 334:Middlewares/ST/usbx/common/core/src/ux_device_stack_descriptor_send.c ****             /* Copy the device descriptor into the transfer request memory.  */
 335:Middlewares/ST/usbx/common/core/src/ux_device_stack_descriptor_send.c ****             _ux_utility_memory_copy(transfer_request -> ux_slave_transfer_request_data_pointer,
 336:Middlewares/ST/usbx/common/core/src/ux_device_stack_descriptor_send.c ****                                 device_framework, length); /* Use case of memcpy is verified. */
 337:Middlewares/ST/usbx/common/core/src/ux_device_stack_descriptor_send.c **** 
 338:Middlewares/ST/usbx/common/core/src/ux_device_stack_descriptor_send.c ****             /* Now we need to hack the found descriptor because this request expect a requested
 339:Middlewares/ST/usbx/common/core/src/ux_device_stack_descriptor_send.c ****                 descriptor type instead of the regular descriptor.  */
 340:Middlewares/ST/usbx/common/core/src/ux_device_stack_descriptor_send.c ****             *(transfer_request -> ux_slave_transfer_request_data_pointer + 1) = (UCHAR)descriptor_t
 341:Middlewares/ST/usbx/common/core/src/ux_device_stack_descriptor_send.c **** 
 342:Middlewares/ST/usbx/common/core/src/ux_device_stack_descriptor_send.c ****             /* We can return the configuration descriptor.  */
 343:Middlewares/ST/usbx/common/core/src/ux_device_stack_descriptor_send.c ****             status =  _ux_device_stack_transfer_request(transfer_request, length, host_length);
 344:Middlewares/ST/usbx/common/core/src/ux_device_stack_descriptor_send.c ****         }
 345:Middlewares/ST/usbx/common/core/src/ux_device_stack_descriptor_send.c ****         break;
 346:Middlewares/ST/usbx/common/core/src/ux_device_stack_descriptor_send.c **** 
 347:Middlewares/ST/usbx/common/core/src/ux_device_stack_descriptor_send.c ****     case UX_STRING_DESCRIPTOR_ITEM:
 348:Middlewares/ST/usbx/common/core/src/ux_device_stack_descriptor_send.c **** 
 349:Middlewares/ST/usbx/common/core/src/ux_device_stack_descriptor_send.c ****         /* We need to filter for the index 0 which is the language ID string.  */
 350:Middlewares/ST/usbx/common/core/src/ux_device_stack_descriptor_send.c ****         if (descriptor_index == 0)
 351:Middlewares/ST/usbx/common/core/src/ux_device_stack_descriptor_send.c ****         {
 352:Middlewares/ST/usbx/common/core/src/ux_device_stack_descriptor_send.c **** 
 353:Middlewares/ST/usbx/common/core/src/ux_device_stack_descriptor_send.c ****             /* We need to check request buffer size in case it's possible exceed. */
 354:Middlewares/ST/usbx/common/core/src/ux_device_stack_descriptor_send.c ****             if (_ux_system_slave -> ux_system_slave_language_id_framework_length + 2 > UX_SLAVE_REQ
 355:Middlewares/ST/usbx/common/core/src/ux_device_stack_descriptor_send.c ****             {
 356:Middlewares/ST/usbx/common/core/src/ux_device_stack_descriptor_send.c **** 
 357:Middlewares/ST/usbx/common/core/src/ux_device_stack_descriptor_send.c ****                 /* Error trap. */
 358:Middlewares/ST/usbx/common/core/src/ux_device_stack_descriptor_send.c ****                 _ux_system_error_handler(UX_SYSTEM_LEVEL_THREAD, UX_SYSTEM_CONTEXT_DEVICE_STACK, UX
 359:Middlewares/ST/usbx/common/core/src/ux_device_stack_descriptor_send.c **** 
 360:Middlewares/ST/usbx/common/core/src/ux_device_stack_descriptor_send.c ****                 /* If trace is enabled, insert this event into the trace buffer.  */
 361:Middlewares/ST/usbx/common/core/src/ux_device_stack_descriptor_send.c ****                 UX_TRACE_IN_LINE_INSERT(UX_TRACE_ERROR, UX_MEMORY_INSUFFICIENT, device, 0, 0, UX_TR
 362:Middlewares/ST/usbx/common/core/src/ux_device_stack_descriptor_send.c **** 
 363:Middlewares/ST/usbx/common/core/src/ux_device_stack_descriptor_send.c ****                 /* Stall the endpoint.  */
 364:Middlewares/ST/usbx/common/core/src/ux_device_stack_descriptor_send.c ****                 status =  dcd -> ux_slave_dcd_function(dcd, UX_DCD_STALL_ENDPOINT, endpoint);
 365:Middlewares/ST/usbx/common/core/src/ux_device_stack_descriptor_send.c ****                 break;
 366:Middlewares/ST/usbx/common/core/src/ux_device_stack_descriptor_send.c ****             }
 367:Middlewares/ST/usbx/common/core/src/ux_device_stack_descriptor_send.c **** 
 368:Middlewares/ST/usbx/common/core/src/ux_device_stack_descriptor_send.c ****             /* We have a request to send back the language ID list. Use the transfer request buffer
 369:Middlewares/ST/usbx/common/core/src/ux_device_stack_descriptor_send.c ****             string_memory =  transfer_request -> ux_slave_transfer_request_data_pointer;
 370:Middlewares/ST/usbx/common/core/src/ux_device_stack_descriptor_send.c **** 
 371:Middlewares/ST/usbx/common/core/src/ux_device_stack_descriptor_send.c ****             /* Store the total length of the response.  */
 372:Middlewares/ST/usbx/common/core/src/ux_device_stack_descriptor_send.c ****             *string_memory =  (UCHAR)(_ux_system_slave -> ux_system_slave_language_id_framework_len
 373:Middlewares/ST/usbx/common/core/src/ux_device_stack_descriptor_send.c **** 
 374:Middlewares/ST/usbx/common/core/src/ux_device_stack_descriptor_send.c ****             /* Store the descriptor type.  */
 375:Middlewares/ST/usbx/common/core/src/ux_device_stack_descriptor_send.c ****             *(string_memory +1) =  UX_STRING_DESCRIPTOR_ITEM;
 376:Middlewares/ST/usbx/common/core/src/ux_device_stack_descriptor_send.c **** 
 377:Middlewares/ST/usbx/common/core/src/ux_device_stack_descriptor_send.c ****             /* Store the language ID into the buffer.  */
 378:Middlewares/ST/usbx/common/core/src/ux_device_stack_descriptor_send.c ****             _ux_utility_memory_copy(string_memory+2, _ux_system_slave -> ux_system_slave_language_i
 379:Middlewares/ST/usbx/common/core/src/ux_device_stack_descriptor_send.c ****                                                         _ux_system_slave -> ux_system_slave_languag
 380:Middlewares/ST/usbx/common/core/src/ux_device_stack_descriptor_send.c **** 
 381:Middlewares/ST/usbx/common/core/src/ux_device_stack_descriptor_send.c ****             /* Filter the length asked/required.  */
 382:Middlewares/ST/usbx/common/core/src/ux_device_stack_descriptor_send.c ****             if (host_length > _ux_system_slave -> ux_system_slave_language_id_framework_length + 2)
 383:Middlewares/ST/usbx/common/core/src/ux_device_stack_descriptor_send.c ****                 length =  _ux_system_slave -> ux_system_slave_language_id_framework_length + 2;
 384:Middlewares/ST/usbx/common/core/src/ux_device_stack_descriptor_send.c ****             else
 385:Middlewares/ST/usbx/common/core/src/ux_device_stack_descriptor_send.c ****                 length =  host_length;
 386:Middlewares/ST/usbx/common/core/src/ux_device_stack_descriptor_send.c **** 
ARM GAS  C:\Users\sapph\AppData\Local\Temp\ccw3t0OM.s 			page 12


 387:Middlewares/ST/usbx/common/core/src/ux_device_stack_descriptor_send.c ****             /* We can return the string language ID descriptor.  */
 388:Middlewares/ST/usbx/common/core/src/ux_device_stack_descriptor_send.c ****             status =  _ux_device_stack_transfer_request(transfer_request, length, host_length);
 389:Middlewares/ST/usbx/common/core/src/ux_device_stack_descriptor_send.c ****         }
 390:Middlewares/ST/usbx/common/core/src/ux_device_stack_descriptor_send.c ****         else
 391:Middlewares/ST/usbx/common/core/src/ux_device_stack_descriptor_send.c ****         {
 392:Middlewares/ST/usbx/common/core/src/ux_device_stack_descriptor_send.c **** 
 393:Middlewares/ST/usbx/common/core/src/ux_device_stack_descriptor_send.c ****             /* The host wants a specific string index returned. Get the string framework pointer
 394:Middlewares/ST/usbx/common/core/src/ux_device_stack_descriptor_send.c ****                and length.  */
 395:Middlewares/ST/usbx/common/core/src/ux_device_stack_descriptor_send.c ****             string_framework =  _ux_system_slave -> ux_system_slave_string_framework;
 396:Middlewares/ST/usbx/common/core/src/ux_device_stack_descriptor_send.c ****             string_framework_length =  _ux_system_slave -> ux_system_slave_string_framework_length;
 397:Middlewares/ST/usbx/common/core/src/ux_device_stack_descriptor_send.c **** 
 398:Middlewares/ST/usbx/common/core/src/ux_device_stack_descriptor_send.c ****             /* We search through the string framework until we find the right index.
 399:Middlewares/ST/usbx/common/core/src/ux_device_stack_descriptor_send.c ****                The index is in the lower byte of the descriptor type. */
 400:Middlewares/ST/usbx/common/core/src/ux_device_stack_descriptor_send.c ****             while (string_framework_length != 0)
 401:Middlewares/ST/usbx/common/core/src/ux_device_stack_descriptor_send.c ****             {
 402:Middlewares/ST/usbx/common/core/src/ux_device_stack_descriptor_send.c **** 
 403:Middlewares/ST/usbx/common/core/src/ux_device_stack_descriptor_send.c ****                 /* Ensure we have the correct language page.  */
 404:Middlewares/ST/usbx/common/core/src/ux_device_stack_descriptor_send.c ****                 if (_ux_utility_short_get(string_framework) == request_index)
 405:Middlewares/ST/usbx/common/core/src/ux_device_stack_descriptor_send.c ****                 {
 406:Middlewares/ST/usbx/common/core/src/ux_device_stack_descriptor_send.c **** 
 407:Middlewares/ST/usbx/common/core/src/ux_device_stack_descriptor_send.c ****                     /* Check the index.  */
 408:Middlewares/ST/usbx/common/core/src/ux_device_stack_descriptor_send.c ****                     if (*(string_framework + 2) == descriptor_index)
 409:Middlewares/ST/usbx/common/core/src/ux_device_stack_descriptor_send.c ****                     {
 410:Middlewares/ST/usbx/common/core/src/ux_device_stack_descriptor_send.c **** 
 411:Middlewares/ST/usbx/common/core/src/ux_device_stack_descriptor_send.c ****                         /* We need to check request buffer size in case it's possible exceed. */
 412:Middlewares/ST/usbx/common/core/src/ux_device_stack_descriptor_send.c ****                         if (((*(string_framework + 3)*2) + 2) > UX_SLAVE_REQUEST_CONTROL_MAX_LENGTH
 413:Middlewares/ST/usbx/common/core/src/ux_device_stack_descriptor_send.c ****                         {
 414:Middlewares/ST/usbx/common/core/src/ux_device_stack_descriptor_send.c **** 
 415:Middlewares/ST/usbx/common/core/src/ux_device_stack_descriptor_send.c ****                             /* Error trap. */
 416:Middlewares/ST/usbx/common/core/src/ux_device_stack_descriptor_send.c ****                             _ux_system_error_handler(UX_SYSTEM_LEVEL_THREAD, UX_SYSTEM_CONTEXT_DEVI
 417:Middlewares/ST/usbx/common/core/src/ux_device_stack_descriptor_send.c **** 
 418:Middlewares/ST/usbx/common/core/src/ux_device_stack_descriptor_send.c ****                             /* If trace is enabled, insert this event into the trace buffer.  */
 419:Middlewares/ST/usbx/common/core/src/ux_device_stack_descriptor_send.c ****                             UX_TRACE_IN_LINE_INSERT(UX_TRACE_ERROR, UX_MEMORY_INSUFFICIENT, device,
 420:Middlewares/ST/usbx/common/core/src/ux_device_stack_descriptor_send.c **** 
 421:Middlewares/ST/usbx/common/core/src/ux_device_stack_descriptor_send.c ****                             /* Stall the endpoint.  */
 422:Middlewares/ST/usbx/common/core/src/ux_device_stack_descriptor_send.c ****                             status =  dcd -> ux_slave_dcd_function(dcd, UX_DCD_STALL_ENDPOINT, endp
 423:Middlewares/ST/usbx/common/core/src/ux_device_stack_descriptor_send.c ****                             break;
 424:Middlewares/ST/usbx/common/core/src/ux_device_stack_descriptor_send.c ****                         }
 425:Middlewares/ST/usbx/common/core/src/ux_device_stack_descriptor_send.c **** 
 426:Middlewares/ST/usbx/common/core/src/ux_device_stack_descriptor_send.c ****                         /* We have a request to send back a string. Use the transfer request buffer
 427:Middlewares/ST/usbx/common/core/src/ux_device_stack_descriptor_send.c ****                         string_memory =  transfer_request -> ux_slave_transfer_request_data_pointer
 428:Middlewares/ST/usbx/common/core/src/ux_device_stack_descriptor_send.c **** 
 429:Middlewares/ST/usbx/common/core/src/ux_device_stack_descriptor_send.c ****                         /* Store the length in the string buffer. The length
 430:Middlewares/ST/usbx/common/core/src/ux_device_stack_descriptor_send.c ****                            of the string descriptor is stored in the third byte,
 431:Middlewares/ST/usbx/common/core/src/ux_device_stack_descriptor_send.c ****                            hence the ' + 3'. The encoding must be in 16-bit
 432:Middlewares/ST/usbx/common/core/src/ux_device_stack_descriptor_send.c ****                            unicode, hence the '*2'. The length includes the size
 433:Middlewares/ST/usbx/common/core/src/ux_device_stack_descriptor_send.c ****                            of the length itself as well as the descriptor type,
 434:Middlewares/ST/usbx/common/core/src/ux_device_stack_descriptor_send.c ****                            hence the ' + 2'.  */
 435:Middlewares/ST/usbx/common/core/src/ux_device_stack_descriptor_send.c ****                         *string_memory =  (UCHAR)((*(string_framework + 3)*2) + 2);
 436:Middlewares/ST/usbx/common/core/src/ux_device_stack_descriptor_send.c **** 
 437:Middlewares/ST/usbx/common/core/src/ux_device_stack_descriptor_send.c ****                         /* Store the Descriptor type. */
 438:Middlewares/ST/usbx/common/core/src/ux_device_stack_descriptor_send.c ****                         *(string_memory + 1) =  UX_STRING_DESCRIPTOR_ITEM;
 439:Middlewares/ST/usbx/common/core/src/ux_device_stack_descriptor_send.c **** 
 440:Middlewares/ST/usbx/common/core/src/ux_device_stack_descriptor_send.c ****                         /* Create the Unicode string.  */
 441:Middlewares/ST/usbx/common/core/src/ux_device_stack_descriptor_send.c ****                         for (string_length = 0; string_length <  *(string_framework + 3) ; string_l
 442:Middlewares/ST/usbx/common/core/src/ux_device_stack_descriptor_send.c ****                         {
 443:Middlewares/ST/usbx/common/core/src/ux_device_stack_descriptor_send.c **** 
ARM GAS  C:\Users\sapph\AppData\Local\Temp\ccw3t0OM.s 			page 13


 444:Middlewares/ST/usbx/common/core/src/ux_device_stack_descriptor_send.c ****                             /* Insert a Unicode byte.  */
 445:Middlewares/ST/usbx/common/core/src/ux_device_stack_descriptor_send.c ****                             *(string_memory + 2 + (string_length * 2)) =  *(string_framework + 4 + 
 446:Middlewares/ST/usbx/common/core/src/ux_device_stack_descriptor_send.c **** 
 447:Middlewares/ST/usbx/common/core/src/ux_device_stack_descriptor_send.c ****                             /* Insert a zero after the Unicode byte.  */
 448:Middlewares/ST/usbx/common/core/src/ux_device_stack_descriptor_send.c ****                             *(string_memory + 2 + (string_length * 2) + 1) =  0;
 449:Middlewares/ST/usbx/common/core/src/ux_device_stack_descriptor_send.c ****                         }
 450:Middlewares/ST/usbx/common/core/src/ux_device_stack_descriptor_send.c **** 
 451:Middlewares/ST/usbx/common/core/src/ux_device_stack_descriptor_send.c ****                         /* Filter the length asked/required.  */
 452:Middlewares/ST/usbx/common/core/src/ux_device_stack_descriptor_send.c ****                         if (host_length > (UINT)((*(string_framework + 3)*2) + 2))
 453:Middlewares/ST/usbx/common/core/src/ux_device_stack_descriptor_send.c ****                             length =  (ULONG)((*(string_framework + 3)*2) + 2);
 454:Middlewares/ST/usbx/common/core/src/ux_device_stack_descriptor_send.c ****                         else
 455:Middlewares/ST/usbx/common/core/src/ux_device_stack_descriptor_send.c ****                             length =  host_length;
 456:Middlewares/ST/usbx/common/core/src/ux_device_stack_descriptor_send.c **** 
 457:Middlewares/ST/usbx/common/core/src/ux_device_stack_descriptor_send.c ****                         /* We can return the string descriptor.  */
 458:Middlewares/ST/usbx/common/core/src/ux_device_stack_descriptor_send.c ****                         status =  _ux_device_stack_transfer_request(transfer_request, length, host_
 459:Middlewares/ST/usbx/common/core/src/ux_device_stack_descriptor_send.c ****                         break;
 460:Middlewares/ST/usbx/common/core/src/ux_device_stack_descriptor_send.c ****                     }
 461:Middlewares/ST/usbx/common/core/src/ux_device_stack_descriptor_send.c ****                 }
 462:Middlewares/ST/usbx/common/core/src/ux_device_stack_descriptor_send.c **** 
 463:Middlewares/ST/usbx/common/core/src/ux_device_stack_descriptor_send.c ****                 /* This is the wrong string descriptor, jump to the next.  */
 464:Middlewares/ST/usbx/common/core/src/ux_device_stack_descriptor_send.c ****                 string_framework_length -=  (ULONG) *(string_framework + 3) + 4;
 465:Middlewares/ST/usbx/common/core/src/ux_device_stack_descriptor_send.c ****                 string_framework +=  (ULONG) *(string_framework + 3) + 4;
 466:Middlewares/ST/usbx/common/core/src/ux_device_stack_descriptor_send.c ****             }
 467:Middlewares/ST/usbx/common/core/src/ux_device_stack_descriptor_send.c **** 
 468:Middlewares/ST/usbx/common/core/src/ux_device_stack_descriptor_send.c ****             /* Have we exhausted all the string descriptors?  */
 469:Middlewares/ST/usbx/common/core/src/ux_device_stack_descriptor_send.c ****             if (string_framework_length == 0)
 470:Middlewares/ST/usbx/common/core/src/ux_device_stack_descriptor_send.c ****             {
 471:Middlewares/ST/usbx/common/core/src/ux_device_stack_descriptor_send.c **** 
 472:Middlewares/ST/usbx/common/core/src/ux_device_stack_descriptor_send.c ****                 /* Could not find the required string index. Stall the endpoint.  */
 473:Middlewares/ST/usbx/common/core/src/ux_device_stack_descriptor_send.c ****                 dcd -> ux_slave_dcd_function(dcd, UX_DCD_STALL_ENDPOINT, endpoint);
 474:Middlewares/ST/usbx/common/core/src/ux_device_stack_descriptor_send.c ****                 return(UX_ERROR);
 475:Middlewares/ST/usbx/common/core/src/ux_device_stack_descriptor_send.c ****             }
 476:Middlewares/ST/usbx/common/core/src/ux_device_stack_descriptor_send.c ****         }
 477:Middlewares/ST/usbx/common/core/src/ux_device_stack_descriptor_send.c ****         break;
 478:Middlewares/ST/usbx/common/core/src/ux_device_stack_descriptor_send.c **** 
 479:Middlewares/ST/usbx/common/core/src/ux_device_stack_descriptor_send.c ****     default:
 480:Middlewares/ST/usbx/common/core/src/ux_device_stack_descriptor_send.c **** 
 481:Middlewares/ST/usbx/common/core/src/ux_device_stack_descriptor_send.c ****         /* Stall the endpoint.  */
 482:Middlewares/ST/usbx/common/core/src/ux_device_stack_descriptor_send.c ****         dcd -> ux_slave_dcd_function(dcd, UX_DCD_STALL_ENDPOINT, endpoint);
 483:Middlewares/ST/usbx/common/core/src/ux_device_stack_descriptor_send.c ****         return(UX_ERROR);
 484:Middlewares/ST/usbx/common/core/src/ux_device_stack_descriptor_send.c ****     }
 485:Middlewares/ST/usbx/common/core/src/ux_device_stack_descriptor_send.c **** 
 486:Middlewares/ST/usbx/common/core/src/ux_device_stack_descriptor_send.c ****     /* Return the status to the caller.  */
 487:Middlewares/ST/usbx/common/core/src/ux_device_stack_descriptor_send.c ****     return(status);
 488:Middlewares/ST/usbx/common/core/src/ux_device_stack_descriptor_send.c **** }
 230              		.loc 1 488 1 view .LVU75
 231 00a4 0DB0     		add	sp, sp, #52
 232              		.cfi_remember_state
 233              		.cfi_def_cfa_offset 36
 234              		@ sp needed
 235 00a6 BDE8F08F 		pop	{r4, r5, r6, r7, r8, r9, r10, fp, pc}
 236              	.LVL27:
 237              	.L3:
 238              		.cfi_restore_state
 215:Middlewares/ST/usbx/common/core/src/ux_device_stack_descriptor_send.c ****         {
 239              		.loc 1 215 9 is_stmt 1 view .LVU76
 215:Middlewares/ST/usbx/common/core/src/ux_device_stack_descriptor_send.c ****         {
ARM GAS  C:\Users\sapph\AppData\Local\Temp\ccw3t0OM.s 			page 14


 240              		.loc 1 215 12 is_stmt 0 view .LVU77
 241 00aa 072C     		cmp	r4, #7
 242 00ac 06D0     		beq	.L46
 230:Middlewares/ST/usbx/common/core/src/ux_device_stack_descriptor_send.c ****             device_framework_length =  _ux_system_slave -> ux_system_slave_device_framework_length;
 243              		.loc 1 230 13 is_stmt 1 view .LVU78
 230:Middlewares/ST/usbx/common/core/src/ux_device_stack_descriptor_send.c ****             device_framework_length =  _ux_system_slave -> ux_system_slave_device_framework_length;
 244              		.loc 1 230 30 is_stmt 0 view .LVU79
 245 00ae D6F81451 		ldr	r5, [r6, #276]
 246              	.LVL28:
 231:Middlewares/ST/usbx/common/core/src/ux_device_stack_descriptor_send.c ****             device_framework_end = device_framework + device_framework_length;
 247              		.loc 1 231 13 is_stmt 1 view .LVU80
 231:Middlewares/ST/usbx/common/core/src/ux_device_stack_descriptor_send.c ****             device_framework_end = device_framework + device_framework_length;
 248              		.loc 1 231 37 is_stmt 0 view .LVU81
 249 00b2 D6F81811 		ldr	r1, [r6, #280]
 250              	.LVL29:
 232:Middlewares/ST/usbx/common/core/src/ux_device_stack_descriptor_send.c ****         }
 251              		.loc 1 232 13 is_stmt 1 view .LVU82
 232:Middlewares/ST/usbx/common/core/src/ux_device_stack_descriptor_send.c ****         }
 252              		.loc 1 232 34 is_stmt 0 view .LVU83
 253 00b6 2944     		add	r1, r1, r5
 254              	.LVL30:
 255              	.L17:
 172:Middlewares/ST/usbx/common/core/src/ux_device_stack_descriptor_send.c **** 
 256              		.loc 1 172 20 view .LVU84
 257 00b8 0020     		movs	r0, #0
 258 00ba 09E0     		b	.L22
 259              	.LVL31:
 260              	.L46:
 221:Middlewares/ST/usbx/common/core/src/ux_device_stack_descriptor_send.c ****             device_framework_length =  _ux_system_slave -> ux_system_slave_device_framework_length_
 261              		.loc 1 221 13 is_stmt 1 view .LVU85
 221:Middlewares/ST/usbx/common/core/src/ux_device_stack_descriptor_send.c ****             device_framework_length =  _ux_system_slave -> ux_system_slave_device_framework_length_
 262              		.loc 1 221 30 is_stmt 0 view .LVU86
 263 00bc D6F81C51 		ldr	r5, [r6, #284]
 264              	.LVL32:
 222:Middlewares/ST/usbx/common/core/src/ux_device_stack_descriptor_send.c ****             device_framework_end = device_framework + device_framework_length;
 265              		.loc 1 222 13 is_stmt 1 view .LVU87
 222:Middlewares/ST/usbx/common/core/src/ux_device_stack_descriptor_send.c ****             device_framework_end = device_framework + device_framework_length;
 266              		.loc 1 222 37 is_stmt 0 view .LVU88
 267 00c0 D6F82011 		ldr	r1, [r6, #288]
 268              	.LVL33:
 223:Middlewares/ST/usbx/common/core/src/ux_device_stack_descriptor_send.c ****         }
 269              		.loc 1 223 13 is_stmt 1 view .LVU89
 223:Middlewares/ST/usbx/common/core/src/ux_device_stack_descriptor_send.c ****         }
 270              		.loc 1 223 34 is_stmt 0 view .LVU90
 271 00c4 2944     		add	r1, r1, r5
 272              	.LVL34:
 223:Middlewares/ST/usbx/common/core/src/ux_device_stack_descriptor_send.c ****         }
 273              		.loc 1 223 34 view .LVU91
 274 00c6 F7E7     		b	.L17
 275              	.LVL35:
 276              	.L49:
 247:Middlewares/ST/usbx/common/core/src/ux_device_stack_descriptor_send.c ****                 {
 277              		.loc 1 247 17 is_stmt 1 view .LVU92
 247:Middlewares/ST/usbx/common/core/src/ux_device_stack_descriptor_send.c ****                 {
 278              		.loc 1 247 21 is_stmt 0 view .LVU93
 279 00c8 6A78     		ldrb	r2, [r5, #1]	@ zero_extendqisi2
 247:Middlewares/ST/usbx/common/core/src/ux_device_stack_descriptor_send.c ****                 {
ARM GAS  C:\Users\sapph\AppData\Local\Temp\ccw3t0OM.s 			page 15


 280              		.loc 1 247 20 view .LVU94
 281 00ca 0F2A     		cmp	r2, #15
 282 00cc 0CD0     		beq	.L47
 283              	.L19:
 303:Middlewares/ST/usbx/common/core/src/ux_device_stack_descriptor_send.c **** 
 284              		.loc 1 303 13 is_stmt 1 view .LVU95
 306:Middlewares/ST/usbx/common/core/src/ux_device_stack_descriptor_send.c ****         }
 285              		.loc 1 306 13 view .LVU96
 306:Middlewares/ST/usbx/common/core/src/ux_device_stack_descriptor_send.c ****         }
 286              		.loc 1 306 30 is_stmt 0 view .LVU97
 287 00ce 1D44     		add	r5, r5, r3
 288              	.LVL36:
 289              	.L22:
 236:Middlewares/ST/usbx/common/core/src/ux_device_stack_descriptor_send.c ****         {
 290              		.loc 1 236 33 is_stmt 1 view .LVU98
 291 00d0 8D42     		cmp	r5, r1
 292 00d2 2BD2     		bcs	.L48
 240:Middlewares/ST/usbx/common/core/src/ux_device_stack_descriptor_send.c **** 
 293              		.loc 1 240 13 view .LVU99
 240:Middlewares/ST/usbx/common/core/src/ux_device_stack_descriptor_send.c **** 
 294              		.loc 1 240 42 is_stmt 0 view .LVU100
 295 00d4 2B78     		ldrb	r3, [r5]	@ zero_extendqisi2
 296              	.LVL37:
 245:Middlewares/ST/usbx/common/core/src/ux_device_stack_descriptor_send.c ****             {
 297              		.loc 1 245 13 is_stmt 1 view .LVU101
 245:Middlewares/ST/usbx/common/core/src/ux_device_stack_descriptor_send.c ****             {
 298              		.loc 1 245 16 is_stmt 0 view .LVU102
 299 00d6 0F2C     		cmp	r4, #15
 300 00d8 F6D0     		beq	.L49
 273:Middlewares/ST/usbx/common/core/src/ux_device_stack_descriptor_send.c ****                 {
 301              		.loc 1 273 17 is_stmt 1 view .LVU103
 273:Middlewares/ST/usbx/common/core/src/ux_device_stack_descriptor_send.c ****                 {
 302              		.loc 1 273 21 is_stmt 0 view .LVU104
 303 00da 6A78     		ldrb	r2, [r5, #1]	@ zero_extendqisi2
 273:Middlewares/ST/usbx/common/core/src/ux_device_stack_descriptor_send.c ****                 {
 304              		.loc 1 273 20 view .LVU105
 305 00dc 022A     		cmp	r2, #2
 306 00de F6D1     		bne	.L19
 277:Middlewares/ST/usbx/common/core/src/ux_device_stack_descriptor_send.c ****                     {
 307              		.loc 1 277 21 is_stmt 1 view .LVU106
 277:Middlewares/ST/usbx/common/core/src/ux_device_stack_descriptor_send.c ****                     {
 308              		.loc 1 277 24 is_stmt 0 view .LVU107
 309 00e0 4845     		cmp	r0, r9
 310 00e2 1AD0     		beq	.L50
 297:Middlewares/ST/usbx/common/core/src/ux_device_stack_descriptor_send.c ****                     }
 311              		.loc 1 297 25 is_stmt 1 view .LVU108
 297:Middlewares/ST/usbx/common/core/src/ux_device_stack_descriptor_send.c ****                     }
 312              		.loc 1 297 48 is_stmt 0 view .LVU109
 313 00e4 0130     		adds	r0, r0, #1
 314              	.LVL38:
 297:Middlewares/ST/usbx/common/core/src/ux_device_stack_descriptor_send.c ****                     }
 315              		.loc 1 297 48 view .LVU110
 316 00e6 F2E7     		b	.L19
 317              	.L47:
 251:Middlewares/ST/usbx/common/core/src/ux_device_stack_descriptor_send.c ****                                 _ux_system_bos_descriptor_structure,
 318              		.loc 1 251 21 is_stmt 1 view .LVU111
 319 00e8 6B46     		mov	r3, sp
ARM GAS  C:\Users\sapph\AppData\Local\Temp\ccw3t0OM.s 			page 16


 320              	.LVL39:
 251:Middlewares/ST/usbx/common/core/src/ux_device_stack_descriptor_send.c ****                                 _ux_system_bos_descriptor_structure,
 321              		.loc 1 251 21 is_stmt 0 view .LVU112
 322 00ea 0422     		movs	r2, #4
 323 00ec 5E49     		ldr	r1, .L54+4
 324              	.LVL40:
 251:Middlewares/ST/usbx/common/core/src/ux_device_stack_descriptor_send.c ****                                 _ux_system_bos_descriptor_structure,
 325              		.loc 1 251 21 view .LVU113
 326 00ee 2846     		mov	r0, r5
 327              	.LVL41:
 251:Middlewares/ST/usbx/common/core/src/ux_device_stack_descriptor_send.c ****                                 _ux_system_bos_descriptor_structure,
 328              		.loc 1 251 21 view .LVU114
 329 00f0 FFF7FEFF 		bl	_ux_utility_descriptor_parse
 330              	.LVL42:
 257:Middlewares/ST/usbx/common/core/src/ux_device_stack_descriptor_send.c **** 
 331              		.loc 1 257 21 is_stmt 1 view .LVU115
 257:Middlewares/ST/usbx/common/core/src/ux_device_stack_descriptor_send.c **** 
 332              		.loc 1 257 46 is_stmt 0 view .LVU116
 333 00f4 DDF80890 		ldr	r9, [sp, #8]
 334              	.LVL43:
 260:Middlewares/ST/usbx/common/core/src/ux_device_stack_descriptor_send.c ****                     break;
 335              		.loc 1 260 21 is_stmt 1 view .LVU117
 261:Middlewares/ST/usbx/common/core/src/ux_device_stack_descriptor_send.c ****                 }
 336              		.loc 1 261 21 view .LVU118
 310:Middlewares/ST/usbx/common/core/src/ux_device_stack_descriptor_send.c ****         {
 337              		.loc 1 310 9 view .LVU119
 338              	.L20:
 315:Middlewares/ST/usbx/common/core/src/ux_device_stack_descriptor_send.c ****                 length =  target_descriptor_length;
 339              		.loc 1 315 13 view .LVU120
 315:Middlewares/ST/usbx/common/core/src/ux_device_stack_descriptor_send.c ****                 length =  target_descriptor_length;
 340              		.loc 1 315 16 is_stmt 0 view .LVU121
 341 00f8 B945     		cmp	r9, r7
 342 00fa 00D3     		bcc	.L24
 318:Middlewares/ST/usbx/common/core/src/ux_device_stack_descriptor_send.c **** 
 343              		.loc 1 318 24 view .LVU122
 344 00fc B946     		mov	r9, r7
 345              	.LVL44:
 346              	.L24:
 321:Middlewares/ST/usbx/common/core/src/ux_device_stack_descriptor_send.c ****             {
 347              		.loc 1 321 13 is_stmt 1 view .LVU123
 321:Middlewares/ST/usbx/common/core/src/ux_device_stack_descriptor_send.c ****             {
 348              		.loc 1 321 16 is_stmt 0 view .LVU124
 349 00fe B9F5807F 		cmp	r9, #256
 350 0102 15D9     		bls	.L25
 324:Middlewares/ST/usbx/common/core/src/ux_device_stack_descriptor_send.c **** 
 351              		.loc 1 324 17 is_stmt 1 view .LVU125
 352 0104 1222     		movs	r2, #18
 353 0106 0921     		movs	r1, #9
 354 0108 0220     		movs	r0, #2
 355 010a FFF7FEFF 		bl	_ux_system_error_handler
 356              	.LVL45:
 330:Middlewares/ST/usbx/common/core/src/ux_device_stack_descriptor_send.c ****                 break;
 357              		.loc 1 330 17 view .LVU126
 330:Middlewares/ST/usbx/common/core/src/ux_device_stack_descriptor_send.c ****                 break;
 358              		.loc 1 330 31 is_stmt 0 view .LVU127
 359 010e B369     		ldr	r3, [r6, #24]
 330:Middlewares/ST/usbx/common/core/src/ux_device_stack_descriptor_send.c ****                 break;
ARM GAS  C:\Users\sapph\AppData\Local\Temp\ccw3t0OM.s 			page 17


 360              		.loc 1 330 27 view .LVU128
 361 0110 5246     		mov	r2, r10
 362 0112 1421     		movs	r1, #20
 363 0114 3046     		mov	r0, r6
 364 0116 9847     		blx	r3
 365              	.LVL46:
 331:Middlewares/ST/usbx/common/core/src/ux_device_stack_descriptor_send.c ****             }
 366              		.loc 1 331 17 is_stmt 1 view .LVU129
 367 0118 C4E7     		b	.L1
 368              	.LVL47:
 369              	.L50:
 281:Middlewares/ST/usbx/common/core/src/ux_device_stack_descriptor_send.c ****                                     _ux_system_configuration_descriptor_structure,
 370              		.loc 1 281 25 view .LVU130
 371 011a 04AB     		add	r3, sp, #16
 372              	.LVL48:
 281:Middlewares/ST/usbx/common/core/src/ux_device_stack_descriptor_send.c ****                                     _ux_system_configuration_descriptor_structure,
 373              		.loc 1 281 25 is_stmt 0 view .LVU131
 374 011c 0822     		movs	r2, #8
 375 011e 5349     		ldr	r1, .L54+8
 376              	.LVL49:
 281:Middlewares/ST/usbx/common/core/src/ux_device_stack_descriptor_send.c ****                                     _ux_system_configuration_descriptor_structure,
 377              		.loc 1 281 25 view .LVU132
 378 0120 2846     		mov	r0, r5
 379              	.LVL50:
 281:Middlewares/ST/usbx/common/core/src/ux_device_stack_descriptor_send.c ****                                     _ux_system_configuration_descriptor_structure,
 380              		.loc 1 281 25 view .LVU133
 381 0122 FFF7FEFF 		bl	_ux_utility_descriptor_parse
 382              	.LVL51:
 287:Middlewares/ST/usbx/common/core/src/ux_device_stack_descriptor_send.c **** 
 383              		.loc 1 287 25 is_stmt 1 view .LVU134
 287:Middlewares/ST/usbx/common/core/src/ux_device_stack_descriptor_send.c **** 
 384              		.loc 1 287 50 is_stmt 0 view .LVU135
 385 0126 DDF81890 		ldr	r9, [sp, #24]
 386              	.LVL52:
 290:Middlewares/ST/usbx/common/core/src/ux_device_stack_descriptor_send.c ****                         break;
 387              		.loc 1 290 25 is_stmt 1 view .LVU136
 291:Middlewares/ST/usbx/common/core/src/ux_device_stack_descriptor_send.c ****                     }
 388              		.loc 1 291 25 view .LVU137
 310:Middlewares/ST/usbx/common/core/src/ux_device_stack_descriptor_send.c ****         {
 389              		.loc 1 310 9 view .LVU138
 390 012a E5E7     		b	.L20
 391              	.LVL53:
 392              	.L48:
 310:Middlewares/ST/usbx/common/core/src/ux_device_stack_descriptor_send.c ****         {
 393              		.loc 1 310 9 is_stmt 0 view .LVU139
 394 012c FF20     		movs	r0, #255
 395              	.LVL54:
 310:Middlewares/ST/usbx/common/core/src/ux_device_stack_descriptor_send.c ****         {
 396              		.loc 1 310 9 view .LVU140
 397 012e B9E7     		b	.L1
 398              	.LVL55:
 399              	.L25:
 335:Middlewares/ST/usbx/common/core/src/ux_device_stack_descriptor_send.c ****                                 device_framework, length); /* Use case of memcpy is verified. */
 400              		.loc 1 335 13 is_stmt 1 view .LVU141
 401 0130 4A46     		mov	r2, r9
 402 0132 2946     		mov	r1, r5
 403 0134 D6F89C00 		ldr	r0, [r6, #156]
ARM GAS  C:\Users\sapph\AppData\Local\Temp\ccw3t0OM.s 			page 18


 404 0138 FFF7FEFF 		bl	_ux_utility_memory_copy
 405              	.LVL56:
 340:Middlewares/ST/usbx/common/core/src/ux_device_stack_descriptor_send.c **** 
 406              		.loc 1 340 13 view .LVU142
 340:Middlewares/ST/usbx/common/core/src/ux_device_stack_descriptor_send.c **** 
 407              		.loc 1 340 32 is_stmt 0 view .LVU143
 408 013c D6F89C30 		ldr	r3, [r6, #156]
 340:Middlewares/ST/usbx/common/core/src/ux_device_stack_descriptor_send.c **** 
 409              		.loc 1 340 79 view .LVU144
 410 0140 5C70     		strb	r4, [r3, #1]
 343:Middlewares/ST/usbx/common/core/src/ux_device_stack_descriptor_send.c ****         }
 411              		.loc 1 343 13 is_stmt 1 view .LVU145
 343:Middlewares/ST/usbx/common/core/src/ux_device_stack_descriptor_send.c ****         }
 412              		.loc 1 343 23 is_stmt 0 view .LVU146
 413 0142 3A46     		mov	r2, r7
 414 0144 4946     		mov	r1, r9
 415 0146 4046     		mov	r0, r8
 416 0148 FFF7FEFF 		bl	_ux_device_stack_transfer_request
 417              	.LVL57:
 343:Middlewares/ST/usbx/common/core/src/ux_device_stack_descriptor_send.c ****         }
 418              		.loc 1 343 23 view .LVU147
 419 014c AAE7     		b	.L1
 420              	.LVL58:
 421              	.L7:
 343:Middlewares/ST/usbx/common/core/src/ux_device_stack_descriptor_send.c ****         }
 422              		.loc 1 343 23 view .LVU148
 423 014e 0D46     		mov	r5, r1
 350:Middlewares/ST/usbx/common/core/src/ux_device_stack_descriptor_send.c ****         {
 424              		.loc 1 350 9 is_stmt 1 view .LVU149
 350:Middlewares/ST/usbx/common/core/src/ux_device_stack_descriptor_send.c ****         {
 425              		.loc 1 350 12 is_stmt 0 view .LVU150
 426 0150 B9F1000F 		cmp	r9, #0
 427 0154 2BD1     		bne	.L26
 354:Middlewares/ST/usbx/common/core/src/ux_device_stack_descriptor_send.c ****             {
 428              		.loc 1 354 13 is_stmt 1 view .LVU151
 354:Middlewares/ST/usbx/common/core/src/ux_device_stack_descriptor_send.c ****             {
 429              		.loc 1 354 34 is_stmt 0 view .LVU152
 430 0156 D6F83831 		ldr	r3, [r6, #312]
 354:Middlewares/ST/usbx/common/core/src/ux_device_stack_descriptor_send.c ****             {
 431              		.loc 1 354 82 view .LVU153
 432 015a 9A1C     		adds	r2, r3, #2
 354:Middlewares/ST/usbx/common/core/src/ux_device_stack_descriptor_send.c ****             {
 433              		.loc 1 354 16 view .LVU154
 434 015c B2F5807F 		cmp	r2, #256
 435 0160 0AD9     		bls	.L27
 358:Middlewares/ST/usbx/common/core/src/ux_device_stack_descriptor_send.c **** 
 436              		.loc 1 358 17 is_stmt 1 view .LVU155
 437 0162 1222     		movs	r2, #18
 438 0164 0921     		movs	r1, #9
 439              	.LVL59:
 358:Middlewares/ST/usbx/common/core/src/ux_device_stack_descriptor_send.c **** 
 440              		.loc 1 358 17 is_stmt 0 view .LVU156
 441 0166 0220     		movs	r0, #2
 442 0168 FFF7FEFF 		bl	_ux_system_error_handler
 443              	.LVL60:
 364:Middlewares/ST/usbx/common/core/src/ux_device_stack_descriptor_send.c ****                 break;
 444              		.loc 1 364 17 is_stmt 1 view .LVU157
ARM GAS  C:\Users\sapph\AppData\Local\Temp\ccw3t0OM.s 			page 19


 364:Middlewares/ST/usbx/common/core/src/ux_device_stack_descriptor_send.c ****                 break;
 445              		.loc 1 364 31 is_stmt 0 view .LVU158
 446 016c B369     		ldr	r3, [r6, #24]
 364:Middlewares/ST/usbx/common/core/src/ux_device_stack_descriptor_send.c ****                 break;
 447              		.loc 1 364 27 view .LVU159
 448 016e 5246     		mov	r2, r10
 449 0170 1421     		movs	r1, #20
 450 0172 3046     		mov	r0, r6
 451 0174 9847     		blx	r3
 452              	.LVL61:
 365:Middlewares/ST/usbx/common/core/src/ux_device_stack_descriptor_send.c ****             }
 453              		.loc 1 365 17 is_stmt 1 view .LVU160
 454 0176 95E7     		b	.L1
 455              	.LVL62:
 456              	.L27:
 369:Middlewares/ST/usbx/common/core/src/ux_device_stack_descriptor_send.c **** 
 457              		.loc 1 369 13 view .LVU161
 369:Middlewares/ST/usbx/common/core/src/ux_device_stack_descriptor_send.c **** 
 458              		.loc 1 369 27 is_stmt 0 view .LVU162
 459 0178 D6F89C00 		ldr	r0, [r6, #156]
 460              	.LVL63:
 372:Middlewares/ST/usbx/common/core/src/ux_device_stack_descriptor_send.c **** 
 461              		.loc 1 372 13 is_stmt 1 view .LVU163
 372:Middlewares/ST/usbx/common/core/src/ux_device_stack_descriptor_send.c **** 
 462              		.loc 1 372 31 is_stmt 0 view .LVU164
 463 017c 0233     		adds	r3, r3, #2
 372:Middlewares/ST/usbx/common/core/src/ux_device_stack_descriptor_send.c **** 
 464              		.loc 1 372 28 view .LVU165
 465 017e 0370     		strb	r3, [r0]
 375:Middlewares/ST/usbx/common/core/src/ux_device_stack_descriptor_send.c **** 
 466              		.loc 1 375 13 is_stmt 1 view .LVU166
 375:Middlewares/ST/usbx/common/core/src/ux_device_stack_descriptor_send.c **** 
 467              		.loc 1 375 33 is_stmt 0 view .LVU167
 468 0180 0323     		movs	r3, #3
 469 0182 4370     		strb	r3, [r0, #1]
 378:Middlewares/ST/usbx/common/core/src/ux_device_stack_descriptor_send.c ****                                                         _ux_system_slave -> ux_system_slave_languag
 470              		.loc 1 378 13 is_stmt 1 view .LVU168
 378:Middlewares/ST/usbx/common/core/src/ux_device_stack_descriptor_send.c ****                                                         _ux_system_slave -> ux_system_slave_languag
 471              		.loc 1 378 71 is_stmt 0 view .LVU169
 472 0184 374C     		ldr	r4, .L54
 473              	.LVL64:
 378:Middlewares/ST/usbx/common/core/src/ux_device_stack_descriptor_send.c ****                                                         _ux_system_slave -> ux_system_slave_languag
 474              		.loc 1 378 71 view .LVU170
 475 0186 2368     		ldr	r3, [r4]
 378:Middlewares/ST/usbx/common/core/src/ux_device_stack_descriptor_send.c ****                                                         _ux_system_slave -> ux_system_slave_languag
 476              		.loc 1 378 13 view .LVU171
 477 0188 D3F83821 		ldr	r2, [r3, #312]
 478 018c D3F83411 		ldr	r1, [r3, #308]
 479              	.LVL65:
 378:Middlewares/ST/usbx/common/core/src/ux_device_stack_descriptor_send.c ****                                                         _ux_system_slave -> ux_system_slave_languag
 480              		.loc 1 378 13 view .LVU172
 481 0190 0230     		adds	r0, r0, #2
 482              	.LVL66:
 378:Middlewares/ST/usbx/common/core/src/ux_device_stack_descriptor_send.c ****                                                         _ux_system_slave -> ux_system_slave_languag
 483              		.loc 1 378 13 view .LVU173
 484 0192 FFF7FEFF 		bl	_ux_utility_memory_copy
 485              	.LVL67:
ARM GAS  C:\Users\sapph\AppData\Local\Temp\ccw3t0OM.s 			page 20


 382:Middlewares/ST/usbx/common/core/src/ux_device_stack_descriptor_send.c ****                 length =  _ux_system_slave -> ux_system_slave_language_id_framework_length + 2;
 486              		.loc 1 382 13 is_stmt 1 view .LVU174
 382:Middlewares/ST/usbx/common/core/src/ux_device_stack_descriptor_send.c ****                 length =  _ux_system_slave -> ux_system_slave_language_id_framework_length + 2;
 487              		.loc 1 382 48 is_stmt 0 view .LVU175
 488 0196 2368     		ldr	r3, [r4]
 489 0198 D3F83811 		ldr	r1, [r3, #312]
 382:Middlewares/ST/usbx/common/core/src/ux_device_stack_descriptor_send.c ****                 length =  _ux_system_slave -> ux_system_slave_language_id_framework_length + 2;
 490              		.loc 1 382 96 view .LVU176
 491 019c 0231     		adds	r1, r1, #2
 382:Middlewares/ST/usbx/common/core/src/ux_device_stack_descriptor_send.c ****                 length =  _ux_system_slave -> ux_system_slave_language_id_framework_length + 2;
 492              		.loc 1 382 16 view .LVU177
 493 019e B942     		cmp	r1, r7
 494 01a0 00D3     		bcc	.L28
 385:Middlewares/ST/usbx/common/core/src/ux_device_stack_descriptor_send.c **** 
 495              		.loc 1 385 24 view .LVU178
 496 01a2 3946     		mov	r1, r7
 497              	.L28:
 498              	.LVL68:
 388:Middlewares/ST/usbx/common/core/src/ux_device_stack_descriptor_send.c ****         }
 499              		.loc 1 388 13 is_stmt 1 view .LVU179
 388:Middlewares/ST/usbx/common/core/src/ux_device_stack_descriptor_send.c ****         }
 500              		.loc 1 388 23 is_stmt 0 view .LVU180
 501 01a4 3A46     		mov	r2, r7
 502 01a6 4046     		mov	r0, r8
 503 01a8 FFF7FEFF 		bl	_ux_device_stack_transfer_request
 504              	.LVL69:
 388:Middlewares/ST/usbx/common/core/src/ux_device_stack_descriptor_send.c ****         }
 505              		.loc 1 388 23 view .LVU181
 506 01ac 7AE7     		b	.L1
 507              	.LVL70:
 508              	.L26:
 395:Middlewares/ST/usbx/common/core/src/ux_device_stack_descriptor_send.c ****             string_framework_length =  _ux_system_slave -> ux_system_slave_string_framework_length;
 509              		.loc 1 395 13 is_stmt 1 view .LVU182
 395:Middlewares/ST/usbx/common/core/src/ux_device_stack_descriptor_send.c ****             string_framework_length =  _ux_system_slave -> ux_system_slave_string_framework_length;
 510              		.loc 1 395 30 is_stmt 0 view .LVU183
 511 01ae D6F82CB1 		ldr	fp, [r6, #300]
 512              	.LVL71:
 396:Middlewares/ST/usbx/common/core/src/ux_device_stack_descriptor_send.c **** 
 513              		.loc 1 396 13 is_stmt 1 view .LVU184
 396:Middlewares/ST/usbx/common/core/src/ux_device_stack_descriptor_send.c **** 
 514              		.loc 1 396 37 is_stmt 0 view .LVU185
 515 01b2 D6F83041 		ldr	r4, [r6, #304]
 516              	.LVL72:
 400:Middlewares/ST/usbx/common/core/src/ux_device_stack_descriptor_send.c ****             {
 517              		.loc 1 400 13 is_stmt 1 view .LVU186
 400:Middlewares/ST/usbx/common/core/src/ux_device_stack_descriptor_send.c ****             {
 518              		.loc 1 400 19 is_stmt 0 view .LVU187
 519 01b6 1BE0     		b	.L29
 520              	.LVL73:
 521              	.L52:
 416:Middlewares/ST/usbx/common/core/src/ux_device_stack_descriptor_send.c **** 
 522              		.loc 1 416 29 is_stmt 1 view .LVU188
 523 01b8 1222     		movs	r2, #18
 524 01ba 0921     		movs	r1, #9
 525 01bc 0220     		movs	r0, #2
 526 01be FFF7FEFF 		bl	_ux_system_error_handler
 527              	.LVL74:
ARM GAS  C:\Users\sapph\AppData\Local\Temp\ccw3t0OM.s 			page 21


 422:Middlewares/ST/usbx/common/core/src/ux_device_stack_descriptor_send.c ****                             break;
 528              		.loc 1 422 29 view .LVU189
 422:Middlewares/ST/usbx/common/core/src/ux_device_stack_descriptor_send.c ****                             break;
 529              		.loc 1 422 43 is_stmt 0 view .LVU190
 530 01c2 B369     		ldr	r3, [r6, #24]
 422:Middlewares/ST/usbx/common/core/src/ux_device_stack_descriptor_send.c ****                             break;
 531              		.loc 1 422 39 view .LVU191
 532 01c4 5246     		mov	r2, r10
 533 01c6 1421     		movs	r1, #20
 534 01c8 3046     		mov	r0, r6
 535 01ca 9847     		blx	r3
 536              	.LVL75:
 423:Middlewares/ST/usbx/common/core/src/ux_device_stack_descriptor_send.c ****                         }
 537              		.loc 1 423 29 is_stmt 1 view .LVU192
 538 01cc 39E0     		b	.L32
 539              	.LVL76:
 540              	.L53:
 452:Middlewares/ST/usbx/common/core/src/ux_device_stack_descriptor_send.c ****                             length =  (ULONG)((*(string_framework + 3)*2) + 2);
 541              		.loc 1 452 25 view .LVU193
 452:Middlewares/ST/usbx/common/core/src/ux_device_stack_descriptor_send.c ****                             length =  (ULONG)((*(string_framework + 3)*2) + 2);
 542              		.loc 1 452 78 is_stmt 0 view .LVU194
 543 01ce 0132     		adds	r2, r2, #1
 544 01d0 5100     		lsls	r1, r2, #1
 545              	.LVL77:
 452:Middlewares/ST/usbx/common/core/src/ux_device_stack_descriptor_send.c ****                             length =  (ULONG)((*(string_framework + 3)*2) + 2);
 546              		.loc 1 452 28 view .LVU195
 547 01d2 B7EB420F 		cmp	r7, r2, lsl #1
 548 01d6 00D8     		bhi	.L35
 455:Middlewares/ST/usbx/common/core/src/ux_device_stack_descriptor_send.c **** 
 549              		.loc 1 455 36 view .LVU196
 550 01d8 3946     		mov	r1, r7
 551              	.L35:
 552              	.LVL78:
 458:Middlewares/ST/usbx/common/core/src/ux_device_stack_descriptor_send.c ****                         break;
 553              		.loc 1 458 25 is_stmt 1 view .LVU197
 458:Middlewares/ST/usbx/common/core/src/ux_device_stack_descriptor_send.c ****                         break;
 554              		.loc 1 458 35 is_stmt 0 view .LVU198
 555 01da 3A46     		mov	r2, r7
 556 01dc 4046     		mov	r0, r8
 557 01de FFF7FEFF 		bl	_ux_device_stack_transfer_request
 558              	.LVL79:
 459:Middlewares/ST/usbx/common/core/src/ux_device_stack_descriptor_send.c ****                     }
 559              		.loc 1 459 25 is_stmt 1 view .LVU199
 560 01e2 2EE0     		b	.L32
 561              	.LVL80:
 562              	.L30:
 464:Middlewares/ST/usbx/common/core/src/ux_device_stack_descriptor_send.c ****                 string_framework +=  (ULONG) *(string_framework + 3) + 4;
 563              		.loc 1 464 17 view .LVU200
 464:Middlewares/ST/usbx/common/core/src/ux_device_stack_descriptor_send.c ****                 string_framework +=  (ULONG) *(string_framework + 3) + 4;
 564              		.loc 1 464 53 is_stmt 0 view .LVU201
 565 01e4 9BF80330 		ldrb	r3, [fp, #3]	@ zero_extendqisi2
 464:Middlewares/ST/usbx/common/core/src/ux_device_stack_descriptor_send.c ****                 string_framework +=  (ULONG) *(string_framework + 3) + 4;
 566              		.loc 1 464 41 view .LVU202
 567 01e8 E41A     		subs	r4, r4, r3
 568              	.LVL81:
 464:Middlewares/ST/usbx/common/core/src/ux_device_stack_descriptor_send.c ****                 string_framework +=  (ULONG) *(string_framework + 3) + 4;
 569              		.loc 1 464 41 view .LVU203
ARM GAS  C:\Users\sapph\AppData\Local\Temp\ccw3t0OM.s 			page 22


 570 01ea 043C     		subs	r4, r4, #4
 571              	.LVL82:
 465:Middlewares/ST/usbx/common/core/src/ux_device_stack_descriptor_send.c ****             }
 572              		.loc 1 465 17 is_stmt 1 view .LVU204
 465:Middlewares/ST/usbx/common/core/src/ux_device_stack_descriptor_send.c ****             }
 573              		.loc 1 465 34 is_stmt 0 view .LVU205
 574 01ec 0433     		adds	r3, r3, #4
 575 01ee 9B44     		add	fp, fp, r3
 576              	.LVL83:
 577              	.L29:
 400:Middlewares/ST/usbx/common/core/src/ux_device_stack_descriptor_send.c ****             {
 578              		.loc 1 400 44 is_stmt 1 view .LVU206
 579 01f0 34B3     		cbz	r4, .L51
 404:Middlewares/ST/usbx/common/core/src/ux_device_stack_descriptor_send.c ****                 {
 580              		.loc 1 404 17 view .LVU207
 404:Middlewares/ST/usbx/common/core/src/ux_device_stack_descriptor_send.c ****                 {
 581              		.loc 1 404 21 is_stmt 0 view .LVU208
 582 01f2 5846     		mov	r0, fp
 583 01f4 FFF7FEFF 		bl	_ux_utility_short_get
 584              	.LVL84:
 404:Middlewares/ST/usbx/common/core/src/ux_device_stack_descriptor_send.c ****                 {
 585              		.loc 1 404 20 discriminator 1 view .LVU209
 586 01f8 A842     		cmp	r0, r5
 587 01fa F3D1     		bne	.L30
 408:Middlewares/ST/usbx/common/core/src/ux_device_stack_descriptor_send.c ****                     {
 588              		.loc 1 408 21 is_stmt 1 view .LVU210
 408:Middlewares/ST/usbx/common/core/src/ux_device_stack_descriptor_send.c ****                     {
 589              		.loc 1 408 25 is_stmt 0 view .LVU211
 590 01fc 9BF80230 		ldrb	r3, [fp, #2]	@ zero_extendqisi2
 408:Middlewares/ST/usbx/common/core/src/ux_device_stack_descriptor_send.c ****                     {
 591              		.loc 1 408 24 view .LVU212
 592 0200 4B45     		cmp	r3, r9
 593 0202 EFD1     		bne	.L30
 412:Middlewares/ST/usbx/common/core/src/ux_device_stack_descriptor_send.c ****                         {
 594              		.loc 1 412 25 is_stmt 1 view .LVU213
 412:Middlewares/ST/usbx/common/core/src/ux_device_stack_descriptor_send.c ****                         {
 595              		.loc 1 412 31 is_stmt 0 view .LVU214
 596 0204 9BF80330 		ldrb	r3, [fp, #3]	@ zero_extendqisi2
 412:Middlewares/ST/usbx/common/core/src/ux_device_stack_descriptor_send.c ****                         {
 597              		.loc 1 412 58 view .LVU215
 598 0208 5A1C     		adds	r2, r3, #1
 412:Middlewares/ST/usbx/common/core/src/ux_device_stack_descriptor_send.c ****                         {
 599              		.loc 1 412 28 view .LVU216
 600 020a 802A     		cmp	r2, #128
 601 020c D4DC     		bgt	.L52
 427:Middlewares/ST/usbx/common/core/src/ux_device_stack_descriptor_send.c **** 
 602              		.loc 1 427 25 is_stmt 1 view .LVU217
 427:Middlewares/ST/usbx/common/core/src/ux_device_stack_descriptor_send.c **** 
 603              		.loc 1 427 39 is_stmt 0 view .LVU218
 604 020e D6F89C10 		ldr	r1, [r6, #156]
 605              	.LVL85:
 435:Middlewares/ST/usbx/common/core/src/ux_device_stack_descriptor_send.c **** 
 606              		.loc 1 435 25 is_stmt 1 view .LVU219
 435:Middlewares/ST/usbx/common/core/src/ux_device_stack_descriptor_send.c **** 
 607              		.loc 1 435 79 is_stmt 0 view .LVU220
 608 0212 0133     		adds	r3, r3, #1
 609 0214 DBB2     		uxtb	r3, r3
ARM GAS  C:\Users\sapph\AppData\Local\Temp\ccw3t0OM.s 			page 23


 435:Middlewares/ST/usbx/common/core/src/ux_device_stack_descriptor_send.c **** 
 610              		.loc 1 435 43 view .LVU221
 611 0216 5B00     		lsls	r3, r3, #1
 435:Middlewares/ST/usbx/common/core/src/ux_device_stack_descriptor_send.c **** 
 612              		.loc 1 435 40 view .LVU222
 613 0218 0B70     		strb	r3, [r1]
 438:Middlewares/ST/usbx/common/core/src/ux_device_stack_descriptor_send.c **** 
 614              		.loc 1 438 25 is_stmt 1 view .LVU223
 438:Middlewares/ST/usbx/common/core/src/ux_device_stack_descriptor_send.c **** 
 615              		.loc 1 438 46 is_stmt 0 view .LVU224
 616 021a 0323     		movs	r3, #3
 617 021c 4B70     		strb	r3, [r1, #1]
 441:Middlewares/ST/usbx/common/core/src/ux_device_stack_descriptor_send.c ****                         {
 618              		.loc 1 441 25 is_stmt 1 view .LVU225
 619              	.LVL86:
 441:Middlewares/ST/usbx/common/core/src/ux_device_stack_descriptor_send.c ****                         {
 620              		.loc 1 441 44 is_stmt 0 view .LVU226
 621 021e 0023     		movs	r3, #0
 622              	.LVL87:
 623              	.L33:
 441:Middlewares/ST/usbx/common/core/src/ux_device_stack_descriptor_send.c ****                         {
 624              		.loc 1 441 63 is_stmt 1 discriminator 1 view .LVU227
 441:Middlewares/ST/usbx/common/core/src/ux_device_stack_descriptor_send.c ****                         {
 625              		.loc 1 441 66 is_stmt 0 discriminator 1 view .LVU228
 626 0220 9BF80320 		ldrb	r2, [fp, #3]	@ zero_extendqisi2
 441:Middlewares/ST/usbx/common/core/src/ux_device_stack_descriptor_send.c ****                         {
 627              		.loc 1 441 63 discriminator 1 view .LVU229
 628 0224 9A42     		cmp	r2, r3
 629 0226 D2D9     		bls	.L53
 445:Middlewares/ST/usbx/common/core/src/ux_device_stack_descriptor_send.c **** 
 630              		.loc 1 445 29 is_stmt 1 view .LVU230
 445:Middlewares/ST/usbx/common/core/src/ux_device_stack_descriptor_send.c **** 
 631              		.loc 1 445 98 is_stmt 0 view .LVU231
 632 0228 181D     		adds	r0, r3, #4
 445:Middlewares/ST/usbx/common/core/src/ux_device_stack_descriptor_send.c **** 
 633              		.loc 1 445 49 view .LVU232
 634 022a 5A1C     		adds	r2, r3, #1
 445:Middlewares/ST/usbx/common/core/src/ux_device_stack_descriptor_send.c **** 
 635              		.loc 1 445 75 view .LVU233
 636 022c 1BF80000 		ldrb	r0, [fp, r0]	@ zero_extendqisi2
 445:Middlewares/ST/usbx/common/core/src/ux_device_stack_descriptor_send.c **** 
 637              		.loc 1 445 72 view .LVU234
 638 0230 01F81200 		strb	r0, [r1, r2, lsl #1]
 448:Middlewares/ST/usbx/common/core/src/ux_device_stack_descriptor_send.c ****                         }
 639              		.loc 1 448 29 is_stmt 1 view .LVU235
 448:Middlewares/ST/usbx/common/core/src/ux_device_stack_descriptor_send.c ****                         }
 640              		.loc 1 448 71 is_stmt 0 view .LVU236
 641 0234 5B00     		lsls	r3, r3, #1
 642              	.LVL88:
 448:Middlewares/ST/usbx/common/core/src/ux_device_stack_descriptor_send.c ****                         }
 643              		.loc 1 448 71 view .LVU237
 644 0236 0333     		adds	r3, r3, #3
 448:Middlewares/ST/usbx/common/core/src/ux_device_stack_descriptor_send.c ****                         }
 645              		.loc 1 448 76 view .LVU238
 646 0238 0020     		movs	r0, #0
 647 023a C854     		strb	r0, [r1, r3]
 441:Middlewares/ST/usbx/common/core/src/ux_device_stack_descriptor_send.c ****                         {
ARM GAS  C:\Users\sapph\AppData\Local\Temp\ccw3t0OM.s 			page 24


 648              		.loc 1 441 106 is_stmt 1 discriminator 3 view .LVU239
 649              	.LVL89:
 441:Middlewares/ST/usbx/common/core/src/ux_device_stack_descriptor_send.c ****                         {
 650              		.loc 1 441 106 is_stmt 0 discriminator 3 view .LVU240
 651 023c 1346     		mov	r3, r2
 652 023e EFE7     		b	.L33
 653              	.LVL90:
 654              	.L51:
 111:Middlewares/ST/usbx/common/core/src/ux_device_stack_descriptor_send.c **** ULONG                           length;
 655              		.loc 1 111 33 view .LVU241
 656 0240 FF20     		movs	r0, #255
 657              	.LVL91:
 658              	.L32:
 469:Middlewares/ST/usbx/common/core/src/ux_device_stack_descriptor_send.c ****             {
 659              		.loc 1 469 13 is_stmt 1 view .LVU242
 469:Middlewares/ST/usbx/common/core/src/ux_device_stack_descriptor_send.c ****             {
 660              		.loc 1 469 16 is_stmt 0 view .LVU243
 661 0242 002C     		cmp	r4, #0
 662 0244 7FF42EAF 		bne	.L1
 473:Middlewares/ST/usbx/common/core/src/ux_device_stack_descriptor_send.c ****                 return(UX_ERROR);
 663              		.loc 1 473 17 is_stmt 1 view .LVU244
 473:Middlewares/ST/usbx/common/core/src/ux_device_stack_descriptor_send.c ****                 return(UX_ERROR);
 664              		.loc 1 473 21 is_stmt 0 view .LVU245
 665 0248 B369     		ldr	r3, [r6, #24]
 473:Middlewares/ST/usbx/common/core/src/ux_device_stack_descriptor_send.c ****                 return(UX_ERROR);
 666              		.loc 1 473 17 view .LVU246
 667 024a 5246     		mov	r2, r10
 668 024c 1421     		movs	r1, #20
 669 024e 3046     		mov	r0, r6
 670              	.LVL92:
 473:Middlewares/ST/usbx/common/core/src/ux_device_stack_descriptor_send.c ****                 return(UX_ERROR);
 671              		.loc 1 473 17 view .LVU247
 672 0250 9847     		blx	r3
 673              	.LVL93:
 474:Middlewares/ST/usbx/common/core/src/ux_device_stack_descriptor_send.c ****             }
 674              		.loc 1 474 17 is_stmt 1 view .LVU248
 474:Middlewares/ST/usbx/common/core/src/ux_device_stack_descriptor_send.c ****             }
 675              		.loc 1 474 23 is_stmt 0 view .LVU249
 676 0252 FF20     		movs	r0, #255
 677 0254 26E7     		b	.L1
 678              	.LVL94:
 679              	.L2:
 482:Middlewares/ST/usbx/common/core/src/ux_device_stack_descriptor_send.c ****         return(UX_ERROR);
 680              		.loc 1 482 9 is_stmt 1 view .LVU250
 482:Middlewares/ST/usbx/common/core/src/ux_device_stack_descriptor_send.c ****         return(UX_ERROR);
 681              		.loc 1 482 13 is_stmt 0 view .LVU251
 682 0256 B369     		ldr	r3, [r6, #24]
 482:Middlewares/ST/usbx/common/core/src/ux_device_stack_descriptor_send.c ****         return(UX_ERROR);
 683              		.loc 1 482 9 view .LVU252
 684 0258 5246     		mov	r2, r10
 685 025a 1421     		movs	r1, #20
 686              	.LVL95:
 482:Middlewares/ST/usbx/common/core/src/ux_device_stack_descriptor_send.c ****         return(UX_ERROR);
 687              		.loc 1 482 9 view .LVU253
 688 025c 3046     		mov	r0, r6
 689 025e 9847     		blx	r3
 690              	.LVL96:
ARM GAS  C:\Users\sapph\AppData\Local\Temp\ccw3t0OM.s 			page 25


 483:Middlewares/ST/usbx/common/core/src/ux_device_stack_descriptor_send.c ****     }
 691              		.loc 1 483 9 is_stmt 1 view .LVU254
 483:Middlewares/ST/usbx/common/core/src/ux_device_stack_descriptor_send.c ****     }
 692              		.loc 1 483 15 is_stmt 0 view .LVU255
 693 0260 FF20     		movs	r0, #255
 694              	.LVL97:
 483:Middlewares/ST/usbx/common/core/src/ux_device_stack_descriptor_send.c ****     }
 695              		.loc 1 483 15 view .LVU256
 696 0262 1FE7     		b	.L1
 697              	.L55:
 698              		.align	2
 699              	.L54:
 700 0264 00000000 		.word	_ux_system_slave
 701 0268 00000000 		.word	_ux_system_bos_descriptor_structure
 702 026c 00000000 		.word	_ux_system_configuration_descriptor_structure
 703              		.cfi_endproc
 704              	.LFE3:
 706              		.text
 707              	.Letext0:
 708              		.file 2 "Middlewares/ST/usbx/ports/generic/inc/ux_port.h"
 709              		.file 3 "Middlewares/ST/usbx/common/core/inc/ux_api.h"
 710              		.file 4 "Middlewares/ST/usbx/common/core/inc/ux_system.h"
 711              		.file 5 "Middlewares/ST/usbx/common/core/inc/ux_utility.h"
 712              		.file 6 "Middlewares/ST/usbx/common/core/inc/ux_device_stack.h"
ARM GAS  C:\Users\sapph\AppData\Local\Temp\ccw3t0OM.s 			page 26

