ARM GAS  C:\Users\sapph\AppData\Local\Temp\ccKsVHSs.s 			page 1


   1              		.cpu cortex-m33
   2              		.arch armv8-m.main
   3              		.fpu fpv4-sp-d16
   4              		.arch_extension dsp
   5              		.eabi_attribute 27, 1
   6              		.eabi_attribute 28, 1
   7              		.eabi_attribute 20, 1
   8              		.eabi_attribute 21, 1
   9              		.eabi_attribute 23, 3
  10              		.eabi_attribute 24, 1
  11              		.eabi_attribute 25, 1
  12              		.eabi_attribute 26, 1
  13              		.eabi_attribute 30, 1
  14              		.eabi_attribute 34, 1
  15              		.eabi_attribute 18, 4
  16              		.file	"ux_device_stack_alternate_setting_set.c"
  17              		.text
  18              	.Ltext0:
  19              		.cfi_sections	.debug_frame
  20              		.file 1 "Middlewares/ST/usbx/common/core/src/ux_device_stack_alternate_setting_set.c"
  21              		.section	.text._ux_device_stack_alternate_setting_set,"ax",%progbits
  22              		.align	1
  23              		.global	_ux_device_stack_alternate_setting_set
  24              		.syntax unified
  25              		.thumb
  26              		.thumb_func
  28              	_ux_device_stack_alternate_setting_set:
  29              	.LVL0:
  30              	.LFB3:
   1:Middlewares/ST/usbx/common/core/src/ux_device_stack_alternate_setting_set.c **** /**************************************************************************/
   2:Middlewares/ST/usbx/common/core/src/ux_device_stack_alternate_setting_set.c **** /*                                                                        */
   3:Middlewares/ST/usbx/common/core/src/ux_device_stack_alternate_setting_set.c **** /*       Copyright (c) Microsoft Corporation. All rights reserved.        */
   4:Middlewares/ST/usbx/common/core/src/ux_device_stack_alternate_setting_set.c **** /*                                                                        */
   5:Middlewares/ST/usbx/common/core/src/ux_device_stack_alternate_setting_set.c **** /*       This software is licensed under the Microsoft Software License   */
   6:Middlewares/ST/usbx/common/core/src/ux_device_stack_alternate_setting_set.c **** /*       Terms for Microsoft Azure RTOS. Full text of the license can be  */
   7:Middlewares/ST/usbx/common/core/src/ux_device_stack_alternate_setting_set.c **** /*       found in the LICENSE file at https://aka.ms/AzureRTOS_EULA       */
   8:Middlewares/ST/usbx/common/core/src/ux_device_stack_alternate_setting_set.c **** /*       and in the root directory of this software.                      */
   9:Middlewares/ST/usbx/common/core/src/ux_device_stack_alternate_setting_set.c **** /*                                                                        */
  10:Middlewares/ST/usbx/common/core/src/ux_device_stack_alternate_setting_set.c **** /**************************************************************************/
  11:Middlewares/ST/usbx/common/core/src/ux_device_stack_alternate_setting_set.c **** 
  12:Middlewares/ST/usbx/common/core/src/ux_device_stack_alternate_setting_set.c **** 
  13:Middlewares/ST/usbx/common/core/src/ux_device_stack_alternate_setting_set.c **** /**************************************************************************/
  14:Middlewares/ST/usbx/common/core/src/ux_device_stack_alternate_setting_set.c **** /**************************************************************************/
  15:Middlewares/ST/usbx/common/core/src/ux_device_stack_alternate_setting_set.c **** /**                                                                       */ 
  16:Middlewares/ST/usbx/common/core/src/ux_device_stack_alternate_setting_set.c **** /** USBX Component                                                        */ 
  17:Middlewares/ST/usbx/common/core/src/ux_device_stack_alternate_setting_set.c **** /**                                                                       */
  18:Middlewares/ST/usbx/common/core/src/ux_device_stack_alternate_setting_set.c **** /**   Device Stack                                                        */
  19:Middlewares/ST/usbx/common/core/src/ux_device_stack_alternate_setting_set.c **** /**                                                                       */
  20:Middlewares/ST/usbx/common/core/src/ux_device_stack_alternate_setting_set.c **** /**************************************************************************/
  21:Middlewares/ST/usbx/common/core/src/ux_device_stack_alternate_setting_set.c **** /**************************************************************************/
  22:Middlewares/ST/usbx/common/core/src/ux_device_stack_alternate_setting_set.c **** 
  23:Middlewares/ST/usbx/common/core/src/ux_device_stack_alternate_setting_set.c **** #define UX_SOURCE_CODE
  24:Middlewares/ST/usbx/common/core/src/ux_device_stack_alternate_setting_set.c **** 
  25:Middlewares/ST/usbx/common/core/src/ux_device_stack_alternate_setting_set.c **** 
  26:Middlewares/ST/usbx/common/core/src/ux_device_stack_alternate_setting_set.c **** /* Include necessary system files.  */
  27:Middlewares/ST/usbx/common/core/src/ux_device_stack_alternate_setting_set.c **** 
  28:Middlewares/ST/usbx/common/core/src/ux_device_stack_alternate_setting_set.c **** #include "ux_api.h"
ARM GAS  C:\Users\sapph\AppData\Local\Temp\ccKsVHSs.s 			page 2


  29:Middlewares/ST/usbx/common/core/src/ux_device_stack_alternate_setting_set.c **** #include "ux_device_stack.h"
  30:Middlewares/ST/usbx/common/core/src/ux_device_stack_alternate_setting_set.c **** 
  31:Middlewares/ST/usbx/common/core/src/ux_device_stack_alternate_setting_set.c **** 
  32:Middlewares/ST/usbx/common/core/src/ux_device_stack_alternate_setting_set.c **** /**************************************************************************/
  33:Middlewares/ST/usbx/common/core/src/ux_device_stack_alternate_setting_set.c **** /*                                                                        */
  34:Middlewares/ST/usbx/common/core/src/ux_device_stack_alternate_setting_set.c **** /*  FUNCTION                                               RELEASE        */
  35:Middlewares/ST/usbx/common/core/src/ux_device_stack_alternate_setting_set.c **** /*                                                                        */
  36:Middlewares/ST/usbx/common/core/src/ux_device_stack_alternate_setting_set.c **** /*    _ux_device_stack_alternate_setting_set              PORTABLE C      */
  37:Middlewares/ST/usbx/common/core/src/ux_device_stack_alternate_setting_set.c **** /*                                                           6.1.12       */
  38:Middlewares/ST/usbx/common/core/src/ux_device_stack_alternate_setting_set.c **** /*  AUTHOR                                                                */
  39:Middlewares/ST/usbx/common/core/src/ux_device_stack_alternate_setting_set.c **** /*                                                                        */
  40:Middlewares/ST/usbx/common/core/src/ux_device_stack_alternate_setting_set.c **** /*    Chaoqiong Xiao, Microsoft Corporation                               */
  41:Middlewares/ST/usbx/common/core/src/ux_device_stack_alternate_setting_set.c **** /*                                                                        */
  42:Middlewares/ST/usbx/common/core/src/ux_device_stack_alternate_setting_set.c **** /*  DESCRIPTION                                                           */
  43:Middlewares/ST/usbx/common/core/src/ux_device_stack_alternate_setting_set.c **** /*                                                                        */
  44:Middlewares/ST/usbx/common/core/src/ux_device_stack_alternate_setting_set.c **** /*    This function sets the alternate setting for a specific interface.  */
  45:Middlewares/ST/usbx/common/core/src/ux_device_stack_alternate_setting_set.c **** /*    The previous interface is unmounted and all the endpoints           */
  46:Middlewares/ST/usbx/common/core/src/ux_device_stack_alternate_setting_set.c **** /*    associated with the alternate setting are mounted.                  */
  47:Middlewares/ST/usbx/common/core/src/ux_device_stack_alternate_setting_set.c **** /*                                                                        */
  48:Middlewares/ST/usbx/common/core/src/ux_device_stack_alternate_setting_set.c **** /*  INPUT                                                                 */
  49:Middlewares/ST/usbx/common/core/src/ux_device_stack_alternate_setting_set.c **** /*                                                                        */
  50:Middlewares/ST/usbx/common/core/src/ux_device_stack_alternate_setting_set.c **** /*    endpoint                              Pointer to endpoint           */
  51:Middlewares/ST/usbx/common/core/src/ux_device_stack_alternate_setting_set.c **** /*    interface_value                       Interface value               */
  52:Middlewares/ST/usbx/common/core/src/ux_device_stack_alternate_setting_set.c **** /*    alternate_setting_value               Alternate setting value       */
  53:Middlewares/ST/usbx/common/core/src/ux_device_stack_alternate_setting_set.c **** /*                                                                        */
  54:Middlewares/ST/usbx/common/core/src/ux_device_stack_alternate_setting_set.c **** /*  OUTPUT                                                                */
  55:Middlewares/ST/usbx/common/core/src/ux_device_stack_alternate_setting_set.c **** /*                                                                        */
  56:Middlewares/ST/usbx/common/core/src/ux_device_stack_alternate_setting_set.c **** /*    Completion Status                                                   */ 
  57:Middlewares/ST/usbx/common/core/src/ux_device_stack_alternate_setting_set.c **** /*                                                                        */
  58:Middlewares/ST/usbx/common/core/src/ux_device_stack_alternate_setting_set.c **** /*  CALLS                                                                 */ 
  59:Middlewares/ST/usbx/common/core/src/ux_device_stack_alternate_setting_set.c **** /*                                                                        */ 
  60:Middlewares/ST/usbx/common/core/src/ux_device_stack_alternate_setting_set.c **** /*    (ux_slave_dcd_function)               DCD dispatch function         */ 
  61:Middlewares/ST/usbx/common/core/src/ux_device_stack_alternate_setting_set.c **** /*    _ux_utility_descriptor_parse          Parse descriptor              */
  62:Middlewares/ST/usbx/common/core/src/ux_device_stack_alternate_setting_set.c **** /*    _ux_device_stack_transfer_all_request_abort                         */
  63:Middlewares/ST/usbx/common/core/src/ux_device_stack_alternate_setting_set.c **** /*                                          Abort transfer                */
  64:Middlewares/ST/usbx/common/core/src/ux_device_stack_alternate_setting_set.c **** /*    _ux_utility_memory_copy               Copy memory                   */
  65:Middlewares/ST/usbx/common/core/src/ux_device_stack_alternate_setting_set.c **** /*                                                                        */ 
  66:Middlewares/ST/usbx/common/core/src/ux_device_stack_alternate_setting_set.c **** /*  CALLED BY                                                             */ 
  67:Middlewares/ST/usbx/common/core/src/ux_device_stack_alternate_setting_set.c **** /*                                                                        */ 
  68:Middlewares/ST/usbx/common/core/src/ux_device_stack_alternate_setting_set.c **** /*    Application                                                         */ 
  69:Middlewares/ST/usbx/common/core/src/ux_device_stack_alternate_setting_set.c **** /*    Device Stack                                                        */
  70:Middlewares/ST/usbx/common/core/src/ux_device_stack_alternate_setting_set.c **** /*                                                                        */ 
  71:Middlewares/ST/usbx/common/core/src/ux_device_stack_alternate_setting_set.c **** /*  RELEASE HISTORY                                                       */ 
  72:Middlewares/ST/usbx/common/core/src/ux_device_stack_alternate_setting_set.c **** /*                                                                        */ 
  73:Middlewares/ST/usbx/common/core/src/ux_device_stack_alternate_setting_set.c **** /*    DATE              NAME                      DESCRIPTION             */ 
  74:Middlewares/ST/usbx/common/core/src/ux_device_stack_alternate_setting_set.c **** /*                                                                        */ 
  75:Middlewares/ST/usbx/common/core/src/ux_device_stack_alternate_setting_set.c **** /*  05-19-2020     Chaoqiong Xiao           Initial Version 6.0           */
  76:Middlewares/ST/usbx/common/core/src/ux_device_stack_alternate_setting_set.c **** /*  09-30-2020     Chaoqiong Xiao           Modified comment(s),          */
  77:Middlewares/ST/usbx/common/core/src/ux_device_stack_alternate_setting_set.c **** /*                                            optimized based on compile  */
  78:Middlewares/ST/usbx/common/core/src/ux_device_stack_alternate_setting_set.c **** /*                                            definitions, verified       */
  79:Middlewares/ST/usbx/common/core/src/ux_device_stack_alternate_setting_set.c **** /*                                            memset and memcpy cases,    */
  80:Middlewares/ST/usbx/common/core/src/ux_device_stack_alternate_setting_set.c **** /*                                            resulting in version 6.1    */
  81:Middlewares/ST/usbx/common/core/src/ux_device_stack_alternate_setting_set.c **** /*  10-15-2021     Chaoqiong Xiao           Modified comment(s),          */
  82:Middlewares/ST/usbx/common/core/src/ux_device_stack_alternate_setting_set.c **** /*                                            calculated payload size,    */
  83:Middlewares/ST/usbx/common/core/src/ux_device_stack_alternate_setting_set.c **** /*                                            resulting in version 6.1.9  */
  84:Middlewares/ST/usbx/common/core/src/ux_device_stack_alternate_setting_set.c **** /*  07-29-2022     Chaoqiong Xiao           Modified comment(s),          */
  85:Middlewares/ST/usbx/common/core/src/ux_device_stack_alternate_setting_set.c **** /*                                            fixed parameter/variable    */
ARM GAS  C:\Users\sapph\AppData\Local\Temp\ccKsVHSs.s 			page 3


  86:Middlewares/ST/usbx/common/core/src/ux_device_stack_alternate_setting_set.c **** /*                                            names conflict C++ keyword, */
  87:Middlewares/ST/usbx/common/core/src/ux_device_stack_alternate_setting_set.c **** /*                                            resulting in version 6.1.12 */
  88:Middlewares/ST/usbx/common/core/src/ux_device_stack_alternate_setting_set.c **** /*                                                                        */
  89:Middlewares/ST/usbx/common/core/src/ux_device_stack_alternate_setting_set.c **** /**************************************************************************/
  90:Middlewares/ST/usbx/common/core/src/ux_device_stack_alternate_setting_set.c **** UINT  _ux_device_stack_alternate_setting_set(ULONG interface_value, ULONG alternate_setting_value)
  91:Middlewares/ST/usbx/common/core/src/ux_device_stack_alternate_setting_set.c **** {
  31              		.loc 1 91 1 view -0
  32              		.cfi_startproc
  33              		@ args = 0, pretend = 0, frame = 112
  34              		@ frame_needed = 0, uses_anonymous_args = 0
  35              		.loc 1 91 1 is_stmt 0 view .LVU1
  36 0000 2DE9F04F 		push	{r4, r5, r6, r7, r8, r9, r10, fp, lr}
  37              		.cfi_def_cfa_offset 36
  38              		.cfi_offset 4, -36
  39              		.cfi_offset 5, -32
  40              		.cfi_offset 6, -28
  41              		.cfi_offset 7, -24
  42              		.cfi_offset 8, -20
  43              		.cfi_offset 9, -16
  44              		.cfi_offset 10, -12
  45              		.cfi_offset 11, -8
  46              		.cfi_offset 14, -4
  47 0004 9DB0     		sub	sp, sp, #116
  48              		.cfi_def_cfa_offset 152
  92:Middlewares/ST/usbx/common/core/src/ux_device_stack_alternate_setting_set.c **** 
  93:Middlewares/ST/usbx/common/core/src/ux_device_stack_alternate_setting_set.c **** UX_SLAVE_DEVICE                 *device;
  49              		.loc 1 93 1 is_stmt 1 view .LVU2
  94:Middlewares/ST/usbx/common/core/src/ux_device_stack_alternate_setting_set.c **** UX_SLAVE_INTERFACE              *interface_ptr;
  50              		.loc 1 94 1 view .LVU3
  95:Middlewares/ST/usbx/common/core/src/ux_device_stack_alternate_setting_set.c **** #if !defined(UX_DEVICE_ALTERNATE_SETTING_SUPPORT_DISABLE)
  96:Middlewares/ST/usbx/common/core/src/ux_device_stack_alternate_setting_set.c **** UX_SLAVE_DCD                    *dcd;
  51              		.loc 1 96 1 view .LVU4
  97:Middlewares/ST/usbx/common/core/src/ux_device_stack_alternate_setting_set.c **** UX_SLAVE_TRANSFER               *transfer_request;
  52              		.loc 1 97 1 view .LVU5
  98:Middlewares/ST/usbx/common/core/src/ux_device_stack_alternate_setting_set.c **** UCHAR                           *device_framework;
  53              		.loc 1 98 1 view .LVU6
  99:Middlewares/ST/usbx/common/core/src/ux_device_stack_alternate_setting_set.c **** ULONG                           device_framework_length;
  54              		.loc 1 99 1 view .LVU7
 100:Middlewares/ST/usbx/common/core/src/ux_device_stack_alternate_setting_set.c **** ULONG                           descriptor_length;
  55              		.loc 1 100 1 view .LVU8
 101:Middlewares/ST/usbx/common/core/src/ux_device_stack_alternate_setting_set.c **** UCHAR                           descriptor_type;
  56              		.loc 1 101 1 view .LVU9
 102:Middlewares/ST/usbx/common/core/src/ux_device_stack_alternate_setting_set.c **** UX_CONFIGURATION_DESCRIPTOR     configuration_descriptor;
  57              		.loc 1 102 1 view .LVU10
 103:Middlewares/ST/usbx/common/core/src/ux_device_stack_alternate_setting_set.c **** UX_INTERFACE_DESCRIPTOR         interface_descriptor;
  58              		.loc 1 103 1 view .LVU11
 104:Middlewares/ST/usbx/common/core/src/ux_device_stack_alternate_setting_set.c **** UX_SLAVE_ENDPOINT               *endpoint;
  59              		.loc 1 104 1 view .LVU12
 105:Middlewares/ST/usbx/common/core/src/ux_device_stack_alternate_setting_set.c **** UX_SLAVE_ENDPOINT               *next_endpoint;
  60              		.loc 1 105 1 view .LVU13
 106:Middlewares/ST/usbx/common/core/src/ux_device_stack_alternate_setting_set.c **** UX_SLAVE_ENDPOINT               *endpoint_link;
  61              		.loc 1 106 1 view .LVU14
 107:Middlewares/ST/usbx/common/core/src/ux_device_stack_alternate_setting_set.c **** ULONG                            endpoints_pool_number;
  62              		.loc 1 107 1 view .LVU15
 108:Middlewares/ST/usbx/common/core/src/ux_device_stack_alternate_setting_set.c **** UX_SLAVE_CLASS_COMMAND          class_command;
  63              		.loc 1 108 1 view .LVU16
 109:Middlewares/ST/usbx/common/core/src/ux_device_stack_alternate_setting_set.c **** UX_SLAVE_CLASS                  *class_ptr;
ARM GAS  C:\Users\sapph\AppData\Local\Temp\ccKsVHSs.s 			page 4


  64              		.loc 1 109 1 view .LVU17
 110:Middlewares/ST/usbx/common/core/src/ux_device_stack_alternate_setting_set.c **** UINT                            status;
  65              		.loc 1 110 1 view .LVU18
 111:Middlewares/ST/usbx/common/core/src/ux_device_stack_alternate_setting_set.c **** ULONG                           max_transfer_length, n_trans;
  66              		.loc 1 111 1 view .LVU19
 112:Middlewares/ST/usbx/common/core/src/ux_device_stack_alternate_setting_set.c **** #endif
 113:Middlewares/ST/usbx/common/core/src/ux_device_stack_alternate_setting_set.c **** 
 114:Middlewares/ST/usbx/common/core/src/ux_device_stack_alternate_setting_set.c ****     /* If trace is enabled, insert this event into the trace buffer.  */
 115:Middlewares/ST/usbx/common/core/src/ux_device_stack_alternate_setting_set.c ****     UX_TRACE_IN_LINE_INSERT(UX_TRACE_DEVICE_STACK_ALTERNATE_SETTING_SET, interface_value, alternate
 116:Middlewares/ST/usbx/common/core/src/ux_device_stack_alternate_setting_set.c **** 
 117:Middlewares/ST/usbx/common/core/src/ux_device_stack_alternate_setting_set.c ****     /* Get the pointer to the device. */
 118:Middlewares/ST/usbx/common/core/src/ux_device_stack_alternate_setting_set.c ****     device =  &_ux_system_slave -> ux_system_slave_device;
  67              		.loc 1 118 5 view .LVU20
  68              		.loc 1 118 33 is_stmt 0 view .LVU21
  69 0006 734B     		ldr	r3, .L39
  70 0008 D3F80090 		ldr	r9, [r3]
  71              	.LVL1:
 119:Middlewares/ST/usbx/common/core/src/ux_device_stack_alternate_setting_set.c **** 
 120:Middlewares/ST/usbx/common/core/src/ux_device_stack_alternate_setting_set.c ****     /* Protocol error must be reported when it's unconfigured */
 121:Middlewares/ST/usbx/common/core/src/ux_device_stack_alternate_setting_set.c ****     if (device -> ux_slave_device_state != UX_DEVICE_CONFIGURED)
  72              		.loc 1 121 5 is_stmt 1 view .LVU22
  73              		.loc 1 121 16 is_stmt 0 view .LVU23
  74 000c D9F82430 		ldr	r3, [r9, #36]
  75              		.loc 1 121 8 view .LVU24
  76 0010 032B     		cmp	r3, #3
  77 0012 40F0D680 		bne	.L26
  78 0016 8046     		mov	r8, r0
  79 0018 8A46     		mov	r10, r1
  80 001a 09F1240B 		add	fp, r9, #36
  81              	.LVL2:
 122:Middlewares/ST/usbx/common/core/src/ux_device_stack_alternate_setting_set.c ****         return(UX_FUNCTION_NOT_SUPPORTED);
 123:Middlewares/ST/usbx/common/core/src/ux_device_stack_alternate_setting_set.c **** 
 124:Middlewares/ST/usbx/common/core/src/ux_device_stack_alternate_setting_set.c ****     /* Find the current interface.  */
 125:Middlewares/ST/usbx/common/core/src/ux_device_stack_alternate_setting_set.c ****     interface_ptr =  device -> ux_slave_device_first_interface;
  82              		.loc 1 125 5 is_stmt 1 view .LVU25
  83              		.loc 1 125 19 is_stmt 0 view .LVU26
  84 001e D9F8FC50 		ldr	r5, [r9, #252]
  85              	.LVL3:
 126:Middlewares/ST/usbx/common/core/src/ux_device_stack_alternate_setting_set.c **** 
 127:Middlewares/ST/usbx/common/core/src/ux_device_stack_alternate_setting_set.c **** #if !defined(UX_DEVICE_INITIALIZE_FRAMEWORK_SCAN_DISABLE) || UX_MAX_DEVICE_INTERFACES > 1
 128:Middlewares/ST/usbx/common/core/src/ux_device_stack_alternate_setting_set.c ****     /* Scan all interfaces if any. */
 129:Middlewares/ST/usbx/common/core/src/ux_device_stack_alternate_setting_set.c ****     while (interface_ptr != UX_NULL)
  86              		.loc 1 129 5 is_stmt 1 view .LVU27
  87              	.L3:
  88              		.loc 1 129 26 view .LVU28
  89 0022 25B1     		cbz	r5, .L4
 130:Middlewares/ST/usbx/common/core/src/ux_device_stack_alternate_setting_set.c ****     {
 131:Middlewares/ST/usbx/common/core/src/ux_device_stack_alternate_setting_set.c **** 
 132:Middlewares/ST/usbx/common/core/src/ux_device_stack_alternate_setting_set.c ****         if (interface_ptr -> ux_slave_interface_descriptor.bInterfaceNumber == interface_value)
  90              		.loc 1 132 9 view .LVU29
  91              		.loc 1 132 59 is_stmt 0 view .LVU30
  92 0024 6B69     		ldr	r3, [r5, #20]
  93              		.loc 1 132 12 view .LVU31
  94 0026 4345     		cmp	r3, r8
  95 0028 01D0     		beq	.L4
 133:Middlewares/ST/usbx/common/core/src/ux_device_stack_alternate_setting_set.c ****             break;
 134:Middlewares/ST/usbx/common/core/src/ux_device_stack_alternate_setting_set.c ****         else
ARM GAS  C:\Users\sapph\AppData\Local\Temp\ccKsVHSs.s 			page 5


 135:Middlewares/ST/usbx/common/core/src/ux_device_stack_alternate_setting_set.c ****             interface_ptr =  interface_ptr -> ux_slave_interface_next_interface;
  96              		.loc 1 135 13 is_stmt 1 view .LVU32
  97              		.loc 1 135 27 is_stmt 0 view .LVU33
  98 002a 2D6B     		ldr	r5, [r5, #48]
  99              	.LVL4:
 100              		.loc 1 135 27 view .LVU34
 101 002c F9E7     		b	.L3
 102              	.L4:
 136:Middlewares/ST/usbx/common/core/src/ux_device_stack_alternate_setting_set.c ****     }
 137:Middlewares/ST/usbx/common/core/src/ux_device_stack_alternate_setting_set.c **** #else
 138:Middlewares/ST/usbx/common/core/src/ux_device_stack_alternate_setting_set.c ****     if (interface_ptr -> ux_slave_interface_descriptor.bInterfaceNumber != interface_value)
 139:Middlewares/ST/usbx/common/core/src/ux_device_stack_alternate_setting_set.c ****         interface_ptr = UX_NULL;
 140:Middlewares/ST/usbx/common/core/src/ux_device_stack_alternate_setting_set.c **** #endif
 141:Middlewares/ST/usbx/common/core/src/ux_device_stack_alternate_setting_set.c **** 
 142:Middlewares/ST/usbx/common/core/src/ux_device_stack_alternate_setting_set.c ****     /* We must have found the interface pointer for the interface value
 143:Middlewares/ST/usbx/common/core/src/ux_device_stack_alternate_setting_set.c ****        requested by the caller.  */
 144:Middlewares/ST/usbx/common/core/src/ux_device_stack_alternate_setting_set.c ****     if (interface_ptr == UX_NULL)
 103              		.loc 1 144 5 is_stmt 1 view .LVU35
 104              		.loc 1 144 8 is_stmt 0 view .LVU36
 105 002e 45B1     		cbz	r5, .L32
 145:Middlewares/ST/usbx/common/core/src/ux_device_stack_alternate_setting_set.c ****     {
 146:Middlewares/ST/usbx/common/core/src/ux_device_stack_alternate_setting_set.c **** 
 147:Middlewares/ST/usbx/common/core/src/ux_device_stack_alternate_setting_set.c ****         /* Error trap. */
 148:Middlewares/ST/usbx/common/core/src/ux_device_stack_alternate_setting_set.c ****         _ux_system_error_handler(UX_SYSTEM_LEVEL_THREAD, UX_SYSTEM_CONTEXT_CLASS, UX_INTERFACE_HAND
 149:Middlewares/ST/usbx/common/core/src/ux_device_stack_alternate_setting_set.c **** 
 150:Middlewares/ST/usbx/common/core/src/ux_device_stack_alternate_setting_set.c ****         /* If trace is enabled, insert this event into the trace buffer.  */
 151:Middlewares/ST/usbx/common/core/src/ux_device_stack_alternate_setting_set.c ****         UX_TRACE_IN_LINE_INSERT(UX_TRACE_ERROR, UX_INTERFACE_HANDLE_UNKNOWN, interface_ptr, 0, 0, U
 152:Middlewares/ST/usbx/common/core/src/ux_device_stack_alternate_setting_set.c **** 
 153:Middlewares/ST/usbx/common/core/src/ux_device_stack_alternate_setting_set.c ****         return(UX_INTERFACE_HANDLE_UNKNOWN);
 154:Middlewares/ST/usbx/common/core/src/ux_device_stack_alternate_setting_set.c ****     }
 155:Middlewares/ST/usbx/common/core/src/ux_device_stack_alternate_setting_set.c **** 
 156:Middlewares/ST/usbx/common/core/src/ux_device_stack_alternate_setting_set.c ****     /* If the host is requesting a change of alternate setting to the current one,
 157:Middlewares/ST/usbx/common/core/src/ux_device_stack_alternate_setting_set.c ****        we do not need to do any work.  */
 158:Middlewares/ST/usbx/common/core/src/ux_device_stack_alternate_setting_set.c ****     if (interface_ptr -> ux_slave_interface_descriptor.bAlternateSetting == alternate_setting_value
 106              		.loc 1 158 5 is_stmt 1 view .LVU37
 107              		.loc 1 158 55 is_stmt 0 view .LVU38
 108 0030 AB69     		ldr	r3, [r5, #24]
 109              		.loc 1 158 8 view .LVU39
 110 0032 5345     		cmp	r3, r10
 111 0034 00F0C780 		beq	.L27
 159:Middlewares/ST/usbx/common/core/src/ux_device_stack_alternate_setting_set.c ****         return(UX_SUCCESS);       
 160:Middlewares/ST/usbx/common/core/src/ux_device_stack_alternate_setting_set.c **** 
 161:Middlewares/ST/usbx/common/core/src/ux_device_stack_alternate_setting_set.c **** #if defined(UX_DEVICE_ALTERNATE_SETTING_SUPPORT_DISABLE)
 162:Middlewares/ST/usbx/common/core/src/ux_device_stack_alternate_setting_set.c **** 
 163:Middlewares/ST/usbx/common/core/src/ux_device_stack_alternate_setting_set.c ****     /* If alternate setting is disabled, do error trap.  */
 164:Middlewares/ST/usbx/common/core/src/ux_device_stack_alternate_setting_set.c ****     _ux_system_error_handler(UX_SYSTEM_LEVEL_THREAD, UX_SYSTEM_CONTEXT_CLASS, UX_FUNCTION_NOT_SUPPO
 165:Middlewares/ST/usbx/common/core/src/ux_device_stack_alternate_setting_set.c **** 
 166:Middlewares/ST/usbx/common/core/src/ux_device_stack_alternate_setting_set.c ****     /* If trace is enabled, insert this event into the trace buffer.  */
 167:Middlewares/ST/usbx/common/core/src/ux_device_stack_alternate_setting_set.c ****     UX_TRACE_IN_LINE_INSERT(UX_TRACE_ERROR, UX_FUNCTION_NOT_SUPPORTED, interface_ptr, 0, 0, UX_TRAC
 168:Middlewares/ST/usbx/common/core/src/ux_device_stack_alternate_setting_set.c **** 
 169:Middlewares/ST/usbx/common/core/src/ux_device_stack_alternate_setting_set.c ****     return(UX_FUNCTION_NOT_SUPPORTED);
 170:Middlewares/ST/usbx/common/core/src/ux_device_stack_alternate_setting_set.c **** #else
 171:Middlewares/ST/usbx/common/core/src/ux_device_stack_alternate_setting_set.c **** 
 172:Middlewares/ST/usbx/common/core/src/ux_device_stack_alternate_setting_set.c ****     /* Get the pointer to the DCD. */
 173:Middlewares/ST/usbx/common/core/src/ux_device_stack_alternate_setting_set.c ****     dcd =  &_ux_system_slave->ux_system_slave_dcd;
 112              		.loc 1 173 5 is_stmt 1 view .LVU40
 113              	.LVL5:
ARM GAS  C:\Users\sapph\AppData\Local\Temp\ccKsVHSs.s 			page 6


 174:Middlewares/ST/usbx/common/core/src/ux_device_stack_alternate_setting_set.c **** 
 175:Middlewares/ST/usbx/common/core/src/ux_device_stack_alternate_setting_set.c ****     /* We may have multiple configurations!  */
 176:Middlewares/ST/usbx/common/core/src/ux_device_stack_alternate_setting_set.c ****     device_framework =  _ux_system_slave -> ux_system_slave_device_framework;
 114              		.loc 1 176 5 view .LVU41
 115              		.loc 1 176 22 is_stmt 0 view .LVU42
 116 0038 D9F81441 		ldr	r4, [r9, #276]
 117              	.LVL6:
 177:Middlewares/ST/usbx/common/core/src/ux_device_stack_alternate_setting_set.c ****     device_framework_length =  _ux_system_slave -> ux_system_slave_device_framework_length;
 118              		.loc 1 177 5 is_stmt 1 view .LVU43
 119              		.loc 1 177 29 is_stmt 0 view .LVU44
 120 003c D9F81861 		ldr	r6, [r9, #280]
 121              	.LVL7:
 178:Middlewares/ST/usbx/common/core/src/ux_device_stack_alternate_setting_set.c **** 
 179:Middlewares/ST/usbx/common/core/src/ux_device_stack_alternate_setting_set.c ****     /* Parse the device framework and locate a configuration descriptor. */
 180:Middlewares/ST/usbx/common/core/src/ux_device_stack_alternate_setting_set.c ****     while (device_framework_length != 0)
 122              		.loc 1 180 5 is_stmt 1 view .LVU45
 123              		.loc 1 180 11 is_stmt 0 view .LVU46
 124 0040 A9E0     		b	.L7
 125              	.LVL8:
 126              	.L32:
 148:Middlewares/ST/usbx/common/core/src/ux_device_stack_alternate_setting_set.c **** 
 127              		.loc 1 148 9 is_stmt 1 view .LVU47
 128 0042 5222     		movs	r2, #82
 129 0044 0721     		movs	r1, #7
 130              	.LVL9:
 148:Middlewares/ST/usbx/common/core/src/ux_device_stack_alternate_setting_set.c **** 
 131              		.loc 1 148 9 is_stmt 0 view .LVU48
 132 0046 0220     		movs	r0, #2
 133              	.LVL10:
 148:Middlewares/ST/usbx/common/core/src/ux_device_stack_alternate_setting_set.c **** 
 134              		.loc 1 148 9 view .LVU49
 135 0048 FFF7FEFF 		bl	_ux_system_error_handler
 136              	.LVL11:
 153:Middlewares/ST/usbx/common/core/src/ux_device_stack_alternate_setting_set.c ****     }
 137              		.loc 1 153 9 is_stmt 1 view .LVU50
 153:Middlewares/ST/usbx/common/core/src/ux_device_stack_alternate_setting_set.c ****     }
 138              		.loc 1 153 15 is_stmt 0 view .LVU51
 139 004c 5220     		movs	r0, #82
 140 004e B5E0     		b	.L1
 141              	.LVL12:
 142              	.L12:
 181:Middlewares/ST/usbx/common/core/src/ux_device_stack_alternate_setting_set.c ****     {
 182:Middlewares/ST/usbx/common/core/src/ux_device_stack_alternate_setting_set.c **** 
 183:Middlewares/ST/usbx/common/core/src/ux_device_stack_alternate_setting_set.c ****         /* Get the length of the current descriptor.  */
 184:Middlewares/ST/usbx/common/core/src/ux_device_stack_alternate_setting_set.c ****         descriptor_length =  (ULONG) *device_framework;
 185:Middlewares/ST/usbx/common/core/src/ux_device_stack_alternate_setting_set.c **** 
 186:Middlewares/ST/usbx/common/core/src/ux_device_stack_alternate_setting_set.c ****         /* And its length.  */
 187:Middlewares/ST/usbx/common/core/src/ux_device_stack_alternate_setting_set.c ****         descriptor_type =*  (device_framework + 1);
 188:Middlewares/ST/usbx/common/core/src/ux_device_stack_alternate_setting_set.c ****                 
 189:Middlewares/ST/usbx/common/core/src/ux_device_stack_alternate_setting_set.c ****         /* Check if this is a configuration descriptor. */
 190:Middlewares/ST/usbx/common/core/src/ux_device_stack_alternate_setting_set.c ****         if (descriptor_type == UX_CONFIGURATION_DESCRIPTOR_ITEM)
 191:Middlewares/ST/usbx/common/core/src/ux_device_stack_alternate_setting_set.c ****         {
 192:Middlewares/ST/usbx/common/core/src/ux_device_stack_alternate_setting_set.c **** 
 193:Middlewares/ST/usbx/common/core/src/ux_device_stack_alternate_setting_set.c ****             /* Parse the descriptor in something more readable. */
 194:Middlewares/ST/usbx/common/core/src/ux_device_stack_alternate_setting_set.c ****             _ux_utility_descriptor_parse(device_framework,
 195:Middlewares/ST/usbx/common/core/src/ux_device_stack_alternate_setting_set.c ****                         _ux_system_configuration_descriptor_structure,
 196:Middlewares/ST/usbx/common/core/src/ux_device_stack_alternate_setting_set.c ****                         UX_CONFIGURATION_DESCRIPTOR_ENTRIES,
ARM GAS  C:\Users\sapph\AppData\Local\Temp\ccKsVHSs.s 			page 7


 197:Middlewares/ST/usbx/common/core/src/ux_device_stack_alternate_setting_set.c ****                         (UCHAR *) &configuration_descriptor);
 198:Middlewares/ST/usbx/common/core/src/ux_device_stack_alternate_setting_set.c **** 
 199:Middlewares/ST/usbx/common/core/src/ux_device_stack_alternate_setting_set.c ****             /* Now we need to check the configuration value.  */
 200:Middlewares/ST/usbx/common/core/src/ux_device_stack_alternate_setting_set.c ****             if (configuration_descriptor.bConfigurationValue == device -> ux_slave_device_configura
 201:Middlewares/ST/usbx/common/core/src/ux_device_stack_alternate_setting_set.c ****             {
 202:Middlewares/ST/usbx/common/core/src/ux_device_stack_alternate_setting_set.c **** 
 203:Middlewares/ST/usbx/common/core/src/ux_device_stack_alternate_setting_set.c ****                 /* Limit the search in current configuration descriptor. */
 204:Middlewares/ST/usbx/common/core/src/ux_device_stack_alternate_setting_set.c ****                 device_framework_length = configuration_descriptor.wTotalLength;
 205:Middlewares/ST/usbx/common/core/src/ux_device_stack_alternate_setting_set.c **** 
 206:Middlewares/ST/usbx/common/core/src/ux_device_stack_alternate_setting_set.c ****                 /* We have found the configuration value that was selected by the host   
 207:Middlewares/ST/usbx/common/core/src/ux_device_stack_alternate_setting_set.c ****                    We need to scan all the interface descriptors following this
 208:Middlewares/ST/usbx/common/core/src/ux_device_stack_alternate_setting_set.c ****                    configuration descriptor and locate the interface for which the alternate
 209:Middlewares/ST/usbx/common/core/src/ux_device_stack_alternate_setting_set.c ****                    setting must be changed. */
 210:Middlewares/ST/usbx/common/core/src/ux_device_stack_alternate_setting_set.c ****                 while (device_framework_length != 0)
 211:Middlewares/ST/usbx/common/core/src/ux_device_stack_alternate_setting_set.c ****                 {
 212:Middlewares/ST/usbx/common/core/src/ux_device_stack_alternate_setting_set.c **** 
 213:Middlewares/ST/usbx/common/core/src/ux_device_stack_alternate_setting_set.c ****                     /* Get the length of the current descriptor.  */
 214:Middlewares/ST/usbx/common/core/src/ux_device_stack_alternate_setting_set.c ****                     descriptor_length =  (ULONG) *device_framework;
 215:Middlewares/ST/usbx/common/core/src/ux_device_stack_alternate_setting_set.c **** 
 216:Middlewares/ST/usbx/common/core/src/ux_device_stack_alternate_setting_set.c ****                     /* And its type.  */
 217:Middlewares/ST/usbx/common/core/src/ux_device_stack_alternate_setting_set.c ****                     descriptor_type = *(device_framework + 1); 
 218:Middlewares/ST/usbx/common/core/src/ux_device_stack_alternate_setting_set.c ****                 
 219:Middlewares/ST/usbx/common/core/src/ux_device_stack_alternate_setting_set.c ****                     /* Check if this is an interface descriptor. */
 220:Middlewares/ST/usbx/common/core/src/ux_device_stack_alternate_setting_set.c ****                     if (descriptor_type == UX_INTERFACE_DESCRIPTOR_ITEM)
 221:Middlewares/ST/usbx/common/core/src/ux_device_stack_alternate_setting_set.c ****                     {
 222:Middlewares/ST/usbx/common/core/src/ux_device_stack_alternate_setting_set.c **** 
 223:Middlewares/ST/usbx/common/core/src/ux_device_stack_alternate_setting_set.c ****                         /* Parse the descriptor in something more readable. */
 224:Middlewares/ST/usbx/common/core/src/ux_device_stack_alternate_setting_set.c ****                         _ux_utility_descriptor_parse(device_framework,
 225:Middlewares/ST/usbx/common/core/src/ux_device_stack_alternate_setting_set.c ****                                     _ux_system_interface_descriptor_structure,
 226:Middlewares/ST/usbx/common/core/src/ux_device_stack_alternate_setting_set.c ****                                     UX_INTERFACE_DESCRIPTOR_ENTRIES,
 227:Middlewares/ST/usbx/common/core/src/ux_device_stack_alternate_setting_set.c ****                                     (UCHAR *) &interface_descriptor);
 228:Middlewares/ST/usbx/common/core/src/ux_device_stack_alternate_setting_set.c **** 
 229:Middlewares/ST/usbx/common/core/src/ux_device_stack_alternate_setting_set.c ****                         /* Check if this is the interface we are searching. */
 230:Middlewares/ST/usbx/common/core/src/ux_device_stack_alternate_setting_set.c ****                         if (interface_descriptor.bInterfaceNumber == interface_value &&
 231:Middlewares/ST/usbx/common/core/src/ux_device_stack_alternate_setting_set.c ****                             interface_descriptor.bAlternateSetting == alternate_setting_value)
 232:Middlewares/ST/usbx/common/core/src/ux_device_stack_alternate_setting_set.c ****                         {
 233:Middlewares/ST/usbx/common/core/src/ux_device_stack_alternate_setting_set.c **** 
 234:Middlewares/ST/usbx/common/core/src/ux_device_stack_alternate_setting_set.c ****                             /* We have found the right interface and alternate setting. Before
 235:Middlewares/ST/usbx/common/core/src/ux_device_stack_alternate_setting_set.c ****                                we mount all the endpoints for this interface, we need to
 236:Middlewares/ST/usbx/common/core/src/ux_device_stack_alternate_setting_set.c ****                                unmount the endpoints associated with the previous alternate setting
 237:Middlewares/ST/usbx/common/core/src/ux_device_stack_alternate_setting_set.c ****                             endpoint =  interface_ptr -> ux_slave_interface_first_endpoint;
 238:Middlewares/ST/usbx/common/core/src/ux_device_stack_alternate_setting_set.c ****                             while (endpoint != UX_NULL)
 239:Middlewares/ST/usbx/common/core/src/ux_device_stack_alternate_setting_set.c ****                             {
 240:Middlewares/ST/usbx/common/core/src/ux_device_stack_alternate_setting_set.c **** 
 241:Middlewares/ST/usbx/common/core/src/ux_device_stack_alternate_setting_set.c ****                                 /* Abort any pending transfer.  */
 242:Middlewares/ST/usbx/common/core/src/ux_device_stack_alternate_setting_set.c ****                                 _ux_device_stack_transfer_all_request_abort(endpoint, UX_TRANSFER_B
 143              		.loc 1 242 33 is_stmt 1 view .LVU52
 144 0050 2621     		movs	r1, #38
 145 0052 3846     		mov	r0, r7
 146 0054 FFF7FEFF 		bl	_ux_device_stack_transfer_all_request_abort
 147              	.LVL13:
 243:Middlewares/ST/usbx/common/core/src/ux_device_stack_alternate_setting_set.c **** 
 244:Middlewares/ST/usbx/common/core/src/ux_device_stack_alternate_setting_set.c ****                                 /* The device controller must be called to destroy the endpoint.  *
 245:Middlewares/ST/usbx/common/core/src/ux_device_stack_alternate_setting_set.c ****                                 dcd -> ux_slave_dcd_function(dcd, UX_DCD_DESTROY_ENDPOINT, (VOID *)
 148              		.loc 1 245 33 view .LVU53
 149              		.loc 1 245 37 is_stmt 0 view .LVU54
 150 0058 D9F81830 		ldr	r3, [r9, #24]
ARM GAS  C:\Users\sapph\AppData\Local\Temp\ccKsVHSs.s 			page 8


 151              		.loc 1 245 33 view .LVU55
 152 005c 3A46     		mov	r2, r7
 153 005e 0F21     		movs	r1, #15
 154 0060 4846     		mov	r0, r9
 155 0062 9847     		blx	r3
 156              	.LVL14:
 246:Middlewares/ST/usbx/common/core/src/ux_device_stack_alternate_setting_set.c **** 
 247:Middlewares/ST/usbx/common/core/src/ux_device_stack_alternate_setting_set.c ****                                 /* Get the next endpoint.  */
 248:Middlewares/ST/usbx/common/core/src/ux_device_stack_alternate_setting_set.c ****                                 next_endpoint =  endpoint -> ux_slave_endpoint_next_endpoint;
 157              		.loc 1 248 33 is_stmt 1 view .LVU56
 158              		.loc 1 248 47 is_stmt 0 view .LVU57
 159 0064 7A6A     		ldr	r2, [r7, #36]
 160              	.LVL15:
 249:Middlewares/ST/usbx/common/core/src/ux_device_stack_alternate_setting_set.c ****                 
 250:Middlewares/ST/usbx/common/core/src/ux_device_stack_alternate_setting_set.c ****                                 /* Free the endpoint.  */
 251:Middlewares/ST/usbx/common/core/src/ux_device_stack_alternate_setting_set.c ****                                 endpoint -> ux_slave_endpoint_status =  UX_UNUSED;
 161              		.loc 1 251 33 is_stmt 1 view .LVU58
 162              		.loc 1 251 70 is_stmt 0 view .LVU59
 163 0066 0023     		movs	r3, #0
 164 0068 3B60     		str	r3, [r7]
 252:Middlewares/ST/usbx/common/core/src/ux_device_stack_alternate_setting_set.c ****                         
 253:Middlewares/ST/usbx/common/core/src/ux_device_stack_alternate_setting_set.c ****                                 /* Make sure the endpoint instance is now cleaned up.  */
 254:Middlewares/ST/usbx/common/core/src/ux_device_stack_alternate_setting_set.c ****                                 endpoint -> ux_slave_endpoint_state =  0;
 165              		.loc 1 254 33 is_stmt 1 view .LVU60
 166              		.loc 1 254 69 is_stmt 0 view .LVU61
 167 006a 7B60     		str	r3, [r7, #4]
 255:Middlewares/ST/usbx/common/core/src/ux_device_stack_alternate_setting_set.c ****                                 endpoint -> ux_slave_endpoint_next_endpoint =  UX_NULL;
 168              		.loc 1 255 33 is_stmt 1 view .LVU62
 169              		.loc 1 255 77 is_stmt 0 view .LVU63
 170 006c 7B62     		str	r3, [r7, #36]
 256:Middlewares/ST/usbx/common/core/src/ux_device_stack_alternate_setting_set.c ****                                 endpoint -> ux_slave_endpoint_interface =  UX_NULL;
 171              		.loc 1 256 33 is_stmt 1 view .LVU64
 172              		.loc 1 256 73 is_stmt 0 view .LVU65
 173 006e BB62     		str	r3, [r7, #40]
 257:Middlewares/ST/usbx/common/core/src/ux_device_stack_alternate_setting_set.c ****                                 endpoint -> ux_slave_endpoint_device =  UX_NULL;
 174              		.loc 1 257 33 is_stmt 1 view .LVU66
 175              		.loc 1 257 70 is_stmt 0 view .LVU67
 176 0070 FB62     		str	r3, [r7, #44]
 258:Middlewares/ST/usbx/common/core/src/ux_device_stack_alternate_setting_set.c ****                                                         
 259:Middlewares/ST/usbx/common/core/src/ux_device_stack_alternate_setting_set.c ****                                 /* Now we refresh the endpoint pointer.  */
 260:Middlewares/ST/usbx/common/core/src/ux_device_stack_alternate_setting_set.c ****                                 endpoint =  next_endpoint;
 177              		.loc 1 260 33 is_stmt 1 view .LVU68
 178              	.LVL16:
 179              		.loc 1 260 42 is_stmt 0 view .LVU69
 180 0072 1746     		mov	r7, r2
 181              	.LVL17:
 182              	.L11:
 238:Middlewares/ST/usbx/common/core/src/ux_device_stack_alternate_setting_set.c ****                             {
 183              		.loc 1 238 45 is_stmt 1 view .LVU70
 184 0074 002F     		cmp	r7, #0
 185 0076 EBD1     		bne	.L12
 261:Middlewares/ST/usbx/common/core/src/ux_device_stack_alternate_setting_set.c ****                             }
 262:Middlewares/ST/usbx/common/core/src/ux_device_stack_alternate_setting_set.c **** 
 263:Middlewares/ST/usbx/common/core/src/ux_device_stack_alternate_setting_set.c ****                             /* Now clear the interface endpoint entry.  */
 264:Middlewares/ST/usbx/common/core/src/ux_device_stack_alternate_setting_set.c ****                             interface_ptr -> ux_slave_interface_first_endpoint = UX_NULL;
 186              		.loc 1 264 29 view .LVU71
 187              		.loc 1 264 80 is_stmt 0 view .LVU72
ARM GAS  C:\Users\sapph\AppData\Local\Temp\ccKsVHSs.s 			page 9


 188 0078 0023     		movs	r3, #0
 189 007a 6B63     		str	r3, [r5, #52]
 265:Middlewares/ST/usbx/common/core/src/ux_device_stack_alternate_setting_set.c **** 
 266:Middlewares/ST/usbx/common/core/src/ux_device_stack_alternate_setting_set.c ****                             /* Point beyond the interface descriptor.  */
 267:Middlewares/ST/usbx/common/core/src/ux_device_stack_alternate_setting_set.c ****                             device_framework_length -=  (ULONG) *device_framework;
 190              		.loc 1 267 29 is_stmt 1 view .LVU73
 191              		.loc 1 267 65 is_stmt 0 view .LVU74
 192 007c 2778     		ldrb	r7, [r4]	@ zero_extendqisi2
 193              	.LVL18:
 194              		.loc 1 267 53 view .LVU75
 195 007e F61B     		subs	r6, r6, r7
 196              	.LVL19:
 268:Middlewares/ST/usbx/common/core/src/ux_device_stack_alternate_setting_set.c ****                             device_framework +=  (ULONG) *device_framework;
 197              		.loc 1 268 29 is_stmt 1 view .LVU76
 198              		.loc 1 268 46 is_stmt 0 view .LVU77
 199 0080 2744     		add	r7, r7, r4
 200              	.LVL20:
 269:Middlewares/ST/usbx/common/core/src/ux_device_stack_alternate_setting_set.c ****                         
 270:Middlewares/ST/usbx/common/core/src/ux_device_stack_alternate_setting_set.c ****                             /* Parse the device framework and locate endpoint descriptor(s).  */
 271:Middlewares/ST/usbx/common/core/src/ux_device_stack_alternate_setting_set.c ****                             while (device_framework_length != 0)
 201              		.loc 1 271 29 is_stmt 1 view .LVU78
 202              		.loc 1 271 35 is_stmt 0 view .LVU79
 203 0082 49E0     		b	.L13
 204              	.LVL21:
 205              	.L15:
 272:Middlewares/ST/usbx/common/core/src/ux_device_stack_alternate_setting_set.c ****                             {
 273:Middlewares/ST/usbx/common/core/src/ux_device_stack_alternate_setting_set.c ****                         
 274:Middlewares/ST/usbx/common/core/src/ux_device_stack_alternate_setting_set.c ****                                 /* Get the length of the current descriptor.  */
 275:Middlewares/ST/usbx/common/core/src/ux_device_stack_alternate_setting_set.c ****                                 descriptor_length =  (ULONG) *device_framework;
 276:Middlewares/ST/usbx/common/core/src/ux_device_stack_alternate_setting_set.c ****                         
 277:Middlewares/ST/usbx/common/core/src/ux_device_stack_alternate_setting_set.c ****                                 /* And its type.  */
 278:Middlewares/ST/usbx/common/core/src/ux_device_stack_alternate_setting_set.c ****                                 descriptor_type =  *(device_framework + 1);
 279:Middlewares/ST/usbx/common/core/src/ux_device_stack_alternate_setting_set.c ****                                         
 280:Middlewares/ST/usbx/common/core/src/ux_device_stack_alternate_setting_set.c ****                                 /* Check if this is an endpoint descriptor.  */
 281:Middlewares/ST/usbx/common/core/src/ux_device_stack_alternate_setting_set.c ****                                 switch(descriptor_type)
 282:Middlewares/ST/usbx/common/core/src/ux_device_stack_alternate_setting_set.c ****                                 {
 283:Middlewares/ST/usbx/common/core/src/ux_device_stack_alternate_setting_set.c ****                         
 284:Middlewares/ST/usbx/common/core/src/ux_device_stack_alternate_setting_set.c ****                                 case UX_ENDPOINT_DESCRIPTOR_ITEM:
 285:Middlewares/ST/usbx/common/core/src/ux_device_stack_alternate_setting_set.c ****                         
 286:Middlewares/ST/usbx/common/core/src/ux_device_stack_alternate_setting_set.c ****                                     /* Find a free endpoint in the pool and hook it to the 
 287:Middlewares/ST/usbx/common/core/src/ux_device_stack_alternate_setting_set.c ****                                        existing interface after it's created by DCD.  */
 288:Middlewares/ST/usbx/common/core/src/ux_device_stack_alternate_setting_set.c ****                                     endpoint = device -> ux_slave_device_endpoints_pool;
 206              		.loc 1 288 37 is_stmt 1 view .LVU80
 207              		.loc 1 288 46 is_stmt 0 view .LVU81
 208 0084 D9F80841 		ldr	r4, [r9, #264]
 209              	.LVL22:
 289:Middlewares/ST/usbx/common/core/src/ux_device_stack_alternate_setting_set.c ****                                     endpoints_pool_number = device -> ux_slave_device_endpoints_poo
 210              		.loc 1 289 37 is_stmt 1 view .LVU82
 211              		.loc 1 289 59 is_stmt 0 view .LVU83
 212 0088 D9F80C31 		ldr	r3, [r9, #268]
 213              	.LVL23:
 290:Middlewares/ST/usbx/common/core/src/ux_device_stack_alternate_setting_set.c ****                                     while (endpoints_pool_number != 0)
 214              		.loc 1 290 37 is_stmt 1 view .LVU84
 215              		.loc 1 290 43 is_stmt 0 view .LVU85
 216 008c 01E0     		b	.L16
 217              	.L17:
 291:Middlewares/ST/usbx/common/core/src/ux_device_stack_alternate_setting_set.c ****                                     {
ARM GAS  C:\Users\sapph\AppData\Local\Temp\ccKsVHSs.s 			page 10


 292:Middlewares/ST/usbx/common/core/src/ux_device_stack_alternate_setting_set.c ****                                         /* Check if this endpoint is free.  */
 293:Middlewares/ST/usbx/common/core/src/ux_device_stack_alternate_setting_set.c ****                                         if (endpoint ->    ux_slave_endpoint_status == UX_UNUSED)
 294:Middlewares/ST/usbx/common/core/src/ux_device_stack_alternate_setting_set.c ****                                         {
 295:Middlewares/ST/usbx/common/core/src/ux_device_stack_alternate_setting_set.c ****                                             /* Mark this endpoint as used now.  */
 296:Middlewares/ST/usbx/common/core/src/ux_device_stack_alternate_setting_set.c ****                                             endpoint ->    ux_slave_endpoint_status = UX_USED;
 297:Middlewares/ST/usbx/common/core/src/ux_device_stack_alternate_setting_set.c ****                                             break;
 298:Middlewares/ST/usbx/common/core/src/ux_device_stack_alternate_setting_set.c ****                                         }
 299:Middlewares/ST/usbx/common/core/src/ux_device_stack_alternate_setting_set.c ****                                     
 300:Middlewares/ST/usbx/common/core/src/ux_device_stack_alternate_setting_set.c ****                                         /* Try the next endpoint.  */
 301:Middlewares/ST/usbx/common/core/src/ux_device_stack_alternate_setting_set.c ****                                         endpoint++;
 218              		.loc 1 301 41 is_stmt 1 view .LVU86
 219              		.loc 1 301 49 is_stmt 0 view .LVU87
 220 008e 7834     		adds	r4, r4, #120
 221              	.LVL24:
 302:Middlewares/ST/usbx/common/core/src/ux_device_stack_alternate_setting_set.c ****                                         
 303:Middlewares/ST/usbx/common/core/src/ux_device_stack_alternate_setting_set.c ****                                         /* Decrement the number of endpoints to scan from the pool.
 304:Middlewares/ST/usbx/common/core/src/ux_device_stack_alternate_setting_set.c ****                                        endpoints_pool_number--; 
 222              		.loc 1 304 40 is_stmt 1 view .LVU88
 223              		.loc 1 304 61 is_stmt 0 view .LVU89
 224 0090 013B     		subs	r3, r3, #1
 225              	.LVL25:
 226              	.L16:
 290:Middlewares/ST/usbx/common/core/src/ux_device_stack_alternate_setting_set.c ****                                     {
 227              		.loc 1 290 66 is_stmt 1 view .LVU90
 228 0092 3BB3     		cbz	r3, .L33
 293:Middlewares/ST/usbx/common/core/src/ux_device_stack_alternate_setting_set.c ****                                         {
 229              		.loc 1 293 41 view .LVU91
 293:Middlewares/ST/usbx/common/core/src/ux_device_stack_alternate_setting_set.c ****                                         {
 230              		.loc 1 293 54 is_stmt 0 view .LVU92
 231 0094 2268     		ldr	r2, [r4]
 293:Middlewares/ST/usbx/common/core/src/ux_device_stack_alternate_setting_set.c ****                                         {
 232              		.loc 1 293 44 view .LVU93
 233 0096 002A     		cmp	r2, #0
 234 0098 F9D1     		bne	.L17
 296:Middlewares/ST/usbx/common/core/src/ux_device_stack_alternate_setting_set.c ****                                             break;
 235              		.loc 1 296 45 is_stmt 1 view .LVU94
 296:Middlewares/ST/usbx/common/core/src/ux_device_stack_alternate_setting_set.c ****                                             break;
 236              		.loc 1 296 85 is_stmt 0 view .LVU95
 237 009a 2346     		mov	r3, r4
 238              	.LVL26:
 296:Middlewares/ST/usbx/common/core/src/ux_device_stack_alternate_setting_set.c ****                                             break;
 239              		.loc 1 296 85 view .LVU96
 240 009c 0122     		movs	r2, #1
 241 009e 43F80C2B 		str	r2, [r3], #12
 242              	.LVL27:
 297:Middlewares/ST/usbx/common/core/src/ux_device_stack_alternate_setting_set.c ****                                         }
 243              		.loc 1 297 45 is_stmt 1 view .LVU97
 305:Middlewares/ST/usbx/common/core/src/ux_device_stack_alternate_setting_set.c ****                                     }
 306:Middlewares/ST/usbx/common/core/src/ux_device_stack_alternate_setting_set.c ****                         
 307:Middlewares/ST/usbx/common/core/src/ux_device_stack_alternate_setting_set.c ****                                     /* Did we find a free endpoint ?  */
 308:Middlewares/ST/usbx/common/core/src/ux_device_stack_alternate_setting_set.c ****                                     if (endpoints_pool_number == 0)
 244              		.loc 1 308 37 view .LVU98
 309:Middlewares/ST/usbx/common/core/src/ux_device_stack_alternate_setting_set.c ****                                         return(UX_MEMORY_INSUFFICIENT);
 310:Middlewares/ST/usbx/common/core/src/ux_device_stack_alternate_setting_set.c **** 
 311:Middlewares/ST/usbx/common/core/src/ux_device_stack_alternate_setting_set.c ****                                     /* Parse the descriptor in something more readable.  */
 312:Middlewares/ST/usbx/common/core/src/ux_device_stack_alternate_setting_set.c ****                                     _ux_utility_descriptor_parse(device_framework,
 245              		.loc 1 312 37 view .LVU99
ARM GAS  C:\Users\sapph\AppData\Local\Temp\ccKsVHSs.s 			page 11


 246 00a2 0622     		movs	r2, #6
 247 00a4 4C49     		ldr	r1, .L39+4
 248 00a6 3846     		mov	r0, r7
 249 00a8 FFF7FEFF 		bl	_ux_utility_descriptor_parse
 250              	.LVL28:
 313:Middlewares/ST/usbx/common/core/src/ux_device_stack_alternate_setting_set.c ****                                                     _ux_system_endpoint_descriptor_structure,
 314:Middlewares/ST/usbx/common/core/src/ux_device_stack_alternate_setting_set.c ****                                                     UX_ENDPOINT_DESCRIPTOR_ENTRIES,
 315:Middlewares/ST/usbx/common/core/src/ux_device_stack_alternate_setting_set.c ****                                                     (UCHAR *) &endpoint -> ux_slave_endpoint_descri
 316:Middlewares/ST/usbx/common/core/src/ux_device_stack_alternate_setting_set.c **** 
 317:Middlewares/ST/usbx/common/core/src/ux_device_stack_alternate_setting_set.c ****                                     /* Now we create a transfer request to accept transfer on this 
 318:Middlewares/ST/usbx/common/core/src/ux_device_stack_alternate_setting_set.c ****                                     transfer_request =  &endpoint -> ux_slave_endpoint_transfer_req
 251              		.loc 1 318 37 view .LVU100
 319:Middlewares/ST/usbx/common/core/src/ux_device_stack_alternate_setting_set.c ****                                         
 320:Middlewares/ST/usbx/common/core/src/ux_device_stack_alternate_setting_set.c ****                                     /* Validate descriptor wMaxPacketSize.  */
 321:Middlewares/ST/usbx/common/core/src/ux_device_stack_alternate_setting_set.c ****                                     UX_ASSERT(endpoint -> ux_slave_endpoint_descriptor.wMaxPacketSi
 252              		.loc 1 321 108 view .LVU101
 322:Middlewares/ST/usbx/common/core/src/ux_device_stack_alternate_setting_set.c **** 
 323:Middlewares/ST/usbx/common/core/src/ux_device_stack_alternate_setting_set.c ****                                     /* Calculate endpoint transfer payload max size.  */
 324:Middlewares/ST/usbx/common/core/src/ux_device_stack_alternate_setting_set.c ****                                     max_transfer_length =
 253              		.loc 1 324 37 view .LVU102
 325:Middlewares/ST/usbx/common/core/src/ux_device_stack_alternate_setting_set.c ****                                             endpoint -> ux_slave_endpoint_descriptor.wMaxPacketSize
 254              		.loc 1 325 85 is_stmt 0 view .LVU103
 255 00ac E369     		ldr	r3, [r4, #28]
 324:Middlewares/ST/usbx/common/core/src/ux_device_stack_alternate_setting_set.c ****                                             endpoint -> ux_slave_endpoint_descriptor.wMaxPacketSize
 256              		.loc 1 324 57 view .LVU104
 257 00ae C3F30A02 		ubfx	r2, r3, #0, #11
 258              	.LVL29:
 326:Middlewares/ST/usbx/common/core/src/ux_device_stack_alternate_setting_set.c ****                                                                                 UX_MAX_PACKET_SIZE_
 327:Middlewares/ST/usbx/common/core/src/ux_device_stack_alternate_setting_set.c ****                                     if ((_ux_system_slave -> ux_system_slave_speed == UX_HIGH_SPEED
 259              		.loc 1 327 37 is_stmt 1 view .LVU105
 260              		.loc 1 327 59 is_stmt 0 view .LVU106
 261 00b2 4849     		ldr	r1, .L39
 262 00b4 0968     		ldr	r1, [r1]
 263 00b6 D1F88811 		ldr	r1, [r1, #392]
 264              		.loc 1 327 40 view .LVU107
 265 00ba 0229     		cmp	r1, #2
 266 00bc 14D0     		beq	.L34
 267              	.L19:
 328:Middlewares/ST/usbx/common/core/src/ux_device_stack_alternate_setting_set.c ****                                         (endpoint -> ux_slave_endpoint_descriptor.bmAttributes & 0x
 329:Middlewares/ST/usbx/common/core/src/ux_device_stack_alternate_setting_set.c ****                                     {
 330:Middlewares/ST/usbx/common/core/src/ux_device_stack_alternate_setting_set.c ****                                         n_trans = endpoint -> ux_slave_endpoint_descriptor.wMaxPack
 331:Middlewares/ST/usbx/common/core/src/ux_device_stack_alternate_setting_set.c ****                                                                     UX_MAX_NUMBER_OF_TRANSACTIONS_M
 332:Middlewares/ST/usbx/common/core/src/ux_device_stack_alternate_setting_set.c ****                                         if (n_trans)
 333:Middlewares/ST/usbx/common/core/src/ux_device_stack_alternate_setting_set.c ****                                         {
 334:Middlewares/ST/usbx/common/core/src/ux_device_stack_alternate_setting_set.c ****                                             n_trans >>= UX_MAX_NUMBER_OF_TRANSACTIONS_SHIFT;
 335:Middlewares/ST/usbx/common/core/src/ux_device_stack_alternate_setting_set.c ****                                             n_trans ++;
 336:Middlewares/ST/usbx/common/core/src/ux_device_stack_alternate_setting_set.c ****                                             max_transfer_length *= n_trans;
 337:Middlewares/ST/usbx/common/core/src/ux_device_stack_alternate_setting_set.c ****                                         }
 338:Middlewares/ST/usbx/common/core/src/ux_device_stack_alternate_setting_set.c ****                                     }
 339:Middlewares/ST/usbx/common/core/src/ux_device_stack_alternate_setting_set.c **** 
 340:Middlewares/ST/usbx/common/core/src/ux_device_stack_alternate_setting_set.c ****                                     /* Validate max transfer size and save it.  */
 341:Middlewares/ST/usbx/common/core/src/ux_device_stack_alternate_setting_set.c ****                                     UX_ASSERT(max_transfer_length <= UX_SLAVE_REQUEST_DATA_MAX_LENG
 268              		.loc 1 341 103 is_stmt 1 view .LVU108
 342:Middlewares/ST/usbx/common/core/src/ux_device_stack_alternate_setting_set.c ****                                     transfer_request -> ux_slave_transfer_request_transfer_length =
 269              		.loc 1 342 37 view .LVU109
 270              		.loc 1 342 99 is_stmt 0 view .LVU110
 271 00be 2265     		str	r2, [r4, #80]
ARM GAS  C:\Users\sapph\AppData\Local\Temp\ccKsVHSs.s 			page 12


 343:Middlewares/ST/usbx/common/core/src/ux_device_stack_alternate_setting_set.c **** 
 344:Middlewares/ST/usbx/common/core/src/ux_device_stack_alternate_setting_set.c ****                                     /* We store the endpoint in the transfer request as well.  */
 345:Middlewares/ST/usbx/common/core/src/ux_device_stack_alternate_setting_set.c ****                                     transfer_request -> ux_slave_transfer_request_endpoint =  endpo
 272              		.loc 1 345 37 is_stmt 1 view .LVU111
 273              		.loc 1 345 92 is_stmt 0 view .LVU112
 274 00c0 A463     		str	r4, [r4, #56]
 346:Middlewares/ST/usbx/common/core/src/ux_device_stack_alternate_setting_set.c ****                                         
 347:Middlewares/ST/usbx/common/core/src/ux_device_stack_alternate_setting_set.c ****                                     /* By default the timeout is infinite on request.  */
 348:Middlewares/ST/usbx/common/core/src/ux_device_stack_alternate_setting_set.c ****                                     transfer_request -> ux_slave_transfer_request_timeout = UX_WAIT
 275              		.loc 1 348 37 is_stmt 1 view .LVU113
 276              		.loc 1 348 91 is_stmt 0 view .LVU114
 277 00c2 4FF0FF33 		mov	r3, #-1
 278 00c6 6366     		str	r3, [r4, #100]
 349:Middlewares/ST/usbx/common/core/src/ux_device_stack_alternate_setting_set.c ****                                     
 350:Middlewares/ST/usbx/common/core/src/ux_device_stack_alternate_setting_set.c ****                                     /* Attach the interface to the endpoint.  */
 351:Middlewares/ST/usbx/common/core/src/ux_device_stack_alternate_setting_set.c ****                                     endpoint -> ux_slave_endpoint_interface =  interface_ptr;
 279              		.loc 1 351 37 is_stmt 1 view .LVU115
 280              		.loc 1 351 77 is_stmt 0 view .LVU116
 281 00c8 A562     		str	r5, [r4, #40]
 352:Middlewares/ST/usbx/common/core/src/ux_device_stack_alternate_setting_set.c ****                                         
 353:Middlewares/ST/usbx/common/core/src/ux_device_stack_alternate_setting_set.c ****                                     /* Attach the device to the endpoint.  */
 354:Middlewares/ST/usbx/common/core/src/ux_device_stack_alternate_setting_set.c ****                                     endpoint -> ux_slave_endpoint_device =  device;
 282              		.loc 1 354 37 is_stmt 1 view .LVU117
 283              		.loc 1 354 74 is_stmt 0 view .LVU118
 284 00ca C4F82CB0 		str	fp, [r4, #44]
 355:Middlewares/ST/usbx/common/core/src/ux_device_stack_alternate_setting_set.c **** 
 356:Middlewares/ST/usbx/common/core/src/ux_device_stack_alternate_setting_set.c ****                                     /* Create the endpoint at the DCD level.  */
 357:Middlewares/ST/usbx/common/core/src/ux_device_stack_alternate_setting_set.c ****                                     status =  dcd -> ux_slave_dcd_function(dcd, UX_DCD_CREATE_ENDPO
 285              		.loc 1 357 37 is_stmt 1 view .LVU119
 286              		.loc 1 357 51 is_stmt 0 view .LVU120
 287 00ce D9F81830 		ldr	r3, [r9, #24]
 288              		.loc 1 357 47 view .LVU121
 289 00d2 2246     		mov	r2, r4
 290              	.LVL30:
 291              		.loc 1 357 47 view .LVU122
 292 00d4 0E21     		movs	r1, #14
 293 00d6 4846     		mov	r0, r9
 294 00d8 9847     		blx	r3
 295              	.LVL31:
 358:Middlewares/ST/usbx/common/core/src/ux_device_stack_alternate_setting_set.c **** 
 359:Middlewares/ST/usbx/common/core/src/ux_device_stack_alternate_setting_set.c ****                                     /* Do a sanity check on endpoint creation.  */
 360:Middlewares/ST/usbx/common/core/src/ux_device_stack_alternate_setting_set.c ****                                     if (status != UX_SUCCESS)
 296              		.loc 1 360 37 is_stmt 1 view .LVU123
 297              		.loc 1 360 40 is_stmt 0 view .LVU124
 298 00da 80B9     		cbnz	r0, .L35
 361:Middlewares/ST/usbx/common/core/src/ux_device_stack_alternate_setting_set.c ****                                     {
 362:Middlewares/ST/usbx/common/core/src/ux_device_stack_alternate_setting_set.c **** 
 363:Middlewares/ST/usbx/common/core/src/ux_device_stack_alternate_setting_set.c ****                                         /* Error was returned, endpoint cannot be created.  */
 364:Middlewares/ST/usbx/common/core/src/ux_device_stack_alternate_setting_set.c ****                                         endpoint -> ux_slave_endpoint_status = UX_UNUSED;
 365:Middlewares/ST/usbx/common/core/src/ux_device_stack_alternate_setting_set.c ****                                         return(status);
 366:Middlewares/ST/usbx/common/core/src/ux_device_stack_alternate_setting_set.c ****                                     }
 367:Middlewares/ST/usbx/common/core/src/ux_device_stack_alternate_setting_set.c **** 
 368:Middlewares/ST/usbx/common/core/src/ux_device_stack_alternate_setting_set.c ****                                     /* Attach this endpoint to the end of the endpoint chain.  */
 369:Middlewares/ST/usbx/common/core/src/ux_device_stack_alternate_setting_set.c ****                                     if (interface_ptr -> ux_slave_interface_first_endpoint == UX_NU
 299              		.loc 1 369 37 is_stmt 1 view .LVU125
 300              		.loc 1 369 55 is_stmt 0 view .LVU126
 301 00dc 6B6B     		ldr	r3, [r5, #52]
ARM GAS  C:\Users\sapph\AppData\Local\Temp\ccKsVHSs.s 			page 13


 302              		.loc 1 369 40 view .LVU127
 303 00de 8BB9     		cbnz	r3, .L22
 370:Middlewares/ST/usbx/common/core/src/ux_device_stack_alternate_setting_set.c ****                                     {
 371:Middlewares/ST/usbx/common/core/src/ux_device_stack_alternate_setting_set.c ****                         
 372:Middlewares/ST/usbx/common/core/src/ux_device_stack_alternate_setting_set.c ****                                         interface_ptr -> ux_slave_interface_first_endpoint =  endpo
 304              		.loc 1 372 41 is_stmt 1 view .LVU128
 305              		.loc 1 372 92 is_stmt 0 view .LVU129
 306 00e0 6C63     		str	r4, [r5, #52]
 307 00e2 16E0     		b	.L14
 308              	.LVL32:
 309              	.L33:
 309:Middlewares/ST/usbx/common/core/src/ux_device_stack_alternate_setting_set.c **** 
 310              		.loc 1 309 47 view .LVU130
 311 00e4 1220     		movs	r0, #18
 312 00e6 69E0     		b	.L1
 313              	.LVL33:
 314              	.L34:
 328:Middlewares/ST/usbx/common/core/src/ux_device_stack_alternate_setting_set.c ****                                     {
 315              		.loc 1 328 82 view .LVU131
 316 00e8 A169     		ldr	r1, [r4, #24]
 327:Middlewares/ST/usbx/common/core/src/ux_device_stack_alternate_setting_set.c ****                                         (endpoint -> ux_slave_endpoint_descriptor.bmAttributes & 0x
 317              		.loc 1 327 109 discriminator 1 view .LVU132
 318 00ea 11F0010F 		tst	r1, #1
 319 00ee E6D0     		beq	.L19
 330:Middlewares/ST/usbx/common/core/src/ux_device_stack_alternate_setting_set.c ****                                                                     UX_MAX_NUMBER_OF_TRANSACTIONS_M
 320              		.loc 1 330 41 is_stmt 1 view .LVU133
 321              	.LVL34:
 332:Middlewares/ST/usbx/common/core/src/ux_device_stack_alternate_setting_set.c ****                                         {
 322              		.loc 1 332 41 view .LVU134
 332:Middlewares/ST/usbx/common/core/src/ux_device_stack_alternate_setting_set.c ****                                         {
 323              		.loc 1 332 44 is_stmt 0 view .LVU135
 324 00f0 13F4C053 		ands	r3, r3, #6144
 325              	.LVL35:
 332:Middlewares/ST/usbx/common/core/src/ux_device_stack_alternate_setting_set.c ****                                         {
 326              		.loc 1 332 44 view .LVU136
 327 00f4 E3D0     		beq	.L19
 334:Middlewares/ST/usbx/common/core/src/ux_device_stack_alternate_setting_set.c ****                                             n_trans ++;
 328              		.loc 1 334 45 is_stmt 1 view .LVU137
 334:Middlewares/ST/usbx/common/core/src/ux_device_stack_alternate_setting_set.c ****                                             n_trans ++;
 329              		.loc 1 334 53 is_stmt 0 view .LVU138
 330 00f6 DB0A     		lsrs	r3, r3, #11
 331              	.LVL36:
 335:Middlewares/ST/usbx/common/core/src/ux_device_stack_alternate_setting_set.c ****                                             max_transfer_length *= n_trans;
 332              		.loc 1 335 45 is_stmt 1 view .LVU139
 336:Middlewares/ST/usbx/common/core/src/ux_device_stack_alternate_setting_set.c ****                                         }
 333              		.loc 1 336 45 view .LVU140
 336:Middlewares/ST/usbx/common/core/src/ux_device_stack_alternate_setting_set.c ****                                         }
 334              		.loc 1 336 65 is_stmt 0 view .LVU141
 335 00f8 03FB0222 		mla	r2, r3, r2, r2
 336              	.LVL37:
 336:Middlewares/ST/usbx/common/core/src/ux_device_stack_alternate_setting_set.c ****                                         }
 337              		.loc 1 336 65 view .LVU142
 338 00fc DFE7     		b	.L19
 339              	.LVL38:
 340              	.L35:
 364:Middlewares/ST/usbx/common/core/src/ux_device_stack_alternate_setting_set.c ****                                         return(status);
 341              		.loc 1 364 41 is_stmt 1 view .LVU143
ARM GAS  C:\Users\sapph\AppData\Local\Temp\ccKsVHSs.s 			page 14


 364:Middlewares/ST/usbx/common/core/src/ux_device_stack_alternate_setting_set.c ****                                         return(status);
 342              		.loc 1 364 78 is_stmt 0 view .LVU144
 343 00fe 0023     		movs	r3, #0
 344 0100 2360     		str	r3, [r4]
 365:Middlewares/ST/usbx/common/core/src/ux_device_stack_alternate_setting_set.c ****                                     }
 345              		.loc 1 365 41 is_stmt 1 view .LVU145
 365:Middlewares/ST/usbx/common/core/src/ux_device_stack_alternate_setting_set.c ****                                     }
 346              		.loc 1 365 47 is_stmt 0 view .LVU146
 347 0102 5BE0     		b	.L1
 348              	.L22:
 349              	.LVL39:
 373:Middlewares/ST/usbx/common/core/src/ux_device_stack_alternate_setting_set.c ****                                     }
 374:Middlewares/ST/usbx/common/core/src/ux_device_stack_alternate_setting_set.c ****                                     else
 375:Middlewares/ST/usbx/common/core/src/ux_device_stack_alternate_setting_set.c ****                                     {
 376:Middlewares/ST/usbx/common/core/src/ux_device_stack_alternate_setting_set.c ****                                         /* Multiple endpoints exist, so find the end of the chain. 
 377:Middlewares/ST/usbx/common/core/src/ux_device_stack_alternate_setting_set.c ****                                         endpoint_link =  interface_ptr -> ux_slave_interface_first_
 378:Middlewares/ST/usbx/common/core/src/ux_device_stack_alternate_setting_set.c ****                                         while (endpoint_link -> ux_slave_endpoint_next_endpoint != 
 350              		.loc 1 378 97 is_stmt 1 view .LVU147
 351 0104 1A46     		mov	r2, r3
 352              		.loc 1 378 62 is_stmt 0 view .LVU148
 353 0106 5B6A     		ldr	r3, [r3, #36]
 354              	.LVL40:
 355              		.loc 1 378 97 view .LVU149
 356 0108 002B     		cmp	r3, #0
 357 010a FBD1     		bne	.L22
 379:Middlewares/ST/usbx/common/core/src/ux_device_stack_alternate_setting_set.c ****                                             endpoint_link =  endpoint_link -> ux_slave_endpoint_nex
 380:Middlewares/ST/usbx/common/core/src/ux_device_stack_alternate_setting_set.c ****                                         endpoint_link -> ux_slave_endpoint_next_endpoint =  endpoin
 358              		.loc 1 380 41 is_stmt 1 view .LVU150
 359              		.loc 1 380 90 is_stmt 0 view .LVU151
 360 010c 5462     		str	r4, [r2, #36]
 361 010e 00E0     		b	.L14
 362              	.LVL41:
 363              	.L28:
 381:Middlewares/ST/usbx/common/core/src/ux_device_stack_alternate_setting_set.c ****                                     }
 382:Middlewares/ST/usbx/common/core/src/ux_device_stack_alternate_setting_set.c ****                         
 383:Middlewares/ST/usbx/common/core/src/ux_device_stack_alternate_setting_set.c ****                                     break;
 384:Middlewares/ST/usbx/common/core/src/ux_device_stack_alternate_setting_set.c ****                         
 385:Middlewares/ST/usbx/common/core/src/ux_device_stack_alternate_setting_set.c ****                                 case UX_CONFIGURATION_DESCRIPTOR_ITEM:
 386:Middlewares/ST/usbx/common/core/src/ux_device_stack_alternate_setting_set.c ****                                 case UX_INTERFACE_DESCRIPTOR_ITEM:
 387:Middlewares/ST/usbx/common/core/src/ux_device_stack_alternate_setting_set.c ****                         
 388:Middlewares/ST/usbx/common/core/src/ux_device_stack_alternate_setting_set.c ****                                     /* We have found a new configuration or interface descriptor, t
 389:Middlewares/ST/usbx/common/core/src/ux_device_stack_alternate_setting_set.c ****                                        interface. The search for the endpoints must be terminated a
 390:Middlewares/ST/usbx/common/core/src/ux_device_stack_alternate_setting_set.c ****                                        entire descriptor.  */
 391:Middlewares/ST/usbx/common/core/src/ux_device_stack_alternate_setting_set.c ****                                     device_framework_length =  descriptor_length;
 364              		.loc 1 391 61 view .LVU152
 365 0110 4646     		mov	r6, r8
 366              	.LVL42:
 367              	.L14:
 392:Middlewares/ST/usbx/common/core/src/ux_device_stack_alternate_setting_set.c ****                                        
 393:Middlewares/ST/usbx/common/core/src/ux_device_stack_alternate_setting_set.c ****                                     break;
 394:Middlewares/ST/usbx/common/core/src/ux_device_stack_alternate_setting_set.c **** 
 395:Middlewares/ST/usbx/common/core/src/ux_device_stack_alternate_setting_set.c **** 
 396:Middlewares/ST/usbx/common/core/src/ux_device_stack_alternate_setting_set.c ****                                 default:
 397:Middlewares/ST/usbx/common/core/src/ux_device_stack_alternate_setting_set.c ****                                 
 398:Middlewares/ST/usbx/common/core/src/ux_device_stack_alternate_setting_set.c ****                                     /* We have found another descriptor embedded in the interface. 
 399:Middlewares/ST/usbx/common/core/src/ux_device_stack_alternate_setting_set.c ****                                     break;
 400:Middlewares/ST/usbx/common/core/src/ux_device_stack_alternate_setting_set.c ****                                 }
ARM GAS  C:\Users\sapph\AppData\Local\Temp\ccKsVHSs.s 			page 15


 401:Middlewares/ST/usbx/common/core/src/ux_device_stack_alternate_setting_set.c ****                         
 402:Middlewares/ST/usbx/common/core/src/ux_device_stack_alternate_setting_set.c ****                                 /* Adjust what is left of the device framework.  */
 403:Middlewares/ST/usbx/common/core/src/ux_device_stack_alternate_setting_set.c ****                                 device_framework_length -=  descriptor_length;
 368              		.loc 1 403 33 is_stmt 1 view .LVU153
 369              		.loc 1 403 57 is_stmt 0 view .LVU154
 370 0112 A6EB0806 		sub	r6, r6, r8
 371              	.LVL43:
 404:Middlewares/ST/usbx/common/core/src/ux_device_stack_alternate_setting_set.c ****                         
 405:Middlewares/ST/usbx/common/core/src/ux_device_stack_alternate_setting_set.c ****                                 /* Point to the next descriptor.  */
 406:Middlewares/ST/usbx/common/core/src/ux_device_stack_alternate_setting_set.c ****                                 device_framework +=  descriptor_length;
 372              		.loc 1 406 33 is_stmt 1 view .LVU155
 373              		.loc 1 406 50 is_stmt 0 view .LVU156
 374 0116 4744     		add	r7, r7, r8
 375              	.LVL44:
 376              	.L13:
 271:Middlewares/ST/usbx/common/core/src/ux_device_stack_alternate_setting_set.c ****                             {
 377              		.loc 1 271 60 is_stmt 1 view .LVU157
 378 0118 56B1     		cbz	r6, .L36
 275:Middlewares/ST/usbx/common/core/src/ux_device_stack_alternate_setting_set.c ****                         
 379              		.loc 1 275 33 view .LVU158
 275:Middlewares/ST/usbx/common/core/src/ux_device_stack_alternate_setting_set.c ****                         
 380              		.loc 1 275 62 is_stmt 0 view .LVU159
 381 011a 97F80080 		ldrb	r8, [r7]	@ zero_extendqisi2
 382              	.LVL45:
 278:Middlewares/ST/usbx/common/core/src/ux_device_stack_alternate_setting_set.c ****                                         
 383              		.loc 1 278 33 is_stmt 1 view .LVU160
 278:Middlewares/ST/usbx/common/core/src/ux_device_stack_alternate_setting_set.c ****                                         
 384              		.loc 1 278 49 is_stmt 0 view .LVU161
 385 011e 7B78     		ldrb	r3, [r7, #1]	@ zero_extendqisi2
 386              	.LVL46:
 281:Middlewares/ST/usbx/common/core/src/ux_device_stack_alternate_setting_set.c ****                                 {
 387              		.loc 1 281 33 is_stmt 1 view .LVU162
 388 0120 042B     		cmp	r3, #4
 389 0122 F5D0     		beq	.L28
 390 0124 052B     		cmp	r3, #5
 391 0126 ADD0     		beq	.L15
 392 0128 022B     		cmp	r3, #2
 393 012a F2D1     		bne	.L14
 391:Middlewares/ST/usbx/common/core/src/ux_device_stack_alternate_setting_set.c ****                                        
 394              		.loc 1 391 61 is_stmt 0 view .LVU163
 395 012c 4646     		mov	r6, r8
 396              	.LVL47:
 391:Middlewares/ST/usbx/common/core/src/ux_device_stack_alternate_setting_set.c ****                                        
 397              		.loc 1 391 61 view .LVU164
 398 012e F0E7     		b	.L14
 399              	.LVL48:
 400              	.L36:
 407:Middlewares/ST/usbx/common/core/src/ux_device_stack_alternate_setting_set.c ****                             }
 408:Middlewares/ST/usbx/common/core/src/ux_device_stack_alternate_setting_set.c **** 
 409:Middlewares/ST/usbx/common/core/src/ux_device_stack_alternate_setting_set.c ****                             /* The interface descriptor in the current class must be changed to the
 410:Middlewares/ST/usbx/common/core/src/ux_device_stack_alternate_setting_set.c ****                             _ux_utility_memory_copy(&interface_ptr -> ux_slave_interface_descriptor
 401              		.loc 1 410 29 is_stmt 1 view .LVU165
 402 0130 2422     		movs	r2, #36
 403 0132 0BA9     		add	r1, sp, #44
 404 0134 05F10C00 		add	r0, r5, #12
 405 0138 FFF7FEFF 		bl	_ux_utility_memory_copy
 406              	.LVL49:
ARM GAS  C:\Users\sapph\AppData\Local\Temp\ccKsVHSs.s 			page 16


 411:Middlewares/ST/usbx/common/core/src/ux_device_stack_alternate_setting_set.c ****                             
 412:Middlewares/ST/usbx/common/core/src/ux_device_stack_alternate_setting_set.c ****                             /* Get the class for the interface.  */
 413:Middlewares/ST/usbx/common/core/src/ux_device_stack_alternate_setting_set.c ****                             class_ptr =  _ux_system_slave -> ux_system_slave_interface_class_array[
 407              		.loc 1 413 29 view .LVU166
 408              		.loc 1 413 59 is_stmt 0 view .LVU167
 409 013c 254B     		ldr	r3, .L39
 410 013e 1A68     		ldr	r2, [r3]
 411              		.loc 1 413 146 view .LVU168
 412 0140 6B69     		ldr	r3, [r5, #20]
 413              		.loc 1 413 39 view .LVU169
 414 0142 5233     		adds	r3, r3, #82
 415 0144 52F82330 		ldr	r3, [r2, r3, lsl #2]
 416              	.LVL50:
 414:Middlewares/ST/usbx/common/core/src/ux_device_stack_alternate_setting_set.c **** 
 415:Middlewares/ST/usbx/common/core/src/ux_device_stack_alternate_setting_set.c ****                             /* Check if class driver is available. */
 416:Middlewares/ST/usbx/common/core/src/ux_device_stack_alternate_setting_set.c ****                             if (class_ptr == UX_NULL || class_ptr -> ux_slave_class_status == UX_UN
 417              		.loc 1 416 29 is_stmt 1 view .LVU170
 418              		.loc 1 416 32 is_stmt 0 view .LVU171
 419 0148 002B     		cmp	r3, #0
 420 014a 3ED0     		beq	.L29
 421              		.loc 1 416 67 discriminator 1 view .LVU172
 422 014c 1A6C     		ldr	r2, [r3, #64]
 423              		.loc 1 416 54 discriminator 1 view .LVU173
 424 014e 002A     		cmp	r2, #0
 425 0150 3DD0     		beq	.L30
 417:Middlewares/ST/usbx/common/core/src/ux_device_stack_alternate_setting_set.c ****                             {
 418:Middlewares/ST/usbx/common/core/src/ux_device_stack_alternate_setting_set.c **** 
 419:Middlewares/ST/usbx/common/core/src/ux_device_stack_alternate_setting_set.c ****                                 return (UX_NO_CLASS_MATCH);
 420:Middlewares/ST/usbx/common/core/src/ux_device_stack_alternate_setting_set.c ****                             }
 421:Middlewares/ST/usbx/common/core/src/ux_device_stack_alternate_setting_set.c ****                         
 422:Middlewares/ST/usbx/common/core/src/ux_device_stack_alternate_setting_set.c ****                             /* The interface attached to this configuration must be changed at the 
 423:Middlewares/ST/usbx/common/core/src/ux_device_stack_alternate_setting_set.c ****                                level.  */
 424:Middlewares/ST/usbx/common/core/src/ux_device_stack_alternate_setting_set.c ****                             class_command.ux_slave_class_command_request   =    UX_SLAVE_CLASS_COMM
 426              		.loc 1 424 29 is_stmt 1 view .LVU174
 427              		.loc 1 424 76 is_stmt 0 view .LVU175
 428 0152 0622     		movs	r2, #6
 429 0154 0092     		str	r2, [sp]
 425:Middlewares/ST/usbx/common/core/src/ux_device_stack_alternate_setting_set.c ****                             class_command.ux_slave_class_command_interface =   (VOID *) interface_p
 430              		.loc 1 425 29 is_stmt 1 view .LVU176
 431              		.loc 1 425 76 is_stmt 0 view .LVU177
 432 0156 0295     		str	r5, [sp, #8]
 426:Middlewares/ST/usbx/common/core/src/ux_device_stack_alternate_setting_set.c **** 
 427:Middlewares/ST/usbx/common/core/src/ux_device_stack_alternate_setting_set.c ****                             /* And store it.  */
 428:Middlewares/ST/usbx/common/core/src/ux_device_stack_alternate_setting_set.c ****                             class_command.ux_slave_class_command_class_ptr =  class_ptr;
 433              		.loc 1 428 29 is_stmt 1 view .LVU178
 434              		.loc 1 428 76 is_stmt 0 view .LVU179
 435 0158 0893     		str	r3, [sp, #32]
 429:Middlewares/ST/usbx/common/core/src/ux_device_stack_alternate_setting_set.c ****                             
 430:Middlewares/ST/usbx/common/core/src/ux_device_stack_alternate_setting_set.c ****                             /* We can now memorize the interface pointer associated with this class
 431:Middlewares/ST/usbx/common/core/src/ux_device_stack_alternate_setting_set.c ****                             class_ptr -> ux_slave_class_interface = interface_ptr;
 436              		.loc 1 431 29 is_stmt 1 view .LVU180
 437              		.loc 1 431 67 is_stmt 0 view .LVU181
 438 015a 1D66     		str	r5, [r3, #96]
 432:Middlewares/ST/usbx/common/core/src/ux_device_stack_alternate_setting_set.c ****                             
 433:Middlewares/ST/usbx/common/core/src/ux_device_stack_alternate_setting_set.c ****                             /* We have found a potential candidate. Call this registered class entr
 434:Middlewares/ST/usbx/common/core/src/ux_device_stack_alternate_setting_set.c ****                             status = class_ptr -> ux_slave_class_entry_function(&class_command);
 439              		.loc 1 434 29 is_stmt 1 view .LVU182
ARM GAS  C:\Users\sapph\AppData\Local\Temp\ccKsVHSs.s 			page 17


 440              		.loc 1 434 48 is_stmt 0 view .LVU183
 441 015c 5B6C     		ldr	r3, [r3, #68]
 442              	.LVL51:
 443              		.loc 1 434 38 view .LVU184
 444 015e 6846     		mov	r0, sp
 445 0160 9847     		blx	r3
 446              	.LVL52:
 435:Middlewares/ST/usbx/common/core/src/ux_device_stack_alternate_setting_set.c **** 
 436:Middlewares/ST/usbx/common/core/src/ux_device_stack_alternate_setting_set.c ****                             /* We are done here.  */
 437:Middlewares/ST/usbx/common/core/src/ux_device_stack_alternate_setting_set.c ****                             return(status); 
 447              		.loc 1 437 29 is_stmt 1 view .LVU185
 448              		.loc 1 437 35 is_stmt 0 view .LVU186
 449 0162 2BE0     		b	.L1
 450              	.LVL53:
 451              	.L10:
 438:Middlewares/ST/usbx/common/core/src/ux_device_stack_alternate_setting_set.c ****                         }
 439:Middlewares/ST/usbx/common/core/src/ux_device_stack_alternate_setting_set.c ****                     }               
 440:Middlewares/ST/usbx/common/core/src/ux_device_stack_alternate_setting_set.c **** 
 441:Middlewares/ST/usbx/common/core/src/ux_device_stack_alternate_setting_set.c ****                     /* Adjust what is left of the device framework.  */
 442:Middlewares/ST/usbx/common/core/src/ux_device_stack_alternate_setting_set.c ****                     device_framework_length -=  descriptor_length;
 452              		.loc 1 442 21 is_stmt 1 view .LVU187
 453              		.loc 1 442 45 is_stmt 0 view .LVU188
 454 0164 F61B     		subs	r6, r6, r7
 455              	.LVL54:
 443:Middlewares/ST/usbx/common/core/src/ux_device_stack_alternate_setting_set.c **** 
 444:Middlewares/ST/usbx/common/core/src/ux_device_stack_alternate_setting_set.c ****                     /* Point to the next descriptor.  */
 445:Middlewares/ST/usbx/common/core/src/ux_device_stack_alternate_setting_set.c ****                     device_framework +=  descriptor_length;
 456              		.loc 1 445 21 is_stmt 1 view .LVU189
 457              		.loc 1 445 38 is_stmt 0 view .LVU190
 458 0166 3C44     		add	r4, r4, r7
 459              	.LVL55:
 460              	.L9:
 210:Middlewares/ST/usbx/common/core/src/ux_device_stack_alternate_setting_set.c ****                 {
 461              		.loc 1 210 48 is_stmt 1 view .LVU191
 462 0168 8EB1     		cbz	r6, .L37
 214:Middlewares/ST/usbx/common/core/src/ux_device_stack_alternate_setting_set.c **** 
 463              		.loc 1 214 21 view .LVU192
 214:Middlewares/ST/usbx/common/core/src/ux_device_stack_alternate_setting_set.c **** 
 464              		.loc 1 214 50 is_stmt 0 view .LVU193
 465 016a 2778     		ldrb	r7, [r4]	@ zero_extendqisi2
 466              	.LVL56:
 217:Middlewares/ST/usbx/common/core/src/ux_device_stack_alternate_setting_set.c ****                 
 467              		.loc 1 217 21 is_stmt 1 view .LVU194
 217:Middlewares/ST/usbx/common/core/src/ux_device_stack_alternate_setting_set.c ****                 
 468              		.loc 1 217 37 is_stmt 0 view .LVU195
 469 016c 6378     		ldrb	r3, [r4, #1]	@ zero_extendqisi2
 470              	.LVL57:
 220:Middlewares/ST/usbx/common/core/src/ux_device_stack_alternate_setting_set.c ****                     {
 471              		.loc 1 220 21 is_stmt 1 view .LVU196
 220:Middlewares/ST/usbx/common/core/src/ux_device_stack_alternate_setting_set.c ****                     {
 472              		.loc 1 220 24 is_stmt 0 view .LVU197
 473 016e 042B     		cmp	r3, #4
 474 0170 F8D1     		bne	.L10
 224:Middlewares/ST/usbx/common/core/src/ux_device_stack_alternate_setting_set.c ****                                     _ux_system_interface_descriptor_structure,
 475              		.loc 1 224 25 is_stmt 1 view .LVU198
 476 0172 0BAB     		add	r3, sp, #44
 477 0174 0922     		movs	r2, #9
ARM GAS  C:\Users\sapph\AppData\Local\Temp\ccKsVHSs.s 			page 18


 478 0176 1949     		ldr	r1, .L39+8
 479 0178 2046     		mov	r0, r4
 480 017a FFF7FEFF 		bl	_ux_utility_descriptor_parse
 481              	.LVL58:
 230:Middlewares/ST/usbx/common/core/src/ux_device_stack_alternate_setting_set.c ****                             interface_descriptor.bAlternateSetting == alternate_setting_value)
 482              		.loc 1 230 25 view .LVU199
 230:Middlewares/ST/usbx/common/core/src/ux_device_stack_alternate_setting_set.c ****                             interface_descriptor.bAlternateSetting == alternate_setting_value)
 483              		.loc 1 230 49 is_stmt 0 view .LVU200
 484 017e 0D9B     		ldr	r3, [sp, #52]
 230:Middlewares/ST/usbx/common/core/src/ux_device_stack_alternate_setting_set.c ****                             interface_descriptor.bAlternateSetting == alternate_setting_value)
 485              		.loc 1 230 28 view .LVU201
 486 0180 4345     		cmp	r3, r8
 487 0182 EFD1     		bne	.L10
 231:Middlewares/ST/usbx/common/core/src/ux_device_stack_alternate_setting_set.c ****                         {
 488              		.loc 1 231 49 view .LVU202
 489 0184 0E9B     		ldr	r3, [sp, #56]
 230:Middlewares/ST/usbx/common/core/src/ux_device_stack_alternate_setting_set.c ****                             interface_descriptor.bAlternateSetting == alternate_setting_value)
 490              		.loc 1 230 86 discriminator 1 view .LVU203
 491 0186 5345     		cmp	r3, r10
 492 0188 ECD1     		bne	.L10
 237:Middlewares/ST/usbx/common/core/src/ux_device_stack_alternate_setting_set.c ****                             while (endpoint != UX_NULL)
 493              		.loc 1 237 29 is_stmt 1 view .LVU204
 237:Middlewares/ST/usbx/common/core/src/ux_device_stack_alternate_setting_set.c ****                             while (endpoint != UX_NULL)
 494              		.loc 1 237 38 is_stmt 0 view .LVU205
 495 018a 6F6B     		ldr	r7, [r5, #52]
 496              	.LVL59:
 238:Middlewares/ST/usbx/common/core/src/ux_device_stack_alternate_setting_set.c ****                             {
 497              		.loc 1 238 29 is_stmt 1 view .LVU206
 238:Middlewares/ST/usbx/common/core/src/ux_device_stack_alternate_setting_set.c ****                             {
 498              		.loc 1 238 35 is_stmt 0 view .LVU207
 499 018c 72E7     		b	.L11
 500              	.LVL60:
 501              	.L37:
 446:Middlewares/ST/usbx/common/core/src/ux_device_stack_alternate_setting_set.c ****                 }
 447:Middlewares/ST/usbx/common/core/src/ux_device_stack_alternate_setting_set.c **** 
 448:Middlewares/ST/usbx/common/core/src/ux_device_stack_alternate_setting_set.c ****                 /* In case alter setting not found, report protocol error. */
 449:Middlewares/ST/usbx/common/core/src/ux_device_stack_alternate_setting_set.c ****                 break;
 450:Middlewares/ST/usbx/common/core/src/ux_device_stack_alternate_setting_set.c ****             }
 451:Middlewares/ST/usbx/common/core/src/ux_device_stack_alternate_setting_set.c ****         }
 452:Middlewares/ST/usbx/common/core/src/ux_device_stack_alternate_setting_set.c **** 
 453:Middlewares/ST/usbx/common/core/src/ux_device_stack_alternate_setting_set.c ****         /* Adjust what is left of the device framework.  */
 454:Middlewares/ST/usbx/common/core/src/ux_device_stack_alternate_setting_set.c ****         device_framework_length -=  descriptor_length;
 455:Middlewares/ST/usbx/common/core/src/ux_device_stack_alternate_setting_set.c **** 
 456:Middlewares/ST/usbx/common/core/src/ux_device_stack_alternate_setting_set.c ****         /* Point to the next descriptor.  */
 457:Middlewares/ST/usbx/common/core/src/ux_device_stack_alternate_setting_set.c ****         device_framework +=  descriptor_length;
 458:Middlewares/ST/usbx/common/core/src/ux_device_stack_alternate_setting_set.c ****     }
 459:Middlewares/ST/usbx/common/core/src/ux_device_stack_alternate_setting_set.c **** 
 460:Middlewares/ST/usbx/common/core/src/ux_device_stack_alternate_setting_set.c ****     /* Return error completion.  */
 461:Middlewares/ST/usbx/common/core/src/ux_device_stack_alternate_setting_set.c ****     return(UX_ERROR);
 502              		.loc 1 461 11 view .LVU208
 503 018e FF20     		movs	r0, #255
 504 0190 14E0     		b	.L1
 505              	.LVL61:
 506              	.L8:
 454:Middlewares/ST/usbx/common/core/src/ux_device_stack_alternate_setting_set.c **** 
 507              		.loc 1 454 9 is_stmt 1 view .LVU209
 454:Middlewares/ST/usbx/common/core/src/ux_device_stack_alternate_setting_set.c **** 
ARM GAS  C:\Users\sapph\AppData\Local\Temp\ccKsVHSs.s 			page 19


 508              		.loc 1 454 33 is_stmt 0 view .LVU210
 509 0192 F61B     		subs	r6, r6, r7
 510              	.LVL62:
 457:Middlewares/ST/usbx/common/core/src/ux_device_stack_alternate_setting_set.c ****     }
 511              		.loc 1 457 9 is_stmt 1 view .LVU211
 457:Middlewares/ST/usbx/common/core/src/ux_device_stack_alternate_setting_set.c ****     }
 512              		.loc 1 457 26 is_stmt 0 view .LVU212
 513 0194 3C44     		add	r4, r4, r7
 514              	.LVL63:
 515              	.L7:
 180:Middlewares/ST/usbx/common/core/src/ux_device_stack_alternate_setting_set.c ****     {
 516              		.loc 1 180 36 is_stmt 1 view .LVU213
 517 0196 86B1     		cbz	r6, .L38
 184:Middlewares/ST/usbx/common/core/src/ux_device_stack_alternate_setting_set.c **** 
 518              		.loc 1 184 9 view .LVU214
 184:Middlewares/ST/usbx/common/core/src/ux_device_stack_alternate_setting_set.c **** 
 519              		.loc 1 184 38 is_stmt 0 view .LVU215
 520 0198 2778     		ldrb	r7, [r4]	@ zero_extendqisi2
 521              	.LVL64:
 187:Middlewares/ST/usbx/common/core/src/ux_device_stack_alternate_setting_set.c ****                 
 522              		.loc 1 187 9 is_stmt 1 view .LVU216
 187:Middlewares/ST/usbx/common/core/src/ux_device_stack_alternate_setting_set.c ****                 
 523              		.loc 1 187 25 is_stmt 0 view .LVU217
 524 019a 6378     		ldrb	r3, [r4, #1]	@ zero_extendqisi2
 525              	.LVL65:
 190:Middlewares/ST/usbx/common/core/src/ux_device_stack_alternate_setting_set.c ****         {
 526              		.loc 1 190 9 is_stmt 1 view .LVU218
 190:Middlewares/ST/usbx/common/core/src/ux_device_stack_alternate_setting_set.c ****         {
 527              		.loc 1 190 12 is_stmt 0 view .LVU219
 528 019c 022B     		cmp	r3, #2
 529 019e F8D1     		bne	.L8
 194:Middlewares/ST/usbx/common/core/src/ux_device_stack_alternate_setting_set.c ****                         _ux_system_configuration_descriptor_structure,
 530              		.loc 1 194 13 is_stmt 1 view .LVU220
 531 01a0 14AB     		add	r3, sp, #80
 532 01a2 0822     		movs	r2, #8
 533 01a4 0E49     		ldr	r1, .L39+12
 534 01a6 2046     		mov	r0, r4
 535 01a8 FFF7FEFF 		bl	_ux_utility_descriptor_parse
 536              	.LVL66:
 200:Middlewares/ST/usbx/common/core/src/ux_device_stack_alternate_setting_set.c ****             {
 537              		.loc 1 200 13 view .LVU221
 200:Middlewares/ST/usbx/common/core/src/ux_device_stack_alternate_setting_set.c ****             {
 538              		.loc 1 200 72 is_stmt 0 view .LVU222
 539 01ac D9F8D830 		ldr	r3, [r9, #216]
 200:Middlewares/ST/usbx/common/core/src/ux_device_stack_alternate_setting_set.c ****             {
 540              		.loc 1 200 16 view .LVU223
 541 01b0 189A     		ldr	r2, [sp, #96]
 542 01b2 9A42     		cmp	r2, r3
 543 01b4 EDD1     		bne	.L8
 204:Middlewares/ST/usbx/common/core/src/ux_device_stack_alternate_setting_set.c **** 
 544              		.loc 1 204 17 is_stmt 1 view .LVU224
 204:Middlewares/ST/usbx/common/core/src/ux_device_stack_alternate_setting_set.c **** 
 545              		.loc 1 204 41 is_stmt 0 view .LVU225
 546 01b6 169E     		ldr	r6, [sp, #88]
 547              	.LVL67:
 210:Middlewares/ST/usbx/common/core/src/ux_device_stack_alternate_setting_set.c ****                 {
 548              		.loc 1 210 17 is_stmt 1 view .LVU226
ARM GAS  C:\Users\sapph\AppData\Local\Temp\ccKsVHSs.s 			page 20


 210:Middlewares/ST/usbx/common/core/src/ux_device_stack_alternate_setting_set.c ****                 {
 549              		.loc 1 210 23 is_stmt 0 view .LVU227
 550 01b8 D6E7     		b	.L9
 551              	.LVL68:
 552              	.L38:
 553              		.loc 1 461 11 view .LVU228
 554 01ba FF20     		movs	r0, #255
 555              	.LVL69:
 556              	.L1:
 462:Middlewares/ST/usbx/common/core/src/ux_device_stack_alternate_setting_set.c **** #endif
 463:Middlewares/ST/usbx/common/core/src/ux_device_stack_alternate_setting_set.c **** }
 557              		.loc 1 463 1 view .LVU229
 558 01bc 1DB0     		add	sp, sp, #116
 559              		.cfi_remember_state
 560              		.cfi_def_cfa_offset 36
 561              		@ sp needed
 562 01be BDE8F08F 		pop	{r4, r5, r6, r7, r8, r9, r10, fp, pc}
 563              	.LVL70:
 564              	.L26:
 565              		.cfi_restore_state
 122:Middlewares/ST/usbx/common/core/src/ux_device_stack_alternate_setting_set.c **** 
 566              		.loc 1 122 15 view .LVU230
 567 01c2 5420     		movs	r0, #84
 568              	.LVL71:
 122:Middlewares/ST/usbx/common/core/src/ux_device_stack_alternate_setting_set.c **** 
 569              		.loc 1 122 15 view .LVU231
 570 01c4 FAE7     		b	.L1
 571              	.LVL72:
 572              	.L27:
 159:Middlewares/ST/usbx/common/core/src/ux_device_stack_alternate_setting_set.c **** 
 573              		.loc 1 159 15 view .LVU232
 574 01c6 0020     		movs	r0, #0
 575              	.LVL73:
 159:Middlewares/ST/usbx/common/core/src/ux_device_stack_alternate_setting_set.c **** 
 576              		.loc 1 159 15 view .LVU233
 577 01c8 F8E7     		b	.L1
 578              	.LVL74:
 579              	.L29:
 419:Middlewares/ST/usbx/common/core/src/ux_device_stack_alternate_setting_set.c ****                             }
 580              		.loc 1 419 40 view .LVU234
 581 01ca 5720     		movs	r0, #87
 582 01cc F6E7     		b	.L1
 583              	.L30:
 584 01ce 5720     		movs	r0, #87
 585 01d0 F4E7     		b	.L1
 586              	.L40:
 587 01d2 00BF     		.align	2
 588              	.L39:
 589 01d4 00000000 		.word	_ux_system_slave
 590 01d8 00000000 		.word	_ux_system_endpoint_descriptor_structure
 591 01dc 00000000 		.word	_ux_system_interface_descriptor_structure
 592 01e0 00000000 		.word	_ux_system_configuration_descriptor_structure
 593              		.cfi_endproc
 594              	.LFE3:
 596              		.text
 597              	.Letext0:
 598              		.file 2 "Middlewares/ST/usbx/ports/generic/inc/ux_port.h"
ARM GAS  C:\Users\sapph\AppData\Local\Temp\ccKsVHSs.s 			page 21


 599              		.file 3 "Middlewares/ST/usbx/common/core/inc/ux_api.h"
 600              		.file 4 "Middlewares/ST/usbx/common/core/inc/ux_system.h"
 601              		.file 5 "Middlewares/ST/usbx/common/core/inc/ux_utility.h"
 602              		.file 6 "Middlewares/ST/usbx/common/core/inc/ux_device_stack.h"
ARM GAS  C:\Users\sapph\AppData\Local\Temp\ccKsVHSs.s 			page 22

