ARM GAS  C:\Users\sapph\AppData\Local\Temp\cc5Y4TOA.s 			page 1


   1              		.cpu cortex-m33
   2              		.arch armv8-m.main
   3              		.fpu fpv4-sp-d16
   4              		.arch_extension dsp
   5              		.eabi_attribute 27, 1
   6              		.eabi_attribute 28, 1
   7              		.eabi_attribute 20, 1
   8              		.eabi_attribute 21, 1
   9              		.eabi_attribute 23, 3
  10              		.eabi_attribute 24, 1
  11              		.eabi_attribute 25, 1
  12              		.eabi_attribute 26, 1
  13              		.eabi_attribute 30, 1
  14              		.eabi_attribute 34, 1
  15              		.eabi_attribute 18, 4
  16              		.file	"ux_system_initialize.c"
  17              		.text
  18              	.Ltext0:
  19              		.cfi_sections	.debug_frame
  20              		.file 1 "Middlewares/ST/usbx/common/core/src/ux_system_initialize.c"
  21              		.section	.text._ux_system_initialize,"ax",%progbits
  22              		.align	1
  23              		.global	_ux_system_initialize
  24              		.syntax unified
  25              		.thumb
  26              		.thumb_func
  28              	_ux_system_initialize:
  29              	.LVL0:
  30              	.LFB3:
   1:Middlewares/ST/usbx/common/core/src/ux_system_initialize.c **** /**************************************************************************/
   2:Middlewares/ST/usbx/common/core/src/ux_system_initialize.c **** /*                                                                        */
   3:Middlewares/ST/usbx/common/core/src/ux_system_initialize.c **** /*       Copyright (c) Microsoft Corporation. All rights reserved.        */
   4:Middlewares/ST/usbx/common/core/src/ux_system_initialize.c **** /*                                                                        */
   5:Middlewares/ST/usbx/common/core/src/ux_system_initialize.c **** /*       This software is licensed under the Microsoft Software License   */
   6:Middlewares/ST/usbx/common/core/src/ux_system_initialize.c **** /*       Terms for Microsoft Azure RTOS. Full text of the license can be  */
   7:Middlewares/ST/usbx/common/core/src/ux_system_initialize.c **** /*       found in the LICENSE file at https://aka.ms/AzureRTOS_EULA       */
   8:Middlewares/ST/usbx/common/core/src/ux_system_initialize.c **** /*       and in the root directory of this software.                      */
   9:Middlewares/ST/usbx/common/core/src/ux_system_initialize.c **** /*                                                                        */
  10:Middlewares/ST/usbx/common/core/src/ux_system_initialize.c **** /**************************************************************************/
  11:Middlewares/ST/usbx/common/core/src/ux_system_initialize.c **** 
  12:Middlewares/ST/usbx/common/core/src/ux_system_initialize.c **** 
  13:Middlewares/ST/usbx/common/core/src/ux_system_initialize.c **** /**************************************************************************/
  14:Middlewares/ST/usbx/common/core/src/ux_system_initialize.c **** /**************************************************************************/
  15:Middlewares/ST/usbx/common/core/src/ux_system_initialize.c **** /**                                                                       */ 
  16:Middlewares/ST/usbx/common/core/src/ux_system_initialize.c **** /** USBX Component                                                        */ 
  17:Middlewares/ST/usbx/common/core/src/ux_system_initialize.c **** /**                                                                       */
  18:Middlewares/ST/usbx/common/core/src/ux_system_initialize.c **** /**   System                                                              */
  19:Middlewares/ST/usbx/common/core/src/ux_system_initialize.c **** /**                                                                       */
  20:Middlewares/ST/usbx/common/core/src/ux_system_initialize.c **** /**************************************************************************/
  21:Middlewares/ST/usbx/common/core/src/ux_system_initialize.c **** /**************************************************************************/
  22:Middlewares/ST/usbx/common/core/src/ux_system_initialize.c **** 
  23:Middlewares/ST/usbx/common/core/src/ux_system_initialize.c **** 
  24:Middlewares/ST/usbx/common/core/src/ux_system_initialize.c **** /* Define UX_SYSTEM_INIT to bring in the USBX version ID string.  */
  25:Middlewares/ST/usbx/common/core/src/ux_system_initialize.c **** 
  26:Middlewares/ST/usbx/common/core/src/ux_system_initialize.c **** #define UX_SYSTEM_INIT
  27:Middlewares/ST/usbx/common/core/src/ux_system_initialize.c **** 
  28:Middlewares/ST/usbx/common/core/src/ux_system_initialize.c **** 
ARM GAS  C:\Users\sapph\AppData\Local\Temp\cc5Y4TOA.s 			page 2


  29:Middlewares/ST/usbx/common/core/src/ux_system_initialize.c **** /* Include necessary system files.  */
  30:Middlewares/ST/usbx/common/core/src/ux_system_initialize.c **** 
  31:Middlewares/ST/usbx/common/core/src/ux_system_initialize.c **** #define UX_SOURCE_CODE
  32:Middlewares/ST/usbx/common/core/src/ux_system_initialize.c **** 
  33:Middlewares/ST/usbx/common/core/src/ux_system_initialize.c **** #include "ux_api.h"
  34:Middlewares/ST/usbx/common/core/src/ux_system_initialize.c **** #include "ux_system.h"
  35:Middlewares/ST/usbx/common/core/src/ux_system_initialize.c **** 
  36:Middlewares/ST/usbx/common/core/src/ux_system_initialize.c **** /* Define the USBX system data structure.  */
  37:Middlewares/ST/usbx/common/core/src/ux_system_initialize.c **** 
  38:Middlewares/ST/usbx/common/core/src/ux_system_initialize.c **** UX_SYSTEM         *_ux_system;
  39:Middlewares/ST/usbx/common/core/src/ux_system_initialize.c **** UX_SYSTEM_OTG     *_ux_system_otg;
  40:Middlewares/ST/usbx/common/core/src/ux_system_initialize.c **** 
  41:Middlewares/ST/usbx/common/core/src/ux_system_initialize.c **** /* Define names of all the packed descriptors in USBX.  */
  42:Middlewares/ST/usbx/common/core/src/ux_system_initialize.c **** 
  43:Middlewares/ST/usbx/common/core/src/ux_system_initialize.c **** UCHAR _ux_system_endpoint_descriptor_structure[] =                          {1,1,1,1,2,1 };
  44:Middlewares/ST/usbx/common/core/src/ux_system_initialize.c **** UCHAR _ux_system_device_descriptor_structure[] =                            {1,1,2,1,1,1,1,2,2,2,1,
  45:Middlewares/ST/usbx/common/core/src/ux_system_initialize.c **** UCHAR _ux_system_configuration_descriptor_structure[] =                     {1,1,2,1,1,1,1,1};
  46:Middlewares/ST/usbx/common/core/src/ux_system_initialize.c **** UCHAR _ux_system_interface_descriptor_structure[] =                         {1,1,1,1,1,1,1,1,1};
  47:Middlewares/ST/usbx/common/core/src/ux_system_initialize.c **** UCHAR _ux_system_interface_association_descriptor_structure[] =             {1,1,1,1,1,1,1,1};
  48:Middlewares/ST/usbx/common/core/src/ux_system_initialize.c **** UCHAR _ux_system_string_descriptor_structure[] =                            {1,1,2};
  49:Middlewares/ST/usbx/common/core/src/ux_system_initialize.c **** UCHAR _ux_system_dfu_functional_descriptor_structure[] =                    {1,1,1,2,2,2};
  50:Middlewares/ST/usbx/common/core/src/ux_system_initialize.c **** UCHAR _ux_system_class_audio_interface_descriptor_structure[] =             {1,1,1,1,1,1,1,1};
  51:Middlewares/ST/usbx/common/core/src/ux_system_initialize.c **** UCHAR _ux_system_class_audio_input_terminal_descriptor_structure[] =        {1,1,1,1,2,1,1,2,1,1};
  52:Middlewares/ST/usbx/common/core/src/ux_system_initialize.c **** UCHAR _ux_system_class_audio_output_terminal_descriptor_structure[] =       {1,1,1,1,2,1,1,1};
  53:Middlewares/ST/usbx/common/core/src/ux_system_initialize.c **** UCHAR _ux_system_class_audio_feature_unit_descriptor_structure[] =          {1,1,1,1,1,1,1};
  54:Middlewares/ST/usbx/common/core/src/ux_system_initialize.c **** UCHAR _ux_system_class_audio_streaming_interface_descriptor_structure[] =   {1,1,1,1,1,1};
  55:Middlewares/ST/usbx/common/core/src/ux_system_initialize.c **** UCHAR _ux_system_class_audio_streaming_endpoint_descriptor_structure[] =    {1,1,1,1,1,1};
  56:Middlewares/ST/usbx/common/core/src/ux_system_initialize.c **** UCHAR _ux_system_hub_descriptor_structure[] =                               {1,1,1,2,1,1,1,1};
  57:Middlewares/ST/usbx/common/core/src/ux_system_initialize.c **** UCHAR _ux_system_hid_descriptor_structure[] =                               {1,1,2,1,1,1,2};
  58:Middlewares/ST/usbx/common/core/src/ux_system_initialize.c **** UCHAR _ux_system_class_pima_storage_structure[] =                           {2,2,2,4,4,4,4,4};
  59:Middlewares/ST/usbx/common/core/src/ux_system_initialize.c **** UCHAR _ux_system_class_pima_object_structure[] =                            {4,2,2,4,2,4,4,4,4,4,4,
  60:Middlewares/ST/usbx/common/core/src/ux_system_initialize.c **** UCHAR _ux_system_ecm_interface_descriptor_structure[] =                     {1,1,1,1,4,2,2,1};
  61:Middlewares/ST/usbx/common/core/src/ux_system_initialize.c **** 
  62:Middlewares/ST/usbx/common/core/src/ux_system_initialize.c **** UCHAR _ux_system_bos_descriptor_structure[] =                               {1,1,2,1};
  63:Middlewares/ST/usbx/common/core/src/ux_system_initialize.c **** UCHAR _ux_system_usb_2_0_extension_descriptor_structure[] =                 {1,1,1,4};
  64:Middlewares/ST/usbx/common/core/src/ux_system_initialize.c **** UCHAR _ux_system_container_id_descriptor_structure[] =                      {1,1,1,1,4,4,4,4};
  65:Middlewares/ST/usbx/common/core/src/ux_system_initialize.c **** 
  66:Middlewares/ST/usbx/common/core/src/ux_system_initialize.c **** 
  67:Middlewares/ST/usbx/common/core/src/ux_system_initialize.c **** /**************************************************************************/ 
  68:Middlewares/ST/usbx/common/core/src/ux_system_initialize.c **** /*                                                                        */ 
  69:Middlewares/ST/usbx/common/core/src/ux_system_initialize.c **** /*  FUNCTION                                               RELEASE        */ 
  70:Middlewares/ST/usbx/common/core/src/ux_system_initialize.c **** /*                                                                        */ 
  71:Middlewares/ST/usbx/common/core/src/ux_system_initialize.c **** /*    _ux_system_initialize                               PORTABLE C      */ 
  72:Middlewares/ST/usbx/common/core/src/ux_system_initialize.c **** /*                                                           6.1.10       */
  73:Middlewares/ST/usbx/common/core/src/ux_system_initialize.c **** /*  AUTHOR                                                                */
  74:Middlewares/ST/usbx/common/core/src/ux_system_initialize.c **** /*                                                                        */
  75:Middlewares/ST/usbx/common/core/src/ux_system_initialize.c **** /*    Chaoqiong Xiao, Microsoft Corporation                               */
  76:Middlewares/ST/usbx/common/core/src/ux_system_initialize.c **** /*                                                                        */
  77:Middlewares/ST/usbx/common/core/src/ux_system_initialize.c **** /*  DESCRIPTION                                                           */
  78:Middlewares/ST/usbx/common/core/src/ux_system_initialize.c **** /*                                                                        */ 
  79:Middlewares/ST/usbx/common/core/src/ux_system_initialize.c **** /*    This function initializes the various control data structures for   */ 
  80:Middlewares/ST/usbx/common/core/src/ux_system_initialize.c **** /*    the USBX system.                                                    */ 
  81:Middlewares/ST/usbx/common/core/src/ux_system_initialize.c **** /*                                                                        */ 
  82:Middlewares/ST/usbx/common/core/src/ux_system_initialize.c **** /*  INPUT                                                                 */ 
  83:Middlewares/ST/usbx/common/core/src/ux_system_initialize.c **** /*                                                                        */ 
  84:Middlewares/ST/usbx/common/core/src/ux_system_initialize.c **** /*    regular_memory_pool_start        Start of non cached memory pool    */
  85:Middlewares/ST/usbx/common/core/src/ux_system_initialize.c **** /*    regular_memory_size              Size of non cached memory pool     */ 
ARM GAS  C:\Users\sapph\AppData\Local\Temp\cc5Y4TOA.s 			page 3


  86:Middlewares/ST/usbx/common/core/src/ux_system_initialize.c **** /*    cache_safe_memory_pool_start     Start of cached memory pool        */
  87:Middlewares/ST/usbx/common/core/src/ux_system_initialize.c **** /*    cache_safe_memory_size           Size of cached memory pool         */ 
  88:Middlewares/ST/usbx/common/core/src/ux_system_initialize.c **** /*                                                                        */ 
  89:Middlewares/ST/usbx/common/core/src/ux_system_initialize.c **** /*  OUTPUT                                                                */ 
  90:Middlewares/ST/usbx/common/core/src/ux_system_initialize.c **** /*                                                                        */ 
  91:Middlewares/ST/usbx/common/core/src/ux_system_initialize.c **** /*    None                                                                */
  92:Middlewares/ST/usbx/common/core/src/ux_system_initialize.c **** /*                                                                        */ 
  93:Middlewares/ST/usbx/common/core/src/ux_system_initialize.c **** /*  CALLS                                                                 */ 
  94:Middlewares/ST/usbx/common/core/src/ux_system_initialize.c **** /*                                                                        */ 
  95:Middlewares/ST/usbx/common/core/src/ux_system_initialize.c **** /*    _ux_utility_memory_allocate           Allocate memory               */
  96:Middlewares/ST/usbx/common/core/src/ux_system_initialize.c **** /*    _ux_utility_memory_set                Set memory                    */ 
  97:Middlewares/ST/usbx/common/core/src/ux_system_initialize.c **** /*    _ux_utility_mutex_create              Create mutex                  */
  98:Middlewares/ST/usbx/common/core/src/ux_system_initialize.c **** /*                                                                        */ 
  99:Middlewares/ST/usbx/common/core/src/ux_system_initialize.c **** /*  CALLED BY                                                             */ 
 100:Middlewares/ST/usbx/common/core/src/ux_system_initialize.c **** /*                                                                        */ 
 101:Middlewares/ST/usbx/common/core/src/ux_system_initialize.c **** /*    Application                                                         */ 
 102:Middlewares/ST/usbx/common/core/src/ux_system_initialize.c **** /*                                                                        */ 
 103:Middlewares/ST/usbx/common/core/src/ux_system_initialize.c **** /*  RELEASE HISTORY                                                       */ 
 104:Middlewares/ST/usbx/common/core/src/ux_system_initialize.c **** /*                                                                        */ 
 105:Middlewares/ST/usbx/common/core/src/ux_system_initialize.c **** /*    DATE              NAME                      DESCRIPTION             */ 
 106:Middlewares/ST/usbx/common/core/src/ux_system_initialize.c **** /*                                                                        */ 
 107:Middlewares/ST/usbx/common/core/src/ux_system_initialize.c **** /*  05-19-2020     Chaoqiong Xiao           Initial Version 6.0           */
 108:Middlewares/ST/usbx/common/core/src/ux_system_initialize.c **** /*  09-30-2020     Chaoqiong Xiao           Modified comment(s),          */
 109:Middlewares/ST/usbx/common/core/src/ux_system_initialize.c **** /*                                            verified memset and memcpy  */
 110:Middlewares/ST/usbx/common/core/src/ux_system_initialize.c **** /*                                            cases,                      */
 111:Middlewares/ST/usbx/common/core/src/ux_system_initialize.c **** /*                                            resulting in version 6.1    */
 112:Middlewares/ST/usbx/common/core/src/ux_system_initialize.c **** /*  12-31-2020     Chaoqiong Xiao           Modified comment(s),          */
 113:Middlewares/ST/usbx/common/core/src/ux_system_initialize.c **** /*                                            added BOS support,          */
 114:Middlewares/ST/usbx/common/core/src/ux_system_initialize.c **** /*                                            resulting in version 6.1.3  */
 115:Middlewares/ST/usbx/common/core/src/ux_system_initialize.c **** /*  01-31-2022     Chaoqiong Xiao           Modified comment(s),          */
 116:Middlewares/ST/usbx/common/core/src/ux_system_initialize.c **** /*                                            added standalone support,   */
 117:Middlewares/ST/usbx/common/core/src/ux_system_initialize.c **** /*                                            resulting in version 6.1.10 */
 118:Middlewares/ST/usbx/common/core/src/ux_system_initialize.c **** /*                                                                        */
 119:Middlewares/ST/usbx/common/core/src/ux_system_initialize.c **** /**************************************************************************/
 120:Middlewares/ST/usbx/common/core/src/ux_system_initialize.c **** UINT  _ux_system_initialize(VOID *regular_memory_pool_start, ULONG regular_memory_size, 
 121:Middlewares/ST/usbx/common/core/src/ux_system_initialize.c ****                             VOID *cache_safe_memory_pool_start, ULONG cache_safe_memory_size)
 122:Middlewares/ST/usbx/common/core/src/ux_system_initialize.c **** {
  31              		.loc 1 122 1 view -0
  32              		.cfi_startproc
  33              		@ args = 0, pretend = 0, frame = 0
  34              		@ frame_needed = 0, uses_anonymous_args = 0
  35              		.loc 1 122 1 is_stmt 0 view .LVU1
  36 0000 F8B5     		push	{r3, r4, r5, r6, r7, lr}
  37              		.cfi_def_cfa_offset 24
  38              		.cfi_offset 3, -24
  39              		.cfi_offset 4, -20
  40              		.cfi_offset 5, -16
  41              		.cfi_offset 6, -12
  42              		.cfi_offset 7, -8
  43              		.cfi_offset 14, -4
  44 0002 0446     		mov	r4, r0
  45 0004 0F46     		mov	r7, r1
  46 0006 1546     		mov	r5, r2
  47 0008 1E46     		mov	r6, r3
 123:Middlewares/ST/usbx/common/core/src/ux_system_initialize.c **** 
 124:Middlewares/ST/usbx/common/core/src/ux_system_initialize.c **** UX_MEMORY_BLOCK     *memory_block;
  48              		.loc 1 124 1 is_stmt 1 view .LVU2
ARM GAS  C:\Users\sapph\AppData\Local\Temp\cc5Y4TOA.s 			page 4


 125:Middlewares/ST/usbx/common/core/src/ux_system_initialize.c **** ALIGN_TYPE          int_memory_pool_start;
  49              		.loc 1 125 1 view .LVU3
 126:Middlewares/ST/usbx/common/core/src/ux_system_initialize.c **** VOID                *regular_memory_pool_end;
  50              		.loc 1 126 1 view .LVU4
 127:Middlewares/ST/usbx/common/core/src/ux_system_initialize.c **** ULONG               memory_pool_offset;
  51              		.loc 1 127 1 view .LVU5
 128:Middlewares/ST/usbx/common/core/src/ux_system_initialize.c **** #if !defined(UX_STANDALONE)
 129:Middlewares/ST/usbx/common/core/src/ux_system_initialize.c **** UINT                status;
 130:Middlewares/ST/usbx/common/core/src/ux_system_initialize.c **** #endif
 131:Middlewares/ST/usbx/common/core/src/ux_system_initialize.c **** 
 132:Middlewares/ST/usbx/common/core/src/ux_system_initialize.c **** 
 133:Middlewares/ST/usbx/common/core/src/ux_system_initialize.c ****     /* Reset memory block */
 134:Middlewares/ST/usbx/common/core/src/ux_system_initialize.c ****     _ux_utility_memory_set(regular_memory_pool_start, 0, regular_memory_size); /* Use case of memse
  52              		.loc 1 134 5 view .LVU6
  53 000a 0A46     		mov	r2, r1
  54              	.LVL1:
  55              		.loc 1 134 5 is_stmt 0 view .LVU7
  56 000c 0021     		movs	r1, #0
  57              	.LVL2:
  58              		.loc 1 134 5 view .LVU8
  59 000e FFF7FEFF 		bl	_ux_utility_memory_set
  60              	.LVL3:
 135:Middlewares/ST/usbx/common/core/src/ux_system_initialize.c **** 
 136:Middlewares/ST/usbx/common/core/src/ux_system_initialize.c ****     /* Set the _ux_system structure at the start of our regular memory */
 137:Middlewares/ST/usbx/common/core/src/ux_system_initialize.c ****     _ux_system =  (UX_SYSTEM *) regular_memory_pool_start;
  61              		.loc 1 137 5 is_stmt 1 view .LVU9
  62              		.loc 1 137 16 is_stmt 0 view .LVU10
  63 0012 204B     		ldr	r3, .L7
  64 0014 1C60     		str	r4, [r3]
 138:Middlewares/ST/usbx/common/core/src/ux_system_initialize.c **** 
 139:Middlewares/ST/usbx/common/core/src/ux_system_initialize.c ****     /* Add to the memory offset the size of the allocated block.  */
 140:Middlewares/ST/usbx/common/core/src/ux_system_initialize.c ****     memory_pool_offset = sizeof(UX_SYSTEM);
  65              		.loc 1 140 5 is_stmt 1 view .LVU11
  66              	.LVL4:
 141:Middlewares/ST/usbx/common/core/src/ux_system_initialize.c **** 
 142:Middlewares/ST/usbx/common/core/src/ux_system_initialize.c **** #ifndef UX_DEVICE_SIDE_ONLY
 143:Middlewares/ST/usbx/common/core/src/ux_system_initialize.c **** 
 144:Middlewares/ST/usbx/common/core/src/ux_system_initialize.c ****     /* Set the _ux_system_host structure.  */
 145:Middlewares/ST/usbx/common/core/src/ux_system_initialize.c ****     _ux_system_host =  (UX_SYSTEM_HOST *) (((UCHAR *) regular_memory_pool_start) + memory_pool_offs
 146:Middlewares/ST/usbx/common/core/src/ux_system_initialize.c **** 
 147:Middlewares/ST/usbx/common/core/src/ux_system_initialize.c ****     /* Add to the memory offset the size of the allocated block.  */
 148:Middlewares/ST/usbx/common/core/src/ux_system_initialize.c ****     memory_pool_offset += (ULONG)sizeof(UX_SYSTEM_HOST);
 149:Middlewares/ST/usbx/common/core/src/ux_system_initialize.c ****     
 150:Middlewares/ST/usbx/common/core/src/ux_system_initialize.c **** #endif 
 151:Middlewares/ST/usbx/common/core/src/ux_system_initialize.c **** 
 152:Middlewares/ST/usbx/common/core/src/ux_system_initialize.c **** #ifndef UX_HOST_SIDE_ONLY
 153:Middlewares/ST/usbx/common/core/src/ux_system_initialize.c **** 
 154:Middlewares/ST/usbx/common/core/src/ux_system_initialize.c ****     /* Set the _ux_system_slave structure.  */
 155:Middlewares/ST/usbx/common/core/src/ux_system_initialize.c ****     _ux_system_slave =  (UX_SYSTEM_SLAVE *) (((UCHAR *) regular_memory_pool_start) + memory_pool_of
  67              		.loc 1 155 5 view .LVU12
  68              		.loc 1 155 25 is_stmt 0 view .LVU13
  69 0016 04F12801 		add	r1, r4, #40
  70              		.loc 1 155 22 view .LVU14
  71 001a 1F4A     		ldr	r2, .L7+4
  72 001c 1160     		str	r1, [r2]
 156:Middlewares/ST/usbx/common/core/src/ux_system_initialize.c **** 
 157:Middlewares/ST/usbx/common/core/src/ux_system_initialize.c ****     /* Add to the memory offset the size of the allocated block.  */
ARM GAS  C:\Users\sapph\AppData\Local\Temp\cc5Y4TOA.s 			page 5


 158:Middlewares/ST/usbx/common/core/src/ux_system_initialize.c ****     memory_pool_offset += (ULONG)sizeof(UX_SYSTEM_SLAVE);
  73              		.loc 1 158 5 is_stmt 1 view .LVU15
  74              	.LVL5:
 159:Middlewares/ST/usbx/common/core/src/ux_system_initialize.c ****     
 160:Middlewares/ST/usbx/common/core/src/ux_system_initialize.c **** #endif 
 161:Middlewares/ST/usbx/common/core/src/ux_system_initialize.c **** 
 162:Middlewares/ST/usbx/common/core/src/ux_system_initialize.c **** 
 163:Middlewares/ST/usbx/common/core/src/ux_system_initialize.c **** #ifdef UX_OTG_SUPPORT
 164:Middlewares/ST/usbx/common/core/src/ux_system_initialize.c **** 
 165:Middlewares/ST/usbx/common/core/src/ux_system_initialize.c ****     /* Set the _ux_system_otg structure.  */
 166:Middlewares/ST/usbx/common/core/src/ux_system_initialize.c ****     _ux_system_otg =  (UX_SYSTEM_OTG *) (((UCHAR *) regular_memory_pool_start) + memory_pool_offset
 167:Middlewares/ST/usbx/common/core/src/ux_system_initialize.c **** 
 168:Middlewares/ST/usbx/common/core/src/ux_system_initialize.c ****     /* Add to the memory offset the size of the allocated block.  */
 169:Middlewares/ST/usbx/common/core/src/ux_system_initialize.c ****     memory_pool_offset += (ULONG)sizeof(UX_SYSTEM_OTG);
 170:Middlewares/ST/usbx/common/core/src/ux_system_initialize.c **** #endif 
 171:Middlewares/ST/usbx/common/core/src/ux_system_initialize.c **** 
 172:Middlewares/ST/usbx/common/core/src/ux_system_initialize.c **** 
 173:Middlewares/ST/usbx/common/core/src/ux_system_initialize.c ****     /* Set the cache safe memory for the dynamic pool */
 174:Middlewares/ST/usbx/common/core/src/ux_system_initialize.c ****     _ux_system -> ux_system_regular_memory_pool_start =  (UX_MEMORY_BLOCK *) (((UCHAR *) regular_me
  75              		.loc 1 174 5 view .LVU16
  76              		.loc 1 174 58 is_stmt 0 view .LVU17
  77 001e 04F5F072 		add	r2, r4, #480
  78              		.loc 1 174 55 view .LVU18
  79 0022 2260     		str	r2, [r4]
 175:Middlewares/ST/usbx/common/core/src/ux_system_initialize.c ****                                                             + memory_pool_offset);
 176:Middlewares/ST/usbx/common/core/src/ux_system_initialize.c **** 
 177:Middlewares/ST/usbx/common/core/src/ux_system_initialize.c ****     /* Make sure the regular memory pool is aligned properly */
 178:Middlewares/ST/usbx/common/core/src/ux_system_initialize.c ****     int_memory_pool_start =   (ALIGN_TYPE) _ux_system -> ux_system_regular_memory_pool_start;
  80              		.loc 1 178 5 is_stmt 1 view .LVU19
  81              		.loc 1 178 55 is_stmt 0 view .LVU20
  82 0024 1B68     		ldr	r3, [r3]
  83 0026 1868     		ldr	r0, [r3]
  84              	.LVL6:
 179:Middlewares/ST/usbx/common/core/src/ux_system_initialize.c ****     int_memory_pool_start +=  UX_ALIGN_MIN;
  85              		.loc 1 179 5 is_stmt 1 view .LVU21
  86              		.loc 1 179 27 is_stmt 0 view .LVU22
  87 0028 0F30     		adds	r0, r0, #15
  88              	.LVL7:
 180:Middlewares/ST/usbx/common/core/src/ux_system_initialize.c ****     int_memory_pool_start &=  ~((ALIGN_TYPE)UX_ALIGN_MIN);
  89              		.loc 1 180 5 is_stmt 1 view .LVU23
  90              		.loc 1 180 27 is_stmt 0 view .LVU24
  91 002a 20F00F00 		bic	r0, r0, #15
  92              	.LVL8:
 181:Middlewares/ST/usbx/common/core/src/ux_system_initialize.c ****     
 182:Middlewares/ST/usbx/common/core/src/ux_system_initialize.c ****     /* Set the end of the regular memory pool.  */
 183:Middlewares/ST/usbx/common/core/src/ux_system_initialize.c ****     regular_memory_pool_end =  (void *) (((UCHAR *) regular_memory_pool_start) + regular_memory_siz
  93              		.loc 1 183 5 is_stmt 1 view .LVU25
  94              		.loc 1 183 29 is_stmt 0 view .LVU26
  95 002e 3C44     		add	r4, r4, r7
  96              	.LVL9:
 184:Middlewares/ST/usbx/common/core/src/ux_system_initialize.c **** 
 185:Middlewares/ST/usbx/common/core/src/ux_system_initialize.c ****     /* Check if we have memory available.  */
 186:Middlewares/ST/usbx/common/core/src/ux_system_initialize.c ****     if (int_memory_pool_start >= (ALIGN_TYPE)regular_memory_pool_end)
  97              		.loc 1 186 5 is_stmt 1 view .LVU27
  98              		.loc 1 186 8 is_stmt 0 view .LVU28
  99 0030 8442     		cmp	r4, r0
 100 0032 2CD9     		bls	.L4
ARM GAS  C:\Users\sapph\AppData\Local\Temp\cc5Y4TOA.s 			page 6


 187:Middlewares/ST/usbx/common/core/src/ux_system_initialize.c ****     {
 188:Middlewares/ST/usbx/common/core/src/ux_system_initialize.c **** 
 189:Middlewares/ST/usbx/common/core/src/ux_system_initialize.c ****         /* No memory available.  */
 190:Middlewares/ST/usbx/common/core/src/ux_system_initialize.c ****         return(UX_MEMORY_INSUFFICIENT);
 191:Middlewares/ST/usbx/common/core/src/ux_system_initialize.c ****     }
 192:Middlewares/ST/usbx/common/core/src/ux_system_initialize.c **** 
 193:Middlewares/ST/usbx/common/core/src/ux_system_initialize.c ****     /* Now, we have a project structure allocated, save the regular memory allocation details */
 194:Middlewares/ST/usbx/common/core/src/ux_system_initialize.c ****     _ux_system -> ux_system_regular_memory_pool_size =     (ULONG) (((ALIGN_TYPE) regular_memory_po
 101              		.loc 1 194 5 is_stmt 1 view .LVU29
 102              		.loc 1 194 60 is_stmt 0 view .LVU30
 103 0034 241A     		subs	r4, r4, r0
 104              	.LVL10:
 105              		.loc 1 194 54 view .LVU31
 106 0036 5C60     		str	r4, [r3, #4]
 195:Middlewares/ST/usbx/common/core/src/ux_system_initialize.c ****     _ux_system -> ux_system_regular_memory_pool_free =     _ux_system -> ux_system_regular_memory_p
 107              		.loc 1 195 5 is_stmt 1 view .LVU32
 108              		.loc 1 195 54 is_stmt 0 view .LVU33
 109 0038 9C60     		str	r4, [r3, #8]
 196:Middlewares/ST/usbx/common/core/src/ux_system_initialize.c ****     _ux_system -> ux_system_regular_memory_pool_start =    (UX_MEMORY_BLOCK *) int_memory_pool_star
 110              		.loc 1 196 5 is_stmt 1 view .LVU34
 111              		.loc 1 196 55 is_stmt 0 view .LVU35
 112 003a 1860     		str	r0, [r3]
 197:Middlewares/ST/usbx/common/core/src/ux_system_initialize.c **** 
 198:Middlewares/ST/usbx/common/core/src/ux_system_initialize.c ****     /* Build the first free memory block */
 199:Middlewares/ST/usbx/common/core/src/ux_system_initialize.c ****     memory_block =                             _ux_system -> ux_system_regular_memory_pool_start;
 113              		.loc 1 199 5 is_stmt 1 view .LVU36
 114              		.loc 1 199 59 is_stmt 0 view .LVU37
 115 003c 154B     		ldr	r3, .L7
 116 003e 1B68     		ldr	r3, [r3]
 117              		.loc 1 199 18 view .LVU38
 118 0040 1A68     		ldr	r2, [r3]
 119              	.LVL11:
 200:Middlewares/ST/usbx/common/core/src/ux_system_initialize.c ****     memory_block -> ux_memory_block_size =     _ux_system -> ux_system_regular_memory_pool_size - (
 120              		.loc 1 200 5 is_stmt 1 view .LVU39
 121              		.loc 1 200 59 is_stmt 0 view .LVU40
 122 0042 5B68     		ldr	r3, [r3, #4]
 123              		.loc 1 200 97 view .LVU41
 124 0044 103B     		subs	r3, r3, #16
 125              		.loc 1 200 42 view .LVU42
 126 0046 1360     		str	r3, [r2]
 201:Middlewares/ST/usbx/common/core/src/ux_system_initialize.c ****     memory_block -> ux_memory_block_status =   UX_MEMORY_UNUSED;
 127              		.loc 1 201 5 is_stmt 1 view .LVU43
 128              		.loc 1 201 44 is_stmt 0 view .LVU44
 129 0048 0023     		movs	r3, #0
 130 004a 5360     		str	r3, [r2, #4]
 202:Middlewares/ST/usbx/common/core/src/ux_system_initialize.c **** 
 203:Middlewares/ST/usbx/common/core/src/ux_system_initialize.c ****     /* Check the definition of the cache safe pool. If the application or controller do not require
 204:Middlewares/ST/usbx/common/core/src/ux_system_initialize.c ****        define the cached safe memory region as the regular memory region.  */
 205:Middlewares/ST/usbx/common/core/src/ux_system_initialize.c ****     if (cache_safe_memory_pool_start == UX_NULL)
 131              		.loc 1 205 5 is_stmt 1 view .LVU45
 132              		.loc 1 205 8 is_stmt 0 view .LVU46
 133 004c ADB1     		cbz	r5, .L6
 206:Middlewares/ST/usbx/common/core/src/ux_system_initialize.c ****     {
 207:Middlewares/ST/usbx/common/core/src/ux_system_initialize.c **** 
 208:Middlewares/ST/usbx/common/core/src/ux_system_initialize.c ****         /* Cache safe memory is the same as regular memory.  */
 209:Middlewares/ST/usbx/common/core/src/ux_system_initialize.c ****         _ux_system -> ux_system_cache_safe_memory_pool_size =  _ux_system -> ux_system_regular_memo
 210:Middlewares/ST/usbx/common/core/src/ux_system_initialize.c ****         _ux_system -> ux_system_cache_safe_memory_pool_free =  _ux_system -> ux_system_regular_memo
ARM GAS  C:\Users\sapph\AppData\Local\Temp\cc5Y4TOA.s 			page 7


 211:Middlewares/ST/usbx/common/core/src/ux_system_initialize.c ****         _ux_system -> ux_system_cache_safe_memory_pool_start = _ux_system -> ux_system_regular_memo
 212:Middlewares/ST/usbx/common/core/src/ux_system_initialize.c ****     }
 213:Middlewares/ST/usbx/common/core/src/ux_system_initialize.c ****     else
 214:Middlewares/ST/usbx/common/core/src/ux_system_initialize.c ****     {
 215:Middlewares/ST/usbx/common/core/src/ux_system_initialize.c ****     
 216:Middlewares/ST/usbx/common/core/src/ux_system_initialize.c ****         /* Make sure the cache safe memory pool is aligned properly */
 217:Middlewares/ST/usbx/common/core/src/ux_system_initialize.c ****         int_memory_pool_start =   (ALIGN_TYPE) cache_safe_memory_pool_start;
 134              		.loc 1 217 9 is_stmt 1 view .LVU47
 135              	.LVL12:
 218:Middlewares/ST/usbx/common/core/src/ux_system_initialize.c ****         int_memory_pool_start +=  UX_ALIGN_MIN;
 136              		.loc 1 218 9 view .LVU48
 137              		.loc 1 218 31 is_stmt 0 view .LVU49
 138 004e 05F10F00 		add	r0, r5, #15
 139              	.LVL13:
 219:Middlewares/ST/usbx/common/core/src/ux_system_initialize.c ****         int_memory_pool_start &=  ~((ALIGN_TYPE)UX_ALIGN_MIN);
 140              		.loc 1 219 9 is_stmt 1 view .LVU50
 141              		.loc 1 219 31 is_stmt 0 view .LVU51
 142 0052 20F00F00 		bic	r0, r0, #15
 143              	.LVL14:
 220:Middlewares/ST/usbx/common/core/src/ux_system_initialize.c ****     
 221:Middlewares/ST/usbx/common/core/src/ux_system_initialize.c ****         /* Save the cache safe memory allocation details */
 222:Middlewares/ST/usbx/common/core/src/ux_system_initialize.c ****         _ux_system -> ux_system_cache_safe_memory_pool_size =     cache_safe_memory_size - UX_ALIGN
 144              		.loc 1 222 9 is_stmt 1 view .LVU52
 145              		.loc 1 222 20 is_stmt 0 view .LVU53
 146 0056 0F4C     		ldr	r4, .L7
 147 0058 2368     		ldr	r3, [r4]
 148              		.loc 1 222 90 view .LVU54
 149 005a A6F10F02 		sub	r2, r6, #15
 150              	.LVL15:
 151              		.loc 1 222 61 view .LVU55
 152 005e 1A61     		str	r2, [r3, #16]
 223:Middlewares/ST/usbx/common/core/src/ux_system_initialize.c ****         _ux_system -> ux_system_cache_safe_memory_pool_free =     _ux_system -> ux_system_cache_saf
 153              		.loc 1 223 9 is_stmt 1 view .LVU56
 154              		.loc 1 223 61 is_stmt 0 view .LVU57
 155 0060 5A61     		str	r2, [r3, #20]
 224:Middlewares/ST/usbx/common/core/src/ux_system_initialize.c ****         _ux_system -> ux_system_cache_safe_memory_pool_start =    (UX_MEMORY_BLOCK *) int_memory_po
 156              		.loc 1 224 9 is_stmt 1 view .LVU58
 157              		.loc 1 224 62 is_stmt 0 view .LVU59
 158 0062 D860     		str	r0, [r3, #12]
 225:Middlewares/ST/usbx/common/core/src/ux_system_initialize.c ****     
 226:Middlewares/ST/usbx/common/core/src/ux_system_initialize.c ****         /* Reset this memory block */
 227:Middlewares/ST/usbx/common/core/src/ux_system_initialize.c ****         _ux_utility_memory_set(_ux_system -> ux_system_cache_safe_memory_pool_start, 0, _ux_system 
 159              		.loc 1 227 9 is_stmt 1 view .LVU60
 160 0064 0021     		movs	r1, #0
 161              	.LVL16:
 162              		.loc 1 227 9 is_stmt 0 view .LVU61
 163 0066 FFF7FEFF 		bl	_ux_utility_memory_set
 164              	.LVL17:
 228:Middlewares/ST/usbx/common/core/src/ux_system_initialize.c ****     
 229:Middlewares/ST/usbx/common/core/src/ux_system_initialize.c ****         /* Build the first free memory block */
 230:Middlewares/ST/usbx/common/core/src/ux_system_initialize.c ****         memory_block =                             _ux_system -> ux_system_cache_safe_memory_pool_s
 165              		.loc 1 230 9 is_stmt 1 view .LVU62
 166              		.loc 1 230 63 is_stmt 0 view .LVU63
 167 006a 2368     		ldr	r3, [r4]
 168              		.loc 1 230 22 view .LVU64
 169 006c DA68     		ldr	r2, [r3, #12]
 170              	.LVL18:
ARM GAS  C:\Users\sapph\AppData\Local\Temp\cc5Y4TOA.s 			page 8


 231:Middlewares/ST/usbx/common/core/src/ux_system_initialize.c ****         memory_block -> ux_memory_block_size =     _ux_system -> ux_system_cache_safe_memory_pool_s
 171              		.loc 1 231 9 is_stmt 1 view .LVU65
 172              		.loc 1 231 63 is_stmt 0 view .LVU66
 173 006e 1B69     		ldr	r3, [r3, #16]
 174              		.loc 1 231 104 view .LVU67
 175 0070 103B     		subs	r3, r3, #16
 176              		.loc 1 231 46 view .LVU68
 177 0072 1360     		str	r3, [r2]
 232:Middlewares/ST/usbx/common/core/src/ux_system_initialize.c ****         memory_block -> ux_memory_block_status =   UX_MEMORY_UNUSED;
 178              		.loc 1 232 9 is_stmt 1 view .LVU69
 179              		.loc 1 232 48 is_stmt 0 view .LVU70
 180 0074 0020     		movs	r0, #0
 181 0076 5060     		str	r0, [r2, #4]
 182              	.LVL19:
 183              	.L1:
 233:Middlewares/ST/usbx/common/core/src/ux_system_initialize.c ****     }
 234:Middlewares/ST/usbx/common/core/src/ux_system_initialize.c **** 
 235:Middlewares/ST/usbx/common/core/src/ux_system_initialize.c **** #ifdef UX_ENABLE_MEMORY_STATISTICS
 236:Middlewares/ST/usbx/common/core/src/ux_system_initialize.c ****     _ux_system -> ux_system_regular_memory_pool_base = (UCHAR *) _ux_system -> ux_system_regular_me
 237:Middlewares/ST/usbx/common/core/src/ux_system_initialize.c ****     _ux_system -> ux_system_regular_memory_pool_min_free = _ux_system -> ux_system_regular_memory_p
 238:Middlewares/ST/usbx/common/core/src/ux_system_initialize.c ****     _ux_system -> ux_system_cache_safe_memory_pool_base = (UCHAR *) _ux_system -> ux_system_cache_s
 239:Middlewares/ST/usbx/common/core/src/ux_system_initialize.c ****     _ux_system -> ux_system_cache_safe_memory_pool_min_free = _ux_system -> ux_system_cache_safe_me
 240:Middlewares/ST/usbx/common/core/src/ux_system_initialize.c **** 
 241:Middlewares/ST/usbx/common/core/src/ux_system_initialize.c ****     /* Other fields are kept zero.  */
 242:Middlewares/ST/usbx/common/core/src/ux_system_initialize.c **** #endif
 243:Middlewares/ST/usbx/common/core/src/ux_system_initialize.c **** 
 244:Middlewares/ST/usbx/common/core/src/ux_system_initialize.c **** #ifdef UX_ENABLE_DEBUG_LOG
 245:Middlewares/ST/usbx/common/core/src/ux_system_initialize.c **** 
 246:Middlewares/ST/usbx/common/core/src/ux_system_initialize.c ****     /* Obtain memory for storing the debug log.  */
 247:Middlewares/ST/usbx/common/core/src/ux_system_initialize.c ****     _ux_system -> ux_system_debug_log_buffer =  _ux_utility_memory_allocate(UX_NO_ALIGN, UX_REGULAR
 248:Middlewares/ST/usbx/common/core/src/ux_system_initialize.c ****     if (_ux_system -> ux_system_debug_log_buffer == UX_NULL)
 249:Middlewares/ST/usbx/common/core/src/ux_system_initialize.c ****         return(UX_MEMORY_INSUFFICIENT);
 250:Middlewares/ST/usbx/common/core/src/ux_system_initialize.c **** 
 251:Middlewares/ST/usbx/common/core/src/ux_system_initialize.c ****     /* Setup the head and tail pointers.  */
 252:Middlewares/ST/usbx/common/core/src/ux_system_initialize.c ****     _ux_system -> ux_system_debug_log_head = _ux_system -> ux_system_debug_log_buffer;
 253:Middlewares/ST/usbx/common/core/src/ux_system_initialize.c ****     _ux_system -> ux_system_debug_log_tail = _ux_system -> ux_system_debug_log_buffer;
 254:Middlewares/ST/usbx/common/core/src/ux_system_initialize.c ****     
 255:Middlewares/ST/usbx/common/core/src/ux_system_initialize.c ****     /* Keep the size in system structure variable.  */
 256:Middlewares/ST/usbx/common/core/src/ux_system_initialize.c ****     _ux_system -> ux_system_debug_log_size = UX_DEBUG_LOG_SIZE;
 257:Middlewares/ST/usbx/common/core/src/ux_system_initialize.c ****     
 258:Middlewares/ST/usbx/common/core/src/ux_system_initialize.c **** #endif
 259:Middlewares/ST/usbx/common/core/src/ux_system_initialize.c **** 
 260:Middlewares/ST/usbx/common/core/src/ux_system_initialize.c **** #if !defined(UX_STANDALONE)
 261:Middlewares/ST/usbx/common/core/src/ux_system_initialize.c **** 
 262:Middlewares/ST/usbx/common/core/src/ux_system_initialize.c ****     /* Create the Mutex object used by USBX to control critical sections.  */
 263:Middlewares/ST/usbx/common/core/src/ux_system_initialize.c ****     status =  _ux_system_mutex_create(&_ux_system -> ux_system_mutex, "ux_system_mutex");
 264:Middlewares/ST/usbx/common/core/src/ux_system_initialize.c ****     if(status != UX_SUCCESS)
 265:Middlewares/ST/usbx/common/core/src/ux_system_initialize.c ****         return(UX_MUTEX_ERROR);
 266:Middlewares/ST/usbx/common/core/src/ux_system_initialize.c **** #endif
 267:Middlewares/ST/usbx/common/core/src/ux_system_initialize.c **** 
 268:Middlewares/ST/usbx/common/core/src/ux_system_initialize.c ****     return(UX_SUCCESS);
 269:Middlewares/ST/usbx/common/core/src/ux_system_initialize.c **** }
 184              		.loc 1 269 1 view .LVU71
 185 0078 F8BD     		pop	{r3, r4, r5, r6, r7, pc}
 186              	.LVL20:
 187              	.L6:
 209:Middlewares/ST/usbx/common/core/src/ux_system_initialize.c ****         _ux_system -> ux_system_cache_safe_memory_pool_free =  _ux_system -> ux_system_regular_memo
ARM GAS  C:\Users\sapph\AppData\Local\Temp\cc5Y4TOA.s 			page 9


 188              		.loc 1 209 9 is_stmt 1 view .LVU72
 209:Middlewares/ST/usbx/common/core/src/ux_system_initialize.c ****         _ux_system -> ux_system_cache_safe_memory_pool_free =  _ux_system -> ux_system_regular_memo
 189              		.loc 1 209 75 is_stmt 0 view .LVU73
 190 007a 064B     		ldr	r3, .L7
 191 007c 1B68     		ldr	r3, [r3]
 192 007e 5A68     		ldr	r2, [r3, #4]
 193              	.LVL21:
 209:Middlewares/ST/usbx/common/core/src/ux_system_initialize.c ****         _ux_system -> ux_system_cache_safe_memory_pool_free =  _ux_system -> ux_system_regular_memo
 194              		.loc 1 209 61 view .LVU74
 195 0080 1A61     		str	r2, [r3, #16]
 210:Middlewares/ST/usbx/common/core/src/ux_system_initialize.c ****         _ux_system -> ux_system_cache_safe_memory_pool_start = _ux_system -> ux_system_regular_memo
 196              		.loc 1 210 9 is_stmt 1 view .LVU75
 210:Middlewares/ST/usbx/common/core/src/ux_system_initialize.c ****         _ux_system -> ux_system_cache_safe_memory_pool_start = _ux_system -> ux_system_regular_memo
 197              		.loc 1 210 75 is_stmt 0 view .LVU76
 198 0082 9A68     		ldr	r2, [r3, #8]
 210:Middlewares/ST/usbx/common/core/src/ux_system_initialize.c ****         _ux_system -> ux_system_cache_safe_memory_pool_start = _ux_system -> ux_system_regular_memo
 199              		.loc 1 210 61 view .LVU77
 200 0084 5A61     		str	r2, [r3, #20]
 211:Middlewares/ST/usbx/common/core/src/ux_system_initialize.c ****     }
 201              		.loc 1 211 9 is_stmt 1 view .LVU78
 211:Middlewares/ST/usbx/common/core/src/ux_system_initialize.c ****     }
 202              		.loc 1 211 75 is_stmt 0 view .LVU79
 203 0086 1A68     		ldr	r2, [r3]
 211:Middlewares/ST/usbx/common/core/src/ux_system_initialize.c ****     }
 204              		.loc 1 211 62 view .LVU80
 205 0088 DA60     		str	r2, [r3, #12]
 268:Middlewares/ST/usbx/common/core/src/ux_system_initialize.c **** }
 206              		.loc 1 268 11 view .LVU81
 207 008a 0020     		movs	r0, #0
 208              	.LVL22:
 268:Middlewares/ST/usbx/common/core/src/ux_system_initialize.c **** }
 209              		.loc 1 268 11 view .LVU82
 210 008c F4E7     		b	.L1
 211              	.LVL23:
 212              	.L4:
 190:Middlewares/ST/usbx/common/core/src/ux_system_initialize.c ****     }
 213              		.loc 1 190 15 view .LVU83
 214 008e 1220     		movs	r0, #18
 215              	.LVL24:
 190:Middlewares/ST/usbx/common/core/src/ux_system_initialize.c ****     }
 216              		.loc 1 190 15 view .LVU84
 217 0090 F2E7     		b	.L1
 218              	.L8:
 219 0092 00BF     		.align	2
 220              	.L7:
 221 0094 00000000 		.word	_ux_system
 222 0098 00000000 		.word	_ux_system_slave
 223              		.cfi_endproc
 224              	.LFE3:
 226              		.global	_ux_system_container_id_descriptor_structure
 227              		.section	.data._ux_system_container_id_descriptor_structure,"aw"
 228              		.align	2
 231              	_ux_system_container_id_descriptor_structure:
 232 0000 01010101 		.ascii	"\001\001\001\001\004\004\004\004"
 232      04040404 
 233              		.global	_ux_system_usb_2_0_extension_descriptor_structure
 234              		.section	.data._ux_system_usb_2_0_extension_descriptor_structure,"aw"
ARM GAS  C:\Users\sapph\AppData\Local\Temp\cc5Y4TOA.s 			page 10


 235              		.align	2
 238              	_ux_system_usb_2_0_extension_descriptor_structure:
 239 0000 01010104 		.ascii	"\001\001\001\004"
 240              		.global	_ux_system_bos_descriptor_structure
 241              		.section	.data._ux_system_bos_descriptor_structure,"aw"
 242              		.align	2
 245              	_ux_system_bos_descriptor_structure:
 246 0000 01010201 		.ascii	"\001\001\002\001"
 247              		.global	_ux_system_ecm_interface_descriptor_structure
 248              		.section	.data._ux_system_ecm_interface_descriptor_structure,"aw"
 249              		.align	2
 252              	_ux_system_ecm_interface_descriptor_structure:
 253 0000 01010101 		.ascii	"\001\001\001\001\004\002\002\001"
 253      04020201 
 254              		.global	_ux_system_class_pima_object_structure
 255              		.section	.data._ux_system_class_pima_object_structure,"aw"
 256              		.align	2
 259              	_ux_system_class_pima_object_structure:
 260 0000 04020204 		.ascii	"\004\002\002\004\002\004\004\004\004\004\004\004\002"
 260      02040404 
 260      04040404 
 260      02
 261 000d 0404     		.ascii	"\004\004"
 262              		.global	_ux_system_class_pima_storage_structure
 263              		.section	.data._ux_system_class_pima_storage_structure,"aw"
 264              		.align	2
 267              	_ux_system_class_pima_storage_structure:
 268 0000 02020204 		.ascii	"\002\002\002\004\004\004\004\004"
 268      04040404 
 269              		.global	_ux_system_hid_descriptor_structure
 270              		.section	.data._ux_system_hid_descriptor_structure,"aw"
 271              		.align	2
 274              	_ux_system_hid_descriptor_structure:
 275 0000 01010201 		.ascii	"\001\001\002\001\001\001\002"
 275      010102
 276              		.global	_ux_system_hub_descriptor_structure
 277              		.section	.data._ux_system_hub_descriptor_structure,"aw"
 278              		.align	2
 281              	_ux_system_hub_descriptor_structure:
 282 0000 01010102 		.ascii	"\001\001\001\002\001\001\001\001"
 282      01010101 
 283              		.global	_ux_system_class_audio_streaming_endpoint_descriptor_structure
 284              		.section	.data._ux_system_class_audio_streaming_endpoint_descriptor_structure,"aw"
 285              		.align	2
 288              	_ux_system_class_audio_streaming_endpoint_descriptor_structure:
 289 0000 01010101 		.ascii	"\001\001\001\001\001\001"
 289      0101
 290              		.global	_ux_system_class_audio_streaming_interface_descriptor_structure
 291              		.section	.data._ux_system_class_audio_streaming_interface_descriptor_structure,"aw"
 292              		.align	2
 295              	_ux_system_class_audio_streaming_interface_descriptor_structure:
 296 0000 01010101 		.ascii	"\001\001\001\001\001\001"
 296      0101
 297              		.global	_ux_system_class_audio_feature_unit_descriptor_structure
 298              		.section	.data._ux_system_class_audio_feature_unit_descriptor_structure,"aw"
 299              		.align	2
 302              	_ux_system_class_audio_feature_unit_descriptor_structure:
ARM GAS  C:\Users\sapph\AppData\Local\Temp\cc5Y4TOA.s 			page 11


 303 0000 01010101 		.ascii	"\001\001\001\001\001\001\001"
 303      010101
 304              		.global	_ux_system_class_audio_output_terminal_descriptor_structure
 305              		.section	.data._ux_system_class_audio_output_terminal_descriptor_structure,"aw"
 306              		.align	2
 309              	_ux_system_class_audio_output_terminal_descriptor_structure:
 310 0000 01010101 		.ascii	"\001\001\001\001\002\001\001\001"
 310      02010101 
 311              		.global	_ux_system_class_audio_input_terminal_descriptor_structure
 312              		.section	.data._ux_system_class_audio_input_terminal_descriptor_structure,"aw"
 313              		.align	2
 316              	_ux_system_class_audio_input_terminal_descriptor_structure:
 317 0000 01010101 		.ascii	"\001\001\001\001\002\001\001\002\001\001"
 317      02010102 
 317      0101
 318              		.global	_ux_system_class_audio_interface_descriptor_structure
 319              		.section	.data._ux_system_class_audio_interface_descriptor_structure,"aw"
 320              		.align	2
 323              	_ux_system_class_audio_interface_descriptor_structure:
 324 0000 01010101 		.ascii	"\001\001\001\001\001\001\001\001"
 324      01010101 
 325              		.global	_ux_system_dfu_functional_descriptor_structure
 326              		.section	.data._ux_system_dfu_functional_descriptor_structure,"aw"
 327              		.align	2
 330              	_ux_system_dfu_functional_descriptor_structure:
 331 0000 01010102 		.ascii	"\001\001\001\002\002\002"
 331      0202
 332              		.global	_ux_system_string_descriptor_structure
 333              		.section	.data._ux_system_string_descriptor_structure,"aw"
 334              		.align	2
 337              	_ux_system_string_descriptor_structure:
 338 0000 010102   		.ascii	"\001\001\002"
 339              		.global	_ux_system_interface_association_descriptor_structure
 340              		.section	.data._ux_system_interface_association_descriptor_structure,"aw"
 341              		.align	2
 344              	_ux_system_interface_association_descriptor_structure:
 345 0000 01010101 		.ascii	"\001\001\001\001\001\001\001\001"
 345      01010101 
 346              		.global	_ux_system_interface_descriptor_structure
 347              		.section	.data._ux_system_interface_descriptor_structure,"aw"
 348              		.align	2
 351              	_ux_system_interface_descriptor_structure:
 352 0000 01010101 		.ascii	"\001\001\001\001\001\001\001\001\001"
 352      01010101 
 352      01
 353              		.global	_ux_system_configuration_descriptor_structure
 354              		.section	.data._ux_system_configuration_descriptor_structure,"aw"
 355              		.align	2
 358              	_ux_system_configuration_descriptor_structure:
 359 0000 01010201 		.ascii	"\001\001\002\001\001\001\001\001"
 359      01010101 
 360              		.global	_ux_system_device_descriptor_structure
 361              		.section	.data._ux_system_device_descriptor_structure,"aw"
 362              		.align	2
 365              	_ux_system_device_descriptor_structure:
 366 0000 01010201 		.ascii	"\001\001\002\001\001\001\001\002\002\002\001\001\001"
 366      01010102 
ARM GAS  C:\Users\sapph\AppData\Local\Temp\cc5Y4TOA.s 			page 12


 366      02020101 
 366      01
 367 000d 01       		.ascii	"\001"
 368              		.global	_ux_system_endpoint_descriptor_structure
 369              		.section	.data._ux_system_endpoint_descriptor_structure,"aw"
 370              		.align	2
 373              	_ux_system_endpoint_descriptor_structure:
 374 0000 01010101 		.ascii	"\001\001\001\001\002\001"
 374      0201
 375              		.global	_ux_system_otg
 376              		.section	.bss._ux_system_otg,"aw",%nobits
 377              		.align	2
 380              	_ux_system_otg:
 381 0000 00000000 		.space	4
 382              		.global	_ux_system
 383              		.section	.bss._ux_system,"aw",%nobits
 384              		.align	2
 387              	_ux_system:
 388 0000 00000000 		.space	4
 389              		.global	_ux_version_id
 390              		.section	.data._ux_version_id,"aw"
 391              		.align	2
 394              	_ux_version_id:
 395 0000 436F7079 		.ascii	"Copyright (c) Microsoft Corporation. All rights res"
 395      72696768 
 395      74202863 
 395      29204D69 
 395      63726F73 
 396 0033 65727665 		.ascii	"erved. * USBX Generic Version 6.2.0 *\000"
 396      642E202A 
 396      20555342 
 396      58204765 
 396      6E657269 
 397              		.text
 398              	.Letext0:
 399              		.file 2 "Middlewares/ST/usbx/ports/generic/inc/ux_port.h"
 400              		.file 3 "Middlewares/ST/usbx/common/core/inc/ux_api.h"
 401              		.file 4 "Middlewares/ST/usbx/common/core/inc/ux_system.h"
 402              		.file 5 "Middlewares/ST/usbx/common/core/inc/ux_utility.h"
ARM GAS  C:\Users\sapph\AppData\Local\Temp\cc5Y4TOA.s 			page 13

