ARM GAS  C:\Users\sapph\AppData\Local\Temp\ccxTxZhS.s 			page 1


   1              		.cpu cortex-m33
   2              		.arch armv8-m.main
   3              		.fpu fpv4-sp-d16
   4              		.arch_extension dsp
   5              		.eabi_attribute 27, 1
   6              		.eabi_attribute 28, 1
   7              		.eabi_attribute 20, 1
   8              		.eabi_attribute 21, 1
   9              		.eabi_attribute 23, 3
  10              		.eabi_attribute 24, 1
  11              		.eabi_attribute 25, 1
  12              		.eabi_attribute 26, 1
  13              		.eabi_attribute 30, 1
  14              		.eabi_attribute 34, 1
  15              		.eabi_attribute 18, 4
  16              		.file	"ux_utility_delay_ms.c"
  17              		.text
  18              	.Ltext0:
  19              		.cfi_sections	.debug_frame
  20              		.file 1 "Middlewares/ST/usbx/common/core/src/ux_utility_delay_ms.c"
  21              		.section	.text._ux_utility_delay_ms,"ax",%progbits
  22              		.align	1
  23              		.global	_ux_utility_delay_ms
  24              		.syntax unified
  25              		.thumb
  26              		.thumb_func
  28              	_ux_utility_delay_ms:
  29              	.LVL0:
  30              	.LFB3:
   1:Middlewares/ST/usbx/common/core/src/ux_utility_delay_ms.c **** /**************************************************************************/
   2:Middlewares/ST/usbx/common/core/src/ux_utility_delay_ms.c **** /*                                                                        */
   3:Middlewares/ST/usbx/common/core/src/ux_utility_delay_ms.c **** /*       Copyright (c) Microsoft Corporation. All rights reserved.        */
   4:Middlewares/ST/usbx/common/core/src/ux_utility_delay_ms.c **** /*                                                                        */
   5:Middlewares/ST/usbx/common/core/src/ux_utility_delay_ms.c **** /*       This software is licensed under the Microsoft Software License   */
   6:Middlewares/ST/usbx/common/core/src/ux_utility_delay_ms.c **** /*       Terms for Microsoft Azure RTOS. Full text of the license can be  */
   7:Middlewares/ST/usbx/common/core/src/ux_utility_delay_ms.c **** /*       found in the LICENSE file at https://aka.ms/AzureRTOS_EULA       */
   8:Middlewares/ST/usbx/common/core/src/ux_utility_delay_ms.c **** /*       and in the root directory of this software.                      */
   9:Middlewares/ST/usbx/common/core/src/ux_utility_delay_ms.c **** /*                                                                        */
  10:Middlewares/ST/usbx/common/core/src/ux_utility_delay_ms.c **** /**************************************************************************/
  11:Middlewares/ST/usbx/common/core/src/ux_utility_delay_ms.c **** 
  12:Middlewares/ST/usbx/common/core/src/ux_utility_delay_ms.c **** 
  13:Middlewares/ST/usbx/common/core/src/ux_utility_delay_ms.c **** /**************************************************************************/
  14:Middlewares/ST/usbx/common/core/src/ux_utility_delay_ms.c **** /**************************************************************************/
  15:Middlewares/ST/usbx/common/core/src/ux_utility_delay_ms.c **** /**                                                                       */ 
  16:Middlewares/ST/usbx/common/core/src/ux_utility_delay_ms.c **** /** USBX Component                                                        */ 
  17:Middlewares/ST/usbx/common/core/src/ux_utility_delay_ms.c **** /**                                                                       */
  18:Middlewares/ST/usbx/common/core/src/ux_utility_delay_ms.c **** /**   Host Stack                                                          */
  19:Middlewares/ST/usbx/common/core/src/ux_utility_delay_ms.c **** /**                                                                       */
  20:Middlewares/ST/usbx/common/core/src/ux_utility_delay_ms.c **** /**************************************************************************/
  21:Middlewares/ST/usbx/common/core/src/ux_utility_delay_ms.c **** /**************************************************************************/
  22:Middlewares/ST/usbx/common/core/src/ux_utility_delay_ms.c **** 
  23:Middlewares/ST/usbx/common/core/src/ux_utility_delay_ms.c **** 
  24:Middlewares/ST/usbx/common/core/src/ux_utility_delay_ms.c **** /* Include necessary system files.  */
  25:Middlewares/ST/usbx/common/core/src/ux_utility_delay_ms.c **** 
  26:Middlewares/ST/usbx/common/core/src/ux_utility_delay_ms.c **** #define UX_SOURCE_CODE
  27:Middlewares/ST/usbx/common/core/src/ux_utility_delay_ms.c **** 
  28:Middlewares/ST/usbx/common/core/src/ux_utility_delay_ms.c **** #include "ux_api.h"
ARM GAS  C:\Users\sapph\AppData\Local\Temp\ccxTxZhS.s 			page 2


  29:Middlewares/ST/usbx/common/core/src/ux_utility_delay_ms.c **** 
  30:Middlewares/ST/usbx/common/core/src/ux_utility_delay_ms.c **** 
  31:Middlewares/ST/usbx/common/core/src/ux_utility_delay_ms.c **** /**************************************************************************/ 
  32:Middlewares/ST/usbx/common/core/src/ux_utility_delay_ms.c **** /*                                                                        */ 
  33:Middlewares/ST/usbx/common/core/src/ux_utility_delay_ms.c **** /*  FUNCTION                                               RELEASE        */ 
  34:Middlewares/ST/usbx/common/core/src/ux_utility_delay_ms.c **** /*                                                                        */ 
  35:Middlewares/ST/usbx/common/core/src/ux_utility_delay_ms.c **** /*    _ux_utility_delay_ms                                PORTABLE C      */ 
  36:Middlewares/ST/usbx/common/core/src/ux_utility_delay_ms.c **** /*                                                           6.1.10       */
  37:Middlewares/ST/usbx/common/core/src/ux_utility_delay_ms.c **** /*  AUTHOR                                                                */
  38:Middlewares/ST/usbx/common/core/src/ux_utility_delay_ms.c **** /*                                                                        */
  39:Middlewares/ST/usbx/common/core/src/ux_utility_delay_ms.c **** /*    Chaoqiong Xiao, Microsoft Corporation                               */
  40:Middlewares/ST/usbx/common/core/src/ux_utility_delay_ms.c **** /*                                                                        */
  41:Middlewares/ST/usbx/common/core/src/ux_utility_delay_ms.c **** /*  DESCRIPTION                                                           */
  42:Middlewares/ST/usbx/common/core/src/ux_utility_delay_ms.c **** /*                                                                        */ 
  43:Middlewares/ST/usbx/common/core/src/ux_utility_delay_ms.c **** /*    This function causes the calling thread to sleep for the            */ 
  44:Middlewares/ST/usbx/common/core/src/ux_utility_delay_ms.c **** /*    specified number of milliseconds                                    */ 
  45:Middlewares/ST/usbx/common/core/src/ux_utility_delay_ms.c **** /*                                                                        */ 
  46:Middlewares/ST/usbx/common/core/src/ux_utility_delay_ms.c **** /*  INPUT                                                                 */ 
  47:Middlewares/ST/usbx/common/core/src/ux_utility_delay_ms.c **** /*                                                                        */ 
  48:Middlewares/ST/usbx/common/core/src/ux_utility_delay_ms.c **** /*    ms_wait                               Number of milliseconds to     */ 
  49:Middlewares/ST/usbx/common/core/src/ux_utility_delay_ms.c **** /*                                            wait for                    */ 
  50:Middlewares/ST/usbx/common/core/src/ux_utility_delay_ms.c **** /*                                                                        */ 
  51:Middlewares/ST/usbx/common/core/src/ux_utility_delay_ms.c **** /*  OUTPUT                                                                */ 
  52:Middlewares/ST/usbx/common/core/src/ux_utility_delay_ms.c **** /*                                                                        */ 
  53:Middlewares/ST/usbx/common/core/src/ux_utility_delay_ms.c **** /*    None                                                                */ 
  54:Middlewares/ST/usbx/common/core/src/ux_utility_delay_ms.c **** /*                                                                        */ 
  55:Middlewares/ST/usbx/common/core/src/ux_utility_delay_ms.c **** /*  CALLS                                                                 */ 
  56:Middlewares/ST/usbx/common/core/src/ux_utility_delay_ms.c **** /*                                                                        */ 
  57:Middlewares/ST/usbx/common/core/src/ux_utility_delay_ms.c **** /*    tx_thread_sleep                       ThreadX sleep function        */ 
  58:Middlewares/ST/usbx/common/core/src/ux_utility_delay_ms.c **** /*                                                                        */ 
  59:Middlewares/ST/usbx/common/core/src/ux_utility_delay_ms.c **** /*  CALLED BY                                                             */ 
  60:Middlewares/ST/usbx/common/core/src/ux_utility_delay_ms.c **** /*                                                                        */ 
  61:Middlewares/ST/usbx/common/core/src/ux_utility_delay_ms.c **** /*    USBX Components                                                     */ 
  62:Middlewares/ST/usbx/common/core/src/ux_utility_delay_ms.c **** /*                                                                        */ 
  63:Middlewares/ST/usbx/common/core/src/ux_utility_delay_ms.c **** /*  RELEASE HISTORY                                                       */ 
  64:Middlewares/ST/usbx/common/core/src/ux_utility_delay_ms.c **** /*                                                                        */ 
  65:Middlewares/ST/usbx/common/core/src/ux_utility_delay_ms.c **** /*    DATE              NAME                      DESCRIPTION             */ 
  66:Middlewares/ST/usbx/common/core/src/ux_utility_delay_ms.c **** /*                                                                        */ 
  67:Middlewares/ST/usbx/common/core/src/ux_utility_delay_ms.c **** /*  05-19-2020     Chaoqiong Xiao           Initial Version 6.0           */
  68:Middlewares/ST/usbx/common/core/src/ux_utility_delay_ms.c **** /*  09-30-2020     Chaoqiong Xiao           Modified comment(s),          */
  69:Middlewares/ST/usbx/common/core/src/ux_utility_delay_ms.c **** /*                                            resulting in version 6.1    */
  70:Middlewares/ST/usbx/common/core/src/ux_utility_delay_ms.c **** /*  11-09-2020     Chaoqiong Xiao           Modified comment(s),          */
  71:Middlewares/ST/usbx/common/core/src/ux_utility_delay_ms.c **** /*                                            fixed compile warnings 64b, */
  72:Middlewares/ST/usbx/common/core/src/ux_utility_delay_ms.c **** /*                                            resulting in version 6.1.2  */
  73:Middlewares/ST/usbx/common/core/src/ux_utility_delay_ms.c **** /*  01-31-2022     Chaoqiong Xiao           Modified comment(s),          */
  74:Middlewares/ST/usbx/common/core/src/ux_utility_delay_ms.c **** /*                                            added standalone support,   */
  75:Middlewares/ST/usbx/common/core/src/ux_utility_delay_ms.c **** /*                                            resulting in version 6.1.10 */
  76:Middlewares/ST/usbx/common/core/src/ux_utility_delay_ms.c **** /*                                                                        */
  77:Middlewares/ST/usbx/common/core/src/ux_utility_delay_ms.c **** /**************************************************************************/
  78:Middlewares/ST/usbx/common/core/src/ux_utility_delay_ms.c **** VOID  _ux_utility_delay_ms(ULONG ms_wait)
  79:Middlewares/ST/usbx/common/core/src/ux_utility_delay_ms.c **** {
  31              		.loc 1 79 1 view -0
  32              		.cfi_startproc
  33              		@ args = 0, pretend = 0, frame = 0
  34              		@ frame_needed = 0, uses_anonymous_args = 0
  35              		.loc 1 79 1 is_stmt 0 view .LVU1
  36 0000 38B5     		push	{r3, r4, r5, lr}
ARM GAS  C:\Users\sapph\AppData\Local\Temp\ccxTxZhS.s 			page 3


  37              		.cfi_def_cfa_offset 16
  38              		.cfi_offset 3, -16
  39              		.cfi_offset 4, -12
  40              		.cfi_offset 5, -8
  41              		.cfi_offset 14, -4
  42 0002 0546     		mov	r5, r0
  80:Middlewares/ST/usbx/common/core/src/ux_utility_delay_ms.c **** 
  81:Middlewares/ST/usbx/common/core/src/ux_utility_delay_ms.c **** ULONG   ticks;
  43              		.loc 1 81 1 is_stmt 1 view .LVU2
  82:Middlewares/ST/usbx/common/core/src/ux_utility_delay_ms.c **** 
  83:Middlewares/ST/usbx/common/core/src/ux_utility_delay_ms.c **** #if defined(UX_STANDALONE)
  84:Middlewares/ST/usbx/common/core/src/ux_utility_delay_ms.c **** 
  85:Middlewares/ST/usbx/common/core/src/ux_utility_delay_ms.c ****     /* Get current time.  */
  86:Middlewares/ST/usbx/common/core/src/ux_utility_delay_ms.c ****     ticks = _ux_utility_time_get();
  44              		.loc 1 86 5 view .LVU3
  45              		.loc 1 86 13 is_stmt 0 view .LVU4
  46 0004 FFF7FEFF 		bl	_ux_utility_time_get
  47              	.LVL1:
  48              		.loc 1 86 13 view .LVU5
  49 0008 0446     		mov	r4, r0
  50              	.LVL2:
  87:Middlewares/ST/usbx/common/core/src/ux_utility_delay_ms.c **** 
  88:Middlewares/ST/usbx/common/core/src/ux_utility_delay_ms.c ****     /* Wait until timeout.  */
  89:Middlewares/ST/usbx/common/core/src/ux_utility_delay_ms.c ****     while(_ux_utility_time_elapsed(ticks, _ux_utility_time_get()) <
  51              		.loc 1 89 5 is_stmt 1 view .LVU6
  52              		.loc 1 89 10 is_stmt 0 view .LVU7
  53 000a 09E0     		b	.L5
  54              	.LVL3:
  55              	.L2:
  56              		.loc 1 89 11 discriminator 2 view .LVU8
  57 000c FFF7FEFF 		bl	_ux_utility_time_get
  58              	.LVL4:
  59              		.loc 1 89 11 discriminator 1 view .LVU9
  60 0010 201A     		subs	r0, r4, r0
  61 0012 0CE0     		b	.L3
  62              	.L9:
  90:Middlewares/ST/usbx/common/core/src/ux_utility_delay_ms.c ****             UX_MS_TO_TICK_NON_ZERO(ms_wait));
  63              		.loc 1 90 13 discriminator 1 view .LVU10
  64 0014 0B4A     		ldr	r2, .L10
  65 0016 A2FB0323 		umull	r2, r3, r2, r3
  66 001a 9B09     		lsrs	r3, r3, #6
  67              	.L4:
  89:Middlewares/ST/usbx/common/core/src/ux_utility_delay_ms.c ****             UX_MS_TO_TICK_NON_ZERO(ms_wait));
  68              		.loc 1 89 67 view .LVU11
  69 001c 9842     		cmp	r0, r3
  70 001e 0FD2     		bcs	.L8
  71              	.L5:
  89:Middlewares/ST/usbx/common/core/src/ux_utility_delay_ms.c ****             UX_MS_TO_TICK_NON_ZERO(ms_wait));
  72              		.loc 1 89 67 is_stmt 1 discriminator 3 view .LVU12
  89:Middlewares/ST/usbx/common/core/src/ux_utility_delay_ms.c ****             UX_MS_TO_TICK_NON_ZERO(ms_wait));
  73              		.loc 1 89 11 is_stmt 0 discriminator 3 view .LVU13
  74 0020 FFF7FEFF 		bl	_ux_utility_time_get
  75              	.LVL5:
  76 0024 A042     		cmp	r0, r4
  77 0026 F1D3     		bcc	.L2
  89:Middlewares/ST/usbx/common/core/src/ux_utility_delay_ms.c ****             UX_MS_TO_TICK_NON_ZERO(ms_wait));
  78              		.loc 1 89 11 discriminator 1 view .LVU14
ARM GAS  C:\Users\sapph\AppData\Local\Temp\ccxTxZhS.s 			page 4


  79 0028 FFF7FEFF 		bl	_ux_utility_time_get
  80              	.LVL6:
  81 002c 001B     		subs	r0, r0, r4
  82              	.L3:
  83              		.loc 1 90 13 view .LVU15
  84 002e 4FF47A73 		mov	r3, #1000
  85 0032 05FB03F3 		mul	r3, r5, r3
  86 0036 B3F57A7F 		cmp	r3, #1000
  87 003a EBD2     		bcs	.L9
  88              		.loc 1 90 13 discriminator 2 view .LVU16
  89 003c 0123     		movs	r3, #1
  90 003e EDE7     		b	.L4
  91              	.L8:
  91:Middlewares/ST/usbx/common/core/src/ux_utility_delay_ms.c **** #else
  92:Middlewares/ST/usbx/common/core/src/ux_utility_delay_ms.c **** 
  93:Middlewares/ST/usbx/common/core/src/ux_utility_delay_ms.c ****     /* translate ms into ticks. */
  94:Middlewares/ST/usbx/common/core/src/ux_utility_delay_ms.c ****     ticks = (ULONG)(ms_wait * UX_PERIODIC_RATE) / 1000;
  95:Middlewares/ST/usbx/common/core/src/ux_utility_delay_ms.c ****     
  96:Middlewares/ST/usbx/common/core/src/ux_utility_delay_ms.c ****     /* For safety add 1 to ticks.  */
  97:Middlewares/ST/usbx/common/core/src/ux_utility_delay_ms.c ****     ticks++;
  98:Middlewares/ST/usbx/common/core/src/ux_utility_delay_ms.c **** 
  99:Middlewares/ST/usbx/common/core/src/ux_utility_delay_ms.c ****     /* Call ThreadX sleep function.  */
 100:Middlewares/ST/usbx/common/core/src/ux_utility_delay_ms.c ****     tx_thread_sleep(ticks);
 101:Middlewares/ST/usbx/common/core/src/ux_utility_delay_ms.c **** #endif
 102:Middlewares/ST/usbx/common/core/src/ux_utility_delay_ms.c **** 
 103:Middlewares/ST/usbx/common/core/src/ux_utility_delay_ms.c ****     /* Return completion status.  */
 104:Middlewares/ST/usbx/common/core/src/ux_utility_delay_ms.c ****     return;
 105:Middlewares/ST/usbx/common/core/src/ux_utility_delay_ms.c **** }
  92              		.loc 1 105 1 view .LVU17
  93 0040 38BD     		pop	{r3, r4, r5, pc}
  94              	.LVL7:
  95              	.L11:
  96              		.loc 1 105 1 view .LVU18
  97 0042 00BF     		.align	2
  98              	.L10:
  99 0044 D34D6210 		.word	274877907
 100              		.cfi_endproc
 101              	.LFE3:
 103              		.text
 104              	.Letext0:
 105              		.file 2 "Middlewares/ST/usbx/ports/generic/inc/ux_port.h"
 106              		.file 3 "Middlewares/ST/usbx/common/core/inc/ux_utility.h"
ARM GAS  C:\Users\sapph\AppData\Local\Temp\ccxTxZhS.s 			page 5

