ARM GAS  C:\Users\sapph\AppData\Local\Temp\ccb3riEs.s 			page 1


   1              		.cpu cortex-m33
   2              		.arch armv8-m.main
   3              		.fpu fpv4-sp-d16
   4              		.arch_extension dsp
   5              		.eabi_attribute 27, 1
   6              		.eabi_attribute 28, 1
   7              		.eabi_attribute 20, 1
   8              		.eabi_attribute 21, 1
   9              		.eabi_attribute 23, 3
  10              		.eabi_attribute 24, 1
  11              		.eabi_attribute 25, 1
  12              		.eabi_attribute 26, 1
  13              		.eabi_attribute 30, 1
  14              		.eabi_attribute 34, 1
  15              		.eabi_attribute 18, 4
  16              		.file	"stm32h5xx_hal_flash_ex.c"
  17              		.text
  18              	.Ltext0:
  19              		.cfi_sections	.debug_frame
  20              		.file 1 "Drivers/STM32H5xx_HAL_Driver/Src/stm32h5xx_hal_flash_ex.c"
  21              		.section	.text.FLASH_MassErase,"ax",%progbits
  22              		.align	1
  23              		.syntax unified
  24              		.thumb
  25              		.thumb_func
  27              	FLASH_MassErase:
  28              	.LVL0:
  29              	.LFB173:
   1:Drivers/STM32H5xx_HAL_Driver/Src/stm32h5xx_hal_flash_ex.c **** /**
   2:Drivers/STM32H5xx_HAL_Driver/Src/stm32h5xx_hal_flash_ex.c ****   ******************************************************************************
   3:Drivers/STM32H5xx_HAL_Driver/Src/stm32h5xx_hal_flash_ex.c ****   * @file    stm32h5xx_hal_flash_ex.c
   4:Drivers/STM32H5xx_HAL_Driver/Src/stm32h5xx_hal_flash_ex.c ****   * @author  MCD Application Team
   5:Drivers/STM32H5xx_HAL_Driver/Src/stm32h5xx_hal_flash_ex.c ****   * @brief   Extended FLASH HAL module driver.
   6:Drivers/STM32H5xx_HAL_Driver/Src/stm32h5xx_hal_flash_ex.c ****   *          This file provides firmware functions to manage the following
   7:Drivers/STM32H5xx_HAL_Driver/Src/stm32h5xx_hal_flash_ex.c ****   *          functionalities of the FLASH extension peripheral:
   8:Drivers/STM32H5xx_HAL_Driver/Src/stm32h5xx_hal_flash_ex.c ****   *           + Extended programming operations functions
   9:Drivers/STM32H5xx_HAL_Driver/Src/stm32h5xx_hal_flash_ex.c ****   *
  10:Drivers/STM32H5xx_HAL_Driver/Src/stm32h5xx_hal_flash_ex.c ****   ******************************************************************************
  11:Drivers/STM32H5xx_HAL_Driver/Src/stm32h5xx_hal_flash_ex.c ****   * @attention
  12:Drivers/STM32H5xx_HAL_Driver/Src/stm32h5xx_hal_flash_ex.c ****   *
  13:Drivers/STM32H5xx_HAL_Driver/Src/stm32h5xx_hal_flash_ex.c ****   * Copyright (c) 2023 STMicroelectronics.
  14:Drivers/STM32H5xx_HAL_Driver/Src/stm32h5xx_hal_flash_ex.c ****   * All rights reserved.
  15:Drivers/STM32H5xx_HAL_Driver/Src/stm32h5xx_hal_flash_ex.c ****   *
  16:Drivers/STM32H5xx_HAL_Driver/Src/stm32h5xx_hal_flash_ex.c ****   * This software is licensed under terms that can be found in the LICENSE file
  17:Drivers/STM32H5xx_HAL_Driver/Src/stm32h5xx_hal_flash_ex.c ****   * in the root directory of this software component.
  18:Drivers/STM32H5xx_HAL_Driver/Src/stm32h5xx_hal_flash_ex.c ****   * If no LICENSE file comes with this software, it is provided AS-IS.
  19:Drivers/STM32H5xx_HAL_Driver/Src/stm32h5xx_hal_flash_ex.c ****   *
  20:Drivers/STM32H5xx_HAL_Driver/Src/stm32h5xx_hal_flash_ex.c ****   ******************************************************************************
  21:Drivers/STM32H5xx_HAL_Driver/Src/stm32h5xx_hal_flash_ex.c ****  @verbatim
  22:Drivers/STM32H5xx_HAL_Driver/Src/stm32h5xx_hal_flash_ex.c ****  ==============================================================================
  23:Drivers/STM32H5xx_HAL_Driver/Src/stm32h5xx_hal_flash_ex.c ****                    ##### Flash Extension features #####
  24:Drivers/STM32H5xx_HAL_Driver/Src/stm32h5xx_hal_flash_ex.c ****   ==============================================================================
  25:Drivers/STM32H5xx_HAL_Driver/Src/stm32h5xx_hal_flash_ex.c **** 
  26:Drivers/STM32H5xx_HAL_Driver/Src/stm32h5xx_hal_flash_ex.c ****   [..] Comparing to other previous devices, the FLASH interface for STM32H5xx
  27:Drivers/STM32H5xx_HAL_Driver/Src/stm32h5xx_hal_flash_ex.c ****        devices contains the following additional features
  28:Drivers/STM32H5xx_HAL_Driver/Src/stm32h5xx_hal_flash_ex.c **** 
  29:Drivers/STM32H5xx_HAL_Driver/Src/stm32h5xx_hal_flash_ex.c ****        (+) Capacity up to 2 Mbyte with dual bank architecture supporting read-while-write
ARM GAS  C:\Users\sapph\AppData\Local\Temp\ccb3riEs.s 			page 2


  30:Drivers/STM32H5xx_HAL_Driver/Src/stm32h5xx_hal_flash_ex.c ****            capability (RWW)
  31:Drivers/STM32H5xx_HAL_Driver/Src/stm32h5xx_hal_flash_ex.c ****        (+) Dual bank memory organization
  32:Drivers/STM32H5xx_HAL_Driver/Src/stm32h5xx_hal_flash_ex.c ****        (+) Product State protection
  33:Drivers/STM32H5xx_HAL_Driver/Src/stm32h5xx_hal_flash_ex.c ****        (+) Write protection
  34:Drivers/STM32H5xx_HAL_Driver/Src/stm32h5xx_hal_flash_ex.c ****        (+) Secure access only protection
  35:Drivers/STM32H5xx_HAL_Driver/Src/stm32h5xx_hal_flash_ex.c ****        (+) Bank / register swapping (when Dual-Bank)
  36:Drivers/STM32H5xx_HAL_Driver/Src/stm32h5xx_hal_flash_ex.c ****        (+) Watermark-based secure protection
  37:Drivers/STM32H5xx_HAL_Driver/Src/stm32h5xx_hal_flash_ex.c ****        (+) Block-based secure protection
  38:Drivers/STM32H5xx_HAL_Driver/Src/stm32h5xx_hal_flash_ex.c ****        (+) Block-based privilege protection
  39:Drivers/STM32H5xx_HAL_Driver/Src/stm32h5xx_hal_flash_ex.c ****        (+) Hide Protection areas
  40:Drivers/STM32H5xx_HAL_Driver/Src/stm32h5xx_hal_flash_ex.c **** 
  41:Drivers/STM32H5xx_HAL_Driver/Src/stm32h5xx_hal_flash_ex.c ****                         ##### How to use this driver #####
  42:Drivers/STM32H5xx_HAL_Driver/Src/stm32h5xx_hal_flash_ex.c ****  ==============================================================================
  43:Drivers/STM32H5xx_HAL_Driver/Src/stm32h5xx_hal_flash_ex.c ****   [..] This driver provides functions to configure and program the FLASH memory
  44:Drivers/STM32H5xx_HAL_Driver/Src/stm32h5xx_hal_flash_ex.c ****        of all STM32H5xx devices. It includes
  45:Drivers/STM32H5xx_HAL_Driver/Src/stm32h5xx_hal_flash_ex.c ****       (#) FLASH Memory Erase functions:
  46:Drivers/STM32H5xx_HAL_Driver/Src/stm32h5xx_hal_flash_ex.c ****            (++) Lock and Unlock the FLASH interface using HAL_FLASH_Unlock() and
  47:Drivers/STM32H5xx_HAL_Driver/Src/stm32h5xx_hal_flash_ex.c ****                 HAL_FLASH_Lock() functions
  48:Drivers/STM32H5xx_HAL_Driver/Src/stm32h5xx_hal_flash_ex.c ****            (++) Erase function: Sector erase, bank erase and dual-bank mass erase
  49:Drivers/STM32H5xx_HAL_Driver/Src/stm32h5xx_hal_flash_ex.c ****            (++) There are two modes of erase :
  50:Drivers/STM32H5xx_HAL_Driver/Src/stm32h5xx_hal_flash_ex.c ****              (+++) Polling Mode using HAL_FLASHEx_Erase()
  51:Drivers/STM32H5xx_HAL_Driver/Src/stm32h5xx_hal_flash_ex.c ****              (+++) Interrupt Mode using HAL_FLASHEx_Erase_IT()
  52:Drivers/STM32H5xx_HAL_Driver/Src/stm32h5xx_hal_flash_ex.c **** 
  53:Drivers/STM32H5xx_HAL_Driver/Src/stm32h5xx_hal_flash_ex.c ****       (#) Option Bytes Programming functions: Use HAL_FLASHEx_OBProgram() to:
  54:Drivers/STM32H5xx_HAL_Driver/Src/stm32h5xx_hal_flash_ex.c ****         (++) Configure the write protection per bank
  55:Drivers/STM32H5xx_HAL_Driver/Src/stm32h5xx_hal_flash_ex.c ****         (++) Set the Product State
  56:Drivers/STM32H5xx_HAL_Driver/Src/stm32h5xx_hal_flash_ex.c ****         (++) Program the user Option Bytes
  57:Drivers/STM32H5xx_HAL_Driver/Src/stm32h5xx_hal_flash_ex.c ****         (++) Configure the watermark security for each area
  58:Drivers/STM32H5xx_HAL_Driver/Src/stm32h5xx_hal_flash_ex.c ****         (++) Configure the Hide protection areas
  59:Drivers/STM32H5xx_HAL_Driver/Src/stm32h5xx_hal_flash_ex.c ****         (++) Configure the Boot addresses
  60:Drivers/STM32H5xx_HAL_Driver/Src/stm32h5xx_hal_flash_ex.c **** 
  61:Drivers/STM32H5xx_HAL_Driver/Src/stm32h5xx_hal_flash_ex.c ****       (#) Get Option Bytes Configuration function: Use HAL_FLASHEx_OBGetConfig() to:
  62:Drivers/STM32H5xx_HAL_Driver/Src/stm32h5xx_hal_flash_ex.c ****         (++) Get the value of a write protection area
  63:Drivers/STM32H5xx_HAL_Driver/Src/stm32h5xx_hal_flash_ex.c ****         (++) Get the Product State
  64:Drivers/STM32H5xx_HAL_Driver/Src/stm32h5xx_hal_flash_ex.c ****         (++) Get the value of the user Option Bytes
  65:Drivers/STM32H5xx_HAL_Driver/Src/stm32h5xx_hal_flash_ex.c ****         (++) Get the configuration of watermark security areas
  66:Drivers/STM32H5xx_HAL_Driver/Src/stm32h5xx_hal_flash_ex.c ****         (++) Get the configuration of Hide protection areas
  67:Drivers/STM32H5xx_HAL_Driver/Src/stm32h5xx_hal_flash_ex.c ****         (++) Get the value of a boot address
  68:Drivers/STM32H5xx_HAL_Driver/Src/stm32h5xx_hal_flash_ex.c **** 
  69:Drivers/STM32H5xx_HAL_Driver/Src/stm32h5xx_hal_flash_ex.c ****       (#) Block-based secure / privilege area configuration function: Use HAL_FLASHEx_ConfigBBAttri
  70:Drivers/STM32H5xx_HAL_Driver/Src/stm32h5xx_hal_flash_ex.c ****         (++) Bit-field allowing to secure or un-secure each sector
  71:Drivers/STM32H5xx_HAL_Driver/Src/stm32h5xx_hal_flash_ex.c ****         (++) Bit-field allowing to privilege or un-privilege each sector
  72:Drivers/STM32H5xx_HAL_Driver/Src/stm32h5xx_hal_flash_ex.c **** 
  73:Drivers/STM32H5xx_HAL_Driver/Src/stm32h5xx_hal_flash_ex.c ****       (#) Get the block-based secure / privilege area configuration function: Use HAL_FLASHEx_GetCo
  74:Drivers/STM32H5xx_HAL_Driver/Src/stm32h5xx_hal_flash_ex.c ****         (++) Return the configuration of the block-based security and privilege for all the sectors
  75:Drivers/STM32H5xx_HAL_Driver/Src/stm32h5xx_hal_flash_ex.c **** 
  76:Drivers/STM32H5xx_HAL_Driver/Src/stm32h5xx_hal_flash_ex.c ****       (#) Privilege mode configuration function: Use HAL_FLASHEx_ConfigPrivMode()
  77:Drivers/STM32H5xx_HAL_Driver/Src/stm32h5xx_hal_flash_ex.c ****         (++) FLASH register can be protected against non-privilege accesses
  78:Drivers/STM32H5xx_HAL_Driver/Src/stm32h5xx_hal_flash_ex.c **** 
  79:Drivers/STM32H5xx_HAL_Driver/Src/stm32h5xx_hal_flash_ex.c ****       (#) Get the privilege mode configuration function: Use HAL_FLASHEx_GetPrivMode()
  80:Drivers/STM32H5xx_HAL_Driver/Src/stm32h5xx_hal_flash_ex.c ****         (++) Return if the FLASH registers are protected against non-privilege accesses
  81:Drivers/STM32H5xx_HAL_Driver/Src/stm32h5xx_hal_flash_ex.c **** 
  82:Drivers/STM32H5xx_HAL_Driver/Src/stm32h5xx_hal_flash_ex.c **** 
  83:Drivers/STM32H5xx_HAL_Driver/Src/stm32h5xx_hal_flash_ex.c ****  @endverbatim
  84:Drivers/STM32H5xx_HAL_Driver/Src/stm32h5xx_hal_flash_ex.c ****   */
  85:Drivers/STM32H5xx_HAL_Driver/Src/stm32h5xx_hal_flash_ex.c **** 
  86:Drivers/STM32H5xx_HAL_Driver/Src/stm32h5xx_hal_flash_ex.c **** /* Includes ------------------------------------------------------------------*/
ARM GAS  C:\Users\sapph\AppData\Local\Temp\ccb3riEs.s 			page 3


  87:Drivers/STM32H5xx_HAL_Driver/Src/stm32h5xx_hal_flash_ex.c **** #include "stm32h5xx_hal.h"
  88:Drivers/STM32H5xx_HAL_Driver/Src/stm32h5xx_hal_flash_ex.c **** 
  89:Drivers/STM32H5xx_HAL_Driver/Src/stm32h5xx_hal_flash_ex.c **** /** @addtogroup STM32H5xx_HAL_Driver
  90:Drivers/STM32H5xx_HAL_Driver/Src/stm32h5xx_hal_flash_ex.c ****   * @{
  91:Drivers/STM32H5xx_HAL_Driver/Src/stm32h5xx_hal_flash_ex.c ****   */
  92:Drivers/STM32H5xx_HAL_Driver/Src/stm32h5xx_hal_flash_ex.c **** 
  93:Drivers/STM32H5xx_HAL_Driver/Src/stm32h5xx_hal_flash_ex.c **** /** @defgroup FLASHEx  FLASHEx
  94:Drivers/STM32H5xx_HAL_Driver/Src/stm32h5xx_hal_flash_ex.c ****   * @brief FLASH HAL Extension module driver
  95:Drivers/STM32H5xx_HAL_Driver/Src/stm32h5xx_hal_flash_ex.c ****   * @{
  96:Drivers/STM32H5xx_HAL_Driver/Src/stm32h5xx_hal_flash_ex.c ****   */
  97:Drivers/STM32H5xx_HAL_Driver/Src/stm32h5xx_hal_flash_ex.c **** 
  98:Drivers/STM32H5xx_HAL_Driver/Src/stm32h5xx_hal_flash_ex.c **** #ifdef HAL_FLASH_MODULE_ENABLED
  99:Drivers/STM32H5xx_HAL_Driver/Src/stm32h5xx_hal_flash_ex.c **** 
 100:Drivers/STM32H5xx_HAL_Driver/Src/stm32h5xx_hal_flash_ex.c **** /* Private typedef -----------------------------------------------------------*/
 101:Drivers/STM32H5xx_HAL_Driver/Src/stm32h5xx_hal_flash_ex.c **** /* Private define ------------------------------------------------------------*/
 102:Drivers/STM32H5xx_HAL_Driver/Src/stm32h5xx_hal_flash_ex.c **** /* Private macro -------------------------------------------------------------*/
 103:Drivers/STM32H5xx_HAL_Driver/Src/stm32h5xx_hal_flash_ex.c **** /* Private variables ---------------------------------------------------------*/
 104:Drivers/STM32H5xx_HAL_Driver/Src/stm32h5xx_hal_flash_ex.c **** /* Private function prototypes -----------------------------------------------*/
 105:Drivers/STM32H5xx_HAL_Driver/Src/stm32h5xx_hal_flash_ex.c **** /** @defgroup FLASHEx_Private_Functions FLASHEx Private Functions
 106:Drivers/STM32H5xx_HAL_Driver/Src/stm32h5xx_hal_flash_ex.c ****   * @{
 107:Drivers/STM32H5xx_HAL_Driver/Src/stm32h5xx_hal_flash_ex.c ****   */
 108:Drivers/STM32H5xx_HAL_Driver/Src/stm32h5xx_hal_flash_ex.c **** static void FLASH_MassErase(uint32_t Banks);
 109:Drivers/STM32H5xx_HAL_Driver/Src/stm32h5xx_hal_flash_ex.c **** #if defined (FLASH_SR_OBKERR)
 110:Drivers/STM32H5xx_HAL_Driver/Src/stm32h5xx_hal_flash_ex.c **** static void FLASH_OBKErase(void);
 111:Drivers/STM32H5xx_HAL_Driver/Src/stm32h5xx_hal_flash_ex.c **** #endif /* FLASH_SR_OBKERR */
 112:Drivers/STM32H5xx_HAL_Driver/Src/stm32h5xx_hal_flash_ex.c **** static void FLASH_OB_EnableWRP(uint32_t WRPSector, uint32_t Banks);
 113:Drivers/STM32H5xx_HAL_Driver/Src/stm32h5xx_hal_flash_ex.c **** static void FLASH_OB_DisableWRP(uint32_t WRPSector, uint32_t Bank);
 114:Drivers/STM32H5xx_HAL_Driver/Src/stm32h5xx_hal_flash_ex.c **** static void FLASH_OB_GetWRP(uint32_t Bank, uint32_t *WRPState, uint32_t *WRPSector);
 115:Drivers/STM32H5xx_HAL_Driver/Src/stm32h5xx_hal_flash_ex.c **** static void FLASH_OB_ProdStateConfig(uint32_t ProdStateConfig);
 116:Drivers/STM32H5xx_HAL_Driver/Src/stm32h5xx_hal_flash_ex.c **** static uint32_t FLASH_OB_GetProdState(void);
 117:Drivers/STM32H5xx_HAL_Driver/Src/stm32h5xx_hal_flash_ex.c **** static void FLASH_OB_UserConfig(uint32_t UserType, uint32_t UserConfig1, uint32_t UserConfig2);
 118:Drivers/STM32H5xx_HAL_Driver/Src/stm32h5xx_hal_flash_ex.c **** static void FLASH_OB_GetUser(uint32_t *UserConfig1, uint32_t *UserConfig2);
 119:Drivers/STM32H5xx_HAL_Driver/Src/stm32h5xx_hal_flash_ex.c **** static void FLASH_OB_BootAddrConfig(uint32_t BootOption, uint32_t BootAddress);
 120:Drivers/STM32H5xx_HAL_Driver/Src/stm32h5xx_hal_flash_ex.c **** static void FLASH_OB_BootLockConfig(uint32_t BootLockOption, uint32_t BootLockConfig);
 121:Drivers/STM32H5xx_HAL_Driver/Src/stm32h5xx_hal_flash_ex.c **** static void FLASH_OB_GetBootConfig(uint32_t BootOption, uint32_t *BootAddress, uint32_t *BootLockCo
 122:Drivers/STM32H5xx_HAL_Driver/Src/stm32h5xx_hal_flash_ex.c **** static void FLASH_OB_OTP_LockConfig(uint32_t OTP_Block);
 123:Drivers/STM32H5xx_HAL_Driver/Src/stm32h5xx_hal_flash_ex.c **** static uint32_t FLASH_OB_OTP_GetLock(void);
 124:Drivers/STM32H5xx_HAL_Driver/Src/stm32h5xx_hal_flash_ex.c **** static void FLASH_OB_HDPConfig(uint32_t Banks, uint32_t HDPStartSector, uint32_t HDPEndSector);
 125:Drivers/STM32H5xx_HAL_Driver/Src/stm32h5xx_hal_flash_ex.c **** static void FLASH_OB_GetHDP(uint32_t Bank, uint32_t *HDPStartSector, uint32_t *HDPEndSector);
 126:Drivers/STM32H5xx_HAL_Driver/Src/stm32h5xx_hal_flash_ex.c **** #if defined(FLASH_EDATAR_EDATA_EN)
 127:Drivers/STM32H5xx_HAL_Driver/Src/stm32h5xx_hal_flash_ex.c **** static void FLASH_OB_EDATAConfig(uint32_t Banks, uint32_t EDATASize);
 128:Drivers/STM32H5xx_HAL_Driver/Src/stm32h5xx_hal_flash_ex.c **** static void FLASH_OB_GetEDATA(uint32_t Bank, uint32_t *EDATASize);
 129:Drivers/STM32H5xx_HAL_Driver/Src/stm32h5xx_hal_flash_ex.c **** #endif /* FLASH_EDATAR_EDATA_EN */
 130:Drivers/STM32H5xx_HAL_Driver/Src/stm32h5xx_hal_flash_ex.c **** #if defined (__ARM_FEATURE_CMSE) && (__ARM_FEATURE_CMSE == 3U)
 131:Drivers/STM32H5xx_HAL_Driver/Src/stm32h5xx_hal_flash_ex.c **** static void FLASH_OB_WMSECConfig(uint32_t Banks, uint32_t WMSecStartSector, uint32_t WMSecEndSector
 132:Drivers/STM32H5xx_HAL_Driver/Src/stm32h5xx_hal_flash_ex.c **** static void FLASH_OB_GetWMSEC(uint32_t Bank, uint32_t *WMSecStartSector, uint32_t *WMSecEndSector);
 133:Drivers/STM32H5xx_HAL_Driver/Src/stm32h5xx_hal_flash_ex.c **** #endif /* __ARM_FEATURE_CMSE */
 134:Drivers/STM32H5xx_HAL_Driver/Src/stm32h5xx_hal_flash_ex.c **** /**
 135:Drivers/STM32H5xx_HAL_Driver/Src/stm32h5xx_hal_flash_ex.c ****   * @}
 136:Drivers/STM32H5xx_HAL_Driver/Src/stm32h5xx_hal_flash_ex.c ****   */
 137:Drivers/STM32H5xx_HAL_Driver/Src/stm32h5xx_hal_flash_ex.c **** 
 138:Drivers/STM32H5xx_HAL_Driver/Src/stm32h5xx_hal_flash_ex.c **** /* Exported functions ---------------------------------------------------------*/
 139:Drivers/STM32H5xx_HAL_Driver/Src/stm32h5xx_hal_flash_ex.c **** /** @defgroup FLASHEx_Exported_Functions FLASHEx Exported Functions
 140:Drivers/STM32H5xx_HAL_Driver/Src/stm32h5xx_hal_flash_ex.c ****   * @{
 141:Drivers/STM32H5xx_HAL_Driver/Src/stm32h5xx_hal_flash_ex.c ****   */
 142:Drivers/STM32H5xx_HAL_Driver/Src/stm32h5xx_hal_flash_ex.c **** 
 143:Drivers/STM32H5xx_HAL_Driver/Src/stm32h5xx_hal_flash_ex.c **** /** @defgroup FLASHEx_Exported_Functions_Group1 FLASHEx Extended IO operation functions
ARM GAS  C:\Users\sapph\AppData\Local\Temp\ccb3riEs.s 			page 4


 144:Drivers/STM32H5xx_HAL_Driver/Src/stm32h5xx_hal_flash_ex.c ****   *  @brief   FLASHEx Extended IO operation functions
 145:Drivers/STM32H5xx_HAL_Driver/Src/stm32h5xx_hal_flash_ex.c ****   *
 146:Drivers/STM32H5xx_HAL_Driver/Src/stm32h5xx_hal_flash_ex.c **** @verbatim
 147:Drivers/STM32H5xx_HAL_Driver/Src/stm32h5xx_hal_flash_ex.c ****  ===============================================================================
 148:Drivers/STM32H5xx_HAL_Driver/Src/stm32h5xx_hal_flash_ex.c ****                 ##### Extended programming operation functions #####
 149:Drivers/STM32H5xx_HAL_Driver/Src/stm32h5xx_hal_flash_ex.c ****  ===============================================================================
 150:Drivers/STM32H5xx_HAL_Driver/Src/stm32h5xx_hal_flash_ex.c ****     [..]
 151:Drivers/STM32H5xx_HAL_Driver/Src/stm32h5xx_hal_flash_ex.c ****     This subsection provides a set of functions allowing to manage the Extended FLASH
 152:Drivers/STM32H5xx_HAL_Driver/Src/stm32h5xx_hal_flash_ex.c ****     programming operations Operations.
 153:Drivers/STM32H5xx_HAL_Driver/Src/stm32h5xx_hal_flash_ex.c **** 
 154:Drivers/STM32H5xx_HAL_Driver/Src/stm32h5xx_hal_flash_ex.c **** @endverbatim
 155:Drivers/STM32H5xx_HAL_Driver/Src/stm32h5xx_hal_flash_ex.c ****   * @{
 156:Drivers/STM32H5xx_HAL_Driver/Src/stm32h5xx_hal_flash_ex.c ****   */
 157:Drivers/STM32H5xx_HAL_Driver/Src/stm32h5xx_hal_flash_ex.c **** /**
 158:Drivers/STM32H5xx_HAL_Driver/Src/stm32h5xx_hal_flash_ex.c ****   * @brief  Perform a mass erase or erase the specified FLASH memory sectors
 159:Drivers/STM32H5xx_HAL_Driver/Src/stm32h5xx_hal_flash_ex.c ****   * @param[in]  pEraseInit pointer to an FLASH_EraseInitTypeDef structure that
 160:Drivers/STM32H5xx_HAL_Driver/Src/stm32h5xx_hal_flash_ex.c ****   *         contains the configuration information for the erasing.
 161:Drivers/STM32H5xx_HAL_Driver/Src/stm32h5xx_hal_flash_ex.c ****   *
 162:Drivers/STM32H5xx_HAL_Driver/Src/stm32h5xx_hal_flash_ex.c ****   * @param[out]  SectorError pointer to variable that contains the configuration
 163:Drivers/STM32H5xx_HAL_Driver/Src/stm32h5xx_hal_flash_ex.c ****   *          information on faulty sector in case of error (0xFFFFFFFF means that all
 164:Drivers/STM32H5xx_HAL_Driver/Src/stm32h5xx_hal_flash_ex.c ****   *          the sectors have been correctly erased).
 165:Drivers/STM32H5xx_HAL_Driver/Src/stm32h5xx_hal_flash_ex.c ****   *
 166:Drivers/STM32H5xx_HAL_Driver/Src/stm32h5xx_hal_flash_ex.c ****   * @retval HAL Status
 167:Drivers/STM32H5xx_HAL_Driver/Src/stm32h5xx_hal_flash_ex.c ****   */
 168:Drivers/STM32H5xx_HAL_Driver/Src/stm32h5xx_hal_flash_ex.c **** HAL_StatusTypeDef HAL_FLASHEx_Erase(FLASH_EraseInitTypeDef *pEraseInit, uint32_t *SectorError)
 169:Drivers/STM32H5xx_HAL_Driver/Src/stm32h5xx_hal_flash_ex.c **** {
 170:Drivers/STM32H5xx_HAL_Driver/Src/stm32h5xx_hal_flash_ex.c ****   HAL_StatusTypeDef status;
 171:Drivers/STM32H5xx_HAL_Driver/Src/stm32h5xx_hal_flash_ex.c ****   uint32_t sector_index;
 172:Drivers/STM32H5xx_HAL_Driver/Src/stm32h5xx_hal_flash_ex.c ****   __IO uint32_t *reg_cr;
 173:Drivers/STM32H5xx_HAL_Driver/Src/stm32h5xx_hal_flash_ex.c **** 
 174:Drivers/STM32H5xx_HAL_Driver/Src/stm32h5xx_hal_flash_ex.c ****   /* Check the parameters */
 175:Drivers/STM32H5xx_HAL_Driver/Src/stm32h5xx_hal_flash_ex.c ****   assert_param(IS_FLASH_TYPEERASE(pEraseInit->TypeErase));
 176:Drivers/STM32H5xx_HAL_Driver/Src/stm32h5xx_hal_flash_ex.c **** 
 177:Drivers/STM32H5xx_HAL_Driver/Src/stm32h5xx_hal_flash_ex.c ****   /* Process Locked */
 178:Drivers/STM32H5xx_HAL_Driver/Src/stm32h5xx_hal_flash_ex.c ****   __HAL_LOCK(&pFlash);
 179:Drivers/STM32H5xx_HAL_Driver/Src/stm32h5xx_hal_flash_ex.c **** 
 180:Drivers/STM32H5xx_HAL_Driver/Src/stm32h5xx_hal_flash_ex.c ****   /* Reset error code */
 181:Drivers/STM32H5xx_HAL_Driver/Src/stm32h5xx_hal_flash_ex.c ****   pFlash.ErrorCode = HAL_FLASH_ERROR_NONE;
 182:Drivers/STM32H5xx_HAL_Driver/Src/stm32h5xx_hal_flash_ex.c **** 
 183:Drivers/STM32H5xx_HAL_Driver/Src/stm32h5xx_hal_flash_ex.c ****   /* Wait for last operation to be completed */
 184:Drivers/STM32H5xx_HAL_Driver/Src/stm32h5xx_hal_flash_ex.c ****   status = FLASH_WaitForLastOperation(FLASH_TIMEOUT_VALUE);
 185:Drivers/STM32H5xx_HAL_Driver/Src/stm32h5xx_hal_flash_ex.c **** 
 186:Drivers/STM32H5xx_HAL_Driver/Src/stm32h5xx_hal_flash_ex.c ****   if (status == HAL_OK)
 187:Drivers/STM32H5xx_HAL_Driver/Src/stm32h5xx_hal_flash_ex.c ****   {
 188:Drivers/STM32H5xx_HAL_Driver/Src/stm32h5xx_hal_flash_ex.c ****     /* Current operation type */
 189:Drivers/STM32H5xx_HAL_Driver/Src/stm32h5xx_hal_flash_ex.c ****     pFlash.ProcedureOnGoing = pEraseInit->TypeErase;
 190:Drivers/STM32H5xx_HAL_Driver/Src/stm32h5xx_hal_flash_ex.c **** 
 191:Drivers/STM32H5xx_HAL_Driver/Src/stm32h5xx_hal_flash_ex.c ****     /* Access to SECCR or NSCR depends on operation type */
 192:Drivers/STM32H5xx_HAL_Driver/Src/stm32h5xx_hal_flash_ex.c **** #if defined (FLASH_OPTSR2_TZEN)
 193:Drivers/STM32H5xx_HAL_Driver/Src/stm32h5xx_hal_flash_ex.c ****     reg_cr = IS_FLASH_SECURE_OPERATION() ? &(FLASH->SECCR) : &(FLASH_NS->NSCR);
 194:Drivers/STM32H5xx_HAL_Driver/Src/stm32h5xx_hal_flash_ex.c **** #else
 195:Drivers/STM32H5xx_HAL_Driver/Src/stm32h5xx_hal_flash_ex.c ****     reg_cr = &(FLASH_NS->NSCR);
 196:Drivers/STM32H5xx_HAL_Driver/Src/stm32h5xx_hal_flash_ex.c **** #endif /* FLASH_OPTSR2_TZEN */
 197:Drivers/STM32H5xx_HAL_Driver/Src/stm32h5xx_hal_flash_ex.c **** 
 198:Drivers/STM32H5xx_HAL_Driver/Src/stm32h5xx_hal_flash_ex.c ****     if ((pEraseInit->TypeErase & (~FLASH_NON_SECURE_MASK)) == FLASH_TYPEERASE_MASSERASE)
 199:Drivers/STM32H5xx_HAL_Driver/Src/stm32h5xx_hal_flash_ex.c ****     {
 200:Drivers/STM32H5xx_HAL_Driver/Src/stm32h5xx_hal_flash_ex.c ****       /* Mass erase to be done */
ARM GAS  C:\Users\sapph\AppData\Local\Temp\ccb3riEs.s 			page 5


 201:Drivers/STM32H5xx_HAL_Driver/Src/stm32h5xx_hal_flash_ex.c ****       FLASH_MassErase(pEraseInit->Banks);
 202:Drivers/STM32H5xx_HAL_Driver/Src/stm32h5xx_hal_flash_ex.c **** 
 203:Drivers/STM32H5xx_HAL_Driver/Src/stm32h5xx_hal_flash_ex.c ****       /* Wait for last operation to be completed */
 204:Drivers/STM32H5xx_HAL_Driver/Src/stm32h5xx_hal_flash_ex.c ****       status = FLASH_WaitForLastOperation(FLASH_TIMEOUT_VALUE);
 205:Drivers/STM32H5xx_HAL_Driver/Src/stm32h5xx_hal_flash_ex.c ****     }
 206:Drivers/STM32H5xx_HAL_Driver/Src/stm32h5xx_hal_flash_ex.c **** #if defined (FLASH_SR_OBKERR)
 207:Drivers/STM32H5xx_HAL_Driver/Src/stm32h5xx_hal_flash_ex.c ****     else if (pEraseInit->TypeErase == FLASH_TYPEERASE_OBK_ALT)
 208:Drivers/STM32H5xx_HAL_Driver/Src/stm32h5xx_hal_flash_ex.c ****     {
 209:Drivers/STM32H5xx_HAL_Driver/Src/stm32h5xx_hal_flash_ex.c ****       /* OBK erase to be done */
 210:Drivers/STM32H5xx_HAL_Driver/Src/stm32h5xx_hal_flash_ex.c ****       FLASH_OBKErase();
 211:Drivers/STM32H5xx_HAL_Driver/Src/stm32h5xx_hal_flash_ex.c **** 
 212:Drivers/STM32H5xx_HAL_Driver/Src/stm32h5xx_hal_flash_ex.c ****       /* Wait for last operation to be completed */
 213:Drivers/STM32H5xx_HAL_Driver/Src/stm32h5xx_hal_flash_ex.c ****       status = FLASH_WaitForLastOperation(FLASH_TIMEOUT_VALUE);
 214:Drivers/STM32H5xx_HAL_Driver/Src/stm32h5xx_hal_flash_ex.c ****     }
 215:Drivers/STM32H5xx_HAL_Driver/Src/stm32h5xx_hal_flash_ex.c **** #endif /* FLASH_SR_OBKERR */
 216:Drivers/STM32H5xx_HAL_Driver/Src/stm32h5xx_hal_flash_ex.c ****     else
 217:Drivers/STM32H5xx_HAL_Driver/Src/stm32h5xx_hal_flash_ex.c ****     {
 218:Drivers/STM32H5xx_HAL_Driver/Src/stm32h5xx_hal_flash_ex.c ****       /* Initialization of SectorError variable */
 219:Drivers/STM32H5xx_HAL_Driver/Src/stm32h5xx_hal_flash_ex.c ****       *SectorError = 0xFFFFFFFFU;
 220:Drivers/STM32H5xx_HAL_Driver/Src/stm32h5xx_hal_flash_ex.c **** 
 221:Drivers/STM32H5xx_HAL_Driver/Src/stm32h5xx_hal_flash_ex.c ****       /* Erase by sector by sector to be done*/
 222:Drivers/STM32H5xx_HAL_Driver/Src/stm32h5xx_hal_flash_ex.c ****       for (sector_index = pEraseInit->Sector; sector_index < (pEraseInit->NbSectors + pEraseInit->S
 223:Drivers/STM32H5xx_HAL_Driver/Src/stm32h5xx_hal_flash_ex.c ****            sector_index++)
 224:Drivers/STM32H5xx_HAL_Driver/Src/stm32h5xx_hal_flash_ex.c ****       {
 225:Drivers/STM32H5xx_HAL_Driver/Src/stm32h5xx_hal_flash_ex.c ****         FLASH_Erase_Sector(sector_index, pEraseInit->Banks);
 226:Drivers/STM32H5xx_HAL_Driver/Src/stm32h5xx_hal_flash_ex.c **** 
 227:Drivers/STM32H5xx_HAL_Driver/Src/stm32h5xx_hal_flash_ex.c ****         /* Wait for last operation to be completed */
 228:Drivers/STM32H5xx_HAL_Driver/Src/stm32h5xx_hal_flash_ex.c ****         status = FLASH_WaitForLastOperation(FLASH_TIMEOUT_VALUE);
 229:Drivers/STM32H5xx_HAL_Driver/Src/stm32h5xx_hal_flash_ex.c **** 
 230:Drivers/STM32H5xx_HAL_Driver/Src/stm32h5xx_hal_flash_ex.c ****         if (status != HAL_OK)
 231:Drivers/STM32H5xx_HAL_Driver/Src/stm32h5xx_hal_flash_ex.c ****         {
 232:Drivers/STM32H5xx_HAL_Driver/Src/stm32h5xx_hal_flash_ex.c ****           /* In case of error, stop erase procedure and return the faulty sector */
 233:Drivers/STM32H5xx_HAL_Driver/Src/stm32h5xx_hal_flash_ex.c ****           *SectorError = sector_index;
 234:Drivers/STM32H5xx_HAL_Driver/Src/stm32h5xx_hal_flash_ex.c ****           break;
 235:Drivers/STM32H5xx_HAL_Driver/Src/stm32h5xx_hal_flash_ex.c ****         }
 236:Drivers/STM32H5xx_HAL_Driver/Src/stm32h5xx_hal_flash_ex.c ****       }
 237:Drivers/STM32H5xx_HAL_Driver/Src/stm32h5xx_hal_flash_ex.c ****     }
 238:Drivers/STM32H5xx_HAL_Driver/Src/stm32h5xx_hal_flash_ex.c **** 
 239:Drivers/STM32H5xx_HAL_Driver/Src/stm32h5xx_hal_flash_ex.c ****     /* If the erase operation is completed, disable the associated bits */
 240:Drivers/STM32H5xx_HAL_Driver/Src/stm32h5xx_hal_flash_ex.c ****     CLEAR_BIT((*reg_cr), (pEraseInit->TypeErase) & (~(FLASH_NON_SECURE_MASK)));
 241:Drivers/STM32H5xx_HAL_Driver/Src/stm32h5xx_hal_flash_ex.c ****   }
 242:Drivers/STM32H5xx_HAL_Driver/Src/stm32h5xx_hal_flash_ex.c **** 
 243:Drivers/STM32H5xx_HAL_Driver/Src/stm32h5xx_hal_flash_ex.c ****   /* Process Unlocked */
 244:Drivers/STM32H5xx_HAL_Driver/Src/stm32h5xx_hal_flash_ex.c ****   __HAL_UNLOCK(&pFlash);
 245:Drivers/STM32H5xx_HAL_Driver/Src/stm32h5xx_hal_flash_ex.c **** 
 246:Drivers/STM32H5xx_HAL_Driver/Src/stm32h5xx_hal_flash_ex.c ****   return status;
 247:Drivers/STM32H5xx_HAL_Driver/Src/stm32h5xx_hal_flash_ex.c **** }
 248:Drivers/STM32H5xx_HAL_Driver/Src/stm32h5xx_hal_flash_ex.c **** 
 249:Drivers/STM32H5xx_HAL_Driver/Src/stm32h5xx_hal_flash_ex.c **** /**
 250:Drivers/STM32H5xx_HAL_Driver/Src/stm32h5xx_hal_flash_ex.c ****   * @brief  Perform a mass erase or erase the specified FLASH memory sectors with interrupt enabled
 251:Drivers/STM32H5xx_HAL_Driver/Src/stm32h5xx_hal_flash_ex.c ****   * @param  pEraseInit pointer to an FLASH_EraseInitTypeDef structure that
 252:Drivers/STM32H5xx_HAL_Driver/Src/stm32h5xx_hal_flash_ex.c ****   *         contains the configuration information for the erasing.
 253:Drivers/STM32H5xx_HAL_Driver/Src/stm32h5xx_hal_flash_ex.c ****   *
 254:Drivers/STM32H5xx_HAL_Driver/Src/stm32h5xx_hal_flash_ex.c ****   * @retval HAL Status
 255:Drivers/STM32H5xx_HAL_Driver/Src/stm32h5xx_hal_flash_ex.c ****   */
 256:Drivers/STM32H5xx_HAL_Driver/Src/stm32h5xx_hal_flash_ex.c **** HAL_StatusTypeDef HAL_FLASHEx_Erase_IT(FLASH_EraseInitTypeDef *pEraseInit)
 257:Drivers/STM32H5xx_HAL_Driver/Src/stm32h5xx_hal_flash_ex.c **** {
ARM GAS  C:\Users\sapph\AppData\Local\Temp\ccb3riEs.s 			page 6


 258:Drivers/STM32H5xx_HAL_Driver/Src/stm32h5xx_hal_flash_ex.c ****   HAL_StatusTypeDef status;
 259:Drivers/STM32H5xx_HAL_Driver/Src/stm32h5xx_hal_flash_ex.c ****   __IO uint32_t *reg_cr;
 260:Drivers/STM32H5xx_HAL_Driver/Src/stm32h5xx_hal_flash_ex.c **** 
 261:Drivers/STM32H5xx_HAL_Driver/Src/stm32h5xx_hal_flash_ex.c ****   /* Check the parameters */
 262:Drivers/STM32H5xx_HAL_Driver/Src/stm32h5xx_hal_flash_ex.c ****   assert_param(IS_FLASH_TYPEERASE(pEraseInit->TypeErase));
 263:Drivers/STM32H5xx_HAL_Driver/Src/stm32h5xx_hal_flash_ex.c **** 
 264:Drivers/STM32H5xx_HAL_Driver/Src/stm32h5xx_hal_flash_ex.c ****   /* Process Locked */
 265:Drivers/STM32H5xx_HAL_Driver/Src/stm32h5xx_hal_flash_ex.c ****   __HAL_LOCK(&pFlash);
 266:Drivers/STM32H5xx_HAL_Driver/Src/stm32h5xx_hal_flash_ex.c **** 
 267:Drivers/STM32H5xx_HAL_Driver/Src/stm32h5xx_hal_flash_ex.c ****   /* Reset error code */
 268:Drivers/STM32H5xx_HAL_Driver/Src/stm32h5xx_hal_flash_ex.c ****   pFlash.ErrorCode = HAL_FLASH_ERROR_NONE;
 269:Drivers/STM32H5xx_HAL_Driver/Src/stm32h5xx_hal_flash_ex.c **** 
 270:Drivers/STM32H5xx_HAL_Driver/Src/stm32h5xx_hal_flash_ex.c ****   /* Wait for last operation to be completed */
 271:Drivers/STM32H5xx_HAL_Driver/Src/stm32h5xx_hal_flash_ex.c ****   status = FLASH_WaitForLastOperation(FLASH_TIMEOUT_VALUE);
 272:Drivers/STM32H5xx_HAL_Driver/Src/stm32h5xx_hal_flash_ex.c **** 
 273:Drivers/STM32H5xx_HAL_Driver/Src/stm32h5xx_hal_flash_ex.c ****   if (status != HAL_OK)
 274:Drivers/STM32H5xx_HAL_Driver/Src/stm32h5xx_hal_flash_ex.c ****   {
 275:Drivers/STM32H5xx_HAL_Driver/Src/stm32h5xx_hal_flash_ex.c ****     /* Process Unlocked */
 276:Drivers/STM32H5xx_HAL_Driver/Src/stm32h5xx_hal_flash_ex.c ****     __HAL_UNLOCK(&pFlash);
 277:Drivers/STM32H5xx_HAL_Driver/Src/stm32h5xx_hal_flash_ex.c ****   }
 278:Drivers/STM32H5xx_HAL_Driver/Src/stm32h5xx_hal_flash_ex.c ****   else
 279:Drivers/STM32H5xx_HAL_Driver/Src/stm32h5xx_hal_flash_ex.c ****   {
 280:Drivers/STM32H5xx_HAL_Driver/Src/stm32h5xx_hal_flash_ex.c ****     /* Set internal variables used by the IRQ handler */
 281:Drivers/STM32H5xx_HAL_Driver/Src/stm32h5xx_hal_flash_ex.c ****     pFlash.ProcedureOnGoing = pEraseInit->TypeErase;
 282:Drivers/STM32H5xx_HAL_Driver/Src/stm32h5xx_hal_flash_ex.c ****     pFlash.Bank = pEraseInit->Banks;
 283:Drivers/STM32H5xx_HAL_Driver/Src/stm32h5xx_hal_flash_ex.c **** 
 284:Drivers/STM32H5xx_HAL_Driver/Src/stm32h5xx_hal_flash_ex.c ****     /* Access to SECCR or NSCR depends on operation type */
 285:Drivers/STM32H5xx_HAL_Driver/Src/stm32h5xx_hal_flash_ex.c **** #if defined (FLASH_OPTSR2_TZEN)
 286:Drivers/STM32H5xx_HAL_Driver/Src/stm32h5xx_hal_flash_ex.c ****     reg_cr = IS_FLASH_SECURE_OPERATION() ? &(FLASH->SECCR) : &(FLASH_NS->NSCR);
 287:Drivers/STM32H5xx_HAL_Driver/Src/stm32h5xx_hal_flash_ex.c **** #else
 288:Drivers/STM32H5xx_HAL_Driver/Src/stm32h5xx_hal_flash_ex.c ****     reg_cr = &(FLASH_NS->NSCR);
 289:Drivers/STM32H5xx_HAL_Driver/Src/stm32h5xx_hal_flash_ex.c **** #endif /* FLASH_OPTSR2_TZEN */
 290:Drivers/STM32H5xx_HAL_Driver/Src/stm32h5xx_hal_flash_ex.c **** 
 291:Drivers/STM32H5xx_HAL_Driver/Src/stm32h5xx_hal_flash_ex.c ****     /* Enable End of Operation and Error interrupts */
 292:Drivers/STM32H5xx_HAL_Driver/Src/stm32h5xx_hal_flash_ex.c **** #if defined (FLASH_SR_OBKERR)
 293:Drivers/STM32H5xx_HAL_Driver/Src/stm32h5xx_hal_flash_ex.c ****     (*reg_cr) |= (FLASH_IT_EOP     | FLASH_IT_WRPERR | FLASH_IT_PGSERR | \
 294:Drivers/STM32H5xx_HAL_Driver/Src/stm32h5xx_hal_flash_ex.c ****                   FLASH_IT_STRBERR | FLASH_IT_INCERR | FLASH_IT_OBKERR | \
 295:Drivers/STM32H5xx_HAL_Driver/Src/stm32h5xx_hal_flash_ex.c ****                   FLASH_IT_OBKWERR);
 296:Drivers/STM32H5xx_HAL_Driver/Src/stm32h5xx_hal_flash_ex.c **** #else
 297:Drivers/STM32H5xx_HAL_Driver/Src/stm32h5xx_hal_flash_ex.c ****     (*reg_cr) |= (FLASH_IT_EOP     | FLASH_IT_WRPERR | FLASH_IT_PGSERR | \
 298:Drivers/STM32H5xx_HAL_Driver/Src/stm32h5xx_hal_flash_ex.c ****                   FLASH_IT_STRBERR | FLASH_IT_INCERR);
 299:Drivers/STM32H5xx_HAL_Driver/Src/stm32h5xx_hal_flash_ex.c **** #endif /* FLASH_SR_OBKERR */
 300:Drivers/STM32H5xx_HAL_Driver/Src/stm32h5xx_hal_flash_ex.c **** 
 301:Drivers/STM32H5xx_HAL_Driver/Src/stm32h5xx_hal_flash_ex.c ****     if ((pEraseInit->TypeErase & (~FLASH_NON_SECURE_MASK)) == FLASH_TYPEERASE_MASSERASE)
 302:Drivers/STM32H5xx_HAL_Driver/Src/stm32h5xx_hal_flash_ex.c ****     {
 303:Drivers/STM32H5xx_HAL_Driver/Src/stm32h5xx_hal_flash_ex.c ****       /* Mass erase to be done */
 304:Drivers/STM32H5xx_HAL_Driver/Src/stm32h5xx_hal_flash_ex.c ****       FLASH_MassErase(pEraseInit->Banks);
 305:Drivers/STM32H5xx_HAL_Driver/Src/stm32h5xx_hal_flash_ex.c ****     }
 306:Drivers/STM32H5xx_HAL_Driver/Src/stm32h5xx_hal_flash_ex.c **** #if defined (FLASH_SR_OBKERR)
 307:Drivers/STM32H5xx_HAL_Driver/Src/stm32h5xx_hal_flash_ex.c ****     else if (pEraseInit->TypeErase == FLASH_TYPEERASE_OBK_ALT)
 308:Drivers/STM32H5xx_HAL_Driver/Src/stm32h5xx_hal_flash_ex.c ****     {
 309:Drivers/STM32H5xx_HAL_Driver/Src/stm32h5xx_hal_flash_ex.c ****       /* OBK erase to be done */
 310:Drivers/STM32H5xx_HAL_Driver/Src/stm32h5xx_hal_flash_ex.c ****       FLASH_OBKErase();
 311:Drivers/STM32H5xx_HAL_Driver/Src/stm32h5xx_hal_flash_ex.c ****     }
 312:Drivers/STM32H5xx_HAL_Driver/Src/stm32h5xx_hal_flash_ex.c **** #endif /* FLASH_SR_OBKERR */
 313:Drivers/STM32H5xx_HAL_Driver/Src/stm32h5xx_hal_flash_ex.c ****     else
 314:Drivers/STM32H5xx_HAL_Driver/Src/stm32h5xx_hal_flash_ex.c ****     {
ARM GAS  C:\Users\sapph\AppData\Local\Temp\ccb3riEs.s 			page 7


 315:Drivers/STM32H5xx_HAL_Driver/Src/stm32h5xx_hal_flash_ex.c ****       /* Erase by sector to be done */
 316:Drivers/STM32H5xx_HAL_Driver/Src/stm32h5xx_hal_flash_ex.c ****       pFlash.NbSectorsToErase = pEraseInit->NbSectors;
 317:Drivers/STM32H5xx_HAL_Driver/Src/stm32h5xx_hal_flash_ex.c ****       pFlash.Sector = pEraseInit->Sector;
 318:Drivers/STM32H5xx_HAL_Driver/Src/stm32h5xx_hal_flash_ex.c **** 
 319:Drivers/STM32H5xx_HAL_Driver/Src/stm32h5xx_hal_flash_ex.c ****       /* Erase first sector and wait for IT */
 320:Drivers/STM32H5xx_HAL_Driver/Src/stm32h5xx_hal_flash_ex.c ****       FLASH_Erase_Sector(pEraseInit->Sector, pEraseInit->Banks);
 321:Drivers/STM32H5xx_HAL_Driver/Src/stm32h5xx_hal_flash_ex.c ****     }
 322:Drivers/STM32H5xx_HAL_Driver/Src/stm32h5xx_hal_flash_ex.c ****   }
 323:Drivers/STM32H5xx_HAL_Driver/Src/stm32h5xx_hal_flash_ex.c **** 
 324:Drivers/STM32H5xx_HAL_Driver/Src/stm32h5xx_hal_flash_ex.c ****   return status;
 325:Drivers/STM32H5xx_HAL_Driver/Src/stm32h5xx_hal_flash_ex.c **** }
 326:Drivers/STM32H5xx_HAL_Driver/Src/stm32h5xx_hal_flash_ex.c **** 
 327:Drivers/STM32H5xx_HAL_Driver/Src/stm32h5xx_hal_flash_ex.c **** /**
 328:Drivers/STM32H5xx_HAL_Driver/Src/stm32h5xx_hal_flash_ex.c ****   * @brief  Program option bytes
 329:Drivers/STM32H5xx_HAL_Driver/Src/stm32h5xx_hal_flash_ex.c ****   * @param  pOBInit pointer to an FLASH_OBInitStruct structure that
 330:Drivers/STM32H5xx_HAL_Driver/Src/stm32h5xx_hal_flash_ex.c ****   *         contains the configuration information for the programming.
 331:Drivers/STM32H5xx_HAL_Driver/Src/stm32h5xx_hal_flash_ex.c ****   *
 332:Drivers/STM32H5xx_HAL_Driver/Src/stm32h5xx_hal_flash_ex.c ****   * @note   To configure any option bytes, the option lock bit OPTLOCK must be
 333:Drivers/STM32H5xx_HAL_Driver/Src/stm32h5xx_hal_flash_ex.c ****   *         cleared with the call of HAL_FLASH_OB_Unlock() function.
 334:Drivers/STM32H5xx_HAL_Driver/Src/stm32h5xx_hal_flash_ex.c ****   * @note   New option bytes configuration will be taken into account in two cases:
 335:Drivers/STM32H5xx_HAL_Driver/Src/stm32h5xx_hal_flash_ex.c ****   *         - after an option bytes launch through the call of HAL_FLASH_OB_Launch()
 336:Drivers/STM32H5xx_HAL_Driver/Src/stm32h5xx_hal_flash_ex.c ****   *         - after a power-on reset (BOR reset or exit from Standby/Shutdown modes)
 337:Drivers/STM32H5xx_HAL_Driver/Src/stm32h5xx_hal_flash_ex.c ****   * @retval HAL Status
 338:Drivers/STM32H5xx_HAL_Driver/Src/stm32h5xx_hal_flash_ex.c ****   */
 339:Drivers/STM32H5xx_HAL_Driver/Src/stm32h5xx_hal_flash_ex.c **** HAL_StatusTypeDef HAL_FLASHEx_OBProgram(FLASH_OBProgramInitTypeDef *pOBInit)
 340:Drivers/STM32H5xx_HAL_Driver/Src/stm32h5xx_hal_flash_ex.c **** {
 341:Drivers/STM32H5xx_HAL_Driver/Src/stm32h5xx_hal_flash_ex.c ****   HAL_StatusTypeDef status;
 342:Drivers/STM32H5xx_HAL_Driver/Src/stm32h5xx_hal_flash_ex.c **** 
 343:Drivers/STM32H5xx_HAL_Driver/Src/stm32h5xx_hal_flash_ex.c ****   /* Check the parameters */
 344:Drivers/STM32H5xx_HAL_Driver/Src/stm32h5xx_hal_flash_ex.c ****   assert_param(IS_OPTIONBYTE(pOBInit->OptionType));
 345:Drivers/STM32H5xx_HAL_Driver/Src/stm32h5xx_hal_flash_ex.c **** 
 346:Drivers/STM32H5xx_HAL_Driver/Src/stm32h5xx_hal_flash_ex.c ****   /* Process Locked */
 347:Drivers/STM32H5xx_HAL_Driver/Src/stm32h5xx_hal_flash_ex.c ****   __HAL_LOCK(&pFlash);
 348:Drivers/STM32H5xx_HAL_Driver/Src/stm32h5xx_hal_flash_ex.c **** 
 349:Drivers/STM32H5xx_HAL_Driver/Src/stm32h5xx_hal_flash_ex.c ****   /* Reset Error Code */
 350:Drivers/STM32H5xx_HAL_Driver/Src/stm32h5xx_hal_flash_ex.c ****   pFlash.ErrorCode = HAL_FLASH_ERROR_NONE;
 351:Drivers/STM32H5xx_HAL_Driver/Src/stm32h5xx_hal_flash_ex.c **** 
 352:Drivers/STM32H5xx_HAL_Driver/Src/stm32h5xx_hal_flash_ex.c ****   /* Current operation type */
 353:Drivers/STM32H5xx_HAL_Driver/Src/stm32h5xx_hal_flash_ex.c ****   pFlash.ProcedureOnGoing = FLASH_TYPEPROGRAM_OB;
 354:Drivers/STM32H5xx_HAL_Driver/Src/stm32h5xx_hal_flash_ex.c **** 
 355:Drivers/STM32H5xx_HAL_Driver/Src/stm32h5xx_hal_flash_ex.c ****   /* Wait for last operation to be completed */
 356:Drivers/STM32H5xx_HAL_Driver/Src/stm32h5xx_hal_flash_ex.c ****   status = FLASH_WaitForLastOperation(FLASH_TIMEOUT_VALUE);
 357:Drivers/STM32H5xx_HAL_Driver/Src/stm32h5xx_hal_flash_ex.c **** 
 358:Drivers/STM32H5xx_HAL_Driver/Src/stm32h5xx_hal_flash_ex.c ****   if (status == HAL_OK)
 359:Drivers/STM32H5xx_HAL_Driver/Src/stm32h5xx_hal_flash_ex.c ****   {
 360:Drivers/STM32H5xx_HAL_Driver/Src/stm32h5xx_hal_flash_ex.c ****     /*Write protection configuration*/
 361:Drivers/STM32H5xx_HAL_Driver/Src/stm32h5xx_hal_flash_ex.c ****     if ((pOBInit->OptionType & OPTIONBYTE_WRP) != 0U)
 362:Drivers/STM32H5xx_HAL_Driver/Src/stm32h5xx_hal_flash_ex.c ****     {
 363:Drivers/STM32H5xx_HAL_Driver/Src/stm32h5xx_hal_flash_ex.c ****       assert_param(IS_WRPSTATE(pOBInit->WRPState));
 364:Drivers/STM32H5xx_HAL_Driver/Src/stm32h5xx_hal_flash_ex.c **** 
 365:Drivers/STM32H5xx_HAL_Driver/Src/stm32h5xx_hal_flash_ex.c ****       if (pOBInit->WRPState == OB_WRPSTATE_ENABLE)
 366:Drivers/STM32H5xx_HAL_Driver/Src/stm32h5xx_hal_flash_ex.c ****       {
 367:Drivers/STM32H5xx_HAL_Driver/Src/stm32h5xx_hal_flash_ex.c ****         /* Enable write protection on the selected sectors */
 368:Drivers/STM32H5xx_HAL_Driver/Src/stm32h5xx_hal_flash_ex.c ****         FLASH_OB_EnableWRP(pOBInit->WRPSector, pOBInit->Banks);
 369:Drivers/STM32H5xx_HAL_Driver/Src/stm32h5xx_hal_flash_ex.c ****       }
 370:Drivers/STM32H5xx_HAL_Driver/Src/stm32h5xx_hal_flash_ex.c ****       else
 371:Drivers/STM32H5xx_HAL_Driver/Src/stm32h5xx_hal_flash_ex.c ****       {
ARM GAS  C:\Users\sapph\AppData\Local\Temp\ccb3riEs.s 			page 8


 372:Drivers/STM32H5xx_HAL_Driver/Src/stm32h5xx_hal_flash_ex.c ****         /* Disable write protection on the selected sectors */
 373:Drivers/STM32H5xx_HAL_Driver/Src/stm32h5xx_hal_flash_ex.c ****         FLASH_OB_DisableWRP(pOBInit->WRPSector, pOBInit->Banks);
 374:Drivers/STM32H5xx_HAL_Driver/Src/stm32h5xx_hal_flash_ex.c ****       }
 375:Drivers/STM32H5xx_HAL_Driver/Src/stm32h5xx_hal_flash_ex.c ****     }
 376:Drivers/STM32H5xx_HAL_Driver/Src/stm32h5xx_hal_flash_ex.c **** 
 377:Drivers/STM32H5xx_HAL_Driver/Src/stm32h5xx_hal_flash_ex.c ****     /* Product State configuration */
 378:Drivers/STM32H5xx_HAL_Driver/Src/stm32h5xx_hal_flash_ex.c ****     if ((pOBInit->OptionType & OPTIONBYTE_PROD_STATE) != 0U)
 379:Drivers/STM32H5xx_HAL_Driver/Src/stm32h5xx_hal_flash_ex.c ****     {
 380:Drivers/STM32H5xx_HAL_Driver/Src/stm32h5xx_hal_flash_ex.c ****       /* Configure the product state */
 381:Drivers/STM32H5xx_HAL_Driver/Src/stm32h5xx_hal_flash_ex.c ****       FLASH_OB_ProdStateConfig(pOBInit->ProductState);
 382:Drivers/STM32H5xx_HAL_Driver/Src/stm32h5xx_hal_flash_ex.c ****     }
 383:Drivers/STM32H5xx_HAL_Driver/Src/stm32h5xx_hal_flash_ex.c **** 
 384:Drivers/STM32H5xx_HAL_Driver/Src/stm32h5xx_hal_flash_ex.c ****     /* User Configuration */
 385:Drivers/STM32H5xx_HAL_Driver/Src/stm32h5xx_hal_flash_ex.c ****     if ((pOBInit->OptionType & OPTIONBYTE_USER) != 0U)
 386:Drivers/STM32H5xx_HAL_Driver/Src/stm32h5xx_hal_flash_ex.c ****     {
 387:Drivers/STM32H5xx_HAL_Driver/Src/stm32h5xx_hal_flash_ex.c ****       /* Configure the user option bytes */
 388:Drivers/STM32H5xx_HAL_Driver/Src/stm32h5xx_hal_flash_ex.c ****       FLASH_OB_UserConfig(pOBInit->USERType, pOBInit->USERConfig, pOBInit->USERConfig2);
 389:Drivers/STM32H5xx_HAL_Driver/Src/stm32h5xx_hal_flash_ex.c ****     }
 390:Drivers/STM32H5xx_HAL_Driver/Src/stm32h5xx_hal_flash_ex.c **** 
 391:Drivers/STM32H5xx_HAL_Driver/Src/stm32h5xx_hal_flash_ex.c **** #if defined (__ARM_FEATURE_CMSE) && (__ARM_FEATURE_CMSE == 3U)
 392:Drivers/STM32H5xx_HAL_Driver/Src/stm32h5xx_hal_flash_ex.c ****     /* Watermark secure configuration */
 393:Drivers/STM32H5xx_HAL_Driver/Src/stm32h5xx_hal_flash_ex.c ****     if ((pOBInit->OptionType & OPTIONBYTE_WMSEC) != 0U)
 394:Drivers/STM32H5xx_HAL_Driver/Src/stm32h5xx_hal_flash_ex.c ****     {
 395:Drivers/STM32H5xx_HAL_Driver/Src/stm32h5xx_hal_flash_ex.c ****       /* Configure the watermark-based secure area */
 396:Drivers/STM32H5xx_HAL_Driver/Src/stm32h5xx_hal_flash_ex.c ****       FLASH_OB_WMSECConfig(pOBInit->Banks, pOBInit->WMSecStartSector, pOBInit->WMSecEndSector);
 397:Drivers/STM32H5xx_HAL_Driver/Src/stm32h5xx_hal_flash_ex.c ****     }
 398:Drivers/STM32H5xx_HAL_Driver/Src/stm32h5xx_hal_flash_ex.c **** #endif /* __ARM_FEATURE_CMSE */
 399:Drivers/STM32H5xx_HAL_Driver/Src/stm32h5xx_hal_flash_ex.c **** 
 400:Drivers/STM32H5xx_HAL_Driver/Src/stm32h5xx_hal_flash_ex.c ****     /* Boot Address configuration */
 401:Drivers/STM32H5xx_HAL_Driver/Src/stm32h5xx_hal_flash_ex.c ****     if ((pOBInit->OptionType & OPTIONBYTE_BOOTADDR) != 0U)
 402:Drivers/STM32H5xx_HAL_Driver/Src/stm32h5xx_hal_flash_ex.c ****     {
 403:Drivers/STM32H5xx_HAL_Driver/Src/stm32h5xx_hal_flash_ex.c ****       FLASH_OB_BootAddrConfig(pOBInit->BootConfig, pOBInit->BootAddr);
 404:Drivers/STM32H5xx_HAL_Driver/Src/stm32h5xx_hal_flash_ex.c ****     }
 405:Drivers/STM32H5xx_HAL_Driver/Src/stm32h5xx_hal_flash_ex.c **** 
 406:Drivers/STM32H5xx_HAL_Driver/Src/stm32h5xx_hal_flash_ex.c ****     /* Unique boot entry point configuration */
 407:Drivers/STM32H5xx_HAL_Driver/Src/stm32h5xx_hal_flash_ex.c ****     if ((pOBInit->OptionType & OPTIONBYTE_BOOT_LOCK) != 0U)
 408:Drivers/STM32H5xx_HAL_Driver/Src/stm32h5xx_hal_flash_ex.c ****     {
 409:Drivers/STM32H5xx_HAL_Driver/Src/stm32h5xx_hal_flash_ex.c ****       /* Configure the unique boot entry point */
 410:Drivers/STM32H5xx_HAL_Driver/Src/stm32h5xx_hal_flash_ex.c ****       FLASH_OB_BootLockConfig(pOBInit->BootConfig, pOBInit->BootLock);
 411:Drivers/STM32H5xx_HAL_Driver/Src/stm32h5xx_hal_flash_ex.c ****     }
 412:Drivers/STM32H5xx_HAL_Driver/Src/stm32h5xx_hal_flash_ex.c **** 
 413:Drivers/STM32H5xx_HAL_Driver/Src/stm32h5xx_hal_flash_ex.c ****     /* OTP Block Lock configuration */
 414:Drivers/STM32H5xx_HAL_Driver/Src/stm32h5xx_hal_flash_ex.c ****     if ((pOBInit->OptionType & OPTIONBYTE_OTP_LOCK) != 0U)
 415:Drivers/STM32H5xx_HAL_Driver/Src/stm32h5xx_hal_flash_ex.c ****     {
 416:Drivers/STM32H5xx_HAL_Driver/Src/stm32h5xx_hal_flash_ex.c ****       FLASH_OB_OTP_LockConfig(pOBInit->OTPBlockLock);
 417:Drivers/STM32H5xx_HAL_Driver/Src/stm32h5xx_hal_flash_ex.c ****     }
 418:Drivers/STM32H5xx_HAL_Driver/Src/stm32h5xx_hal_flash_ex.c **** 
 419:Drivers/STM32H5xx_HAL_Driver/Src/stm32h5xx_hal_flash_ex.c ****     /* Hide Protection area configuration */
 420:Drivers/STM32H5xx_HAL_Driver/Src/stm32h5xx_hal_flash_ex.c ****     if ((pOBInit->OptionType & OPTIONBYTE_HDP) != 0U)
 421:Drivers/STM32H5xx_HAL_Driver/Src/stm32h5xx_hal_flash_ex.c ****     {
 422:Drivers/STM32H5xx_HAL_Driver/Src/stm32h5xx_hal_flash_ex.c ****       FLASH_OB_HDPConfig(pOBInit->Banks, pOBInit->HDPStartSector, pOBInit->HDPEndSector);
 423:Drivers/STM32H5xx_HAL_Driver/Src/stm32h5xx_hal_flash_ex.c ****     }
 424:Drivers/STM32H5xx_HAL_Driver/Src/stm32h5xx_hal_flash_ex.c **** 
 425:Drivers/STM32H5xx_HAL_Driver/Src/stm32h5xx_hal_flash_ex.c **** #if defined(FLASH_EDATAR_EDATA_EN)
 426:Drivers/STM32H5xx_HAL_Driver/Src/stm32h5xx_hal_flash_ex.c ****     /* Flash high-cycle data area configuration */
 427:Drivers/STM32H5xx_HAL_Driver/Src/stm32h5xx_hal_flash_ex.c ****     if ((pOBInit->OptionType & OPTIONBYTE_EDATA) != 0U)
 428:Drivers/STM32H5xx_HAL_Driver/Src/stm32h5xx_hal_flash_ex.c ****     {
ARM GAS  C:\Users\sapph\AppData\Local\Temp\ccb3riEs.s 			page 9


 429:Drivers/STM32H5xx_HAL_Driver/Src/stm32h5xx_hal_flash_ex.c ****       FLASH_OB_EDATAConfig(pOBInit->Banks, pOBInit->EDATASize);
 430:Drivers/STM32H5xx_HAL_Driver/Src/stm32h5xx_hal_flash_ex.c ****     }
 431:Drivers/STM32H5xx_HAL_Driver/Src/stm32h5xx_hal_flash_ex.c **** #endif /* FLASH_EDATAR_EDATA_EN */
 432:Drivers/STM32H5xx_HAL_Driver/Src/stm32h5xx_hal_flash_ex.c ****   }
 433:Drivers/STM32H5xx_HAL_Driver/Src/stm32h5xx_hal_flash_ex.c **** 
 434:Drivers/STM32H5xx_HAL_Driver/Src/stm32h5xx_hal_flash_ex.c ****   /* Process Unlocked */
 435:Drivers/STM32H5xx_HAL_Driver/Src/stm32h5xx_hal_flash_ex.c ****   __HAL_UNLOCK(&pFlash);
 436:Drivers/STM32H5xx_HAL_Driver/Src/stm32h5xx_hal_flash_ex.c **** 
 437:Drivers/STM32H5xx_HAL_Driver/Src/stm32h5xx_hal_flash_ex.c ****   return status;
 438:Drivers/STM32H5xx_HAL_Driver/Src/stm32h5xx_hal_flash_ex.c **** }
 439:Drivers/STM32H5xx_HAL_Driver/Src/stm32h5xx_hal_flash_ex.c **** 
 440:Drivers/STM32H5xx_HAL_Driver/Src/stm32h5xx_hal_flash_ex.c **** /**
 441:Drivers/STM32H5xx_HAL_Driver/Src/stm32h5xx_hal_flash_ex.c ****   * @brief Get the Option byte configuration
 442:Drivers/STM32H5xx_HAL_Driver/Src/stm32h5xx_hal_flash_ex.c ****   * @param  pOBInit pointer to an FLASH_OBInitStruct structure that
 443:Drivers/STM32H5xx_HAL_Driver/Src/stm32h5xx_hal_flash_ex.c ****   *         contains the configuration information for the programming.
 444:Drivers/STM32H5xx_HAL_Driver/Src/stm32h5xx_hal_flash_ex.c ****   * @note   The parameter Banks of the pOBInit structure must be set exclusively to FLASH_BANK_1 or
 445:Drivers/STM32H5xx_HAL_Driver/Src/stm32h5xx_hal_flash_ex.c ****   *         as this parameter is use to get the given Bank WRP, PCROP and secured area configuratio
 446:Drivers/STM32H5xx_HAL_Driver/Src/stm32h5xx_hal_flash_ex.c ****   *
 447:Drivers/STM32H5xx_HAL_Driver/Src/stm32h5xx_hal_flash_ex.c ****   * @retval None
 448:Drivers/STM32H5xx_HAL_Driver/Src/stm32h5xx_hal_flash_ex.c ****   */
 449:Drivers/STM32H5xx_HAL_Driver/Src/stm32h5xx_hal_flash_ex.c **** void HAL_FLASHEx_OBGetConfig(FLASH_OBProgramInitTypeDef *pOBInit)
 450:Drivers/STM32H5xx_HAL_Driver/Src/stm32h5xx_hal_flash_ex.c **** {
 451:Drivers/STM32H5xx_HAL_Driver/Src/stm32h5xx_hal_flash_ex.c ****   pOBInit->OptionType = (OPTIONBYTE_USER | OPTIONBYTE_PROD_STATE);
 452:Drivers/STM32H5xx_HAL_Driver/Src/stm32h5xx_hal_flash_ex.c **** 
 453:Drivers/STM32H5xx_HAL_Driver/Src/stm32h5xx_hal_flash_ex.c ****   /* Get Product State */
 454:Drivers/STM32H5xx_HAL_Driver/Src/stm32h5xx_hal_flash_ex.c ****   pOBInit->ProductState = FLASH_OB_GetProdState();
 455:Drivers/STM32H5xx_HAL_Driver/Src/stm32h5xx_hal_flash_ex.c **** 
 456:Drivers/STM32H5xx_HAL_Driver/Src/stm32h5xx_hal_flash_ex.c ****   /* Get the user option bytes */
 457:Drivers/STM32H5xx_HAL_Driver/Src/stm32h5xx_hal_flash_ex.c ****   FLASH_OB_GetUser(&(pOBInit->USERConfig), &(pOBInit->USERConfig2));
 458:Drivers/STM32H5xx_HAL_Driver/Src/stm32h5xx_hal_flash_ex.c **** 
 459:Drivers/STM32H5xx_HAL_Driver/Src/stm32h5xx_hal_flash_ex.c ****   if ((pOBInit->Banks == FLASH_BANK_1) || (pOBInit->Banks == FLASH_BANK_2))
 460:Drivers/STM32H5xx_HAL_Driver/Src/stm32h5xx_hal_flash_ex.c ****   {
 461:Drivers/STM32H5xx_HAL_Driver/Src/stm32h5xx_hal_flash_ex.c ****     /* Get write protection on the selected area */
 462:Drivers/STM32H5xx_HAL_Driver/Src/stm32h5xx_hal_flash_ex.c ****     pOBInit->OptionType |= OPTIONBYTE_WRP;
 463:Drivers/STM32H5xx_HAL_Driver/Src/stm32h5xx_hal_flash_ex.c ****     FLASH_OB_GetWRP(pOBInit->Banks, &(pOBInit->WRPState), &(pOBInit->WRPSector));
 464:Drivers/STM32H5xx_HAL_Driver/Src/stm32h5xx_hal_flash_ex.c **** 
 465:Drivers/STM32H5xx_HAL_Driver/Src/stm32h5xx_hal_flash_ex.c **** #if defined (__ARM_FEATURE_CMSE) && (__ARM_FEATURE_CMSE == 3U)
 466:Drivers/STM32H5xx_HAL_Driver/Src/stm32h5xx_hal_flash_ex.c ****     /* Get the configuration of the watermark secure area for the selected area */
 467:Drivers/STM32H5xx_HAL_Driver/Src/stm32h5xx_hal_flash_ex.c ****     pOBInit->OptionType |= OPTIONBYTE_WMSEC;
 468:Drivers/STM32H5xx_HAL_Driver/Src/stm32h5xx_hal_flash_ex.c ****     FLASH_OB_GetWMSEC(pOBInit->Banks, &(pOBInit->WMSecStartSector), &(pOBInit->WMSecEndSector));
 469:Drivers/STM32H5xx_HAL_Driver/Src/stm32h5xx_hal_flash_ex.c **** #endif /* __ARM_FEATURE_CMSE */
 470:Drivers/STM32H5xx_HAL_Driver/Src/stm32h5xx_hal_flash_ex.c **** 
 471:Drivers/STM32H5xx_HAL_Driver/Src/stm32h5xx_hal_flash_ex.c ****     /* Get the configuration of the hide protection for the selected area */
 472:Drivers/STM32H5xx_HAL_Driver/Src/stm32h5xx_hal_flash_ex.c ****     pOBInit->OptionType |= OPTIONBYTE_HDP;
 473:Drivers/STM32H5xx_HAL_Driver/Src/stm32h5xx_hal_flash_ex.c ****     FLASH_OB_GetHDP(pOBInit->Banks, &(pOBInit->HDPStartSector), &(pOBInit->HDPEndSector));
 474:Drivers/STM32H5xx_HAL_Driver/Src/stm32h5xx_hal_flash_ex.c **** #if defined (FLASH_EDATAR_EDATA_EN)
 475:Drivers/STM32H5xx_HAL_Driver/Src/stm32h5xx_hal_flash_ex.c ****     /* Get the Flash high-cycle data configuration for the selected area */
 476:Drivers/STM32H5xx_HAL_Driver/Src/stm32h5xx_hal_flash_ex.c ****     pOBInit->OptionType |= OPTIONBYTE_EDATA;
 477:Drivers/STM32H5xx_HAL_Driver/Src/stm32h5xx_hal_flash_ex.c ****     FLASH_OB_GetEDATA(pOBInit->Banks, &(pOBInit->EDATASize));
 478:Drivers/STM32H5xx_HAL_Driver/Src/stm32h5xx_hal_flash_ex.c **** #endif /* FLASH_EDATAR_EDATA_EN */
 479:Drivers/STM32H5xx_HAL_Driver/Src/stm32h5xx_hal_flash_ex.c ****   }
 480:Drivers/STM32H5xx_HAL_Driver/Src/stm32h5xx_hal_flash_ex.c **** 
 481:Drivers/STM32H5xx_HAL_Driver/Src/stm32h5xx_hal_flash_ex.c ****   /* Get boot configuration */
 482:Drivers/STM32H5xx_HAL_Driver/Src/stm32h5xx_hal_flash_ex.c **** #if defined (__ARM_FEATURE_CMSE) && (__ARM_FEATURE_CMSE == 3U)
 483:Drivers/STM32H5xx_HAL_Driver/Src/stm32h5xx_hal_flash_ex.c ****   if ((pOBInit->BootConfig == OB_BOOT_NS) || (pOBInit->BootConfig == OB_BOOT_SEC))
 484:Drivers/STM32H5xx_HAL_Driver/Src/stm32h5xx_hal_flash_ex.c **** #else
 485:Drivers/STM32H5xx_HAL_Driver/Src/stm32h5xx_hal_flash_ex.c ****   if (pOBInit->BootConfig == OB_BOOT_NS)
ARM GAS  C:\Users\sapph\AppData\Local\Temp\ccb3riEs.s 			page 10


 486:Drivers/STM32H5xx_HAL_Driver/Src/stm32h5xx_hal_flash_ex.c **** #endif /* __ARM_FEATURE_CMSE */
 487:Drivers/STM32H5xx_HAL_Driver/Src/stm32h5xx_hal_flash_ex.c ****   {
 488:Drivers/STM32H5xx_HAL_Driver/Src/stm32h5xx_hal_flash_ex.c ****     pOBInit->OptionType |= OPTIONBYTE_BOOTADDR | OPTIONBYTE_BOOT_LOCK;
 489:Drivers/STM32H5xx_HAL_Driver/Src/stm32h5xx_hal_flash_ex.c ****     FLASH_OB_GetBootConfig(pOBInit->BootConfig, &(pOBInit->BootAddr), &(pOBInit->BootLock));
 490:Drivers/STM32H5xx_HAL_Driver/Src/stm32h5xx_hal_flash_ex.c ****   }
 491:Drivers/STM32H5xx_HAL_Driver/Src/stm32h5xx_hal_flash_ex.c **** 
 492:Drivers/STM32H5xx_HAL_Driver/Src/stm32h5xx_hal_flash_ex.c ****   /* Get OTP Block Lock */
 493:Drivers/STM32H5xx_HAL_Driver/Src/stm32h5xx_hal_flash_ex.c ****   pOBInit->OptionType |= OPTIONBYTE_OTP_LOCK;
 494:Drivers/STM32H5xx_HAL_Driver/Src/stm32h5xx_hal_flash_ex.c ****   pOBInit->OTPBlockLock = FLASH_OB_OTP_GetLock();
 495:Drivers/STM32H5xx_HAL_Driver/Src/stm32h5xx_hal_flash_ex.c **** }
 496:Drivers/STM32H5xx_HAL_Driver/Src/stm32h5xx_hal_flash_ex.c **** 
 497:Drivers/STM32H5xx_HAL_Driver/Src/stm32h5xx_hal_flash_ex.c **** #if defined (FLASH_SR_OBKERR)
 498:Drivers/STM32H5xx_HAL_Driver/Src/stm32h5xx_hal_flash_ex.c **** /**
 499:Drivers/STM32H5xx_HAL_Driver/Src/stm32h5xx_hal_flash_ex.c ****   * @brief  Unlock the FLASH OBK register access
 500:Drivers/STM32H5xx_HAL_Driver/Src/stm32h5xx_hal_flash_ex.c ****   * @retval HAL Status
 501:Drivers/STM32H5xx_HAL_Driver/Src/stm32h5xx_hal_flash_ex.c ****   */
 502:Drivers/STM32H5xx_HAL_Driver/Src/stm32h5xx_hal_flash_ex.c **** HAL_StatusTypeDef HAL_FLASHEx_OBK_Unlock(void)
 503:Drivers/STM32H5xx_HAL_Driver/Src/stm32h5xx_hal_flash_ex.c **** {
 504:Drivers/STM32H5xx_HAL_Driver/Src/stm32h5xx_hal_flash_ex.c ****   HAL_StatusTypeDef status = HAL_OK;
 505:Drivers/STM32H5xx_HAL_Driver/Src/stm32h5xx_hal_flash_ex.c **** 
 506:Drivers/STM32H5xx_HAL_Driver/Src/stm32h5xx_hal_flash_ex.c **** #if defined (__ARM_FEATURE_CMSE) && (__ARM_FEATURE_CMSE == 3U)
 507:Drivers/STM32H5xx_HAL_Driver/Src/stm32h5xx_hal_flash_ex.c ****   if (READ_BIT(FLASH->SECOBKCFGR, FLASH_OBKCFGR_LOCK) != 0U)
 508:Drivers/STM32H5xx_HAL_Driver/Src/stm32h5xx_hal_flash_ex.c ****   {
 509:Drivers/STM32H5xx_HAL_Driver/Src/stm32h5xx_hal_flash_ex.c ****     /* Authorize the FLASH OBK Register access */
 510:Drivers/STM32H5xx_HAL_Driver/Src/stm32h5xx_hal_flash_ex.c ****     WRITE_REG(FLASH->SECOBKKEYR, FLASH_OBK_KEY1);
 511:Drivers/STM32H5xx_HAL_Driver/Src/stm32h5xx_hal_flash_ex.c ****     WRITE_REG(FLASH->SECOBKKEYR, FLASH_OBK_KEY2);
 512:Drivers/STM32H5xx_HAL_Driver/Src/stm32h5xx_hal_flash_ex.c **** 
 513:Drivers/STM32H5xx_HAL_Driver/Src/stm32h5xx_hal_flash_ex.c ****     /* Verify Flash OBK Register is unlocked */
 514:Drivers/STM32H5xx_HAL_Driver/Src/stm32h5xx_hal_flash_ex.c ****     if (READ_BIT(FLASH->SECOBKCFGR, FLASH_OBKCFGR_LOCK) != 0U)
 515:Drivers/STM32H5xx_HAL_Driver/Src/stm32h5xx_hal_flash_ex.c ****     {
 516:Drivers/STM32H5xx_HAL_Driver/Src/stm32h5xx_hal_flash_ex.c ****       status = HAL_ERROR;
 517:Drivers/STM32H5xx_HAL_Driver/Src/stm32h5xx_hal_flash_ex.c ****     }
 518:Drivers/STM32H5xx_HAL_Driver/Src/stm32h5xx_hal_flash_ex.c ****   }
 519:Drivers/STM32H5xx_HAL_Driver/Src/stm32h5xx_hal_flash_ex.c **** #else
 520:Drivers/STM32H5xx_HAL_Driver/Src/stm32h5xx_hal_flash_ex.c ****   if (READ_BIT(FLASH->NSOBKCFGR, FLASH_OBKCFGR_LOCK) != 0U)
 521:Drivers/STM32H5xx_HAL_Driver/Src/stm32h5xx_hal_flash_ex.c ****   {
 522:Drivers/STM32H5xx_HAL_Driver/Src/stm32h5xx_hal_flash_ex.c ****     /* Authorize the FLASH OBK Register access */
 523:Drivers/STM32H5xx_HAL_Driver/Src/stm32h5xx_hal_flash_ex.c ****     WRITE_REG(FLASH->NSOBKKEYR, FLASH_OBK_KEY1);
 524:Drivers/STM32H5xx_HAL_Driver/Src/stm32h5xx_hal_flash_ex.c ****     WRITE_REG(FLASH->NSOBKKEYR, FLASH_OBK_KEY2);
 525:Drivers/STM32H5xx_HAL_Driver/Src/stm32h5xx_hal_flash_ex.c **** 
 526:Drivers/STM32H5xx_HAL_Driver/Src/stm32h5xx_hal_flash_ex.c ****     /* Verify Flash OBK Register is unlocked */
 527:Drivers/STM32H5xx_HAL_Driver/Src/stm32h5xx_hal_flash_ex.c ****     if (READ_BIT(FLASH->NSOBKCFGR, FLASH_OBKCFGR_LOCK) != 0U)
 528:Drivers/STM32H5xx_HAL_Driver/Src/stm32h5xx_hal_flash_ex.c ****     {
 529:Drivers/STM32H5xx_HAL_Driver/Src/stm32h5xx_hal_flash_ex.c ****       status = HAL_ERROR;
 530:Drivers/STM32H5xx_HAL_Driver/Src/stm32h5xx_hal_flash_ex.c ****     }
 531:Drivers/STM32H5xx_HAL_Driver/Src/stm32h5xx_hal_flash_ex.c ****   }
 532:Drivers/STM32H5xx_HAL_Driver/Src/stm32h5xx_hal_flash_ex.c **** #endif /* __ARM_FEATURE_CMSE */
 533:Drivers/STM32H5xx_HAL_Driver/Src/stm32h5xx_hal_flash_ex.c **** 
 534:Drivers/STM32H5xx_HAL_Driver/Src/stm32h5xx_hal_flash_ex.c ****   return status;
 535:Drivers/STM32H5xx_HAL_Driver/Src/stm32h5xx_hal_flash_ex.c **** }
 536:Drivers/STM32H5xx_HAL_Driver/Src/stm32h5xx_hal_flash_ex.c **** 
 537:Drivers/STM32H5xx_HAL_Driver/Src/stm32h5xx_hal_flash_ex.c **** /**
 538:Drivers/STM32H5xx_HAL_Driver/Src/stm32h5xx_hal_flash_ex.c ****   * @brief  Locks the FLASH OBK register access
 539:Drivers/STM32H5xx_HAL_Driver/Src/stm32h5xx_hal_flash_ex.c ****   * @retval HAL Status
 540:Drivers/STM32H5xx_HAL_Driver/Src/stm32h5xx_hal_flash_ex.c ****   */
 541:Drivers/STM32H5xx_HAL_Driver/Src/stm32h5xx_hal_flash_ex.c **** HAL_StatusTypeDef HAL_FLASHEx_OBK_Lock(void)
 542:Drivers/STM32H5xx_HAL_Driver/Src/stm32h5xx_hal_flash_ex.c **** {
ARM GAS  C:\Users\sapph\AppData\Local\Temp\ccb3riEs.s 			page 11


 543:Drivers/STM32H5xx_HAL_Driver/Src/stm32h5xx_hal_flash_ex.c ****   HAL_StatusTypeDef status = HAL_ERROR;
 544:Drivers/STM32H5xx_HAL_Driver/Src/stm32h5xx_hal_flash_ex.c **** 
 545:Drivers/STM32H5xx_HAL_Driver/Src/stm32h5xx_hal_flash_ex.c **** #if defined (__ARM_FEATURE_CMSE) && (__ARM_FEATURE_CMSE == 3U)
 546:Drivers/STM32H5xx_HAL_Driver/Src/stm32h5xx_hal_flash_ex.c ****   /* Set the LOCK Bit to lock the FLASH OBK Register access */
 547:Drivers/STM32H5xx_HAL_Driver/Src/stm32h5xx_hal_flash_ex.c ****   SET_BIT(FLASH->SECOBKCFGR, FLASH_OBKCFGR_LOCK);
 548:Drivers/STM32H5xx_HAL_Driver/Src/stm32h5xx_hal_flash_ex.c **** 
 549:Drivers/STM32H5xx_HAL_Driver/Src/stm32h5xx_hal_flash_ex.c ****   /* verify Flash is locked */
 550:Drivers/STM32H5xx_HAL_Driver/Src/stm32h5xx_hal_flash_ex.c ****   if (READ_BIT(FLASH->SECOBKCFGR, FLASH_OBKCFGR_LOCK) != 0U)
 551:Drivers/STM32H5xx_HAL_Driver/Src/stm32h5xx_hal_flash_ex.c ****   {
 552:Drivers/STM32H5xx_HAL_Driver/Src/stm32h5xx_hal_flash_ex.c ****     status = HAL_OK;
 553:Drivers/STM32H5xx_HAL_Driver/Src/stm32h5xx_hal_flash_ex.c ****   }
 554:Drivers/STM32H5xx_HAL_Driver/Src/stm32h5xx_hal_flash_ex.c **** #else
 555:Drivers/STM32H5xx_HAL_Driver/Src/stm32h5xx_hal_flash_ex.c ****   /* Set the LOCK Bit to lock the FLASH OBK Register access */
 556:Drivers/STM32H5xx_HAL_Driver/Src/stm32h5xx_hal_flash_ex.c ****   SET_BIT(FLASH->NSOBKCFGR, FLASH_OBKCFGR_LOCK);
 557:Drivers/STM32H5xx_HAL_Driver/Src/stm32h5xx_hal_flash_ex.c **** 
 558:Drivers/STM32H5xx_HAL_Driver/Src/stm32h5xx_hal_flash_ex.c ****   /* Verify Flash OBK is locked */
 559:Drivers/STM32H5xx_HAL_Driver/Src/stm32h5xx_hal_flash_ex.c ****   if (READ_BIT(FLASH->NSOBKCFGR, FLASH_OBKCFGR_LOCK) != 0U)
 560:Drivers/STM32H5xx_HAL_Driver/Src/stm32h5xx_hal_flash_ex.c ****   {
 561:Drivers/STM32H5xx_HAL_Driver/Src/stm32h5xx_hal_flash_ex.c ****     status = HAL_OK;
 562:Drivers/STM32H5xx_HAL_Driver/Src/stm32h5xx_hal_flash_ex.c ****   }
 563:Drivers/STM32H5xx_HAL_Driver/Src/stm32h5xx_hal_flash_ex.c **** #endif /* __ARM_FEATURE_CMSE */
 564:Drivers/STM32H5xx_HAL_Driver/Src/stm32h5xx_hal_flash_ex.c **** 
 565:Drivers/STM32H5xx_HAL_Driver/Src/stm32h5xx_hal_flash_ex.c ****   return status;
 566:Drivers/STM32H5xx_HAL_Driver/Src/stm32h5xx_hal_flash_ex.c **** }
 567:Drivers/STM32H5xx_HAL_Driver/Src/stm32h5xx_hal_flash_ex.c **** 
 568:Drivers/STM32H5xx_HAL_Driver/Src/stm32h5xx_hal_flash_ex.c **** /**
 569:Drivers/STM32H5xx_HAL_Driver/Src/stm32h5xx_hal_flash_ex.c ****   * @brief  Swap the FLASH Option Bytes Keys (OBK)
 570:Drivers/STM32H5xx_HAL_Driver/Src/stm32h5xx_hal_flash_ex.c ****   * @param  SwapOffset Specifies the number of keys to be swapped.
 571:Drivers/STM32H5xx_HAL_Driver/Src/stm32h5xx_hal_flash_ex.c ****   *         This parameter can be a value between 0 (no OBK data swapped) and 511 (all OBK data swa
 572:Drivers/STM32H5xx_HAL_Driver/Src/stm32h5xx_hal_flash_ex.c ****   *         Typical value are available in @ref FLASH_OBK_SWAP_Offset
 573:Drivers/STM32H5xx_HAL_Driver/Src/stm32h5xx_hal_flash_ex.c ****   * @retval HAL Status
 574:Drivers/STM32H5xx_HAL_Driver/Src/stm32h5xx_hal_flash_ex.c ****   */
 575:Drivers/STM32H5xx_HAL_Driver/Src/stm32h5xx_hal_flash_ex.c **** HAL_StatusTypeDef HAL_FLASHEx_OBK_Swap(uint32_t SwapOffset)
 576:Drivers/STM32H5xx_HAL_Driver/Src/stm32h5xx_hal_flash_ex.c **** {
 577:Drivers/STM32H5xx_HAL_Driver/Src/stm32h5xx_hal_flash_ex.c ****   HAL_StatusTypeDef status;
 578:Drivers/STM32H5xx_HAL_Driver/Src/stm32h5xx_hal_flash_ex.c ****   __IO uint32_t *reg_obkcfgr;
 579:Drivers/STM32H5xx_HAL_Driver/Src/stm32h5xx_hal_flash_ex.c **** 
 580:Drivers/STM32H5xx_HAL_Driver/Src/stm32h5xx_hal_flash_ex.c ****   /* Wait for last operation to be completed */
 581:Drivers/STM32H5xx_HAL_Driver/Src/stm32h5xx_hal_flash_ex.c ****   status = FLASH_WaitForLastOperation(FLASH_TIMEOUT_VALUE);
 582:Drivers/STM32H5xx_HAL_Driver/Src/stm32h5xx_hal_flash_ex.c **** 
 583:Drivers/STM32H5xx_HAL_Driver/Src/stm32h5xx_hal_flash_ex.c ****   if (status == HAL_OK)
 584:Drivers/STM32H5xx_HAL_Driver/Src/stm32h5xx_hal_flash_ex.c ****   {
 585:Drivers/STM32H5xx_HAL_Driver/Src/stm32h5xx_hal_flash_ex.c ****     /* Access to SECOBKCFGR or NSOBKCFGR registers depends on operation type */
 586:Drivers/STM32H5xx_HAL_Driver/Src/stm32h5xx_hal_flash_ex.c ****     reg_obkcfgr = IS_FLASH_SECURE_OPERATION() ? &(FLASH->SECOBKCFGR) : &(FLASH_NS->NSOBKCFGR);
 587:Drivers/STM32H5xx_HAL_Driver/Src/stm32h5xx_hal_flash_ex.c **** 
 588:Drivers/STM32H5xx_HAL_Driver/Src/stm32h5xx_hal_flash_ex.c ****     /* Set OBK swap offset */
 589:Drivers/STM32H5xx_HAL_Driver/Src/stm32h5xx_hal_flash_ex.c ****     MODIFY_REG((*reg_obkcfgr), FLASH_OBKCFGR_SWAP_OFFSET, (SwapOffset << FLASH_OBKCFGR_SWAP_OFFSET_
 590:Drivers/STM32H5xx_HAL_Driver/Src/stm32h5xx_hal_flash_ex.c **** 
 591:Drivers/STM32H5xx_HAL_Driver/Src/stm32h5xx_hal_flash_ex.c ****     /* Set OBK swap request */
 592:Drivers/STM32H5xx_HAL_Driver/Src/stm32h5xx_hal_flash_ex.c ****     SET_BIT((*reg_obkcfgr), FLASH_OBKCFGR_SWAP_SECT_REQ);
 593:Drivers/STM32H5xx_HAL_Driver/Src/stm32h5xx_hal_flash_ex.c **** 
 594:Drivers/STM32H5xx_HAL_Driver/Src/stm32h5xx_hal_flash_ex.c ****     /* Wait for last operation to be completed */
 595:Drivers/STM32H5xx_HAL_Driver/Src/stm32h5xx_hal_flash_ex.c ****     status = FLASH_WaitForLastOperation(FLASH_TIMEOUT_VALUE);
 596:Drivers/STM32H5xx_HAL_Driver/Src/stm32h5xx_hal_flash_ex.c ****   }
 597:Drivers/STM32H5xx_HAL_Driver/Src/stm32h5xx_hal_flash_ex.c **** 
 598:Drivers/STM32H5xx_HAL_Driver/Src/stm32h5xx_hal_flash_ex.c ****   return status;
 599:Drivers/STM32H5xx_HAL_Driver/Src/stm32h5xx_hal_flash_ex.c **** }
ARM GAS  C:\Users\sapph\AppData\Local\Temp\ccb3riEs.s 			page 12


 600:Drivers/STM32H5xx_HAL_Driver/Src/stm32h5xx_hal_flash_ex.c **** #endif /* FLASH_SR_OBKERR */
 601:Drivers/STM32H5xx_HAL_Driver/Src/stm32h5xx_hal_flash_ex.c **** 
 602:Drivers/STM32H5xx_HAL_Driver/Src/stm32h5xx_hal_flash_ex.c **** /**
 603:Drivers/STM32H5xx_HAL_Driver/Src/stm32h5xx_hal_flash_ex.c ****   * @brief  Return the on-going Flash Operation. After a system reset, return
 604:Drivers/STM32H5xx_HAL_Driver/Src/stm32h5xx_hal_flash_ex.c ****   *         the interrupted Flash operation, if any.
 605:Drivers/STM32H5xx_HAL_Driver/Src/stm32h5xx_hal_flash_ex.c ****   * @param  pFlashOperation [out] pointer to a FLASH_OperationTypeDef structure
 606:Drivers/STM32H5xx_HAL_Driver/Src/stm32h5xx_hal_flash_ex.c ****   *                               that contains the Flash operation information.
 607:Drivers/STM32H5xx_HAL_Driver/Src/stm32h5xx_hal_flash_ex.c ****   * @retval None
 608:Drivers/STM32H5xx_HAL_Driver/Src/stm32h5xx_hal_flash_ex.c ****   */
 609:Drivers/STM32H5xx_HAL_Driver/Src/stm32h5xx_hal_flash_ex.c **** void HAL_FLASHEx_GetOperation(FLASH_OperationTypeDef *pFlashOperation)
 610:Drivers/STM32H5xx_HAL_Driver/Src/stm32h5xx_hal_flash_ex.c **** {
 611:Drivers/STM32H5xx_HAL_Driver/Src/stm32h5xx_hal_flash_ex.c ****   uint32_t opsr_reg = FLASH->OPSR;
 612:Drivers/STM32H5xx_HAL_Driver/Src/stm32h5xx_hal_flash_ex.c **** 
 613:Drivers/STM32H5xx_HAL_Driver/Src/stm32h5xx_hal_flash_ex.c ****   /* Get Flash operation Type */
 614:Drivers/STM32H5xx_HAL_Driver/Src/stm32h5xx_hal_flash_ex.c ****   pFlashOperation->OperationType = opsr_reg & FLASH_OPSR_CODE_OP;
 615:Drivers/STM32H5xx_HAL_Driver/Src/stm32h5xx_hal_flash_ex.c **** 
 616:Drivers/STM32H5xx_HAL_Driver/Src/stm32h5xx_hal_flash_ex.c ****   /* Get Flash operation memory */
 617:Drivers/STM32H5xx_HAL_Driver/Src/stm32h5xx_hal_flash_ex.c **** #if defined (FLASH_EDATAR_EDATA_EN)
 618:Drivers/STM32H5xx_HAL_Driver/Src/stm32h5xx_hal_flash_ex.c ****   pFlashOperation->FlashArea = opsr_reg & (FLASH_OPSR_DATA_OP | FLASH_OPSR_BK_OP | \
 619:Drivers/STM32H5xx_HAL_Driver/Src/stm32h5xx_hal_flash_ex.c ****                                            FLASH_OPSR_SYSF_OP | FLASH_OPSR_OTP_OP);
 620:Drivers/STM32H5xx_HAL_Driver/Src/stm32h5xx_hal_flash_ex.c **** #else
 621:Drivers/STM32H5xx_HAL_Driver/Src/stm32h5xx_hal_flash_ex.c ****   pFlashOperation->FlashArea = opsr_reg & (FLASH_OPSR_BK_OP | FLASH_OPSR_SYSF_OP | \
 622:Drivers/STM32H5xx_HAL_Driver/Src/stm32h5xx_hal_flash_ex.c ****                                            FLASH_OPSR_OTP_OP);
 623:Drivers/STM32H5xx_HAL_Driver/Src/stm32h5xx_hal_flash_ex.c **** #endif /* FLASH_EDATAR_EDATA_EN */
 624:Drivers/STM32H5xx_HAL_Driver/Src/stm32h5xx_hal_flash_ex.c ****   /* Get Flash operation address */
 625:Drivers/STM32H5xx_HAL_Driver/Src/stm32h5xx_hal_flash_ex.c ****   pFlashOperation->Address = opsr_reg & FLASH_OPSR_ADDR_OP;
 626:Drivers/STM32H5xx_HAL_Driver/Src/stm32h5xx_hal_flash_ex.c **** }
 627:Drivers/STM32H5xx_HAL_Driver/Src/stm32h5xx_hal_flash_ex.c **** 
 628:Drivers/STM32H5xx_HAL_Driver/Src/stm32h5xx_hal_flash_ex.c **** /**
 629:Drivers/STM32H5xx_HAL_Driver/Src/stm32h5xx_hal_flash_ex.c ****   * @}
 630:Drivers/STM32H5xx_HAL_Driver/Src/stm32h5xx_hal_flash_ex.c ****   */
 631:Drivers/STM32H5xx_HAL_Driver/Src/stm32h5xx_hal_flash_ex.c **** 
 632:Drivers/STM32H5xx_HAL_Driver/Src/stm32h5xx_hal_flash_ex.c **** /** @defgroup FLASHEx_Exported_Functions_Group2 FLASHEx Extension Protection configuration function
 633:Drivers/STM32H5xx_HAL_Driver/Src/stm32h5xx_hal_flash_ex.c ****   *  @brief   Extension Protection configuration functions
 634:Drivers/STM32H5xx_HAL_Driver/Src/stm32h5xx_hal_flash_ex.c ****   * @{
 635:Drivers/STM32H5xx_HAL_Driver/Src/stm32h5xx_hal_flash_ex.c ****   */
 636:Drivers/STM32H5xx_HAL_Driver/Src/stm32h5xx_hal_flash_ex.c **** 
 637:Drivers/STM32H5xx_HAL_Driver/Src/stm32h5xx_hal_flash_ex.c **** /**
 638:Drivers/STM32H5xx_HAL_Driver/Src/stm32h5xx_hal_flash_ex.c ****   * @brief  Configure the block-based secure area.
 639:Drivers/STM32H5xx_HAL_Driver/Src/stm32h5xx_hal_flash_ex.c ****   *
 640:Drivers/STM32H5xx_HAL_Driver/Src/stm32h5xx_hal_flash_ex.c ****   * @param  pBBAttributes pointer to an FLASH_BBAttributesTypeDef structure that
 641:Drivers/STM32H5xx_HAL_Driver/Src/stm32h5xx_hal_flash_ex.c ****   *         contains the configuration information for the programming.
 642:Drivers/STM32H5xx_HAL_Driver/Src/stm32h5xx_hal_flash_ex.c ****   *
 643:Drivers/STM32H5xx_HAL_Driver/Src/stm32h5xx_hal_flash_ex.c ****   * @note   The field pBBAttributes->Bank should indicate which area is requested
 644:Drivers/STM32H5xx_HAL_Driver/Src/stm32h5xx_hal_flash_ex.c ****   *         for the block-based attributes.
 645:Drivers/STM32H5xx_HAL_Driver/Src/stm32h5xx_hal_flash_ex.c ****   * @note   The field pBBAttributes->BBAttributesType should indicate which
 646:Drivers/STM32H5xx_HAL_Driver/Src/stm32h5xx_hal_flash_ex.c ****   *         block-base attribute type is requested: Secure or Privilege.
 647:Drivers/STM32H5xx_HAL_Driver/Src/stm32h5xx_hal_flash_ex.c ****   *
 648:Drivers/STM32H5xx_HAL_Driver/Src/stm32h5xx_hal_flash_ex.c ****   * @retval HAL Status
 649:Drivers/STM32H5xx_HAL_Driver/Src/stm32h5xx_hal_flash_ex.c ****   */
 650:Drivers/STM32H5xx_HAL_Driver/Src/stm32h5xx_hal_flash_ex.c **** HAL_StatusTypeDef HAL_FLASHEx_ConfigBBAttributes(FLASH_BBAttributesTypeDef *pBBAttributes)
 651:Drivers/STM32H5xx_HAL_Driver/Src/stm32h5xx_hal_flash_ex.c **** {
 652:Drivers/STM32H5xx_HAL_Driver/Src/stm32h5xx_hal_flash_ex.c ****   HAL_StatusTypeDef status;
 653:Drivers/STM32H5xx_HAL_Driver/Src/stm32h5xx_hal_flash_ex.c ****   uint8_t index;
 654:Drivers/STM32H5xx_HAL_Driver/Src/stm32h5xx_hal_flash_ex.c ****   __IO uint32_t *reg;
 655:Drivers/STM32H5xx_HAL_Driver/Src/stm32h5xx_hal_flash_ex.c **** 
 656:Drivers/STM32H5xx_HAL_Driver/Src/stm32h5xx_hal_flash_ex.c ****   /* Check the parameters */
ARM GAS  C:\Users\sapph\AppData\Local\Temp\ccb3riEs.s 			page 13


 657:Drivers/STM32H5xx_HAL_Driver/Src/stm32h5xx_hal_flash_ex.c ****   assert_param(IS_FLASH_BANK_EXCLUSIVE(pBBAttributes->Bank));
 658:Drivers/STM32H5xx_HAL_Driver/Src/stm32h5xx_hal_flash_ex.c ****   assert_param(IS_FLASH_BB_EXCLUSIVE(pBBAttributes->BBAttributesType));
 659:Drivers/STM32H5xx_HAL_Driver/Src/stm32h5xx_hal_flash_ex.c **** 
 660:Drivers/STM32H5xx_HAL_Driver/Src/stm32h5xx_hal_flash_ex.c ****   /* Wait for last operation to be completed */
 661:Drivers/STM32H5xx_HAL_Driver/Src/stm32h5xx_hal_flash_ex.c ****   status = FLASH_WaitForLastOperation(FLASH_TIMEOUT_VALUE);
 662:Drivers/STM32H5xx_HAL_Driver/Src/stm32h5xx_hal_flash_ex.c **** 
 663:Drivers/STM32H5xx_HAL_Driver/Src/stm32h5xx_hal_flash_ex.c ****   if (status == HAL_OK)
 664:Drivers/STM32H5xx_HAL_Driver/Src/stm32h5xx_hal_flash_ex.c ****   {
 665:Drivers/STM32H5xx_HAL_Driver/Src/stm32h5xx_hal_flash_ex.c ****     /* Set the first Block-Based register to write */
 666:Drivers/STM32H5xx_HAL_Driver/Src/stm32h5xx_hal_flash_ex.c **** #if defined (__ARM_FEATURE_CMSE) && (__ARM_FEATURE_CMSE == 3U)
 667:Drivers/STM32H5xx_HAL_Driver/Src/stm32h5xx_hal_flash_ex.c ****     if (pBBAttributes->BBAttributesType == FLASH_BB_SEC)
 668:Drivers/STM32H5xx_HAL_Driver/Src/stm32h5xx_hal_flash_ex.c ****     {
 669:Drivers/STM32H5xx_HAL_Driver/Src/stm32h5xx_hal_flash_ex.c ****       if (pBBAttributes->Bank == FLASH_BANK_1)
 670:Drivers/STM32H5xx_HAL_Driver/Src/stm32h5xx_hal_flash_ex.c ****       {
 671:Drivers/STM32H5xx_HAL_Driver/Src/stm32h5xx_hal_flash_ex.c ****         reg = &(FLASH->SECBB1R1);
 672:Drivers/STM32H5xx_HAL_Driver/Src/stm32h5xx_hal_flash_ex.c ****       }
 673:Drivers/STM32H5xx_HAL_Driver/Src/stm32h5xx_hal_flash_ex.c ****       else
 674:Drivers/STM32H5xx_HAL_Driver/Src/stm32h5xx_hal_flash_ex.c ****       {
 675:Drivers/STM32H5xx_HAL_Driver/Src/stm32h5xx_hal_flash_ex.c ****         reg = &(FLASH->SECBB2R1);
 676:Drivers/STM32H5xx_HAL_Driver/Src/stm32h5xx_hal_flash_ex.c ****       }
 677:Drivers/STM32H5xx_HAL_Driver/Src/stm32h5xx_hal_flash_ex.c ****     }
 678:Drivers/STM32H5xx_HAL_Driver/Src/stm32h5xx_hal_flash_ex.c ****     else
 679:Drivers/STM32H5xx_HAL_Driver/Src/stm32h5xx_hal_flash_ex.c **** #endif /* __ARM_FEATURE_CMSE */
 680:Drivers/STM32H5xx_HAL_Driver/Src/stm32h5xx_hal_flash_ex.c ****     {
 681:Drivers/STM32H5xx_HAL_Driver/Src/stm32h5xx_hal_flash_ex.c ****       if (pBBAttributes->Bank == FLASH_BANK_1)
 682:Drivers/STM32H5xx_HAL_Driver/Src/stm32h5xx_hal_flash_ex.c ****       {
 683:Drivers/STM32H5xx_HAL_Driver/Src/stm32h5xx_hal_flash_ex.c ****         reg = &(FLASH->PRIVBB1R1);
 684:Drivers/STM32H5xx_HAL_Driver/Src/stm32h5xx_hal_flash_ex.c ****       }
 685:Drivers/STM32H5xx_HAL_Driver/Src/stm32h5xx_hal_flash_ex.c ****       else
 686:Drivers/STM32H5xx_HAL_Driver/Src/stm32h5xx_hal_flash_ex.c ****       {
 687:Drivers/STM32H5xx_HAL_Driver/Src/stm32h5xx_hal_flash_ex.c ****         reg = &(FLASH->PRIVBB2R1);
 688:Drivers/STM32H5xx_HAL_Driver/Src/stm32h5xx_hal_flash_ex.c ****       }
 689:Drivers/STM32H5xx_HAL_Driver/Src/stm32h5xx_hal_flash_ex.c ****     }
 690:Drivers/STM32H5xx_HAL_Driver/Src/stm32h5xx_hal_flash_ex.c **** 
 691:Drivers/STM32H5xx_HAL_Driver/Src/stm32h5xx_hal_flash_ex.c ****     /* Modify the register values and check that new attributes are taken in account */
 692:Drivers/STM32H5xx_HAL_Driver/Src/stm32h5xx_hal_flash_ex.c ****     for (index = 0; index < FLASH_BLOCKBASED_NB_REG; index++)
 693:Drivers/STM32H5xx_HAL_Driver/Src/stm32h5xx_hal_flash_ex.c ****     {
 694:Drivers/STM32H5xx_HAL_Driver/Src/stm32h5xx_hal_flash_ex.c ****       *reg = pBBAttributes->BBAttributes_array[index] & FLASH_PRIVBBR_PRIVBB;
 695:Drivers/STM32H5xx_HAL_Driver/Src/stm32h5xx_hal_flash_ex.c ****       if ((*reg) != (pBBAttributes->BBAttributes_array[index] & FLASH_PRIVBBR_PRIVBB))
 696:Drivers/STM32H5xx_HAL_Driver/Src/stm32h5xx_hal_flash_ex.c ****       {
 697:Drivers/STM32H5xx_HAL_Driver/Src/stm32h5xx_hal_flash_ex.c ****         status = HAL_ERROR;
 698:Drivers/STM32H5xx_HAL_Driver/Src/stm32h5xx_hal_flash_ex.c ****       }
 699:Drivers/STM32H5xx_HAL_Driver/Src/stm32h5xx_hal_flash_ex.c ****       reg++;
 700:Drivers/STM32H5xx_HAL_Driver/Src/stm32h5xx_hal_flash_ex.c ****     }
 701:Drivers/STM32H5xx_HAL_Driver/Src/stm32h5xx_hal_flash_ex.c **** 
 702:Drivers/STM32H5xx_HAL_Driver/Src/stm32h5xx_hal_flash_ex.c ****     /* ISB instruction is called to be sure next instructions are performed with correct attributes
 703:Drivers/STM32H5xx_HAL_Driver/Src/stm32h5xx_hal_flash_ex.c ****     __ISB();
 704:Drivers/STM32H5xx_HAL_Driver/Src/stm32h5xx_hal_flash_ex.c ****   }
 705:Drivers/STM32H5xx_HAL_Driver/Src/stm32h5xx_hal_flash_ex.c **** 
 706:Drivers/STM32H5xx_HAL_Driver/Src/stm32h5xx_hal_flash_ex.c ****   /* Process Unlocked */
 707:Drivers/STM32H5xx_HAL_Driver/Src/stm32h5xx_hal_flash_ex.c ****   __HAL_UNLOCK(&pFlash);
 708:Drivers/STM32H5xx_HAL_Driver/Src/stm32h5xx_hal_flash_ex.c **** 
 709:Drivers/STM32H5xx_HAL_Driver/Src/stm32h5xx_hal_flash_ex.c ****   return status;
 710:Drivers/STM32H5xx_HAL_Driver/Src/stm32h5xx_hal_flash_ex.c **** }
 711:Drivers/STM32H5xx_HAL_Driver/Src/stm32h5xx_hal_flash_ex.c **** 
 712:Drivers/STM32H5xx_HAL_Driver/Src/stm32h5xx_hal_flash_ex.c **** /**
 713:Drivers/STM32H5xx_HAL_Driver/Src/stm32h5xx_hal_flash_ex.c ****   * @brief  Return the block-based attributes.
ARM GAS  C:\Users\sapph\AppData\Local\Temp\ccb3riEs.s 			page 14


 714:Drivers/STM32H5xx_HAL_Driver/Src/stm32h5xx_hal_flash_ex.c ****   *
 715:Drivers/STM32H5xx_HAL_Driver/Src/stm32h5xx_hal_flash_ex.c ****   * @param  pBBAttributes [in/out] pointer to an FLASH_BBAttributesTypeDef structure
 716:Drivers/STM32H5xx_HAL_Driver/Src/stm32h5xx_hal_flash_ex.c ****   *                 that contains the configuration information.
 717:Drivers/STM32H5xx_HAL_Driver/Src/stm32h5xx_hal_flash_ex.c ****   * @note   The field pBBAttributes->Bank should indicate which area is requested
 718:Drivers/STM32H5xx_HAL_Driver/Src/stm32h5xx_hal_flash_ex.c ****   *         for the block-based attributes.
 719:Drivers/STM32H5xx_HAL_Driver/Src/stm32h5xx_hal_flash_ex.c ****   * @note   The field pBBAttributes->BBAttributesType should indicate which
 720:Drivers/STM32H5xx_HAL_Driver/Src/stm32h5xx_hal_flash_ex.c ****   *         block-base attribute type is requested: Secure or Privilege.
 721:Drivers/STM32H5xx_HAL_Driver/Src/stm32h5xx_hal_flash_ex.c ****   *
 722:Drivers/STM32H5xx_HAL_Driver/Src/stm32h5xx_hal_flash_ex.c ****   * @retval None
 723:Drivers/STM32H5xx_HAL_Driver/Src/stm32h5xx_hal_flash_ex.c ****   */
 724:Drivers/STM32H5xx_HAL_Driver/Src/stm32h5xx_hal_flash_ex.c **** void HAL_FLASHEx_GetConfigBBAttributes(FLASH_BBAttributesTypeDef *pBBAttributes)
 725:Drivers/STM32H5xx_HAL_Driver/Src/stm32h5xx_hal_flash_ex.c **** {
 726:Drivers/STM32H5xx_HAL_Driver/Src/stm32h5xx_hal_flash_ex.c ****   uint8_t index;
 727:Drivers/STM32H5xx_HAL_Driver/Src/stm32h5xx_hal_flash_ex.c ****   __IO uint32_t *reg;
 728:Drivers/STM32H5xx_HAL_Driver/Src/stm32h5xx_hal_flash_ex.c **** 
 729:Drivers/STM32H5xx_HAL_Driver/Src/stm32h5xx_hal_flash_ex.c ****   /* Check the parameters */
 730:Drivers/STM32H5xx_HAL_Driver/Src/stm32h5xx_hal_flash_ex.c ****   assert_param(IS_FLASH_BANK_EXCLUSIVE(pBBAttributes->Bank));
 731:Drivers/STM32H5xx_HAL_Driver/Src/stm32h5xx_hal_flash_ex.c ****   assert_param(IS_FLASH_BB_EXCLUSIVE(pBBAttributes->BBAttributesType));
 732:Drivers/STM32H5xx_HAL_Driver/Src/stm32h5xx_hal_flash_ex.c **** 
 733:Drivers/STM32H5xx_HAL_Driver/Src/stm32h5xx_hal_flash_ex.c ****   /* Set the first Block-Based register to read */
 734:Drivers/STM32H5xx_HAL_Driver/Src/stm32h5xx_hal_flash_ex.c **** #if defined (__ARM_FEATURE_CMSE) && (__ARM_FEATURE_CMSE == 3U)
 735:Drivers/STM32H5xx_HAL_Driver/Src/stm32h5xx_hal_flash_ex.c ****   if (pBBAttributes->BBAttributesType == FLASH_BB_SEC)
 736:Drivers/STM32H5xx_HAL_Driver/Src/stm32h5xx_hal_flash_ex.c ****   {
 737:Drivers/STM32H5xx_HAL_Driver/Src/stm32h5xx_hal_flash_ex.c ****     if (pBBAttributes->Bank == FLASH_BANK_1)
 738:Drivers/STM32H5xx_HAL_Driver/Src/stm32h5xx_hal_flash_ex.c ****     {
 739:Drivers/STM32H5xx_HAL_Driver/Src/stm32h5xx_hal_flash_ex.c ****       reg = &(FLASH->SECBB1R1);
 740:Drivers/STM32H5xx_HAL_Driver/Src/stm32h5xx_hal_flash_ex.c ****     }
 741:Drivers/STM32H5xx_HAL_Driver/Src/stm32h5xx_hal_flash_ex.c ****     else
 742:Drivers/STM32H5xx_HAL_Driver/Src/stm32h5xx_hal_flash_ex.c ****     {
 743:Drivers/STM32H5xx_HAL_Driver/Src/stm32h5xx_hal_flash_ex.c ****       reg = &(FLASH->SECBB2R1);
 744:Drivers/STM32H5xx_HAL_Driver/Src/stm32h5xx_hal_flash_ex.c ****     }
 745:Drivers/STM32H5xx_HAL_Driver/Src/stm32h5xx_hal_flash_ex.c ****   }
 746:Drivers/STM32H5xx_HAL_Driver/Src/stm32h5xx_hal_flash_ex.c ****   else
 747:Drivers/STM32H5xx_HAL_Driver/Src/stm32h5xx_hal_flash_ex.c **** #endif /* __ARM_FEATURE_CMSE */
 748:Drivers/STM32H5xx_HAL_Driver/Src/stm32h5xx_hal_flash_ex.c ****   {
 749:Drivers/STM32H5xx_HAL_Driver/Src/stm32h5xx_hal_flash_ex.c ****     if (pBBAttributes->Bank == FLASH_BANK_1)
 750:Drivers/STM32H5xx_HAL_Driver/Src/stm32h5xx_hal_flash_ex.c ****     {
 751:Drivers/STM32H5xx_HAL_Driver/Src/stm32h5xx_hal_flash_ex.c ****       reg = &(FLASH->PRIVBB1R1);
 752:Drivers/STM32H5xx_HAL_Driver/Src/stm32h5xx_hal_flash_ex.c ****     }
 753:Drivers/STM32H5xx_HAL_Driver/Src/stm32h5xx_hal_flash_ex.c ****     else
 754:Drivers/STM32H5xx_HAL_Driver/Src/stm32h5xx_hal_flash_ex.c ****     {
 755:Drivers/STM32H5xx_HAL_Driver/Src/stm32h5xx_hal_flash_ex.c ****       reg = &(FLASH->PRIVBB2R1);
 756:Drivers/STM32H5xx_HAL_Driver/Src/stm32h5xx_hal_flash_ex.c ****     }
 757:Drivers/STM32H5xx_HAL_Driver/Src/stm32h5xx_hal_flash_ex.c ****   }
 758:Drivers/STM32H5xx_HAL_Driver/Src/stm32h5xx_hal_flash_ex.c **** 
 759:Drivers/STM32H5xx_HAL_Driver/Src/stm32h5xx_hal_flash_ex.c ****   /* Read the register values */
 760:Drivers/STM32H5xx_HAL_Driver/Src/stm32h5xx_hal_flash_ex.c ****   for (index = 0; index < FLASH_BLOCKBASED_NB_REG; index++)
 761:Drivers/STM32H5xx_HAL_Driver/Src/stm32h5xx_hal_flash_ex.c ****   {
 762:Drivers/STM32H5xx_HAL_Driver/Src/stm32h5xx_hal_flash_ex.c ****     pBBAttributes->BBAttributes_array[index] = (*reg) & FLASH_PRIVBBR_PRIVBB;
 763:Drivers/STM32H5xx_HAL_Driver/Src/stm32h5xx_hal_flash_ex.c ****     reg++;
 764:Drivers/STM32H5xx_HAL_Driver/Src/stm32h5xx_hal_flash_ex.c ****   }
 765:Drivers/STM32H5xx_HAL_Driver/Src/stm32h5xx_hal_flash_ex.c **** }
 766:Drivers/STM32H5xx_HAL_Driver/Src/stm32h5xx_hal_flash_ex.c **** 
 767:Drivers/STM32H5xx_HAL_Driver/Src/stm32h5xx_hal_flash_ex.c **** /**
 768:Drivers/STM32H5xx_HAL_Driver/Src/stm32h5xx_hal_flash_ex.c ****   * @brief  Configuration of the privilege attribute.
 769:Drivers/STM32H5xx_HAL_Driver/Src/stm32h5xx_hal_flash_ex.c ****   *
 770:Drivers/STM32H5xx_HAL_Driver/Src/stm32h5xx_hal_flash_ex.c ****   * @param  PrivMode indicate privilege mode configuration
ARM GAS  C:\Users\sapph\AppData\Local\Temp\ccb3riEs.s 			page 15


 771:Drivers/STM32H5xx_HAL_Driver/Src/stm32h5xx_hal_flash_ex.c ****   *      This parameter can be one of the following values:
 772:Drivers/STM32H5xx_HAL_Driver/Src/stm32h5xx_hal_flash_ex.c ****   *      @arg FLASH_SPRIV_GRANTED: access to secure Flash registers is granted to privileged or unp
 773:Drivers/STM32H5xx_HAL_Driver/Src/stm32h5xx_hal_flash_ex.c ****   *      @arg FLASH_SPRIV_DENIED: access to secure Flash registers is denied to unprivileged access
 774:Drivers/STM32H5xx_HAL_Driver/Src/stm32h5xx_hal_flash_ex.c ****   *      @arg FLASH_NSPRIV_GRANTED: access to non-secure Flash registers is granted to privileged o
 775:Drivers/STM32H5xx_HAL_Driver/Src/stm32h5xx_hal_flash_ex.c ****   *      @arg FLASH_NSPRIV_DENIED: access to non-secure Flash registers is denied to unprivilege ac
 776:Drivers/STM32H5xx_HAL_Driver/Src/stm32h5xx_hal_flash_ex.c ****   *
 777:Drivers/STM32H5xx_HAL_Driver/Src/stm32h5xx_hal_flash_ex.c ****   * @retval None
 778:Drivers/STM32H5xx_HAL_Driver/Src/stm32h5xx_hal_flash_ex.c ****   */
 779:Drivers/STM32H5xx_HAL_Driver/Src/stm32h5xx_hal_flash_ex.c **** void HAL_FLASHEx_ConfigPrivMode(uint32_t PrivMode)
 780:Drivers/STM32H5xx_HAL_Driver/Src/stm32h5xx_hal_flash_ex.c **** {
 781:Drivers/STM32H5xx_HAL_Driver/Src/stm32h5xx_hal_flash_ex.c ****   /* Check the parameters */
 782:Drivers/STM32H5xx_HAL_Driver/Src/stm32h5xx_hal_flash_ex.c ****   assert_param(IS_FLASH_CFGPRIVMODE(PrivMode));
 783:Drivers/STM32H5xx_HAL_Driver/Src/stm32h5xx_hal_flash_ex.c **** #if defined (FLASH_PRIVCFGR_SPRIV)
 784:Drivers/STM32H5xx_HAL_Driver/Src/stm32h5xx_hal_flash_ex.c ****   MODIFY_REG(FLASH->PRIVCFGR, (FLASH_PRIVCFGR_SPRIV | FLASH_PRIVCFGR_NSPRIV), PrivMode);
 785:Drivers/STM32H5xx_HAL_Driver/Src/stm32h5xx_hal_flash_ex.c **** #else
 786:Drivers/STM32H5xx_HAL_Driver/Src/stm32h5xx_hal_flash_ex.c ****   MODIFY_REG(FLASH->PRIVCFGR, FLASH_PRIVCFGR_NSPRIV, PrivMode);
 787:Drivers/STM32H5xx_HAL_Driver/Src/stm32h5xx_hal_flash_ex.c **** #endif /* FLASH_PRIVCFGR_SPRIV */
 788:Drivers/STM32H5xx_HAL_Driver/Src/stm32h5xx_hal_flash_ex.c **** }
 789:Drivers/STM32H5xx_HAL_Driver/Src/stm32h5xx_hal_flash_ex.c **** 
 790:Drivers/STM32H5xx_HAL_Driver/Src/stm32h5xx_hal_flash_ex.c **** /**
 791:Drivers/STM32H5xx_HAL_Driver/Src/stm32h5xx_hal_flash_ex.c ****   * @brief  Return the value of the privilege attribute.
 792:Drivers/STM32H5xx_HAL_Driver/Src/stm32h5xx_hal_flash_ex.c ****   *
 793:Drivers/STM32H5xx_HAL_Driver/Src/stm32h5xx_hal_flash_ex.c ****   * @retval  It indicates the privilege mode configuration.
 794:Drivers/STM32H5xx_HAL_Driver/Src/stm32h5xx_hal_flash_ex.c ****   *      This return value can be one of the following values:
 795:Drivers/STM32H5xx_HAL_Driver/Src/stm32h5xx_hal_flash_ex.c ****   *      @arg FLASH_SPRIV_GRANTED: access to secure Flash registers is granted to privileged or unp
 796:Drivers/STM32H5xx_HAL_Driver/Src/stm32h5xx_hal_flash_ex.c ****   *      @arg FLASH_SPRIV_DENIED: access to secure Flash registers is denied to unprivileged access
 797:Drivers/STM32H5xx_HAL_Driver/Src/stm32h5xx_hal_flash_ex.c ****   *      @arg FLASH_NSPRIV_GRANTED: access to non-secure Flash registers is granted to privileged o
 798:Drivers/STM32H5xx_HAL_Driver/Src/stm32h5xx_hal_flash_ex.c ****   *      @arg FLASH_NSPRIV_DENIED: access to Flash registers is denied to unprivilege accessP
 799:Drivers/STM32H5xx_HAL_Driver/Src/stm32h5xx_hal_flash_ex.c ****   */
 800:Drivers/STM32H5xx_HAL_Driver/Src/stm32h5xx_hal_flash_ex.c **** uint32_t HAL_FLASHEx_GetPrivMode(void)
 801:Drivers/STM32H5xx_HAL_Driver/Src/stm32h5xx_hal_flash_ex.c **** {
 802:Drivers/STM32H5xx_HAL_Driver/Src/stm32h5xx_hal_flash_ex.c **** #if defined (FLASH_PRIVCFGR_SPRIV)
 803:Drivers/STM32H5xx_HAL_Driver/Src/stm32h5xx_hal_flash_ex.c ****   return (FLASH->PRIVCFGR & (FLASH_PRIVCFGR_SPRIV | FLASH_PRIVCFGR_NSPRIV));
 804:Drivers/STM32H5xx_HAL_Driver/Src/stm32h5xx_hal_flash_ex.c **** #else
 805:Drivers/STM32H5xx_HAL_Driver/Src/stm32h5xx_hal_flash_ex.c ****   return (FLASH->PRIVCFGR & FLASH_PRIVCFGR_NSPRIV);
 806:Drivers/STM32H5xx_HAL_Driver/Src/stm32h5xx_hal_flash_ex.c **** #endif /* FLASH_PRIVCFGR_SPRIV */
 807:Drivers/STM32H5xx_HAL_Driver/Src/stm32h5xx_hal_flash_ex.c **** }
 808:Drivers/STM32H5xx_HAL_Driver/Src/stm32h5xx_hal_flash_ex.c **** 
 809:Drivers/STM32H5xx_HAL_Driver/Src/stm32h5xx_hal_flash_ex.c **** #if defined (__ARM_FEATURE_CMSE) && (__ARM_FEATURE_CMSE == 3U)
 810:Drivers/STM32H5xx_HAL_Driver/Src/stm32h5xx_hal_flash_ex.c **** /**
 811:Drivers/STM32H5xx_HAL_Driver/Src/stm32h5xx_hal_flash_ex.c ****   * @brief  Configuration of the security inversion.
 812:Drivers/STM32H5xx_HAL_Driver/Src/stm32h5xx_hal_flash_ex.c ****   *
 813:Drivers/STM32H5xx_HAL_Driver/Src/stm32h5xx_hal_flash_ex.c ****   * @param  SecInvState indicate the flash security state configuration
 814:Drivers/STM32H5xx_HAL_Driver/Src/stm32h5xx_hal_flash_ex.c ****   *          This parameter can be one of the following values:
 815:Drivers/STM32H5xx_HAL_Driver/Src/stm32h5xx_hal_flash_ex.c ****   *            @arg FLASH_SEC_INV_DISABLE: Security state of Flash is not inverted
 816:Drivers/STM32H5xx_HAL_Driver/Src/stm32h5xx_hal_flash_ex.c ****   *            @arg FLASH_SEC_INV_ENABLE: Security state of Flash is inverted
 817:Drivers/STM32H5xx_HAL_Driver/Src/stm32h5xx_hal_flash_ex.c ****   *
 818:Drivers/STM32H5xx_HAL_Driver/Src/stm32h5xx_hal_flash_ex.c ****   * @retval HAL Status
 819:Drivers/STM32H5xx_HAL_Driver/Src/stm32h5xx_hal_flash_ex.c ****   */
 820:Drivers/STM32H5xx_HAL_Driver/Src/stm32h5xx_hal_flash_ex.c **** HAL_StatusTypeDef HAL_FLASHEx_ConfigSecInversion(uint32_t SecInvState)
 821:Drivers/STM32H5xx_HAL_Driver/Src/stm32h5xx_hal_flash_ex.c **** {
 822:Drivers/STM32H5xx_HAL_Driver/Src/stm32h5xx_hal_flash_ex.c ****   HAL_StatusTypeDef status;
 823:Drivers/STM32H5xx_HAL_Driver/Src/stm32h5xx_hal_flash_ex.c **** 
 824:Drivers/STM32H5xx_HAL_Driver/Src/stm32h5xx_hal_flash_ex.c ****   /* Check the parameters */
 825:Drivers/STM32H5xx_HAL_Driver/Src/stm32h5xx_hal_flash_ex.c ****   assert_param(IS_FLASH_CFGSECINV(SecInvState));
 826:Drivers/STM32H5xx_HAL_Driver/Src/stm32h5xx_hal_flash_ex.c **** 
 827:Drivers/STM32H5xx_HAL_Driver/Src/stm32h5xx_hal_flash_ex.c ****   /* Process Locked */
ARM GAS  C:\Users\sapph\AppData\Local\Temp\ccb3riEs.s 			page 16


 828:Drivers/STM32H5xx_HAL_Driver/Src/stm32h5xx_hal_flash_ex.c ****   __HAL_LOCK(&pFlash);
 829:Drivers/STM32H5xx_HAL_Driver/Src/stm32h5xx_hal_flash_ex.c **** 
 830:Drivers/STM32H5xx_HAL_Driver/Src/stm32h5xx_hal_flash_ex.c ****   /* Wait for last operation to be completed */
 831:Drivers/STM32H5xx_HAL_Driver/Src/stm32h5xx_hal_flash_ex.c ****   status = FLASH_WaitForLastOperation(FLASH_TIMEOUT_VALUE);
 832:Drivers/STM32H5xx_HAL_Driver/Src/stm32h5xx_hal_flash_ex.c **** 
 833:Drivers/STM32H5xx_HAL_Driver/Src/stm32h5xx_hal_flash_ex.c ****   if (status == HAL_OK)
 834:Drivers/STM32H5xx_HAL_Driver/Src/stm32h5xx_hal_flash_ex.c ****   {
 835:Drivers/STM32H5xx_HAL_Driver/Src/stm32h5xx_hal_flash_ex.c ****     MODIFY_REG(FLASH->SECCR, FLASH_CR_INV, SecInvState);
 836:Drivers/STM32H5xx_HAL_Driver/Src/stm32h5xx_hal_flash_ex.c ****   }
 837:Drivers/STM32H5xx_HAL_Driver/Src/stm32h5xx_hal_flash_ex.c **** 
 838:Drivers/STM32H5xx_HAL_Driver/Src/stm32h5xx_hal_flash_ex.c ****   /* Process Unlocked */
 839:Drivers/STM32H5xx_HAL_Driver/Src/stm32h5xx_hal_flash_ex.c ****   __HAL_UNLOCK(&pFlash);
 840:Drivers/STM32H5xx_HAL_Driver/Src/stm32h5xx_hal_flash_ex.c **** 
 841:Drivers/STM32H5xx_HAL_Driver/Src/stm32h5xx_hal_flash_ex.c ****   return status;
 842:Drivers/STM32H5xx_HAL_Driver/Src/stm32h5xx_hal_flash_ex.c **** }
 843:Drivers/STM32H5xx_HAL_Driver/Src/stm32h5xx_hal_flash_ex.c **** 
 844:Drivers/STM32H5xx_HAL_Driver/Src/stm32h5xx_hal_flash_ex.c **** /**
 845:Drivers/STM32H5xx_HAL_Driver/Src/stm32h5xx_hal_flash_ex.c ****   * @brief  Return the value of the security inversion.
 846:Drivers/STM32H5xx_HAL_Driver/Src/stm32h5xx_hal_flash_ex.c ****   *
 847:Drivers/STM32H5xx_HAL_Driver/Src/stm32h5xx_hal_flash_ex.c ****   * @retval  It indicates the flash security state configuration
 848:Drivers/STM32H5xx_HAL_Driver/Src/stm32h5xx_hal_flash_ex.c ****   *          This return value can be one of the following values:
 849:Drivers/STM32H5xx_HAL_Driver/Src/stm32h5xx_hal_flash_ex.c ****   *            @arg FLASH_SEC_INV_DISABLE: Security state of Flash is not inverted
 850:Drivers/STM32H5xx_HAL_Driver/Src/stm32h5xx_hal_flash_ex.c ****   *            @arg FLASH_SEC_INV_ENABLE: Security state of Flash is inverted
 851:Drivers/STM32H5xx_HAL_Driver/Src/stm32h5xx_hal_flash_ex.c ****   */
 852:Drivers/STM32H5xx_HAL_Driver/Src/stm32h5xx_hal_flash_ex.c **** uint32_t HAL_FLASHEx_GetSecInversion(void)
 853:Drivers/STM32H5xx_HAL_Driver/Src/stm32h5xx_hal_flash_ex.c **** {
 854:Drivers/STM32H5xx_HAL_Driver/Src/stm32h5xx_hal_flash_ex.c ****   return (FLASH->SECCR & FLASH_CR_INV);
 855:Drivers/STM32H5xx_HAL_Driver/Src/stm32h5xx_hal_flash_ex.c **** }
 856:Drivers/STM32H5xx_HAL_Driver/Src/stm32h5xx_hal_flash_ex.c **** #endif /* __ARM_FEATURE_CMSE */
 857:Drivers/STM32H5xx_HAL_Driver/Src/stm32h5xx_hal_flash_ex.c **** 
 858:Drivers/STM32H5xx_HAL_Driver/Src/stm32h5xx_hal_flash_ex.c **** /**
 859:Drivers/STM32H5xx_HAL_Driver/Src/stm32h5xx_hal_flash_ex.c ****   * @brief  Configure the HDP extension area.
 860:Drivers/STM32H5xx_HAL_Driver/Src/stm32h5xx_hal_flash_ex.c ****   *
 861:Drivers/STM32H5xx_HAL_Driver/Src/stm32h5xx_hal_flash_ex.c ****   * @param  pHDPExtension pointer to an FLASH_HDPExtentionTypeDef structure that
 862:Drivers/STM32H5xx_HAL_Driver/Src/stm32h5xx_hal_flash_ex.c ****   *         contains the configuration information.
 863:Drivers/STM32H5xx_HAL_Driver/Src/stm32h5xx_hal_flash_ex.c ****   *
 864:Drivers/STM32H5xx_HAL_Driver/Src/stm32h5xx_hal_flash_ex.c ****   * @note   The field pHDPExtension->Banks should indicate which area is requested
 865:Drivers/STM32H5xx_HAL_Driver/Src/stm32h5xx_hal_flash_ex.c ****   *         for the HDP extension.
 866:Drivers/STM32H5xx_HAL_Driver/Src/stm32h5xx_hal_flash_ex.c ****   * @note   The field pHDPExtension->NbSectors should indicate the number of
 867:Drivers/STM32H5xx_HAL_Driver/Src/stm32h5xx_hal_flash_ex.c ****   *         sector to be added to the HDP area.
 868:Drivers/STM32H5xx_HAL_Driver/Src/stm32h5xx_hal_flash_ex.c ****   *
 869:Drivers/STM32H5xx_HAL_Driver/Src/stm32h5xx_hal_flash_ex.c ****   * @retval HAL Status
 870:Drivers/STM32H5xx_HAL_Driver/Src/stm32h5xx_hal_flash_ex.c ****   */
 871:Drivers/STM32H5xx_HAL_Driver/Src/stm32h5xx_hal_flash_ex.c **** HAL_StatusTypeDef HAL_FLASHEx_ConfigHDPExtension(const FLASH_HDPExtensionTypeDef *pHDPExtension)
 872:Drivers/STM32H5xx_HAL_Driver/Src/stm32h5xx_hal_flash_ex.c **** {
 873:Drivers/STM32H5xx_HAL_Driver/Src/stm32h5xx_hal_flash_ex.c ****   /* Check the parameters */
 874:Drivers/STM32H5xx_HAL_Driver/Src/stm32h5xx_hal_flash_ex.c ****   assert_param(IS_FLASH_BANK(pHDPExtension->Banks));
 875:Drivers/STM32H5xx_HAL_Driver/Src/stm32h5xx_hal_flash_ex.c ****   assert_param(IS_FLASH_SECTOR(pHDPExtension->NbSectors));
 876:Drivers/STM32H5xx_HAL_Driver/Src/stm32h5xx_hal_flash_ex.c **** 
 877:Drivers/STM32H5xx_HAL_Driver/Src/stm32h5xx_hal_flash_ex.c ****   /* Set the HDP extension register */
 878:Drivers/STM32H5xx_HAL_Driver/Src/stm32h5xx_hal_flash_ex.c ****   if (pHDPExtension->Banks == FLASH_BANK_1)
 879:Drivers/STM32H5xx_HAL_Driver/Src/stm32h5xx_hal_flash_ex.c ****   {
 880:Drivers/STM32H5xx_HAL_Driver/Src/stm32h5xx_hal_flash_ex.c ****     MODIFY_REG(FLASH->HDPEXTR, FLASH_HDPEXTR_HDP1_EXT, pHDPExtension->NbSectors);
 881:Drivers/STM32H5xx_HAL_Driver/Src/stm32h5xx_hal_flash_ex.c ****   }
 882:Drivers/STM32H5xx_HAL_Driver/Src/stm32h5xx_hal_flash_ex.c ****   else if (pHDPExtension->Banks == FLASH_BANK_2)
 883:Drivers/STM32H5xx_HAL_Driver/Src/stm32h5xx_hal_flash_ex.c ****   {
 884:Drivers/STM32H5xx_HAL_Driver/Src/stm32h5xx_hal_flash_ex.c ****     MODIFY_REG(FLASH->HDPEXTR, FLASH_HDPEXTR_HDP2_EXT, (pHDPExtension->NbSectors << FLASH_HDPEXTR_H
ARM GAS  C:\Users\sapph\AppData\Local\Temp\ccb3riEs.s 			page 17


 885:Drivers/STM32H5xx_HAL_Driver/Src/stm32h5xx_hal_flash_ex.c ****   }
 886:Drivers/STM32H5xx_HAL_Driver/Src/stm32h5xx_hal_flash_ex.c ****   else
 887:Drivers/STM32H5xx_HAL_Driver/Src/stm32h5xx_hal_flash_ex.c ****   {
 888:Drivers/STM32H5xx_HAL_Driver/Src/stm32h5xx_hal_flash_ex.c ****     FLASH->HDPEXTR = (pHDPExtension->NbSectors << FLASH_HDPEXTR_HDP2_EXT_Pos) | pHDPExtension->NbSe
 889:Drivers/STM32H5xx_HAL_Driver/Src/stm32h5xx_hal_flash_ex.c ****   }
 890:Drivers/STM32H5xx_HAL_Driver/Src/stm32h5xx_hal_flash_ex.c **** 
 891:Drivers/STM32H5xx_HAL_Driver/Src/stm32h5xx_hal_flash_ex.c ****   return HAL_OK;
 892:Drivers/STM32H5xx_HAL_Driver/Src/stm32h5xx_hal_flash_ex.c **** }
 893:Drivers/STM32H5xx_HAL_Driver/Src/stm32h5xx_hal_flash_ex.c **** 
 894:Drivers/STM32H5xx_HAL_Driver/Src/stm32h5xx_hal_flash_ex.c **** /**
 895:Drivers/STM32H5xx_HAL_Driver/Src/stm32h5xx_hal_flash_ex.c ****   * @}
 896:Drivers/STM32H5xx_HAL_Driver/Src/stm32h5xx_hal_flash_ex.c ****   */
 897:Drivers/STM32H5xx_HAL_Driver/Src/stm32h5xx_hal_flash_ex.c **** 
 898:Drivers/STM32H5xx_HAL_Driver/Src/stm32h5xx_hal_flash_ex.c **** /**
 899:Drivers/STM32H5xx_HAL_Driver/Src/stm32h5xx_hal_flash_ex.c ****   * @}
 900:Drivers/STM32H5xx_HAL_Driver/Src/stm32h5xx_hal_flash_ex.c ****   */
 901:Drivers/STM32H5xx_HAL_Driver/Src/stm32h5xx_hal_flash_ex.c **** 
 902:Drivers/STM32H5xx_HAL_Driver/Src/stm32h5xx_hal_flash_ex.c **** /* Private functions ---------------------------------------------------------*/
 903:Drivers/STM32H5xx_HAL_Driver/Src/stm32h5xx_hal_flash_ex.c **** 
 904:Drivers/STM32H5xx_HAL_Driver/Src/stm32h5xx_hal_flash_ex.c **** /** @addtogroup FLASHEx_Private_Functions
 905:Drivers/STM32H5xx_HAL_Driver/Src/stm32h5xx_hal_flash_ex.c ****   * @{
 906:Drivers/STM32H5xx_HAL_Driver/Src/stm32h5xx_hal_flash_ex.c ****   */
 907:Drivers/STM32H5xx_HAL_Driver/Src/stm32h5xx_hal_flash_ex.c **** 
 908:Drivers/STM32H5xx_HAL_Driver/Src/stm32h5xx_hal_flash_ex.c **** /**
 909:Drivers/STM32H5xx_HAL_Driver/Src/stm32h5xx_hal_flash_ex.c ****   * @brief  Mass erase of FLASH memory
 910:Drivers/STM32H5xx_HAL_Driver/Src/stm32h5xx_hal_flash_ex.c ****   * @param  Banks Banks to be erased
 911:Drivers/STM32H5xx_HAL_Driver/Src/stm32h5xx_hal_flash_ex.c ****   *          This parameter can be one of the following values:
 912:Drivers/STM32H5xx_HAL_Driver/Src/stm32h5xx_hal_flash_ex.c ****   *            @arg FLASH_BANK_1: Bank1 to be erased
 913:Drivers/STM32H5xx_HAL_Driver/Src/stm32h5xx_hal_flash_ex.c ****   *            @arg FLASH_BANK_2: Bank2 to be erased
 914:Drivers/STM32H5xx_HAL_Driver/Src/stm32h5xx_hal_flash_ex.c ****   *            @arg FLASH_BANK_BOTH: Bank1 and Bank2 to be erased
 915:Drivers/STM32H5xx_HAL_Driver/Src/stm32h5xx_hal_flash_ex.c ****   * @retval None
 916:Drivers/STM32H5xx_HAL_Driver/Src/stm32h5xx_hal_flash_ex.c ****   */
 917:Drivers/STM32H5xx_HAL_Driver/Src/stm32h5xx_hal_flash_ex.c **** static void FLASH_MassErase(uint32_t Banks)
 918:Drivers/STM32H5xx_HAL_Driver/Src/stm32h5xx_hal_flash_ex.c **** {
  30              		.loc 1 918 1 view -0
  31              		.cfi_startproc
  32              		@ args = 0, pretend = 0, frame = 0
  33              		@ frame_needed = 0, uses_anonymous_args = 0
  34              		@ link register save eliminated.
 919:Drivers/STM32H5xx_HAL_Driver/Src/stm32h5xx_hal_flash_ex.c ****   __IO uint32_t *reg_cr;
  35              		.loc 1 919 3 view .LVU1
 920:Drivers/STM32H5xx_HAL_Driver/Src/stm32h5xx_hal_flash_ex.c **** 
 921:Drivers/STM32H5xx_HAL_Driver/Src/stm32h5xx_hal_flash_ex.c ****   /* Check the parameters */
 922:Drivers/STM32H5xx_HAL_Driver/Src/stm32h5xx_hal_flash_ex.c ****   assert_param(IS_FLASH_BANK(Banks));
  36              		.loc 1 922 3 view .LVU2
 923:Drivers/STM32H5xx_HAL_Driver/Src/stm32h5xx_hal_flash_ex.c **** 
 924:Drivers/STM32H5xx_HAL_Driver/Src/stm32h5xx_hal_flash_ex.c ****   /* Access to SECCR or NSCR registers depends on operation type */
 925:Drivers/STM32H5xx_HAL_Driver/Src/stm32h5xx_hal_flash_ex.c **** #if defined (FLASH_OPTSR2_TZEN)
 926:Drivers/STM32H5xx_HAL_Driver/Src/stm32h5xx_hal_flash_ex.c ****   reg_cr = IS_FLASH_SECURE_OPERATION() ? &(FLASH->SECCR) : &(FLASH_NS->NSCR);
  37              		.loc 1 926 3 view .LVU3
 927:Drivers/STM32H5xx_HAL_Driver/Src/stm32h5xx_hal_flash_ex.c **** #else
 928:Drivers/STM32H5xx_HAL_Driver/Src/stm32h5xx_hal_flash_ex.c ****   reg_cr = &(FLASH_NS->NSCR);
 929:Drivers/STM32H5xx_HAL_Driver/Src/stm32h5xx_hal_flash_ex.c **** #endif /* FLASH_OPTSR2_TZEN */
 930:Drivers/STM32H5xx_HAL_Driver/Src/stm32h5xx_hal_flash_ex.c **** 
 931:Drivers/STM32H5xx_HAL_Driver/Src/stm32h5xx_hal_flash_ex.c ****   /* Flash Mass Erase */
 932:Drivers/STM32H5xx_HAL_Driver/Src/stm32h5xx_hal_flash_ex.c ****   if ((Banks & FLASH_BANK_BOTH) == FLASH_BANK_BOTH)
  38              		.loc 1 932 3 view .LVU4
ARM GAS  C:\Users\sapph\AppData\Local\Temp\ccb3riEs.s 			page 18


  39              		.loc 1 932 14 is_stmt 0 view .LVU5
  40 0000 00F00303 		and	r3, r0, #3
  41              		.loc 1 932 6 view .LVU6
  42 0004 032B     		cmp	r3, #3
  43 0006 16D0     		beq	.L5
 933:Drivers/STM32H5xx_HAL_Driver/Src/stm32h5xx_hal_flash_ex.c ****   {
 934:Drivers/STM32H5xx_HAL_Driver/Src/stm32h5xx_hal_flash_ex.c ****     /* Set Mass Erase Bit */
 935:Drivers/STM32H5xx_HAL_Driver/Src/stm32h5xx_hal_flash_ex.c ****     SET_BIT((*reg_cr), FLASH_CR_MER | FLASH_CR_START);
 936:Drivers/STM32H5xx_HAL_Driver/Src/stm32h5xx_hal_flash_ex.c ****   }
 937:Drivers/STM32H5xx_HAL_Driver/Src/stm32h5xx_hal_flash_ex.c ****   else
 938:Drivers/STM32H5xx_HAL_Driver/Src/stm32h5xx_hal_flash_ex.c ****   {
 939:Drivers/STM32H5xx_HAL_Driver/Src/stm32h5xx_hal_flash_ex.c ****     /* Proceed to erase Flash Bank  */
 940:Drivers/STM32H5xx_HAL_Driver/Src/stm32h5xx_hal_flash_ex.c ****     if ((Banks & FLASH_BANK_1) == FLASH_BANK_1)
  44              		.loc 1 940 5 is_stmt 1 view .LVU7
  45              		.loc 1 940 8 is_stmt 0 view .LVU8
  46 0008 10F0010F 		tst	r0, #1
  47 000c 08D0     		beq	.L4
 941:Drivers/STM32H5xx_HAL_Driver/Src/stm32h5xx_hal_flash_ex.c ****     {
 942:Drivers/STM32H5xx_HAL_Driver/Src/stm32h5xx_hal_flash_ex.c ****       /* Erase Bank1 */
 943:Drivers/STM32H5xx_HAL_Driver/Src/stm32h5xx_hal_flash_ex.c ****       MODIFY_REG((*reg_cr), (FLASH_CR_BKSEL | FLASH_CR_BER | FLASH_CR_START), (FLASH_CR_BER | FLASH
  48              		.loc 1 943 7 is_stmt 1 view .LVU9
  49 000e 0E4A     		ldr	r2, .L6
  50 0010 936A     		ldr	r3, [r2, #40]
  51 0012 23F00043 		bic	r3, r3, #-2147483648
  52 0016 23F02803 		bic	r3, r3, #40
  53 001a 43F02803 		orr	r3, r3, #40
  54 001e 9362     		str	r3, [r2, #40]
  55              	.L4:
 944:Drivers/STM32H5xx_HAL_Driver/Src/stm32h5xx_hal_flash_ex.c ****     }
 945:Drivers/STM32H5xx_HAL_Driver/Src/stm32h5xx_hal_flash_ex.c **** 
 946:Drivers/STM32H5xx_HAL_Driver/Src/stm32h5xx_hal_flash_ex.c ****     if ((Banks & FLASH_BANK_2) == FLASH_BANK_2)
  56              		.loc 1 946 5 view .LVU10
  57              		.loc 1 946 8 is_stmt 0 view .LVU11
  58 0020 10F0020F 		tst	r0, #2
  59 0024 06D0     		beq	.L1
 947:Drivers/STM32H5xx_HAL_Driver/Src/stm32h5xx_hal_flash_ex.c ****     {
 948:Drivers/STM32H5xx_HAL_Driver/Src/stm32h5xx_hal_flash_ex.c ****       /* Erase Bank2 */
 949:Drivers/STM32H5xx_HAL_Driver/Src/stm32h5xx_hal_flash_ex.c ****       SET_BIT((*reg_cr), (FLASH_CR_BER | FLASH_CR_BKSEL | FLASH_CR_START));
  60              		.loc 1 949 7 is_stmt 1 view .LVU12
  61 0026 084A     		ldr	r2, .L6
  62 0028 936A     		ldr	r3, [r2, #40]
  63 002a 43F00043 		orr	r3, r3, #-2147483648
  64 002e 43F02803 		orr	r3, r3, #40
  65 0032 9362     		str	r3, [r2, #40]
  66              	.L1:
 950:Drivers/STM32H5xx_HAL_Driver/Src/stm32h5xx_hal_flash_ex.c ****     }
 951:Drivers/STM32H5xx_HAL_Driver/Src/stm32h5xx_hal_flash_ex.c ****   }
 952:Drivers/STM32H5xx_HAL_Driver/Src/stm32h5xx_hal_flash_ex.c **** }
  67              		.loc 1 952 1 is_stmt 0 view .LVU13
  68 0034 7047     		bx	lr
  69              	.L5:
 935:Drivers/STM32H5xx_HAL_Driver/Src/stm32h5xx_hal_flash_ex.c ****   }
  70              		.loc 1 935 5 is_stmt 1 view .LVU14
  71 0036 044A     		ldr	r2, .L6
  72 0038 936A     		ldr	r3, [r2, #40]
  73 003a 43F40043 		orr	r3, r3, #32768
  74 003e 43F02003 		orr	r3, r3, #32
ARM GAS  C:\Users\sapph\AppData\Local\Temp\ccb3riEs.s 			page 19


  75 0042 9362     		str	r3, [r2, #40]
  76 0044 7047     		bx	lr
  77              	.L7:
  78 0046 00BF     		.align	2
  79              	.L6:
  80 0048 00200240 		.word	1073881088
  81              		.cfi_endproc
  82              	.LFE173:
  84              		.section	.text.FLASH_OBKErase,"ax",%progbits
  85              		.align	1
  86              		.syntax unified
  87              		.thumb
  88              		.thumb_func
  90              	FLASH_OBKErase:
  91              	.LFB175:
 953:Drivers/STM32H5xx_HAL_Driver/Src/stm32h5xx_hal_flash_ex.c **** 
 954:Drivers/STM32H5xx_HAL_Driver/Src/stm32h5xx_hal_flash_ex.c **** /**
 955:Drivers/STM32H5xx_HAL_Driver/Src/stm32h5xx_hal_flash_ex.c ****   * @brief  Erase the specified FLASH memory sector
 956:Drivers/STM32H5xx_HAL_Driver/Src/stm32h5xx_hal_flash_ex.c ****   * @param  Sector FLASH sector to erase
 957:Drivers/STM32H5xx_HAL_Driver/Src/stm32h5xx_hal_flash_ex.c ****   *          This parameter can be a value of @ref FLASH_Sectors
 958:Drivers/STM32H5xx_HAL_Driver/Src/stm32h5xx_hal_flash_ex.c ****   * @param  Banks Bank(s) where the sector will be erased
 959:Drivers/STM32H5xx_HAL_Driver/Src/stm32h5xx_hal_flash_ex.c ****   *          This parameter can be one of the following values:
 960:Drivers/STM32H5xx_HAL_Driver/Src/stm32h5xx_hal_flash_ex.c ****   *            @arg FLASH_BANK_1: Sector in bank 1 to be erased
 961:Drivers/STM32H5xx_HAL_Driver/Src/stm32h5xx_hal_flash_ex.c ****   *            @arg FLASH_BANK_2: Sector in bank 2 to be erased
 962:Drivers/STM32H5xx_HAL_Driver/Src/stm32h5xx_hal_flash_ex.c ****   * @retval None
 963:Drivers/STM32H5xx_HAL_Driver/Src/stm32h5xx_hal_flash_ex.c ****   */
 964:Drivers/STM32H5xx_HAL_Driver/Src/stm32h5xx_hal_flash_ex.c **** void FLASH_Erase_Sector(uint32_t Sector, uint32_t Banks)
 965:Drivers/STM32H5xx_HAL_Driver/Src/stm32h5xx_hal_flash_ex.c **** {
 966:Drivers/STM32H5xx_HAL_Driver/Src/stm32h5xx_hal_flash_ex.c ****   __IO uint32_t *reg_cr;
 967:Drivers/STM32H5xx_HAL_Driver/Src/stm32h5xx_hal_flash_ex.c **** 
 968:Drivers/STM32H5xx_HAL_Driver/Src/stm32h5xx_hal_flash_ex.c ****   /* Check the parameters */
 969:Drivers/STM32H5xx_HAL_Driver/Src/stm32h5xx_hal_flash_ex.c ****   assert_param(IS_FLASH_SECTOR(Sector));
 970:Drivers/STM32H5xx_HAL_Driver/Src/stm32h5xx_hal_flash_ex.c ****   assert_param(IS_FLASH_BANK_EXCLUSIVE(Banks));
 971:Drivers/STM32H5xx_HAL_Driver/Src/stm32h5xx_hal_flash_ex.c **** 
 972:Drivers/STM32H5xx_HAL_Driver/Src/stm32h5xx_hal_flash_ex.c ****   /* Access to SECCR or NSCR registers depends on operation type */
 973:Drivers/STM32H5xx_HAL_Driver/Src/stm32h5xx_hal_flash_ex.c **** #if defined (FLASH_OPTSR2_TZEN)
 974:Drivers/STM32H5xx_HAL_Driver/Src/stm32h5xx_hal_flash_ex.c ****   reg_cr = IS_FLASH_SECURE_OPERATION() ? &(FLASH->SECCR) : &(FLASH_NS->NSCR);
 975:Drivers/STM32H5xx_HAL_Driver/Src/stm32h5xx_hal_flash_ex.c **** #else
 976:Drivers/STM32H5xx_HAL_Driver/Src/stm32h5xx_hal_flash_ex.c ****   reg_cr = &(FLASH_NS->NSCR);
 977:Drivers/STM32H5xx_HAL_Driver/Src/stm32h5xx_hal_flash_ex.c **** #endif /* FLASH_OPTSR2_TZEN */
 978:Drivers/STM32H5xx_HAL_Driver/Src/stm32h5xx_hal_flash_ex.c **** 
 979:Drivers/STM32H5xx_HAL_Driver/Src/stm32h5xx_hal_flash_ex.c ****   if ((Banks & FLASH_BANK_1) == FLASH_BANK_1)
 980:Drivers/STM32H5xx_HAL_Driver/Src/stm32h5xx_hal_flash_ex.c ****   {
 981:Drivers/STM32H5xx_HAL_Driver/Src/stm32h5xx_hal_flash_ex.c ****     /* Reset Sector Number for Bank1 */
 982:Drivers/STM32H5xx_HAL_Driver/Src/stm32h5xx_hal_flash_ex.c ****     (*reg_cr) &= ~(FLASH_CR_SNB | FLASH_CR_BKSEL);
 983:Drivers/STM32H5xx_HAL_Driver/Src/stm32h5xx_hal_flash_ex.c **** 
 984:Drivers/STM32H5xx_HAL_Driver/Src/stm32h5xx_hal_flash_ex.c ****     (*reg_cr) |= (FLASH_CR_SER | (Sector << FLASH_CR_SNB_Pos) | FLASH_CR_START);
 985:Drivers/STM32H5xx_HAL_Driver/Src/stm32h5xx_hal_flash_ex.c ****   }
 986:Drivers/STM32H5xx_HAL_Driver/Src/stm32h5xx_hal_flash_ex.c ****   else
 987:Drivers/STM32H5xx_HAL_Driver/Src/stm32h5xx_hal_flash_ex.c ****   {
 988:Drivers/STM32H5xx_HAL_Driver/Src/stm32h5xx_hal_flash_ex.c ****     /* Reset Sector Number for Bank2 */
 989:Drivers/STM32H5xx_HAL_Driver/Src/stm32h5xx_hal_flash_ex.c ****     (*reg_cr) &= ~(FLASH_CR_SNB);
 990:Drivers/STM32H5xx_HAL_Driver/Src/stm32h5xx_hal_flash_ex.c **** 
 991:Drivers/STM32H5xx_HAL_Driver/Src/stm32h5xx_hal_flash_ex.c ****     (*reg_cr) |= (FLASH_CR_SER | FLASH_CR_BKSEL | (Sector << FLASH_CR_SNB_Pos) | FLASH_CR_START);
 992:Drivers/STM32H5xx_HAL_Driver/Src/stm32h5xx_hal_flash_ex.c ****   }
 993:Drivers/STM32H5xx_HAL_Driver/Src/stm32h5xx_hal_flash_ex.c **** }
 994:Drivers/STM32H5xx_HAL_Driver/Src/stm32h5xx_hal_flash_ex.c **** 
ARM GAS  C:\Users\sapph\AppData\Local\Temp\ccb3riEs.s 			page 20


 995:Drivers/STM32H5xx_HAL_Driver/Src/stm32h5xx_hal_flash_ex.c **** #if defined (FLASH_SR_OBKERR)
 996:Drivers/STM32H5xx_HAL_Driver/Src/stm32h5xx_hal_flash_ex.c **** /**
 997:Drivers/STM32H5xx_HAL_Driver/Src/stm32h5xx_hal_flash_ex.c ****   * @brief  Erase of FLASH OBK
 998:Drivers/STM32H5xx_HAL_Driver/Src/stm32h5xx_hal_flash_ex.c ****   * @retval None
 999:Drivers/STM32H5xx_HAL_Driver/Src/stm32h5xx_hal_flash_ex.c ****   */
1000:Drivers/STM32H5xx_HAL_Driver/Src/stm32h5xx_hal_flash_ex.c **** static void FLASH_OBKErase()
1001:Drivers/STM32H5xx_HAL_Driver/Src/stm32h5xx_hal_flash_ex.c **** {
  92              		.loc 1 1001 1 view -0
  93              		.cfi_startproc
  94              		@ args = 0, pretend = 0, frame = 0
  95              		@ frame_needed = 0, uses_anonymous_args = 0
  96              		@ link register save eliminated.
1002:Drivers/STM32H5xx_HAL_Driver/Src/stm32h5xx_hal_flash_ex.c ****   __IO uint32_t *reg_obkcfgr;
  97              		.loc 1 1002 3 view .LVU16
1003:Drivers/STM32H5xx_HAL_Driver/Src/stm32h5xx_hal_flash_ex.c **** 
1004:Drivers/STM32H5xx_HAL_Driver/Src/stm32h5xx_hal_flash_ex.c ****   /* Access to SECOBKCFGR or NSOBKCFGR registers depends on operation type */
1005:Drivers/STM32H5xx_HAL_Driver/Src/stm32h5xx_hal_flash_ex.c ****   reg_obkcfgr = IS_FLASH_SECURE_OPERATION() ? &(FLASH->SECOBKCFGR) : &(FLASH_NS->NSOBKCFGR);
  98              		.loc 1 1005 3 view .LVU17
  99              	.LVL1:
1006:Drivers/STM32H5xx_HAL_Driver/Src/stm32h5xx_hal_flash_ex.c **** 
1007:Drivers/STM32H5xx_HAL_Driver/Src/stm32h5xx_hal_flash_ex.c ****   /* Set OBK Erase Bit */
1008:Drivers/STM32H5xx_HAL_Driver/Src/stm32h5xx_hal_flash_ex.c ****   SET_BIT((*reg_obkcfgr), FLASH_OBKCFGR_ALT_SECT_ERASE);
 100              		.loc 1 1008 3 view .LVU18
 101 0000 024A     		ldr	r2, .L9
 102 0002 136C     		ldr	r3, [r2, #64]
 103 0004 43F00803 		orr	r3, r3, #8
 104 0008 1364     		str	r3, [r2, #64]
1009:Drivers/STM32H5xx_HAL_Driver/Src/stm32h5xx_hal_flash_ex.c **** }
 105              		.loc 1 1009 1 is_stmt 0 view .LVU19
 106 000a 7047     		bx	lr
 107              	.L10:
 108              		.align	2
 109              	.L9:
 110 000c 00200240 		.word	1073881088
 111              		.cfi_endproc
 112              	.LFE175:
 114              		.section	.text.FLASH_OB_EnableWRP,"ax",%progbits
 115              		.align	1
 116              		.syntax unified
 117              		.thumb
 118              		.thumb_func
 120              	FLASH_OB_EnableWRP:
 121              	.LVL2:
 122              	.LFB176:
1010:Drivers/STM32H5xx_HAL_Driver/Src/stm32h5xx_hal_flash_ex.c **** #endif /* FLASH_SR_OBKERR */
1011:Drivers/STM32H5xx_HAL_Driver/Src/stm32h5xx_hal_flash_ex.c **** 
1012:Drivers/STM32H5xx_HAL_Driver/Src/stm32h5xx_hal_flash_ex.c **** /**
1013:Drivers/STM32H5xx_HAL_Driver/Src/stm32h5xx_hal_flash_ex.c ****   * @brief  Enable the write protection of the desired bank1 or bank 2 sectors
1014:Drivers/STM32H5xx_HAL_Driver/Src/stm32h5xx_hal_flash_ex.c ****   * @param  WRPSector specifies the sectors to be write protected.
1015:Drivers/STM32H5xx_HAL_Driver/Src/stm32h5xx_hal_flash_ex.c ****   *         This parameter can be a value of @ref FLASH_OB_Write_Protection_Sectors
1016:Drivers/STM32H5xx_HAL_Driver/Src/stm32h5xx_hal_flash_ex.c ****   *
1017:Drivers/STM32H5xx_HAL_Driver/Src/stm32h5xx_hal_flash_ex.c ****   * @param  Banks the specific bank to apply WRP sectors
1018:Drivers/STM32H5xx_HAL_Driver/Src/stm32h5xx_hal_flash_ex.c ****   *          This parameter can be one of the following values:
1019:Drivers/STM32H5xx_HAL_Driver/Src/stm32h5xx_hal_flash_ex.c ****   *            @arg FLASH_BANK_1: enable WRP on specified bank1 sectors
1020:Drivers/STM32H5xx_HAL_Driver/Src/stm32h5xx_hal_flash_ex.c ****   *            @arg FLASH_BANK_2: enable WRP on specified bank2 sectors
1021:Drivers/STM32H5xx_HAL_Driver/Src/stm32h5xx_hal_flash_ex.c ****   *            @arg FLASH_BANK_BOTH: enable WRP on both bank1 and bank2 specified sectors
1022:Drivers/STM32H5xx_HAL_Driver/Src/stm32h5xx_hal_flash_ex.c ****   *
ARM GAS  C:\Users\sapph\AppData\Local\Temp\ccb3riEs.s 			page 21


1023:Drivers/STM32H5xx_HAL_Driver/Src/stm32h5xx_hal_flash_ex.c ****   * @retval None
1024:Drivers/STM32H5xx_HAL_Driver/Src/stm32h5xx_hal_flash_ex.c ****   */
1025:Drivers/STM32H5xx_HAL_Driver/Src/stm32h5xx_hal_flash_ex.c **** static void FLASH_OB_EnableWRP(uint32_t WRPSector, uint32_t Banks)
1026:Drivers/STM32H5xx_HAL_Driver/Src/stm32h5xx_hal_flash_ex.c **** {
 123              		.loc 1 1026 1 is_stmt 1 view -0
 124              		.cfi_startproc
 125              		@ args = 0, pretend = 0, frame = 0
 126              		@ frame_needed = 0, uses_anonymous_args = 0
 127              		@ link register save eliminated.
1027:Drivers/STM32H5xx_HAL_Driver/Src/stm32h5xx_hal_flash_ex.c ****   /* Check the parameters */
1028:Drivers/STM32H5xx_HAL_Driver/Src/stm32h5xx_hal_flash_ex.c ****   assert_param(IS_FLASH_BANK(Banks));
 128              		.loc 1 1028 3 view .LVU21
1029:Drivers/STM32H5xx_HAL_Driver/Src/stm32h5xx_hal_flash_ex.c **** 
1030:Drivers/STM32H5xx_HAL_Driver/Src/stm32h5xx_hal_flash_ex.c ****   if ((Banks & FLASH_BANK_1) == FLASH_BANK_1)
 129              		.loc 1 1030 3 view .LVU22
 130              		.loc 1 1030 6 is_stmt 0 view .LVU23
 131 0000 11F0010F 		tst	r1, #1
 132 0004 08D0     		beq	.L12
1031:Drivers/STM32H5xx_HAL_Driver/Src/stm32h5xx_hal_flash_ex.c ****   {
1032:Drivers/STM32H5xx_HAL_Driver/Src/stm32h5xx_hal_flash_ex.c ****     /* Enable Write Protection for bank 1 */
1033:Drivers/STM32H5xx_HAL_Driver/Src/stm32h5xx_hal_flash_ex.c ****     FLASH->WRP1R_PRG &= (~(WRPSector & FLASH_WRPR_WRPSG));
 133              		.loc 1 1033 5 is_stmt 1 view .LVU24
 134              		.loc 1 1033 10 is_stmt 0 view .LVU25
 135 0006 0A4A     		ldr	r2, .L14
 136 0008 D2F8EC30 		ldr	r3, [r2, #236]
 137              		.loc 1 1033 38 view .LVU26
 138 000c 5FFA80FC 		uxtb	ip, r0
 139              		.loc 1 1033 22 view .LVU27
 140 0010 23EA0C03 		bic	r3, r3, ip
 141 0014 C2F8EC30 		str	r3, [r2, #236]
 142              	.L12:
1034:Drivers/STM32H5xx_HAL_Driver/Src/stm32h5xx_hal_flash_ex.c ****   }
1035:Drivers/STM32H5xx_HAL_Driver/Src/stm32h5xx_hal_flash_ex.c **** 
1036:Drivers/STM32H5xx_HAL_Driver/Src/stm32h5xx_hal_flash_ex.c ****   if ((Banks & FLASH_BANK_2) == FLASH_BANK_2)
 143              		.loc 1 1036 3 is_stmt 1 view .LVU28
 144              		.loc 1 1036 6 is_stmt 0 view .LVU29
 145 0018 11F0020F 		tst	r1, #2
 146 001c 07D0     		beq	.L11
1037:Drivers/STM32H5xx_HAL_Driver/Src/stm32h5xx_hal_flash_ex.c ****   {
1038:Drivers/STM32H5xx_HAL_Driver/Src/stm32h5xx_hal_flash_ex.c ****     /* Enable Write Protection for bank 2 */
1039:Drivers/STM32H5xx_HAL_Driver/Src/stm32h5xx_hal_flash_ex.c ****     FLASH->WRP2R_PRG &= (~(WRPSector & FLASH_WRPR_WRPSG));
 147              		.loc 1 1039 5 is_stmt 1 view .LVU30
 148              		.loc 1 1039 10 is_stmt 0 view .LVU31
 149 001e 044A     		ldr	r2, .L14
 150 0020 D2F8EC31 		ldr	r3, [r2, #492]
 151              		.loc 1 1039 38 view .LVU32
 152 0024 C0B2     		uxtb	r0, r0
 153              	.LVL3:
 154              		.loc 1 1039 22 view .LVU33
 155 0026 23EA0003 		bic	r3, r3, r0
 156 002a C2F8EC31 		str	r3, [r2, #492]
 157              	.L11:
1040:Drivers/STM32H5xx_HAL_Driver/Src/stm32h5xx_hal_flash_ex.c ****   }
1041:Drivers/STM32H5xx_HAL_Driver/Src/stm32h5xx_hal_flash_ex.c **** }
 158              		.loc 1 1041 1 view .LVU34
 159 002e 7047     		bx	lr
 160              	.L15:
ARM GAS  C:\Users\sapph\AppData\Local\Temp\ccb3riEs.s 			page 22


 161              		.align	2
 162              	.L14:
 163 0030 00200240 		.word	1073881088
 164              		.cfi_endproc
 165              	.LFE176:
 167              		.section	.text.FLASH_OB_DisableWRP,"ax",%progbits
 168              		.align	1
 169              		.syntax unified
 170              		.thumb
 171              		.thumb_func
 173              	FLASH_OB_DisableWRP:
 174              	.LVL4:
 175              	.LFB177:
1042:Drivers/STM32H5xx_HAL_Driver/Src/stm32h5xx_hal_flash_ex.c **** 
1043:Drivers/STM32H5xx_HAL_Driver/Src/stm32h5xx_hal_flash_ex.c **** /**
1044:Drivers/STM32H5xx_HAL_Driver/Src/stm32h5xx_hal_flash_ex.c ****   * @brief  Disable the write protection of the desired bank1 or bank 2 sectors
1045:Drivers/STM32H5xx_HAL_Driver/Src/stm32h5xx_hal_flash_ex.c ****   * @param  WRPSector specifies the sectors to disable write protection.
1046:Drivers/STM32H5xx_HAL_Driver/Src/stm32h5xx_hal_flash_ex.c ****   *         This parameter can be a value of @ref FLASH_OB_Write_Protection_Sectors
1047:Drivers/STM32H5xx_HAL_Driver/Src/stm32h5xx_hal_flash_ex.c ****   *
1048:Drivers/STM32H5xx_HAL_Driver/Src/stm32h5xx_hal_flash_ex.c ****   * @param  Banks the specific bank to apply WRP sectors
1049:Drivers/STM32H5xx_HAL_Driver/Src/stm32h5xx_hal_flash_ex.c ****   *          This parameter can be one of the following values:
1050:Drivers/STM32H5xx_HAL_Driver/Src/stm32h5xx_hal_flash_ex.c ****   *            @arg FLASH_BANK_1: disable WRP on specified bank1 sectors
1051:Drivers/STM32H5xx_HAL_Driver/Src/stm32h5xx_hal_flash_ex.c ****   *            @arg FLASH_BANK_2: disable WRP on specified bank2 sectors
1052:Drivers/STM32H5xx_HAL_Driver/Src/stm32h5xx_hal_flash_ex.c ****   *            @arg FLASH_BANK_BOTH: disable WRP on both bank1 and bank2 specified sectors
1053:Drivers/STM32H5xx_HAL_Driver/Src/stm32h5xx_hal_flash_ex.c ****   *
1054:Drivers/STM32H5xx_HAL_Driver/Src/stm32h5xx_hal_flash_ex.c ****   * @retval None
1055:Drivers/STM32H5xx_HAL_Driver/Src/stm32h5xx_hal_flash_ex.c ****   */
1056:Drivers/STM32H5xx_HAL_Driver/Src/stm32h5xx_hal_flash_ex.c **** static void FLASH_OB_DisableWRP(uint32_t WRPSector, uint32_t Banks)
1057:Drivers/STM32H5xx_HAL_Driver/Src/stm32h5xx_hal_flash_ex.c **** {
 176              		.loc 1 1057 1 is_stmt 1 view -0
 177              		.cfi_startproc
 178              		@ args = 0, pretend = 0, frame = 0
 179              		@ frame_needed = 0, uses_anonymous_args = 0
 180              		@ link register save eliminated.
1058:Drivers/STM32H5xx_HAL_Driver/Src/stm32h5xx_hal_flash_ex.c ****   /* Check the parameters */
1059:Drivers/STM32H5xx_HAL_Driver/Src/stm32h5xx_hal_flash_ex.c ****   assert_param(IS_FLASH_BANK(Banks));
 181              		.loc 1 1059 3 view .LVU36
1060:Drivers/STM32H5xx_HAL_Driver/Src/stm32h5xx_hal_flash_ex.c **** 
1061:Drivers/STM32H5xx_HAL_Driver/Src/stm32h5xx_hal_flash_ex.c ****   if ((Banks & FLASH_BANK_1) == FLASH_BANK_1)
 182              		.loc 1 1061 3 view .LVU37
 183              		.loc 1 1061 6 is_stmt 0 view .LVU38
 184 0000 11F0010F 		tst	r1, #1
 185 0004 08D0     		beq	.L17
1062:Drivers/STM32H5xx_HAL_Driver/Src/stm32h5xx_hal_flash_ex.c ****   {
1063:Drivers/STM32H5xx_HAL_Driver/Src/stm32h5xx_hal_flash_ex.c ****     /* Disable Write Protection for bank 1 */
1064:Drivers/STM32H5xx_HAL_Driver/Src/stm32h5xx_hal_flash_ex.c ****     FLASH->WRP1R_PRG |= (WRPSector & FLASH_WRPR_WRPSG);
 186              		.loc 1 1064 5 is_stmt 1 view .LVU39
 187              		.loc 1 1064 10 is_stmt 0 view .LVU40
 188 0006 0A4A     		ldr	r2, .L19
 189 0008 D2F8EC30 		ldr	r3, [r2, #236]
 190              		.loc 1 1064 36 view .LVU41
 191 000c 5FFA80FC 		uxtb	ip, r0
 192              		.loc 1 1064 22 view .LVU42
 193 0010 43EA0C03 		orr	r3, r3, ip
 194 0014 C2F8EC30 		str	r3, [r2, #236]
 195              	.L17:
1065:Drivers/STM32H5xx_HAL_Driver/Src/stm32h5xx_hal_flash_ex.c ****   }
ARM GAS  C:\Users\sapph\AppData\Local\Temp\ccb3riEs.s 			page 23


1066:Drivers/STM32H5xx_HAL_Driver/Src/stm32h5xx_hal_flash_ex.c **** 
1067:Drivers/STM32H5xx_HAL_Driver/Src/stm32h5xx_hal_flash_ex.c ****   if ((Banks & FLASH_BANK_2) == FLASH_BANK_2)
 196              		.loc 1 1067 3 is_stmt 1 view .LVU43
 197              		.loc 1 1067 6 is_stmt 0 view .LVU44
 198 0018 11F0020F 		tst	r1, #2
 199 001c 06D0     		beq	.L16
1068:Drivers/STM32H5xx_HAL_Driver/Src/stm32h5xx_hal_flash_ex.c ****   {
1069:Drivers/STM32H5xx_HAL_Driver/Src/stm32h5xx_hal_flash_ex.c ****     /* Disable Write Protection for bank 2 */
1070:Drivers/STM32H5xx_HAL_Driver/Src/stm32h5xx_hal_flash_ex.c ****     FLASH->WRP2R_PRG |= (WRPSector & FLASH_WRPR_WRPSG);
 200              		.loc 1 1070 5 is_stmt 1 view .LVU45
 201              		.loc 1 1070 10 is_stmt 0 view .LVU46
 202 001e 044A     		ldr	r2, .L19
 203 0020 D2F8EC31 		ldr	r3, [r2, #492]
 204              		.loc 1 1070 36 view .LVU47
 205 0024 C0B2     		uxtb	r0, r0
 206              	.LVL5:
 207              		.loc 1 1070 22 view .LVU48
 208 0026 0343     		orrs	r3, r3, r0
 209 0028 C2F8EC31 		str	r3, [r2, #492]
 210              	.L16:
1071:Drivers/STM32H5xx_HAL_Driver/Src/stm32h5xx_hal_flash_ex.c ****   }
1072:Drivers/STM32H5xx_HAL_Driver/Src/stm32h5xx_hal_flash_ex.c **** }
 211              		.loc 1 1072 1 view .LVU49
 212 002c 7047     		bx	lr
 213              	.L20:
 214 002e 00BF     		.align	2
 215              	.L19:
 216 0030 00200240 		.word	1073881088
 217              		.cfi_endproc
 218              	.LFE177:
 220              		.section	.text.FLASH_OB_GetWRP,"ax",%progbits
 221              		.align	1
 222              		.syntax unified
 223              		.thumb
 224              		.thumb_func
 226              	FLASH_OB_GetWRP:
 227              	.LVL6:
 228              	.LFB178:
1073:Drivers/STM32H5xx_HAL_Driver/Src/stm32h5xx_hal_flash_ex.c **** 
1074:Drivers/STM32H5xx_HAL_Driver/Src/stm32h5xx_hal_flash_ex.c **** /**
1075:Drivers/STM32H5xx_HAL_Driver/Src/stm32h5xx_hal_flash_ex.c ****   * @brief  Get the write protection of the given bank 1 or bank 2 sectors
1076:Drivers/STM32H5xx_HAL_Driver/Src/stm32h5xx_hal_flash_ex.c ****   * @param[in]  Bank specifies the bank where to get the write protection sectors.
1077:Drivers/STM32H5xx_HAL_Driver/Src/stm32h5xx_hal_flash_ex.c ****   *         This parameter can be exclusively one of the following values:
1078:Drivers/STM32H5xx_HAL_Driver/Src/stm32h5xx_hal_flash_ex.c ****   *         @arg FLASH_BANK_1: Get bank1 WRP sectors
1079:Drivers/STM32H5xx_HAL_Driver/Src/stm32h5xx_hal_flash_ex.c ****   *         @arg FLASH_BANK_2: Get bank2 WRP sectors
1080:Drivers/STM32H5xx_HAL_Driver/Src/stm32h5xx_hal_flash_ex.c ****   *
1081:Drivers/STM32H5xx_HAL_Driver/Src/stm32h5xx_hal_flash_ex.c ****   * @param[out]  WRPState returns the write protection state of the returned sectors.
1082:Drivers/STM32H5xx_HAL_Driver/Src/stm32h5xx_hal_flash_ex.c ****   *         This parameter can be one of the following values:
1083:Drivers/STM32H5xx_HAL_Driver/Src/stm32h5xx_hal_flash_ex.c ****   *         @arg WRPState: OB_WRPSTATE_DISABLE or OB_WRPSTATE_ENABLE
1084:Drivers/STM32H5xx_HAL_Driver/Src/stm32h5xx_hal_flash_ex.c **** 
1085:Drivers/STM32H5xx_HAL_Driver/Src/stm32h5xx_hal_flash_ex.c ****   * @param[out]  WRPSector returns the write protected sectors on the given bank .
1086:Drivers/STM32H5xx_HAL_Driver/Src/stm32h5xx_hal_flash_ex.c ****   *         This parameter can be a value of @ref FLASH_OB_Write_Protection_Sectors
1087:Drivers/STM32H5xx_HAL_Driver/Src/stm32h5xx_hal_flash_ex.c ****   *
1088:Drivers/STM32H5xx_HAL_Driver/Src/stm32h5xx_hal_flash_ex.c ****   * @retval None
1089:Drivers/STM32H5xx_HAL_Driver/Src/stm32h5xx_hal_flash_ex.c ****   */
1090:Drivers/STM32H5xx_HAL_Driver/Src/stm32h5xx_hal_flash_ex.c **** static void FLASH_OB_GetWRP(uint32_t Bank, uint32_t *WRPState, uint32_t *WRPSector)
1091:Drivers/STM32H5xx_HAL_Driver/Src/stm32h5xx_hal_flash_ex.c **** {
ARM GAS  C:\Users\sapph\AppData\Local\Temp\ccb3riEs.s 			page 24


 229              		.loc 1 1091 1 is_stmt 1 view -0
 230              		.cfi_startproc
 231              		@ args = 0, pretend = 0, frame = 0
 232              		@ frame_needed = 0, uses_anonymous_args = 0
 233              		@ link register save eliminated.
1092:Drivers/STM32H5xx_HAL_Driver/Src/stm32h5xx_hal_flash_ex.c ****   uint32_t regvalue = 0U;
 234              		.loc 1 1092 3 view .LVU51
1093:Drivers/STM32H5xx_HAL_Driver/Src/stm32h5xx_hal_flash_ex.c **** 
1094:Drivers/STM32H5xx_HAL_Driver/Src/stm32h5xx_hal_flash_ex.c ****   if (Bank == FLASH_BANK_1)
 235              		.loc 1 1094 3 view .LVU52
 236              		.loc 1 1094 6 is_stmt 0 view .LVU53
 237 0000 0128     		cmp	r0, #1
 238 0002 08D0     		beq	.L27
1092:Drivers/STM32H5xx_HAL_Driver/Src/stm32h5xx_hal_flash_ex.c ****   uint32_t regvalue = 0U;
 239              		.loc 1 1092 12 view .LVU54
 240 0004 0023     		movs	r3, #0
 241              	.LVL7:
 242              	.L22:
1095:Drivers/STM32H5xx_HAL_Driver/Src/stm32h5xx_hal_flash_ex.c ****   {
1096:Drivers/STM32H5xx_HAL_Driver/Src/stm32h5xx_hal_flash_ex.c ****     regvalue = FLASH->WRP1R_CUR;
1097:Drivers/STM32H5xx_HAL_Driver/Src/stm32h5xx_hal_flash_ex.c ****   }
1098:Drivers/STM32H5xx_HAL_Driver/Src/stm32h5xx_hal_flash_ex.c **** 
1099:Drivers/STM32H5xx_HAL_Driver/Src/stm32h5xx_hal_flash_ex.c ****   if (Bank == FLASH_BANK_2)
 243              		.loc 1 1099 3 is_stmt 1 view .LVU55
 244              		.loc 1 1099 6 is_stmt 0 view .LVU56
 245 0006 0228     		cmp	r0, #2
 246 0008 09D0     		beq	.L28
 247              	.L23:
1100:Drivers/STM32H5xx_HAL_Driver/Src/stm32h5xx_hal_flash_ex.c ****   {
1101:Drivers/STM32H5xx_HAL_Driver/Src/stm32h5xx_hal_flash_ex.c ****     regvalue = FLASH->WRP2R_CUR;
1102:Drivers/STM32H5xx_HAL_Driver/Src/stm32h5xx_hal_flash_ex.c ****   }
1103:Drivers/STM32H5xx_HAL_Driver/Src/stm32h5xx_hal_flash_ex.c **** 
1104:Drivers/STM32H5xx_HAL_Driver/Src/stm32h5xx_hal_flash_ex.c ****   (*WRPSector) = (~regvalue) & FLASH_WRPR_WRPSG;
 248              		.loc 1 1104 3 is_stmt 1 view .LVU57
 249              		.loc 1 1104 19 is_stmt 0 view .LVU58
 250 000a DB43     		mvns	r3, r3
 251              	.LVL8:
 252              		.loc 1 1104 30 view .LVU59
 253 000c DBB2     		uxtb	r3, r3
 254              	.LVL9:
 255              		.loc 1 1104 16 view .LVU60
 256 000e 1360     		str	r3, [r2]
1105:Drivers/STM32H5xx_HAL_Driver/Src/stm32h5xx_hal_flash_ex.c **** 
1106:Drivers/STM32H5xx_HAL_Driver/Src/stm32h5xx_hal_flash_ex.c ****   if (*WRPSector == 0U)
 257              		.loc 1 1106 3 is_stmt 1 view .LVU61
 258              		.loc 1 1106 6 is_stmt 0 view .LVU62
 259 0010 4BB9     		cbnz	r3, .L24
1107:Drivers/STM32H5xx_HAL_Driver/Src/stm32h5xx_hal_flash_ex.c ****   {
1108:Drivers/STM32H5xx_HAL_Driver/Src/stm32h5xx_hal_flash_ex.c ****     (*WRPState) = OB_WRPSTATE_DISABLE;
 260              		.loc 1 1108 5 is_stmt 1 view .LVU63
 261              		.loc 1 1108 17 is_stmt 0 view .LVU64
 262 0012 0B60     		str	r3, [r1]
 263 0014 7047     		bx	lr
 264              	.LVL10:
 265              	.L27:
1096:Drivers/STM32H5xx_HAL_Driver/Src/stm32h5xx_hal_flash_ex.c ****   }
 266              		.loc 1 1096 5 is_stmt 1 view .LVU65
ARM GAS  C:\Users\sapph\AppData\Local\Temp\ccb3riEs.s 			page 25


1096:Drivers/STM32H5xx_HAL_Driver/Src/stm32h5xx_hal_flash_ex.c ****   }
 267              		.loc 1 1096 14 is_stmt 0 view .LVU66
 268 0016 054B     		ldr	r3, .L29
 269 0018 D3F8E830 		ldr	r3, [r3, #232]
 270              	.LVL11:
1096:Drivers/STM32H5xx_HAL_Driver/Src/stm32h5xx_hal_flash_ex.c ****   }
 271              		.loc 1 1096 14 view .LVU67
 272 001c F3E7     		b	.L22
 273              	.L28:
1101:Drivers/STM32H5xx_HAL_Driver/Src/stm32h5xx_hal_flash_ex.c ****   }
 274              		.loc 1 1101 5 is_stmt 1 view .LVU68
1101:Drivers/STM32H5xx_HAL_Driver/Src/stm32h5xx_hal_flash_ex.c ****   }
 275              		.loc 1 1101 14 is_stmt 0 view .LVU69
 276 001e 034B     		ldr	r3, .L29
 277              	.LVL12:
1101:Drivers/STM32H5xx_HAL_Driver/Src/stm32h5xx_hal_flash_ex.c ****   }
 278              		.loc 1 1101 14 view .LVU70
 279 0020 D3F8E831 		ldr	r3, [r3, #488]
 280              	.LVL13:
1101:Drivers/STM32H5xx_HAL_Driver/Src/stm32h5xx_hal_flash_ex.c ****   }
 281              		.loc 1 1101 14 view .LVU71
 282 0024 F1E7     		b	.L23
 283              	.LVL14:
 284              	.L24:
1109:Drivers/STM32H5xx_HAL_Driver/Src/stm32h5xx_hal_flash_ex.c ****   }
1110:Drivers/STM32H5xx_HAL_Driver/Src/stm32h5xx_hal_flash_ex.c ****   else
1111:Drivers/STM32H5xx_HAL_Driver/Src/stm32h5xx_hal_flash_ex.c ****   {
1112:Drivers/STM32H5xx_HAL_Driver/Src/stm32h5xx_hal_flash_ex.c ****     (*WRPState) = OB_WRPSTATE_ENABLE;
 285              		.loc 1 1112 5 is_stmt 1 view .LVU72
 286              		.loc 1 1112 17 is_stmt 0 view .LVU73
 287 0026 0123     		movs	r3, #1
 288 0028 0B60     		str	r3, [r1]
1113:Drivers/STM32H5xx_HAL_Driver/Src/stm32h5xx_hal_flash_ex.c ****   }
1114:Drivers/STM32H5xx_HAL_Driver/Src/stm32h5xx_hal_flash_ex.c **** }
 289              		.loc 1 1114 1 view .LVU74
 290 002a 7047     		bx	lr
 291              	.L30:
 292              		.align	2
 293              	.L29:
 294 002c 00200240 		.word	1073881088
 295              		.cfi_endproc
 296              	.LFE178:
 298              		.section	.text.FLASH_OB_ProdStateConfig,"ax",%progbits
 299              		.align	1
 300              		.syntax unified
 301              		.thumb
 302              		.thumb_func
 304              	FLASH_OB_ProdStateConfig:
 305              	.LVL15:
 306              	.LFB179:
1115:Drivers/STM32H5xx_HAL_Driver/Src/stm32h5xx_hal_flash_ex.c **** 
1116:Drivers/STM32H5xx_HAL_Driver/Src/stm32h5xx_hal_flash_ex.c **** /**
1117:Drivers/STM32H5xx_HAL_Driver/Src/stm32h5xx_hal_flash_ex.c ****   * @brief  Set the product state.
1118:Drivers/STM32H5xx_HAL_Driver/Src/stm32h5xx_hal_flash_ex.c ****   *
1119:Drivers/STM32H5xx_HAL_Driver/Src/stm32h5xx_hal_flash_ex.c ****   * @note   To configure the product state, the option lock bit OPTLOCK must be
1120:Drivers/STM32H5xx_HAL_Driver/Src/stm32h5xx_hal_flash_ex.c ****   *         cleared with the call of the HAL_FLASH_OB_Unlock() function.
1121:Drivers/STM32H5xx_HAL_Driver/Src/stm32h5xx_hal_flash_ex.c ****   * @note   To validate the product state, the option bytes must be reloaded
ARM GAS  C:\Users\sapph\AppData\Local\Temp\ccb3riEs.s 			page 26


1122:Drivers/STM32H5xx_HAL_Driver/Src/stm32h5xx_hal_flash_ex.c ****   *         through the call of the HAL_FLASH_OB_Launch() function.
1123:Drivers/STM32H5xx_HAL_Driver/Src/stm32h5xx_hal_flash_ex.c ****   *
1124:Drivers/STM32H5xx_HAL_Driver/Src/stm32h5xx_hal_flash_ex.c ****   * @param  ProductState specifies the product state.
1125:Drivers/STM32H5xx_HAL_Driver/Src/stm32h5xx_hal_flash_ex.c ****   *         This parameter can be a value of @ref FLASH_OB_Product_State
1126:Drivers/STM32H5xx_HAL_Driver/Src/stm32h5xx_hal_flash_ex.c ****   *
1127:Drivers/STM32H5xx_HAL_Driver/Src/stm32h5xx_hal_flash_ex.c ****   * @retval None
1128:Drivers/STM32H5xx_HAL_Driver/Src/stm32h5xx_hal_flash_ex.c ****   */
1129:Drivers/STM32H5xx_HAL_Driver/Src/stm32h5xx_hal_flash_ex.c **** static void FLASH_OB_ProdStateConfig(uint32_t ProductState)
1130:Drivers/STM32H5xx_HAL_Driver/Src/stm32h5xx_hal_flash_ex.c **** {
 307              		.loc 1 1130 1 is_stmt 1 view -0
 308              		.cfi_startproc
 309              		@ args = 0, pretend = 0, frame = 0
 310              		@ frame_needed = 0, uses_anonymous_args = 0
 311              		@ link register save eliminated.
1131:Drivers/STM32H5xx_HAL_Driver/Src/stm32h5xx_hal_flash_ex.c ****   /* Check the parameters */
1132:Drivers/STM32H5xx_HAL_Driver/Src/stm32h5xx_hal_flash_ex.c ****   assert_param(IS_OB_PRODUCT_STATE(ProductState));
 312              		.loc 1 1132 3 view .LVU76
1133:Drivers/STM32H5xx_HAL_Driver/Src/stm32h5xx_hal_flash_ex.c **** 
1134:Drivers/STM32H5xx_HAL_Driver/Src/stm32h5xx_hal_flash_ex.c ****   /* Configure the Product State in the option bytes register */
1135:Drivers/STM32H5xx_HAL_Driver/Src/stm32h5xx_hal_flash_ex.c ****   MODIFY_REG(FLASH->OPTSR_PRG, FLASH_OPTSR_PRODUCT_STATE, ProductState);
 313              		.loc 1 1135 3 view .LVU77
 314 0000 034A     		ldr	r2, .L32
 315 0002 536D     		ldr	r3, [r2, #84]
 316 0004 23F47F43 		bic	r3, r3, #65280
 317 0008 0343     		orrs	r3, r3, r0
 318 000a 5365     		str	r3, [r2, #84]
1136:Drivers/STM32H5xx_HAL_Driver/Src/stm32h5xx_hal_flash_ex.c **** }
 319              		.loc 1 1136 1 is_stmt 0 view .LVU78
 320 000c 7047     		bx	lr
 321              	.L33:
 322 000e 00BF     		.align	2
 323              	.L32:
 324 0010 00200240 		.word	1073881088
 325              		.cfi_endproc
 326              	.LFE179:
 328              		.section	.text.FLASH_OB_GetProdState,"ax",%progbits
 329              		.align	1
 330              		.syntax unified
 331              		.thumb
 332              		.thumb_func
 334              	FLASH_OB_GetProdState:
 335              	.LFB180:
1137:Drivers/STM32H5xx_HAL_Driver/Src/stm32h5xx_hal_flash_ex.c **** 
1138:Drivers/STM32H5xx_HAL_Driver/Src/stm32h5xx_hal_flash_ex.c **** /**
1139:Drivers/STM32H5xx_HAL_Driver/Src/stm32h5xx_hal_flash_ex.c ****   * @brief  Get the the product state.
1140:Drivers/STM32H5xx_HAL_Driver/Src/stm32h5xx_hal_flash_ex.c ****   * @retval ProductState returns the product state.
1141:Drivers/STM32H5xx_HAL_Driver/Src/stm32h5xx_hal_flash_ex.c ****   *         This returned value can a value of @ref FLASH_OB_Product_State
1142:Drivers/STM32H5xx_HAL_Driver/Src/stm32h5xx_hal_flash_ex.c ****   */
1143:Drivers/STM32H5xx_HAL_Driver/Src/stm32h5xx_hal_flash_ex.c **** static uint32_t FLASH_OB_GetProdState(void)
1144:Drivers/STM32H5xx_HAL_Driver/Src/stm32h5xx_hal_flash_ex.c **** {
 336              		.loc 1 1144 1 is_stmt 1 view -0
 337              		.cfi_startproc
 338              		@ args = 0, pretend = 0, frame = 0
 339              		@ frame_needed = 0, uses_anonymous_args = 0
 340              		@ link register save eliminated.
1145:Drivers/STM32H5xx_HAL_Driver/Src/stm32h5xx_hal_flash_ex.c ****   return (FLASH->OPTSR_CUR & FLASH_OPTSR_PRODUCT_STATE);
 341              		.loc 1 1145 3 view .LVU80
ARM GAS  C:\Users\sapph\AppData\Local\Temp\ccb3riEs.s 			page 27


 342              		.loc 1 1145 16 is_stmt 0 view .LVU81
 343 0000 024B     		ldr	r3, .L35
 344 0002 186D     		ldr	r0, [r3, #80]
1146:Drivers/STM32H5xx_HAL_Driver/Src/stm32h5xx_hal_flash_ex.c **** }
 345              		.loc 1 1146 1 view .LVU82
 346 0004 00F47F40 		and	r0, r0, #65280
 347 0008 7047     		bx	lr
 348              	.L36:
 349 000a 00BF     		.align	2
 350              	.L35:
 351 000c 00200240 		.word	1073881088
 352              		.cfi_endproc
 353              	.LFE180:
 355              		.section	.text.FLASH_OB_UserConfig,"ax",%progbits
 356              		.align	1
 357              		.syntax unified
 358              		.thumb
 359              		.thumb_func
 361              	FLASH_OB_UserConfig:
 362              	.LVL16:
 363              	.LFB181:
1147:Drivers/STM32H5xx_HAL_Driver/Src/stm32h5xx_hal_flash_ex.c **** 
1148:Drivers/STM32H5xx_HAL_Driver/Src/stm32h5xx_hal_flash_ex.c **** /**
1149:Drivers/STM32H5xx_HAL_Driver/Src/stm32h5xx_hal_flash_ex.c ****   * @brief  Program the FLASH User Option Byte.
1150:Drivers/STM32H5xx_HAL_Driver/Src/stm32h5xx_hal_flash_ex.c ****   *
1151:Drivers/STM32H5xx_HAL_Driver/Src/stm32h5xx_hal_flash_ex.c ****   * @note   To configure the user option bytes, the option lock bit OPTLOCK must
1152:Drivers/STM32H5xx_HAL_Driver/Src/stm32h5xx_hal_flash_ex.c ****   *         be cleared with the call of the HAL_FLASH_OB_Unlock() function.
1153:Drivers/STM32H5xx_HAL_Driver/Src/stm32h5xx_hal_flash_ex.c ****   * @note   To validate the user option bytes, the option bytes must be reloaded
1154:Drivers/STM32H5xx_HAL_Driver/Src/stm32h5xx_hal_flash_ex.c ****   *         through the call of the HAL_FLASH_OB_Launch() function.
1155:Drivers/STM32H5xx_HAL_Driver/Src/stm32h5xx_hal_flash_ex.c ****   *
1156:Drivers/STM32H5xx_HAL_Driver/Src/stm32h5xx_hal_flash_ex.c ****   * @param  UserType specifies The FLASH User Option Bytes to be modified.
1157:Drivers/STM32H5xx_HAL_Driver/Src/stm32h5xx_hal_flash_ex.c ****   *         This parameter can be a combination of @ref FLASH_OB_USER_Type
1158:Drivers/STM32H5xx_HAL_Driver/Src/stm32h5xx_hal_flash_ex.c ****   *
1159:Drivers/STM32H5xx_HAL_Driver/Src/stm32h5xx_hal_flash_ex.c ****   * @param  UserConfig1 specifies values of the selected User Option Bytes.
1160:Drivers/STM32H5xx_HAL_Driver/Src/stm32h5xx_hal_flash_ex.c ****   *         This parameter can be a combination of @ref FLASH_OB_USER_BOR_LEVEL,
1161:Drivers/STM32H5xx_HAL_Driver/Src/stm32h5xx_hal_flash_ex.c ****   *         @ref FLASH_OB_USER_BORH_EN, @ref FLASH_OB_USER_IWDG_SW,
1162:Drivers/STM32H5xx_HAL_Driver/Src/stm32h5xx_hal_flash_ex.c ****   *         @ref FLASH_OB_USER_WWDG_SW, @ref FLASH_OB_USER_nRST_STOP,
1163:Drivers/STM32H5xx_HAL_Driver/Src/stm32h5xx_hal_flash_ex.c ****   *         @ref FLASH_OB_USER_nRST_STANDBY, @ref FLASH_OB_USER_IO_VDD_HSLV,
1164:Drivers/STM32H5xx_HAL_Driver/Src/stm32h5xx_hal_flash_ex.c ****   *         @ref FLASH_OB_USER_IO_VDDIO2_HSLV, @ref FLASH_OB_USER_IWDG_STOP,
1165:Drivers/STM32H5xx_HAL_Driver/Src/stm32h5xx_hal_flash_ex.c ****   *         @ref FLASH_OB_USER_IWDG_STANDBY, @ref FLASH_OB_USER_BOOT_UBE and @ref OB_USER_SWAP_BANK
1166:Drivers/STM32H5xx_HAL_Driver/Src/stm32h5xx_hal_flash_ex.c ****   * @param  UserConfig2 specifies values of the selected User Option Bytes.
1167:Drivers/STM32H5xx_HAL_Driver/Src/stm32h5xx_hal_flash_ex.c ****   *         @ref FLASH_OB_USER_SRAM1_3_RST, @ref FLASH_OB_USER_SRAM2_RST,
1168:Drivers/STM32H5xx_HAL_Driver/Src/stm32h5xx_hal_flash_ex.c ****   *         @ref FLASH_OB_USER_BKPRAM_ECC, @ref FLASH_OB_USER_SRAM3_ECC,
1169:Drivers/STM32H5xx_HAL_Driver/Src/stm32h5xx_hal_flash_ex.c ****   *         @ref FLASH_OB_USER_SRAM2_ECC, @ref FLASH_OB_USER_SRAM1_ECC,
1170:Drivers/STM32H5xx_HAL_Driver/Src/stm32h5xx_hal_flash_ex.c ****   *         @ref FLASH_OB_USER_SRAM1_RST and @ref OB_USER_TZEN.
1171:Drivers/STM32H5xx_HAL_Driver/Src/stm32h5xx_hal_flash_ex.c ****   * @retval None
1172:Drivers/STM32H5xx_HAL_Driver/Src/stm32h5xx_hal_flash_ex.c ****   */
1173:Drivers/STM32H5xx_HAL_Driver/Src/stm32h5xx_hal_flash_ex.c **** static void FLASH_OB_UserConfig(uint32_t UserType, uint32_t UserConfig1, uint32_t UserConfig2)
1174:Drivers/STM32H5xx_HAL_Driver/Src/stm32h5xx_hal_flash_ex.c **** {
 364              		.loc 1 1174 1 is_stmt 1 view -0
 365              		.cfi_startproc
 366              		@ args = 0, pretend = 0, frame = 0
 367              		@ frame_needed = 0, uses_anonymous_args = 0
 368              		.loc 1 1174 1 is_stmt 0 view .LVU84
 369 0000 10B5     		push	{r4, lr}
 370              		.cfi_def_cfa_offset 8
 371              		.cfi_offset 4, -8
ARM GAS  C:\Users\sapph\AppData\Local\Temp\ccb3riEs.s 			page 28


 372              		.cfi_offset 14, -4
1175:Drivers/STM32H5xx_HAL_Driver/Src/stm32h5xx_hal_flash_ex.c ****   uint32_t optr_reg1_val = 0U;
 373              		.loc 1 1175 3 is_stmt 1 view .LVU85
 374              	.LVL17:
1176:Drivers/STM32H5xx_HAL_Driver/Src/stm32h5xx_hal_flash_ex.c ****   uint32_t optr_reg1_mask = 0U;
 375              		.loc 1 1176 3 view .LVU86
1177:Drivers/STM32H5xx_HAL_Driver/Src/stm32h5xx_hal_flash_ex.c ****   uint32_t optr_reg2_val = 0U;
 376              		.loc 1 1177 3 view .LVU87
1178:Drivers/STM32H5xx_HAL_Driver/Src/stm32h5xx_hal_flash_ex.c ****   uint32_t optr_reg2_mask = 0U;
 377              		.loc 1 1178 3 view .LVU88
1179:Drivers/STM32H5xx_HAL_Driver/Src/stm32h5xx_hal_flash_ex.c **** 
1180:Drivers/STM32H5xx_HAL_Driver/Src/stm32h5xx_hal_flash_ex.c ****   /* Check the parameters */
1181:Drivers/STM32H5xx_HAL_Driver/Src/stm32h5xx_hal_flash_ex.c ****   assert_param(IS_OB_USER_TYPE(UserType));
 378              		.loc 1 1181 3 view .LVU89
1182:Drivers/STM32H5xx_HAL_Driver/Src/stm32h5xx_hal_flash_ex.c **** 
1183:Drivers/STM32H5xx_HAL_Driver/Src/stm32h5xx_hal_flash_ex.c ****   if ((UserType & OB_USER_BOR_LEV) != 0U)
 379              		.loc 1 1183 3 view .LVU90
 380              		.loc 1 1183 6 is_stmt 0 view .LVU91
 381 0002 10F00103 		ands	r3, r0, #1
 382 0006 00F09E80 		beq	.L58
1184:Drivers/STM32H5xx_HAL_Driver/Src/stm32h5xx_hal_flash_ex.c ****   {
1185:Drivers/STM32H5xx_HAL_Driver/Src/stm32h5xx_hal_flash_ex.c ****     /* BOR level option byte should be modified */
1186:Drivers/STM32H5xx_HAL_Driver/Src/stm32h5xx_hal_flash_ex.c ****     assert_param(IS_OB_USER_BOR_LEVEL(UserConfig1 & FLASH_OPTSR_BOR_LEV));
 383              		.loc 1 1186 5 is_stmt 1 view .LVU92
1187:Drivers/STM32H5xx_HAL_Driver/Src/stm32h5xx_hal_flash_ex.c **** 
1188:Drivers/STM32H5xx_HAL_Driver/Src/stm32h5xx_hal_flash_ex.c ****     /* Set value and mask for BOR level option byte */
1189:Drivers/STM32H5xx_HAL_Driver/Src/stm32h5xx_hal_flash_ex.c ****     optr_reg1_val |= (UserConfig1 & FLASH_OPTSR_BOR_LEV);
 384              		.loc 1 1189 5 view .LVU93
 385              		.loc 1 1189 35 is_stmt 0 view .LVU94
 386 000a 01F00303 		and	r3, r1, #3
 387              	.LVL18:
1190:Drivers/STM32H5xx_HAL_Driver/Src/stm32h5xx_hal_flash_ex.c ****     optr_reg1_mask |= FLASH_OPTSR_BOR_LEV;
 388              		.loc 1 1190 5 is_stmt 1 view .LVU95
 389              		.loc 1 1190 20 is_stmt 0 view .LVU96
 390 000e 4FF0030C 		mov	ip, #3
 391              	.LVL19:
 392              	.L38:
1191:Drivers/STM32H5xx_HAL_Driver/Src/stm32h5xx_hal_flash_ex.c ****   }
1192:Drivers/STM32H5xx_HAL_Driver/Src/stm32h5xx_hal_flash_ex.c **** 
1193:Drivers/STM32H5xx_HAL_Driver/Src/stm32h5xx_hal_flash_ex.c ****   if ((UserType & OB_USER_BORH_EN) != 0U)
 393              		.loc 1 1193 3 is_stmt 1 view .LVU97
 394              		.loc 1 1193 6 is_stmt 0 view .LVU98
 395 0012 10F0020F 		tst	r0, #2
 396 0016 04D0     		beq	.L39
1194:Drivers/STM32H5xx_HAL_Driver/Src/stm32h5xx_hal_flash_ex.c ****   {
1195:Drivers/STM32H5xx_HAL_Driver/Src/stm32h5xx_hal_flash_ex.c ****     /* BOR high enable status bit should be modified */
1196:Drivers/STM32H5xx_HAL_Driver/Src/stm32h5xx_hal_flash_ex.c ****     assert_param(IS_OB_USER_BORH_EN(UserConfig1 & FLASH_OPTSR_BORH_EN));
 397              		.loc 1 1196 5 is_stmt 1 view .LVU99
1197:Drivers/STM32H5xx_HAL_Driver/Src/stm32h5xx_hal_flash_ex.c **** 
1198:Drivers/STM32H5xx_HAL_Driver/Src/stm32h5xx_hal_flash_ex.c ****     /* Set value and mask for BOR high enable status bit */
1199:Drivers/STM32H5xx_HAL_Driver/Src/stm32h5xx_hal_flash_ex.c ****     optr_reg1_val |= (UserConfig1 & FLASH_OPTSR_BORH_EN);
 398              		.loc 1 1199 5 view .LVU100
 399              		.loc 1 1199 35 is_stmt 0 view .LVU101
 400 0018 01F00404 		and	r4, r1, #4
 401              		.loc 1 1199 19 view .LVU102
 402 001c 2343     		orrs	r3, r3, r4
 403              	.LVL20:
ARM GAS  C:\Users\sapph\AppData\Local\Temp\ccb3riEs.s 			page 29


1200:Drivers/STM32H5xx_HAL_Driver/Src/stm32h5xx_hal_flash_ex.c ****     optr_reg1_mask |= FLASH_OPTSR_BORH_EN;
 404              		.loc 1 1200 5 is_stmt 1 view .LVU103
 405              		.loc 1 1200 20 is_stmt 0 view .LVU104
 406 001e 4CF0040C 		orr	ip, ip, #4
 407              	.LVL21:
 408              	.L39:
1201:Drivers/STM32H5xx_HAL_Driver/Src/stm32h5xx_hal_flash_ex.c ****   }
1202:Drivers/STM32H5xx_HAL_Driver/Src/stm32h5xx_hal_flash_ex.c **** 
1203:Drivers/STM32H5xx_HAL_Driver/Src/stm32h5xx_hal_flash_ex.c ****   if ((UserType & OB_USER_IWDG_SW) != 0U)
 409              		.loc 1 1203 3 is_stmt 1 view .LVU105
 410              		.loc 1 1203 6 is_stmt 0 view .LVU106
 411 0022 10F0040F 		tst	r0, #4
 412 0026 04D0     		beq	.L40
1204:Drivers/STM32H5xx_HAL_Driver/Src/stm32h5xx_hal_flash_ex.c ****   {
1205:Drivers/STM32H5xx_HAL_Driver/Src/stm32h5xx_hal_flash_ex.c ****     /* IWDG_SW option byte should be modified */
1206:Drivers/STM32H5xx_HAL_Driver/Src/stm32h5xx_hal_flash_ex.c ****     assert_param(IS_OB_USER_IWDG(UserConfig1 & FLASH_OPTSR_IWDG_SW));
 413              		.loc 1 1206 5 is_stmt 1 view .LVU107
1207:Drivers/STM32H5xx_HAL_Driver/Src/stm32h5xx_hal_flash_ex.c **** 
1208:Drivers/STM32H5xx_HAL_Driver/Src/stm32h5xx_hal_flash_ex.c ****     /* Set value and mask for IWDG_SW option byte */
1209:Drivers/STM32H5xx_HAL_Driver/Src/stm32h5xx_hal_flash_ex.c ****     optr_reg1_val |= (UserConfig1 & FLASH_OPTSR_IWDG_SW);
 414              		.loc 1 1209 5 view .LVU108
 415              		.loc 1 1209 35 is_stmt 0 view .LVU109
 416 0028 01F00804 		and	r4, r1, #8
 417              		.loc 1 1209 19 view .LVU110
 418 002c 2343     		orrs	r3, r3, r4
 419              	.LVL22:
1210:Drivers/STM32H5xx_HAL_Driver/Src/stm32h5xx_hal_flash_ex.c ****     optr_reg1_mask |= FLASH_OPTSR_IWDG_SW;
 420              		.loc 1 1210 5 is_stmt 1 view .LVU111
 421              		.loc 1 1210 20 is_stmt 0 view .LVU112
 422 002e 4CF0080C 		orr	ip, ip, #8
 423              	.LVL23:
 424              	.L40:
1211:Drivers/STM32H5xx_HAL_Driver/Src/stm32h5xx_hal_flash_ex.c ****   }
1212:Drivers/STM32H5xx_HAL_Driver/Src/stm32h5xx_hal_flash_ex.c **** 
1213:Drivers/STM32H5xx_HAL_Driver/Src/stm32h5xx_hal_flash_ex.c ****   if ((UserType & OB_USER_WWDG_SW) != 0U)
 425              		.loc 1 1213 3 is_stmt 1 view .LVU113
 426              		.loc 1 1213 6 is_stmt 0 view .LVU114
 427 0032 10F0080F 		tst	r0, #8
 428 0036 04D0     		beq	.L41
1214:Drivers/STM32H5xx_HAL_Driver/Src/stm32h5xx_hal_flash_ex.c ****   {
1215:Drivers/STM32H5xx_HAL_Driver/Src/stm32h5xx_hal_flash_ex.c ****     /* WWDG_SW option byte should be modified */
1216:Drivers/STM32H5xx_HAL_Driver/Src/stm32h5xx_hal_flash_ex.c ****     assert_param(IS_OB_USER_WWDG(UserConfig1 & FLASH_OPTSR_WWDG_SW));
 429              		.loc 1 1216 5 is_stmt 1 view .LVU115
1217:Drivers/STM32H5xx_HAL_Driver/Src/stm32h5xx_hal_flash_ex.c **** 
1218:Drivers/STM32H5xx_HAL_Driver/Src/stm32h5xx_hal_flash_ex.c ****     /* Set value and mask for WWDG_SW option byte */
1219:Drivers/STM32H5xx_HAL_Driver/Src/stm32h5xx_hal_flash_ex.c ****     optr_reg1_val |= (UserConfig1 & FLASH_OPTSR_WWDG_SW);
 430              		.loc 1 1219 5 view .LVU116
 431              		.loc 1 1219 35 is_stmt 0 view .LVU117
 432 0038 01F01004 		and	r4, r1, #16
 433              		.loc 1 1219 19 view .LVU118
 434 003c 2343     		orrs	r3, r3, r4
 435              	.LVL24:
1220:Drivers/STM32H5xx_HAL_Driver/Src/stm32h5xx_hal_flash_ex.c ****     optr_reg1_mask |= FLASH_OPTSR_WWDG_SW;
 436              		.loc 1 1220 5 is_stmt 1 view .LVU119
 437              		.loc 1 1220 20 is_stmt 0 view .LVU120
 438 003e 4CF0100C 		orr	ip, ip, #16
 439              	.LVL25:
ARM GAS  C:\Users\sapph\AppData\Local\Temp\ccb3riEs.s 			page 30


 440              	.L41:
1221:Drivers/STM32H5xx_HAL_Driver/Src/stm32h5xx_hal_flash_ex.c ****   }
1222:Drivers/STM32H5xx_HAL_Driver/Src/stm32h5xx_hal_flash_ex.c **** 
1223:Drivers/STM32H5xx_HAL_Driver/Src/stm32h5xx_hal_flash_ex.c ****   if ((UserType & OB_USER_NRST_STOP) != 0U)
 441              		.loc 1 1223 3 is_stmt 1 view .LVU121
 442              		.loc 1 1223 6 is_stmt 0 view .LVU122
 443 0042 10F0100F 		tst	r0, #16
 444 0046 04D0     		beq	.L42
1224:Drivers/STM32H5xx_HAL_Driver/Src/stm32h5xx_hal_flash_ex.c ****   {
1225:Drivers/STM32H5xx_HAL_Driver/Src/stm32h5xx_hal_flash_ex.c ****     /* nRST_STOP option byte should be modified */
1226:Drivers/STM32H5xx_HAL_Driver/Src/stm32h5xx_hal_flash_ex.c ****     assert_param(IS_OB_USER_STOP(UserConfig1 & FLASH_OPTSR_NRST_STOP));
 445              		.loc 1 1226 5 is_stmt 1 view .LVU123
1227:Drivers/STM32H5xx_HAL_Driver/Src/stm32h5xx_hal_flash_ex.c **** 
1228:Drivers/STM32H5xx_HAL_Driver/Src/stm32h5xx_hal_flash_ex.c ****     /* Set value and mask for nRST_STOP option byte */
1229:Drivers/STM32H5xx_HAL_Driver/Src/stm32h5xx_hal_flash_ex.c ****     optr_reg1_val |= (UserConfig1 & FLASH_OPTSR_NRST_STOP);
 446              		.loc 1 1229 5 view .LVU124
 447              		.loc 1 1229 35 is_stmt 0 view .LVU125
 448 0048 01F04004 		and	r4, r1, #64
 449              		.loc 1 1229 19 view .LVU126
 450 004c 2343     		orrs	r3, r3, r4
 451              	.LVL26:
1230:Drivers/STM32H5xx_HAL_Driver/Src/stm32h5xx_hal_flash_ex.c ****     optr_reg1_mask |= FLASH_OPTSR_NRST_STOP;
 452              		.loc 1 1230 5 is_stmt 1 view .LVU127
 453              		.loc 1 1230 20 is_stmt 0 view .LVU128
 454 004e 4CF0400C 		orr	ip, ip, #64
 455              	.LVL27:
 456              	.L42:
1231:Drivers/STM32H5xx_HAL_Driver/Src/stm32h5xx_hal_flash_ex.c ****   }
1232:Drivers/STM32H5xx_HAL_Driver/Src/stm32h5xx_hal_flash_ex.c **** 
1233:Drivers/STM32H5xx_HAL_Driver/Src/stm32h5xx_hal_flash_ex.c ****   if ((UserType & OB_USER_NRST_STDBY) != 0U)
 457              		.loc 1 1233 3 is_stmt 1 view .LVU129
 458              		.loc 1 1233 6 is_stmt 0 view .LVU130
 459 0052 10F0200F 		tst	r0, #32
 460 0056 04D0     		beq	.L43
1234:Drivers/STM32H5xx_HAL_Driver/Src/stm32h5xx_hal_flash_ex.c ****   {
1235:Drivers/STM32H5xx_HAL_Driver/Src/stm32h5xx_hal_flash_ex.c ****     /* nRST_STDBY option byte should be modified */
1236:Drivers/STM32H5xx_HAL_Driver/Src/stm32h5xx_hal_flash_ex.c ****     assert_param(IS_OB_USER_STANDBY(UserConfig1 & FLASH_OPTSR_NRST_STDBY));
 461              		.loc 1 1236 5 is_stmt 1 view .LVU131
1237:Drivers/STM32H5xx_HAL_Driver/Src/stm32h5xx_hal_flash_ex.c **** 
1238:Drivers/STM32H5xx_HAL_Driver/Src/stm32h5xx_hal_flash_ex.c ****     /* Set value and mask for nRST_STDBY option byte */
1239:Drivers/STM32H5xx_HAL_Driver/Src/stm32h5xx_hal_flash_ex.c ****     optr_reg1_val |= (UserConfig1 & FLASH_OPTSR_NRST_STDBY);
 462              		.loc 1 1239 5 view .LVU132
 463              		.loc 1 1239 35 is_stmt 0 view .LVU133
 464 0058 01F08004 		and	r4, r1, #128
 465              		.loc 1 1239 19 view .LVU134
 466 005c 2343     		orrs	r3, r3, r4
 467              	.LVL28:
1240:Drivers/STM32H5xx_HAL_Driver/Src/stm32h5xx_hal_flash_ex.c ****     optr_reg1_mask |= FLASH_OPTSR_NRST_STDBY;
 468              		.loc 1 1240 5 is_stmt 1 view .LVU135
 469              		.loc 1 1240 20 is_stmt 0 view .LVU136
 470 005e 4CF0800C 		orr	ip, ip, #128
 471              	.LVL29:
 472              	.L43:
1241:Drivers/STM32H5xx_HAL_Driver/Src/stm32h5xx_hal_flash_ex.c ****   }
1242:Drivers/STM32H5xx_HAL_Driver/Src/stm32h5xx_hal_flash_ex.c **** 
1243:Drivers/STM32H5xx_HAL_Driver/Src/stm32h5xx_hal_flash_ex.c ****   if ((UserType & OB_USER_IO_VDD_HSLV) != 0U)
 473              		.loc 1 1243 3 is_stmt 1 view .LVU137
ARM GAS  C:\Users\sapph\AppData\Local\Temp\ccb3riEs.s 			page 31


 474              		.loc 1 1243 6 is_stmt 0 view .LVU138
 475 0062 10F0400F 		tst	r0, #64
 476 0066 04D0     		beq	.L44
1244:Drivers/STM32H5xx_HAL_Driver/Src/stm32h5xx_hal_flash_ex.c ****   {
1245:Drivers/STM32H5xx_HAL_Driver/Src/stm32h5xx_hal_flash_ex.c ****     /* IO_VDD_HSLV option byte should be modified */
1246:Drivers/STM32H5xx_HAL_Driver/Src/stm32h5xx_hal_flash_ex.c ****     assert_param(IS_OB_USER_IO_VDD_HSLV(UserConfig1 & FLASH_OPTSR_IO_VDD_HSLV));
 477              		.loc 1 1246 5 is_stmt 1 view .LVU139
1247:Drivers/STM32H5xx_HAL_Driver/Src/stm32h5xx_hal_flash_ex.c **** 
1248:Drivers/STM32H5xx_HAL_Driver/Src/stm32h5xx_hal_flash_ex.c ****     /* Set value and mask for IO_VDD_HSLV option byte */
1249:Drivers/STM32H5xx_HAL_Driver/Src/stm32h5xx_hal_flash_ex.c ****     optr_reg1_val |= (UserConfig1 & FLASH_OPTSR_IO_VDD_HSLV);
 478              		.loc 1 1249 5 view .LVU140
 479              		.loc 1 1249 35 is_stmt 0 view .LVU141
 480 0068 01F48034 		and	r4, r1, #65536
 481              		.loc 1 1249 19 view .LVU142
 482 006c 2343     		orrs	r3, r3, r4
 483              	.LVL30:
1250:Drivers/STM32H5xx_HAL_Driver/Src/stm32h5xx_hal_flash_ex.c ****     optr_reg1_mask |= FLASH_OPTSR_IO_VDD_HSLV;
 484              		.loc 1 1250 5 is_stmt 1 view .LVU143
 485              		.loc 1 1250 20 is_stmt 0 view .LVU144
 486 006e 4CF4803C 		orr	ip, ip, #65536
 487              	.LVL31:
 488              	.L44:
1251:Drivers/STM32H5xx_HAL_Driver/Src/stm32h5xx_hal_flash_ex.c ****   }
1252:Drivers/STM32H5xx_HAL_Driver/Src/stm32h5xx_hal_flash_ex.c **** 
1253:Drivers/STM32H5xx_HAL_Driver/Src/stm32h5xx_hal_flash_ex.c ****   if ((UserType & OB_USER_IO_VDDIO2_HSLV) != 0U)
 489              		.loc 1 1253 3 is_stmt 1 view .LVU145
 490              		.loc 1 1253 6 is_stmt 0 view .LVU146
 491 0072 10F0800F 		tst	r0, #128
 492 0076 04D0     		beq	.L45
1254:Drivers/STM32H5xx_HAL_Driver/Src/stm32h5xx_hal_flash_ex.c ****   {
1255:Drivers/STM32H5xx_HAL_Driver/Src/stm32h5xx_hal_flash_ex.c ****     /* IO_VDD_HSLV option byte should be modified */
1256:Drivers/STM32H5xx_HAL_Driver/Src/stm32h5xx_hal_flash_ex.c ****     assert_param(IS_OB_USER_IO_VDDIO2_HSLV(UserConfig1 & FLASH_OPTSR_IO_VDDIO2_HSLV));
 493              		.loc 1 1256 5 is_stmt 1 view .LVU147
1257:Drivers/STM32H5xx_HAL_Driver/Src/stm32h5xx_hal_flash_ex.c **** 
1258:Drivers/STM32H5xx_HAL_Driver/Src/stm32h5xx_hal_flash_ex.c ****     /* Set value and mask for IO_VDD_HSLV option byte */
1259:Drivers/STM32H5xx_HAL_Driver/Src/stm32h5xx_hal_flash_ex.c ****     optr_reg1_val |= (UserConfig1 & FLASH_OPTSR_IO_VDDIO2_HSLV);
 494              		.loc 1 1259 5 view .LVU148
 495              		.loc 1 1259 35 is_stmt 0 view .LVU149
 496 0078 01F40034 		and	r4, r1, #131072
 497              		.loc 1 1259 19 view .LVU150
 498 007c 2343     		orrs	r3, r3, r4
 499              	.LVL32:
1260:Drivers/STM32H5xx_HAL_Driver/Src/stm32h5xx_hal_flash_ex.c ****     optr_reg1_mask |= FLASH_OPTSR_IO_VDDIO2_HSLV;
 500              		.loc 1 1260 5 is_stmt 1 view .LVU151
 501              		.loc 1 1260 20 is_stmt 0 view .LVU152
 502 007e 4CF4003C 		orr	ip, ip, #131072
 503              	.LVL33:
 504              	.L45:
1261:Drivers/STM32H5xx_HAL_Driver/Src/stm32h5xx_hal_flash_ex.c ****   }
1262:Drivers/STM32H5xx_HAL_Driver/Src/stm32h5xx_hal_flash_ex.c **** 
1263:Drivers/STM32H5xx_HAL_Driver/Src/stm32h5xx_hal_flash_ex.c ****   if ((UserType & OB_USER_IWDG_STOP) != 0U)
 505              		.loc 1 1263 3 is_stmt 1 view .LVU153
 506              		.loc 1 1263 6 is_stmt 0 view .LVU154
 507 0082 10F4807F 		tst	r0, #256
 508 0086 04D0     		beq	.L46
1264:Drivers/STM32H5xx_HAL_Driver/Src/stm32h5xx_hal_flash_ex.c ****   {
1265:Drivers/STM32H5xx_HAL_Driver/Src/stm32h5xx_hal_flash_ex.c ****     /* IWDG_STOP option byte should be modified */
ARM GAS  C:\Users\sapph\AppData\Local\Temp\ccb3riEs.s 			page 32


1266:Drivers/STM32H5xx_HAL_Driver/Src/stm32h5xx_hal_flash_ex.c ****     assert_param(IS_OB_USER_IWDG_STOP(UserConfig1 & FLASH_OPTSR_IWDG_STOP));
 509              		.loc 1 1266 5 is_stmt 1 view .LVU155
1267:Drivers/STM32H5xx_HAL_Driver/Src/stm32h5xx_hal_flash_ex.c **** 
1268:Drivers/STM32H5xx_HAL_Driver/Src/stm32h5xx_hal_flash_ex.c ****     /* Set value and mask for IWDG_STOP option byte */
1269:Drivers/STM32H5xx_HAL_Driver/Src/stm32h5xx_hal_flash_ex.c ****     optr_reg1_val |= (UserConfig1 & FLASH_OPTSR_IWDG_STOP);
 510              		.loc 1 1269 5 view .LVU156
 511              		.loc 1 1269 35 is_stmt 0 view .LVU157
 512 0088 01F48014 		and	r4, r1, #1048576
 513              		.loc 1 1269 19 view .LVU158
 514 008c 2343     		orrs	r3, r3, r4
 515              	.LVL34:
1270:Drivers/STM32H5xx_HAL_Driver/Src/stm32h5xx_hal_flash_ex.c ****     optr_reg1_mask |= FLASH_OPTSR_IWDG_STOP;
 516              		.loc 1 1270 5 is_stmt 1 view .LVU159
 517              		.loc 1 1270 20 is_stmt 0 view .LVU160
 518 008e 4CF4801C 		orr	ip, ip, #1048576
 519              	.LVL35:
 520              	.L46:
1271:Drivers/STM32H5xx_HAL_Driver/Src/stm32h5xx_hal_flash_ex.c ****   }
1272:Drivers/STM32H5xx_HAL_Driver/Src/stm32h5xx_hal_flash_ex.c **** 
1273:Drivers/STM32H5xx_HAL_Driver/Src/stm32h5xx_hal_flash_ex.c ****   if ((UserType & OB_USER_IWDG_STDBY) != 0U)
 521              		.loc 1 1273 3 is_stmt 1 view .LVU161
 522              		.loc 1 1273 6 is_stmt 0 view .LVU162
 523 0092 10F4007F 		tst	r0, #512
 524 0096 04D0     		beq	.L47
1274:Drivers/STM32H5xx_HAL_Driver/Src/stm32h5xx_hal_flash_ex.c ****   {
1275:Drivers/STM32H5xx_HAL_Driver/Src/stm32h5xx_hal_flash_ex.c ****     /* IWDG_STDBY option byte should be modified */
1276:Drivers/STM32H5xx_HAL_Driver/Src/stm32h5xx_hal_flash_ex.c ****     assert_param(IS_OB_USER_IWDG_STDBY(UserConfig1 & FLASH_OPTSR_IWDG_STDBY));
 525              		.loc 1 1276 5 is_stmt 1 view .LVU163
1277:Drivers/STM32H5xx_HAL_Driver/Src/stm32h5xx_hal_flash_ex.c **** 
1278:Drivers/STM32H5xx_HAL_Driver/Src/stm32h5xx_hal_flash_ex.c ****     /* Set value and mask for IWDG_STDBY option byte */
1279:Drivers/STM32H5xx_HAL_Driver/Src/stm32h5xx_hal_flash_ex.c ****     optr_reg1_val |= (UserConfig1 & FLASH_OPTSR_IWDG_STDBY);
 526              		.loc 1 1279 5 view .LVU164
 527              		.loc 1 1279 35 is_stmt 0 view .LVU165
 528 0098 01F40014 		and	r4, r1, #2097152
 529              		.loc 1 1279 19 view .LVU166
 530 009c 2343     		orrs	r3, r3, r4
 531              	.LVL36:
1280:Drivers/STM32H5xx_HAL_Driver/Src/stm32h5xx_hal_flash_ex.c ****     optr_reg1_mask |= FLASH_OPTSR_IWDG_STDBY;
 532              		.loc 1 1280 5 is_stmt 1 view .LVU167
 533              		.loc 1 1280 20 is_stmt 0 view .LVU168
 534 009e 4CF4001C 		orr	ip, ip, #2097152
 535              	.LVL37:
 536              	.L47:
1281:Drivers/STM32H5xx_HAL_Driver/Src/stm32h5xx_hal_flash_ex.c ****   }
1282:Drivers/STM32H5xx_HAL_Driver/Src/stm32h5xx_hal_flash_ex.c **** 
1283:Drivers/STM32H5xx_HAL_Driver/Src/stm32h5xx_hal_flash_ex.c **** #if defined (FLASH_OPTSR_BOOT_UBE)
1284:Drivers/STM32H5xx_HAL_Driver/Src/stm32h5xx_hal_flash_ex.c ****   if ((UserType & OB_USER_BOOT_UBE) != 0U)
 537              		.loc 1 1284 3 is_stmt 1 view .LVU169
 538              		.loc 1 1284 6 is_stmt 0 view .LVU170
 539 00a2 10F4806F 		tst	r0, #1024
 540 00a6 04D0     		beq	.L48
1285:Drivers/STM32H5xx_HAL_Driver/Src/stm32h5xx_hal_flash_ex.c ****   {
1286:Drivers/STM32H5xx_HAL_Driver/Src/stm32h5xx_hal_flash_ex.c ****     /* SWAP_BANK option byte should be modified */
1287:Drivers/STM32H5xx_HAL_Driver/Src/stm32h5xx_hal_flash_ex.c ****     assert_param(IS_OB_USER_BOOT_UBE(UserConfig1 & FLASH_OPTSR_BOOT_UBE));
 541              		.loc 1 1287 5 is_stmt 1 view .LVU171
1288:Drivers/STM32H5xx_HAL_Driver/Src/stm32h5xx_hal_flash_ex.c **** 
1289:Drivers/STM32H5xx_HAL_Driver/Src/stm32h5xx_hal_flash_ex.c ****     /* Set value and mask for BOOT_UBE option byte */
ARM GAS  C:\Users\sapph\AppData\Local\Temp\ccb3riEs.s 			page 33


1290:Drivers/STM32H5xx_HAL_Driver/Src/stm32h5xx_hal_flash_ex.c ****     optr_reg1_val |= (UserConfig1 & FLASH_OPTSR_BOOT_UBE);
 542              		.loc 1 1290 5 view .LVU172
 543              		.loc 1 1290 35 is_stmt 0 view .LVU173
 544 00a8 01F07F54 		and	r4, r1, #1069547520
 545              		.loc 1 1290 19 view .LVU174
 546 00ac 2343     		orrs	r3, r3, r4
 547              	.LVL38:
1291:Drivers/STM32H5xx_HAL_Driver/Src/stm32h5xx_hal_flash_ex.c ****     optr_reg1_mask |= FLASH_OPTSR_BOOT_UBE;
 548              		.loc 1 1291 5 is_stmt 1 view .LVU175
 549              		.loc 1 1291 20 is_stmt 0 view .LVU176
 550 00ae 4CF07F5C 		orr	ip, ip, #1069547520
 551              	.LVL39:
 552              	.L48:
1292:Drivers/STM32H5xx_HAL_Driver/Src/stm32h5xx_hal_flash_ex.c ****   }
1293:Drivers/STM32H5xx_HAL_Driver/Src/stm32h5xx_hal_flash_ex.c **** #endif /* FLASH_OPTSR_BOOT_UBE */
1294:Drivers/STM32H5xx_HAL_Driver/Src/stm32h5xx_hal_flash_ex.c **** 
1295:Drivers/STM32H5xx_HAL_Driver/Src/stm32h5xx_hal_flash_ex.c ****   if ((UserType & OB_USER_SWAP_BANK) != 0U)
 553              		.loc 1 1295 3 is_stmt 1 view .LVU177
 554              		.loc 1 1295 6 is_stmt 0 view .LVU178
 555 00b2 10F4006F 		tst	r0, #2048
 556 00b6 04D0     		beq	.L49
1296:Drivers/STM32H5xx_HAL_Driver/Src/stm32h5xx_hal_flash_ex.c ****   {
1297:Drivers/STM32H5xx_HAL_Driver/Src/stm32h5xx_hal_flash_ex.c ****     /* SWAP_BANK option byte should be modified */
1298:Drivers/STM32H5xx_HAL_Driver/Src/stm32h5xx_hal_flash_ex.c ****     assert_param(IS_OB_USER_SWAP_BANK(UserConfig1 & FLASH_OPTSR_SWAP_BANK));
 557              		.loc 1 1298 5 is_stmt 1 view .LVU179
1299:Drivers/STM32H5xx_HAL_Driver/Src/stm32h5xx_hal_flash_ex.c **** 
1300:Drivers/STM32H5xx_HAL_Driver/Src/stm32h5xx_hal_flash_ex.c ****     /* Set value and mask for SWAP_BANK option byte */
1301:Drivers/STM32H5xx_HAL_Driver/Src/stm32h5xx_hal_flash_ex.c ****     optr_reg1_val |= (UserConfig1 & FLASH_OPTSR_SWAP_BANK);
 558              		.loc 1 1301 5 view .LVU180
 559              		.loc 1 1301 35 is_stmt 0 view .LVU181
 560 00b8 01F00041 		and	r1, r1, #-2147483648
 561              	.LVL40:
 562              		.loc 1 1301 19 view .LVU182
 563 00bc 0B43     		orrs	r3, r3, r1
 564              	.LVL41:
1302:Drivers/STM32H5xx_HAL_Driver/Src/stm32h5xx_hal_flash_ex.c ****     optr_reg1_mask |= FLASH_OPTSR_SWAP_BANK;
 565              		.loc 1 1302 5 is_stmt 1 view .LVU183
 566              		.loc 1 1302 20 is_stmt 0 view .LVU184
 567 00be 4CF0004C 		orr	ip, ip, #-2147483648
 568              	.LVL42:
 569              	.L49:
1303:Drivers/STM32H5xx_HAL_Driver/Src/stm32h5xx_hal_flash_ex.c ****   }
1304:Drivers/STM32H5xx_HAL_Driver/Src/stm32h5xx_hal_flash_ex.c **** 
1305:Drivers/STM32H5xx_HAL_Driver/Src/stm32h5xx_hal_flash_ex.c **** #if defined (FLASH_OPTSR2_SRAM1_3_RST)
1306:Drivers/STM32H5xx_HAL_Driver/Src/stm32h5xx_hal_flash_ex.c ****   if ((UserType & OB_USER_SRAM1_3_RST) != 0U)
 570              		.loc 1 1306 3 is_stmt 1 view .LVU185
 571              		.loc 1 1306 6 is_stmt 0 view .LVU186
 572 00c2 10F48051 		ands	r1, r0, #4096
 573 00c6 40D0     		beq	.L59
1307:Drivers/STM32H5xx_HAL_Driver/Src/stm32h5xx_hal_flash_ex.c ****   {
1308:Drivers/STM32H5xx_HAL_Driver/Src/stm32h5xx_hal_flash_ex.c ****     /* SRAM13_RST option byte should be modified */
1309:Drivers/STM32H5xx_HAL_Driver/Src/stm32h5xx_hal_flash_ex.c ****     assert_param(IS_OB_USER_SRAM1_3_RST(UserConfig2 & FLASH_OPTSR2_SRAM1_3_RST));
 574              		.loc 1 1309 5 is_stmt 1 view .LVU187
1310:Drivers/STM32H5xx_HAL_Driver/Src/stm32h5xx_hal_flash_ex.c **** 
1311:Drivers/STM32H5xx_HAL_Driver/Src/stm32h5xx_hal_flash_ex.c ****     /* Set value and mask for SRAM13_RST option byte */
1312:Drivers/STM32H5xx_HAL_Driver/Src/stm32h5xx_hal_flash_ex.c ****     optr_reg2_val |= (UserConfig2 & FLASH_OPTSR2_SRAM1_3_RST);
 575              		.loc 1 1312 5 view .LVU188
ARM GAS  C:\Users\sapph\AppData\Local\Temp\ccb3riEs.s 			page 34


 576              		.loc 1 1312 35 is_stmt 0 view .LVU189
 577 00c8 02F00401 		and	r1, r2, #4
 578              	.LVL43:
1313:Drivers/STM32H5xx_HAL_Driver/Src/stm32h5xx_hal_flash_ex.c ****     optr_reg2_mask |= FLASH_OPTSR2_SRAM1_3_RST;
 579              		.loc 1 1313 5 is_stmt 1 view .LVU190
 580              		.loc 1 1313 20 is_stmt 0 view .LVU191
 581 00cc 4FF0040E 		mov	lr, #4
 582              	.LVL44:
 583              	.L50:
1314:Drivers/STM32H5xx_HAL_Driver/Src/stm32h5xx_hal_flash_ex.c ****   }
1315:Drivers/STM32H5xx_HAL_Driver/Src/stm32h5xx_hal_flash_ex.c **** #endif /* FLASH_OPTSR2_SRAM1_3_RST */
1316:Drivers/STM32H5xx_HAL_Driver/Src/stm32h5xx_hal_flash_ex.c **** 
1317:Drivers/STM32H5xx_HAL_Driver/Src/stm32h5xx_hal_flash_ex.c **** #if defined (FLASH_OPTSR2_SRAM1_RST)
1318:Drivers/STM32H5xx_HAL_Driver/Src/stm32h5xx_hal_flash_ex.c ****   if ((UserType & OB_USER_SRAM1_RST) != 0U)
1319:Drivers/STM32H5xx_HAL_Driver/Src/stm32h5xx_hal_flash_ex.c ****   {
1320:Drivers/STM32H5xx_HAL_Driver/Src/stm32h5xx_hal_flash_ex.c ****     /* SRAM1_RST option byte should be modified */
1321:Drivers/STM32H5xx_HAL_Driver/Src/stm32h5xx_hal_flash_ex.c ****     assert_param(IS_OB_USER_SRAM1_RST(UserConfig2 & FLASH_OPTSR2_SRAM1_RST));
1322:Drivers/STM32H5xx_HAL_Driver/Src/stm32h5xx_hal_flash_ex.c **** 
1323:Drivers/STM32H5xx_HAL_Driver/Src/stm32h5xx_hal_flash_ex.c ****     /* Set value and mask for SRAM1_RST option byte */
1324:Drivers/STM32H5xx_HAL_Driver/Src/stm32h5xx_hal_flash_ex.c ****     optr_reg2_val |= (UserConfig2 & FLASH_OPTSR2_SRAM1_RST);
1325:Drivers/STM32H5xx_HAL_Driver/Src/stm32h5xx_hal_flash_ex.c ****     optr_reg2_mask |= FLASH_OPTSR2_SRAM1_RST;
1326:Drivers/STM32H5xx_HAL_Driver/Src/stm32h5xx_hal_flash_ex.c ****   }
1327:Drivers/STM32H5xx_HAL_Driver/Src/stm32h5xx_hal_flash_ex.c **** #endif /* FLASH_OPTSR2_SRAM1_RST */
1328:Drivers/STM32H5xx_HAL_Driver/Src/stm32h5xx_hal_flash_ex.c **** 
1329:Drivers/STM32H5xx_HAL_Driver/Src/stm32h5xx_hal_flash_ex.c ****   if ((UserType & OB_USER_SRAM2_RST) != 0U)
 584              		.loc 1 1329 3 is_stmt 1 view .LVU192
 585              		.loc 1 1329 6 is_stmt 0 view .LVU193
 586 00d0 10F4005F 		tst	r0, #8192
 587 00d4 04D0     		beq	.L51
1330:Drivers/STM32H5xx_HAL_Driver/Src/stm32h5xx_hal_flash_ex.c ****   {
1331:Drivers/STM32H5xx_HAL_Driver/Src/stm32h5xx_hal_flash_ex.c ****     /* SRAM2_RST option byte should be modified */
1332:Drivers/STM32H5xx_HAL_Driver/Src/stm32h5xx_hal_flash_ex.c ****     assert_param(IS_OB_USER_SRAM2_RST(UserConfig2 & FLASH_OPTSR2_SRAM2_RST));
 588              		.loc 1 1332 5 is_stmt 1 view .LVU194
1333:Drivers/STM32H5xx_HAL_Driver/Src/stm32h5xx_hal_flash_ex.c **** 
1334:Drivers/STM32H5xx_HAL_Driver/Src/stm32h5xx_hal_flash_ex.c ****     /* Set value and mask for SRAM2_RST option byte */
1335:Drivers/STM32H5xx_HAL_Driver/Src/stm32h5xx_hal_flash_ex.c ****     optr_reg2_val |= (UserConfig2 & FLASH_OPTSR2_SRAM2_RST);
 589              		.loc 1 1335 5 view .LVU195
 590              		.loc 1 1335 35 is_stmt 0 view .LVU196
 591 00d6 02F00804 		and	r4, r2, #8
 592              		.loc 1 1335 19 view .LVU197
 593 00da 2143     		orrs	r1, r1, r4
 594              	.LVL45:
1336:Drivers/STM32H5xx_HAL_Driver/Src/stm32h5xx_hal_flash_ex.c ****     optr_reg2_mask |= FLASH_OPTSR2_SRAM2_RST;
 595              		.loc 1 1336 5 is_stmt 1 view .LVU198
 596              		.loc 1 1336 20 is_stmt 0 view .LVU199
 597 00dc 4EF0080E 		orr	lr, lr, #8
 598              	.LVL46:
 599              	.L51:
1337:Drivers/STM32H5xx_HAL_Driver/Src/stm32h5xx_hal_flash_ex.c ****   }
1338:Drivers/STM32H5xx_HAL_Driver/Src/stm32h5xx_hal_flash_ex.c **** 
1339:Drivers/STM32H5xx_HAL_Driver/Src/stm32h5xx_hal_flash_ex.c ****   if ((UserType & OB_USER_BKPRAM_ECC) != 0U)
 600              		.loc 1 1339 3 is_stmt 1 view .LVU200
 601              		.loc 1 1339 6 is_stmt 0 view .LVU201
 602 00e0 10F4804F 		tst	r0, #16384
 603 00e4 04D0     		beq	.L52
1340:Drivers/STM32H5xx_HAL_Driver/Src/stm32h5xx_hal_flash_ex.c ****   {
1341:Drivers/STM32H5xx_HAL_Driver/Src/stm32h5xx_hal_flash_ex.c ****     /* BKPRAM_ECC option byte should be modified */
ARM GAS  C:\Users\sapph\AppData\Local\Temp\ccb3riEs.s 			page 35


1342:Drivers/STM32H5xx_HAL_Driver/Src/stm32h5xx_hal_flash_ex.c ****     assert_param(IS_OB_USER_BKPRAM_ECC(UserConfig2 & FLASH_OPTSR2_BKPRAM_ECC));
 604              		.loc 1 1342 5 is_stmt 1 view .LVU202
1343:Drivers/STM32H5xx_HAL_Driver/Src/stm32h5xx_hal_flash_ex.c **** 
1344:Drivers/STM32H5xx_HAL_Driver/Src/stm32h5xx_hal_flash_ex.c ****     /* Set value and mask for BKPRAM_ECC option byte */
1345:Drivers/STM32H5xx_HAL_Driver/Src/stm32h5xx_hal_flash_ex.c ****     optr_reg2_val |= (UserConfig2 & FLASH_OPTSR2_BKPRAM_ECC);
 605              		.loc 1 1345 5 view .LVU203
 606              		.loc 1 1345 35 is_stmt 0 view .LVU204
 607 00e6 02F01004 		and	r4, r2, #16
 608              		.loc 1 1345 19 view .LVU205
 609 00ea 2143     		orrs	r1, r1, r4
 610              	.LVL47:
1346:Drivers/STM32H5xx_HAL_Driver/Src/stm32h5xx_hal_flash_ex.c ****     optr_reg2_mask |= FLASH_OPTSR2_BKPRAM_ECC;
 611              		.loc 1 1346 5 is_stmt 1 view .LVU206
 612              		.loc 1 1346 20 is_stmt 0 view .LVU207
 613 00ec 4EF0100E 		orr	lr, lr, #16
 614              	.LVL48:
 615              	.L52:
1347:Drivers/STM32H5xx_HAL_Driver/Src/stm32h5xx_hal_flash_ex.c ****   }
1348:Drivers/STM32H5xx_HAL_Driver/Src/stm32h5xx_hal_flash_ex.c **** 
1349:Drivers/STM32H5xx_HAL_Driver/Src/stm32h5xx_hal_flash_ex.c **** #if defined (FLASH_OPTSR2_SRAM3_ECC)
1350:Drivers/STM32H5xx_HAL_Driver/Src/stm32h5xx_hal_flash_ex.c ****   if ((UserType & OB_USER_SRAM3_ECC) != 0U)
1351:Drivers/STM32H5xx_HAL_Driver/Src/stm32h5xx_hal_flash_ex.c ****   {
1352:Drivers/STM32H5xx_HAL_Driver/Src/stm32h5xx_hal_flash_ex.c ****     /* SRAM3_ECC option byte should be modified */
1353:Drivers/STM32H5xx_HAL_Driver/Src/stm32h5xx_hal_flash_ex.c ****     assert_param(IS_OB_USER_SRAM3_ECC(UserConfig2 & FLASH_OPTSR2_SRAM3_ECC));
1354:Drivers/STM32H5xx_HAL_Driver/Src/stm32h5xx_hal_flash_ex.c **** 
1355:Drivers/STM32H5xx_HAL_Driver/Src/stm32h5xx_hal_flash_ex.c ****     /* Set value and mask for SRAM3_ECC option byte */
1356:Drivers/STM32H5xx_HAL_Driver/Src/stm32h5xx_hal_flash_ex.c ****     optr_reg2_val |= (UserConfig2 & FLASH_OPTSR2_SRAM3_ECC);
1357:Drivers/STM32H5xx_HAL_Driver/Src/stm32h5xx_hal_flash_ex.c ****     optr_reg2_mask |= FLASH_OPTSR2_SRAM3_ECC;
1358:Drivers/STM32H5xx_HAL_Driver/Src/stm32h5xx_hal_flash_ex.c ****   }
1359:Drivers/STM32H5xx_HAL_Driver/Src/stm32h5xx_hal_flash_ex.c **** #endif /* FLASH_OPTSR2_SRAM3_ECC */
1360:Drivers/STM32H5xx_HAL_Driver/Src/stm32h5xx_hal_flash_ex.c **** 
1361:Drivers/STM32H5xx_HAL_Driver/Src/stm32h5xx_hal_flash_ex.c ****   if ((UserType & OB_USER_SRAM2_ECC) != 0U)
 616              		.loc 1 1361 3 is_stmt 1 view .LVU208
 617              		.loc 1 1361 6 is_stmt 0 view .LVU209
 618 00f0 10F4803F 		tst	r0, #65536
 619 00f4 04D0     		beq	.L53
1362:Drivers/STM32H5xx_HAL_Driver/Src/stm32h5xx_hal_flash_ex.c ****   {
1363:Drivers/STM32H5xx_HAL_Driver/Src/stm32h5xx_hal_flash_ex.c ****     /* SRAM2_ECC option byte should be modified */
1364:Drivers/STM32H5xx_HAL_Driver/Src/stm32h5xx_hal_flash_ex.c ****     assert_param(IS_OB_USER_SRAM2_ECC(UserConfig2 & FLASH_OPTSR2_SRAM2_ECC));
 620              		.loc 1 1364 5 is_stmt 1 view .LVU210
1365:Drivers/STM32H5xx_HAL_Driver/Src/stm32h5xx_hal_flash_ex.c **** 
1366:Drivers/STM32H5xx_HAL_Driver/Src/stm32h5xx_hal_flash_ex.c ****     /* Set value and mask for SRAM2_ECC option byte */
1367:Drivers/STM32H5xx_HAL_Driver/Src/stm32h5xx_hal_flash_ex.c ****     optr_reg2_val |= (UserConfig2 & FLASH_OPTSR2_SRAM2_ECC);
 621              		.loc 1 1367 5 view .LVU211
 622              		.loc 1 1367 35 is_stmt 0 view .LVU212
 623 00f6 02F04004 		and	r4, r2, #64
 624              		.loc 1 1367 19 view .LVU213
 625 00fa 2143     		orrs	r1, r1, r4
 626              	.LVL49:
1368:Drivers/STM32H5xx_HAL_Driver/Src/stm32h5xx_hal_flash_ex.c ****     optr_reg2_mask |= FLASH_OPTSR2_SRAM2_ECC;
 627              		.loc 1 1368 5 is_stmt 1 view .LVU214
 628              		.loc 1 1368 20 is_stmt 0 view .LVU215
 629 00fc 4EF0400E 		orr	lr, lr, #64
 630              	.LVL50:
 631              	.L53:
1369:Drivers/STM32H5xx_HAL_Driver/Src/stm32h5xx_hal_flash_ex.c ****   }
1370:Drivers/STM32H5xx_HAL_Driver/Src/stm32h5xx_hal_flash_ex.c **** 
ARM GAS  C:\Users\sapph\AppData\Local\Temp\ccb3riEs.s 			page 36


1371:Drivers/STM32H5xx_HAL_Driver/Src/stm32h5xx_hal_flash_ex.c **** #if defined (FLASH_OPTSR2_SRAM1_ECC)
1372:Drivers/STM32H5xx_HAL_Driver/Src/stm32h5xx_hal_flash_ex.c ****   if ((UserType & OB_USER_SRAM1_ECC) != 0U)
1373:Drivers/STM32H5xx_HAL_Driver/Src/stm32h5xx_hal_flash_ex.c ****   {
1374:Drivers/STM32H5xx_HAL_Driver/Src/stm32h5xx_hal_flash_ex.c ****     /* SRAM2_ECC option byte should be modified */
1375:Drivers/STM32H5xx_HAL_Driver/Src/stm32h5xx_hal_flash_ex.c ****     assert_param(IS_OB_USER_SRAM1_ECC(UserConfig2 & FLASH_OPTSR2_SRAM1_ECC));
1376:Drivers/STM32H5xx_HAL_Driver/Src/stm32h5xx_hal_flash_ex.c **** 
1377:Drivers/STM32H5xx_HAL_Driver/Src/stm32h5xx_hal_flash_ex.c ****     /* Set value and mask for SRAM2_ECC option byte */
1378:Drivers/STM32H5xx_HAL_Driver/Src/stm32h5xx_hal_flash_ex.c ****     optr_reg2_val |= (UserConfig2 & FLASH_OPTSR2_SRAM1_ECC);
1379:Drivers/STM32H5xx_HAL_Driver/Src/stm32h5xx_hal_flash_ex.c ****     optr_reg2_mask |= FLASH_OPTSR2_SRAM1_ECC;
1380:Drivers/STM32H5xx_HAL_Driver/Src/stm32h5xx_hal_flash_ex.c ****   }
1381:Drivers/STM32H5xx_HAL_Driver/Src/stm32h5xx_hal_flash_ex.c **** #endif /* FLASH_OPTSR2_SRAM1_ECC */
1382:Drivers/STM32H5xx_HAL_Driver/Src/stm32h5xx_hal_flash_ex.c **** 
1383:Drivers/STM32H5xx_HAL_Driver/Src/stm32h5xx_hal_flash_ex.c **** #if defined (FLASH_OPTSR2_USBPD_DIS)
1384:Drivers/STM32H5xx_HAL_Driver/Src/stm32h5xx_hal_flash_ex.c ****   if ((UserType & OB_USER_USBPD_DIS) != 0U)
 632              		.loc 1 1384 3 is_stmt 1 view .LVU216
 633              		.loc 1 1384 6 is_stmt 0 view .LVU217
 634 0100 10F4802F 		tst	r0, #262144
 635 0104 04D0     		beq	.L54
1385:Drivers/STM32H5xx_HAL_Driver/Src/stm32h5xx_hal_flash_ex.c ****   {
1386:Drivers/STM32H5xx_HAL_Driver/Src/stm32h5xx_hal_flash_ex.c ****     /* USBPD_DIS option byte should be modified */
1387:Drivers/STM32H5xx_HAL_Driver/Src/stm32h5xx_hal_flash_ex.c ****     assert_param(IS_OB_USER_USBPD_DIS(UserConfig2 & FLASH_OPTSR2_USBPD_DIS));
 636              		.loc 1 1387 5 is_stmt 1 view .LVU218
1388:Drivers/STM32H5xx_HAL_Driver/Src/stm32h5xx_hal_flash_ex.c **** 
1389:Drivers/STM32H5xx_HAL_Driver/Src/stm32h5xx_hal_flash_ex.c ****     /* Set value and mask for USBPD_DIS option byte */
1390:Drivers/STM32H5xx_HAL_Driver/Src/stm32h5xx_hal_flash_ex.c ****     optr_reg2_val |= (UserConfig2 & FLASH_OPTSR2_USBPD_DIS);
 637              		.loc 1 1390 5 view .LVU219
 638              		.loc 1 1390 35 is_stmt 0 view .LVU220
 639 0106 02F48074 		and	r4, r2, #256
 640              		.loc 1 1390 19 view .LVU221
 641 010a 2143     		orrs	r1, r1, r4
 642              	.LVL51:
1391:Drivers/STM32H5xx_HAL_Driver/Src/stm32h5xx_hal_flash_ex.c ****     optr_reg2_mask |= FLASH_OPTSR2_USBPD_DIS;
 643              		.loc 1 1391 5 is_stmt 1 view .LVU222
 644              		.loc 1 1391 20 is_stmt 0 view .LVU223
 645 010c 4EF4807E 		orr	lr, lr, #256
 646              	.LVL52:
 647              	.L54:
1392:Drivers/STM32H5xx_HAL_Driver/Src/stm32h5xx_hal_flash_ex.c ****   }
1393:Drivers/STM32H5xx_HAL_Driver/Src/stm32h5xx_hal_flash_ex.c **** #endif /* FLASH_OPTSR2_USBPD_DIS */
1394:Drivers/STM32H5xx_HAL_Driver/Src/stm32h5xx_hal_flash_ex.c **** 
1395:Drivers/STM32H5xx_HAL_Driver/Src/stm32h5xx_hal_flash_ex.c **** #if defined (FLASH_OPTSR2_TZEN)
1396:Drivers/STM32H5xx_HAL_Driver/Src/stm32h5xx_hal_flash_ex.c ****   if ((UserType & OB_USER_TZEN) != 0U)
 648              		.loc 1 1396 3 is_stmt 1 view .LVU224
 649              		.loc 1 1396 6 is_stmt 0 view .LVU225
 650 0110 10F4002F 		tst	r0, #524288
 651 0114 04D0     		beq	.L55
1397:Drivers/STM32H5xx_HAL_Driver/Src/stm32h5xx_hal_flash_ex.c ****   {
1398:Drivers/STM32H5xx_HAL_Driver/Src/stm32h5xx_hal_flash_ex.c ****     /* TZEN option byte should be modified */
1399:Drivers/STM32H5xx_HAL_Driver/Src/stm32h5xx_hal_flash_ex.c ****     assert_param(IS_OB_USER_TZEN(UserConfig2 & FLASH_OPTSR2_TZEN));
 652              		.loc 1 1399 5 is_stmt 1 view .LVU226
1400:Drivers/STM32H5xx_HAL_Driver/Src/stm32h5xx_hal_flash_ex.c **** 
1401:Drivers/STM32H5xx_HAL_Driver/Src/stm32h5xx_hal_flash_ex.c ****     /* Set value and mask for TZEN option byte */
1402:Drivers/STM32H5xx_HAL_Driver/Src/stm32h5xx_hal_flash_ex.c ****     optr_reg2_val |= (UserConfig2 & FLASH_OPTSR2_TZEN);
 653              		.loc 1 1402 5 view .LVU227
 654              		.loc 1 1402 35 is_stmt 0 view .LVU228
 655 0116 02F07F42 		and	r2, r2, #-16777216
 656              	.LVL53:
ARM GAS  C:\Users\sapph\AppData\Local\Temp\ccb3riEs.s 			page 37


 657              		.loc 1 1402 19 view .LVU229
 658 011a 1143     		orrs	r1, r1, r2
 659              	.LVL54:
1403:Drivers/STM32H5xx_HAL_Driver/Src/stm32h5xx_hal_flash_ex.c ****     optr_reg2_mask |= FLASH_OPTSR2_TZEN;
 660              		.loc 1 1403 5 is_stmt 1 view .LVU230
 661              		.loc 1 1403 20 is_stmt 0 view .LVU231
 662 011c 4EF07F4E 		orr	lr, lr, #-16777216
 663              	.LVL55:
 664              	.L55:
1404:Drivers/STM32H5xx_HAL_Driver/Src/stm32h5xx_hal_flash_ex.c ****   }
1405:Drivers/STM32H5xx_HAL_Driver/Src/stm32h5xx_hal_flash_ex.c **** #endif /* FLASH_OPTSR2_TZEN */
1406:Drivers/STM32H5xx_HAL_Driver/Src/stm32h5xx_hal_flash_ex.c **** 
1407:Drivers/STM32H5xx_HAL_Driver/Src/stm32h5xx_hal_flash_ex.c ****   /* Check to write first User OB register or/and second one */
1408:Drivers/STM32H5xx_HAL_Driver/Src/stm32h5xx_hal_flash_ex.c ****   if ((UserType & 0xFFFU) != 0U)
 665              		.loc 1 1408 3 is_stmt 1 view .LVU232
 666              		.loc 1 1408 17 is_stmt 0 view .LVU233
 667 0120 C0F30B02 		ubfx	r2, r0, #0, #12
 668              		.loc 1 1408 6 view .LVU234
 669 0124 2AB1     		cbz	r2, .L56
1409:Drivers/STM32H5xx_HAL_Driver/Src/stm32h5xx_hal_flash_ex.c ****   {
1410:Drivers/STM32H5xx_HAL_Driver/Src/stm32h5xx_hal_flash_ex.c ****     /* Configure the option bytes register */
1411:Drivers/STM32H5xx_HAL_Driver/Src/stm32h5xx_hal_flash_ex.c ****     MODIFY_REG(FLASH->OPTSR_PRG, optr_reg1_mask, optr_reg1_val);
 670              		.loc 1 1411 5 is_stmt 1 view .LVU235
 671 0126 0A4C     		ldr	r4, .L61
 672 0128 626D     		ldr	r2, [r4, #84]
 673 012a 22EA0C02 		bic	r2, r2, ip
 674 012e 1343     		orrs	r3, r3, r2
 675              	.LVL56:
 676              		.loc 1 1411 5 is_stmt 0 view .LVU236
 677 0130 6365     		str	r3, [r4, #84]
 678              	.L56:
1412:Drivers/STM32H5xx_HAL_Driver/Src/stm32h5xx_hal_flash_ex.c ****   }
1413:Drivers/STM32H5xx_HAL_Driver/Src/stm32h5xx_hal_flash_ex.c ****   if ((UserType & 0xFF000U) != 0U)
 679              		.loc 1 1413 3 is_stmt 1 view .LVU237
 680              		.loc 1 1413 6 is_stmt 0 view .LVU238
 681 0132 10F47F2F 		tst	r0, #1044480
 682 0136 05D0     		beq	.L37
1414:Drivers/STM32H5xx_HAL_Driver/Src/stm32h5xx_hal_flash_ex.c ****   {
1415:Drivers/STM32H5xx_HAL_Driver/Src/stm32h5xx_hal_flash_ex.c ****     /* Configure the option bytes register */
1416:Drivers/STM32H5xx_HAL_Driver/Src/stm32h5xx_hal_flash_ex.c ****     MODIFY_REG(FLASH->OPTSR2_PRG, optr_reg2_mask, optr_reg2_val);
 683              		.loc 1 1416 5 is_stmt 1 view .LVU239
 684 0138 054A     		ldr	r2, .L61
 685 013a 536F     		ldr	r3, [r2, #116]
 686 013c 23EA0E03 		bic	r3, r3, lr
 687 0140 0B43     		orrs	r3, r3, r1
 688 0142 5367     		str	r3, [r2, #116]
 689              	.L37:
1417:Drivers/STM32H5xx_HAL_Driver/Src/stm32h5xx_hal_flash_ex.c ****   }
1418:Drivers/STM32H5xx_HAL_Driver/Src/stm32h5xx_hal_flash_ex.c **** }
 690              		.loc 1 1418 1 is_stmt 0 view .LVU240
 691 0144 10BD     		pop	{r4, pc}
 692              	.LVL57:
 693              	.L58:
1176:Drivers/STM32H5xx_HAL_Driver/Src/stm32h5xx_hal_flash_ex.c ****   uint32_t optr_reg2_val = 0U;
 694              		.loc 1 1176 12 view .LVU241
 695 0146 9C46     		mov	ip, r3
 696 0148 63E7     		b	.L38
ARM GAS  C:\Users\sapph\AppData\Local\Temp\ccb3riEs.s 			page 38


 697              	.LVL58:
 698              	.L59:
1178:Drivers/STM32H5xx_HAL_Driver/Src/stm32h5xx_hal_flash_ex.c **** 
 699              		.loc 1 1178 12 view .LVU242
 700 014a 8E46     		mov	lr, r1
 701 014c C0E7     		b	.L50
 702              	.L62:
 703 014e 00BF     		.align	2
 704              	.L61:
 705 0150 00200240 		.word	1073881088
 706              		.cfi_endproc
 707              	.LFE181:
 709              		.section	.text.FLASH_OB_GetUser,"ax",%progbits
 710              		.align	1
 711              		.syntax unified
 712              		.thumb
 713              		.thumb_func
 715              	FLASH_OB_GetUser:
 716              	.LVL59:
 717              	.LFB182:
1419:Drivers/STM32H5xx_HAL_Driver/Src/stm32h5xx_hal_flash_ex.c **** 
1420:Drivers/STM32H5xx_HAL_Driver/Src/stm32h5xx_hal_flash_ex.c **** /**
1421:Drivers/STM32H5xx_HAL_Driver/Src/stm32h5xx_hal_flash_ex.c ****   * @brief  Return the FLASH User Option Byte values.
1422:Drivers/STM32H5xx_HAL_Driver/Src/stm32h5xx_hal_flash_ex.c ****   * @param UserConfig1 FLASH User Option Bytes values
1423:Drivers/STM32H5xx_HAL_Driver/Src/stm32h5xx_hal_flash_ex.c ****   *         2M: IWDG_SW(Bit3), WWDG_SW(Bit4), nRST_STOP(Bit 6), nRST_STDY(Bit 7),
1424:Drivers/STM32H5xx_HAL_Driver/Src/stm32h5xx_hal_flash_ex.c ****   *         PRODUCT_STATE(Bit[8:15]), IO_VDD_HSLV(Bit 16), IO_VDDTO2_HSLV(Bit 17),
1425:Drivers/STM32H5xx_HAL_Driver/Src/stm32h5xx_hal_flash_ex.c ****   *         IWDG_STOP(Bit 20), IWDG_STDBY (Bit 21), BOOT_UBE(Bit[22:29]) and SWAP_BANK(Bit 31).
1426:Drivers/STM32H5xx_HAL_Driver/Src/stm32h5xx_hal_flash_ex.c ****   *         128K: IWDG_SW(Bit3), WWDG_SW(Bit4), nRST_STOP(Bit 6), nRST_STDY(Bit 7),
1427:Drivers/STM32H5xx_HAL_Driver/Src/stm32h5xx_hal_flash_ex.c ****   *         PRODUCT_STATE(Bit[8:15]), IO_VDD_HSLV(Bit16), IO_VDDIO2_HSLV(Bit17), IWDG_STOP(Bit 20),
1428:Drivers/STM32H5xx_HAL_Driver/Src/stm32h5xx_hal_flash_ex.c ****   *         IWDG_STDBY (Bit 21) and SWAP_BANK(Bit 31).
1429:Drivers/STM32H5xx_HAL_Driver/Src/stm32h5xx_hal_flash_ex.c ****   * @param UserConfig2 FLASH User Option Bytes values
1430:Drivers/STM32H5xx_HAL_Driver/Src/stm32h5xx_hal_flash_ex.c ****   *         2M: SRAM1_3_RST(Bit2), SRAM2_RST(Bit 3), BKPRAM_ECC(Bit 4), SRAM3_ECC(Bit 5),
1431:Drivers/STM32H5xx_HAL_Driver/Src/stm32h5xx_hal_flash_ex.c ****   *         SRAM2_ECC(Bit 6).
1432:Drivers/STM32H5xx_HAL_Driver/Src/stm32h5xx_hal_flash_ex.c ****   *         128K: SRAM2_RST(Bit 3), BKPRAM_ECC(Bit 4), SRAM2_ECC(Bit 6),
1433:Drivers/STM32H5xx_HAL_Driver/Src/stm32h5xx_hal_flash_ex.c ****   *         SRAM1_RST(Bit9), SRAM1_ECC(Bit10).
1434:Drivers/STM32H5xx_HAL_Driver/Src/stm32h5xx_hal_flash_ex.c ****   * @retval None
1435:Drivers/STM32H5xx_HAL_Driver/Src/stm32h5xx_hal_flash_ex.c ****   */
1436:Drivers/STM32H5xx_HAL_Driver/Src/stm32h5xx_hal_flash_ex.c **** static void FLASH_OB_GetUser(uint32_t *UserConfig1, uint32_t *UserConfig2)
1437:Drivers/STM32H5xx_HAL_Driver/Src/stm32h5xx_hal_flash_ex.c **** {
 718              		.loc 1 1437 1 is_stmt 1 view -0
 719              		.cfi_startproc
 720              		@ args = 0, pretend = 0, frame = 0
 721              		@ frame_needed = 0, uses_anonymous_args = 0
 722              		@ link register save eliminated.
1438:Drivers/STM32H5xx_HAL_Driver/Src/stm32h5xx_hal_flash_ex.c ****   (*UserConfig1) = FLASH->OPTSR_CUR & (~FLASH_OPTSR_PRODUCT_STATE);
 723              		.loc 1 1438 3 view .LVU244
 724              		.loc 1 1438 25 is_stmt 0 view .LVU245
 725 0000 034A     		ldr	r2, .L64
 726 0002 136D     		ldr	r3, [r2, #80]
 727              		.loc 1 1438 37 view .LVU246
 728 0004 23F47F43 		bic	r3, r3, #65280
 729              		.loc 1 1438 18 view .LVU247
 730 0008 0360     		str	r3, [r0]
1439:Drivers/STM32H5xx_HAL_Driver/Src/stm32h5xx_hal_flash_ex.c **** 
1440:Drivers/STM32H5xx_HAL_Driver/Src/stm32h5xx_hal_flash_ex.c ****   (*UserConfig2) = FLASH->OPTSR2_CUR;
 731              		.loc 1 1440 3 is_stmt 1 view .LVU248
 732              		.loc 1 1440 25 is_stmt 0 view .LVU249
ARM GAS  C:\Users\sapph\AppData\Local\Temp\ccb3riEs.s 			page 39


 733 000a 136F     		ldr	r3, [r2, #112]
 734              		.loc 1 1440 18 view .LVU250
 735 000c 0B60     		str	r3, [r1]
1441:Drivers/STM32H5xx_HAL_Driver/Src/stm32h5xx_hal_flash_ex.c **** }
 736              		.loc 1 1441 1 view .LVU251
 737 000e 7047     		bx	lr
 738              	.L65:
 739              		.align	2
 740              	.L64:
 741 0010 00200240 		.word	1073881088
 742              		.cfi_endproc
 743              	.LFE182:
 745              		.section	.text.FLASH_OB_BootAddrConfig,"ax",%progbits
 746              		.align	1
 747              		.syntax unified
 748              		.thumb
 749              		.thumb_func
 751              	FLASH_OB_BootAddrConfig:
 752              	.LVL60:
 753              	.LFB183:
1442:Drivers/STM32H5xx_HAL_Driver/Src/stm32h5xx_hal_flash_ex.c **** 
1443:Drivers/STM32H5xx_HAL_Driver/Src/stm32h5xx_hal_flash_ex.c **** /**
1444:Drivers/STM32H5xx_HAL_Driver/Src/stm32h5xx_hal_flash_ex.c ****   * @brief  Configure Boot address
1445:Drivers/STM32H5xx_HAL_Driver/Src/stm32h5xx_hal_flash_ex.c ****   * @param  BootOption specifies the Boot address option byte to be programmed.
1446:Drivers/STM32H5xx_HAL_Driver/Src/stm32h5xx_hal_flash_ex.c ****   *         This parameter can be one of the following values:
1447:Drivers/STM32H5xx_HAL_Driver/Src/stm32h5xx_hal_flash_ex.c ****   *            @arg OB_BOOTADDR_NS: Non-secure boot address
1448:Drivers/STM32H5xx_HAL_Driver/Src/stm32h5xx_hal_flash_ex.c ****   *            @arg OB_BOOTADDR_SEC: Secure boot address
1449:Drivers/STM32H5xx_HAL_Driver/Src/stm32h5xx_hal_flash_ex.c ****   * @param  BootAddress: specifies the boot address value
1450:Drivers/STM32H5xx_HAL_Driver/Src/stm32h5xx_hal_flash_ex.c ****   *         This parameter can be sector number between 0 and 0xFFFFFF00
1451:Drivers/STM32H5xx_HAL_Driver/Src/stm32h5xx_hal_flash_ex.c ****   * @retval None
1452:Drivers/STM32H5xx_HAL_Driver/Src/stm32h5xx_hal_flash_ex.c ****   */
1453:Drivers/STM32H5xx_HAL_Driver/Src/stm32h5xx_hal_flash_ex.c **** static void FLASH_OB_BootAddrConfig(uint32_t BootOption, uint32_t BootAddress)
1454:Drivers/STM32H5xx_HAL_Driver/Src/stm32h5xx_hal_flash_ex.c **** {
 754              		.loc 1 1454 1 is_stmt 1 view -0
 755              		.cfi_startproc
 756              		@ args = 0, pretend = 0, frame = 0
 757              		@ frame_needed = 0, uses_anonymous_args = 0
 758              		@ link register save eliminated.
1455:Drivers/STM32H5xx_HAL_Driver/Src/stm32h5xx_hal_flash_ex.c ****   /* Check the parameters */
1456:Drivers/STM32H5xx_HAL_Driver/Src/stm32h5xx_hal_flash_ex.c ****   assert_param(IS_OB_BOOT_CONFIG(BootOption));
 759              		.loc 1 1456 3 view .LVU253
1457:Drivers/STM32H5xx_HAL_Driver/Src/stm32h5xx_hal_flash_ex.c **** 
1458:Drivers/STM32H5xx_HAL_Driver/Src/stm32h5xx_hal_flash_ex.c ****   if (BootOption == OB_BOOT_NS)
 760              		.loc 1 1458 3 view .LVU254
 761              		.loc 1 1458 6 is_stmt 0 view .LVU255
 762 0000 0128     		cmp	r0, #1
 763 0002 00D0     		beq	.L68
 764              	.L66:
1459:Drivers/STM32H5xx_HAL_Driver/Src/stm32h5xx_hal_flash_ex.c ****   {
1460:Drivers/STM32H5xx_HAL_Driver/Src/stm32h5xx_hal_flash_ex.c ****     MODIFY_REG(FLASH->NSBOOTR_PRG, FLASH_BOOTR_BOOTADD, BootAddress);
1461:Drivers/STM32H5xx_HAL_Driver/Src/stm32h5xx_hal_flash_ex.c ****   }
1462:Drivers/STM32H5xx_HAL_Driver/Src/stm32h5xx_hal_flash_ex.c **** #if defined (__ARM_FEATURE_CMSE) && (__ARM_FEATURE_CMSE == 3U)
1463:Drivers/STM32H5xx_HAL_Driver/Src/stm32h5xx_hal_flash_ex.c ****   else if (BootOption == OB_BOOT_SEC)
1464:Drivers/STM32H5xx_HAL_Driver/Src/stm32h5xx_hal_flash_ex.c ****   {
1465:Drivers/STM32H5xx_HAL_Driver/Src/stm32h5xx_hal_flash_ex.c ****     MODIFY_REG(FLASH->SECBOOTR_PRG, FLASH_BOOTR_BOOTADD, BootAddress);
1466:Drivers/STM32H5xx_HAL_Driver/Src/stm32h5xx_hal_flash_ex.c ****   }
1467:Drivers/STM32H5xx_HAL_Driver/Src/stm32h5xx_hal_flash_ex.c **** #endif /* __ARM_FEATURE_CMSE */
ARM GAS  C:\Users\sapph\AppData\Local\Temp\ccb3riEs.s 			page 40


1468:Drivers/STM32H5xx_HAL_Driver/Src/stm32h5xx_hal_flash_ex.c ****   else
1469:Drivers/STM32H5xx_HAL_Driver/Src/stm32h5xx_hal_flash_ex.c ****   {
1470:Drivers/STM32H5xx_HAL_Driver/Src/stm32h5xx_hal_flash_ex.c ****     /* Empty statement (to be compliant MISRA 15.7) */
1471:Drivers/STM32H5xx_HAL_Driver/Src/stm32h5xx_hal_flash_ex.c ****   }
1472:Drivers/STM32H5xx_HAL_Driver/Src/stm32h5xx_hal_flash_ex.c **** }
 765              		.loc 1 1472 1 view .LVU256
 766 0004 7047     		bx	lr
 767              	.L68:
1460:Drivers/STM32H5xx_HAL_Driver/Src/stm32h5xx_hal_flash_ex.c ****   }
 768              		.loc 1 1460 5 is_stmt 1 view .LVU257
 769 0006 044A     		ldr	r2, .L69
 770 0008 D2F88430 		ldr	r3, [r2, #132]
 771 000c DBB2     		uxtb	r3, r3
 772 000e 0B43     		orrs	r3, r3, r1
 773 0010 C2F88430 		str	r3, [r2, #132]
1471:Drivers/STM32H5xx_HAL_Driver/Src/stm32h5xx_hal_flash_ex.c **** }
 774              		.loc 1 1471 3 view .LVU258
 775              		.loc 1 1472 1 is_stmt 0 view .LVU259
 776 0014 F6E7     		b	.L66
 777              	.L70:
 778 0016 00BF     		.align	2
 779              	.L69:
 780 0018 00200240 		.word	1073881088
 781              		.cfi_endproc
 782              	.LFE183:
 784              		.section	.text.FLASH_OB_BootLockConfig,"ax",%progbits
 785              		.align	1
 786              		.syntax unified
 787              		.thumb
 788              		.thumb_func
 790              	FLASH_OB_BootLockConfig:
 791              	.LVL61:
 792              	.LFB184:
1473:Drivers/STM32H5xx_HAL_Driver/Src/stm32h5xx_hal_flash_ex.c **** 
1474:Drivers/STM32H5xx_HAL_Driver/Src/stm32h5xx_hal_flash_ex.c **** /**
1475:Drivers/STM32H5xx_HAL_Driver/Src/stm32h5xx_hal_flash_ex.c ****   * @brief  Configure the boot lock.
1476:Drivers/STM32H5xx_HAL_Driver/Src/stm32h5xx_hal_flash_ex.c ****   *
1477:Drivers/STM32H5xx_HAL_Driver/Src/stm32h5xx_hal_flash_ex.c ****   * @param  BootOption select the BOOT_LOCK option: secure or non-secure.
1478:Drivers/STM32H5xx_HAL_Driver/Src/stm32h5xx_hal_flash_ex.c ****   *          This parameter can be one of the following values:
1479:Drivers/STM32H5xx_HAL_Driver/Src/stm32h5xx_hal_flash_ex.c ****   *            @arg OB_BOOT_LOCK_SEC: Boot Lock mode deactivated
1480:Drivers/STM32H5xx_HAL_Driver/Src/stm32h5xx_hal_flash_ex.c ****   *            @arg OB_BOOT_LOCK_NS: Boot Lock mode activated
1481:Drivers/STM32H5xx_HAL_Driver/Src/stm32h5xx_hal_flash_ex.c ****   *
1482:Drivers/STM32H5xx_HAL_Driver/Src/stm32h5xx_hal_flash_ex.c ****   * @param  BootLockConfig specifies the activation of the BOOT_LOCK.
1483:Drivers/STM32H5xx_HAL_Driver/Src/stm32h5xx_hal_flash_ex.c ****   *          This parameter can be one of the following values:
1484:Drivers/STM32H5xx_HAL_Driver/Src/stm32h5xx_hal_flash_ex.c ****   *            @arg OB_BOOT_LOCK_DISABLE: Boot Lock mode deactivated
1485:Drivers/STM32H5xx_HAL_Driver/Src/stm32h5xx_hal_flash_ex.c ****   *            @arg OB_BOOT_LOCK_ENABLE: Boot Lock mode activated
1486:Drivers/STM32H5xx_HAL_Driver/Src/stm32h5xx_hal_flash_ex.c ****   *
1487:Drivers/STM32H5xx_HAL_Driver/Src/stm32h5xx_hal_flash_ex.c ****   * @retval None
1488:Drivers/STM32H5xx_HAL_Driver/Src/stm32h5xx_hal_flash_ex.c ****   */
1489:Drivers/STM32H5xx_HAL_Driver/Src/stm32h5xx_hal_flash_ex.c **** static void FLASH_OB_BootLockConfig(uint32_t BootOption, uint32_t BootLockConfig)
1490:Drivers/STM32H5xx_HAL_Driver/Src/stm32h5xx_hal_flash_ex.c **** {
 793              		.loc 1 1490 1 is_stmt 1 view -0
 794              		.cfi_startproc
 795              		@ args = 0, pretend = 0, frame = 0
 796              		@ frame_needed = 0, uses_anonymous_args = 0
 797              		@ link register save eliminated.
1491:Drivers/STM32H5xx_HAL_Driver/Src/stm32h5xx_hal_flash_ex.c ****   /* Check the parameters */
ARM GAS  C:\Users\sapph\AppData\Local\Temp\ccb3riEs.s 			page 41


1492:Drivers/STM32H5xx_HAL_Driver/Src/stm32h5xx_hal_flash_ex.c ****   assert_param(IS_OB_BOOT_CONFIG(BootOption));
 798              		.loc 1 1492 3 view .LVU261
1493:Drivers/STM32H5xx_HAL_Driver/Src/stm32h5xx_hal_flash_ex.c ****   assert_param(IS_OB_BOOT_LOCK(BootLockConfig));
 799              		.loc 1 1493 3 view .LVU262
1494:Drivers/STM32H5xx_HAL_Driver/Src/stm32h5xx_hal_flash_ex.c **** 
1495:Drivers/STM32H5xx_HAL_Driver/Src/stm32h5xx_hal_flash_ex.c ****   /* Configure the option bytes register */
1496:Drivers/STM32H5xx_HAL_Driver/Src/stm32h5xx_hal_flash_ex.c ****   if (BootOption == OB_BOOT_NS)
 800              		.loc 1 1496 3 view .LVU263
 801              		.loc 1 1496 6 is_stmt 0 view .LVU264
 802 0000 0128     		cmp	r0, #1
 803 0002 00D0     		beq	.L73
 804              	.L71:
1497:Drivers/STM32H5xx_HAL_Driver/Src/stm32h5xx_hal_flash_ex.c ****   {
1498:Drivers/STM32H5xx_HAL_Driver/Src/stm32h5xx_hal_flash_ex.c ****     MODIFY_REG(FLASH->NSBOOTR_PRG, FLASH_BOOTR_BOOT_LOCK, BootLockConfig);
1499:Drivers/STM32H5xx_HAL_Driver/Src/stm32h5xx_hal_flash_ex.c ****   }
1500:Drivers/STM32H5xx_HAL_Driver/Src/stm32h5xx_hal_flash_ex.c **** #if defined (__ARM_FEATURE_CMSE) && (__ARM_FEATURE_CMSE == 3U)
1501:Drivers/STM32H5xx_HAL_Driver/Src/stm32h5xx_hal_flash_ex.c ****   else if (BootOption == OB_BOOT_SEC)
1502:Drivers/STM32H5xx_HAL_Driver/Src/stm32h5xx_hal_flash_ex.c ****   {
1503:Drivers/STM32H5xx_HAL_Driver/Src/stm32h5xx_hal_flash_ex.c ****     MODIFY_REG(FLASH->SECBOOTR_PRG, FLASH_BOOTR_BOOT_LOCK, BootLockConfig);
1504:Drivers/STM32H5xx_HAL_Driver/Src/stm32h5xx_hal_flash_ex.c ****   }
1505:Drivers/STM32H5xx_HAL_Driver/Src/stm32h5xx_hal_flash_ex.c **** #endif /* __ARM_FEATURE_CMSE */
1506:Drivers/STM32H5xx_HAL_Driver/Src/stm32h5xx_hal_flash_ex.c ****   else
1507:Drivers/STM32H5xx_HAL_Driver/Src/stm32h5xx_hal_flash_ex.c ****   {
1508:Drivers/STM32H5xx_HAL_Driver/Src/stm32h5xx_hal_flash_ex.c ****     /* Empty statement (to be compliant MISRA 15.7) */
1509:Drivers/STM32H5xx_HAL_Driver/Src/stm32h5xx_hal_flash_ex.c ****   }
1510:Drivers/STM32H5xx_HAL_Driver/Src/stm32h5xx_hal_flash_ex.c **** }
 805              		.loc 1 1510 1 view .LVU265
 806 0004 7047     		bx	lr
 807              	.L73:
1498:Drivers/STM32H5xx_HAL_Driver/Src/stm32h5xx_hal_flash_ex.c ****   }
 808              		.loc 1 1498 5 is_stmt 1 view .LVU266
 809 0006 044A     		ldr	r2, .L74
 810 0008 D2F88430 		ldr	r3, [r2, #132]
 811 000c 23F0FF03 		bic	r3, r3, #255
 812 0010 0B43     		orrs	r3, r3, r1
 813 0012 C2F88430 		str	r3, [r2, #132]
1509:Drivers/STM32H5xx_HAL_Driver/Src/stm32h5xx_hal_flash_ex.c **** }
 814              		.loc 1 1509 3 view .LVU267
 815              		.loc 1 1510 1 is_stmt 0 view .LVU268
 816 0016 F5E7     		b	.L71
 817              	.L75:
 818              		.align	2
 819              	.L74:
 820 0018 00200240 		.word	1073881088
 821              		.cfi_endproc
 822              	.LFE184:
 824              		.section	.text.FLASH_OB_GetBootConfig,"ax",%progbits
 825              		.align	1
 826              		.syntax unified
 827              		.thumb
 828              		.thumb_func
 830              	FLASH_OB_GetBootConfig:
 831              	.LVL62:
 832              	.LFB185:
1511:Drivers/STM32H5xx_HAL_Driver/Src/stm32h5xx_hal_flash_ex.c **** 
1512:Drivers/STM32H5xx_HAL_Driver/Src/stm32h5xx_hal_flash_ex.c **** /**
1513:Drivers/STM32H5xx_HAL_Driver/Src/stm32h5xx_hal_flash_ex.c ****   * @brief  Get the boot configuration
ARM GAS  C:\Users\sapph\AppData\Local\Temp\ccb3riEs.s 			page 42


1514:Drivers/STM32H5xx_HAL_Driver/Src/stm32h5xx_hal_flash_ex.c ****   * @param[in]  BootOption specifies the boot address option byte to be returned.
1515:Drivers/STM32H5xx_HAL_Driver/Src/stm32h5xx_hal_flash_ex.c ****   *             This parameter can be one of the following values:
1516:Drivers/STM32H5xx_HAL_Driver/Src/stm32h5xx_hal_flash_ex.c ****   *                @arg OB_BOOT_NS: Non-secure boot address
1517:Drivers/STM32H5xx_HAL_Driver/Src/stm32h5xx_hal_flash_ex.c ****   *                @arg OB_BOOT_SEC: Secure boot address
1518:Drivers/STM32H5xx_HAL_Driver/Src/stm32h5xx_hal_flash_ex.c ****   *
1519:Drivers/STM32H5xx_HAL_Driver/Src/stm32h5xx_hal_flash_ex.c ****   * @param[out]  BootAddress specifies the boot address value
1520:Drivers/STM32H5xx_HAL_Driver/Src/stm32h5xx_hal_flash_ex.c ****   *
1521:Drivers/STM32H5xx_HAL_Driver/Src/stm32h5xx_hal_flash_ex.c ****   * @param[out] BootLockConfig returns the activation of the BOOT_LOCK.
1522:Drivers/STM32H5xx_HAL_Driver/Src/stm32h5xx_hal_flash_ex.c ****   *             This parameter can be one of the following values:
1523:Drivers/STM32H5xx_HAL_Driver/Src/stm32h5xx_hal_flash_ex.c ****   *               @arg OB_BOOT_LOCK_DISABLE: Boot Lock mode deactivated
1524:Drivers/STM32H5xx_HAL_Driver/Src/stm32h5xx_hal_flash_ex.c ****   *               @arg OB_BOOT_LOCK_ENABLE: Boot Lock mode activated
1525:Drivers/STM32H5xx_HAL_Driver/Src/stm32h5xx_hal_flash_ex.c ****   * @retval None
1526:Drivers/STM32H5xx_HAL_Driver/Src/stm32h5xx_hal_flash_ex.c ****   */
1527:Drivers/STM32H5xx_HAL_Driver/Src/stm32h5xx_hal_flash_ex.c **** static void FLASH_OB_GetBootConfig(uint32_t BootOption, uint32_t *BootAddress, uint32_t *BootLockCo
1528:Drivers/STM32H5xx_HAL_Driver/Src/stm32h5xx_hal_flash_ex.c **** {
 833              		.loc 1 1528 1 is_stmt 1 view -0
 834              		.cfi_startproc
 835              		@ args = 0, pretend = 0, frame = 0
 836              		@ frame_needed = 0, uses_anonymous_args = 0
 837              		@ link register save eliminated.
1529:Drivers/STM32H5xx_HAL_Driver/Src/stm32h5xx_hal_flash_ex.c ****   if (BootOption == OB_BOOT_NS)
 838              		.loc 1 1529 3 view .LVU270
 839              		.loc 1 1529 6 is_stmt 0 view .LVU271
 840 0000 0128     		cmp	r0, #1
 841 0002 00D0     		beq	.L78
 842              	.LVL63:
 843              	.L76:
1530:Drivers/STM32H5xx_HAL_Driver/Src/stm32h5xx_hal_flash_ex.c ****   {
1531:Drivers/STM32H5xx_HAL_Driver/Src/stm32h5xx_hal_flash_ex.c ****     *BootAddress    = FLASH->NSBOOTR_CUR & FLASH_BOOTR_BOOTADD;
1532:Drivers/STM32H5xx_HAL_Driver/Src/stm32h5xx_hal_flash_ex.c ****     *BootLockConfig = FLASH->NSBOOTR_CUR & FLASH_BOOTR_BOOT_LOCK;
1533:Drivers/STM32H5xx_HAL_Driver/Src/stm32h5xx_hal_flash_ex.c ****   }
1534:Drivers/STM32H5xx_HAL_Driver/Src/stm32h5xx_hal_flash_ex.c **** #if defined (__ARM_FEATURE_CMSE) && (__ARM_FEATURE_CMSE == 3U)
1535:Drivers/STM32H5xx_HAL_Driver/Src/stm32h5xx_hal_flash_ex.c ****   else if (BootOption == OB_BOOT_SEC)
1536:Drivers/STM32H5xx_HAL_Driver/Src/stm32h5xx_hal_flash_ex.c ****   {
1537:Drivers/STM32H5xx_HAL_Driver/Src/stm32h5xx_hal_flash_ex.c ****     *BootAddress    = (FLASH->SECBOOTR_CUR & FLASH_BOOTR_BOOTADD);
1538:Drivers/STM32H5xx_HAL_Driver/Src/stm32h5xx_hal_flash_ex.c ****     *BootLockConfig = (FLASH->SECBOOTR_CUR & FLASH_BOOTR_BOOT_LOCK);
1539:Drivers/STM32H5xx_HAL_Driver/Src/stm32h5xx_hal_flash_ex.c ****   }
1540:Drivers/STM32H5xx_HAL_Driver/Src/stm32h5xx_hal_flash_ex.c **** #endif /* __ARM_FEATURE_CMSE */
1541:Drivers/STM32H5xx_HAL_Driver/Src/stm32h5xx_hal_flash_ex.c ****   else
1542:Drivers/STM32H5xx_HAL_Driver/Src/stm32h5xx_hal_flash_ex.c ****   {
1543:Drivers/STM32H5xx_HAL_Driver/Src/stm32h5xx_hal_flash_ex.c ****     /* Empty statement (to be compliant MISRA 15.7) */
1544:Drivers/STM32H5xx_HAL_Driver/Src/stm32h5xx_hal_flash_ex.c ****   }
1545:Drivers/STM32H5xx_HAL_Driver/Src/stm32h5xx_hal_flash_ex.c **** }
 844              		.loc 1 1545 1 view .LVU272
 845 0004 7047     		bx	lr
 846              	.LVL64:
 847              	.L78:
1531:Drivers/STM32H5xx_HAL_Driver/Src/stm32h5xx_hal_flash_ex.c ****     *BootLockConfig = FLASH->NSBOOTR_CUR & FLASH_BOOTR_BOOT_LOCK;
 848              		.loc 1 1531 5 is_stmt 1 view .LVU273
1531:Drivers/STM32H5xx_HAL_Driver/Src/stm32h5xx_hal_flash_ex.c ****     *BootLockConfig = FLASH->NSBOOTR_CUR & FLASH_BOOTR_BOOT_LOCK;
 849              		.loc 1 1531 28 is_stmt 0 view .LVU274
 850 0006 0548     		ldr	r0, .L79
 851              	.LVL65:
1531:Drivers/STM32H5xx_HAL_Driver/Src/stm32h5xx_hal_flash_ex.c ****     *BootLockConfig = FLASH->NSBOOTR_CUR & FLASH_BOOTR_BOOT_LOCK;
 852              		.loc 1 1531 28 view .LVU275
 853 0008 D0F88030 		ldr	r3, [r0, #128]
1531:Drivers/STM32H5xx_HAL_Driver/Src/stm32h5xx_hal_flash_ex.c ****     *BootLockConfig = FLASH->NSBOOTR_CUR & FLASH_BOOTR_BOOT_LOCK;
ARM GAS  C:\Users\sapph\AppData\Local\Temp\ccb3riEs.s 			page 43


 854              		.loc 1 1531 42 view .LVU276
 855 000c 23F0FF03 		bic	r3, r3, #255
1531:Drivers/STM32H5xx_HAL_Driver/Src/stm32h5xx_hal_flash_ex.c ****     *BootLockConfig = FLASH->NSBOOTR_CUR & FLASH_BOOTR_BOOT_LOCK;
 856              		.loc 1 1531 21 view .LVU277
 857 0010 0B60     		str	r3, [r1]
1532:Drivers/STM32H5xx_HAL_Driver/Src/stm32h5xx_hal_flash_ex.c ****   }
 858              		.loc 1 1532 5 is_stmt 1 view .LVU278
1532:Drivers/STM32H5xx_HAL_Driver/Src/stm32h5xx_hal_flash_ex.c ****   }
 859              		.loc 1 1532 28 is_stmt 0 view .LVU279
 860 0012 D0F88030 		ldr	r3, [r0, #128]
1532:Drivers/STM32H5xx_HAL_Driver/Src/stm32h5xx_hal_flash_ex.c ****   }
 861              		.loc 1 1532 42 view .LVU280
 862 0016 DBB2     		uxtb	r3, r3
1532:Drivers/STM32H5xx_HAL_Driver/Src/stm32h5xx_hal_flash_ex.c ****   }
 863              		.loc 1 1532 21 view .LVU281
 864 0018 1360     		str	r3, [r2]
1544:Drivers/STM32H5xx_HAL_Driver/Src/stm32h5xx_hal_flash_ex.c **** }
 865              		.loc 1 1544 3 is_stmt 1 view .LVU282
 866              		.loc 1 1545 1 is_stmt 0 view .LVU283
 867 001a F3E7     		b	.L76
 868              	.L80:
 869              		.align	2
 870              	.L79:
 871 001c 00200240 		.word	1073881088
 872              		.cfi_endproc
 873              	.LFE185:
 875              		.section	.text.FLASH_OB_OTP_LockConfig,"ax",%progbits
 876              		.align	1
 877              		.syntax unified
 878              		.thumb
 879              		.thumb_func
 881              	FLASH_OB_OTP_LockConfig:
 882              	.LVL66:
 883              	.LFB186:
1546:Drivers/STM32H5xx_HAL_Driver/Src/stm32h5xx_hal_flash_ex.c **** 
1547:Drivers/STM32H5xx_HAL_Driver/Src/stm32h5xx_hal_flash_ex.c **** /**
1548:Drivers/STM32H5xx_HAL_Driver/Src/stm32h5xx_hal_flash_ex.c ****   * @brief  Configure the OTP Block Lock.
1549:Drivers/STM32H5xx_HAL_Driver/Src/stm32h5xx_hal_flash_ex.c ****   * @param  OTP_Block specifies the OTP Block to lock.
1550:Drivers/STM32H5xx_HAL_Driver/Src/stm32h5xx_hal_flash_ex.c ****   *         This parameter can be a value of @ref FLASH_OTP_Blocks
1551:Drivers/STM32H5xx_HAL_Driver/Src/stm32h5xx_hal_flash_ex.c ****   * @retval None
1552:Drivers/STM32H5xx_HAL_Driver/Src/stm32h5xx_hal_flash_ex.c ****   */
1553:Drivers/STM32H5xx_HAL_Driver/Src/stm32h5xx_hal_flash_ex.c **** static void FLASH_OB_OTP_LockConfig(uint32_t OTP_Block)
1554:Drivers/STM32H5xx_HAL_Driver/Src/stm32h5xx_hal_flash_ex.c **** {
 884              		.loc 1 1554 1 is_stmt 1 view -0
 885              		.cfi_startproc
 886              		@ args = 0, pretend = 0, frame = 0
 887              		@ frame_needed = 0, uses_anonymous_args = 0
 888              		@ link register save eliminated.
1555:Drivers/STM32H5xx_HAL_Driver/Src/stm32h5xx_hal_flash_ex.c ****   /* Configure the OTP Block lock in the option bytes register */
1556:Drivers/STM32H5xx_HAL_Driver/Src/stm32h5xx_hal_flash_ex.c ****   FLASH->OTPBLR_PRG |= OTP_Block;
 889              		.loc 1 1556 3 view .LVU285
 890              		.loc 1 1556 8 is_stmt 0 view .LVU286
 891 0000 034A     		ldr	r2, .L82
 892 0002 D2F89430 		ldr	r3, [r2, #148]
 893              		.loc 1 1556 21 view .LVU287
 894 0006 0343     		orrs	r3, r3, r0
 895 0008 C2F89430 		str	r3, [r2, #148]
ARM GAS  C:\Users\sapph\AppData\Local\Temp\ccb3riEs.s 			page 44


1557:Drivers/STM32H5xx_HAL_Driver/Src/stm32h5xx_hal_flash_ex.c **** }
 896              		.loc 1 1557 1 view .LVU288
 897 000c 7047     		bx	lr
 898              	.L83:
 899 000e 00BF     		.align	2
 900              	.L82:
 901 0010 00200240 		.word	1073881088
 902              		.cfi_endproc
 903              	.LFE186:
 905              		.section	.text.FLASH_OB_OTP_GetLock,"ax",%progbits
 906              		.align	1
 907              		.syntax unified
 908              		.thumb
 909              		.thumb_func
 911              	FLASH_OB_OTP_GetLock:
 912              	.LFB187:
1558:Drivers/STM32H5xx_HAL_Driver/Src/stm32h5xx_hal_flash_ex.c **** 
1559:Drivers/STM32H5xx_HAL_Driver/Src/stm32h5xx_hal_flash_ex.c **** /**
1560:Drivers/STM32H5xx_HAL_Driver/Src/stm32h5xx_hal_flash_ex.c ****   * @brief  Get the OTP Block Lock.
1561:Drivers/STM32H5xx_HAL_Driver/Src/stm32h5xx_hal_flash_ex.c ****   * @retval OTP_Block specifies the OTP Block to lock.
1562:Drivers/STM32H5xx_HAL_Driver/Src/stm32h5xx_hal_flash_ex.c ****   *         This return value can be a value of @ref FLASH_OTP_Blocks
1563:Drivers/STM32H5xx_HAL_Driver/Src/stm32h5xx_hal_flash_ex.c ****   */
1564:Drivers/STM32H5xx_HAL_Driver/Src/stm32h5xx_hal_flash_ex.c **** static uint32_t FLASH_OB_OTP_GetLock(void)
1565:Drivers/STM32H5xx_HAL_Driver/Src/stm32h5xx_hal_flash_ex.c **** {
 913              		.loc 1 1565 1 is_stmt 1 view -0
 914              		.cfi_startproc
 915              		@ args = 0, pretend = 0, frame = 0
 916              		@ frame_needed = 0, uses_anonymous_args = 0
 917              		@ link register save eliminated.
1566:Drivers/STM32H5xx_HAL_Driver/Src/stm32h5xx_hal_flash_ex.c ****   return (FLASH->OTPBLR_CUR);
 918              		.loc 1 1566 3 view .LVU290
 919              		.loc 1 1566 16 is_stmt 0 view .LVU291
 920 0000 014B     		ldr	r3, .L85
 921 0002 D3F89000 		ldr	r0, [r3, #144]
1567:Drivers/STM32H5xx_HAL_Driver/Src/stm32h5xx_hal_flash_ex.c **** }
 922              		.loc 1 1567 1 view .LVU292
 923 0006 7047     		bx	lr
 924              	.L86:
 925              		.align	2
 926              	.L85:
 927 0008 00200240 		.word	1073881088
 928              		.cfi_endproc
 929              	.LFE187:
 931              		.section	.text.FLASH_OB_HDPConfig,"ax",%progbits
 932              		.align	1
 933              		.syntax unified
 934              		.thumb
 935              		.thumb_func
 937              	FLASH_OB_HDPConfig:
 938              	.LVL67:
 939              	.LFB188:
1568:Drivers/STM32H5xx_HAL_Driver/Src/stm32h5xx_hal_flash_ex.c **** 
1569:Drivers/STM32H5xx_HAL_Driver/Src/stm32h5xx_hal_flash_ex.c **** #if defined (__ARM_FEATURE_CMSE) && (__ARM_FEATURE_CMSE == 3U)
1570:Drivers/STM32H5xx_HAL_Driver/Src/stm32h5xx_hal_flash_ex.c **** /**
1571:Drivers/STM32H5xx_HAL_Driver/Src/stm32h5xx_hal_flash_ex.c ****   * @brief  Configure the watermark-based secure area.
1572:Drivers/STM32H5xx_HAL_Driver/Src/stm32h5xx_hal_flash_ex.c ****   *
1573:Drivers/STM32H5xx_HAL_Driver/Src/stm32h5xx_hal_flash_ex.c ****   * @param  Banks specifies the bank where to apply Watermark protection
ARM GAS  C:\Users\sapph\AppData\Local\Temp\ccb3riEs.s 			page 45


1574:Drivers/STM32H5xx_HAL_Driver/Src/stm32h5xx_hal_flash_ex.c ****   *         This parameter can be one of the following values:
1575:Drivers/STM32H5xx_HAL_Driver/Src/stm32h5xx_hal_flash_ex.c ****   *            @arg FLASH_BANK_1: configure Watermark on bank1
1576:Drivers/STM32H5xx_HAL_Driver/Src/stm32h5xx_hal_flash_ex.c ****   *            @arg FLASH_BANK_2: configure Watermark on bank2
1577:Drivers/STM32H5xx_HAL_Driver/Src/stm32h5xx_hal_flash_ex.c ****   *            @arg FLASH_BANK_BOTH: configure Watermark on both bank1 and bank2
1578:Drivers/STM32H5xx_HAL_Driver/Src/stm32h5xx_hal_flash_ex.c ****   *
1579:Drivers/STM32H5xx_HAL_Driver/Src/stm32h5xx_hal_flash_ex.c ****   * @param  WMSecStartSector specifies the start sector of the secure area
1580:Drivers/STM32H5xx_HAL_Driver/Src/stm32h5xx_hal_flash_ex.c ****   *         This parameter can be sector number between 0 and (max number of sectors in the bank - 
1581:Drivers/STM32H5xx_HAL_Driver/Src/stm32h5xx_hal_flash_ex.c ****   *
1582:Drivers/STM32H5xx_HAL_Driver/Src/stm32h5xx_hal_flash_ex.c ****   * @param  WMSecEndSector specifies the end sector of the secure area
1583:Drivers/STM32H5xx_HAL_Driver/Src/stm32h5xx_hal_flash_ex.c ****   *         This parameter can be sector number between WMSecStartSector and WMSecEndSector(max num
1584:Drivers/STM32H5xx_HAL_Driver/Src/stm32h5xx_hal_flash_ex.c ****   *         in the bank - 1)
1585:Drivers/STM32H5xx_HAL_Driver/Src/stm32h5xx_hal_flash_ex.c ****   *
1586:Drivers/STM32H5xx_HAL_Driver/Src/stm32h5xx_hal_flash_ex.c ****   * @retval None
1587:Drivers/STM32H5xx_HAL_Driver/Src/stm32h5xx_hal_flash_ex.c ****   */
1588:Drivers/STM32H5xx_HAL_Driver/Src/stm32h5xx_hal_flash_ex.c **** static void FLASH_OB_WMSECConfig(uint32_t Banks, uint32_t WMSecStartSector, uint32_t WMSecEndSector
1589:Drivers/STM32H5xx_HAL_Driver/Src/stm32h5xx_hal_flash_ex.c **** {
1590:Drivers/STM32H5xx_HAL_Driver/Src/stm32h5xx_hal_flash_ex.c ****   /* Check the parameters */
1591:Drivers/STM32H5xx_HAL_Driver/Src/stm32h5xx_hal_flash_ex.c ****   assert_param(IS_FLASH_BANK(Banks));
1592:Drivers/STM32H5xx_HAL_Driver/Src/stm32h5xx_hal_flash_ex.c ****   assert_param(IS_FLASH_SECTOR(WMSecStartSector));
1593:Drivers/STM32H5xx_HAL_Driver/Src/stm32h5xx_hal_flash_ex.c ****   assert_param(IS_FLASH_SECTOR(WMSecEndSector));
1594:Drivers/STM32H5xx_HAL_Driver/Src/stm32h5xx_hal_flash_ex.c **** 
1595:Drivers/STM32H5xx_HAL_Driver/Src/stm32h5xx_hal_flash_ex.c ****   /* Write SECWM registers */
1596:Drivers/STM32H5xx_HAL_Driver/Src/stm32h5xx_hal_flash_ex.c ****   if ((Banks & FLASH_BANK_1) == FLASH_BANK_1)
1597:Drivers/STM32H5xx_HAL_Driver/Src/stm32h5xx_hal_flash_ex.c ****   {
1598:Drivers/STM32H5xx_HAL_Driver/Src/stm32h5xx_hal_flash_ex.c ****     /* Configure Watermark Protection for bank 1 */
1599:Drivers/STM32H5xx_HAL_Driver/Src/stm32h5xx_hal_flash_ex.c ****     FLASH->SECWM1R_PRG = ((WMSecEndSector << FLASH_SECWMR_SECWM_END_Pos) | WMSecStartSector);
1600:Drivers/STM32H5xx_HAL_Driver/Src/stm32h5xx_hal_flash_ex.c ****   }
1601:Drivers/STM32H5xx_HAL_Driver/Src/stm32h5xx_hal_flash_ex.c **** 
1602:Drivers/STM32H5xx_HAL_Driver/Src/stm32h5xx_hal_flash_ex.c ****   if ((Banks & FLASH_BANK_2) == FLASH_BANK_2)
1603:Drivers/STM32H5xx_HAL_Driver/Src/stm32h5xx_hal_flash_ex.c ****   {
1604:Drivers/STM32H5xx_HAL_Driver/Src/stm32h5xx_hal_flash_ex.c ****     /* Configure Watermark Protection for bank 2 */
1605:Drivers/STM32H5xx_HAL_Driver/Src/stm32h5xx_hal_flash_ex.c ****     FLASH->SECWM2R_PRG = ((WMSecEndSector << FLASH_SECWMR_SECWM_END_Pos) | WMSecStartSector);
1606:Drivers/STM32H5xx_HAL_Driver/Src/stm32h5xx_hal_flash_ex.c ****   }
1607:Drivers/STM32H5xx_HAL_Driver/Src/stm32h5xx_hal_flash_ex.c **** }
1608:Drivers/STM32H5xx_HAL_Driver/Src/stm32h5xx_hal_flash_ex.c **** 
1609:Drivers/STM32H5xx_HAL_Driver/Src/stm32h5xx_hal_flash_ex.c **** /**
1610:Drivers/STM32H5xx_HAL_Driver/Src/stm32h5xx_hal_flash_ex.c ****   * @brief  Return the watermark-based secure area configuration.
1611:Drivers/STM32H5xx_HAL_Driver/Src/stm32h5xx_hal_flash_ex.c ****   *
1612:Drivers/STM32H5xx_HAL_Driver/Src/stm32h5xx_hal_flash_ex.c ****   * @param  Bank [in] specifies the bank where to get the watermark protection.
1613:Drivers/STM32H5xx_HAL_Driver/Src/stm32h5xx_hal_flash_ex.c ****   *         This parameter can be exclusively one of the following values:
1614:Drivers/STM32H5xx_HAL_Driver/Src/stm32h5xx_hal_flash_ex.c ****   *         @arg FLASH_BANK_1: Get bank1 watermark configuration
1615:Drivers/STM32H5xx_HAL_Driver/Src/stm32h5xx_hal_flash_ex.c ****   *         @arg FLASH_BANK_2: Get bank2 watermark configuration
1616:Drivers/STM32H5xx_HAL_Driver/Src/stm32h5xx_hal_flash_ex.c ****   *
1617:Drivers/STM32H5xx_HAL_Driver/Src/stm32h5xx_hal_flash_ex.c ****   * @param  WMSecStartSector [out] specifies the start sector of the secure area
1618:Drivers/STM32H5xx_HAL_Driver/Src/stm32h5xx_hal_flash_ex.c ****   *
1619:Drivers/STM32H5xx_HAL_Driver/Src/stm32h5xx_hal_flash_ex.c ****   * @param  WMSecEndSector [out] specifies the end sector of the secure area
1620:Drivers/STM32H5xx_HAL_Driver/Src/stm32h5xx_hal_flash_ex.c ****   *
1621:Drivers/STM32H5xx_HAL_Driver/Src/stm32h5xx_hal_flash_ex.c ****   * @retval None
1622:Drivers/STM32H5xx_HAL_Driver/Src/stm32h5xx_hal_flash_ex.c ****   */
1623:Drivers/STM32H5xx_HAL_Driver/Src/stm32h5xx_hal_flash_ex.c **** static void FLASH_OB_GetWMSEC(uint32_t Bank, uint32_t *WMSecStartSector, uint32_t *WMSecEndSector)
1624:Drivers/STM32H5xx_HAL_Driver/Src/stm32h5xx_hal_flash_ex.c **** {
1625:Drivers/STM32H5xx_HAL_Driver/Src/stm32h5xx_hal_flash_ex.c ****   uint32_t regvalue = 0U;
1626:Drivers/STM32H5xx_HAL_Driver/Src/stm32h5xx_hal_flash_ex.c **** 
1627:Drivers/STM32H5xx_HAL_Driver/Src/stm32h5xx_hal_flash_ex.c ****   /* Read SECWM register */
1628:Drivers/STM32H5xx_HAL_Driver/Src/stm32h5xx_hal_flash_ex.c ****   if (Bank == FLASH_BANK_1)
1629:Drivers/STM32H5xx_HAL_Driver/Src/stm32h5xx_hal_flash_ex.c ****   {
1630:Drivers/STM32H5xx_HAL_Driver/Src/stm32h5xx_hal_flash_ex.c ****     regvalue = FLASH->SECWM1R_CUR;
ARM GAS  C:\Users\sapph\AppData\Local\Temp\ccb3riEs.s 			page 46


1631:Drivers/STM32H5xx_HAL_Driver/Src/stm32h5xx_hal_flash_ex.c ****   }
1632:Drivers/STM32H5xx_HAL_Driver/Src/stm32h5xx_hal_flash_ex.c **** 
1633:Drivers/STM32H5xx_HAL_Driver/Src/stm32h5xx_hal_flash_ex.c ****   if (Bank == FLASH_BANK_2)
1634:Drivers/STM32H5xx_HAL_Driver/Src/stm32h5xx_hal_flash_ex.c ****   {
1635:Drivers/STM32H5xx_HAL_Driver/Src/stm32h5xx_hal_flash_ex.c ****     regvalue = FLASH->SECWM2R_CUR;
1636:Drivers/STM32H5xx_HAL_Driver/Src/stm32h5xx_hal_flash_ex.c ****   }
1637:Drivers/STM32H5xx_HAL_Driver/Src/stm32h5xx_hal_flash_ex.c **** 
1638:Drivers/STM32H5xx_HAL_Driver/Src/stm32h5xx_hal_flash_ex.c ****   /* Get configuration of secure area */
1639:Drivers/STM32H5xx_HAL_Driver/Src/stm32h5xx_hal_flash_ex.c ****   *WMSecStartSector = (regvalue & FLASH_SECWMR_SECWM_STRT);
1640:Drivers/STM32H5xx_HAL_Driver/Src/stm32h5xx_hal_flash_ex.c ****   *WMSecEndSector = ((regvalue & FLASH_SECWMR_SECWM_END) >> FLASH_SECWMR_SECWM_END_Pos);
1641:Drivers/STM32H5xx_HAL_Driver/Src/stm32h5xx_hal_flash_ex.c **** }
1642:Drivers/STM32H5xx_HAL_Driver/Src/stm32h5xx_hal_flash_ex.c **** #endif /* __ARM_FEATURE_CMSE */
1643:Drivers/STM32H5xx_HAL_Driver/Src/stm32h5xx_hal_flash_ex.c **** 
1644:Drivers/STM32H5xx_HAL_Driver/Src/stm32h5xx_hal_flash_ex.c **** /**
1645:Drivers/STM32H5xx_HAL_Driver/Src/stm32h5xx_hal_flash_ex.c ****   * @brief  Configure the hide protection area.
1646:Drivers/STM32H5xx_HAL_Driver/Src/stm32h5xx_hal_flash_ex.c ****   *
1647:Drivers/STM32H5xx_HAL_Driver/Src/stm32h5xx_hal_flash_ex.c ****   * @param  Banks specifies the bank where to apply hide protection
1648:Drivers/STM32H5xx_HAL_Driver/Src/stm32h5xx_hal_flash_ex.c ****   *         This parameter can be one of the following values:
1649:Drivers/STM32H5xx_HAL_Driver/Src/stm32h5xx_hal_flash_ex.c ****   *            @arg FLASH_BANK_1: configure HDP on bank1
1650:Drivers/STM32H5xx_HAL_Driver/Src/stm32h5xx_hal_flash_ex.c ****   *            @arg FLASH_BANK_2: configure HDP on bank2
1651:Drivers/STM32H5xx_HAL_Driver/Src/stm32h5xx_hal_flash_ex.c ****   *            @arg FLASH_BANK_BOTH: configure HDP on both bank1 and bank2
1652:Drivers/STM32H5xx_HAL_Driver/Src/stm32h5xx_hal_flash_ex.c ****   *
1653:Drivers/STM32H5xx_HAL_Driver/Src/stm32h5xx_hal_flash_ex.c ****   * @param  HDPStartSector specifies the start sector of the hide protection area
1654:Drivers/STM32H5xx_HAL_Driver/Src/stm32h5xx_hal_flash_ex.c ****   *         This parameter can be sector number between 0 and (max number of sectors in the bank - 
1655:Drivers/STM32H5xx_HAL_Driver/Src/stm32h5xx_hal_flash_ex.c ****   *
1656:Drivers/STM32H5xx_HAL_Driver/Src/stm32h5xx_hal_flash_ex.c ****   * @param  HDPEndSector specifies the end sector of the hide protection area
1657:Drivers/STM32H5xx_HAL_Driver/Src/stm32h5xx_hal_flash_ex.c ****   *         This parameter can be sector number between HDPStartSector and HDPEndSector (max number
1658:Drivers/STM32H5xx_HAL_Driver/Src/stm32h5xx_hal_flash_ex.c ****   *         in the bank - 1)
1659:Drivers/STM32H5xx_HAL_Driver/Src/stm32h5xx_hal_flash_ex.c ****   *
1660:Drivers/STM32H5xx_HAL_Driver/Src/stm32h5xx_hal_flash_ex.c ****   * @retval None
1661:Drivers/STM32H5xx_HAL_Driver/Src/stm32h5xx_hal_flash_ex.c ****   */
1662:Drivers/STM32H5xx_HAL_Driver/Src/stm32h5xx_hal_flash_ex.c **** static void FLASH_OB_HDPConfig(uint32_t Banks, uint32_t HDPStartSector, uint32_t HDPEndSector)
1663:Drivers/STM32H5xx_HAL_Driver/Src/stm32h5xx_hal_flash_ex.c **** {
 940              		.loc 1 1663 1 is_stmt 1 view -0
 941              		.cfi_startproc
 942              		@ args = 0, pretend = 0, frame = 0
 943              		@ frame_needed = 0, uses_anonymous_args = 0
 944              		@ link register save eliminated.
1664:Drivers/STM32H5xx_HAL_Driver/Src/stm32h5xx_hal_flash_ex.c ****   /* Check the parameters */
1665:Drivers/STM32H5xx_HAL_Driver/Src/stm32h5xx_hal_flash_ex.c ****   assert_param(IS_FLASH_BANK(Banks));
 945              		.loc 1 1665 3 view .LVU294
1666:Drivers/STM32H5xx_HAL_Driver/Src/stm32h5xx_hal_flash_ex.c ****   assert_param(IS_FLASH_SECTOR(HDPStartSector));
 946              		.loc 1 1666 3 view .LVU295
1667:Drivers/STM32H5xx_HAL_Driver/Src/stm32h5xx_hal_flash_ex.c ****   assert_param(IS_FLASH_SECTOR(HDPEndSector));
 947              		.loc 1 1667 3 view .LVU296
1668:Drivers/STM32H5xx_HAL_Driver/Src/stm32h5xx_hal_flash_ex.c **** 
1669:Drivers/STM32H5xx_HAL_Driver/Src/stm32h5xx_hal_flash_ex.c ****   /* Write HDP registers */
1670:Drivers/STM32H5xx_HAL_Driver/Src/stm32h5xx_hal_flash_ex.c ****   if ((Banks & FLASH_BANK_1) == FLASH_BANK_1)
 948              		.loc 1 1670 3 view .LVU297
 949              		.loc 1 1670 6 is_stmt 0 view .LVU298
 950 0000 10F0010F 		tst	r0, #1
 951 0004 10D0     		beq	.L91
1663:Drivers/STM32H5xx_HAL_Driver/Src/stm32h5xx_hal_flash_ex.c ****   /* Check the parameters */
 952              		.loc 1 1663 1 view .LVU299
 953 0006 10B4     		push	{r4}
 954              		.cfi_def_cfa_offset 4
 955              		.cfi_offset 4, -4
ARM GAS  C:\Users\sapph\AppData\Local\Temp\ccb3riEs.s 			page 47


1671:Drivers/STM32H5xx_HAL_Driver/Src/stm32h5xx_hal_flash_ex.c ****   {
1672:Drivers/STM32H5xx_HAL_Driver/Src/stm32h5xx_hal_flash_ex.c ****     /* Configure hide Protection for bank 1 */
1673:Drivers/STM32H5xx_HAL_Driver/Src/stm32h5xx_hal_flash_ex.c ****     FLASH->HDP1R_PRG = ((HDPEndSector << FLASH_HDPR_HDP_END_Pos) | HDPStartSector);
 956              		.loc 1 1673 5 is_stmt 1 view .LVU300
 957              		.loc 1 1673 66 is_stmt 0 view .LVU301
 958 0008 41EA0243 		orr	r3, r1, r2, lsl #16
 959              		.loc 1 1673 22 view .LVU302
 960 000c 0B4C     		ldr	r4, .L96
 961 000e C4F8FC30 		str	r3, [r4, #252]
1674:Drivers/STM32H5xx_HAL_Driver/Src/stm32h5xx_hal_flash_ex.c ****   }
1675:Drivers/STM32H5xx_HAL_Driver/Src/stm32h5xx_hal_flash_ex.c **** 
1676:Drivers/STM32H5xx_HAL_Driver/Src/stm32h5xx_hal_flash_ex.c ****   if ((Banks & FLASH_BANK_2) == FLASH_BANK_2)
 962              		.loc 1 1676 3 is_stmt 1 view .LVU303
 963              		.loc 1 1676 6 is_stmt 0 view .LVU304
 964 0012 10F0020F 		tst	r0, #2
 965 0016 04D0     		beq	.L87
1677:Drivers/STM32H5xx_HAL_Driver/Src/stm32h5xx_hal_flash_ex.c ****   {
1678:Drivers/STM32H5xx_HAL_Driver/Src/stm32h5xx_hal_flash_ex.c ****     /* Configure hide Protection for bank 2 */
1679:Drivers/STM32H5xx_HAL_Driver/Src/stm32h5xx_hal_flash_ex.c ****     FLASH->HDP2R_PRG = ((HDPEndSector << FLASH_HDPR_HDP_END_Pos) | HDPStartSector);
 966              		.loc 1 1679 5 is_stmt 1 view .LVU305
 967              		.loc 1 1679 66 is_stmt 0 view .LVU306
 968 0018 41EA0241 		orr	r1, r1, r2, lsl #16
 969              	.LVL68:
 970              		.loc 1 1679 22 view .LVU307
 971 001c 074B     		ldr	r3, .L96
 972 001e C3F8FC11 		str	r1, [r3, #508]
 973              	.L87:
1680:Drivers/STM32H5xx_HAL_Driver/Src/stm32h5xx_hal_flash_ex.c ****   }
1681:Drivers/STM32H5xx_HAL_Driver/Src/stm32h5xx_hal_flash_ex.c **** }
 974              		.loc 1 1681 1 view .LVU308
 975 0022 5DF8044B 		ldr	r4, [sp], #4
 976              		.cfi_restore 4
 977              		.cfi_def_cfa_offset 0
 978 0026 7047     		bx	lr
 979              	.LVL69:
 980              	.L91:
1676:Drivers/STM32H5xx_HAL_Driver/Src/stm32h5xx_hal_flash_ex.c ****   {
 981              		.loc 1 1676 3 is_stmt 1 view .LVU309
1676:Drivers/STM32H5xx_HAL_Driver/Src/stm32h5xx_hal_flash_ex.c ****   {
 982              		.loc 1 1676 6 is_stmt 0 view .LVU310
 983 0028 10F0020F 		tst	r0, #2
 984 002c 05D0     		beq	.L93
1679:Drivers/STM32H5xx_HAL_Driver/Src/stm32h5xx_hal_flash_ex.c ****   }
 985              		.loc 1 1679 5 is_stmt 1 view .LVU311
1679:Drivers/STM32H5xx_HAL_Driver/Src/stm32h5xx_hal_flash_ex.c ****   }
 986              		.loc 1 1679 66 is_stmt 0 view .LVU312
 987 002e 41EA0241 		orr	r1, r1, r2, lsl #16
 988              	.LVL70:
1679:Drivers/STM32H5xx_HAL_Driver/Src/stm32h5xx_hal_flash_ex.c ****   }
 989              		.loc 1 1679 22 view .LVU313
 990 0032 024B     		ldr	r3, .L96
 991 0034 C3F8FC11 		str	r1, [r3, #508]
 992 0038 7047     		bx	lr
 993              	.LVL71:
 994              	.L93:
1679:Drivers/STM32H5xx_HAL_Driver/Src/stm32h5xx_hal_flash_ex.c ****   }
 995              		.loc 1 1679 22 view .LVU314
ARM GAS  C:\Users\sapph\AppData\Local\Temp\ccb3riEs.s 			page 48


 996 003a 7047     		bx	lr
 997              	.L97:
 998              		.align	2
 999              	.L96:
 1000 003c 00200240 		.word	1073881088
 1001              		.cfi_endproc
 1002              	.LFE188:
 1004              		.section	.text.FLASH_OB_GetHDP,"ax",%progbits
 1005              		.align	1
 1006              		.syntax unified
 1007              		.thumb
 1008              		.thumb_func
 1010              	FLASH_OB_GetHDP:
 1011              	.LVL72:
 1012              	.LFB189:
1682:Drivers/STM32H5xx_HAL_Driver/Src/stm32h5xx_hal_flash_ex.c **** 
1683:Drivers/STM32H5xx_HAL_Driver/Src/stm32h5xx_hal_flash_ex.c **** /**
1684:Drivers/STM32H5xx_HAL_Driver/Src/stm32h5xx_hal_flash_ex.c ****   * @brief  Return the hide protection area configuration.
1685:Drivers/STM32H5xx_HAL_Driver/Src/stm32h5xx_hal_flash_ex.c ****   *
1686:Drivers/STM32H5xx_HAL_Driver/Src/stm32h5xx_hal_flash_ex.c ****   * @param  Bank [in] specifies the bank where to get the HDP protection.
1687:Drivers/STM32H5xx_HAL_Driver/Src/stm32h5xx_hal_flash_ex.c ****   *         This parameter can be exclusively one of the following values:
1688:Drivers/STM32H5xx_HAL_Driver/Src/stm32h5xx_hal_flash_ex.c ****   *         @arg FLASH_BANK_1: Get bank1 HDP configuration
1689:Drivers/STM32H5xx_HAL_Driver/Src/stm32h5xx_hal_flash_ex.c ****   *         @arg FLASH_BANK_2: Get bank2 HDP configuration
1690:Drivers/STM32H5xx_HAL_Driver/Src/stm32h5xx_hal_flash_ex.c ****   *
1691:Drivers/STM32H5xx_HAL_Driver/Src/stm32h5xx_hal_flash_ex.c ****   * @param  HDPStartSector [out] specifies the start sector of the HDP area
1692:Drivers/STM32H5xx_HAL_Driver/Src/stm32h5xx_hal_flash_ex.c ****   *
1693:Drivers/STM32H5xx_HAL_Driver/Src/stm32h5xx_hal_flash_ex.c ****   * @param  HDPEndSector [out] specifies the end sector of the HDP area
1694:Drivers/STM32H5xx_HAL_Driver/Src/stm32h5xx_hal_flash_ex.c ****   *
1695:Drivers/STM32H5xx_HAL_Driver/Src/stm32h5xx_hal_flash_ex.c ****   * @retval None
1696:Drivers/STM32H5xx_HAL_Driver/Src/stm32h5xx_hal_flash_ex.c ****   */
1697:Drivers/STM32H5xx_HAL_Driver/Src/stm32h5xx_hal_flash_ex.c **** static void FLASH_OB_GetHDP(uint32_t Bank, uint32_t *HDPStartSector, uint32_t *HDPEndSector)
1698:Drivers/STM32H5xx_HAL_Driver/Src/stm32h5xx_hal_flash_ex.c **** {
 1013              		.loc 1 1698 1 is_stmt 1 view -0
 1014              		.cfi_startproc
 1015              		@ args = 0, pretend = 0, frame = 0
 1016              		@ frame_needed = 0, uses_anonymous_args = 0
 1017              		@ link register save eliminated.
1699:Drivers/STM32H5xx_HAL_Driver/Src/stm32h5xx_hal_flash_ex.c ****   uint32_t regvalue = 0U;
 1018              		.loc 1 1699 3 view .LVU316
1700:Drivers/STM32H5xx_HAL_Driver/Src/stm32h5xx_hal_flash_ex.c **** 
1701:Drivers/STM32H5xx_HAL_Driver/Src/stm32h5xx_hal_flash_ex.c ****   /* Read SECWM register */
1702:Drivers/STM32H5xx_HAL_Driver/Src/stm32h5xx_hal_flash_ex.c ****   if (Bank == FLASH_BANK_1)
 1019              		.loc 1 1702 3 view .LVU317
 1020              		.loc 1 1702 6 is_stmt 0 view .LVU318
 1021 0000 0128     		cmp	r0, #1
 1022 0002 09D0     		beq	.L102
1699:Drivers/STM32H5xx_HAL_Driver/Src/stm32h5xx_hal_flash_ex.c ****   uint32_t regvalue = 0U;
 1023              		.loc 1 1699 12 view .LVU319
 1024 0004 0023     		movs	r3, #0
 1025              	.LVL73:
 1026              	.L99:
1703:Drivers/STM32H5xx_HAL_Driver/Src/stm32h5xx_hal_flash_ex.c ****   {
1704:Drivers/STM32H5xx_HAL_Driver/Src/stm32h5xx_hal_flash_ex.c ****     regvalue = FLASH->HDP1R_CUR;
1705:Drivers/STM32H5xx_HAL_Driver/Src/stm32h5xx_hal_flash_ex.c ****   }
1706:Drivers/STM32H5xx_HAL_Driver/Src/stm32h5xx_hal_flash_ex.c **** 
1707:Drivers/STM32H5xx_HAL_Driver/Src/stm32h5xx_hal_flash_ex.c ****   if (Bank == FLASH_BANK_2)
 1027              		.loc 1 1707 3 is_stmt 1 view .LVU320
ARM GAS  C:\Users\sapph\AppData\Local\Temp\ccb3riEs.s 			page 49


 1028              		.loc 1 1707 6 is_stmt 0 view .LVU321
 1029 0006 0228     		cmp	r0, #2
 1030 0008 0AD0     		beq	.L103
 1031              	.L100:
1708:Drivers/STM32H5xx_HAL_Driver/Src/stm32h5xx_hal_flash_ex.c ****   {
1709:Drivers/STM32H5xx_HAL_Driver/Src/stm32h5xx_hal_flash_ex.c ****     regvalue = FLASH->HDP2R_CUR;
1710:Drivers/STM32H5xx_HAL_Driver/Src/stm32h5xx_hal_flash_ex.c ****   }
1711:Drivers/STM32H5xx_HAL_Driver/Src/stm32h5xx_hal_flash_ex.c **** 
1712:Drivers/STM32H5xx_HAL_Driver/Src/stm32h5xx_hal_flash_ex.c ****   /* Get configuration of HDP area */
1713:Drivers/STM32H5xx_HAL_Driver/Src/stm32h5xx_hal_flash_ex.c ****   *HDPStartSector = (regvalue & FLASH_HDPR_HDP_STRT);
 1032              		.loc 1 1713 3 is_stmt 1 view .LVU322
 1033              		.loc 1 1713 31 is_stmt 0 view .LVU323
 1034 000a 03F01F00 		and	r0, r3, #31
 1035              	.LVL74:
 1036              		.loc 1 1713 19 view .LVU324
 1037 000e 0860     		str	r0, [r1]
1714:Drivers/STM32H5xx_HAL_Driver/Src/stm32h5xx_hal_flash_ex.c ****   *HDPEndSector = ((regvalue & FLASH_HDPR_HDP_END) >> FLASH_HDPR_HDP_END_Pos);
 1038              		.loc 1 1714 3 is_stmt 1 view .LVU325
 1039              		.loc 1 1714 52 is_stmt 0 view .LVU326
 1040 0010 C3F30443 		ubfx	r3, r3, #16, #5
 1041              	.LVL75:
 1042              		.loc 1 1714 17 view .LVU327
 1043 0014 1360     		str	r3, [r2]
1715:Drivers/STM32H5xx_HAL_Driver/Src/stm32h5xx_hal_flash_ex.c **** }
 1044              		.loc 1 1715 1 view .LVU328
 1045 0016 7047     		bx	lr
 1046              	.LVL76:
 1047              	.L102:
1704:Drivers/STM32H5xx_HAL_Driver/Src/stm32h5xx_hal_flash_ex.c ****   }
 1048              		.loc 1 1704 5 is_stmt 1 view .LVU329
1704:Drivers/STM32H5xx_HAL_Driver/Src/stm32h5xx_hal_flash_ex.c ****   }
 1049              		.loc 1 1704 14 is_stmt 0 view .LVU330
 1050 0018 034B     		ldr	r3, .L104
 1051 001a D3F8F830 		ldr	r3, [r3, #248]
 1052              	.LVL77:
1704:Drivers/STM32H5xx_HAL_Driver/Src/stm32h5xx_hal_flash_ex.c ****   }
 1053              		.loc 1 1704 14 view .LVU331
 1054 001e F2E7     		b	.L99
 1055              	.L103:
1709:Drivers/STM32H5xx_HAL_Driver/Src/stm32h5xx_hal_flash_ex.c ****   }
 1056              		.loc 1 1709 5 is_stmt 1 view .LVU332
1709:Drivers/STM32H5xx_HAL_Driver/Src/stm32h5xx_hal_flash_ex.c ****   }
 1057              		.loc 1 1709 14 is_stmt 0 view .LVU333
 1058 0020 014B     		ldr	r3, .L104
 1059              	.LVL78:
1709:Drivers/STM32H5xx_HAL_Driver/Src/stm32h5xx_hal_flash_ex.c ****   }
 1060              		.loc 1 1709 14 view .LVU334
 1061 0022 D3F8F831 		ldr	r3, [r3, #504]
 1062              	.LVL79:
1709:Drivers/STM32H5xx_HAL_Driver/Src/stm32h5xx_hal_flash_ex.c ****   }
 1063              		.loc 1 1709 14 view .LVU335
 1064 0026 F0E7     		b	.L100
 1065              	.L105:
 1066              		.align	2
 1067              	.L104:
 1068 0028 00200240 		.word	1073881088
 1069              		.cfi_endproc
ARM GAS  C:\Users\sapph\AppData\Local\Temp\ccb3riEs.s 			page 50


 1070              	.LFE189:
 1072              		.section	.text.FLASH_OB_EDATAConfig,"ax",%progbits
 1073              		.align	1
 1074              		.syntax unified
 1075              		.thumb
 1076              		.thumb_func
 1078              	FLASH_OB_EDATAConfig:
 1079              	.LVL80:
 1080              	.LFB190:
1716:Drivers/STM32H5xx_HAL_Driver/Src/stm32h5xx_hal_flash_ex.c **** 
1717:Drivers/STM32H5xx_HAL_Driver/Src/stm32h5xx_hal_flash_ex.c **** #if defined(FLASH_EDATAR_EDATA_EN)
1718:Drivers/STM32H5xx_HAL_Driver/Src/stm32h5xx_hal_flash_ex.c **** /**
1719:Drivers/STM32H5xx_HAL_Driver/Src/stm32h5xx_hal_flash_ex.c ****   * @brief  Configure the Flash high-cycle area.
1720:Drivers/STM32H5xx_HAL_Driver/Src/stm32h5xx_hal_flash_ex.c ****   *
1721:Drivers/STM32H5xx_HAL_Driver/Src/stm32h5xx_hal_flash_ex.c ****   * @param  Banks specifies the bank where to apply Flash high-cycle data area
1722:Drivers/STM32H5xx_HAL_Driver/Src/stm32h5xx_hal_flash_ex.c ****   *          This parameter can be one of the following values:
1723:Drivers/STM32H5xx_HAL_Driver/Src/stm32h5xx_hal_flash_ex.c ****   *            @arg FLASH_BANK_1: configure Flash high-cycle area on bank1
1724:Drivers/STM32H5xx_HAL_Driver/Src/stm32h5xx_hal_flash_ex.c ****   *            @arg FLASH_BANK_2: configure Flash high-cycle area on bank2
1725:Drivers/STM32H5xx_HAL_Driver/Src/stm32h5xx_hal_flash_ex.c ****   *            @arg FLASH_BANK_BOTH: configure Flash high-cycle area on both bank1 and bank2
1726:Drivers/STM32H5xx_HAL_Driver/Src/stm32h5xx_hal_flash_ex.c ****   *
1727:Drivers/STM32H5xx_HAL_Driver/Src/stm32h5xx_hal_flash_ex.c ****   * @param  EDATASize specifies the size (in sectors) of the Flash high-cycle data area
1728:Drivers/STM32H5xx_HAL_Driver/Src/stm32h5xx_hal_flash_ex.c ****   *         This parameter can be sectors number between 0 and 8
1729:Drivers/STM32H5xx_HAL_Driver/Src/stm32h5xx_hal_flash_ex.c ****   *         0: Disable all EDATA sectors.
1730:Drivers/STM32H5xx_HAL_Driver/Src/stm32h5xx_hal_flash_ex.c ****   *         1: The last sector is reserved for flash high-cycle data.
1731:Drivers/STM32H5xx_HAL_Driver/Src/stm32h5xx_hal_flash_ex.c ****   *         2: The two last sectors are reserved for flash high-cycle data.
1732:Drivers/STM32H5xx_HAL_Driver/Src/stm32h5xx_hal_flash_ex.c ****   *         3: The three last sectors are reserved for flash high-cycle data
1733:Drivers/STM32H5xx_HAL_Driver/Src/stm32h5xx_hal_flash_ex.c ****   *         4: The four last sectors is reserved for flash high-cycle data.
1734:Drivers/STM32H5xx_HAL_Driver/Src/stm32h5xx_hal_flash_ex.c ****   *         5: The five last sectors are reserved for flash high-cycle data.
1735:Drivers/STM32H5xx_HAL_Driver/Src/stm32h5xx_hal_flash_ex.c ****   *         6: The six last sectors are reserved for flash high-cycle data.
1736:Drivers/STM32H5xx_HAL_Driver/Src/stm32h5xx_hal_flash_ex.c ****   *         7: The seven last sectors are reserved for flash high-cycle data.
1737:Drivers/STM32H5xx_HAL_Driver/Src/stm32h5xx_hal_flash_ex.c ****   *         8: The eight last sectors are reserved for flash high-cycle data.
1738:Drivers/STM32H5xx_HAL_Driver/Src/stm32h5xx_hal_flash_ex.c ****   *
1739:Drivers/STM32H5xx_HAL_Driver/Src/stm32h5xx_hal_flash_ex.c ****   * @retval None
1740:Drivers/STM32H5xx_HAL_Driver/Src/stm32h5xx_hal_flash_ex.c ****   */
1741:Drivers/STM32H5xx_HAL_Driver/Src/stm32h5xx_hal_flash_ex.c **** static void FLASH_OB_EDATAConfig(uint32_t Banks, uint32_t EDATASize)
1742:Drivers/STM32H5xx_HAL_Driver/Src/stm32h5xx_hal_flash_ex.c **** {
 1081              		.loc 1 1742 1 is_stmt 1 view -0
 1082              		.cfi_startproc
 1083              		@ args = 0, pretend = 0, frame = 0
 1084              		@ frame_needed = 0, uses_anonymous_args = 0
 1085              		@ link register save eliminated.
1743:Drivers/STM32H5xx_HAL_Driver/Src/stm32h5xx_hal_flash_ex.c ****   /* Check the parameters */
1744:Drivers/STM32H5xx_HAL_Driver/Src/stm32h5xx_hal_flash_ex.c ****   assert_param(IS_FLASH_BANK(Banks));
 1086              		.loc 1 1744 3 view .LVU337
1745:Drivers/STM32H5xx_HAL_Driver/Src/stm32h5xx_hal_flash_ex.c ****   assert_param(IS_FLASH_EDATA_SIZE(EDATASize));
 1087              		.loc 1 1745 3 view .LVU338
1746:Drivers/STM32H5xx_HAL_Driver/Src/stm32h5xx_hal_flash_ex.c **** 
1747:Drivers/STM32H5xx_HAL_Driver/Src/stm32h5xx_hal_flash_ex.c ****   if (EDATASize != 0U)
 1088              		.loc 1 1747 3 view .LVU339
 1089              		.loc 1 1747 6 is_stmt 0 view .LVU340
 1090 0000 0B46     		mov	r3, r1
 1091 0002 91B1     		cbz	r1, .L107
1748:Drivers/STM32H5xx_HAL_Driver/Src/stm32h5xx_hal_flash_ex.c ****   {
1749:Drivers/STM32H5xx_HAL_Driver/Src/stm32h5xx_hal_flash_ex.c ****     /* Write EDATA registers */
1750:Drivers/STM32H5xx_HAL_Driver/Src/stm32h5xx_hal_flash_ex.c ****     if ((Banks & FLASH_BANK_1) == FLASH_BANK_1)
 1092              		.loc 1 1750 5 is_stmt 1 view .LVU341
 1093              		.loc 1 1750 8 is_stmt 0 view .LVU342
ARM GAS  C:\Users\sapph\AppData\Local\Temp\ccb3riEs.s 			page 51


 1094 0004 10F0010F 		tst	r0, #1
 1095 0008 05D0     		beq	.L108
1751:Drivers/STM32H5xx_HAL_Driver/Src/stm32h5xx_hal_flash_ex.c ****     {
1752:Drivers/STM32H5xx_HAL_Driver/Src/stm32h5xx_hal_flash_ex.c ****       /* Configure Flash high-cycle data for bank 1 */
1753:Drivers/STM32H5xx_HAL_Driver/Src/stm32h5xx_hal_flash_ex.c ****       FLASH->EDATA1R_PRG = (FLASH_EDATAR_EDATA_EN | (EDATASize - 1U));
 1096              		.loc 1 1753 7 is_stmt 1 view .LVU343
 1097              		.loc 1 1753 64 is_stmt 0 view .LVU344
 1098 000a 4A1E     		subs	r2, r1, #1
 1099              		.loc 1 1753 51 view .LVU345
 1100 000c 42F40042 		orr	r2, r2, #32768
 1101              		.loc 1 1753 26 view .LVU346
 1102 0010 0D49     		ldr	r1, .L111
 1103              	.LVL81:
 1104              		.loc 1 1753 26 view .LVU347
 1105 0012 C1F8F420 		str	r2, [r1, #244]
 1106              	.L108:
1754:Drivers/STM32H5xx_HAL_Driver/Src/stm32h5xx_hal_flash_ex.c ****     }
1755:Drivers/STM32H5xx_HAL_Driver/Src/stm32h5xx_hal_flash_ex.c **** 
1756:Drivers/STM32H5xx_HAL_Driver/Src/stm32h5xx_hal_flash_ex.c ****     if ((Banks & FLASH_BANK_2) == FLASH_BANK_2)
 1107              		.loc 1 1756 5 is_stmt 1 view .LVU348
 1108              		.loc 1 1756 8 is_stmt 0 view .LVU349
 1109 0016 10F0020F 		tst	r0, #2
 1110 001a 14D0     		beq	.L106
1757:Drivers/STM32H5xx_HAL_Driver/Src/stm32h5xx_hal_flash_ex.c ****     {
1758:Drivers/STM32H5xx_HAL_Driver/Src/stm32h5xx_hal_flash_ex.c ****       /* Configure Flash high-cycle data for bank 2 */
1759:Drivers/STM32H5xx_HAL_Driver/Src/stm32h5xx_hal_flash_ex.c ****       FLASH->EDATA2R_PRG = (FLASH_EDATAR_EDATA_EN | (EDATASize - 1U));
 1111              		.loc 1 1759 7 is_stmt 1 view .LVU350
 1112              		.loc 1 1759 64 is_stmt 0 view .LVU351
 1113 001c 013B     		subs	r3, r3, #1
 1114              	.LVL82:
 1115              		.loc 1 1759 51 view .LVU352
 1116 001e 43F40043 		orr	r3, r3, #32768
 1117              	.LVL83:
 1118              		.loc 1 1759 26 view .LVU353
 1119 0022 094A     		ldr	r2, .L111
 1120 0024 C2F8F431 		str	r3, [r2, #500]
 1121 0028 7047     		bx	lr
 1122              	.LVL84:
 1123              	.L107:
1760:Drivers/STM32H5xx_HAL_Driver/Src/stm32h5xx_hal_flash_ex.c ****     }
1761:Drivers/STM32H5xx_HAL_Driver/Src/stm32h5xx_hal_flash_ex.c ****   }
1762:Drivers/STM32H5xx_HAL_Driver/Src/stm32h5xx_hal_flash_ex.c ****   else
1763:Drivers/STM32H5xx_HAL_Driver/Src/stm32h5xx_hal_flash_ex.c ****   {
1764:Drivers/STM32H5xx_HAL_Driver/Src/stm32h5xx_hal_flash_ex.c ****     /* Write EDATA registers */
1765:Drivers/STM32H5xx_HAL_Driver/Src/stm32h5xx_hal_flash_ex.c ****     if ((Banks & FLASH_BANK_1) == FLASH_BANK_1)
 1124              		.loc 1 1765 5 is_stmt 1 view .LVU354
 1125              		.loc 1 1765 8 is_stmt 0 view .LVU355
 1126 002a 10F0010F 		tst	r0, #1
 1127 002e 03D0     		beq	.L110
1766:Drivers/STM32H5xx_HAL_Driver/Src/stm32h5xx_hal_flash_ex.c ****     {
1767:Drivers/STM32H5xx_HAL_Driver/Src/stm32h5xx_hal_flash_ex.c ****       /* Disable Flash high-cycle data for bank 1 */
1768:Drivers/STM32H5xx_HAL_Driver/Src/stm32h5xx_hal_flash_ex.c ****       FLASH->EDATA1R_PRG = 0U;
 1128              		.loc 1 1768 7 is_stmt 1 view .LVU356
 1129              		.loc 1 1768 26 is_stmt 0 view .LVU357
 1130 0030 054B     		ldr	r3, .L111
 1131 0032 0022     		movs	r2, #0
 1132 0034 C3F8F420 		str	r2, [r3, #244]
ARM GAS  C:\Users\sapph\AppData\Local\Temp\ccb3riEs.s 			page 52


 1133              	.L110:
1769:Drivers/STM32H5xx_HAL_Driver/Src/stm32h5xx_hal_flash_ex.c ****     }
1770:Drivers/STM32H5xx_HAL_Driver/Src/stm32h5xx_hal_flash_ex.c **** 
1771:Drivers/STM32H5xx_HAL_Driver/Src/stm32h5xx_hal_flash_ex.c ****     if ((Banks & FLASH_BANK_2) == FLASH_BANK_2)
 1134              		.loc 1 1771 5 is_stmt 1 view .LVU358
 1135              		.loc 1 1771 8 is_stmt 0 view .LVU359
 1136 0038 10F0020F 		tst	r0, #2
 1137 003c 03D0     		beq	.L106
1772:Drivers/STM32H5xx_HAL_Driver/Src/stm32h5xx_hal_flash_ex.c ****     {
1773:Drivers/STM32H5xx_HAL_Driver/Src/stm32h5xx_hal_flash_ex.c ****       /* Disable Flash high-cycle data for bank 2 */
1774:Drivers/STM32H5xx_HAL_Driver/Src/stm32h5xx_hal_flash_ex.c ****       FLASH->EDATA2R_PRG = 0U;
 1138              		.loc 1 1774 7 is_stmt 1 view .LVU360
 1139              		.loc 1 1774 26 is_stmt 0 view .LVU361
 1140 003e 024B     		ldr	r3, .L111
 1141 0040 0022     		movs	r2, #0
 1142 0042 C3F8F421 		str	r2, [r3, #500]
 1143              	.LVL85:
 1144              	.L106:
1775:Drivers/STM32H5xx_HAL_Driver/Src/stm32h5xx_hal_flash_ex.c ****     }
1776:Drivers/STM32H5xx_HAL_Driver/Src/stm32h5xx_hal_flash_ex.c ****   }
1777:Drivers/STM32H5xx_HAL_Driver/Src/stm32h5xx_hal_flash_ex.c **** }
 1145              		.loc 1 1777 1 view .LVU362
 1146 0046 7047     		bx	lr
 1147              	.L112:
 1148              		.align	2
 1149              	.L111:
 1150 0048 00200240 		.word	1073881088
 1151              		.cfi_endproc
 1152              	.LFE190:
 1154              		.section	.text.FLASH_OB_GetEDATA,"ax",%progbits
 1155              		.align	1
 1156              		.syntax unified
 1157              		.thumb
 1158              		.thumb_func
 1160              	FLASH_OB_GetEDATA:
 1161              	.LVL86:
 1162              	.LFB191:
1778:Drivers/STM32H5xx_HAL_Driver/Src/stm32h5xx_hal_flash_ex.c **** 
1779:Drivers/STM32H5xx_HAL_Driver/Src/stm32h5xx_hal_flash_ex.c **** /**
1780:Drivers/STM32H5xx_HAL_Driver/Src/stm32h5xx_hal_flash_ex.c ****   * @brief  Return the Flash high-cycle data area configuration.
1781:Drivers/STM32H5xx_HAL_Driver/Src/stm32h5xx_hal_flash_ex.c ****   *
1782:Drivers/STM32H5xx_HAL_Driver/Src/stm32h5xx_hal_flash_ex.c ****   * @param  Bank [in] specifies the bank where to get the Flash high-cycle data configuration.
1783:Drivers/STM32H5xx_HAL_Driver/Src/stm32h5xx_hal_flash_ex.c ****   *         This parameter can be exclusively one of the following values:
1784:Drivers/STM32H5xx_HAL_Driver/Src/stm32h5xx_hal_flash_ex.c ****   *         @arg FLASH_BANK_1: Get bank1 Flash high-cycle data configuration
1785:Drivers/STM32H5xx_HAL_Driver/Src/stm32h5xx_hal_flash_ex.c ****   *         @arg FLASH_BANK_2: Get bank2 Flash high-cycle data configuration
1786:Drivers/STM32H5xx_HAL_Driver/Src/stm32h5xx_hal_flash_ex.c ****   *
1787:Drivers/STM32H5xx_HAL_Driver/Src/stm32h5xx_hal_flash_ex.c ****   * @param  EDATASize [out] specifies the size (in sectors) of the Flash high-cycle data area
1788:Drivers/STM32H5xx_HAL_Driver/Src/stm32h5xx_hal_flash_ex.c ****   *
1789:Drivers/STM32H5xx_HAL_Driver/Src/stm32h5xx_hal_flash_ex.c ****   * @retval None
1790:Drivers/STM32H5xx_HAL_Driver/Src/stm32h5xx_hal_flash_ex.c ****   */
1791:Drivers/STM32H5xx_HAL_Driver/Src/stm32h5xx_hal_flash_ex.c **** static void FLASH_OB_GetEDATA(uint32_t Bank, uint32_t *EDATASize)
1792:Drivers/STM32H5xx_HAL_Driver/Src/stm32h5xx_hal_flash_ex.c **** {
 1163              		.loc 1 1792 1 is_stmt 1 view -0
 1164              		.cfi_startproc
 1165              		@ args = 0, pretend = 0, frame = 0
 1166              		@ frame_needed = 0, uses_anonymous_args = 0
 1167              		@ link register save eliminated.
ARM GAS  C:\Users\sapph\AppData\Local\Temp\ccb3riEs.s 			page 53


1793:Drivers/STM32H5xx_HAL_Driver/Src/stm32h5xx_hal_flash_ex.c ****   uint32_t regvalue = 0U;
 1168              		.loc 1 1793 3 view .LVU364
1794:Drivers/STM32H5xx_HAL_Driver/Src/stm32h5xx_hal_flash_ex.c **** 
1795:Drivers/STM32H5xx_HAL_Driver/Src/stm32h5xx_hal_flash_ex.c ****   /* Read SECWM register */
1796:Drivers/STM32H5xx_HAL_Driver/Src/stm32h5xx_hal_flash_ex.c ****   if (Bank == FLASH_BANK_1)
 1169              		.loc 1 1796 3 view .LVU365
 1170              		.loc 1 1796 6 is_stmt 0 view .LVU366
 1171 0000 0128     		cmp	r0, #1
 1172 0002 0AD0     		beq	.L119
1793:Drivers/STM32H5xx_HAL_Driver/Src/stm32h5xx_hal_flash_ex.c ****   uint32_t regvalue = 0U;
 1173              		.loc 1 1793 12 view .LVU367
 1174 0004 0023     		movs	r3, #0
 1175              	.LVL87:
 1176              	.L114:
1797:Drivers/STM32H5xx_HAL_Driver/Src/stm32h5xx_hal_flash_ex.c ****   {
1798:Drivers/STM32H5xx_HAL_Driver/Src/stm32h5xx_hal_flash_ex.c ****     regvalue = FLASH->EDATA1R_CUR;
1799:Drivers/STM32H5xx_HAL_Driver/Src/stm32h5xx_hal_flash_ex.c ****   }
1800:Drivers/STM32H5xx_HAL_Driver/Src/stm32h5xx_hal_flash_ex.c **** 
1801:Drivers/STM32H5xx_HAL_Driver/Src/stm32h5xx_hal_flash_ex.c ****   if (Bank == FLASH_BANK_2)
 1177              		.loc 1 1801 3 is_stmt 1 view .LVU368
 1178              		.loc 1 1801 6 is_stmt 0 view .LVU369
 1179 0006 0228     		cmp	r0, #2
 1180 0008 0BD0     		beq	.L120
 1181              	.L115:
1802:Drivers/STM32H5xx_HAL_Driver/Src/stm32h5xx_hal_flash_ex.c ****   {
1803:Drivers/STM32H5xx_HAL_Driver/Src/stm32h5xx_hal_flash_ex.c ****     regvalue = FLASH->EDATA2R_CUR;
1804:Drivers/STM32H5xx_HAL_Driver/Src/stm32h5xx_hal_flash_ex.c ****   }
1805:Drivers/STM32H5xx_HAL_Driver/Src/stm32h5xx_hal_flash_ex.c **** 
1806:Drivers/STM32H5xx_HAL_Driver/Src/stm32h5xx_hal_flash_ex.c ****   /* Get configuration of secure area */
1807:Drivers/STM32H5xx_HAL_Driver/Src/stm32h5xx_hal_flash_ex.c ****   if ((regvalue & FLASH_EDATAR_EDATA_EN) != 0U)
 1182              		.loc 1 1807 3 is_stmt 1 view .LVU370
 1183              		.loc 1 1807 6 is_stmt 0 view .LVU371
 1184 000a 13F4004F 		tst	r3, #32768
 1185 000e 0CD0     		beq	.L116
1808:Drivers/STM32H5xx_HAL_Driver/Src/stm32h5xx_hal_flash_ex.c ****   {
1809:Drivers/STM32H5xx_HAL_Driver/Src/stm32h5xx_hal_flash_ex.c ****     /* Encoding of Edata Area size is register value + 1 */
1810:Drivers/STM32H5xx_HAL_Driver/Src/stm32h5xx_hal_flash_ex.c ****     *EDATASize = (regvalue & FLASH_EDATAR_EDATA_STRT) + 1U;
 1186              		.loc 1 1810 5 is_stmt 1 view .LVU372
 1187              		.loc 1 1810 28 is_stmt 0 view .LVU373
 1188 0010 03F00703 		and	r3, r3, #7
 1189              	.LVL88:
 1190              		.loc 1 1810 55 view .LVU374
 1191 0014 0133     		adds	r3, r3, #1
 1192              		.loc 1 1810 16 view .LVU375
 1193 0016 0B60     		str	r3, [r1]
 1194 0018 7047     		bx	lr
 1195              	.LVL89:
 1196              	.L119:
1798:Drivers/STM32H5xx_HAL_Driver/Src/stm32h5xx_hal_flash_ex.c ****   }
 1197              		.loc 1 1798 5 is_stmt 1 view .LVU376
1798:Drivers/STM32H5xx_HAL_Driver/Src/stm32h5xx_hal_flash_ex.c ****   }
 1198              		.loc 1 1798 14 is_stmt 0 view .LVU377
 1199 001a 054B     		ldr	r3, .L121
 1200 001c D3F8F030 		ldr	r3, [r3, #240]
 1201              	.LVL90:
1798:Drivers/STM32H5xx_HAL_Driver/Src/stm32h5xx_hal_flash_ex.c ****   }
 1202              		.loc 1 1798 14 view .LVU378
ARM GAS  C:\Users\sapph\AppData\Local\Temp\ccb3riEs.s 			page 54


 1203 0020 F1E7     		b	.L114
 1204              	.L120:
1803:Drivers/STM32H5xx_HAL_Driver/Src/stm32h5xx_hal_flash_ex.c ****   }
 1205              		.loc 1 1803 5 is_stmt 1 view .LVU379
1803:Drivers/STM32H5xx_HAL_Driver/Src/stm32h5xx_hal_flash_ex.c ****   }
 1206              		.loc 1 1803 14 is_stmt 0 view .LVU380
 1207 0022 034B     		ldr	r3, .L121
 1208              	.LVL91:
1803:Drivers/STM32H5xx_HAL_Driver/Src/stm32h5xx_hal_flash_ex.c ****   }
 1209              		.loc 1 1803 14 view .LVU381
 1210 0024 D3F8F031 		ldr	r3, [r3, #496]
 1211              	.LVL92:
1803:Drivers/STM32H5xx_HAL_Driver/Src/stm32h5xx_hal_flash_ex.c ****   }
 1212              		.loc 1 1803 14 view .LVU382
 1213 0028 EFE7     		b	.L115
 1214              	.L116:
1811:Drivers/STM32H5xx_HAL_Driver/Src/stm32h5xx_hal_flash_ex.c ****   }
1812:Drivers/STM32H5xx_HAL_Driver/Src/stm32h5xx_hal_flash_ex.c ****   else
1813:Drivers/STM32H5xx_HAL_Driver/Src/stm32h5xx_hal_flash_ex.c ****   {
1814:Drivers/STM32H5xx_HAL_Driver/Src/stm32h5xx_hal_flash_ex.c ****     /* No defined Edata area */
1815:Drivers/STM32H5xx_HAL_Driver/Src/stm32h5xx_hal_flash_ex.c ****     *EDATASize = 0U;
 1215              		.loc 1 1815 5 is_stmt 1 view .LVU383
 1216              		.loc 1 1815 16 is_stmt 0 view .LVU384
 1217 002a 0023     		movs	r3, #0
 1218              	.LVL93:
 1219              		.loc 1 1815 16 view .LVU385
 1220 002c 0B60     		str	r3, [r1]
1816:Drivers/STM32H5xx_HAL_Driver/Src/stm32h5xx_hal_flash_ex.c ****   }
1817:Drivers/STM32H5xx_HAL_Driver/Src/stm32h5xx_hal_flash_ex.c **** 
1818:Drivers/STM32H5xx_HAL_Driver/Src/stm32h5xx_hal_flash_ex.c **** }
 1221              		.loc 1 1818 1 view .LVU386
 1222 002e 7047     		bx	lr
 1223              	.L122:
 1224              		.align	2
 1225              	.L121:
 1226 0030 00200240 		.word	1073881088
 1227              		.cfi_endproc
 1228              	.LFE191:
 1230              		.section	.text.HAL_FLASHEx_OBProgram,"ax",%progbits
 1231              		.align	1
 1232              		.global	HAL_FLASHEx_OBProgram
 1233              		.syntax unified
 1234              		.thumb
 1235              		.thumb_func
 1237              	HAL_FLASHEx_OBProgram:
 1238              	.LVL94:
 1239              	.LFB162:
 340:Drivers/STM32H5xx_HAL_Driver/Src/stm32h5xx_hal_flash_ex.c ****   HAL_StatusTypeDef status;
 1240              		.loc 1 340 1 is_stmt 1 view -0
 1241              		.cfi_startproc
 1242              		@ args = 0, pretend = 0, frame = 0
 1243              		@ frame_needed = 0, uses_anonymous_args = 0
 340:Drivers/STM32H5xx_HAL_Driver/Src/stm32h5xx_hal_flash_ex.c ****   HAL_StatusTypeDef status;
 1244              		.loc 1 340 1 is_stmt 0 view .LVU388
 1245 0000 38B5     		push	{r3, r4, r5, lr}
 1246              		.cfi_def_cfa_offset 16
 1247              		.cfi_offset 3, -16
ARM GAS  C:\Users\sapph\AppData\Local\Temp\ccb3riEs.s 			page 55


 1248              		.cfi_offset 4, -12
 1249              		.cfi_offset 5, -8
 1250              		.cfi_offset 14, -4
 341:Drivers/STM32H5xx_HAL_Driver/Src/stm32h5xx_hal_flash_ex.c **** 
 1251              		.loc 1 341 3 is_stmt 1 view .LVU389
 344:Drivers/STM32H5xx_HAL_Driver/Src/stm32h5xx_hal_flash_ex.c **** 
 1252              		.loc 1 344 3 view .LVU390
 347:Drivers/STM32H5xx_HAL_Driver/Src/stm32h5xx_hal_flash_ex.c **** 
 1253              		.loc 1 347 3 view .LVU391
 347:Drivers/STM32H5xx_HAL_Driver/Src/stm32h5xx_hal_flash_ex.c **** 
 1254              		.loc 1 347 3 view .LVU392
 1255 0002 344B     		ldr	r3, .L144
 1256 0004 1B78     		ldrb	r3, [r3]	@ zero_extendqisi2
 1257 0006 012B     		cmp	r3, #1
 1258 0008 62D0     		beq	.L134
 1259 000a 0446     		mov	r4, r0
 347:Drivers/STM32H5xx_HAL_Driver/Src/stm32h5xx_hal_flash_ex.c **** 
 1260              		.loc 1 347 3 discriminator 2 view .LVU393
 1261 000c 314B     		ldr	r3, .L144
 1262 000e 0122     		movs	r2, #1
 1263 0010 1A70     		strb	r2, [r3]
 347:Drivers/STM32H5xx_HAL_Driver/Src/stm32h5xx_hal_flash_ex.c **** 
 1264              		.loc 1 347 3 discriminator 2 view .LVU394
 350:Drivers/STM32H5xx_HAL_Driver/Src/stm32h5xx_hal_flash_ex.c **** 
 1265              		.loc 1 350 3 view .LVU395
 350:Drivers/STM32H5xx_HAL_Driver/Src/stm32h5xx_hal_flash_ex.c **** 
 1266              		.loc 1 350 20 is_stmt 0 view .LVU396
 1267 0012 0022     		movs	r2, #0
 1268 0014 5A60     		str	r2, [r3, #4]
 353:Drivers/STM32H5xx_HAL_Driver/Src/stm32h5xx_hal_flash_ex.c **** 
 1269              		.loc 1 353 3 is_stmt 1 view .LVU397
 353:Drivers/STM32H5xx_HAL_Driver/Src/stm32h5xx_hal_flash_ex.c **** 
 1270              		.loc 1 353 27 is_stmt 0 view .LVU398
 1271 0016 4FF08022 		mov	r2, #-2147450880
 1272 001a 9A60     		str	r2, [r3, #8]
 356:Drivers/STM32H5xx_HAL_Driver/Src/stm32h5xx_hal_flash_ex.c **** 
 1273              		.loc 1 356 3 is_stmt 1 view .LVU399
 356:Drivers/STM32H5xx_HAL_Driver/Src/stm32h5xx_hal_flash_ex.c **** 
 1274              		.loc 1 356 12 is_stmt 0 view .LVU400
 1275 001c 4FF47A70 		mov	r0, #1000
 1276              	.LVL95:
 356:Drivers/STM32H5xx_HAL_Driver/Src/stm32h5xx_hal_flash_ex.c **** 
 1277              		.loc 1 356 12 view .LVU401
 1278 0020 FFF7FEFF 		bl	FLASH_WaitForLastOperation
 1279              	.LVL96:
 358:Drivers/STM32H5xx_HAL_Driver/Src/stm32h5xx_hal_flash_ex.c ****   {
 1280              		.loc 1 358 3 is_stmt 1 view .LVU402
 358:Drivers/STM32H5xx_HAL_Driver/Src/stm32h5xx_hal_flash_ex.c ****   {
 1281              		.loc 1 358 6 is_stmt 0 view .LVU403
 1282 0024 0546     		mov	r5, r0
 1283 0026 30BB     		cbnz	r0, .L125
 361:Drivers/STM32H5xx_HAL_Driver/Src/stm32h5xx_hal_flash_ex.c ****     {
 1284              		.loc 1 361 5 is_stmt 1 view .LVU404
 361:Drivers/STM32H5xx_HAL_Driver/Src/stm32h5xx_hal_flash_ex.c ****     {
 1285              		.loc 1 361 17 is_stmt 0 view .LVU405
 1286 0028 2368     		ldr	r3, [r4]
 361:Drivers/STM32H5xx_HAL_Driver/Src/stm32h5xx_hal_flash_ex.c ****     {
ARM GAS  C:\Users\sapph\AppData\Local\Temp\ccb3riEs.s 			page 56


 1287              		.loc 1 361 8 view .LVU406
 1288 002a 13F0010F 		tst	r3, #1
 1289 002e 06D0     		beq	.L126
 363:Drivers/STM32H5xx_HAL_Driver/Src/stm32h5xx_hal_flash_ex.c **** 
 1290              		.loc 1 363 7 is_stmt 1 view .LVU407
 365:Drivers/STM32H5xx_HAL_Driver/Src/stm32h5xx_hal_flash_ex.c ****       {
 1291              		.loc 1 365 7 view .LVU408
 365:Drivers/STM32H5xx_HAL_Driver/Src/stm32h5xx_hal_flash_ex.c ****       {
 1292              		.loc 1 365 18 is_stmt 0 view .LVU409
 1293 0030 A369     		ldr	r3, [r4, #24]
 365:Drivers/STM32H5xx_HAL_Driver/Src/stm32h5xx_hal_flash_ex.c ****       {
 1294              		.loc 1 365 10 view .LVU410
 1295 0032 012B     		cmp	r3, #1
 1296 0034 24D0     		beq	.L136
 373:Drivers/STM32H5xx_HAL_Driver/Src/stm32h5xx_hal_flash_ex.c ****       }
 1297              		.loc 1 373 9 is_stmt 1 view .LVU411
 1298 0036 6169     		ldr	r1, [r4, #20]
 1299 0038 E069     		ldr	r0, [r4, #28]
 1300              	.LVL97:
 373:Drivers/STM32H5xx_HAL_Driver/Src/stm32h5xx_hal_flash_ex.c ****       }
 1301              		.loc 1 373 9 is_stmt 0 view .LVU412
 1302 003a FFF7FEFF 		bl	FLASH_OB_DisableWRP
 1303              	.LVL98:
 1304              	.L126:
 378:Drivers/STM32H5xx_HAL_Driver/Src/stm32h5xx_hal_flash_ex.c ****     {
 1305              		.loc 1 378 5 is_stmt 1 view .LVU413
 378:Drivers/STM32H5xx_HAL_Driver/Src/stm32h5xx_hal_flash_ex.c ****     {
 1306              		.loc 1 378 17 is_stmt 0 view .LVU414
 1307 003e 2368     		ldr	r3, [r4]
 378:Drivers/STM32H5xx_HAL_Driver/Src/stm32h5xx_hal_flash_ex.c ****     {
 1308              		.loc 1 378 8 view .LVU415
 1309 0040 13F0020F 		tst	r3, #2
 1310 0044 21D1     		bne	.L137
 1311              	.L128:
 385:Drivers/STM32H5xx_HAL_Driver/Src/stm32h5xx_hal_flash_ex.c ****     {
 1312              		.loc 1 385 5 is_stmt 1 view .LVU416
 385:Drivers/STM32H5xx_HAL_Driver/Src/stm32h5xx_hal_flash_ex.c ****     {
 1313              		.loc 1 385 17 is_stmt 0 view .LVU417
 1314 0046 2368     		ldr	r3, [r4]
 385:Drivers/STM32H5xx_HAL_Driver/Src/stm32h5xx_hal_flash_ex.c ****     {
 1315              		.loc 1 385 8 view .LVU418
 1316 0048 13F0040F 		tst	r3, #4
 1317 004c 21D1     		bne	.L138
 1318              	.L129:
 401:Drivers/STM32H5xx_HAL_Driver/Src/stm32h5xx_hal_flash_ex.c ****     {
 1319              		.loc 1 401 5 is_stmt 1 view .LVU419
 401:Drivers/STM32H5xx_HAL_Driver/Src/stm32h5xx_hal_flash_ex.c ****     {
 1320              		.loc 1 401 17 is_stmt 0 view .LVU420
 1321 004e 2368     		ldr	r3, [r4]
 401:Drivers/STM32H5xx_HAL_Driver/Src/stm32h5xx_hal_flash_ex.c ****     {
 1322              		.loc 1 401 8 view .LVU421
 1323 0050 13F0080F 		tst	r3, #8
 1324 0054 23D1     		bne	.L139
 1325              	.L130:
 407:Drivers/STM32H5xx_HAL_Driver/Src/stm32h5xx_hal_flash_ex.c ****     {
 1326              		.loc 1 407 5 is_stmt 1 view .LVU422
 407:Drivers/STM32H5xx_HAL_Driver/Src/stm32h5xx_hal_flash_ex.c ****     {
ARM GAS  C:\Users\sapph\AppData\Local\Temp\ccb3riEs.s 			page 57


 1327              		.loc 1 407 17 is_stmt 0 view .LVU423
 1328 0056 2368     		ldr	r3, [r4]
 407:Drivers/STM32H5xx_HAL_Driver/Src/stm32h5xx_hal_flash_ex.c ****     {
 1329              		.loc 1 407 8 view .LVU424
 1330 0058 13F0100F 		tst	r3, #16
 1331 005c 24D1     		bne	.L140
 1332              	.L131:
 414:Drivers/STM32H5xx_HAL_Driver/Src/stm32h5xx_hal_flash_ex.c ****     {
 1333              		.loc 1 414 5 is_stmt 1 view .LVU425
 414:Drivers/STM32H5xx_HAL_Driver/Src/stm32h5xx_hal_flash_ex.c ****     {
 1334              		.loc 1 414 17 is_stmt 0 view .LVU426
 1335 005e 2368     		ldr	r3, [r4]
 414:Drivers/STM32H5xx_HAL_Driver/Src/stm32h5xx_hal_flash_ex.c ****     {
 1336              		.loc 1 414 8 view .LVU427
 1337 0060 13F0200F 		tst	r3, #32
 1338 0064 25D1     		bne	.L141
 1339              	.L132:
 420:Drivers/STM32H5xx_HAL_Driver/Src/stm32h5xx_hal_flash_ex.c ****     {
 1340              		.loc 1 420 5 is_stmt 1 view .LVU428
 420:Drivers/STM32H5xx_HAL_Driver/Src/stm32h5xx_hal_flash_ex.c ****     {
 1341              		.loc 1 420 17 is_stmt 0 view .LVU429
 1342 0066 2368     		ldr	r3, [r4]
 420:Drivers/STM32H5xx_HAL_Driver/Src/stm32h5xx_hal_flash_ex.c ****     {
 1343              		.loc 1 420 8 view .LVU430
 1344 0068 13F0400F 		tst	r3, #64
 1345 006c 25D1     		bne	.L142
 1346              	.L133:
 427:Drivers/STM32H5xx_HAL_Driver/Src/stm32h5xx_hal_flash_ex.c ****     {
 1347              		.loc 1 427 5 is_stmt 1 view .LVU431
 427:Drivers/STM32H5xx_HAL_Driver/Src/stm32h5xx_hal_flash_ex.c ****     {
 1348              		.loc 1 427 17 is_stmt 0 view .LVU432
 1349 006e 2368     		ldr	r3, [r4]
 427:Drivers/STM32H5xx_HAL_Driver/Src/stm32h5xx_hal_flash_ex.c ****     {
 1350              		.loc 1 427 8 view .LVU433
 1351 0070 13F0800F 		tst	r3, #128
 1352 0074 27D1     		bne	.L143
 1353              	.L125:
 435:Drivers/STM32H5xx_HAL_Driver/Src/stm32h5xx_hal_flash_ex.c **** 
 1354              		.loc 1 435 3 is_stmt 1 view .LVU434
 435:Drivers/STM32H5xx_HAL_Driver/Src/stm32h5xx_hal_flash_ex.c **** 
 1355              		.loc 1 435 3 view .LVU435
 1356 0076 174B     		ldr	r3, .L144
 1357 0078 0022     		movs	r2, #0
 1358 007a 1A70     		strb	r2, [r3]
 435:Drivers/STM32H5xx_HAL_Driver/Src/stm32h5xx_hal_flash_ex.c **** 
 1359              		.loc 1 435 3 view .LVU436
 437:Drivers/STM32H5xx_HAL_Driver/Src/stm32h5xx_hal_flash_ex.c **** }
 1360              		.loc 1 437 3 view .LVU437
 1361              	.LVL99:
 1362              	.L124:
 438:Drivers/STM32H5xx_HAL_Driver/Src/stm32h5xx_hal_flash_ex.c **** 
 1363              		.loc 1 438 1 is_stmt 0 view .LVU438
 1364 007c 2846     		mov	r0, r5
 1365 007e 38BD     		pop	{r3, r4, r5, pc}
 1366              	.LVL100:
 1367              	.L136:
 368:Drivers/STM32H5xx_HAL_Driver/Src/stm32h5xx_hal_flash_ex.c ****       }
ARM GAS  C:\Users\sapph\AppData\Local\Temp\ccb3riEs.s 			page 58


 1368              		.loc 1 368 9 is_stmt 1 view .LVU439
 1369 0080 6169     		ldr	r1, [r4, #20]
 1370 0082 E069     		ldr	r0, [r4, #28]
 1371              	.LVL101:
 368:Drivers/STM32H5xx_HAL_Driver/Src/stm32h5xx_hal_flash_ex.c ****       }
 1372              		.loc 1 368 9 is_stmt 0 view .LVU440
 1373 0084 FFF7FEFF 		bl	FLASH_OB_EnableWRP
 1374              	.LVL102:
 1375 0088 D9E7     		b	.L126
 1376              	.L137:
 381:Drivers/STM32H5xx_HAL_Driver/Src/stm32h5xx_hal_flash_ex.c ****     }
 1377              		.loc 1 381 7 is_stmt 1 view .LVU441
 1378 008a 6068     		ldr	r0, [r4, #4]
 1379 008c FFF7FEFF 		bl	FLASH_OB_ProdStateConfig
 1380              	.LVL103:
 1381 0090 D9E7     		b	.L128
 1382              	.L138:
 388:Drivers/STM32H5xx_HAL_Driver/Src/stm32h5xx_hal_flash_ex.c ****     }
 1383              		.loc 1 388 7 view .LVU442
 1384 0092 2269     		ldr	r2, [r4, #16]
 1385 0094 E168     		ldr	r1, [r4, #12]
 1386 0096 A068     		ldr	r0, [r4, #8]
 1387 0098 FFF7FEFF 		bl	FLASH_OB_UserConfig
 1388              	.LVL104:
 1389 009c D7E7     		b	.L129
 1390              	.L139:
 403:Drivers/STM32H5xx_HAL_Driver/Src/stm32h5xx_hal_flash_ex.c ****     }
 1391              		.loc 1 403 7 view .LVU443
 1392 009e 616A     		ldr	r1, [r4, #36]
 1393 00a0 206A     		ldr	r0, [r4, #32]
 1394 00a2 FFF7FEFF 		bl	FLASH_OB_BootAddrConfig
 1395              	.LVL105:
 1396 00a6 D6E7     		b	.L130
 1397              	.L140:
 410:Drivers/STM32H5xx_HAL_Driver/Src/stm32h5xx_hal_flash_ex.c ****     }
 1398              		.loc 1 410 7 view .LVU444
 1399 00a8 A16A     		ldr	r1, [r4, #40]
 1400 00aa 206A     		ldr	r0, [r4, #32]
 1401 00ac FFF7FEFF 		bl	FLASH_OB_BootLockConfig
 1402              	.LVL106:
 1403 00b0 D5E7     		b	.L131
 1404              	.L141:
 416:Drivers/STM32H5xx_HAL_Driver/Src/stm32h5xx_hal_flash_ex.c ****     }
 1405              		.loc 1 416 7 view .LVU445
 1406 00b2 E06A     		ldr	r0, [r4, #44]
 1407 00b4 FFF7FEFF 		bl	FLASH_OB_OTP_LockConfig
 1408              	.LVL107:
 1409 00b8 D5E7     		b	.L132
 1410              	.L142:
 422:Drivers/STM32H5xx_HAL_Driver/Src/stm32h5xx_hal_flash_ex.c ****     }
 1411              		.loc 1 422 7 view .LVU446
 1412 00ba 626B     		ldr	r2, [r4, #52]
 1413 00bc 216B     		ldr	r1, [r4, #48]
 1414 00be 6069     		ldr	r0, [r4, #20]
 1415 00c0 FFF7FEFF 		bl	FLASH_OB_HDPConfig
 1416              	.LVL108:
 1417 00c4 D3E7     		b	.L133
ARM GAS  C:\Users\sapph\AppData\Local\Temp\ccb3riEs.s 			page 59


 1418              	.L143:
 429:Drivers/STM32H5xx_HAL_Driver/Src/stm32h5xx_hal_flash_ex.c ****     }
 1419              		.loc 1 429 7 view .LVU447
 1420 00c6 A16B     		ldr	r1, [r4, #56]
 1421 00c8 6069     		ldr	r0, [r4, #20]
 1422 00ca FFF7FEFF 		bl	FLASH_OB_EDATAConfig
 1423              	.LVL109:
 1424 00ce D2E7     		b	.L125
 1425              	.LVL110:
 1426              	.L134:
 347:Drivers/STM32H5xx_HAL_Driver/Src/stm32h5xx_hal_flash_ex.c **** 
 1427              		.loc 1 347 3 is_stmt 0 discriminator 1 view .LVU448
 1428 00d0 0225     		movs	r5, #2
 1429 00d2 D3E7     		b	.L124
 1430              	.L145:
 1431              		.align	2
 1432              	.L144:
 1433 00d4 00000000 		.word	pFlash
 1434              		.cfi_endproc
 1435              	.LFE162:
 1437              		.section	.text.HAL_FLASHEx_OBGetConfig,"ax",%progbits
 1438              		.align	1
 1439              		.global	HAL_FLASHEx_OBGetConfig
 1440              		.syntax unified
 1441              		.thumb
 1442              		.thumb_func
 1444              	HAL_FLASHEx_OBGetConfig:
 1445              	.LVL111:
 1446              	.LFB163:
 450:Drivers/STM32H5xx_HAL_Driver/Src/stm32h5xx_hal_flash_ex.c ****   pOBInit->OptionType = (OPTIONBYTE_USER | OPTIONBYTE_PROD_STATE);
 1447              		.loc 1 450 1 is_stmt 1 view -0
 1448              		.cfi_startproc
 1449              		@ args = 0, pretend = 0, frame = 0
 1450              		@ frame_needed = 0, uses_anonymous_args = 0
 450:Drivers/STM32H5xx_HAL_Driver/Src/stm32h5xx_hal_flash_ex.c ****   pOBInit->OptionType = (OPTIONBYTE_USER | OPTIONBYTE_PROD_STATE);
 1451              		.loc 1 450 1 is_stmt 0 view .LVU450
 1452 0000 10B5     		push	{r4, lr}
 1453              		.cfi_def_cfa_offset 8
 1454              		.cfi_offset 4, -8
 1455              		.cfi_offset 14, -4
 1456 0002 0446     		mov	r4, r0
 451:Drivers/STM32H5xx_HAL_Driver/Src/stm32h5xx_hal_flash_ex.c **** 
 1457              		.loc 1 451 3 is_stmt 1 view .LVU451
 451:Drivers/STM32H5xx_HAL_Driver/Src/stm32h5xx_hal_flash_ex.c **** 
 1458              		.loc 1 451 23 is_stmt 0 view .LVU452
 1459 0004 0623     		movs	r3, #6
 1460 0006 0360     		str	r3, [r0]
 454:Drivers/STM32H5xx_HAL_Driver/Src/stm32h5xx_hal_flash_ex.c **** 
 1461              		.loc 1 454 3 is_stmt 1 view .LVU453
 454:Drivers/STM32H5xx_HAL_Driver/Src/stm32h5xx_hal_flash_ex.c **** 
 1462              		.loc 1 454 27 is_stmt 0 view .LVU454
 1463 0008 FFF7FEFF 		bl	FLASH_OB_GetProdState
 1464              	.LVL112:
 454:Drivers/STM32H5xx_HAL_Driver/Src/stm32h5xx_hal_flash_ex.c **** 
 1465              		.loc 1 454 25 discriminator 1 view .LVU455
 1466 000c 6060     		str	r0, [r4, #4]
 457:Drivers/STM32H5xx_HAL_Driver/Src/stm32h5xx_hal_flash_ex.c **** 
ARM GAS  C:\Users\sapph\AppData\Local\Temp\ccb3riEs.s 			page 60


 1467              		.loc 1 457 3 is_stmt 1 view .LVU456
 1468 000e 04F11001 		add	r1, r4, #16
 1469 0012 04F10C00 		add	r0, r4, #12
 1470 0016 FFF7FEFF 		bl	FLASH_OB_GetUser
 1471              	.LVL113:
 459:Drivers/STM32H5xx_HAL_Driver/Src/stm32h5xx_hal_flash_ex.c ****   {
 1472              		.loc 1 459 3 view .LVU457
 459:Drivers/STM32H5xx_HAL_Driver/Src/stm32h5xx_hal_flash_ex.c ****   {
 1473              		.loc 1 459 15 is_stmt 0 view .LVU458
 1474 001a 6069     		ldr	r0, [r4, #20]
 459:Drivers/STM32H5xx_HAL_Driver/Src/stm32h5xx_hal_flash_ex.c ****   {
 1475              		.loc 1 459 40 view .LVU459
 1476 001c 431E     		subs	r3, r0, #1
 459:Drivers/STM32H5xx_HAL_Driver/Src/stm32h5xx_hal_flash_ex.c ****   {
 1477              		.loc 1 459 6 view .LVU460
 1478 001e 012B     		cmp	r3, #1
 1479 0020 0AD9     		bls	.L150
 1480              	.L147:
 485:Drivers/STM32H5xx_HAL_Driver/Src/stm32h5xx_hal_flash_ex.c **** #endif /* __ARM_FEATURE_CMSE */
 1481              		.loc 1 485 3 is_stmt 1 view .LVU461
 485:Drivers/STM32H5xx_HAL_Driver/Src/stm32h5xx_hal_flash_ex.c **** #endif /* __ARM_FEATURE_CMSE */
 1482              		.loc 1 485 14 is_stmt 0 view .LVU462
 1483 0022 206A     		ldr	r0, [r4, #32]
 485:Drivers/STM32H5xx_HAL_Driver/Src/stm32h5xx_hal_flash_ex.c **** #endif /* __ARM_FEATURE_CMSE */
 1484              		.loc 1 485 6 view .LVU463
 1485 0024 0128     		cmp	r0, #1
 1486 0026 26D0     		beq	.L151
 1487              	.L148:
 493:Drivers/STM32H5xx_HAL_Driver/Src/stm32h5xx_hal_flash_ex.c ****   pOBInit->OTPBlockLock = FLASH_OB_OTP_GetLock();
 1488              		.loc 1 493 3 is_stmt 1 view .LVU464
 493:Drivers/STM32H5xx_HAL_Driver/Src/stm32h5xx_hal_flash_ex.c ****   pOBInit->OTPBlockLock = FLASH_OB_OTP_GetLock();
 1489              		.loc 1 493 10 is_stmt 0 view .LVU465
 1490 0028 2368     		ldr	r3, [r4]
 493:Drivers/STM32H5xx_HAL_Driver/Src/stm32h5xx_hal_flash_ex.c ****   pOBInit->OTPBlockLock = FLASH_OB_OTP_GetLock();
 1491              		.loc 1 493 23 view .LVU466
 1492 002a 43F02003 		orr	r3, r3, #32
 1493 002e 2360     		str	r3, [r4]
 494:Drivers/STM32H5xx_HAL_Driver/Src/stm32h5xx_hal_flash_ex.c **** }
 1494              		.loc 1 494 3 is_stmt 1 view .LVU467
 494:Drivers/STM32H5xx_HAL_Driver/Src/stm32h5xx_hal_flash_ex.c **** }
 1495              		.loc 1 494 27 is_stmt 0 view .LVU468
 1496 0030 FFF7FEFF 		bl	FLASH_OB_OTP_GetLock
 1497              	.LVL114:
 494:Drivers/STM32H5xx_HAL_Driver/Src/stm32h5xx_hal_flash_ex.c **** }
 1498              		.loc 1 494 25 discriminator 1 view .LVU469
 1499 0034 E062     		str	r0, [r4, #44]
 495:Drivers/STM32H5xx_HAL_Driver/Src/stm32h5xx_hal_flash_ex.c **** 
 1500              		.loc 1 495 1 view .LVU470
 1501 0036 10BD     		pop	{r4, pc}
 1502              	.LVL115:
 1503              	.L150:
 462:Drivers/STM32H5xx_HAL_Driver/Src/stm32h5xx_hal_flash_ex.c ****     FLASH_OB_GetWRP(pOBInit->Banks, &(pOBInit->WRPState), &(pOBInit->WRPSector));
 1504              		.loc 1 462 5 is_stmt 1 view .LVU471
 462:Drivers/STM32H5xx_HAL_Driver/Src/stm32h5xx_hal_flash_ex.c ****     FLASH_OB_GetWRP(pOBInit->Banks, &(pOBInit->WRPState), &(pOBInit->WRPSector));
 1505              		.loc 1 462 12 is_stmt 0 view .LVU472
 1506 0038 2368     		ldr	r3, [r4]
 462:Drivers/STM32H5xx_HAL_Driver/Src/stm32h5xx_hal_flash_ex.c ****     FLASH_OB_GetWRP(pOBInit->Banks, &(pOBInit->WRPState), &(pOBInit->WRPSector));
ARM GAS  C:\Users\sapph\AppData\Local\Temp\ccb3riEs.s 			page 61


 1507              		.loc 1 462 25 view .LVU473
 1508 003a 43F00103 		orr	r3, r3, #1
 1509 003e 2246     		mov	r2, r4
 1510 0040 42F81C3B 		str	r3, [r2], #28
 463:Drivers/STM32H5xx_HAL_Driver/Src/stm32h5xx_hal_flash_ex.c **** 
 1511              		.loc 1 463 5 is_stmt 1 view .LVU474
 1512 0044 04F11801 		add	r1, r4, #24
 1513 0048 FFF7FEFF 		bl	FLASH_OB_GetWRP
 1514              	.LVL116:
 472:Drivers/STM32H5xx_HAL_Driver/Src/stm32h5xx_hal_flash_ex.c ****     FLASH_OB_GetHDP(pOBInit->Banks, &(pOBInit->HDPStartSector), &(pOBInit->HDPEndSector));
 1515              		.loc 1 472 5 view .LVU475
 472:Drivers/STM32H5xx_HAL_Driver/Src/stm32h5xx_hal_flash_ex.c ****     FLASH_OB_GetHDP(pOBInit->Banks, &(pOBInit->HDPStartSector), &(pOBInit->HDPEndSector));
 1516              		.loc 1 472 12 is_stmt 0 view .LVU476
 1517 004c 2368     		ldr	r3, [r4]
 472:Drivers/STM32H5xx_HAL_Driver/Src/stm32h5xx_hal_flash_ex.c ****     FLASH_OB_GetHDP(pOBInit->Banks, &(pOBInit->HDPStartSector), &(pOBInit->HDPEndSector));
 1518              		.loc 1 472 25 view .LVU477
 1519 004e 43F04003 		orr	r3, r3, #64
 1520 0052 2246     		mov	r2, r4
 1521 0054 42F8343B 		str	r3, [r2], #52
 473:Drivers/STM32H5xx_HAL_Driver/Src/stm32h5xx_hal_flash_ex.c **** #if defined (FLASH_EDATAR_EDATA_EN)
 1522              		.loc 1 473 5 is_stmt 1 view .LVU478
 1523 0058 04F13001 		add	r1, r4, #48
 1524 005c 6069     		ldr	r0, [r4, #20]
 1525 005e FFF7FEFF 		bl	FLASH_OB_GetHDP
 1526              	.LVL117:
 476:Drivers/STM32H5xx_HAL_Driver/Src/stm32h5xx_hal_flash_ex.c ****     FLASH_OB_GetEDATA(pOBInit->Banks, &(pOBInit->EDATASize));
 1527              		.loc 1 476 5 view .LVU479
 476:Drivers/STM32H5xx_HAL_Driver/Src/stm32h5xx_hal_flash_ex.c ****     FLASH_OB_GetEDATA(pOBInit->Banks, &(pOBInit->EDATASize));
 1528              		.loc 1 476 12 is_stmt 0 view .LVU480
 1529 0062 2368     		ldr	r3, [r4]
 476:Drivers/STM32H5xx_HAL_Driver/Src/stm32h5xx_hal_flash_ex.c ****     FLASH_OB_GetEDATA(pOBInit->Banks, &(pOBInit->EDATASize));
 1530              		.loc 1 476 25 view .LVU481
 1531 0064 43F08003 		orr	r3, r3, #128
 1532 0068 2146     		mov	r1, r4
 1533 006a 41F8383B 		str	r3, [r1], #56
 477:Drivers/STM32H5xx_HAL_Driver/Src/stm32h5xx_hal_flash_ex.c **** #endif /* FLASH_EDATAR_EDATA_EN */
 1534              		.loc 1 477 5 is_stmt 1 view .LVU482
 1535 006e 6069     		ldr	r0, [r4, #20]
 1536 0070 FFF7FEFF 		bl	FLASH_OB_GetEDATA
 1537              	.LVL118:
 1538 0074 D5E7     		b	.L147
 1539              	.L151:
 488:Drivers/STM32H5xx_HAL_Driver/Src/stm32h5xx_hal_flash_ex.c ****     FLASH_OB_GetBootConfig(pOBInit->BootConfig, &(pOBInit->BootAddr), &(pOBInit->BootLock));
 1540              		.loc 1 488 5 view .LVU483
 488:Drivers/STM32H5xx_HAL_Driver/Src/stm32h5xx_hal_flash_ex.c ****     FLASH_OB_GetBootConfig(pOBInit->BootConfig, &(pOBInit->BootAddr), &(pOBInit->BootLock));
 1541              		.loc 1 488 12 is_stmt 0 view .LVU484
 1542 0076 2368     		ldr	r3, [r4]
 488:Drivers/STM32H5xx_HAL_Driver/Src/stm32h5xx_hal_flash_ex.c ****     FLASH_OB_GetBootConfig(pOBInit->BootConfig, &(pOBInit->BootAddr), &(pOBInit->BootLock));
 1543              		.loc 1 488 25 view .LVU485
 1544 0078 43F01803 		orr	r3, r3, #24
 1545 007c 2246     		mov	r2, r4
 1546 007e 42F8283B 		str	r3, [r2], #40
 489:Drivers/STM32H5xx_HAL_Driver/Src/stm32h5xx_hal_flash_ex.c ****   }
 1547              		.loc 1 489 5 is_stmt 1 view .LVU486
 1548 0082 04F12401 		add	r1, r4, #36
 1549 0086 FFF7FEFF 		bl	FLASH_OB_GetBootConfig
 1550              	.LVL119:
ARM GAS  C:\Users\sapph\AppData\Local\Temp\ccb3riEs.s 			page 62


 1551 008a CDE7     		b	.L148
 1552              		.cfi_endproc
 1553              	.LFE163:
 1555              		.section	.text.HAL_FLASHEx_OBK_Unlock,"ax",%progbits
 1556              		.align	1
 1557              		.global	HAL_FLASHEx_OBK_Unlock
 1558              		.syntax unified
 1559              		.thumb
 1560              		.thumb_func
 1562              	HAL_FLASHEx_OBK_Unlock:
 1563              	.LFB164:
 503:Drivers/STM32H5xx_HAL_Driver/Src/stm32h5xx_hal_flash_ex.c ****   HAL_StatusTypeDef status = HAL_OK;
 1564              		.loc 1 503 1 view -0
 1565              		.cfi_startproc
 1566              		@ args = 0, pretend = 0, frame = 0
 1567              		@ frame_needed = 0, uses_anonymous_args = 0
 1568              		@ link register save eliminated.
 504:Drivers/STM32H5xx_HAL_Driver/Src/stm32h5xx_hal_flash_ex.c **** 
 1569              		.loc 1 504 3 view .LVU488
 1570              	.LVL120:
 520:Drivers/STM32H5xx_HAL_Driver/Src/stm32h5xx_hal_flash_ex.c ****   {
 1571              		.loc 1 520 3 view .LVU489
 520:Drivers/STM32H5xx_HAL_Driver/Src/stm32h5xx_hal_flash_ex.c ****   {
 1572              		.loc 1 520 7 is_stmt 0 view .LVU490
 1573 0000 094B     		ldr	r3, .L156
 1574 0002 1B6C     		ldr	r3, [r3, #64]
 520:Drivers/STM32H5xx_HAL_Driver/Src/stm32h5xx_hal_flash_ex.c ****   {
 1575              		.loc 1 520 6 view .LVU491
 1576 0004 13F0010F 		tst	r3, #1
 1577 0008 0AD0     		beq	.L154
 523:Drivers/STM32H5xx_HAL_Driver/Src/stm32h5xx_hal_flash_ex.c ****     WRITE_REG(FLASH->NSOBKKEYR, FLASH_OBK_KEY2);
 1578              		.loc 1 523 5 is_stmt 1 view .LVU492
 1579 000a 074B     		ldr	r3, .L156
 1580 000c 074A     		ldr	r2, .L156+4
 1581 000e 1A61     		str	r2, [r3, #16]
 524:Drivers/STM32H5xx_HAL_Driver/Src/stm32h5xx_hal_flash_ex.c **** 
 1582              		.loc 1 524 5 view .LVU493
 1583 0010 074A     		ldr	r2, .L156+8
 1584 0012 1A61     		str	r2, [r3, #16]
 527:Drivers/STM32H5xx_HAL_Driver/Src/stm32h5xx_hal_flash_ex.c ****     {
 1585              		.loc 1 527 5 view .LVU494
 527:Drivers/STM32H5xx_HAL_Driver/Src/stm32h5xx_hal_flash_ex.c ****     {
 1586              		.loc 1 527 9 is_stmt 0 view .LVU495
 1587 0014 1B6C     		ldr	r3, [r3, #64]
 527:Drivers/STM32H5xx_HAL_Driver/Src/stm32h5xx_hal_flash_ex.c ****     {
 1588              		.loc 1 527 8 view .LVU496
 1589 0016 13F0010F 		tst	r3, #1
 1590 001a 03D1     		bne	.L155
 504:Drivers/STM32H5xx_HAL_Driver/Src/stm32h5xx_hal_flash_ex.c **** 
 1591              		.loc 1 504 21 view .LVU497
 1592 001c 0020     		movs	r0, #0
 1593 001e 7047     		bx	lr
 1594              	.L154:
 1595 0020 0020     		movs	r0, #0
 1596 0022 7047     		bx	lr
 1597              	.L155:
 529:Drivers/STM32H5xx_HAL_Driver/Src/stm32h5xx_hal_flash_ex.c ****     }
ARM GAS  C:\Users\sapph\AppData\Local\Temp\ccb3riEs.s 			page 63


 1598              		.loc 1 529 14 view .LVU498
 1599 0024 0120     		movs	r0, #1
 1600              	.LVL121:
 534:Drivers/STM32H5xx_HAL_Driver/Src/stm32h5xx_hal_flash_ex.c **** }
 1601              		.loc 1 534 3 is_stmt 1 view .LVU499
 535:Drivers/STM32H5xx_HAL_Driver/Src/stm32h5xx_hal_flash_ex.c **** 
 1602              		.loc 1 535 1 is_stmt 0 view .LVU500
 1603 0026 7047     		bx	lr
 1604              	.L157:
 1605              		.align	2
 1606              	.L156:
 1607 0028 00200240 		.word	1073881088
 1608 002c 3B082A19 		.word	422185019
 1609 0030 5D4C7F6E 		.word	1853836381
 1610              		.cfi_endproc
 1611              	.LFE164:
 1613              		.section	.text.HAL_FLASHEx_OBK_Lock,"ax",%progbits
 1614              		.align	1
 1615              		.global	HAL_FLASHEx_OBK_Lock
 1616              		.syntax unified
 1617              		.thumb
 1618              		.thumb_func
 1620              	HAL_FLASHEx_OBK_Lock:
 1621              	.LFB165:
 542:Drivers/STM32H5xx_HAL_Driver/Src/stm32h5xx_hal_flash_ex.c ****   HAL_StatusTypeDef status = HAL_ERROR;
 1622              		.loc 1 542 1 is_stmt 1 view -0
 1623              		.cfi_startproc
 1624              		@ args = 0, pretend = 0, frame = 0
 1625              		@ frame_needed = 0, uses_anonymous_args = 0
 1626              		@ link register save eliminated.
 543:Drivers/STM32H5xx_HAL_Driver/Src/stm32h5xx_hal_flash_ex.c **** 
 1627              		.loc 1 543 3 view .LVU502
 1628              	.LVL122:
 556:Drivers/STM32H5xx_HAL_Driver/Src/stm32h5xx_hal_flash_ex.c **** 
 1629              		.loc 1 556 3 view .LVU503
 1630 0000 064B     		ldr	r3, .L161
 1631 0002 1A6C     		ldr	r2, [r3, #64]
 1632 0004 42F00102 		orr	r2, r2, #1
 1633 0008 1A64     		str	r2, [r3, #64]
 559:Drivers/STM32H5xx_HAL_Driver/Src/stm32h5xx_hal_flash_ex.c ****   {
 1634              		.loc 1 559 3 view .LVU504
 559:Drivers/STM32H5xx_HAL_Driver/Src/stm32h5xx_hal_flash_ex.c ****   {
 1635              		.loc 1 559 7 is_stmt 0 view .LVU505
 1636 000a 1B6C     		ldr	r3, [r3, #64]
 559:Drivers/STM32H5xx_HAL_Driver/Src/stm32h5xx_hal_flash_ex.c ****   {
 1637              		.loc 1 559 6 view .LVU506
 1638 000c 13F0010F 		tst	r3, #1
 1639 0010 01D1     		bne	.L160
 543:Drivers/STM32H5xx_HAL_Driver/Src/stm32h5xx_hal_flash_ex.c **** 
 1640              		.loc 1 543 21 view .LVU507
 1641 0012 0120     		movs	r0, #1
 1642 0014 7047     		bx	lr
 1643              	.L160:
 561:Drivers/STM32H5xx_HAL_Driver/Src/stm32h5xx_hal_flash_ex.c ****   }
 1644              		.loc 1 561 12 view .LVU508
 1645 0016 0020     		movs	r0, #0
 1646              	.LVL123:
ARM GAS  C:\Users\sapph\AppData\Local\Temp\ccb3riEs.s 			page 64


 565:Drivers/STM32H5xx_HAL_Driver/Src/stm32h5xx_hal_flash_ex.c **** }
 1647              		.loc 1 565 3 is_stmt 1 view .LVU509
 566:Drivers/STM32H5xx_HAL_Driver/Src/stm32h5xx_hal_flash_ex.c **** 
 1648              		.loc 1 566 1 is_stmt 0 view .LVU510
 1649 0018 7047     		bx	lr
 1650              	.L162:
 1651 001a 00BF     		.align	2
 1652              	.L161:
 1653 001c 00200240 		.word	1073881088
 1654              		.cfi_endproc
 1655              	.LFE165:
 1657              		.section	.text.HAL_FLASHEx_OBK_Swap,"ax",%progbits
 1658              		.align	1
 1659              		.global	HAL_FLASHEx_OBK_Swap
 1660              		.syntax unified
 1661              		.thumb
 1662              		.thumb_func
 1664              	HAL_FLASHEx_OBK_Swap:
 1665              	.LVL124:
 1666              	.LFB166:
 576:Drivers/STM32H5xx_HAL_Driver/Src/stm32h5xx_hal_flash_ex.c ****   HAL_StatusTypeDef status;
 1667              		.loc 1 576 1 is_stmt 1 view -0
 1668              		.cfi_startproc
 1669              		@ args = 0, pretend = 0, frame = 0
 1670              		@ frame_needed = 0, uses_anonymous_args = 0
 576:Drivers/STM32H5xx_HAL_Driver/Src/stm32h5xx_hal_flash_ex.c ****   HAL_StatusTypeDef status;
 1671              		.loc 1 576 1 is_stmt 0 view .LVU512
 1672 0000 10B5     		push	{r4, lr}
 1673              		.cfi_def_cfa_offset 8
 1674              		.cfi_offset 4, -8
 1675              		.cfi_offset 14, -4
 1676 0002 0446     		mov	r4, r0
 577:Drivers/STM32H5xx_HAL_Driver/Src/stm32h5xx_hal_flash_ex.c ****   __IO uint32_t *reg_obkcfgr;
 1677              		.loc 1 577 3 is_stmt 1 view .LVU513
 578:Drivers/STM32H5xx_HAL_Driver/Src/stm32h5xx_hal_flash_ex.c **** 
 1678              		.loc 1 578 3 view .LVU514
 581:Drivers/STM32H5xx_HAL_Driver/Src/stm32h5xx_hal_flash_ex.c **** 
 1679              		.loc 1 581 3 view .LVU515
 581:Drivers/STM32H5xx_HAL_Driver/Src/stm32h5xx_hal_flash_ex.c **** 
 1680              		.loc 1 581 12 is_stmt 0 view .LVU516
 1681 0004 4FF47A70 		mov	r0, #1000
 1682              	.LVL125:
 581:Drivers/STM32H5xx_HAL_Driver/Src/stm32h5xx_hal_flash_ex.c **** 
 1683              		.loc 1 581 12 view .LVU517
 1684 0008 FFF7FEFF 		bl	FLASH_WaitForLastOperation
 1685              	.LVL126:
 583:Drivers/STM32H5xx_HAL_Driver/Src/stm32h5xx_hal_flash_ex.c ****   {
 1686              		.loc 1 583 3 is_stmt 1 view .LVU518
 583:Drivers/STM32H5xx_HAL_Driver/Src/stm32h5xx_hal_flash_ex.c ****   {
 1687              		.loc 1 583 6 is_stmt 0 view .LVU519
 1688 000c 00B1     		cbz	r0, .L166
 1689              	.L164:
 1690              	.LVL127:
 598:Drivers/STM32H5xx_HAL_Driver/Src/stm32h5xx_hal_flash_ex.c **** }
 1691              		.loc 1 598 3 is_stmt 1 view .LVU520
 599:Drivers/STM32H5xx_HAL_Driver/Src/stm32h5xx_hal_flash_ex.c **** #endif /* FLASH_SR_OBKERR */
 1692              		.loc 1 599 1 is_stmt 0 view .LVU521
ARM GAS  C:\Users\sapph\AppData\Local\Temp\ccb3riEs.s 			page 65


 1693 000e 10BD     		pop	{r4, pc}
 1694              	.LVL128:
 1695              	.L166:
 586:Drivers/STM32H5xx_HAL_Driver/Src/stm32h5xx_hal_flash_ex.c **** 
 1696              		.loc 1 586 5 is_stmt 1 view .LVU522
 589:Drivers/STM32H5xx_HAL_Driver/Src/stm32h5xx_hal_flash_ex.c **** 
 1697              		.loc 1 589 5 view .LVU523
 1698 0010 074A     		ldr	r2, .L167
 1699 0012 136C     		ldr	r3, [r2, #64]
 1700 0014 6FF31843 		bfc	r3, #16, #9
 1701 0018 43EA0443 		orr	r3, r3, r4, lsl #16
 1702 001c 1364     		str	r3, [r2, #64]
 592:Drivers/STM32H5xx_HAL_Driver/Src/stm32h5xx_hal_flash_ex.c **** 
 1703              		.loc 1 592 5 view .LVU524
 1704 001e 136C     		ldr	r3, [r2, #64]
 1705 0020 43F00203 		orr	r3, r3, #2
 1706 0024 1364     		str	r3, [r2, #64]
 595:Drivers/STM32H5xx_HAL_Driver/Src/stm32h5xx_hal_flash_ex.c ****   }
 1707              		.loc 1 595 5 view .LVU525
 595:Drivers/STM32H5xx_HAL_Driver/Src/stm32h5xx_hal_flash_ex.c ****   }
 1708              		.loc 1 595 14 is_stmt 0 view .LVU526
 1709 0026 4FF47A70 		mov	r0, #1000
 1710 002a FFF7FEFF 		bl	FLASH_WaitForLastOperation
 1711              	.LVL129:
 595:Drivers/STM32H5xx_HAL_Driver/Src/stm32h5xx_hal_flash_ex.c ****   }
 1712              		.loc 1 595 14 view .LVU527
 1713 002e EEE7     		b	.L164
 1714              	.L168:
 1715              		.align	2
 1716              	.L167:
 1717 0030 00200240 		.word	1073881088
 1718              		.cfi_endproc
 1719              	.LFE166:
 1721              		.section	.text.HAL_FLASHEx_GetOperation,"ax",%progbits
 1722              		.align	1
 1723              		.global	HAL_FLASHEx_GetOperation
 1724              		.syntax unified
 1725              		.thumb
 1726              		.thumb_func
 1728              	HAL_FLASHEx_GetOperation:
 1729              	.LVL130:
 1730              	.LFB167:
 610:Drivers/STM32H5xx_HAL_Driver/Src/stm32h5xx_hal_flash_ex.c ****   uint32_t opsr_reg = FLASH->OPSR;
 1731              		.loc 1 610 1 is_stmt 1 view -0
 1732              		.cfi_startproc
 1733              		@ args = 0, pretend = 0, frame = 0
 1734              		@ frame_needed = 0, uses_anonymous_args = 0
 1735              		@ link register save eliminated.
 611:Drivers/STM32H5xx_HAL_Driver/Src/stm32h5xx_hal_flash_ex.c **** 
 1736              		.loc 1 611 3 view .LVU529
 611:Drivers/STM32H5xx_HAL_Driver/Src/stm32h5xx_hal_flash_ex.c **** 
 1737              		.loc 1 611 12 is_stmt 0 view .LVU530
 1738 0000 054B     		ldr	r3, .L170
 1739 0002 9B69     		ldr	r3, [r3, #24]
 1740              	.LVL131:
 614:Drivers/STM32H5xx_HAL_Driver/Src/stm32h5xx_hal_flash_ex.c **** 
 1741              		.loc 1 614 3 is_stmt 1 view .LVU531
ARM GAS  C:\Users\sapph\AppData\Local\Temp\ccb3riEs.s 			page 66


 614:Drivers/STM32H5xx_HAL_Driver/Src/stm32h5xx_hal_flash_ex.c **** 
 1742              		.loc 1 614 45 is_stmt 0 view .LVU532
 1743 0004 03F06042 		and	r2, r3, #-536870912
 614:Drivers/STM32H5xx_HAL_Driver/Src/stm32h5xx_hal_flash_ex.c **** 
 1744              		.loc 1 614 34 view .LVU533
 1745 0008 0260     		str	r2, [r0]
 618:Drivers/STM32H5xx_HAL_Driver/Src/stm32h5xx_hal_flash_ex.c ****                                            FLASH_OPSR_SYSF_OP | FLASH_OPSR_OTP_OP);
 1746              		.loc 1 618 3 is_stmt 1 view .LVU534
 618:Drivers/STM32H5xx_HAL_Driver/Src/stm32h5xx_hal_flash_ex.c ****                                            FLASH_OPSR_SYSF_OP | FLASH_OPSR_OTP_OP);
 1747              		.loc 1 618 41 is_stmt 0 view .LVU535
 1748 000a 03F0F072 		and	r2, r3, #31457280
 618:Drivers/STM32H5xx_HAL_Driver/Src/stm32h5xx_hal_flash_ex.c ****                                            FLASH_OPSR_SYSF_OP | FLASH_OPSR_OTP_OP);
 1749              		.loc 1 618 30 view .LVU536
 1750 000e 4260     		str	r2, [r0, #4]
 625:Drivers/STM32H5xx_HAL_Driver/Src/stm32h5xx_hal_flash_ex.c **** }
 1751              		.loc 1 625 3 is_stmt 1 view .LVU537
 625:Drivers/STM32H5xx_HAL_Driver/Src/stm32h5xx_hal_flash_ex.c **** }
 1752              		.loc 1 625 39 is_stmt 0 view .LVU538
 1753 0010 C3F31303 		ubfx	r3, r3, #0, #20
 1754              	.LVL132:
 625:Drivers/STM32H5xx_HAL_Driver/Src/stm32h5xx_hal_flash_ex.c **** }
 1755              		.loc 1 625 28 view .LVU539
 1756 0014 8360     		str	r3, [r0, #8]
 626:Drivers/STM32H5xx_HAL_Driver/Src/stm32h5xx_hal_flash_ex.c **** 
 1757              		.loc 1 626 1 view .LVU540
 1758 0016 7047     		bx	lr
 1759              	.L171:
 1760              		.align	2
 1761              	.L170:
 1762 0018 00200240 		.word	1073881088
 1763              		.cfi_endproc
 1764              	.LFE167:
 1766              		.section	.text.HAL_FLASHEx_ConfigBBAttributes,"ax",%progbits
 1767              		.align	1
 1768              		.global	HAL_FLASHEx_ConfigBBAttributes
 1769              		.syntax unified
 1770              		.thumb
 1771              		.thumb_func
 1773              	HAL_FLASHEx_ConfigBBAttributes:
 1774              	.LVL133:
 1775              	.LFB168:
 651:Drivers/STM32H5xx_HAL_Driver/Src/stm32h5xx_hal_flash_ex.c ****   HAL_StatusTypeDef status;
 1776              		.loc 1 651 1 is_stmt 1 view -0
 1777              		.cfi_startproc
 1778              		@ args = 0, pretend = 0, frame = 0
 1779              		@ frame_needed = 0, uses_anonymous_args = 0
 651:Drivers/STM32H5xx_HAL_Driver/Src/stm32h5xx_hal_flash_ex.c ****   HAL_StatusTypeDef status;
 1780              		.loc 1 651 1 is_stmt 0 view .LVU542
 1781 0000 38B5     		push	{r3, r4, r5, lr}
 1782              		.cfi_def_cfa_offset 16
 1783              		.cfi_offset 3, -16
 1784              		.cfi_offset 4, -12
 1785              		.cfi_offset 5, -8
 1786              		.cfi_offset 14, -4
 1787 0002 0546     		mov	r5, r0
 652:Drivers/STM32H5xx_HAL_Driver/Src/stm32h5xx_hal_flash_ex.c ****   uint8_t index;
 1788              		.loc 1 652 3 is_stmt 1 view .LVU543
ARM GAS  C:\Users\sapph\AppData\Local\Temp\ccb3riEs.s 			page 67


 653:Drivers/STM32H5xx_HAL_Driver/Src/stm32h5xx_hal_flash_ex.c ****   __IO uint32_t *reg;
 1789              		.loc 1 653 3 view .LVU544
 654:Drivers/STM32H5xx_HAL_Driver/Src/stm32h5xx_hal_flash_ex.c **** 
 1790              		.loc 1 654 3 view .LVU545
 657:Drivers/STM32H5xx_HAL_Driver/Src/stm32h5xx_hal_flash_ex.c ****   assert_param(IS_FLASH_BB_EXCLUSIVE(pBBAttributes->BBAttributesType));
 1791              		.loc 1 657 3 view .LVU546
 658:Drivers/STM32H5xx_HAL_Driver/Src/stm32h5xx_hal_flash_ex.c **** 
 1792              		.loc 1 658 3 view .LVU547
 661:Drivers/STM32H5xx_HAL_Driver/Src/stm32h5xx_hal_flash_ex.c **** 
 1793              		.loc 1 661 3 view .LVU548
 661:Drivers/STM32H5xx_HAL_Driver/Src/stm32h5xx_hal_flash_ex.c **** 
 1794              		.loc 1 661 12 is_stmt 0 view .LVU549
 1795 0004 4FF47A70 		mov	r0, #1000
 1796              	.LVL134:
 661:Drivers/STM32H5xx_HAL_Driver/Src/stm32h5xx_hal_flash_ex.c **** 
 1797              		.loc 1 661 12 view .LVU550
 1798 0008 FFF7FEFF 		bl	FLASH_WaitForLastOperation
 1799              	.LVL135:
 663:Drivers/STM32H5xx_HAL_Driver/Src/stm32h5xx_hal_flash_ex.c ****   {
 1800              		.loc 1 663 3 is_stmt 1 view .LVU551
 663:Drivers/STM32H5xx_HAL_Driver/Src/stm32h5xx_hal_flash_ex.c ****   {
 1801              		.loc 1 663 6 is_stmt 0 view .LVU552
 1802 000c B0B9     		cbnz	r0, .L173
 681:Drivers/STM32H5xx_HAL_Driver/Src/stm32h5xx_hal_flash_ex.c ****       {
 1803              		.loc 1 681 7 is_stmt 1 view .LVU553
 681:Drivers/STM32H5xx_HAL_Driver/Src/stm32h5xx_hal_flash_ex.c ****       {
 1804              		.loc 1 681 24 is_stmt 0 view .LVU554
 1805 000e 2B68     		ldr	r3, [r5]
 681:Drivers/STM32H5xx_HAL_Driver/Src/stm32h5xx_hal_flash_ex.c ****       {
 1806              		.loc 1 681 10 view .LVU555
 1807 0010 012B     		cmp	r3, #1
 1808 0012 02D0     		beq	.L181
 687:Drivers/STM32H5xx_HAL_Driver/Src/stm32h5xx_hal_flash_ex.c ****       }
 1809              		.loc 1 687 13 view .LVU556
 1810 0014 0B4A     		ldr	r2, .L183
 1811              	.L174:
 697:Drivers/STM32H5xx_HAL_Driver/Src/stm32h5xx_hal_flash_ex.c ****       }
 1812              		.loc 1 697 16 view .LVU557
 1813 0016 0346     		mov	r3, r0
 1814 0018 04E0     		b	.L175
 1815              	.L181:
 683:Drivers/STM32H5xx_HAL_Driver/Src/stm32h5xx_hal_flash_ex.c ****       }
 1816              		.loc 1 683 13 view .LVU558
 1817 001a 0B4A     		ldr	r2, .L183+4
 1818 001c FBE7     		b	.L174
 1819              	.LVL136:
 1820              	.L176:
 699:Drivers/STM32H5xx_HAL_Driver/Src/stm32h5xx_hal_flash_ex.c ****     }
 1821              		.loc 1 699 7 is_stmt 1 view .LVU559
 699:Drivers/STM32H5xx_HAL_Driver/Src/stm32h5xx_hal_flash_ex.c ****     }
 1822              		.loc 1 699 10 is_stmt 0 view .LVU560
 1823 001e 0432     		adds	r2, r2, #4
 1824              	.LVL137:
 692:Drivers/STM32H5xx_HAL_Driver/Src/stm32h5xx_hal_flash_ex.c ****     {
 1825              		.loc 1 692 59 is_stmt 1 discriminator 2 view .LVU561
 1826 0020 0133     		adds	r3, r3, #1
 1827              	.LVL138:
ARM GAS  C:\Users\sapph\AppData\Local\Temp\ccb3riEs.s 			page 68


 692:Drivers/STM32H5xx_HAL_Driver/Src/stm32h5xx_hal_flash_ex.c ****     {
 1828              		.loc 1 692 59 is_stmt 0 discriminator 2 view .LVU562
 1829 0022 DBB2     		uxtb	r3, r3
 1830              	.LVL139:
 1831              	.L175:
 692:Drivers/STM32H5xx_HAL_Driver/Src/stm32h5xx_hal_flash_ex.c ****     {
 1832              		.loc 1 692 27 is_stmt 1 discriminator 1 view .LVU563
 1833 0024 43B9     		cbnz	r3, .L182
 694:Drivers/STM32H5xx_HAL_Driver/Src/stm32h5xx_hal_flash_ex.c ****       if ((*reg) != (pBBAttributes->BBAttributes_array[index] & FLASH_PRIVBBR_PRIVBB))
 1834              		.loc 1 694 7 view .LVU564
 694:Drivers/STM32H5xx_HAL_Driver/Src/stm32h5xx_hal_flash_ex.c ****       if ((*reg) != (pBBAttributes->BBAttributes_array[index] & FLASH_PRIVBBR_PRIVBB))
 1835              		.loc 1 694 47 is_stmt 0 view .LVU565
 1836 0026 991C     		adds	r1, r3, #2
 1837 0028 55F82110 		ldr	r1, [r5, r1, lsl #2]
 694:Drivers/STM32H5xx_HAL_Driver/Src/stm32h5xx_hal_flash_ex.c ****       if ((*reg) != (pBBAttributes->BBAttributes_array[index] & FLASH_PRIVBBR_PRIVBB))
 1838              		.loc 1 694 12 view .LVU566
 1839 002c 1160     		str	r1, [r2]
 695:Drivers/STM32H5xx_HAL_Driver/Src/stm32h5xx_hal_flash_ex.c ****       {
 1840              		.loc 1 695 7 is_stmt 1 view .LVU567
 695:Drivers/STM32H5xx_HAL_Driver/Src/stm32h5xx_hal_flash_ex.c ****       {
 1841              		.loc 1 695 12 is_stmt 0 view .LVU568
 1842 002e 1468     		ldr	r4, [r2]
 695:Drivers/STM32H5xx_HAL_Driver/Src/stm32h5xx_hal_flash_ex.c ****       {
 1843              		.loc 1 695 10 view .LVU569
 1844 0030 A142     		cmp	r1, r4
 1845 0032 F4D0     		beq	.L176
 697:Drivers/STM32H5xx_HAL_Driver/Src/stm32h5xx_hal_flash_ex.c ****       }
 1846              		.loc 1 697 16 view .LVU570
 1847 0034 0120     		movs	r0, #1
 1848              	.LVL140:
 697:Drivers/STM32H5xx_HAL_Driver/Src/stm32h5xx_hal_flash_ex.c ****       }
 1849              		.loc 1 697 16 view .LVU571
 1850 0036 F2E7     		b	.L176
 1851              	.LVL141:
 1852              	.L182:
 703:Drivers/STM32H5xx_HAL_Driver/Src/stm32h5xx_hal_flash_ex.c ****   }
 1853              		.loc 1 703 5 is_stmt 1 view .LVU572
 1854              	.LBB4:
 1855              	.LBI4:
 1856              		.file 2 "Drivers/CMSIS/Include/cmsis_gcc.h"
   1:Drivers/CMSIS/Include/cmsis_gcc.h **** /**************************************************************************//**
   2:Drivers/CMSIS/Include/cmsis_gcc.h ****  * @file     cmsis_gcc.h
   3:Drivers/CMSIS/Include/cmsis_gcc.h ****  * @brief    CMSIS compiler GCC header file
   4:Drivers/CMSIS/Include/cmsis_gcc.h ****  * @version  V5.4.1
   5:Drivers/CMSIS/Include/cmsis_gcc.h ****  * @date     27. May 2021
   6:Drivers/CMSIS/Include/cmsis_gcc.h ****  ******************************************************************************/
   7:Drivers/CMSIS/Include/cmsis_gcc.h **** /*
   8:Drivers/CMSIS/Include/cmsis_gcc.h ****  * Copyright (c) 2009-2021 Arm Limited. All rights reserved.
   9:Drivers/CMSIS/Include/cmsis_gcc.h ****  *
  10:Drivers/CMSIS/Include/cmsis_gcc.h ****  * SPDX-License-Identifier: Apache-2.0
  11:Drivers/CMSIS/Include/cmsis_gcc.h ****  *
  12:Drivers/CMSIS/Include/cmsis_gcc.h ****  * Licensed under the Apache License, Version 2.0 (the License); you may
  13:Drivers/CMSIS/Include/cmsis_gcc.h ****  * not use this file except in compliance with the License.
  14:Drivers/CMSIS/Include/cmsis_gcc.h ****  * You may obtain a copy of the License at
  15:Drivers/CMSIS/Include/cmsis_gcc.h ****  *
  16:Drivers/CMSIS/Include/cmsis_gcc.h ****  * www.apache.org/licenses/LICENSE-2.0
  17:Drivers/CMSIS/Include/cmsis_gcc.h ****  *
ARM GAS  C:\Users\sapph\AppData\Local\Temp\ccb3riEs.s 			page 69


  18:Drivers/CMSIS/Include/cmsis_gcc.h ****  * Unless required by applicable law or agreed to in writing, software
  19:Drivers/CMSIS/Include/cmsis_gcc.h ****  * distributed under the License is distributed on an AS IS BASIS, WITHOUT
  20:Drivers/CMSIS/Include/cmsis_gcc.h ****  * WARRANTIES OR CONDITIONS OF ANY KIND, either express or implied.
  21:Drivers/CMSIS/Include/cmsis_gcc.h ****  * See the License for the specific language governing permissions and
  22:Drivers/CMSIS/Include/cmsis_gcc.h ****  * limitations under the License.
  23:Drivers/CMSIS/Include/cmsis_gcc.h ****  */
  24:Drivers/CMSIS/Include/cmsis_gcc.h **** 
  25:Drivers/CMSIS/Include/cmsis_gcc.h **** #ifndef __CMSIS_GCC_H
  26:Drivers/CMSIS/Include/cmsis_gcc.h **** #define __CMSIS_GCC_H
  27:Drivers/CMSIS/Include/cmsis_gcc.h **** 
  28:Drivers/CMSIS/Include/cmsis_gcc.h **** /* ignore some GCC warnings */
  29:Drivers/CMSIS/Include/cmsis_gcc.h **** #pragma GCC diagnostic push
  30:Drivers/CMSIS/Include/cmsis_gcc.h **** #pragma GCC diagnostic ignored "-Wsign-conversion"
  31:Drivers/CMSIS/Include/cmsis_gcc.h **** #pragma GCC diagnostic ignored "-Wconversion"
  32:Drivers/CMSIS/Include/cmsis_gcc.h **** #pragma GCC diagnostic ignored "-Wunused-parameter"
  33:Drivers/CMSIS/Include/cmsis_gcc.h **** 
  34:Drivers/CMSIS/Include/cmsis_gcc.h **** /* Fallback for __has_builtin */
  35:Drivers/CMSIS/Include/cmsis_gcc.h **** #ifndef __has_builtin
  36:Drivers/CMSIS/Include/cmsis_gcc.h ****   #define __has_builtin(x) (0)
  37:Drivers/CMSIS/Include/cmsis_gcc.h **** #endif
  38:Drivers/CMSIS/Include/cmsis_gcc.h **** 
  39:Drivers/CMSIS/Include/cmsis_gcc.h **** /* CMSIS compiler specific defines */
  40:Drivers/CMSIS/Include/cmsis_gcc.h **** #ifndef   __ASM
  41:Drivers/CMSIS/Include/cmsis_gcc.h ****   #define __ASM                                  __asm
  42:Drivers/CMSIS/Include/cmsis_gcc.h **** #endif
  43:Drivers/CMSIS/Include/cmsis_gcc.h **** #ifndef   __INLINE
  44:Drivers/CMSIS/Include/cmsis_gcc.h ****   #define __INLINE                               inline
  45:Drivers/CMSIS/Include/cmsis_gcc.h **** #endif
  46:Drivers/CMSIS/Include/cmsis_gcc.h **** #ifndef   __STATIC_INLINE
  47:Drivers/CMSIS/Include/cmsis_gcc.h ****   #define __STATIC_INLINE                        static inline
  48:Drivers/CMSIS/Include/cmsis_gcc.h **** #endif
  49:Drivers/CMSIS/Include/cmsis_gcc.h **** #ifndef   __STATIC_FORCEINLINE
  50:Drivers/CMSIS/Include/cmsis_gcc.h ****   #define __STATIC_FORCEINLINE                   __attribute__((always_inline)) static inline
  51:Drivers/CMSIS/Include/cmsis_gcc.h **** #endif
  52:Drivers/CMSIS/Include/cmsis_gcc.h **** #ifndef   __NO_RETURN
  53:Drivers/CMSIS/Include/cmsis_gcc.h ****   #define __NO_RETURN                            __attribute__((__noreturn__))
  54:Drivers/CMSIS/Include/cmsis_gcc.h **** #endif
  55:Drivers/CMSIS/Include/cmsis_gcc.h **** #ifndef   __USED
  56:Drivers/CMSIS/Include/cmsis_gcc.h ****   #define __USED                                 __attribute__((used))
  57:Drivers/CMSIS/Include/cmsis_gcc.h **** #endif
  58:Drivers/CMSIS/Include/cmsis_gcc.h **** #ifndef   __WEAK
  59:Drivers/CMSIS/Include/cmsis_gcc.h ****   #define __WEAK                                 __attribute__((weak))
  60:Drivers/CMSIS/Include/cmsis_gcc.h **** #endif
  61:Drivers/CMSIS/Include/cmsis_gcc.h **** #ifndef   __PACKED
  62:Drivers/CMSIS/Include/cmsis_gcc.h ****   #define __PACKED                               __attribute__((packed, aligned(1)))
  63:Drivers/CMSIS/Include/cmsis_gcc.h **** #endif
  64:Drivers/CMSIS/Include/cmsis_gcc.h **** #ifndef   __PACKED_STRUCT
  65:Drivers/CMSIS/Include/cmsis_gcc.h ****   #define __PACKED_STRUCT                        struct __attribute__((packed, aligned(1)))
  66:Drivers/CMSIS/Include/cmsis_gcc.h **** #endif
  67:Drivers/CMSIS/Include/cmsis_gcc.h **** #ifndef   __PACKED_UNION
  68:Drivers/CMSIS/Include/cmsis_gcc.h ****   #define __PACKED_UNION                         union __attribute__((packed, aligned(1)))
  69:Drivers/CMSIS/Include/cmsis_gcc.h **** #endif
  70:Drivers/CMSIS/Include/cmsis_gcc.h **** #ifndef   __UNALIGNED_UINT32        /* deprecated */
  71:Drivers/CMSIS/Include/cmsis_gcc.h ****   #pragma GCC diagnostic push
  72:Drivers/CMSIS/Include/cmsis_gcc.h ****   #pragma GCC diagnostic ignored "-Wpacked"
  73:Drivers/CMSIS/Include/cmsis_gcc.h ****   #pragma GCC diagnostic ignored "-Wattributes"
  74:Drivers/CMSIS/Include/cmsis_gcc.h ****   struct __attribute__((packed)) T_UINT32 { uint32_t v; };
ARM GAS  C:\Users\sapph\AppData\Local\Temp\ccb3riEs.s 			page 70


  75:Drivers/CMSIS/Include/cmsis_gcc.h ****   #pragma GCC diagnostic pop
  76:Drivers/CMSIS/Include/cmsis_gcc.h ****   #define __UNALIGNED_UINT32(x)                  (((struct T_UINT32 *)(x))->v)
  77:Drivers/CMSIS/Include/cmsis_gcc.h **** #endif
  78:Drivers/CMSIS/Include/cmsis_gcc.h **** #ifndef   __UNALIGNED_UINT16_WRITE
  79:Drivers/CMSIS/Include/cmsis_gcc.h ****   #pragma GCC diagnostic push
  80:Drivers/CMSIS/Include/cmsis_gcc.h ****   #pragma GCC diagnostic ignored "-Wpacked"
  81:Drivers/CMSIS/Include/cmsis_gcc.h ****   #pragma GCC diagnostic ignored "-Wattributes"
  82:Drivers/CMSIS/Include/cmsis_gcc.h ****   __PACKED_STRUCT T_UINT16_WRITE { uint16_t v; };
  83:Drivers/CMSIS/Include/cmsis_gcc.h ****   #pragma GCC diagnostic pop
  84:Drivers/CMSIS/Include/cmsis_gcc.h ****   #define __UNALIGNED_UINT16_WRITE(addr, val)    (void)((((struct T_UINT16_WRITE *)(void *)(addr))-
  85:Drivers/CMSIS/Include/cmsis_gcc.h **** #endif
  86:Drivers/CMSIS/Include/cmsis_gcc.h **** #ifndef   __UNALIGNED_UINT16_READ
  87:Drivers/CMSIS/Include/cmsis_gcc.h ****   #pragma GCC diagnostic push
  88:Drivers/CMSIS/Include/cmsis_gcc.h ****   #pragma GCC diagnostic ignored "-Wpacked"
  89:Drivers/CMSIS/Include/cmsis_gcc.h ****   #pragma GCC diagnostic ignored "-Wattributes"
  90:Drivers/CMSIS/Include/cmsis_gcc.h ****   __PACKED_STRUCT T_UINT16_READ { uint16_t v; };
  91:Drivers/CMSIS/Include/cmsis_gcc.h ****   #pragma GCC diagnostic pop
  92:Drivers/CMSIS/Include/cmsis_gcc.h ****   #define __UNALIGNED_UINT16_READ(addr)          (((const struct T_UINT16_READ *)(const void *)(add
  93:Drivers/CMSIS/Include/cmsis_gcc.h **** #endif
  94:Drivers/CMSIS/Include/cmsis_gcc.h **** #ifndef   __UNALIGNED_UINT32_WRITE
  95:Drivers/CMSIS/Include/cmsis_gcc.h ****   #pragma GCC diagnostic push
  96:Drivers/CMSIS/Include/cmsis_gcc.h ****   #pragma GCC diagnostic ignored "-Wpacked"
  97:Drivers/CMSIS/Include/cmsis_gcc.h ****   #pragma GCC diagnostic ignored "-Wattributes"
  98:Drivers/CMSIS/Include/cmsis_gcc.h ****   __PACKED_STRUCT T_UINT32_WRITE { uint32_t v; };
  99:Drivers/CMSIS/Include/cmsis_gcc.h ****   #pragma GCC diagnostic pop
 100:Drivers/CMSIS/Include/cmsis_gcc.h ****   #define __UNALIGNED_UINT32_WRITE(addr, val)    (void)((((struct T_UINT32_WRITE *)(void *)(addr))-
 101:Drivers/CMSIS/Include/cmsis_gcc.h **** #endif
 102:Drivers/CMSIS/Include/cmsis_gcc.h **** #ifndef   __UNALIGNED_UINT32_READ
 103:Drivers/CMSIS/Include/cmsis_gcc.h ****   #pragma GCC diagnostic push
 104:Drivers/CMSIS/Include/cmsis_gcc.h ****   #pragma GCC diagnostic ignored "-Wpacked"
 105:Drivers/CMSIS/Include/cmsis_gcc.h ****   #pragma GCC diagnostic ignored "-Wattributes"
 106:Drivers/CMSIS/Include/cmsis_gcc.h ****   __PACKED_STRUCT T_UINT32_READ { uint32_t v; };
 107:Drivers/CMSIS/Include/cmsis_gcc.h ****   #pragma GCC diagnostic pop
 108:Drivers/CMSIS/Include/cmsis_gcc.h ****   #define __UNALIGNED_UINT32_READ(addr)          (((const struct T_UINT32_READ *)(const void *)(add
 109:Drivers/CMSIS/Include/cmsis_gcc.h **** #endif
 110:Drivers/CMSIS/Include/cmsis_gcc.h **** #ifndef   __ALIGNED
 111:Drivers/CMSIS/Include/cmsis_gcc.h ****   #define __ALIGNED(x)                           __attribute__((aligned(x)))
 112:Drivers/CMSIS/Include/cmsis_gcc.h **** #endif
 113:Drivers/CMSIS/Include/cmsis_gcc.h **** #ifndef   __RESTRICT
 114:Drivers/CMSIS/Include/cmsis_gcc.h ****   #define __RESTRICT                             __restrict
 115:Drivers/CMSIS/Include/cmsis_gcc.h **** #endif
 116:Drivers/CMSIS/Include/cmsis_gcc.h **** #ifndef   __COMPILER_BARRIER
 117:Drivers/CMSIS/Include/cmsis_gcc.h ****   #define __COMPILER_BARRIER()                   __ASM volatile("":::"memory")
 118:Drivers/CMSIS/Include/cmsis_gcc.h **** #endif
 119:Drivers/CMSIS/Include/cmsis_gcc.h **** 
 120:Drivers/CMSIS/Include/cmsis_gcc.h **** /* #########################  Startup and Lowlevel Init  ######################## */
 121:Drivers/CMSIS/Include/cmsis_gcc.h **** 
 122:Drivers/CMSIS/Include/cmsis_gcc.h **** #ifndef __PROGRAM_START
 123:Drivers/CMSIS/Include/cmsis_gcc.h **** 
 124:Drivers/CMSIS/Include/cmsis_gcc.h **** /**
 125:Drivers/CMSIS/Include/cmsis_gcc.h ****   \brief   Initializes data and bss sections
 126:Drivers/CMSIS/Include/cmsis_gcc.h ****   \details This default implementations initialized all data and additional bss
 127:Drivers/CMSIS/Include/cmsis_gcc.h ****            sections relying on .copy.table and .zero.table specified properly
 128:Drivers/CMSIS/Include/cmsis_gcc.h ****            in the used linker script.
 129:Drivers/CMSIS/Include/cmsis_gcc.h **** 
 130:Drivers/CMSIS/Include/cmsis_gcc.h ****  */
 131:Drivers/CMSIS/Include/cmsis_gcc.h **** __STATIC_FORCEINLINE __NO_RETURN void __cmsis_start(void)
ARM GAS  C:\Users\sapph\AppData\Local\Temp\ccb3riEs.s 			page 71


 132:Drivers/CMSIS/Include/cmsis_gcc.h **** {
 133:Drivers/CMSIS/Include/cmsis_gcc.h ****   extern void _start(void) __NO_RETURN;
 134:Drivers/CMSIS/Include/cmsis_gcc.h **** 
 135:Drivers/CMSIS/Include/cmsis_gcc.h ****   typedef struct {
 136:Drivers/CMSIS/Include/cmsis_gcc.h ****     uint32_t const* src;
 137:Drivers/CMSIS/Include/cmsis_gcc.h ****     uint32_t* dest;
 138:Drivers/CMSIS/Include/cmsis_gcc.h ****     uint32_t  wlen;
 139:Drivers/CMSIS/Include/cmsis_gcc.h ****   } __copy_table_t;
 140:Drivers/CMSIS/Include/cmsis_gcc.h **** 
 141:Drivers/CMSIS/Include/cmsis_gcc.h ****   typedef struct {
 142:Drivers/CMSIS/Include/cmsis_gcc.h ****     uint32_t* dest;
 143:Drivers/CMSIS/Include/cmsis_gcc.h ****     uint32_t  wlen;
 144:Drivers/CMSIS/Include/cmsis_gcc.h ****   } __zero_table_t;
 145:Drivers/CMSIS/Include/cmsis_gcc.h **** 
 146:Drivers/CMSIS/Include/cmsis_gcc.h ****   extern const __copy_table_t __copy_table_start__;
 147:Drivers/CMSIS/Include/cmsis_gcc.h ****   extern const __copy_table_t __copy_table_end__;
 148:Drivers/CMSIS/Include/cmsis_gcc.h ****   extern const __zero_table_t __zero_table_start__;
 149:Drivers/CMSIS/Include/cmsis_gcc.h ****   extern const __zero_table_t __zero_table_end__;
 150:Drivers/CMSIS/Include/cmsis_gcc.h **** 
 151:Drivers/CMSIS/Include/cmsis_gcc.h ****   for (__copy_table_t const* pTable = &__copy_table_start__; pTable < &__copy_table_end__; ++pTable
 152:Drivers/CMSIS/Include/cmsis_gcc.h ****     for(uint32_t i=0u; i<pTable->wlen; ++i) {
 153:Drivers/CMSIS/Include/cmsis_gcc.h ****       pTable->dest[i] = pTable->src[i];
 154:Drivers/CMSIS/Include/cmsis_gcc.h ****     }
 155:Drivers/CMSIS/Include/cmsis_gcc.h ****   }
 156:Drivers/CMSIS/Include/cmsis_gcc.h **** 
 157:Drivers/CMSIS/Include/cmsis_gcc.h ****   for (__zero_table_t const* pTable = &__zero_table_start__; pTable < &__zero_table_end__; ++pTable
 158:Drivers/CMSIS/Include/cmsis_gcc.h ****     for(uint32_t i=0u; i<pTable->wlen; ++i) {
 159:Drivers/CMSIS/Include/cmsis_gcc.h ****       pTable->dest[i] = 0u;
 160:Drivers/CMSIS/Include/cmsis_gcc.h ****     }
 161:Drivers/CMSIS/Include/cmsis_gcc.h ****   }
 162:Drivers/CMSIS/Include/cmsis_gcc.h **** 
 163:Drivers/CMSIS/Include/cmsis_gcc.h ****   _start();
 164:Drivers/CMSIS/Include/cmsis_gcc.h **** }
 165:Drivers/CMSIS/Include/cmsis_gcc.h **** 
 166:Drivers/CMSIS/Include/cmsis_gcc.h **** #define __PROGRAM_START           __cmsis_start
 167:Drivers/CMSIS/Include/cmsis_gcc.h **** #endif
 168:Drivers/CMSIS/Include/cmsis_gcc.h **** 
 169:Drivers/CMSIS/Include/cmsis_gcc.h **** #ifndef __INITIAL_SP
 170:Drivers/CMSIS/Include/cmsis_gcc.h **** #define __INITIAL_SP              __StackTop
 171:Drivers/CMSIS/Include/cmsis_gcc.h **** #endif
 172:Drivers/CMSIS/Include/cmsis_gcc.h **** 
 173:Drivers/CMSIS/Include/cmsis_gcc.h **** #ifndef __STACK_LIMIT
 174:Drivers/CMSIS/Include/cmsis_gcc.h **** #define __STACK_LIMIT             __StackLimit
 175:Drivers/CMSIS/Include/cmsis_gcc.h **** #endif
 176:Drivers/CMSIS/Include/cmsis_gcc.h **** 
 177:Drivers/CMSIS/Include/cmsis_gcc.h **** #ifndef __VECTOR_TABLE
 178:Drivers/CMSIS/Include/cmsis_gcc.h **** #define __VECTOR_TABLE            __Vectors
 179:Drivers/CMSIS/Include/cmsis_gcc.h **** #endif
 180:Drivers/CMSIS/Include/cmsis_gcc.h **** 
 181:Drivers/CMSIS/Include/cmsis_gcc.h **** #ifndef __VECTOR_TABLE_ATTRIBUTE
 182:Drivers/CMSIS/Include/cmsis_gcc.h **** #define __VECTOR_TABLE_ATTRIBUTE  __attribute__((used, section(".vectors")))
 183:Drivers/CMSIS/Include/cmsis_gcc.h **** #endif
 184:Drivers/CMSIS/Include/cmsis_gcc.h **** 
 185:Drivers/CMSIS/Include/cmsis_gcc.h **** #if defined (__ARM_FEATURE_CMSE) && (__ARM_FEATURE_CMSE == 3U)
 186:Drivers/CMSIS/Include/cmsis_gcc.h **** #ifndef __STACK_SEAL
 187:Drivers/CMSIS/Include/cmsis_gcc.h **** #define __STACK_SEAL              __StackSeal
 188:Drivers/CMSIS/Include/cmsis_gcc.h **** #endif
ARM GAS  C:\Users\sapph\AppData\Local\Temp\ccb3riEs.s 			page 72


 189:Drivers/CMSIS/Include/cmsis_gcc.h **** 
 190:Drivers/CMSIS/Include/cmsis_gcc.h **** #ifndef __TZ_STACK_SEAL_SIZE
 191:Drivers/CMSIS/Include/cmsis_gcc.h **** #define __TZ_STACK_SEAL_SIZE      8U
 192:Drivers/CMSIS/Include/cmsis_gcc.h **** #endif
 193:Drivers/CMSIS/Include/cmsis_gcc.h **** 
 194:Drivers/CMSIS/Include/cmsis_gcc.h **** #ifndef __TZ_STACK_SEAL_VALUE
 195:Drivers/CMSIS/Include/cmsis_gcc.h **** #define __TZ_STACK_SEAL_VALUE     0xFEF5EDA5FEF5EDA5ULL
 196:Drivers/CMSIS/Include/cmsis_gcc.h **** #endif
 197:Drivers/CMSIS/Include/cmsis_gcc.h **** 
 198:Drivers/CMSIS/Include/cmsis_gcc.h **** 
 199:Drivers/CMSIS/Include/cmsis_gcc.h **** __STATIC_FORCEINLINE void __TZ_set_STACKSEAL_S (uint32_t* stackTop) {
 200:Drivers/CMSIS/Include/cmsis_gcc.h ****   *((uint64_t *)stackTop) = __TZ_STACK_SEAL_VALUE;
 201:Drivers/CMSIS/Include/cmsis_gcc.h **** }
 202:Drivers/CMSIS/Include/cmsis_gcc.h **** #endif
 203:Drivers/CMSIS/Include/cmsis_gcc.h **** 
 204:Drivers/CMSIS/Include/cmsis_gcc.h **** 
 205:Drivers/CMSIS/Include/cmsis_gcc.h **** /* ##########################  Core Instruction Access  ######################### */
 206:Drivers/CMSIS/Include/cmsis_gcc.h **** /** \defgroup CMSIS_Core_InstructionInterface CMSIS Core Instruction Interface
 207:Drivers/CMSIS/Include/cmsis_gcc.h ****   Access to dedicated instructions
 208:Drivers/CMSIS/Include/cmsis_gcc.h ****   @{
 209:Drivers/CMSIS/Include/cmsis_gcc.h **** */
 210:Drivers/CMSIS/Include/cmsis_gcc.h **** 
 211:Drivers/CMSIS/Include/cmsis_gcc.h **** /* Define macros for porting to both thumb1 and thumb2.
 212:Drivers/CMSIS/Include/cmsis_gcc.h ****  * For thumb1, use low register (r0-r7), specified by constraint "l"
 213:Drivers/CMSIS/Include/cmsis_gcc.h ****  * Otherwise, use general registers, specified by constraint "r" */
 214:Drivers/CMSIS/Include/cmsis_gcc.h **** #if defined (__thumb__) && !defined (__thumb2__)
 215:Drivers/CMSIS/Include/cmsis_gcc.h **** #define __CMSIS_GCC_OUT_REG(r) "=l" (r)
 216:Drivers/CMSIS/Include/cmsis_gcc.h **** #define __CMSIS_GCC_RW_REG(r) "+l" (r)
 217:Drivers/CMSIS/Include/cmsis_gcc.h **** #define __CMSIS_GCC_USE_REG(r) "l" (r)
 218:Drivers/CMSIS/Include/cmsis_gcc.h **** #else
 219:Drivers/CMSIS/Include/cmsis_gcc.h **** #define __CMSIS_GCC_OUT_REG(r) "=r" (r)
 220:Drivers/CMSIS/Include/cmsis_gcc.h **** #define __CMSIS_GCC_RW_REG(r) "+r" (r)
 221:Drivers/CMSIS/Include/cmsis_gcc.h **** #define __CMSIS_GCC_USE_REG(r) "r" (r)
 222:Drivers/CMSIS/Include/cmsis_gcc.h **** #endif
 223:Drivers/CMSIS/Include/cmsis_gcc.h **** 
 224:Drivers/CMSIS/Include/cmsis_gcc.h **** /**
 225:Drivers/CMSIS/Include/cmsis_gcc.h ****   \brief   No Operation
 226:Drivers/CMSIS/Include/cmsis_gcc.h ****   \details No Operation does nothing. This instruction can be used for code alignment purposes.
 227:Drivers/CMSIS/Include/cmsis_gcc.h ****  */
 228:Drivers/CMSIS/Include/cmsis_gcc.h **** #define __NOP()                             __ASM volatile ("nop")
 229:Drivers/CMSIS/Include/cmsis_gcc.h **** 
 230:Drivers/CMSIS/Include/cmsis_gcc.h **** /**
 231:Drivers/CMSIS/Include/cmsis_gcc.h ****   \brief   Wait For Interrupt
 232:Drivers/CMSIS/Include/cmsis_gcc.h ****   \details Wait For Interrupt is a hint instruction that suspends execution until one of a number o
 233:Drivers/CMSIS/Include/cmsis_gcc.h ****  */
 234:Drivers/CMSIS/Include/cmsis_gcc.h **** #define __WFI()                             __ASM volatile ("wfi":::"memory")
 235:Drivers/CMSIS/Include/cmsis_gcc.h **** 
 236:Drivers/CMSIS/Include/cmsis_gcc.h **** 
 237:Drivers/CMSIS/Include/cmsis_gcc.h **** /**
 238:Drivers/CMSIS/Include/cmsis_gcc.h ****   \brief   Wait For Event
 239:Drivers/CMSIS/Include/cmsis_gcc.h ****   \details Wait For Event is a hint instruction that permits the processor to enter
 240:Drivers/CMSIS/Include/cmsis_gcc.h ****            a low-power state until one of a number of events occurs.
 241:Drivers/CMSIS/Include/cmsis_gcc.h ****  */
 242:Drivers/CMSIS/Include/cmsis_gcc.h **** #define __WFE()                             __ASM volatile ("wfe":::"memory")
 243:Drivers/CMSIS/Include/cmsis_gcc.h **** 
 244:Drivers/CMSIS/Include/cmsis_gcc.h **** 
 245:Drivers/CMSIS/Include/cmsis_gcc.h **** /**
ARM GAS  C:\Users\sapph\AppData\Local\Temp\ccb3riEs.s 			page 73


 246:Drivers/CMSIS/Include/cmsis_gcc.h ****   \brief   Send Event
 247:Drivers/CMSIS/Include/cmsis_gcc.h ****   \details Send Event is a hint instruction. It causes an event to be signaled to the CPU.
 248:Drivers/CMSIS/Include/cmsis_gcc.h ****  */
 249:Drivers/CMSIS/Include/cmsis_gcc.h **** #define __SEV()                             __ASM volatile ("sev")
 250:Drivers/CMSIS/Include/cmsis_gcc.h **** 
 251:Drivers/CMSIS/Include/cmsis_gcc.h **** 
 252:Drivers/CMSIS/Include/cmsis_gcc.h **** /**
 253:Drivers/CMSIS/Include/cmsis_gcc.h ****   \brief   Instruction Synchronization Barrier
 254:Drivers/CMSIS/Include/cmsis_gcc.h ****   \details Instruction Synchronization Barrier flushes the pipeline in the processor,
 255:Drivers/CMSIS/Include/cmsis_gcc.h ****            so that all instructions following the ISB are fetched from cache or memory,
 256:Drivers/CMSIS/Include/cmsis_gcc.h ****            after the instruction has been completed.
 257:Drivers/CMSIS/Include/cmsis_gcc.h ****  */
 258:Drivers/CMSIS/Include/cmsis_gcc.h **** __STATIC_FORCEINLINE void __ISB(void)
 1857              		.loc 2 258 27 view .LVU573
 1858              	.LBB5:
 259:Drivers/CMSIS/Include/cmsis_gcc.h **** {
 260:Drivers/CMSIS/Include/cmsis_gcc.h ****   __ASM volatile ("isb 0xF":::"memory");
 1859              		.loc 2 260 3 view .LVU574
 1860              		.syntax unified
 1861              	@ 260 "Drivers/CMSIS/Include/cmsis_gcc.h" 1
 1862 0038 BFF36F8F 		isb 0xF
 1863              	@ 0 "" 2
 1864              	.LVL142:
 1865              		.thumb
 1866              		.syntax unified
 1867              	.L173:
 1868              		.loc 2 260 3 is_stmt 0 view .LVU575
 1869              	.LBE5:
 1870              	.LBE4:
 707:Drivers/STM32H5xx_HAL_Driver/Src/stm32h5xx_hal_flash_ex.c **** 
 1871              		.loc 1 707 3 is_stmt 1 view .LVU576
 707:Drivers/STM32H5xx_HAL_Driver/Src/stm32h5xx_hal_flash_ex.c **** 
 1872              		.loc 1 707 3 view .LVU577
 1873 003c 034B     		ldr	r3, .L183+8
 1874 003e 0022     		movs	r2, #0
 1875 0040 1A70     		strb	r2, [r3]
 707:Drivers/STM32H5xx_HAL_Driver/Src/stm32h5xx_hal_flash_ex.c **** 
 1876              		.loc 1 707 3 view .LVU578
 709:Drivers/STM32H5xx_HAL_Driver/Src/stm32h5xx_hal_flash_ex.c **** }
 1877              		.loc 1 709 3 view .LVU579
 710:Drivers/STM32H5xx_HAL_Driver/Src/stm32h5xx_hal_flash_ex.c **** 
 1878              		.loc 1 710 1 is_stmt 0 view .LVU580
 1879 0042 38BD     		pop	{r3, r4, r5, pc}
 1880              	.LVL143:
 1881              	.L184:
 710:Drivers/STM32H5xx_HAL_Driver/Src/stm32h5xx_hal_flash_ex.c **** 
 1882              		.loc 1 710 1 view .LVU581
 1883              		.align	2
 1884              	.L183:
 1885 0044 C0210240 		.word	1073881536
 1886 0048 C0200240 		.word	1073881280
 1887 004c 00000000 		.word	pFlash
 1888              		.cfi_endproc
 1889              	.LFE168:
 1891              		.section	.text.HAL_FLASHEx_GetConfigBBAttributes,"ax",%progbits
 1892              		.align	1
 1893              		.global	HAL_FLASHEx_GetConfigBBAttributes
ARM GAS  C:\Users\sapph\AppData\Local\Temp\ccb3riEs.s 			page 74


 1894              		.syntax unified
 1895              		.thumb
 1896              		.thumb_func
 1898              	HAL_FLASHEx_GetConfigBBAttributes:
 1899              	.LVL144:
 1900              	.LFB169:
 725:Drivers/STM32H5xx_HAL_Driver/Src/stm32h5xx_hal_flash_ex.c ****   uint8_t index;
 1901              		.loc 1 725 1 is_stmt 1 view -0
 1902              		.cfi_startproc
 1903              		@ args = 0, pretend = 0, frame = 0
 1904              		@ frame_needed = 0, uses_anonymous_args = 0
 1905              		@ link register save eliminated.
 726:Drivers/STM32H5xx_HAL_Driver/Src/stm32h5xx_hal_flash_ex.c ****   __IO uint32_t *reg;
 1906              		.loc 1 726 3 view .LVU583
 727:Drivers/STM32H5xx_HAL_Driver/Src/stm32h5xx_hal_flash_ex.c **** 
 1907              		.loc 1 727 3 view .LVU584
 730:Drivers/STM32H5xx_HAL_Driver/Src/stm32h5xx_hal_flash_ex.c ****   assert_param(IS_FLASH_BB_EXCLUSIVE(pBBAttributes->BBAttributesType));
 1908              		.loc 1 730 3 view .LVU585
 731:Drivers/STM32H5xx_HAL_Driver/Src/stm32h5xx_hal_flash_ex.c **** 
 1909              		.loc 1 731 3 view .LVU586
 749:Drivers/STM32H5xx_HAL_Driver/Src/stm32h5xx_hal_flash_ex.c ****     {
 1910              		.loc 1 749 5 view .LVU587
 749:Drivers/STM32H5xx_HAL_Driver/Src/stm32h5xx_hal_flash_ex.c ****     {
 1911              		.loc 1 749 22 is_stmt 0 view .LVU588
 1912 0000 0368     		ldr	r3, [r0]
 749:Drivers/STM32H5xx_HAL_Driver/Src/stm32h5xx_hal_flash_ex.c ****     {
 1913              		.loc 1 749 8 view .LVU589
 1914 0002 012B     		cmp	r3, #1
 1915 0004 0FD0     		beq	.L193
 755:Drivers/STM32H5xx_HAL_Driver/Src/stm32h5xx_hal_flash_ex.c ****     }
 1916              		.loc 1 755 11 view .LVU590
 1917 0006 094A     		ldr	r2, .L195
 1918              	.L186:
 751:Drivers/STM32H5xx_HAL_Driver/Src/stm32h5xx_hal_flash_ex.c ****     }
 1919              		.loc 1 751 11 view .LVU591
 1920 0008 0023     		movs	r3, #0
 1921              	.LVL145:
 760:Drivers/STM32H5xx_HAL_Driver/Src/stm32h5xx_hal_flash_ex.c ****   {
 1922              		.loc 1 760 25 is_stmt 1 discriminator 1 view .LVU592
 1923 000a 73B9     		cbnz	r3, .L194
 725:Drivers/STM32H5xx_HAL_Driver/Src/stm32h5xx_hal_flash_ex.c ****   uint8_t index;
 1924              		.loc 1 725 1 is_stmt 0 view .LVU593
 1925 000c 10B4     		push	{r4}
 1926              		.cfi_def_cfa_offset 4
 1927              		.cfi_offset 4, -4
 1928              	.L188:
 762:Drivers/STM32H5xx_HAL_Driver/Src/stm32h5xx_hal_flash_ex.c ****     reg++;
 1929              		.loc 1 762 5 is_stmt 1 view .LVU594
 762:Drivers/STM32H5xx_HAL_Driver/Src/stm32h5xx_hal_flash_ex.c ****     reg++;
 1930              		.loc 1 762 55 is_stmt 0 view .LVU595
 1931 000e 52F8044B 		ldr	r4, [r2], #4
 1932              	.LVL146:
 762:Drivers/STM32H5xx_HAL_Driver/Src/stm32h5xx_hal_flash_ex.c ****     reg++;
 1933              		.loc 1 762 46 view .LVU596
 1934 0012 991C     		adds	r1, r3, #2
 1935 0014 40F82140 		str	r4, [r0, r1, lsl #2]
 763:Drivers/STM32H5xx_HAL_Driver/Src/stm32h5xx_hal_flash_ex.c ****   }
ARM GAS  C:\Users\sapph\AppData\Local\Temp\ccb3riEs.s 			page 75


 1936              		.loc 1 763 5 is_stmt 1 view .LVU597
 1937              	.LVL147:
 760:Drivers/STM32H5xx_HAL_Driver/Src/stm32h5xx_hal_flash_ex.c ****   {
 1938              		.loc 1 760 57 discriminator 3 view .LVU598
 1939 0018 0133     		adds	r3, r3, #1
 1940              	.LVL148:
 760:Drivers/STM32H5xx_HAL_Driver/Src/stm32h5xx_hal_flash_ex.c ****   {
 1941              		.loc 1 760 57 is_stmt 0 discriminator 3 view .LVU599
 1942 001a DBB2     		uxtb	r3, r3
 1943              	.LVL149:
 760:Drivers/STM32H5xx_HAL_Driver/Src/stm32h5xx_hal_flash_ex.c ****   {
 1944              		.loc 1 760 25 is_stmt 1 discriminator 1 view .LVU600
 1945 001c 002B     		cmp	r3, #0
 1946 001e F6D0     		beq	.L188
 765:Drivers/STM32H5xx_HAL_Driver/Src/stm32h5xx_hal_flash_ex.c **** 
 1947              		.loc 1 765 1 is_stmt 0 view .LVU601
 1948 0020 5DF8044B 		ldr	r4, [sp], #4
 1949              		.cfi_restore 4
 1950              		.cfi_def_cfa_offset 0
 1951 0024 7047     		bx	lr
 1952              	.LVL150:
 1953              	.L193:
 751:Drivers/STM32H5xx_HAL_Driver/Src/stm32h5xx_hal_flash_ex.c ****     }
 1954              		.loc 1 751 11 view .LVU602
 1955 0026 024A     		ldr	r2, .L195+4
 1956 0028 EEE7     		b	.L186
 1957              	.LVL151:
 1958              	.L194:
 751:Drivers/STM32H5xx_HAL_Driver/Src/stm32h5xx_hal_flash_ex.c ****     }
 1959              		.loc 1 751 11 view .LVU603
 1960 002a 7047     		bx	lr
 1961              	.L196:
 1962              		.align	2
 1963              	.L195:
 1964 002c C0210240 		.word	1073881536
 1965 0030 C0200240 		.word	1073881280
 1966              		.cfi_endproc
 1967              	.LFE169:
 1969              		.section	.text.HAL_FLASHEx_ConfigPrivMode,"ax",%progbits
 1970              		.align	1
 1971              		.global	HAL_FLASHEx_ConfigPrivMode
 1972              		.syntax unified
 1973              		.thumb
 1974              		.thumb_func
 1976              	HAL_FLASHEx_ConfigPrivMode:
 1977              	.LVL152:
 1978              	.LFB170:
 780:Drivers/STM32H5xx_HAL_Driver/Src/stm32h5xx_hal_flash_ex.c ****   /* Check the parameters */
 1979              		.loc 1 780 1 is_stmt 1 view -0
 1980              		.cfi_startproc
 1981              		@ args = 0, pretend = 0, frame = 0
 1982              		@ frame_needed = 0, uses_anonymous_args = 0
 1983              		@ link register save eliminated.
 782:Drivers/STM32H5xx_HAL_Driver/Src/stm32h5xx_hal_flash_ex.c **** #if defined (FLASH_PRIVCFGR_SPRIV)
 1984              		.loc 1 782 3 view .LVU605
 784:Drivers/STM32H5xx_HAL_Driver/Src/stm32h5xx_hal_flash_ex.c **** #else
 1985              		.loc 1 784 3 view .LVU606
ARM GAS  C:\Users\sapph\AppData\Local\Temp\ccb3riEs.s 			page 76


 1986 0000 034A     		ldr	r2, .L198
 1987 0002 D36B     		ldr	r3, [r2, #60]
 1988 0004 23F00303 		bic	r3, r3, #3
 1989 0008 0343     		orrs	r3, r3, r0
 1990 000a D363     		str	r3, [r2, #60]
 788:Drivers/STM32H5xx_HAL_Driver/Src/stm32h5xx_hal_flash_ex.c **** 
 1991              		.loc 1 788 1 is_stmt 0 view .LVU607
 1992 000c 7047     		bx	lr
 1993              	.L199:
 1994 000e 00BF     		.align	2
 1995              	.L198:
 1996 0010 00200240 		.word	1073881088
 1997              		.cfi_endproc
 1998              	.LFE170:
 2000              		.section	.text.HAL_FLASHEx_GetPrivMode,"ax",%progbits
 2001              		.align	1
 2002              		.global	HAL_FLASHEx_GetPrivMode
 2003              		.syntax unified
 2004              		.thumb
 2005              		.thumb_func
 2007              	HAL_FLASHEx_GetPrivMode:
 2008              	.LFB171:
 801:Drivers/STM32H5xx_HAL_Driver/Src/stm32h5xx_hal_flash_ex.c **** #if defined (FLASH_PRIVCFGR_SPRIV)
 2009              		.loc 1 801 1 is_stmt 1 view -0
 2010              		.cfi_startproc
 2011              		@ args = 0, pretend = 0, frame = 0
 2012              		@ frame_needed = 0, uses_anonymous_args = 0
 2013              		@ link register save eliminated.
 803:Drivers/STM32H5xx_HAL_Driver/Src/stm32h5xx_hal_flash_ex.c **** #else
 2014              		.loc 1 803 3 view .LVU609
 803:Drivers/STM32H5xx_HAL_Driver/Src/stm32h5xx_hal_flash_ex.c **** #else
 2015              		.loc 1 803 16 is_stmt 0 view .LVU610
 2016 0000 024B     		ldr	r3, .L201
 2017 0002 D86B     		ldr	r0, [r3, #60]
 807:Drivers/STM32H5xx_HAL_Driver/Src/stm32h5xx_hal_flash_ex.c **** 
 2018              		.loc 1 807 1 view .LVU611
 2019 0004 00F00300 		and	r0, r0, #3
 2020 0008 7047     		bx	lr
 2021              	.L202:
 2022 000a 00BF     		.align	2
 2023              	.L201:
 2024 000c 00200240 		.word	1073881088
 2025              		.cfi_endproc
 2026              	.LFE171:
 2028              		.section	.text.HAL_FLASHEx_ConfigHDPExtension,"ax",%progbits
 2029              		.align	1
 2030              		.global	HAL_FLASHEx_ConfigHDPExtension
 2031              		.syntax unified
 2032              		.thumb
 2033              		.thumb_func
 2035              	HAL_FLASHEx_ConfigHDPExtension:
 2036              	.LVL153:
 2037              	.LFB172:
 872:Drivers/STM32H5xx_HAL_Driver/Src/stm32h5xx_hal_flash_ex.c ****   /* Check the parameters */
 2038              		.loc 1 872 1 is_stmt 1 view -0
 2039              		.cfi_startproc
 2040              		@ args = 0, pretend = 0, frame = 0
ARM GAS  C:\Users\sapph\AppData\Local\Temp\ccb3riEs.s 			page 77


 2041              		@ frame_needed = 0, uses_anonymous_args = 0
 2042              		@ link register save eliminated.
 874:Drivers/STM32H5xx_HAL_Driver/Src/stm32h5xx_hal_flash_ex.c ****   assert_param(IS_FLASH_SECTOR(pHDPExtension->NbSectors));
 2043              		.loc 1 874 3 view .LVU613
 875:Drivers/STM32H5xx_HAL_Driver/Src/stm32h5xx_hal_flash_ex.c **** 
 2044              		.loc 1 875 3 view .LVU614
 878:Drivers/STM32H5xx_HAL_Driver/Src/stm32h5xx_hal_flash_ex.c ****   {
 2045              		.loc 1 878 3 view .LVU615
 878:Drivers/STM32H5xx_HAL_Driver/Src/stm32h5xx_hal_flash_ex.c ****   {
 2046              		.loc 1 878 20 is_stmt 0 view .LVU616
 2047 0000 0368     		ldr	r3, [r0]
 878:Drivers/STM32H5xx_HAL_Driver/Src/stm32h5xx_hal_flash_ex.c ****   {
 2048              		.loc 1 878 6 view .LVU617
 2049 0002 012B     		cmp	r3, #1
 2050 0004 08D0     		beq	.L207
 882:Drivers/STM32H5xx_HAL_Driver/Src/stm32h5xx_hal_flash_ex.c ****   {
 2051              		.loc 1 882 8 is_stmt 1 view .LVU618
 882:Drivers/STM32H5xx_HAL_Driver/Src/stm32h5xx_hal_flash_ex.c ****   {
 2052              		.loc 1 882 11 is_stmt 0 view .LVU619
 2053 0006 022B     		cmp	r3, #2
 2054 0008 0ED0     		beq	.L208
 888:Drivers/STM32H5xx_HAL_Driver/Src/stm32h5xx_hal_flash_ex.c ****   }
 2055              		.loc 1 888 5 is_stmt 1 view .LVU620
 888:Drivers/STM32H5xx_HAL_Driver/Src/stm32h5xx_hal_flash_ex.c ****   }
 2056              		.loc 1 888 36 is_stmt 0 view .LVU621
 2057 000a 4368     		ldr	r3, [r0, #4]
 888:Drivers/STM32H5xx_HAL_Driver/Src/stm32h5xx_hal_flash_ex.c ****   }
 2058              		.loc 1 888 79 view .LVU622
 2059 000c 43EA0343 		orr	r3, r3, r3, lsl #16
 888:Drivers/STM32H5xx_HAL_Driver/Src/stm32h5xx_hal_flash_ex.c ****   }
 2060              		.loc 1 888 20 view .LVU623
 2061 0010 0A4A     		ldr	r2, .L209
 2062 0012 9364     		str	r3, [r2, #72]
 2063              	.L205:
 891:Drivers/STM32H5xx_HAL_Driver/Src/stm32h5xx_hal_flash_ex.c **** }
 2064              		.loc 1 891 3 is_stmt 1 view .LVU624
 892:Drivers/STM32H5xx_HAL_Driver/Src/stm32h5xx_hal_flash_ex.c **** 
 2065              		.loc 1 892 1 is_stmt 0 view .LVU625
 2066 0014 0020     		movs	r0, #0
 2067              	.LVL154:
 892:Drivers/STM32H5xx_HAL_Driver/Src/stm32h5xx_hal_flash_ex.c **** 
 2068              		.loc 1 892 1 view .LVU626
 2069 0016 7047     		bx	lr
 2070              	.LVL155:
 2071              	.L207:
 880:Drivers/STM32H5xx_HAL_Driver/Src/stm32h5xx_hal_flash_ex.c ****   }
 2072              		.loc 1 880 5 is_stmt 1 view .LVU627
 2073 0018 084A     		ldr	r2, .L209
 2074 001a 936C     		ldr	r3, [r2, #72]
 2075 001c 23F01F03 		bic	r3, r3, #31
 2076 0020 4168     		ldr	r1, [r0, #4]
 2077 0022 0B43     		orrs	r3, r3, r1
 2078 0024 9364     		str	r3, [r2, #72]
 2079 0026 F5E7     		b	.L205
 2080              	.L208:
 884:Drivers/STM32H5xx_HAL_Driver/Src/stm32h5xx_hal_flash_ex.c ****   }
 2081              		.loc 1 884 5 view .LVU628
ARM GAS  C:\Users\sapph\AppData\Local\Temp\ccb3riEs.s 			page 78


 2082 0028 044A     		ldr	r2, .L209
 2083 002a 936C     		ldr	r3, [r2, #72]
 2084 002c 23F4F813 		bic	r3, r3, #2031616
 2085 0030 4168     		ldr	r1, [r0, #4]
 2086 0032 43EA0143 		orr	r3, r3, r1, lsl #16
 2087 0036 9364     		str	r3, [r2, #72]
 2088 0038 ECE7     		b	.L205
 2089              	.L210:
 2090 003a 00BF     		.align	2
 2091              	.L209:
 2092 003c 00200240 		.word	1073881088
 2093              		.cfi_endproc
 2094              	.LFE172:
 2096              		.section	.text.FLASH_Erase_Sector,"ax",%progbits
 2097              		.align	1
 2098              		.global	FLASH_Erase_Sector
 2099              		.syntax unified
 2100              		.thumb
 2101              		.thumb_func
 2103              	FLASH_Erase_Sector:
 2104              	.LVL156:
 2105              	.LFB174:
 965:Drivers/STM32H5xx_HAL_Driver/Src/stm32h5xx_hal_flash_ex.c ****   __IO uint32_t *reg_cr;
 2106              		.loc 1 965 1 view -0
 2107              		.cfi_startproc
 2108              		@ args = 0, pretend = 0, frame = 0
 2109              		@ frame_needed = 0, uses_anonymous_args = 0
 2110              		@ link register save eliminated.
 966:Drivers/STM32H5xx_HAL_Driver/Src/stm32h5xx_hal_flash_ex.c **** 
 2111              		.loc 1 966 3 view .LVU630
 969:Drivers/STM32H5xx_HAL_Driver/Src/stm32h5xx_hal_flash_ex.c ****   assert_param(IS_FLASH_BANK_EXCLUSIVE(Banks));
 2112              		.loc 1 969 3 view .LVU631
 970:Drivers/STM32H5xx_HAL_Driver/Src/stm32h5xx_hal_flash_ex.c **** 
 2113              		.loc 1 970 3 view .LVU632
 974:Drivers/STM32H5xx_HAL_Driver/Src/stm32h5xx_hal_flash_ex.c **** #else
 2114              		.loc 1 974 3 view .LVU633
 979:Drivers/STM32H5xx_HAL_Driver/Src/stm32h5xx_hal_flash_ex.c ****   {
 2115              		.loc 1 979 3 view .LVU634
 979:Drivers/STM32H5xx_HAL_Driver/Src/stm32h5xx_hal_flash_ex.c ****   {
 2116              		.loc 1 979 6 is_stmt 0 view .LVU635
 2117 0000 11F0010F 		tst	r1, #1
 2118 0004 0DD0     		beq	.L212
 982:Drivers/STM32H5xx_HAL_Driver/Src/stm32h5xx_hal_flash_ex.c **** 
 2119              		.loc 1 982 5 is_stmt 1 view .LVU636
 982:Drivers/STM32H5xx_HAL_Driver/Src/stm32h5xx_hal_flash_ex.c **** 
 2120              		.loc 1 982 6 is_stmt 0 view .LVU637
 2121 0006 0E4A     		ldr	r2, .L214
 2122 0008 936A     		ldr	r3, [r2, #40]
 982:Drivers/STM32H5xx_HAL_Driver/Src/stm32h5xx_hal_flash_ex.c **** 
 2123              		.loc 1 982 15 view .LVU638
 2124 000a 23F00043 		bic	r3, r3, #-2147483648
 2125 000e 23F4F863 		bic	r3, r3, #1984
 2126 0012 9362     		str	r3, [r2, #40]
 984:Drivers/STM32H5xx_HAL_Driver/Src/stm32h5xx_hal_flash_ex.c ****   }
 2127              		.loc 1 984 5 is_stmt 1 view .LVU639
 984:Drivers/STM32H5xx_HAL_Driver/Src/stm32h5xx_hal_flash_ex.c ****   }
 2128              		.loc 1 984 15 is_stmt 0 view .LVU640
ARM GAS  C:\Users\sapph\AppData\Local\Temp\ccb3riEs.s 			page 79


 2129 0014 936A     		ldr	r3, [r2, #40]
 2130 0016 43EA8013 		orr	r3, r3, r0, lsl #6
 2131 001a 43F02403 		orr	r3, r3, #36
 2132 001e 9362     		str	r3, [r2, #40]
 2133 0020 7047     		bx	lr
 2134              	.L212:
 989:Drivers/STM32H5xx_HAL_Driver/Src/stm32h5xx_hal_flash_ex.c **** 
 2135              		.loc 1 989 5 is_stmt 1 view .LVU641
 989:Drivers/STM32H5xx_HAL_Driver/Src/stm32h5xx_hal_flash_ex.c **** 
 2136              		.loc 1 989 6 is_stmt 0 view .LVU642
 2137 0022 074A     		ldr	r2, .L214
 2138 0024 936A     		ldr	r3, [r2, #40]
 989:Drivers/STM32H5xx_HAL_Driver/Src/stm32h5xx_hal_flash_ex.c **** 
 2139              		.loc 1 989 15 view .LVU643
 2140 0026 23F4F863 		bic	r3, r3, #1984
 2141 002a 9362     		str	r3, [r2, #40]
 991:Drivers/STM32H5xx_HAL_Driver/Src/stm32h5xx_hal_flash_ex.c ****   }
 2142              		.loc 1 991 5 is_stmt 1 view .LVU644
 991:Drivers/STM32H5xx_HAL_Driver/Src/stm32h5xx_hal_flash_ex.c ****   }
 2143              		.loc 1 991 15 is_stmt 0 view .LVU645
 2144 002c 936A     		ldr	r3, [r2, #40]
 2145 002e 43EA8010 		orr	r0, r3, r0, lsl #6
 2146              	.LVL157:
 991:Drivers/STM32H5xx_HAL_Driver/Src/stm32h5xx_hal_flash_ex.c ****   }
 2147              		.loc 1 991 15 view .LVU646
 2148 0032 40F00040 		orr	r0, r0, #-2147483648
 2149 0036 40F02400 		orr	r0, r0, #36
 2150 003a 9062     		str	r0, [r2, #40]
 993:Drivers/STM32H5xx_HAL_Driver/Src/stm32h5xx_hal_flash_ex.c **** 
 2151              		.loc 1 993 1 view .LVU647
 2152 003c 7047     		bx	lr
 2153              	.L215:
 2154 003e 00BF     		.align	2
 2155              	.L214:
 2156 0040 00200240 		.word	1073881088
 2157              		.cfi_endproc
 2158              	.LFE174:
 2160              		.section	.text.HAL_FLASHEx_Erase,"ax",%progbits
 2161              		.align	1
 2162              		.global	HAL_FLASHEx_Erase
 2163              		.syntax unified
 2164              		.thumb
 2165              		.thumb_func
 2167              	HAL_FLASHEx_Erase:
 2168              	.LVL158:
 2169              	.LFB160:
 169:Drivers/STM32H5xx_HAL_Driver/Src/stm32h5xx_hal_flash_ex.c ****   HAL_StatusTypeDef status;
 2170              		.loc 1 169 1 is_stmt 1 view -0
 2171              		.cfi_startproc
 2172              		@ args = 0, pretend = 0, frame = 0
 2173              		@ frame_needed = 0, uses_anonymous_args = 0
 170:Drivers/STM32H5xx_HAL_Driver/Src/stm32h5xx_hal_flash_ex.c ****   uint32_t sector_index;
 2174              		.loc 1 170 3 view .LVU649
 171:Drivers/STM32H5xx_HAL_Driver/Src/stm32h5xx_hal_flash_ex.c ****   __IO uint32_t *reg_cr;
 2175              		.loc 1 171 3 view .LVU650
 172:Drivers/STM32H5xx_HAL_Driver/Src/stm32h5xx_hal_flash_ex.c **** 
 2176              		.loc 1 172 3 view .LVU651
ARM GAS  C:\Users\sapph\AppData\Local\Temp\ccb3riEs.s 			page 80


 175:Drivers/STM32H5xx_HAL_Driver/Src/stm32h5xx_hal_flash_ex.c **** 
 2177              		.loc 1 175 3 view .LVU652
 178:Drivers/STM32H5xx_HAL_Driver/Src/stm32h5xx_hal_flash_ex.c **** 
 2178              		.loc 1 178 3 view .LVU653
 178:Drivers/STM32H5xx_HAL_Driver/Src/stm32h5xx_hal_flash_ex.c **** 
 2179              		.loc 1 178 3 view .LVU654
 2180 0000 2B4B     		ldr	r3, .L232
 2181 0002 1B78     		ldrb	r3, [r3]	@ zero_extendqisi2
 2182 0004 012B     		cmp	r3, #1
 2183 0006 4FD0     		beq	.L225
 169:Drivers/STM32H5xx_HAL_Driver/Src/stm32h5xx_hal_flash_ex.c ****   HAL_StatusTypeDef status;
 2184              		.loc 1 169 1 is_stmt 0 view .LVU655
 2185 0008 70B5     		push	{r4, r5, r6, lr}
 2186              		.cfi_def_cfa_offset 16
 2187              		.cfi_offset 4, -16
 2188              		.cfi_offset 5, -12
 2189              		.cfi_offset 6, -8
 2190              		.cfi_offset 14, -4
 2191 000a 0446     		mov	r4, r0
 2192 000c 0E46     		mov	r6, r1
 178:Drivers/STM32H5xx_HAL_Driver/Src/stm32h5xx_hal_flash_ex.c **** 
 2193              		.loc 1 178 3 is_stmt 1 discriminator 2 view .LVU656
 2194 000e 284B     		ldr	r3, .L232
 2195 0010 0122     		movs	r2, #1
 2196 0012 1A70     		strb	r2, [r3]
 178:Drivers/STM32H5xx_HAL_Driver/Src/stm32h5xx_hal_flash_ex.c **** 
 2197              		.loc 1 178 3 discriminator 2 view .LVU657
 181:Drivers/STM32H5xx_HAL_Driver/Src/stm32h5xx_hal_flash_ex.c **** 
 2198              		.loc 1 181 3 view .LVU658
 181:Drivers/STM32H5xx_HAL_Driver/Src/stm32h5xx_hal_flash_ex.c **** 
 2199              		.loc 1 181 20 is_stmt 0 view .LVU659
 2200 0014 0022     		movs	r2, #0
 2201 0016 5A60     		str	r2, [r3, #4]
 184:Drivers/STM32H5xx_HAL_Driver/Src/stm32h5xx_hal_flash_ex.c **** 
 2202              		.loc 1 184 3 is_stmt 1 view .LVU660
 184:Drivers/STM32H5xx_HAL_Driver/Src/stm32h5xx_hal_flash_ex.c **** 
 2203              		.loc 1 184 12 is_stmt 0 view .LVU661
 2204 0018 4FF47A70 		mov	r0, #1000
 2205              	.LVL159:
 184:Drivers/STM32H5xx_HAL_Driver/Src/stm32h5xx_hal_flash_ex.c **** 
 2206              		.loc 1 184 12 view .LVU662
 2207 001c FFF7FEFF 		bl	FLASH_WaitForLastOperation
 2208              	.LVL160:
 186:Drivers/STM32H5xx_HAL_Driver/Src/stm32h5xx_hal_flash_ex.c ****   {
 2209              		.loc 1 186 3 is_stmt 1 view .LVU663
 186:Drivers/STM32H5xx_HAL_Driver/Src/stm32h5xx_hal_flash_ex.c ****   {
 2210              		.loc 1 186 6 is_stmt 0 view .LVU664
 2211 0020 8446     		mov	ip, r0
 2212 0022 0028     		cmp	r0, #0
 2213 0024 3BD1     		bne	.L218
 189:Drivers/STM32H5xx_HAL_Driver/Src/stm32h5xx_hal_flash_ex.c **** 
 2214              		.loc 1 189 5 is_stmt 1 view .LVU665
 189:Drivers/STM32H5xx_HAL_Driver/Src/stm32h5xx_hal_flash_ex.c **** 
 2215              		.loc 1 189 41 is_stmt 0 view .LVU666
 2216 0026 2368     		ldr	r3, [r4]
 189:Drivers/STM32H5xx_HAL_Driver/Src/stm32h5xx_hal_flash_ex.c **** 
 2217              		.loc 1 189 29 view .LVU667
ARM GAS  C:\Users\sapph\AppData\Local\Temp\ccb3riEs.s 			page 81


 2218 0028 214A     		ldr	r2, .L232
 2219 002a 9360     		str	r3, [r2, #8]
 193:Drivers/STM32H5xx_HAL_Driver/Src/stm32h5xx_hal_flash_ex.c **** #else
 2220              		.loc 1 193 5 is_stmt 1 view .LVU668
 2221              	.LVL161:
 198:Drivers/STM32H5xx_HAL_Driver/Src/stm32h5xx_hal_flash_ex.c ****     {
 2222              		.loc 1 198 5 view .LVU669
 198:Drivers/STM32H5xx_HAL_Driver/Src/stm32h5xx_hal_flash_ex.c ****     {
 2223              		.loc 1 198 32 is_stmt 0 view .LVU670
 2224 002c 23F00041 		bic	r1, r3, #-2147483648
 198:Drivers/STM32H5xx_HAL_Driver/Src/stm32h5xx_hal_flash_ex.c ****     {
 2225              		.loc 1 198 8 view .LVU671
 2226 0030 48F20802 		movw	r2, #32776
 2227 0034 9142     		cmp	r1, r2
 2228 0036 07D0     		beq	.L230
 207:Drivers/STM32H5xx_HAL_Driver/Src/stm32h5xx_hal_flash_ex.c ****     {
 2229              		.loc 1 207 10 is_stmt 1 view .LVU672
 207:Drivers/STM32H5xx_HAL_Driver/Src/stm32h5xx_hal_flash_ex.c ****     {
 2230              		.loc 1 207 13 is_stmt 0 view .LVU673
 2231 0038 1E4A     		ldr	r2, .L232+4
 2232 003a 9342     		cmp	r3, r2
 2233 003c 0DD0     		beq	.L231
 219:Drivers/STM32H5xx_HAL_Driver/Src/stm32h5xx_hal_flash_ex.c **** 
 2234              		.loc 1 219 7 is_stmt 1 view .LVU674
 219:Drivers/STM32H5xx_HAL_Driver/Src/stm32h5xx_hal_flash_ex.c **** 
 2235              		.loc 1 219 20 is_stmt 0 view .LVU675
 2236 003e 4FF0FF33 		mov	r3, #-1
 2237 0042 3360     		str	r3, [r6]
 222:Drivers/STM32H5xx_HAL_Driver/Src/stm32h5xx_hal_flash_ex.c ****            sector_index++)
 2238              		.loc 1 222 7 is_stmt 1 view .LVU676
 222:Drivers/STM32H5xx_HAL_Driver/Src/stm32h5xx_hal_flash_ex.c ****            sector_index++)
 2239              		.loc 1 222 25 is_stmt 0 view .LVU677
 2240 0044 A568     		ldr	r5, [r4, #8]
 2241              	.LVL162:
 222:Drivers/STM32H5xx_HAL_Driver/Src/stm32h5xx_hal_flash_ex.c ****            sector_index++)
 2242              		.loc 1 222 7 view .LVU678
 2243 0046 11E0     		b	.L222
 2244              	.LVL163:
 2245              	.L230:
 201:Drivers/STM32H5xx_HAL_Driver/Src/stm32h5xx_hal_flash_ex.c **** 
 2246              		.loc 1 201 7 is_stmt 1 view .LVU679
 2247 0048 6068     		ldr	r0, [r4, #4]
 2248              	.LVL164:
 201:Drivers/STM32H5xx_HAL_Driver/Src/stm32h5xx_hal_flash_ex.c **** 
 2249              		.loc 1 201 7 is_stmt 0 view .LVU680
 2250 004a FFF7FEFF 		bl	FLASH_MassErase
 2251              	.LVL165:
 204:Drivers/STM32H5xx_HAL_Driver/Src/stm32h5xx_hal_flash_ex.c ****     }
 2252              		.loc 1 204 7 is_stmt 1 view .LVU681
 204:Drivers/STM32H5xx_HAL_Driver/Src/stm32h5xx_hal_flash_ex.c ****     }
 2253              		.loc 1 204 16 is_stmt 0 view .LVU682
 2254 004e 4FF47A70 		mov	r0, #1000
 2255 0052 FFF7FEFF 		bl	FLASH_WaitForLastOperation
 2256              	.LVL166:
 2257 0056 8446     		mov	ip, r0
 2258              	.LVL167:
 204:Drivers/STM32H5xx_HAL_Driver/Src/stm32h5xx_hal_flash_ex.c ****     }
ARM GAS  C:\Users\sapph\AppData\Local\Temp\ccb3riEs.s 			page 82


 2259              		.loc 1 204 16 view .LVU683
 2260 0058 19E0     		b	.L220
 2261              	.LVL168:
 2262              	.L231:
 210:Drivers/STM32H5xx_HAL_Driver/Src/stm32h5xx_hal_flash_ex.c **** 
 2263              		.loc 1 210 7 is_stmt 1 view .LVU684
 2264 005a FFF7FEFF 		bl	FLASH_OBKErase
 2265              	.LVL169:
 213:Drivers/STM32H5xx_HAL_Driver/Src/stm32h5xx_hal_flash_ex.c ****     }
 2266              		.loc 1 213 7 view .LVU685
 213:Drivers/STM32H5xx_HAL_Driver/Src/stm32h5xx_hal_flash_ex.c ****     }
 2267              		.loc 1 213 16 is_stmt 0 view .LVU686
 2268 005e 4FF47A70 		mov	r0, #1000
 2269 0062 FFF7FEFF 		bl	FLASH_WaitForLastOperation
 2270              	.LVL170:
 2271 0066 8446     		mov	ip, r0
 2272              	.LVL171:
 213:Drivers/STM32H5xx_HAL_Driver/Src/stm32h5xx_hal_flash_ex.c ****     }
 2273              		.loc 1 213 16 view .LVU687
 2274 0068 11E0     		b	.L220
 2275              	.LVL172:
 2276              	.L223:
 223:Drivers/STM32H5xx_HAL_Driver/Src/stm32h5xx_hal_flash_ex.c ****       {
 2277              		.loc 1 223 24 is_stmt 1 view .LVU688
 2278 006a 0135     		adds	r5, r5, #1
 2279              	.LVL173:
 2280              	.L222:
 222:Drivers/STM32H5xx_HAL_Driver/Src/stm32h5xx_hal_flash_ex.c ****            sector_index++)
 2281              		.loc 1 222 60 discriminator 1 view .LVU689
 222:Drivers/STM32H5xx_HAL_Driver/Src/stm32h5xx_hal_flash_ex.c ****            sector_index++)
 2282              		.loc 1 222 73 is_stmt 0 discriminator 1 view .LVU690
 2283 006c E368     		ldr	r3, [r4, #12]
 222:Drivers/STM32H5xx_HAL_Driver/Src/stm32h5xx_hal_flash_ex.c ****            sector_index++)
 2284              		.loc 1 222 97 discriminator 1 view .LVU691
 2285 006e A268     		ldr	r2, [r4, #8]
 222:Drivers/STM32H5xx_HAL_Driver/Src/stm32h5xx_hal_flash_ex.c ****            sector_index++)
 2286              		.loc 1 222 85 discriminator 1 view .LVU692
 2287 0070 1344     		add	r3, r3, r2
 222:Drivers/STM32H5xx_HAL_Driver/Src/stm32h5xx_hal_flash_ex.c ****            sector_index++)
 2288              		.loc 1 222 60 discriminator 1 view .LVU693
 2289 0072 AB42     		cmp	r3, r5
 2290 0074 0BD9     		bls	.L220
 225:Drivers/STM32H5xx_HAL_Driver/Src/stm32h5xx_hal_flash_ex.c **** 
 2291              		.loc 1 225 9 is_stmt 1 view .LVU694
 2292 0076 6168     		ldr	r1, [r4, #4]
 2293 0078 2846     		mov	r0, r5
 2294 007a FFF7FEFF 		bl	FLASH_Erase_Sector
 2295              	.LVL174:
 228:Drivers/STM32H5xx_HAL_Driver/Src/stm32h5xx_hal_flash_ex.c **** 
 2296              		.loc 1 228 9 view .LVU695
 228:Drivers/STM32H5xx_HAL_Driver/Src/stm32h5xx_hal_flash_ex.c **** 
 2297              		.loc 1 228 18 is_stmt 0 view .LVU696
 2298 007e 4FF47A70 		mov	r0, #1000
 2299 0082 FFF7FEFF 		bl	FLASH_WaitForLastOperation
 2300              	.LVL175:
 230:Drivers/STM32H5xx_HAL_Driver/Src/stm32h5xx_hal_flash_ex.c ****         {
 2301              		.loc 1 230 9 is_stmt 1 view .LVU697
ARM GAS  C:\Users\sapph\AppData\Local\Temp\ccb3riEs.s 			page 83


 230:Drivers/STM32H5xx_HAL_Driver/Src/stm32h5xx_hal_flash_ex.c ****         {
 2302              		.loc 1 230 12 is_stmt 0 view .LVU698
 2303 0086 8446     		mov	ip, r0
 2304 0088 0028     		cmp	r0, #0
 2305 008a EED0     		beq	.L223
 233:Drivers/STM32H5xx_HAL_Driver/Src/stm32h5xx_hal_flash_ex.c ****           break;
 2306              		.loc 1 233 11 is_stmt 1 view .LVU699
 233:Drivers/STM32H5xx_HAL_Driver/Src/stm32h5xx_hal_flash_ex.c ****           break;
 2307              		.loc 1 233 24 is_stmt 0 view .LVU700
 2308 008c 3560     		str	r5, [r6]
 234:Drivers/STM32H5xx_HAL_Driver/Src/stm32h5xx_hal_flash_ex.c ****         }
 2309              		.loc 1 234 11 is_stmt 1 view .LVU701
 2310              	.LVL176:
 2311              	.L220:
 240:Drivers/STM32H5xx_HAL_Driver/Src/stm32h5xx_hal_flash_ex.c ****   }
 2312              		.loc 1 240 5 view .LVU702
 2313 008e 0A49     		ldr	r1, .L232+8
 2314 0090 8B6A     		ldr	r3, [r1, #40]
 2315 0092 2268     		ldr	r2, [r4]
 2316 0094 22F00042 		bic	r2, r2, #-2147483648
 2317 0098 23EA0203 		bic	r3, r3, r2
 2318 009c 8B62     		str	r3, [r1, #40]
 2319              	.LVL177:
 2320              	.L218:
 244:Drivers/STM32H5xx_HAL_Driver/Src/stm32h5xx_hal_flash_ex.c **** 
 2321              		.loc 1 244 3 view .LVU703
 244:Drivers/STM32H5xx_HAL_Driver/Src/stm32h5xx_hal_flash_ex.c **** 
 2322              		.loc 1 244 3 view .LVU704
 2323 009e 044B     		ldr	r3, .L232
 2324 00a0 0022     		movs	r2, #0
 2325 00a2 1A70     		strb	r2, [r3]
 244:Drivers/STM32H5xx_HAL_Driver/Src/stm32h5xx_hal_flash_ex.c **** 
 2326              		.loc 1 244 3 view .LVU705
 246:Drivers/STM32H5xx_HAL_Driver/Src/stm32h5xx_hal_flash_ex.c **** }
 2327              		.loc 1 246 3 view .LVU706
 247:Drivers/STM32H5xx_HAL_Driver/Src/stm32h5xx_hal_flash_ex.c **** 
 2328              		.loc 1 247 1 is_stmt 0 view .LVU707
 2329 00a4 6046     		mov	r0, ip
 2330 00a6 70BD     		pop	{r4, r5, r6, pc}
 2331              	.LVL178:
 2332              	.L225:
 2333              		.cfi_def_cfa_offset 0
 2334              		.cfi_restore 4
 2335              		.cfi_restore 5
 2336              		.cfi_restore 6
 2337              		.cfi_restore 14
 178:Drivers/STM32H5xx_HAL_Driver/Src/stm32h5xx_hal_flash_ex.c **** 
 2338              		.loc 1 178 3 discriminator 1 view .LVU708
 2339 00a8 4FF0020C 		mov	ip, #2
 247:Drivers/STM32H5xx_HAL_Driver/Src/stm32h5xx_hal_flash_ex.c **** 
 2340              		.loc 1 247 1 view .LVU709
 2341 00ac 6046     		mov	r0, ip
 2342              	.LVL179:
 247:Drivers/STM32H5xx_HAL_Driver/Src/stm32h5xx_hal_flash_ex.c **** 
 2343              		.loc 1 247 1 view .LVU710
 2344 00ae 7047     		bx	lr
 2345              	.L233:
ARM GAS  C:\Users\sapph\AppData\Local\Temp\ccb3riEs.s 			page 84


 2346              		.align	2
 2347              	.L232:
 2348 00b0 00000000 		.word	pFlash
 2349 00b4 08000080 		.word	-2147483640
 2350 00b8 00200240 		.word	1073881088
 2351              		.cfi_endproc
 2352              	.LFE160:
 2354              		.section	.text.HAL_FLASHEx_Erase_IT,"ax",%progbits
 2355              		.align	1
 2356              		.global	HAL_FLASHEx_Erase_IT
 2357              		.syntax unified
 2358              		.thumb
 2359              		.thumb_func
 2361              	HAL_FLASHEx_Erase_IT:
 2362              	.LVL180:
 2363              	.LFB161:
 257:Drivers/STM32H5xx_HAL_Driver/Src/stm32h5xx_hal_flash_ex.c ****   HAL_StatusTypeDef status;
 2364              		.loc 1 257 1 is_stmt 1 view -0
 2365              		.cfi_startproc
 2366              		@ args = 0, pretend = 0, frame = 0
 2367              		@ frame_needed = 0, uses_anonymous_args = 0
 257:Drivers/STM32H5xx_HAL_Driver/Src/stm32h5xx_hal_flash_ex.c ****   HAL_StatusTypeDef status;
 2368              		.loc 1 257 1 is_stmt 0 view .LVU712
 2369 0000 38B5     		push	{r3, r4, r5, lr}
 2370              		.cfi_def_cfa_offset 16
 2371              		.cfi_offset 3, -16
 2372              		.cfi_offset 4, -12
 2373              		.cfi_offset 5, -8
 2374              		.cfi_offset 14, -4
 258:Drivers/STM32H5xx_HAL_Driver/Src/stm32h5xx_hal_flash_ex.c ****   __IO uint32_t *reg_cr;
 2375              		.loc 1 258 3 is_stmt 1 view .LVU713
 259:Drivers/STM32H5xx_HAL_Driver/Src/stm32h5xx_hal_flash_ex.c **** 
 2376              		.loc 1 259 3 view .LVU714
 262:Drivers/STM32H5xx_HAL_Driver/Src/stm32h5xx_hal_flash_ex.c **** 
 2377              		.loc 1 262 3 view .LVU715
 265:Drivers/STM32H5xx_HAL_Driver/Src/stm32h5xx_hal_flash_ex.c **** 
 2378              		.loc 1 265 3 view .LVU716
 265:Drivers/STM32H5xx_HAL_Driver/Src/stm32h5xx_hal_flash_ex.c **** 
 2379              		.loc 1 265 3 view .LVU717
 2380 0002 1D4B     		ldr	r3, .L243
 2381 0004 1B78     		ldrb	r3, [r3]	@ zero_extendqisi2
 2382 0006 012B     		cmp	r3, #1
 2383 0008 34D0     		beq	.L239
 2384 000a 0446     		mov	r4, r0
 265:Drivers/STM32H5xx_HAL_Driver/Src/stm32h5xx_hal_flash_ex.c **** 
 2385              		.loc 1 265 3 discriminator 2 view .LVU718
 2386 000c 1A4B     		ldr	r3, .L243
 2387 000e 0122     		movs	r2, #1
 2388 0010 1A70     		strb	r2, [r3]
 265:Drivers/STM32H5xx_HAL_Driver/Src/stm32h5xx_hal_flash_ex.c **** 
 2389              		.loc 1 265 3 discriminator 2 view .LVU719
 268:Drivers/STM32H5xx_HAL_Driver/Src/stm32h5xx_hal_flash_ex.c **** 
 2390              		.loc 1 268 3 view .LVU720
 268:Drivers/STM32H5xx_HAL_Driver/Src/stm32h5xx_hal_flash_ex.c **** 
 2391              		.loc 1 268 20 is_stmt 0 view .LVU721
 2392 0012 0022     		movs	r2, #0
 2393 0014 5A60     		str	r2, [r3, #4]
ARM GAS  C:\Users\sapph\AppData\Local\Temp\ccb3riEs.s 			page 85


 271:Drivers/STM32H5xx_HAL_Driver/Src/stm32h5xx_hal_flash_ex.c **** 
 2394              		.loc 1 271 3 is_stmt 1 view .LVU722
 271:Drivers/STM32H5xx_HAL_Driver/Src/stm32h5xx_hal_flash_ex.c **** 
 2395              		.loc 1 271 12 is_stmt 0 view .LVU723
 2396 0016 4FF47A70 		mov	r0, #1000
 2397              	.LVL181:
 271:Drivers/STM32H5xx_HAL_Driver/Src/stm32h5xx_hal_flash_ex.c **** 
 2398              		.loc 1 271 12 view .LVU724
 2399 001a FFF7FEFF 		bl	FLASH_WaitForLastOperation
 2400              	.LVL182:
 273:Drivers/STM32H5xx_HAL_Driver/Src/stm32h5xx_hal_flash_ex.c ****   {
 2401              		.loc 1 273 3 is_stmt 1 view .LVU725
 273:Drivers/STM32H5xx_HAL_Driver/Src/stm32h5xx_hal_flash_ex.c ****   {
 2402              		.loc 1 273 6 is_stmt 0 view .LVU726
 2403 001e 0546     		mov	r5, r0
 2404 0020 20B1     		cbz	r0, .L236
 276:Drivers/STM32H5xx_HAL_Driver/Src/stm32h5xx_hal_flash_ex.c ****   }
 2405              		.loc 1 276 5 is_stmt 1 view .LVU727
 276:Drivers/STM32H5xx_HAL_Driver/Src/stm32h5xx_hal_flash_ex.c ****   }
 2406              		.loc 1 276 5 view .LVU728
 2407 0022 154B     		ldr	r3, .L243
 2408 0024 0022     		movs	r2, #0
 2409 0026 1A70     		strb	r2, [r3]
 276:Drivers/STM32H5xx_HAL_Driver/Src/stm32h5xx_hal_flash_ex.c ****   }
 2410              		.loc 1 276 5 view .LVU729
 2411              	.LVL183:
 2412              	.L235:
 325:Drivers/STM32H5xx_HAL_Driver/Src/stm32h5xx_hal_flash_ex.c **** 
 2413              		.loc 1 325 1 is_stmt 0 view .LVU730
 2414 0028 2846     		mov	r0, r5
 2415 002a 38BD     		pop	{r3, r4, r5, pc}
 2416              	.LVL184:
 2417              	.L236:
 281:Drivers/STM32H5xx_HAL_Driver/Src/stm32h5xx_hal_flash_ex.c ****     pFlash.Bank = pEraseInit->Banks;
 2418              		.loc 1 281 5 is_stmt 1 view .LVU731
 281:Drivers/STM32H5xx_HAL_Driver/Src/stm32h5xx_hal_flash_ex.c ****     pFlash.Bank = pEraseInit->Banks;
 2419              		.loc 1 281 41 is_stmt 0 view .LVU732
 2420 002c 2268     		ldr	r2, [r4]
 281:Drivers/STM32H5xx_HAL_Driver/Src/stm32h5xx_hal_flash_ex.c ****     pFlash.Bank = pEraseInit->Banks;
 2421              		.loc 1 281 29 view .LVU733
 2422 002e 124B     		ldr	r3, .L243
 2423 0030 9A60     		str	r2, [r3, #8]
 282:Drivers/STM32H5xx_HAL_Driver/Src/stm32h5xx_hal_flash_ex.c **** 
 2424              		.loc 1 282 5 is_stmt 1 view .LVU734
 282:Drivers/STM32H5xx_HAL_Driver/Src/stm32h5xx_hal_flash_ex.c **** 
 2425              		.loc 1 282 29 is_stmt 0 view .LVU735
 2426 0032 6268     		ldr	r2, [r4, #4]
 282:Drivers/STM32H5xx_HAL_Driver/Src/stm32h5xx_hal_flash_ex.c **** 
 2427              		.loc 1 282 17 view .LVU736
 2428 0034 1A61     		str	r2, [r3, #16]
 286:Drivers/STM32H5xx_HAL_Driver/Src/stm32h5xx_hal_flash_ex.c **** #else
 2429              		.loc 1 286 5 is_stmt 1 view .LVU737
 2430              	.LVL185:
 293:Drivers/STM32H5xx_HAL_Driver/Src/stm32h5xx_hal_flash_ex.c ****                   FLASH_IT_STRBERR | FLASH_IT_INCERR | FLASH_IT_OBKERR | \
 2431              		.loc 1 293 5 view .LVU738
 293:Drivers/STM32H5xx_HAL_Driver/Src/stm32h5xx_hal_flash_ex.c ****                   FLASH_IT_STRBERR | FLASH_IT_INCERR | FLASH_IT_OBKERR | \
 2432              		.loc 1 293 6 is_stmt 0 view .LVU739
ARM GAS  C:\Users\sapph\AppData\Local\Temp\ccb3riEs.s 			page 86


 2433 0036 114A     		ldr	r2, .L243+4
 2434 0038 936A     		ldr	r3, [r2, #40]
 293:Drivers/STM32H5xx_HAL_Driver/Src/stm32h5xx_hal_flash_ex.c ****                   FLASH_IT_STRBERR | FLASH_IT_INCERR | FLASH_IT_OBKERR | \
 2435              		.loc 1 293 15 view .LVU740
 2436 003a 43F4FE03 		orr	r3, r3, #8323072
 2437 003e 9362     		str	r3, [r2, #40]
 301:Drivers/STM32H5xx_HAL_Driver/Src/stm32h5xx_hal_flash_ex.c ****     {
 2438              		.loc 1 301 5 is_stmt 1 view .LVU741
 301:Drivers/STM32H5xx_HAL_Driver/Src/stm32h5xx_hal_flash_ex.c ****     {
 2439              		.loc 1 301 20 is_stmt 0 view .LVU742
 2440 0040 2368     		ldr	r3, [r4]
 301:Drivers/STM32H5xx_HAL_Driver/Src/stm32h5xx_hal_flash_ex.c ****     {
 2441              		.loc 1 301 32 view .LVU743
 2442 0042 23F00041 		bic	r1, r3, #-2147483648
 301:Drivers/STM32H5xx_HAL_Driver/Src/stm32h5xx_hal_flash_ex.c ****     {
 2443              		.loc 1 301 8 view .LVU744
 2444 0046 48F20802 		movw	r2, #32776
 2445 004a 9142     		cmp	r1, r2
 2446 004c 0BD0     		beq	.L241
 307:Drivers/STM32H5xx_HAL_Driver/Src/stm32h5xx_hal_flash_ex.c ****     {
 2447              		.loc 1 307 10 is_stmt 1 view .LVU745
 307:Drivers/STM32H5xx_HAL_Driver/Src/stm32h5xx_hal_flash_ex.c ****     {
 2448              		.loc 1 307 13 is_stmt 0 view .LVU746
 2449 004e 0C4A     		ldr	r2, .L243+8
 2450 0050 9342     		cmp	r3, r2
 2451 0052 0CD0     		beq	.L242
 316:Drivers/STM32H5xx_HAL_Driver/Src/stm32h5xx_hal_flash_ex.c ****       pFlash.Sector = pEraseInit->Sector;
 2452              		.loc 1 316 7 is_stmt 1 view .LVU747
 316:Drivers/STM32H5xx_HAL_Driver/Src/stm32h5xx_hal_flash_ex.c ****       pFlash.Sector = pEraseInit->Sector;
 2453              		.loc 1 316 43 is_stmt 0 view .LVU748
 2454 0054 E268     		ldr	r2, [r4, #12]
 316:Drivers/STM32H5xx_HAL_Driver/Src/stm32h5xx_hal_flash_ex.c ****       pFlash.Sector = pEraseInit->Sector;
 2455              		.loc 1 316 31 view .LVU749
 2456 0056 084B     		ldr	r3, .L243
 2457 0058 9A61     		str	r2, [r3, #24]
 317:Drivers/STM32H5xx_HAL_Driver/Src/stm32h5xx_hal_flash_ex.c **** 
 2458              		.loc 1 317 7 is_stmt 1 view .LVU750
 317:Drivers/STM32H5xx_HAL_Driver/Src/stm32h5xx_hal_flash_ex.c **** 
 2459              		.loc 1 317 33 is_stmt 0 view .LVU751
 2460 005a A068     		ldr	r0, [r4, #8]
 2461              	.LVL186:
 317:Drivers/STM32H5xx_HAL_Driver/Src/stm32h5xx_hal_flash_ex.c **** 
 2462              		.loc 1 317 21 view .LVU752
 2463 005c 5861     		str	r0, [r3, #20]
 320:Drivers/STM32H5xx_HAL_Driver/Src/stm32h5xx_hal_flash_ex.c ****     }
 2464              		.loc 1 320 7 is_stmt 1 view .LVU753
 2465 005e 6168     		ldr	r1, [r4, #4]
 2466 0060 FFF7FEFF 		bl	FLASH_Erase_Sector
 2467              	.LVL187:
 2468 0064 E0E7     		b	.L235
 2469              	.LVL188:
 2470              	.L241:
 304:Drivers/STM32H5xx_HAL_Driver/Src/stm32h5xx_hal_flash_ex.c ****     }
 2471              		.loc 1 304 7 view .LVU754
 2472 0066 6068     		ldr	r0, [r4, #4]
 2473              	.LVL189:
 304:Drivers/STM32H5xx_HAL_Driver/Src/stm32h5xx_hal_flash_ex.c ****     }
ARM GAS  C:\Users\sapph\AppData\Local\Temp\ccb3riEs.s 			page 87


 2474              		.loc 1 304 7 is_stmt 0 view .LVU755
 2475 0068 FFF7FEFF 		bl	FLASH_MassErase
 2476              	.LVL190:
 2477 006c DCE7     		b	.L235
 2478              	.LVL191:
 2479              	.L242:
 310:Drivers/STM32H5xx_HAL_Driver/Src/stm32h5xx_hal_flash_ex.c ****     }
 2480              		.loc 1 310 7 is_stmt 1 view .LVU756
 2481 006e FFF7FEFF 		bl	FLASH_OBKErase
 2482              	.LVL192:
 310:Drivers/STM32H5xx_HAL_Driver/Src/stm32h5xx_hal_flash_ex.c ****     }
 2483              		.loc 1 310 7 is_stmt 0 view .LVU757
 2484 0072 D9E7     		b	.L235
 2485              	.LVL193:
 2486              	.L239:
 265:Drivers/STM32H5xx_HAL_Driver/Src/stm32h5xx_hal_flash_ex.c **** 
 2487              		.loc 1 265 3 discriminator 1 view .LVU758
 2488 0074 0225     		movs	r5, #2
 2489 0076 D7E7     		b	.L235
 2490              	.L244:
 2491              		.align	2
 2492              	.L243:
 2493 0078 00000000 		.word	pFlash
 2494 007c 00200240 		.word	1073881088
 2495 0080 08000080 		.word	-2147483640
 2496              		.cfi_endproc
 2497              	.LFE161:
 2499              		.section	.text.HAL_FLASHEx_EnableEccCorrectionInterrupt,"ax",%progbits
 2500              		.align	1
 2501              		.global	HAL_FLASHEx_EnableEccCorrectionInterrupt
 2502              		.syntax unified
 2503              		.thumb
 2504              		.thumb_func
 2506              	HAL_FLASHEx_EnableEccCorrectionInterrupt:
 2507              	.LFB192:
1819:Drivers/STM32H5xx_HAL_Driver/Src/stm32h5xx_hal_flash_ex.c **** #endif /* FLASH_EDATAR_EDATA_EN */
1820:Drivers/STM32H5xx_HAL_Driver/Src/stm32h5xx_hal_flash_ex.c **** 
1821:Drivers/STM32H5xx_HAL_Driver/Src/stm32h5xx_hal_flash_ex.c **** /**
1822:Drivers/STM32H5xx_HAL_Driver/Src/stm32h5xx_hal_flash_ex.c ****   * @}
1823:Drivers/STM32H5xx_HAL_Driver/Src/stm32h5xx_hal_flash_ex.c ****   */
1824:Drivers/STM32H5xx_HAL_Driver/Src/stm32h5xx_hal_flash_ex.c **** 
1825:Drivers/STM32H5xx_HAL_Driver/Src/stm32h5xx_hal_flash_ex.c **** /** @defgroup FLASHEx_Exported_Functions_Group3 Extended ECC operation functions
1826:Drivers/STM32H5xx_HAL_Driver/Src/stm32h5xx_hal_flash_ex.c ****   *  @brief   Extended ECC operation functions
1827:Drivers/STM32H5xx_HAL_Driver/Src/stm32h5xx_hal_flash_ex.c ****   *
1828:Drivers/STM32H5xx_HAL_Driver/Src/stm32h5xx_hal_flash_ex.c **** @verbatim
1829:Drivers/STM32H5xx_HAL_Driver/Src/stm32h5xx_hal_flash_ex.c ****  ===============================================================================
1830:Drivers/STM32H5xx_HAL_Driver/Src/stm32h5xx_hal_flash_ex.c ****                   ##### Extended ECC operation functions #####
1831:Drivers/STM32H5xx_HAL_Driver/Src/stm32h5xx_hal_flash_ex.c ****  ===============================================================================
1832:Drivers/STM32H5xx_HAL_Driver/Src/stm32h5xx_hal_flash_ex.c ****     [..]
1833:Drivers/STM32H5xx_HAL_Driver/Src/stm32h5xx_hal_flash_ex.c ****     This subsection provides a set of functions allowing to manage the Extended FLASH
1834:Drivers/STM32H5xx_HAL_Driver/Src/stm32h5xx_hal_flash_ex.c ****     ECC Operations.
1835:Drivers/STM32H5xx_HAL_Driver/Src/stm32h5xx_hal_flash_ex.c **** 
1836:Drivers/STM32H5xx_HAL_Driver/Src/stm32h5xx_hal_flash_ex.c **** @endverbatim
1837:Drivers/STM32H5xx_HAL_Driver/Src/stm32h5xx_hal_flash_ex.c ****   * @{
1838:Drivers/STM32H5xx_HAL_Driver/Src/stm32h5xx_hal_flash_ex.c ****   */
1839:Drivers/STM32H5xx_HAL_Driver/Src/stm32h5xx_hal_flash_ex.c **** /**
1840:Drivers/STM32H5xx_HAL_Driver/Src/stm32h5xx_hal_flash_ex.c ****   * @brief  Enable ECC correction interrupt
ARM GAS  C:\Users\sapph\AppData\Local\Temp\ccb3riEs.s 			page 88


1841:Drivers/STM32H5xx_HAL_Driver/Src/stm32h5xx_hal_flash_ex.c ****   * @param  None
1842:Drivers/STM32H5xx_HAL_Driver/Src/stm32h5xx_hal_flash_ex.c ****   * @retval None
1843:Drivers/STM32H5xx_HAL_Driver/Src/stm32h5xx_hal_flash_ex.c ****   */
1844:Drivers/STM32H5xx_HAL_Driver/Src/stm32h5xx_hal_flash_ex.c **** void HAL_FLASHEx_EnableEccCorrectionInterrupt(void)
1845:Drivers/STM32H5xx_HAL_Driver/Src/stm32h5xx_hal_flash_ex.c **** {
 2508              		.loc 1 1845 1 is_stmt 1 view -0
 2509              		.cfi_startproc
 2510              		@ args = 0, pretend = 0, frame = 0
 2511              		@ frame_needed = 0, uses_anonymous_args = 0
 2512              		@ link register save eliminated.
1846:Drivers/STM32H5xx_HAL_Driver/Src/stm32h5xx_hal_flash_ex.c ****   __HAL_FLASH_ENABLE_IT(FLASH_IT_ECCC);
 2513              		.loc 1 1846 3 view .LVU760
 2514              		.loc 1 1846 3 view .LVU761
 2515              		.loc 1 1846 3 discriminator 1 view .LVU762
 2516 0000 034A     		ldr	r2, .L246
 2517 0002 D2F80031 		ldr	r3, [r2, #256]
 2518 0006 43F00073 		orr	r3, r3, #33554432
 2519 000a C2F80031 		str	r3, [r2, #256]
 2520              		.loc 1 1846 3 discriminator 3 view .LVU763
 2521              		.loc 1 1846 3 discriminator 6 view .LVU764
1847:Drivers/STM32H5xx_HAL_Driver/Src/stm32h5xx_hal_flash_ex.c **** }
 2522              		.loc 1 1847 1 is_stmt 0 view .LVU765
 2523 000e 7047     		bx	lr
 2524              	.L247:
 2525              		.align	2
 2526              	.L246:
 2527 0010 00200240 		.word	1073881088
 2528              		.cfi_endproc
 2529              	.LFE192:
 2531              		.section	.text.HAL_FLASHEx_DisableEccCorrectionInterrupt,"ax",%progbits
 2532              		.align	1
 2533              		.global	HAL_FLASHEx_DisableEccCorrectionInterrupt
 2534              		.syntax unified
 2535              		.thumb
 2536              		.thumb_func
 2538              	HAL_FLASHEx_DisableEccCorrectionInterrupt:
 2539              	.LFB193:
1848:Drivers/STM32H5xx_HAL_Driver/Src/stm32h5xx_hal_flash_ex.c **** 
1849:Drivers/STM32H5xx_HAL_Driver/Src/stm32h5xx_hal_flash_ex.c **** /**
1850:Drivers/STM32H5xx_HAL_Driver/Src/stm32h5xx_hal_flash_ex.c ****   * @brief  Disable ECC correction interrupt
1851:Drivers/STM32H5xx_HAL_Driver/Src/stm32h5xx_hal_flash_ex.c ****   * @param  None
1852:Drivers/STM32H5xx_HAL_Driver/Src/stm32h5xx_hal_flash_ex.c ****   * @retval None
1853:Drivers/STM32H5xx_HAL_Driver/Src/stm32h5xx_hal_flash_ex.c ****   */
1854:Drivers/STM32H5xx_HAL_Driver/Src/stm32h5xx_hal_flash_ex.c **** void HAL_FLASHEx_DisableEccCorrectionInterrupt(void)
1855:Drivers/STM32H5xx_HAL_Driver/Src/stm32h5xx_hal_flash_ex.c **** {
 2540              		.loc 1 1855 1 is_stmt 1 view -0
 2541              		.cfi_startproc
 2542              		@ args = 0, pretend = 0, frame = 0
 2543              		@ frame_needed = 0, uses_anonymous_args = 0
 2544              		@ link register save eliminated.
1856:Drivers/STM32H5xx_HAL_Driver/Src/stm32h5xx_hal_flash_ex.c ****   __HAL_FLASH_DISABLE_IT(FLASH_IT_ECCC);
 2545              		.loc 1 1856 3 view .LVU767
 2546              		.loc 1 1856 3 view .LVU768
 2547              		.loc 1 1856 3 discriminator 1 view .LVU769
 2548 0000 034A     		ldr	r2, .L249
 2549 0002 D2F80031 		ldr	r3, [r2, #256]
 2550 0006 23F00073 		bic	r3, r3, #33554432
ARM GAS  C:\Users\sapph\AppData\Local\Temp\ccb3riEs.s 			page 89


 2551 000a C2F80031 		str	r3, [r2, #256]
 2552              		.loc 1 1856 3 discriminator 3 view .LVU770
 2553              		.loc 1 1856 3 discriminator 6 view .LVU771
1857:Drivers/STM32H5xx_HAL_Driver/Src/stm32h5xx_hal_flash_ex.c **** }
 2554              		.loc 1 1857 1 is_stmt 0 view .LVU772
 2555 000e 7047     		bx	lr
 2556              	.L250:
 2557              		.align	2
 2558              	.L249:
 2559 0010 00200240 		.word	1073881088
 2560              		.cfi_endproc
 2561              	.LFE193:
 2563              		.section	.text.HAL_FLASHEx_GetEccInfo,"ax",%progbits
 2564              		.align	1
 2565              		.global	HAL_FLASHEx_GetEccInfo
 2566              		.syntax unified
 2567              		.thumb
 2568              		.thumb_func
 2570              	HAL_FLASHEx_GetEccInfo:
 2571              	.LVL194:
 2572              	.LFB194:
1858:Drivers/STM32H5xx_HAL_Driver/Src/stm32h5xx_hal_flash_ex.c **** 
1859:Drivers/STM32H5xx_HAL_Driver/Src/stm32h5xx_hal_flash_ex.c **** /**
1860:Drivers/STM32H5xx_HAL_Driver/Src/stm32h5xx_hal_flash_ex.c ****   * @brief  Get the ECC error information.
1861:Drivers/STM32H5xx_HAL_Driver/Src/stm32h5xx_hal_flash_ex.c ****   * @param  pData Pointer to an FLASH_EccInfoTypeDef structure that contains the
1862:Drivers/STM32H5xx_HAL_Driver/Src/stm32h5xx_hal_flash_ex.c ****   *         ECC error information.
1863:Drivers/STM32H5xx_HAL_Driver/Src/stm32h5xx_hal_flash_ex.c ****   * @note   This function should be called before ECC bit is cleared
1864:Drivers/STM32H5xx_HAL_Driver/Src/stm32h5xx_hal_flash_ex.c ****   *         (in callback function)
1865:Drivers/STM32H5xx_HAL_Driver/Src/stm32h5xx_hal_flash_ex.c ****   * @retval None
1866:Drivers/STM32H5xx_HAL_Driver/Src/stm32h5xx_hal_flash_ex.c ****   */
1867:Drivers/STM32H5xx_HAL_Driver/Src/stm32h5xx_hal_flash_ex.c **** void HAL_FLASHEx_GetEccInfo(FLASH_EccInfoTypeDef *pData)
1868:Drivers/STM32H5xx_HAL_Driver/Src/stm32h5xx_hal_flash_ex.c **** {
 2573              		.loc 1 1868 1 is_stmt 1 view -0
 2574              		.cfi_startproc
 2575              		@ args = 0, pretend = 0, frame = 0
 2576              		@ frame_needed = 0, uses_anonymous_args = 0
 2577              		@ link register save eliminated.
 2578              		.loc 1 1868 1 is_stmt 0 view .LVU774
 2579 0000 10B4     		push	{r4}
 2580              		.cfi_def_cfa_offset 4
 2581              		.cfi_offset 4, -4
1869:Drivers/STM32H5xx_HAL_Driver/Src/stm32h5xx_hal_flash_ex.c ****   uint32_t correction_reg = FLASH->ECCCORR;
 2582              		.loc 1 1869 3 is_stmt 1 view .LVU775
 2583              		.loc 1 1869 12 is_stmt 0 view .LVU776
 2584 0002 3D4A     		ldr	r2, .L272
 2585 0004 D2F80011 		ldr	r1, [r2, #256]
 2586              	.LVL195:
1870:Drivers/STM32H5xx_HAL_Driver/Src/stm32h5xx_hal_flash_ex.c ****   uint32_t detection_reg = FLASH->ECCDETR;
 2587              		.loc 1 1870 3 is_stmt 1 view .LVU777
 2588              		.loc 1 1870 12 is_stmt 0 view .LVU778
 2589 0008 D2F80431 		ldr	r3, [r2, #260]
 2590              	.LVL196:
1871:Drivers/STM32H5xx_HAL_Driver/Src/stm32h5xx_hal_flash_ex.c ****   uint32_t data_reg = FLASH->ECCDR;
 2591              		.loc 1 1871 3 is_stmt 1 view .LVU779
 2592              		.loc 1 1871 12 is_stmt 0 view .LVU780
 2593 000c D2F80821 		ldr	r2, [r2, #264]
 2594              	.LVL197:
ARM GAS  C:\Users\sapph\AppData\Local\Temp\ccb3riEs.s 			page 90


1872:Drivers/STM32H5xx_HAL_Driver/Src/stm32h5xx_hal_flash_ex.c ****   uint32_t addr_reg = 0xFFFFFFFFU;
 2595              		.loc 1 1872 3 is_stmt 1 view .LVU781
1873:Drivers/STM32H5xx_HAL_Driver/Src/stm32h5xx_hal_flash_ex.c **** 
1874:Drivers/STM32H5xx_HAL_Driver/Src/stm32h5xx_hal_flash_ex.c ****   /* Check if the operation is a correction or a detection*/
1875:Drivers/STM32H5xx_HAL_Driver/Src/stm32h5xx_hal_flash_ex.c ****   if ((correction_reg & FLASH_ECCR_ECCC) != 0U)
 2596              		.loc 1 1875 3 view .LVU782
 2597              		.loc 1 1875 6 is_stmt 0 view .LVU783
 2598 0010 11F0804F 		tst	r1, #1073741824
 2599 0014 14D0     		beq	.L252
1876:Drivers/STM32H5xx_HAL_Driver/Src/stm32h5xx_hal_flash_ex.c ****   {
1877:Drivers/STM32H5xx_HAL_Driver/Src/stm32h5xx_hal_flash_ex.c ****     /*  Get area and offset address values from ECCCORR register*/
1878:Drivers/STM32H5xx_HAL_Driver/Src/stm32h5xx_hal_flash_ex.c ****     pData->Area = correction_reg & (~(FLASH_ECCR_ECCIE | FLASH_ECCR_ADDR_ECC | FLASH_ECCR_ECCC));
 2600              		.loc 1 1878 5 is_stmt 1 view .LVU784
 2601              		.loc 1 1878 34 is_stmt 0 view .LVU785
 2602 0016 394B     		ldr	r3, .L272+4
 2603              	.LVL198:
 2604              		.loc 1 1878 34 view .LVU786
 2605 0018 0B40     		ands	r3, r3, r1
 2606              		.loc 1 1878 17 view .LVU787
 2607 001a 0360     		str	r3, [r0]
1879:Drivers/STM32H5xx_HAL_Driver/Src/stm32h5xx_hal_flash_ex.c ****     addr_reg = (correction_reg & FLASH_ECCR_ADDR_ECC);
 2608              		.loc 1 1879 5 is_stmt 1 view .LVU788
 2609              		.loc 1 1879 14 is_stmt 0 view .LVU789
 2610 001c 8BB2     		uxth	r3, r1
 2611              	.LVL199:
1880:Drivers/STM32H5xx_HAL_Driver/Src/stm32h5xx_hal_flash_ex.c ****   }
1881:Drivers/STM32H5xx_HAL_Driver/Src/stm32h5xx_hal_flash_ex.c ****   else if ((detection_reg & FLASH_ECCR_ECCD) != 0U)
1882:Drivers/STM32H5xx_HAL_Driver/Src/stm32h5xx_hal_flash_ex.c ****   {
1883:Drivers/STM32H5xx_HAL_Driver/Src/stm32h5xx_hal_flash_ex.c ****     /* Get area and offset address values from ECCDETR register */
1884:Drivers/STM32H5xx_HAL_Driver/Src/stm32h5xx_hal_flash_ex.c ****     pData->Area = detection_reg & (~(FLASH_ECCR_ADDR_ECC | FLASH_ECCR_ECCD));
1885:Drivers/STM32H5xx_HAL_Driver/Src/stm32h5xx_hal_flash_ex.c ****     addr_reg = (detection_reg & FLASH_ECCR_ADDR_ECC);
1886:Drivers/STM32H5xx_HAL_Driver/Src/stm32h5xx_hal_flash_ex.c ****   }
1887:Drivers/STM32H5xx_HAL_Driver/Src/stm32h5xx_hal_flash_ex.c ****   else
1888:Drivers/STM32H5xx_HAL_Driver/Src/stm32h5xx_hal_flash_ex.c ****   {
1889:Drivers/STM32H5xx_HAL_Driver/Src/stm32h5xx_hal_flash_ex.c ****     /* Do nothing */
1890:Drivers/STM32H5xx_HAL_Driver/Src/stm32h5xx_hal_flash_ex.c ****   }
 2612              		.loc 1 1890 3 is_stmt 1 view .LVU790
1891:Drivers/STM32H5xx_HAL_Driver/Src/stm32h5xx_hal_flash_ex.c **** 
1892:Drivers/STM32H5xx_HAL_Driver/Src/stm32h5xx_hal_flash_ex.c ****   /* Check that an ECC single or double error has occurred to continue the calculation of area addr
1893:Drivers/STM32H5xx_HAL_Driver/Src/stm32h5xx_hal_flash_ex.c ****   if (addr_reg != 0xFFFFFFFFU)
 2613              		.loc 1 1893 3 view .LVU791
 2614              	.L253:
1894:Drivers/STM32H5xx_HAL_Driver/Src/stm32h5xx_hal_flash_ex.c ****   {
1895:Drivers/STM32H5xx_HAL_Driver/Src/stm32h5xx_hal_flash_ex.c ****     /* Get address value according to area value*/
1896:Drivers/STM32H5xx_HAL_Driver/Src/stm32h5xx_hal_flash_ex.c ****     switch (pData->Area)
 2615              		.loc 1 1896 5 view .LVU792
 2616              		.loc 1 1896 18 is_stmt 0 view .LVU793
 2617 001e 0468     		ldr	r4, [r0]
 2618              		.loc 1 1896 5 view .LVU794
 2619 0020 B4F5800F 		cmp	r4, #4194304
 2620 0024 23D0     		beq	.L255
 2621 0026 17D8     		bhi	.L256
 2622 0028 B4F5801F 		cmp	r4, #1048576
 2623 002c 40D0     		beq	.L257
 2624 002e B4F5001F 		cmp	r4, #2097152
 2625 0032 43D0     		beq	.L258
 2626 0034 34B9     		cbnz	r4, .L254
ARM GAS  C:\Users\sapph\AppData\Local\Temp\ccb3riEs.s 			page 91


1897:Drivers/STM32H5xx_HAL_Driver/Src/stm32h5xx_hal_flash_ex.c ****     {
1898:Drivers/STM32H5xx_HAL_Driver/Src/stm32h5xx_hal_flash_ex.c ****       case FLASH_ECC_AREA_USER_BANK1:
1899:Drivers/STM32H5xx_HAL_Driver/Src/stm32h5xx_hal_flash_ex.c ****         /*
1900:Drivers/STM32H5xx_HAL_Driver/Src/stm32h5xx_hal_flash_ex.c ****          * One error detection/correction or two error detections per 128-bit flash word
1901:Drivers/STM32H5xx_HAL_Driver/Src/stm32h5xx_hal_flash_ex.c ****          * Therefore, the address returned by ECC registers in bank1 represents 128-bit flash word,
1902:Drivers/STM32H5xx_HAL_Driver/Src/stm32h5xx_hal_flash_ex.c ****          * to get the correct address value, we must do a shift by 4 bits
1903:Drivers/STM32H5xx_HAL_Driver/Src/stm32h5xx_hal_flash_ex.c ****         */
1904:Drivers/STM32H5xx_HAL_Driver/Src/stm32h5xx_hal_flash_ex.c ****         addr_reg = addr_reg << 4U;
 2627              		.loc 1 1904 9 is_stmt 1 view .LVU795
 2628              		.loc 1 1904 18 is_stmt 0 view .LVU796
 2629 0036 1B01     		lsls	r3, r3, #4
 2630              	.LVL200:
1905:Drivers/STM32H5xx_HAL_Driver/Src/stm32h5xx_hal_flash_ex.c ****         pData->Address = FLASH_BASE + addr_reg;
 2631              		.loc 1 1905 9 is_stmt 1 view .LVU797
 2632              		.loc 1 1905 37 is_stmt 0 view .LVU798
 2633 0038 03F10063 		add	r3, r3, #134217728
 2634              	.LVL201:
 2635              		.loc 1 1905 24 view .LVU799
 2636 003c 4360     		str	r3, [r0, #4]
1906:Drivers/STM32H5xx_HAL_Driver/Src/stm32h5xx_hal_flash_ex.c ****         break;
 2637              		.loc 1 1906 9 is_stmt 1 view .LVU800
 2638 003e 01E0     		b	.L254
 2639              	.LVL202:
 2640              	.L252:
1881:Drivers/STM32H5xx_HAL_Driver/Src/stm32h5xx_hal_flash_ex.c ****   {
 2641              		.loc 1 1881 8 view .LVU801
1881:Drivers/STM32H5xx_HAL_Driver/Src/stm32h5xx_hal_flash_ex.c ****   {
 2642              		.loc 1 1881 11 is_stmt 0 view .LVU802
 2643 0040 002B     		cmp	r3, #0
 2644 0042 04DB     		blt	.L271
 2645              	.LVL203:
 2646              	.L254:
1907:Drivers/STM32H5xx_HAL_Driver/Src/stm32h5xx_hal_flash_ex.c ****       case FLASH_ECC_AREA_USER_BANK2:
1908:Drivers/STM32H5xx_HAL_Driver/Src/stm32h5xx_hal_flash_ex.c ****         /*
1909:Drivers/STM32H5xx_HAL_Driver/Src/stm32h5xx_hal_flash_ex.c ****          * One error detection/correction or two error detections per 128-bit flash word
1910:Drivers/STM32H5xx_HAL_Driver/Src/stm32h5xx_hal_flash_ex.c ****          * Therefore, the address returned by ECC registers in bank2 represents 128-bit flash word,
1911:Drivers/STM32H5xx_HAL_Driver/Src/stm32h5xx_hal_flash_ex.c ****          * to get the correct address value, we must do a shift by 4 bits
1912:Drivers/STM32H5xx_HAL_Driver/Src/stm32h5xx_hal_flash_ex.c ****         */
1913:Drivers/STM32H5xx_HAL_Driver/Src/stm32h5xx_hal_flash_ex.c ****         addr_reg = addr_reg << 4U;
1914:Drivers/STM32H5xx_HAL_Driver/Src/stm32h5xx_hal_flash_ex.c ****         pData->Address = FLASH_BASE + FLASH_BANK_SIZE + addr_reg;
1915:Drivers/STM32H5xx_HAL_Driver/Src/stm32h5xx_hal_flash_ex.c ****         break;
1916:Drivers/STM32H5xx_HAL_Driver/Src/stm32h5xx_hal_flash_ex.c ****       case FLASH_ECC_AREA_SYSTEM:
1917:Drivers/STM32H5xx_HAL_Driver/Src/stm32h5xx_hal_flash_ex.c ****         /* check system flash bank */
1918:Drivers/STM32H5xx_HAL_Driver/Src/stm32h5xx_hal_flash_ex.c ****         if ((correction_reg & FLASH_ECCR_BK_ECC) == FLASH_ECCR_BK_ECC)
1919:Drivers/STM32H5xx_HAL_Driver/Src/stm32h5xx_hal_flash_ex.c ****         {
1920:Drivers/STM32H5xx_HAL_Driver/Src/stm32h5xx_hal_flash_ex.c ****           pData->Address = FLASH_SYSTEM_BASE + FLASH_SYSTEM_SIZE + addr_reg;
1921:Drivers/STM32H5xx_HAL_Driver/Src/stm32h5xx_hal_flash_ex.c ****         }
1922:Drivers/STM32H5xx_HAL_Driver/Src/stm32h5xx_hal_flash_ex.c ****         else
1923:Drivers/STM32H5xx_HAL_Driver/Src/stm32h5xx_hal_flash_ex.c ****         {
1924:Drivers/STM32H5xx_HAL_Driver/Src/stm32h5xx_hal_flash_ex.c ****           pData->Address = FLASH_SYSTEM_BASE + addr_reg;
1925:Drivers/STM32H5xx_HAL_Driver/Src/stm32h5xx_hal_flash_ex.c ****         }
1926:Drivers/STM32H5xx_HAL_Driver/Src/stm32h5xx_hal_flash_ex.c ****         break;
1927:Drivers/STM32H5xx_HAL_Driver/Src/stm32h5xx_hal_flash_ex.c **** #if defined (FLASH_SR_OBKERR)
1928:Drivers/STM32H5xx_HAL_Driver/Src/stm32h5xx_hal_flash_ex.c ****       case FLASH_ECC_AREA_OBK:
1929:Drivers/STM32H5xx_HAL_Driver/Src/stm32h5xx_hal_flash_ex.c ****         pData->Address = FLASH_OBK_BASE + addr_reg;
1930:Drivers/STM32H5xx_HAL_Driver/Src/stm32h5xx_hal_flash_ex.c ****         break;
1931:Drivers/STM32H5xx_HAL_Driver/Src/stm32h5xx_hal_flash_ex.c **** #endif /* FLASH_SR_OBKERR */
ARM GAS  C:\Users\sapph\AppData\Local\Temp\ccb3riEs.s 			page 92


1932:Drivers/STM32H5xx_HAL_Driver/Src/stm32h5xx_hal_flash_ex.c **** #if defined (FLASH_EDATAR_EDATA_EN)
1933:Drivers/STM32H5xx_HAL_Driver/Src/stm32h5xx_hal_flash_ex.c ****       case FLASH_ECC_AREA_EDATA:
1934:Drivers/STM32H5xx_HAL_Driver/Src/stm32h5xx_hal_flash_ex.c ****         /* check flash high-cycle data bank */
1935:Drivers/STM32H5xx_HAL_Driver/Src/stm32h5xx_hal_flash_ex.c ****         if ((correction_reg & FLASH_ECCR_BK_ECC) == FLASH_ECCR_BK_ECC)
1936:Drivers/STM32H5xx_HAL_Driver/Src/stm32h5xx_hal_flash_ex.c ****         {
1937:Drivers/STM32H5xx_HAL_Driver/Src/stm32h5xx_hal_flash_ex.c ****           /*
1938:Drivers/STM32H5xx_HAL_Driver/Src/stm32h5xx_hal_flash_ex.c ****            * addr_reg is the address returned by the ECC register along with an offset value depend
1939:Drivers/STM32H5xx_HAL_Driver/Src/stm32h5xx_hal_flash_ex.c ****            * To calculate the exact address set by user while an ECC occurred, we must subtract the
1940:Drivers/STM32H5xx_HAL_Driver/Src/stm32h5xx_hal_flash_ex.c ****            * In addition, the address returned by ECC registers represents 128-bit flash word (mult
1941:Drivers/STM32H5xx_HAL_Driver/Src/stm32h5xx_hal_flash_ex.c ****           */
1942:Drivers/STM32H5xx_HAL_Driver/Src/stm32h5xx_hal_flash_ex.c ****           pData->Address = FLASH_EDATA_BASE + FLASH_BANK_SIZE + ((addr_reg - FLASH_ADDRESS_OFFSET_E
1943:Drivers/STM32H5xx_HAL_Driver/Src/stm32h5xx_hal_flash_ex.c ****         }
1944:Drivers/STM32H5xx_HAL_Driver/Src/stm32h5xx_hal_flash_ex.c ****         else
1945:Drivers/STM32H5xx_HAL_Driver/Src/stm32h5xx_hal_flash_ex.c ****         {
1946:Drivers/STM32H5xx_HAL_Driver/Src/stm32h5xx_hal_flash_ex.c ****           pData->Address = FLASH_EDATA_BASE + ((addr_reg - FLASH_ADDRESS_OFFSET_EDATA) * 4U);
1947:Drivers/STM32H5xx_HAL_Driver/Src/stm32h5xx_hal_flash_ex.c ****         }
1948:Drivers/STM32H5xx_HAL_Driver/Src/stm32h5xx_hal_flash_ex.c ****         break;
1949:Drivers/STM32H5xx_HAL_Driver/Src/stm32h5xx_hal_flash_ex.c **** #endif /* FLASH_EDATAR_EDATA_EN */
1950:Drivers/STM32H5xx_HAL_Driver/Src/stm32h5xx_hal_flash_ex.c ****       case FLASH_ECC_AREA_OTP:
1951:Drivers/STM32H5xx_HAL_Driver/Src/stm32h5xx_hal_flash_ex.c ****         /* Address returned by the ECC is an halfword, multiply by 4 to get the exact address*/
1952:Drivers/STM32H5xx_HAL_Driver/Src/stm32h5xx_hal_flash_ex.c ****         pData->Address = FLASH_OTP_BASE + ((addr_reg - FLASH_ADDRESS_OFFSET_OTP) * 4U);
1953:Drivers/STM32H5xx_HAL_Driver/Src/stm32h5xx_hal_flash_ex.c ****         break;
1954:Drivers/STM32H5xx_HAL_Driver/Src/stm32h5xx_hal_flash_ex.c **** 
1955:Drivers/STM32H5xx_HAL_Driver/Src/stm32h5xx_hal_flash_ex.c ****       default:
1956:Drivers/STM32H5xx_HAL_Driver/Src/stm32h5xx_hal_flash_ex.c ****         /* Do nothing */
1957:Drivers/STM32H5xx_HAL_Driver/Src/stm32h5xx_hal_flash_ex.c ****         break;
1958:Drivers/STM32H5xx_HAL_Driver/Src/stm32h5xx_hal_flash_ex.c ****     }
1959:Drivers/STM32H5xx_HAL_Driver/Src/stm32h5xx_hal_flash_ex.c ****   }
1960:Drivers/STM32H5xx_HAL_Driver/Src/stm32h5xx_hal_flash_ex.c **** 
1961:Drivers/STM32H5xx_HAL_Driver/Src/stm32h5xx_hal_flash_ex.c ****   pData->Data = data_reg & FLASH_ECCR_ADDR_ECC;
 2647              		.loc 1 1961 3 is_stmt 1 view .LVU803
 2648              		.loc 1 1961 26 is_stmt 0 view .LVU804
 2649 0044 92B2     		uxth	r2, r2
 2650              	.LVL204:
 2651              		.loc 1 1961 15 view .LVU805
 2652 0046 8260     		str	r2, [r0, #8]
1962:Drivers/STM32H5xx_HAL_Driver/Src/stm32h5xx_hal_flash_ex.c **** }
 2653              		.loc 1 1962 1 view .LVU806
 2654 0048 5DF8044B 		ldr	r4, [sp], #4
 2655              		.cfi_remember_state
 2656              		.cfi_restore 4
 2657              		.cfi_def_cfa_offset 0
 2658 004c 7047     		bx	lr
 2659              	.LVL205:
 2660              	.L271:
 2661              		.cfi_restore_state
1884:Drivers/STM32H5xx_HAL_Driver/Src/stm32h5xx_hal_flash_ex.c ****     addr_reg = (detection_reg & FLASH_ECCR_ADDR_ECC);
 2662              		.loc 1 1884 5 is_stmt 1 view .LVU807
1884:Drivers/STM32H5xx_HAL_Driver/Src/stm32h5xx_hal_flash_ex.c ****     addr_reg = (detection_reg & FLASH_ECCR_ADDR_ECC);
 2663              		.loc 1 1884 33 is_stmt 0 view .LVU808
 2664 004e 2C4C     		ldr	r4, .L272+8
 2665 0050 1C40     		ands	r4, r4, r3
1884:Drivers/STM32H5xx_HAL_Driver/Src/stm32h5xx_hal_flash_ex.c ****     addr_reg = (detection_reg & FLASH_ECCR_ADDR_ECC);
 2666              		.loc 1 1884 17 view .LVU809
 2667 0052 0460     		str	r4, [r0]
1885:Drivers/STM32H5xx_HAL_Driver/Src/stm32h5xx_hal_flash_ex.c ****   }
 2668              		.loc 1 1885 5 is_stmt 1 view .LVU810
ARM GAS  C:\Users\sapph\AppData\Local\Temp\ccb3riEs.s 			page 93


1885:Drivers/STM32H5xx_HAL_Driver/Src/stm32h5xx_hal_flash_ex.c ****   }
 2669              		.loc 1 1885 14 is_stmt 0 view .LVU811
 2670 0054 9BB2     		uxth	r3, r3
 2671              	.LVL206:
1890:Drivers/STM32H5xx_HAL_Driver/Src/stm32h5xx_hal_flash_ex.c **** 
 2672              		.loc 1 1890 3 is_stmt 1 view .LVU812
1893:Drivers/STM32H5xx_HAL_Driver/Src/stm32h5xx_hal_flash_ex.c ****   {
 2673              		.loc 1 1893 3 view .LVU813
 2674 0056 E2E7     		b	.L253
 2675              	.L256:
1896:Drivers/STM32H5xx_HAL_Driver/Src/stm32h5xx_hal_flash_ex.c ****     {
 2676              		.loc 1 1896 5 is_stmt 0 view .LVU814
 2677 0058 B4F5000F 		cmp	r4, #8388608
 2678 005c 19D0     		beq	.L260
 2679 005e B4F1807F 		cmp	r4, #16777216
 2680 0062 EFD1     		bne	.L254
1952:Drivers/STM32H5xx_HAL_Driver/Src/stm32h5xx_hal_flash_ex.c ****         break;
 2681              		.loc 1 1952 9 is_stmt 1 view .LVU815
1952:Drivers/STM32H5xx_HAL_Driver/Src/stm32h5xx_hal_flash_ex.c ****         break;
 2682              		.loc 1 1952 41 is_stmt 0 view .LVU816
 2683 0064 2749     		ldr	r1, .L272+12
 2684              	.LVL207:
1952:Drivers/STM32H5xx_HAL_Driver/Src/stm32h5xx_hal_flash_ex.c ****         break;
 2685              		.loc 1 1952 41 view .LVU817
 2686 0066 1944     		add	r1, r1, r3
 2687 0068 8900     		lsls	r1, r1, #2
1952:Drivers/STM32H5xx_HAL_Driver/Src/stm32h5xx_hal_flash_ex.c ****         break;
 2688              		.loc 1 1952 24 view .LVU818
 2689 006a 4160     		str	r1, [r0, #4]
1953:Drivers/STM32H5xx_HAL_Driver/Src/stm32h5xx_hal_flash_ex.c **** 
 2690              		.loc 1 1953 9 is_stmt 1 view .LVU819
 2691 006c EAE7     		b	.L254
 2692              	.LVL208:
 2693              	.L255:
1913:Drivers/STM32H5xx_HAL_Driver/Src/stm32h5xx_hal_flash_ex.c ****         pData->Address = FLASH_BASE + FLASH_BANK_SIZE + addr_reg;
 2694              		.loc 1 1913 9 view .LVU820
1913:Drivers/STM32H5xx_HAL_Driver/Src/stm32h5xx_hal_flash_ex.c ****         pData->Address = FLASH_BASE + FLASH_BANK_SIZE + addr_reg;
 2695              		.loc 1 1913 18 is_stmt 0 view .LVU821
 2696 006e 1B01     		lsls	r3, r3, #4
 2697              	.LVL209:
1914:Drivers/STM32H5xx_HAL_Driver/Src/stm32h5xx_hal_flash_ex.c ****         break;
 2698              		.loc 1 1914 9 is_stmt 1 view .LVU822
1914:Drivers/STM32H5xx_HAL_Driver/Src/stm32h5xx_hal_flash_ex.c ****         break;
 2699              		.loc 1 1914 39 is_stmt 0 view .LVU823
 2700 0070 2549     		ldr	r1, .L272+16
 2701              	.LVL210:
1914:Drivers/STM32H5xx_HAL_Driver/Src/stm32h5xx_hal_flash_ex.c ****         break;
 2702              		.loc 1 1914 39 view .LVU824
 2703 0072 8989     		ldrh	r1, [r1, #12]
1914:Drivers/STM32H5xx_HAL_Driver/Src/stm32h5xx_hal_flash_ex.c ****         break;
 2704              		.loc 1 1914 37 view .LVU825
 2705 0074 4FF6FF74 		movw	r4, #65535
 2706 0078 A142     		cmp	r1, r4
 2707 007a 04D0     		beq	.L266
1914:Drivers/STM32H5xx_HAL_Driver/Src/stm32h5xx_hal_flash_ex.c ****         break;
 2708              		.loc 1 1914 37 discriminator 1 view .LVU826
 2709 007c 39B1     		cbz	r1, .L267
ARM GAS  C:\Users\sapph\AppData\Local\Temp\ccb3riEs.s 			page 94


1914:Drivers/STM32H5xx_HAL_Driver/Src/stm32h5xx_hal_flash_ex.c ****         break;
 2710              		.loc 1 1914 39 discriminator 3 view .LVU827
 2711 007e 4902     		lsls	r1, r1, #9
1914:Drivers/STM32H5xx_HAL_Driver/Src/stm32h5xx_hal_flash_ex.c ****         break;
 2712              		.loc 1 1914 37 discriminator 3 view .LVU828
 2713 0080 01F10061 		add	r1, r1, #134217728
 2714 0084 00E0     		b	.L262
 2715              	.L266:
1914:Drivers/STM32H5xx_HAL_Driver/Src/stm32h5xx_hal_flash_ex.c ****         break;
 2716              		.loc 1 1914 37 discriminator 2 view .LVU829
 2717 0086 2149     		ldr	r1, .L272+20
 2718              	.L262:
1914:Drivers/STM32H5xx_HAL_Driver/Src/stm32h5xx_hal_flash_ex.c ****         break;
 2719              		.loc 1 1914 55 discriminator 8 view .LVU830
 2720 0088 1944     		add	r1, r1, r3
1914:Drivers/STM32H5xx_HAL_Driver/Src/stm32h5xx_hal_flash_ex.c ****         break;
 2721              		.loc 1 1914 24 discriminator 8 view .LVU831
 2722 008a 4160     		str	r1, [r0, #4]
1915:Drivers/STM32H5xx_HAL_Driver/Src/stm32h5xx_hal_flash_ex.c ****       case FLASH_ECC_AREA_SYSTEM:
 2723              		.loc 1 1915 9 is_stmt 1 view .LVU832
 2724 008c DAE7     		b	.L254
 2725              	.L267:
1914:Drivers/STM32H5xx_HAL_Driver/Src/stm32h5xx_hal_flash_ex.c ****         break;
 2726              		.loc 1 1914 37 is_stmt 0 discriminator 4 view .LVU833
 2727 008e 1F49     		ldr	r1, .L272+20
 2728 0090 FAE7     		b	.L262
 2729              	.LVL211:
 2730              	.L260:
1918:Drivers/STM32H5xx_HAL_Driver/Src/stm32h5xx_hal_flash_ex.c ****         {
 2731              		.loc 1 1918 9 is_stmt 1 view .LVU834
1918:Drivers/STM32H5xx_HAL_Driver/Src/stm32h5xx_hal_flash_ex.c ****         {
 2732              		.loc 1 1918 12 is_stmt 0 view .LVU835
 2733 0092 11F4800F 		tst	r1, #4194304
 2734 0096 05D0     		beq	.L263
1920:Drivers/STM32H5xx_HAL_Driver/Src/stm32h5xx_hal_flash_ex.c ****         }
 2735              		.loc 1 1920 11 is_stmt 1 view .LVU836
1920:Drivers/STM32H5xx_HAL_Driver/Src/stm32h5xx_hal_flash_ex.c ****         }
 2736              		.loc 1 1920 66 is_stmt 0 view .LVU837
 2737 0098 03F13F63 		add	r3, r3, #200278016
 2738              	.LVL212:
1920:Drivers/STM32H5xx_HAL_Driver/Src/stm32h5xx_hal_flash_ex.c ****         }
 2739              		.loc 1 1920 66 view .LVU838
 2740 009c 03F51023 		add	r3, r3, #589824
 2741              	.LVL213:
1920:Drivers/STM32H5xx_HAL_Driver/Src/stm32h5xx_hal_flash_ex.c ****         }
 2742              		.loc 1 1920 26 view .LVU839
 2743 00a0 4360     		str	r3, [r0, #4]
 2744 00a2 CFE7     		b	.L254
 2745              	.LVL214:
 2746              	.L263:
1924:Drivers/STM32H5xx_HAL_Driver/Src/stm32h5xx_hal_flash_ex.c ****         }
 2747              		.loc 1 1924 11 is_stmt 1 view .LVU840
1924:Drivers/STM32H5xx_HAL_Driver/Src/stm32h5xx_hal_flash_ex.c ****         }
 2748              		.loc 1 1924 46 is_stmt 0 view .LVU841
 2749 00a4 03F13F63 		add	r3, r3, #200278016
 2750              	.LVL215:
1924:Drivers/STM32H5xx_HAL_Driver/Src/stm32h5xx_hal_flash_ex.c ****         }
ARM GAS  C:\Users\sapph\AppData\Local\Temp\ccb3riEs.s 			page 95


 2751              		.loc 1 1924 46 view .LVU842
 2752 00a8 03F50023 		add	r3, r3, #524288
 2753              	.LVL216:
1924:Drivers/STM32H5xx_HAL_Driver/Src/stm32h5xx_hal_flash_ex.c ****         }
 2754              		.loc 1 1924 26 view .LVU843
 2755 00ac 4360     		str	r3, [r0, #4]
 2756 00ae C9E7     		b	.L254
 2757              	.LVL217:
 2758              	.L257:
1929:Drivers/STM32H5xx_HAL_Driver/Src/stm32h5xx_hal_flash_ex.c ****         break;
 2759              		.loc 1 1929 9 is_stmt 1 view .LVU844
1929:Drivers/STM32H5xx_HAL_Driver/Src/stm32h5xx_hal_flash_ex.c ****         break;
 2760              		.loc 1 1929 41 is_stmt 0 view .LVU845
 2761 00b0 03F13F63 		add	r3, r3, #200278016
 2762              	.LVL218:
1929:Drivers/STM32H5xx_HAL_Driver/Src/stm32h5xx_hal_flash_ex.c ****         break;
 2763              		.loc 1 1929 41 view .LVU846
 2764 00b4 03F55023 		add	r3, r3, #851968
 2765              	.LVL219:
1929:Drivers/STM32H5xx_HAL_Driver/Src/stm32h5xx_hal_flash_ex.c ****         break;
 2766              		.loc 1 1929 24 view .LVU847
 2767 00b8 4360     		str	r3, [r0, #4]
1930:Drivers/STM32H5xx_HAL_Driver/Src/stm32h5xx_hal_flash_ex.c **** #endif /* FLASH_SR_OBKERR */
 2768              		.loc 1 1930 9 is_stmt 1 view .LVU848
 2769 00ba C3E7     		b	.L254
 2770              	.LVL220:
 2771              	.L258:
1935:Drivers/STM32H5xx_HAL_Driver/Src/stm32h5xx_hal_flash_ex.c ****         {
 2772              		.loc 1 1935 9 view .LVU849
1935:Drivers/STM32H5xx_HAL_Driver/Src/stm32h5xx_hal_flash_ex.c ****         {
 2773              		.loc 1 1935 12 is_stmt 0 view .LVU850
 2774 00bc 11F4800F 		tst	r1, #4194304
 2775 00c0 13D0     		beq	.L264
1942:Drivers/STM32H5xx_HAL_Driver/Src/stm32h5xx_hal_flash_ex.c ****         }
 2776              		.loc 1 1942 11 is_stmt 1 view .LVU851
1942:Drivers/STM32H5xx_HAL_Driver/Src/stm32h5xx_hal_flash_ex.c ****         }
 2777              		.loc 1 1942 47 is_stmt 0 view .LVU852
 2778 00c2 1149     		ldr	r1, .L272+16
 2779              	.LVL221:
1942:Drivers/STM32H5xx_HAL_Driver/Src/stm32h5xx_hal_flash_ex.c ****         }
 2780              		.loc 1 1942 47 view .LVU853
 2781 00c4 8989     		ldrh	r1, [r1, #12]
1942:Drivers/STM32H5xx_HAL_Driver/Src/stm32h5xx_hal_flash_ex.c ****         }
 2782              		.loc 1 1942 45 view .LVU854
 2783 00c6 4FF6FF74 		movw	r4, #65535
 2784 00ca A142     		cmp	r1, r4
 2785 00cc 04D0     		beq	.L268
1942:Drivers/STM32H5xx_HAL_Driver/Src/stm32h5xx_hal_flash_ex.c ****         }
 2786              		.loc 1 1942 45 discriminator 1 view .LVU855
 2787 00ce 51B1     		cbz	r1, .L269
1942:Drivers/STM32H5xx_HAL_Driver/Src/stm32h5xx_hal_flash_ex.c ****         }
 2788              		.loc 1 1942 47 discriminator 3 view .LVU856
 2789 00d0 4902     		lsls	r1, r1, #9
1942:Drivers/STM32H5xx_HAL_Driver/Src/stm32h5xx_hal_flash_ex.c ****         }
 2790              		.loc 1 1942 45 discriminator 3 view .LVU857
 2791 00d2 01F11061 		add	r1, r1, #150994944
 2792 00d6 00E0     		b	.L265
ARM GAS  C:\Users\sapph\AppData\Local\Temp\ccb3riEs.s 			page 96


 2793              	.L268:
1942:Drivers/STM32H5xx_HAL_Driver/Src/stm32h5xx_hal_flash_ex.c ****         }
 2794              		.loc 1 1942 45 discriminator 2 view .LVU858
 2795 00d8 0D49     		ldr	r1, .L272+24
 2796              	.L265:
1942:Drivers/STM32H5xx_HAL_Driver/Src/stm32h5xx_hal_flash_ex.c ****         }
 2797              		.loc 1 1942 76 discriminator 8 view .LVU859
 2798 00da A3F57043 		sub	r3, r3, #61440
 2799              	.LVL222:
1942:Drivers/STM32H5xx_HAL_Driver/Src/stm32h5xx_hal_flash_ex.c ****         }
 2800              		.loc 1 1942 63 discriminator 8 view .LVU860
 2801 00de 01EB8303 		add	r3, r1, r3, lsl #2
 2802              	.LVL223:
1942:Drivers/STM32H5xx_HAL_Driver/Src/stm32h5xx_hal_flash_ex.c ****         }
 2803              		.loc 1 1942 26 discriminator 8 view .LVU861
 2804 00e2 4360     		str	r3, [r0, #4]
 2805 00e4 AEE7     		b	.L254
 2806              	.LVL224:
 2807              	.L269:
1942:Drivers/STM32H5xx_HAL_Driver/Src/stm32h5xx_hal_flash_ex.c ****         }
 2808              		.loc 1 1942 45 discriminator 4 view .LVU862
 2809 00e6 0A49     		ldr	r1, .L272+24
 2810 00e8 F7E7     		b	.L265
 2811              	.LVL225:
 2812              	.L264:
1946:Drivers/STM32H5xx_HAL_Driver/Src/stm32h5xx_hal_flash_ex.c ****         }
 2813              		.loc 1 1946 11 is_stmt 1 view .LVU863
1946:Drivers/STM32H5xx_HAL_Driver/Src/stm32h5xx_hal_flash_ex.c ****         }
 2814              		.loc 1 1946 45 is_stmt 0 view .LVU864
 2815 00ea 03F10F73 		add	r3, r3, #37486592
 2816              	.LVL226:
1946:Drivers/STM32H5xx_HAL_Driver/Src/stm32h5xx_hal_flash_ex.c ****         }
 2817              		.loc 1 1946 45 view .LVU865
 2818 00ee 03F54433 		add	r3, r3, #200704
 2819              	.LVL227:
1946:Drivers/STM32H5xx_HAL_Driver/Src/stm32h5xx_hal_flash_ex.c ****         }
 2820              		.loc 1 1946 45 view .LVU866
 2821 00f2 9B00     		lsls	r3, r3, #2
 2822              	.LVL228:
1946:Drivers/STM32H5xx_HAL_Driver/Src/stm32h5xx_hal_flash_ex.c ****         }
 2823              		.loc 1 1946 26 view .LVU867
 2824 00f4 4360     		str	r3, [r0, #4]
 2825 00f6 A5E7     		b	.L254
 2826              	.L273:
 2827              		.align	2
 2828              	.L272:
 2829 00f8 00200240 		.word	1073881088
 2830 00fc 0000FFBD 		.word	-1107361792
 2831 0100 0000FF7F 		.word	2147418112
 2832 0104 00F63F02 		.word	37746176
 2833 0108 00F8FF08 		.word	150992896
 2834 010c 00000408 		.word	134479872
 2835 0110 00000409 		.word	151257088
 2836              		.cfi_endproc
 2837              	.LFE194:
 2839              		.section	.text.HAL_FLASHEx_EccCorrectionCallback,"ax",%progbits
 2840              		.align	1
ARM GAS  C:\Users\sapph\AppData\Local\Temp\ccb3riEs.s 			page 97


 2841              		.weak	HAL_FLASHEx_EccCorrectionCallback
 2842              		.syntax unified
 2843              		.thumb
 2844              		.thumb_func
 2846              	HAL_FLASHEx_EccCorrectionCallback:
 2847              	.LFB196:
1963:Drivers/STM32H5xx_HAL_Driver/Src/stm32h5xx_hal_flash_ex.c **** 
1964:Drivers/STM32H5xx_HAL_Driver/Src/stm32h5xx_hal_flash_ex.c **** /**
1965:Drivers/STM32H5xx_HAL_Driver/Src/stm32h5xx_hal_flash_ex.c ****   * @brief Handle Flash ECC Detection interrupt request.
1966:Drivers/STM32H5xx_HAL_Driver/Src/stm32h5xx_hal_flash_ex.c ****   * @retval None
1967:Drivers/STM32H5xx_HAL_Driver/Src/stm32h5xx_hal_flash_ex.c ****   */
1968:Drivers/STM32H5xx_HAL_Driver/Src/stm32h5xx_hal_flash_ex.c **** void HAL_FLASHEx_ECCD_IRQHandler(void)
1969:Drivers/STM32H5xx_HAL_Driver/Src/stm32h5xx_hal_flash_ex.c **** {
1970:Drivers/STM32H5xx_HAL_Driver/Src/stm32h5xx_hal_flash_ex.c ****   /* Check if the ECC double error occurred*/
1971:Drivers/STM32H5xx_HAL_Driver/Src/stm32h5xx_hal_flash_ex.c ****   if (READ_BIT(FLASH->ECCDETR, FLASH_ECCR_ECCD) != 0U)
1972:Drivers/STM32H5xx_HAL_Driver/Src/stm32h5xx_hal_flash_ex.c ****   {
1973:Drivers/STM32H5xx_HAL_Driver/Src/stm32h5xx_hal_flash_ex.c ****     /* FLASH ECC detection user callback */
1974:Drivers/STM32H5xx_HAL_Driver/Src/stm32h5xx_hal_flash_ex.c ****     HAL_FLASHEx_EccDetectionCallback();
1975:Drivers/STM32H5xx_HAL_Driver/Src/stm32h5xx_hal_flash_ex.c **** 
1976:Drivers/STM32H5xx_HAL_Driver/Src/stm32h5xx_hal_flash_ex.c ****     /* Clear ECCD flag
1977:Drivers/STM32H5xx_HAL_Driver/Src/stm32h5xx_hal_flash_ex.c ****     note : this step will clear all the information related to the flash ecc detection
1978:Drivers/STM32H5xx_HAL_Driver/Src/stm32h5xx_hal_flash_ex.c ****     */
1979:Drivers/STM32H5xx_HAL_Driver/Src/stm32h5xx_hal_flash_ex.c ****     SET_BIT(FLASH->ECCDETR, FLASH_ECCR_ECCD);
1980:Drivers/STM32H5xx_HAL_Driver/Src/stm32h5xx_hal_flash_ex.c ****   }
1981:Drivers/STM32H5xx_HAL_Driver/Src/stm32h5xx_hal_flash_ex.c **** }
1982:Drivers/STM32H5xx_HAL_Driver/Src/stm32h5xx_hal_flash_ex.c **** 
1983:Drivers/STM32H5xx_HAL_Driver/Src/stm32h5xx_hal_flash_ex.c **** /**
1984:Drivers/STM32H5xx_HAL_Driver/Src/stm32h5xx_hal_flash_ex.c ****   * @brief  FLASH ECC Correction interrupt callback.
1985:Drivers/STM32H5xx_HAL_Driver/Src/stm32h5xx_hal_flash_ex.c ****   * @retval None
1986:Drivers/STM32H5xx_HAL_Driver/Src/stm32h5xx_hal_flash_ex.c ****   */
1987:Drivers/STM32H5xx_HAL_Driver/Src/stm32h5xx_hal_flash_ex.c **** __weak void HAL_FLASHEx_EccCorrectionCallback(void)
1988:Drivers/STM32H5xx_HAL_Driver/Src/stm32h5xx_hal_flash_ex.c **** {
 2848              		.loc 1 1988 1 is_stmt 1 view -0
 2849              		.cfi_startproc
 2850              		@ args = 0, pretend = 0, frame = 0
 2851              		@ frame_needed = 0, uses_anonymous_args = 0
 2852              		@ link register save eliminated.
1989:Drivers/STM32H5xx_HAL_Driver/Src/stm32h5xx_hal_flash_ex.c ****   /* NOTE : This function should not be modified, when the callback is needed,
1990:Drivers/STM32H5xx_HAL_Driver/Src/stm32h5xx_hal_flash_ex.c ****             the HAL_FLASHEx_EccCorrectionCallback could be implemented in the user file
1991:Drivers/STM32H5xx_HAL_Driver/Src/stm32h5xx_hal_flash_ex.c ****    */
1992:Drivers/STM32H5xx_HAL_Driver/Src/stm32h5xx_hal_flash_ex.c **** }
 2853              		.loc 1 1992 1 view .LVU869
 2854 0000 7047     		bx	lr
 2855              		.cfi_endproc
 2856              	.LFE196:
 2858              		.section	.text.HAL_FLASHEx_EccDetectionCallback,"ax",%progbits
 2859              		.align	1
 2860              		.weak	HAL_FLASHEx_EccDetectionCallback
 2861              		.syntax unified
 2862              		.thumb
 2863              		.thumb_func
 2865              	HAL_FLASHEx_EccDetectionCallback:
 2866              	.LFB197:
1993:Drivers/STM32H5xx_HAL_Driver/Src/stm32h5xx_hal_flash_ex.c **** 
1994:Drivers/STM32H5xx_HAL_Driver/Src/stm32h5xx_hal_flash_ex.c **** /**
1995:Drivers/STM32H5xx_HAL_Driver/Src/stm32h5xx_hal_flash_ex.c ****   * @brief  FLASH ECC Detection interrupt callback.
1996:Drivers/STM32H5xx_HAL_Driver/Src/stm32h5xx_hal_flash_ex.c ****   * @retval None
ARM GAS  C:\Users\sapph\AppData\Local\Temp\ccb3riEs.s 			page 98


1997:Drivers/STM32H5xx_HAL_Driver/Src/stm32h5xx_hal_flash_ex.c ****   */
1998:Drivers/STM32H5xx_HAL_Driver/Src/stm32h5xx_hal_flash_ex.c **** __weak void HAL_FLASHEx_EccDetectionCallback(void)
1999:Drivers/STM32H5xx_HAL_Driver/Src/stm32h5xx_hal_flash_ex.c **** {
 2867              		.loc 1 1999 1 view -0
 2868              		.cfi_startproc
 2869              		@ args = 0, pretend = 0, frame = 0
 2870              		@ frame_needed = 0, uses_anonymous_args = 0
 2871              		@ link register save eliminated.
2000:Drivers/STM32H5xx_HAL_Driver/Src/stm32h5xx_hal_flash_ex.c ****   /* NOTE : This function should not be modified, when the callback is needed,
2001:Drivers/STM32H5xx_HAL_Driver/Src/stm32h5xx_hal_flash_ex.c ****             the HAL_FLASHEx_EccDetectionCallback could be implemented in the user file
2002:Drivers/STM32H5xx_HAL_Driver/Src/stm32h5xx_hal_flash_ex.c ****    */
2003:Drivers/STM32H5xx_HAL_Driver/Src/stm32h5xx_hal_flash_ex.c **** }
 2872              		.loc 1 2003 1 view .LVU871
 2873 0000 7047     		bx	lr
 2874              		.cfi_endproc
 2875              	.LFE197:
 2877              		.section	.text.HAL_FLASHEx_ECCD_IRQHandler,"ax",%progbits
 2878              		.align	1
 2879              		.global	HAL_FLASHEx_ECCD_IRQHandler
 2880              		.syntax unified
 2881              		.thumb
 2882              		.thumb_func
 2884              	HAL_FLASHEx_ECCD_IRQHandler:
 2885              	.LFB195:
1969:Drivers/STM32H5xx_HAL_Driver/Src/stm32h5xx_hal_flash_ex.c ****   /* Check if the ECC double error occurred*/
 2886              		.loc 1 1969 1 view -0
 2887              		.cfi_startproc
 2888              		@ args = 0, pretend = 0, frame = 0
 2889              		@ frame_needed = 0, uses_anonymous_args = 0
 2890 0000 08B5     		push	{r3, lr}
 2891              		.cfi_def_cfa_offset 8
 2892              		.cfi_offset 3, -8
 2893              		.cfi_offset 14, -4
1971:Drivers/STM32H5xx_HAL_Driver/Src/stm32h5xx_hal_flash_ex.c ****   {
 2894              		.loc 1 1971 3 view .LVU873
1971:Drivers/STM32H5xx_HAL_Driver/Src/stm32h5xx_hal_flash_ex.c ****   {
 2895              		.loc 1 1971 7 is_stmt 0 view .LVU874
 2896 0002 084B     		ldr	r3, .L280
 2897 0004 D3F80431 		ldr	r3, [r3, #260]
1971:Drivers/STM32H5xx_HAL_Driver/Src/stm32h5xx_hal_flash_ex.c ****   {
 2898              		.loc 1 1971 6 view .LVU875
 2899 0008 002B     		cmp	r3, #0
 2900 000a 00DB     		blt	.L279
 2901              	.L276:
1981:Drivers/STM32H5xx_HAL_Driver/Src/stm32h5xx_hal_flash_ex.c **** 
 2902              		.loc 1 1981 1 view .LVU876
 2903 000c 08BD     		pop	{r3, pc}
 2904              	.L279:
1974:Drivers/STM32H5xx_HAL_Driver/Src/stm32h5xx_hal_flash_ex.c **** 
 2905              		.loc 1 1974 5 is_stmt 1 view .LVU877
 2906 000e FFF7FEFF 		bl	HAL_FLASHEx_EccDetectionCallback
 2907              	.LVL229:
1979:Drivers/STM32H5xx_HAL_Driver/Src/stm32h5xx_hal_flash_ex.c ****   }
 2908              		.loc 1 1979 5 view .LVU878
 2909 0012 044A     		ldr	r2, .L280
 2910 0014 D2F80431 		ldr	r3, [r2, #260]
 2911 0018 43F00043 		orr	r3, r3, #-2147483648
ARM GAS  C:\Users\sapph\AppData\Local\Temp\ccb3riEs.s 			page 99


 2912 001c C2F80431 		str	r3, [r2, #260]
1981:Drivers/STM32H5xx_HAL_Driver/Src/stm32h5xx_hal_flash_ex.c **** 
 2913              		.loc 1 1981 1 is_stmt 0 view .LVU879
 2914 0020 F4E7     		b	.L276
 2915              	.L281:
 2916 0022 00BF     		.align	2
 2917              	.L280:
 2918 0024 00200240 		.word	1073881088
 2919              		.cfi_endproc
 2920              	.LFE195:
 2922              		.text
 2923              	.Letext0:
 2924              		.file 3 "C:/Users/sapph/AppData/Roaming/Code/User/globalStorage/bmd.stm32-for-vscode/@xpack-dev-to
 2925              		.file 4 "C:/Users/sapph/AppData/Roaming/Code/User/globalStorage/bmd.stm32-for-vscode/@xpack-dev-to
 2926              		.file 5 "Drivers/CMSIS/Device/ST/STM32H5xx/Include/stm32h533xx.h"
 2927              		.file 6 "Drivers/STM32H5xx_HAL_Driver/Inc/stm32h5xx_hal_def.h"
 2928              		.file 7 "Drivers/STM32H5xx_HAL_Driver/Inc/stm32h5xx_hal_flash.h"
 2929              		.file 8 "Drivers/STM32H5xx_HAL_Driver/Inc/stm32h5xx_hal_flash_ex.h"
ARM GAS  C:\Users\sapph\AppData\Local\Temp\ccb3riEs.s 			page 100


DEFINED SYMBOLS
                            *ABS*:00000000 stm32h5xx_hal_flash_ex.c
C:\Users\sapph\AppData\Local\Temp\ccb3riEs.s:22     .text.FLASH_MassErase:00000000 $t
C:\Users\sapph\AppData\Local\Temp\ccb3riEs.s:27     .text.FLASH_MassErase:00000000 FLASH_MassErase
C:\Users\sapph\AppData\Local\Temp\ccb3riEs.s:80     .text.FLASH_MassErase:00000048 $d
C:\Users\sapph\AppData\Local\Temp\ccb3riEs.s:85     .text.FLASH_OBKErase:00000000 $t
C:\Users\sapph\AppData\Local\Temp\ccb3riEs.s:90     .text.FLASH_OBKErase:00000000 FLASH_OBKErase
C:\Users\sapph\AppData\Local\Temp\ccb3riEs.s:110    .text.FLASH_OBKErase:0000000c $d
C:\Users\sapph\AppData\Local\Temp\ccb3riEs.s:115    .text.FLASH_OB_EnableWRP:00000000 $t
C:\Users\sapph\AppData\Local\Temp\ccb3riEs.s:120    .text.FLASH_OB_EnableWRP:00000000 FLASH_OB_EnableWRP
C:\Users\sapph\AppData\Local\Temp\ccb3riEs.s:163    .text.FLASH_OB_EnableWRP:00000030 $d
C:\Users\sapph\AppData\Local\Temp\ccb3riEs.s:168    .text.FLASH_OB_DisableWRP:00000000 $t
C:\Users\sapph\AppData\Local\Temp\ccb3riEs.s:173    .text.FLASH_OB_DisableWRP:00000000 FLASH_OB_DisableWRP
C:\Users\sapph\AppData\Local\Temp\ccb3riEs.s:216    .text.FLASH_OB_DisableWRP:00000030 $d
C:\Users\sapph\AppData\Local\Temp\ccb3riEs.s:221    .text.FLASH_OB_GetWRP:00000000 $t
C:\Users\sapph\AppData\Local\Temp\ccb3riEs.s:226    .text.FLASH_OB_GetWRP:00000000 FLASH_OB_GetWRP
C:\Users\sapph\AppData\Local\Temp\ccb3riEs.s:294    .text.FLASH_OB_GetWRP:0000002c $d
C:\Users\sapph\AppData\Local\Temp\ccb3riEs.s:299    .text.FLASH_OB_ProdStateConfig:00000000 $t
C:\Users\sapph\AppData\Local\Temp\ccb3riEs.s:304    .text.FLASH_OB_ProdStateConfig:00000000 FLASH_OB_ProdStateConfig
C:\Users\sapph\AppData\Local\Temp\ccb3riEs.s:324    .text.FLASH_OB_ProdStateConfig:00000010 $d
C:\Users\sapph\AppData\Local\Temp\ccb3riEs.s:329    .text.FLASH_OB_GetProdState:00000000 $t
C:\Users\sapph\AppData\Local\Temp\ccb3riEs.s:334    .text.FLASH_OB_GetProdState:00000000 FLASH_OB_GetProdState
C:\Users\sapph\AppData\Local\Temp\ccb3riEs.s:351    .text.FLASH_OB_GetProdState:0000000c $d
C:\Users\sapph\AppData\Local\Temp\ccb3riEs.s:356    .text.FLASH_OB_UserConfig:00000000 $t
C:\Users\sapph\AppData\Local\Temp\ccb3riEs.s:361    .text.FLASH_OB_UserConfig:00000000 FLASH_OB_UserConfig
C:\Users\sapph\AppData\Local\Temp\ccb3riEs.s:705    .text.FLASH_OB_UserConfig:00000150 $d
C:\Users\sapph\AppData\Local\Temp\ccb3riEs.s:710    .text.FLASH_OB_GetUser:00000000 $t
C:\Users\sapph\AppData\Local\Temp\ccb3riEs.s:715    .text.FLASH_OB_GetUser:00000000 FLASH_OB_GetUser
C:\Users\sapph\AppData\Local\Temp\ccb3riEs.s:741    .text.FLASH_OB_GetUser:00000010 $d
C:\Users\sapph\AppData\Local\Temp\ccb3riEs.s:746    .text.FLASH_OB_BootAddrConfig:00000000 $t
C:\Users\sapph\AppData\Local\Temp\ccb3riEs.s:751    .text.FLASH_OB_BootAddrConfig:00000000 FLASH_OB_BootAddrConfig
C:\Users\sapph\AppData\Local\Temp\ccb3riEs.s:780    .text.FLASH_OB_BootAddrConfig:00000018 $d
C:\Users\sapph\AppData\Local\Temp\ccb3riEs.s:785    .text.FLASH_OB_BootLockConfig:00000000 $t
C:\Users\sapph\AppData\Local\Temp\ccb3riEs.s:790    .text.FLASH_OB_BootLockConfig:00000000 FLASH_OB_BootLockConfig
C:\Users\sapph\AppData\Local\Temp\ccb3riEs.s:820    .text.FLASH_OB_BootLockConfig:00000018 $d
C:\Users\sapph\AppData\Local\Temp\ccb3riEs.s:825    .text.FLASH_OB_GetBootConfig:00000000 $t
C:\Users\sapph\AppData\Local\Temp\ccb3riEs.s:830    .text.FLASH_OB_GetBootConfig:00000000 FLASH_OB_GetBootConfig
C:\Users\sapph\AppData\Local\Temp\ccb3riEs.s:871    .text.FLASH_OB_GetBootConfig:0000001c $d
C:\Users\sapph\AppData\Local\Temp\ccb3riEs.s:876    .text.FLASH_OB_OTP_LockConfig:00000000 $t
C:\Users\sapph\AppData\Local\Temp\ccb3riEs.s:881    .text.FLASH_OB_OTP_LockConfig:00000000 FLASH_OB_OTP_LockConfig
C:\Users\sapph\AppData\Local\Temp\ccb3riEs.s:901    .text.FLASH_OB_OTP_LockConfig:00000010 $d
C:\Users\sapph\AppData\Local\Temp\ccb3riEs.s:906    .text.FLASH_OB_OTP_GetLock:00000000 $t
C:\Users\sapph\AppData\Local\Temp\ccb3riEs.s:911    .text.FLASH_OB_OTP_GetLock:00000000 FLASH_OB_OTP_GetLock
C:\Users\sapph\AppData\Local\Temp\ccb3riEs.s:927    .text.FLASH_OB_OTP_GetLock:00000008 $d
C:\Users\sapph\AppData\Local\Temp\ccb3riEs.s:932    .text.FLASH_OB_HDPConfig:00000000 $t
C:\Users\sapph\AppData\Local\Temp\ccb3riEs.s:937    .text.FLASH_OB_HDPConfig:00000000 FLASH_OB_HDPConfig
C:\Users\sapph\AppData\Local\Temp\ccb3riEs.s:1000   .text.FLASH_OB_HDPConfig:0000003c $d
C:\Users\sapph\AppData\Local\Temp\ccb3riEs.s:1005   .text.FLASH_OB_GetHDP:00000000 $t
C:\Users\sapph\AppData\Local\Temp\ccb3riEs.s:1010   .text.FLASH_OB_GetHDP:00000000 FLASH_OB_GetHDP
C:\Users\sapph\AppData\Local\Temp\ccb3riEs.s:1068   .text.FLASH_OB_GetHDP:00000028 $d
C:\Users\sapph\AppData\Local\Temp\ccb3riEs.s:1073   .text.FLASH_OB_EDATAConfig:00000000 $t
C:\Users\sapph\AppData\Local\Temp\ccb3riEs.s:1078   .text.FLASH_OB_EDATAConfig:00000000 FLASH_OB_EDATAConfig
C:\Users\sapph\AppData\Local\Temp\ccb3riEs.s:1150   .text.FLASH_OB_EDATAConfig:00000048 $d
C:\Users\sapph\AppData\Local\Temp\ccb3riEs.s:1155   .text.FLASH_OB_GetEDATA:00000000 $t
C:\Users\sapph\AppData\Local\Temp\ccb3riEs.s:1160   .text.FLASH_OB_GetEDATA:00000000 FLASH_OB_GetEDATA
C:\Users\sapph\AppData\Local\Temp\ccb3riEs.s:1226   .text.FLASH_OB_GetEDATA:00000030 $d
C:\Users\sapph\AppData\Local\Temp\ccb3riEs.s:1231   .text.HAL_FLASHEx_OBProgram:00000000 $t
ARM GAS  C:\Users\sapph\AppData\Local\Temp\ccb3riEs.s 			page 101


C:\Users\sapph\AppData\Local\Temp\ccb3riEs.s:1237   .text.HAL_FLASHEx_OBProgram:00000000 HAL_FLASHEx_OBProgram
C:\Users\sapph\AppData\Local\Temp\ccb3riEs.s:1433   .text.HAL_FLASHEx_OBProgram:000000d4 $d
C:\Users\sapph\AppData\Local\Temp\ccb3riEs.s:1438   .text.HAL_FLASHEx_OBGetConfig:00000000 $t
C:\Users\sapph\AppData\Local\Temp\ccb3riEs.s:1444   .text.HAL_FLASHEx_OBGetConfig:00000000 HAL_FLASHEx_OBGetConfig
C:\Users\sapph\AppData\Local\Temp\ccb3riEs.s:1556   .text.HAL_FLASHEx_OBK_Unlock:00000000 $t
C:\Users\sapph\AppData\Local\Temp\ccb3riEs.s:1562   .text.HAL_FLASHEx_OBK_Unlock:00000000 HAL_FLASHEx_OBK_Unlock
C:\Users\sapph\AppData\Local\Temp\ccb3riEs.s:1607   .text.HAL_FLASHEx_OBK_Unlock:00000028 $d
C:\Users\sapph\AppData\Local\Temp\ccb3riEs.s:1614   .text.HAL_FLASHEx_OBK_Lock:00000000 $t
C:\Users\sapph\AppData\Local\Temp\ccb3riEs.s:1620   .text.HAL_FLASHEx_OBK_Lock:00000000 HAL_FLASHEx_OBK_Lock
C:\Users\sapph\AppData\Local\Temp\ccb3riEs.s:1653   .text.HAL_FLASHEx_OBK_Lock:0000001c $d
C:\Users\sapph\AppData\Local\Temp\ccb3riEs.s:1658   .text.HAL_FLASHEx_OBK_Swap:00000000 $t
C:\Users\sapph\AppData\Local\Temp\ccb3riEs.s:1664   .text.HAL_FLASHEx_OBK_Swap:00000000 HAL_FLASHEx_OBK_Swap
C:\Users\sapph\AppData\Local\Temp\ccb3riEs.s:1717   .text.HAL_FLASHEx_OBK_Swap:00000030 $d
C:\Users\sapph\AppData\Local\Temp\ccb3riEs.s:1722   .text.HAL_FLASHEx_GetOperation:00000000 $t
C:\Users\sapph\AppData\Local\Temp\ccb3riEs.s:1728   .text.HAL_FLASHEx_GetOperation:00000000 HAL_FLASHEx_GetOperation
C:\Users\sapph\AppData\Local\Temp\ccb3riEs.s:1762   .text.HAL_FLASHEx_GetOperation:00000018 $d
C:\Users\sapph\AppData\Local\Temp\ccb3riEs.s:1767   .text.HAL_FLASHEx_ConfigBBAttributes:00000000 $t
C:\Users\sapph\AppData\Local\Temp\ccb3riEs.s:1773   .text.HAL_FLASHEx_ConfigBBAttributes:00000000 HAL_FLASHEx_ConfigBBAttributes
C:\Users\sapph\AppData\Local\Temp\ccb3riEs.s:1885   .text.HAL_FLASHEx_ConfigBBAttributes:00000044 $d
C:\Users\sapph\AppData\Local\Temp\ccb3riEs.s:1892   .text.HAL_FLASHEx_GetConfigBBAttributes:00000000 $t
C:\Users\sapph\AppData\Local\Temp\ccb3riEs.s:1898   .text.HAL_FLASHEx_GetConfigBBAttributes:00000000 HAL_FLASHEx_GetConfigBBAttributes
C:\Users\sapph\AppData\Local\Temp\ccb3riEs.s:1964   .text.HAL_FLASHEx_GetConfigBBAttributes:0000002c $d
C:\Users\sapph\AppData\Local\Temp\ccb3riEs.s:1970   .text.HAL_FLASHEx_ConfigPrivMode:00000000 $t
C:\Users\sapph\AppData\Local\Temp\ccb3riEs.s:1976   .text.HAL_FLASHEx_ConfigPrivMode:00000000 HAL_FLASHEx_ConfigPrivMode
C:\Users\sapph\AppData\Local\Temp\ccb3riEs.s:1996   .text.HAL_FLASHEx_ConfigPrivMode:00000010 $d
C:\Users\sapph\AppData\Local\Temp\ccb3riEs.s:2001   .text.HAL_FLASHEx_GetPrivMode:00000000 $t
C:\Users\sapph\AppData\Local\Temp\ccb3riEs.s:2007   .text.HAL_FLASHEx_GetPrivMode:00000000 HAL_FLASHEx_GetPrivMode
C:\Users\sapph\AppData\Local\Temp\ccb3riEs.s:2024   .text.HAL_FLASHEx_GetPrivMode:0000000c $d
C:\Users\sapph\AppData\Local\Temp\ccb3riEs.s:2029   .text.HAL_FLASHEx_ConfigHDPExtension:00000000 $t
C:\Users\sapph\AppData\Local\Temp\ccb3riEs.s:2035   .text.HAL_FLASHEx_ConfigHDPExtension:00000000 HAL_FLASHEx_ConfigHDPExtension
C:\Users\sapph\AppData\Local\Temp\ccb3riEs.s:2092   .text.HAL_FLASHEx_ConfigHDPExtension:0000003c $d
C:\Users\sapph\AppData\Local\Temp\ccb3riEs.s:2097   .text.FLASH_Erase_Sector:00000000 $t
C:\Users\sapph\AppData\Local\Temp\ccb3riEs.s:2103   .text.FLASH_Erase_Sector:00000000 FLASH_Erase_Sector
C:\Users\sapph\AppData\Local\Temp\ccb3riEs.s:2156   .text.FLASH_Erase_Sector:00000040 $d
C:\Users\sapph\AppData\Local\Temp\ccb3riEs.s:2161   .text.HAL_FLASHEx_Erase:00000000 $t
C:\Users\sapph\AppData\Local\Temp\ccb3riEs.s:2167   .text.HAL_FLASHEx_Erase:00000000 HAL_FLASHEx_Erase
C:\Users\sapph\AppData\Local\Temp\ccb3riEs.s:2348   .text.HAL_FLASHEx_Erase:000000b0 $d
C:\Users\sapph\AppData\Local\Temp\ccb3riEs.s:2355   .text.HAL_FLASHEx_Erase_IT:00000000 $t
C:\Users\sapph\AppData\Local\Temp\ccb3riEs.s:2361   .text.HAL_FLASHEx_Erase_IT:00000000 HAL_FLASHEx_Erase_IT
C:\Users\sapph\AppData\Local\Temp\ccb3riEs.s:2493   .text.HAL_FLASHEx_Erase_IT:00000078 $d
C:\Users\sapph\AppData\Local\Temp\ccb3riEs.s:2500   .text.HAL_FLASHEx_EnableEccCorrectionInterrupt:00000000 $t
C:\Users\sapph\AppData\Local\Temp\ccb3riEs.s:2506   .text.HAL_FLASHEx_EnableEccCorrectionInterrupt:00000000 HAL_FLASHEx_EnableEccCorrectionInterrupt
C:\Users\sapph\AppData\Local\Temp\ccb3riEs.s:2527   .text.HAL_FLASHEx_EnableEccCorrectionInterrupt:00000010 $d
C:\Users\sapph\AppData\Local\Temp\ccb3riEs.s:2532   .text.HAL_FLASHEx_DisableEccCorrectionInterrupt:00000000 $t
C:\Users\sapph\AppData\Local\Temp\ccb3riEs.s:2538   .text.HAL_FLASHEx_DisableEccCorrectionInterrupt:00000000 HAL_FLASHEx_DisableEccCorrectionInterrupt
C:\Users\sapph\AppData\Local\Temp\ccb3riEs.s:2559   .text.HAL_FLASHEx_DisableEccCorrectionInterrupt:00000010 $d
C:\Users\sapph\AppData\Local\Temp\ccb3riEs.s:2564   .text.HAL_FLASHEx_GetEccInfo:00000000 $t
C:\Users\sapph\AppData\Local\Temp\ccb3riEs.s:2570   .text.HAL_FLASHEx_GetEccInfo:00000000 HAL_FLASHEx_GetEccInfo
C:\Users\sapph\AppData\Local\Temp\ccb3riEs.s:2829   .text.HAL_FLASHEx_GetEccInfo:000000f8 $d
C:\Users\sapph\AppData\Local\Temp\ccb3riEs.s:2840   .text.HAL_FLASHEx_EccCorrectionCallback:00000000 $t
C:\Users\sapph\AppData\Local\Temp\ccb3riEs.s:2846   .text.HAL_FLASHEx_EccCorrectionCallback:00000000 HAL_FLASHEx_EccCorrectionCallback
C:\Users\sapph\AppData\Local\Temp\ccb3riEs.s:2859   .text.HAL_FLASHEx_EccDetectionCallback:00000000 $t
C:\Users\sapph\AppData\Local\Temp\ccb3riEs.s:2865   .text.HAL_FLASHEx_EccDetectionCallback:00000000 HAL_FLASHEx_EccDetectionCallback
C:\Users\sapph\AppData\Local\Temp\ccb3riEs.s:2878   .text.HAL_FLASHEx_ECCD_IRQHandler:00000000 $t
C:\Users\sapph\AppData\Local\Temp\ccb3riEs.s:2884   .text.HAL_FLASHEx_ECCD_IRQHandler:00000000 HAL_FLASHEx_ECCD_IRQHandler
C:\Users\sapph\AppData\Local\Temp\ccb3riEs.s:2918   .text.HAL_FLASHEx_ECCD_IRQHandler:00000024 $d

ARM GAS  C:\Users\sapph\AppData\Local\Temp\ccb3riEs.s 			page 102


UNDEFINED SYMBOLS
FLASH_WaitForLastOperation
pFlash
