ARM GAS  C:\Users\sapph\AppData\Local\Temp\cchEHrSS.s 			page 1


   1              		.cpu cortex-m33
   2              		.arch armv8-m.main
   3              		.fpu fpv4-sp-d16
   4              		.arch_extension dsp
   5              		.eabi_attribute 27, 1
   6              		.eabi_attribute 28, 1
   7              		.eabi_attribute 20, 1
   8              		.eabi_attribute 21, 1
   9              		.eabi_attribute 23, 3
  10              		.eabi_attribute 24, 1
  11              		.eabi_attribute 25, 1
  12              		.eabi_attribute 26, 1
  13              		.eabi_attribute 30, 1
  14              		.eabi_attribute 34, 1
  15              		.eabi_attribute 18, 4
  16              		.file	"stm32h5xx_ll_usb.c"
  17              		.text
  18              	.Ltext0:
  19              		.cfi_sections	.debug_frame
  20              		.file 1 "Drivers/STM32H5xx_HAL_Driver/Src/stm32h5xx_ll_usb.c"
  21              		.section	.text.USB_CoreReset,"ax",%progbits
  22              		.align	1
  23              		.syntax unified
  24              		.thumb
  25              		.thumb_func
  27              	USB_CoreReset:
  28              	.LVL0:
  29              	.LFB160:
   1:Drivers/STM32H5xx_HAL_Driver/Src/stm32h5xx_ll_usb.c **** /**
   2:Drivers/STM32H5xx_HAL_Driver/Src/stm32h5xx_ll_usb.c ****   ******************************************************************************
   3:Drivers/STM32H5xx_HAL_Driver/Src/stm32h5xx_ll_usb.c ****   * @file    stm32h5xx_ll_usb.c
   4:Drivers/STM32H5xx_HAL_Driver/Src/stm32h5xx_ll_usb.c ****   * @author  MCD Application Team
   5:Drivers/STM32H5xx_HAL_Driver/Src/stm32h5xx_ll_usb.c ****   * @brief   USB Low Layer HAL module driver.
   6:Drivers/STM32H5xx_HAL_Driver/Src/stm32h5xx_ll_usb.c ****   *
   7:Drivers/STM32H5xx_HAL_Driver/Src/stm32h5xx_ll_usb.c ****   *          This file provides firmware functions to manage the following
   8:Drivers/STM32H5xx_HAL_Driver/Src/stm32h5xx_ll_usb.c ****   *          functionalities of the USB Peripheral Controller:
   9:Drivers/STM32H5xx_HAL_Driver/Src/stm32h5xx_ll_usb.c ****   *           + Initialization/de-initialization functions
  10:Drivers/STM32H5xx_HAL_Driver/Src/stm32h5xx_ll_usb.c ****   *           + I/O operation functions
  11:Drivers/STM32H5xx_HAL_Driver/Src/stm32h5xx_ll_usb.c ****   *           + Peripheral Control functions
  12:Drivers/STM32H5xx_HAL_Driver/Src/stm32h5xx_ll_usb.c ****   *           + Peripheral State functions
  13:Drivers/STM32H5xx_HAL_Driver/Src/stm32h5xx_ll_usb.c ****   *
  14:Drivers/STM32H5xx_HAL_Driver/Src/stm32h5xx_ll_usb.c ****   ******************************************************************************
  15:Drivers/STM32H5xx_HAL_Driver/Src/stm32h5xx_ll_usb.c ****   * @attention
  16:Drivers/STM32H5xx_HAL_Driver/Src/stm32h5xx_ll_usb.c ****   *
  17:Drivers/STM32H5xx_HAL_Driver/Src/stm32h5xx_ll_usb.c ****   * Copyright (c) 2023 STMicroelectronics.
  18:Drivers/STM32H5xx_HAL_Driver/Src/stm32h5xx_ll_usb.c ****   * All rights reserved.
  19:Drivers/STM32H5xx_HAL_Driver/Src/stm32h5xx_ll_usb.c ****   *
  20:Drivers/STM32H5xx_HAL_Driver/Src/stm32h5xx_ll_usb.c ****   * This software is licensed under terms that can be found in the LICENSE file
  21:Drivers/STM32H5xx_HAL_Driver/Src/stm32h5xx_ll_usb.c ****   * in the root directory of this software component.
  22:Drivers/STM32H5xx_HAL_Driver/Src/stm32h5xx_ll_usb.c ****   * If no LICENSE file comes with this software, it is provided AS-IS.
  23:Drivers/STM32H5xx_HAL_Driver/Src/stm32h5xx_ll_usb.c ****   *
  24:Drivers/STM32H5xx_HAL_Driver/Src/stm32h5xx_ll_usb.c ****   ******************************************************************************
  25:Drivers/STM32H5xx_HAL_Driver/Src/stm32h5xx_ll_usb.c ****   @verbatim
  26:Drivers/STM32H5xx_HAL_Driver/Src/stm32h5xx_ll_usb.c ****   ==============================================================================
  27:Drivers/STM32H5xx_HAL_Driver/Src/stm32h5xx_ll_usb.c ****                     ##### How to use this driver #####
  28:Drivers/STM32H5xx_HAL_Driver/Src/stm32h5xx_ll_usb.c ****   ==============================================================================
  29:Drivers/STM32H5xx_HAL_Driver/Src/stm32h5xx_ll_usb.c ****     [..]
ARM GAS  C:\Users\sapph\AppData\Local\Temp\cchEHrSS.s 			page 2


  30:Drivers/STM32H5xx_HAL_Driver/Src/stm32h5xx_ll_usb.c ****       (#) Fill parameters of Init structure in USB_CfgTypeDef structure.
  31:Drivers/STM32H5xx_HAL_Driver/Src/stm32h5xx_ll_usb.c **** 
  32:Drivers/STM32H5xx_HAL_Driver/Src/stm32h5xx_ll_usb.c ****       (#) Call USB_CoreInit() API to initialize the USB Core peripheral.
  33:Drivers/STM32H5xx_HAL_Driver/Src/stm32h5xx_ll_usb.c **** 
  34:Drivers/STM32H5xx_HAL_Driver/Src/stm32h5xx_ll_usb.c ****       (#) The upper HAL HCD/PCD driver will call the right routines for its internal processes.
  35:Drivers/STM32H5xx_HAL_Driver/Src/stm32h5xx_ll_usb.c **** 
  36:Drivers/STM32H5xx_HAL_Driver/Src/stm32h5xx_ll_usb.c ****   @endverbatim
  37:Drivers/STM32H5xx_HAL_Driver/Src/stm32h5xx_ll_usb.c **** 
  38:Drivers/STM32H5xx_HAL_Driver/Src/stm32h5xx_ll_usb.c ****   ******************************************************************************
  39:Drivers/STM32H5xx_HAL_Driver/Src/stm32h5xx_ll_usb.c ****   */
  40:Drivers/STM32H5xx_HAL_Driver/Src/stm32h5xx_ll_usb.c **** 
  41:Drivers/STM32H5xx_HAL_Driver/Src/stm32h5xx_ll_usb.c **** /* Includes ------------------------------------------------------------------*/
  42:Drivers/STM32H5xx_HAL_Driver/Src/stm32h5xx_ll_usb.c **** #include "stm32h5xx_hal.h"
  43:Drivers/STM32H5xx_HAL_Driver/Src/stm32h5xx_ll_usb.c **** 
  44:Drivers/STM32H5xx_HAL_Driver/Src/stm32h5xx_ll_usb.c **** /** @addtogroup STM32H5xx_LL_USB_DRIVER
  45:Drivers/STM32H5xx_HAL_Driver/Src/stm32h5xx_ll_usb.c ****   * @{
  46:Drivers/STM32H5xx_HAL_Driver/Src/stm32h5xx_ll_usb.c ****   */
  47:Drivers/STM32H5xx_HAL_Driver/Src/stm32h5xx_ll_usb.c **** 
  48:Drivers/STM32H5xx_HAL_Driver/Src/stm32h5xx_ll_usb.c **** #if defined (HAL_PCD_MODULE_ENABLED) || defined (HAL_HCD_MODULE_ENABLED)
  49:Drivers/STM32H5xx_HAL_Driver/Src/stm32h5xx_ll_usb.c **** #if defined (USB_DRD_FS)
  50:Drivers/STM32H5xx_HAL_Driver/Src/stm32h5xx_ll_usb.c **** /* Private typedef -----------------------------------------------------------*/
  51:Drivers/STM32H5xx_HAL_Driver/Src/stm32h5xx_ll_usb.c **** /* Private define ------------------------------------------------------------*/
  52:Drivers/STM32H5xx_HAL_Driver/Src/stm32h5xx_ll_usb.c **** /* Private macro -------------------------------------------------------------*/
  53:Drivers/STM32H5xx_HAL_Driver/Src/stm32h5xx_ll_usb.c **** /* Private variables ---------------------------------------------------------*/
  54:Drivers/STM32H5xx_HAL_Driver/Src/stm32h5xx_ll_usb.c **** /* Private function prototypes -----------------------------------------------*/
  55:Drivers/STM32H5xx_HAL_Driver/Src/stm32h5xx_ll_usb.c **** /* Private functions ---------------------------------------------------------*/
  56:Drivers/STM32H5xx_HAL_Driver/Src/stm32h5xx_ll_usb.c **** 
  57:Drivers/STM32H5xx_HAL_Driver/Src/stm32h5xx_ll_usb.c **** static HAL_StatusTypeDef USB_CoreReset(USB_DRD_TypeDef *USBx);
  58:Drivers/STM32H5xx_HAL_Driver/Src/stm32h5xx_ll_usb.c **** #if (USE_USB_DOUBLE_BUFFER == 1U)
  59:Drivers/STM32H5xx_HAL_Driver/Src/stm32h5xx_ll_usb.c **** static HAL_StatusTypeDef USB_HC_BULK_DB_StartXfer(USB_DRD_TypeDef *USBx,
  60:Drivers/STM32H5xx_HAL_Driver/Src/stm32h5xx_ll_usb.c ****                                                   USB_DRD_HCTypeDef *hc,
  61:Drivers/STM32H5xx_HAL_Driver/Src/stm32h5xx_ll_usb.c ****                                                   uint32_t ch_reg,
  62:Drivers/STM32H5xx_HAL_Driver/Src/stm32h5xx_ll_usb.c ****                                                   uint32_t *len);
  63:Drivers/STM32H5xx_HAL_Driver/Src/stm32h5xx_ll_usb.c **** 
  64:Drivers/STM32H5xx_HAL_Driver/Src/stm32h5xx_ll_usb.c **** static HAL_StatusTypeDef USB_HC_ISO_DB_StartXfer(USB_DRD_TypeDef *USBx,
  65:Drivers/STM32H5xx_HAL_Driver/Src/stm32h5xx_ll_usb.c ****                                                  USB_DRD_HCTypeDef *hc,
  66:Drivers/STM32H5xx_HAL_Driver/Src/stm32h5xx_ll_usb.c ****                                                  uint32_t len);
  67:Drivers/STM32H5xx_HAL_Driver/Src/stm32h5xx_ll_usb.c **** #endif /* (USE_USB_DOUBLE_BUFFER == 1U) */
  68:Drivers/STM32H5xx_HAL_Driver/Src/stm32h5xx_ll_usb.c **** 
  69:Drivers/STM32H5xx_HAL_Driver/Src/stm32h5xx_ll_usb.c **** /**
  70:Drivers/STM32H5xx_HAL_Driver/Src/stm32h5xx_ll_usb.c ****   * @brief  Reset the USB Core (needed after USB clock settings change)
  71:Drivers/STM32H5xx_HAL_Driver/Src/stm32h5xx_ll_usb.c ****   * @param  USBx Selected device
  72:Drivers/STM32H5xx_HAL_Driver/Src/stm32h5xx_ll_usb.c ****   * @retval HAL status
  73:Drivers/STM32H5xx_HAL_Driver/Src/stm32h5xx_ll_usb.c ****   */
  74:Drivers/STM32H5xx_HAL_Driver/Src/stm32h5xx_ll_usb.c **** static HAL_StatusTypeDef USB_CoreReset(USB_DRD_TypeDef *USBx)
  75:Drivers/STM32H5xx_HAL_Driver/Src/stm32h5xx_ll_usb.c **** {
  30              		.loc 1 75 1 view -0
  31              		.cfi_startproc
  32              		@ args = 0, pretend = 0, frame = 0
  33              		@ frame_needed = 0, uses_anonymous_args = 0
  34              		@ link register save eliminated.
  76:Drivers/STM32H5xx_HAL_Driver/Src/stm32h5xx_ll_usb.c ****   /* Disable Host Mode */
  77:Drivers/STM32H5xx_HAL_Driver/Src/stm32h5xx_ll_usb.c ****   USBx->CNTR &= ~USB_CNTR_HOST;
  35              		.loc 1 77 3 view .LVU1
  36              		.loc 1 77 7 is_stmt 0 view .LVU2
  37 0000 036C     		ldr	r3, [r0, #64]
  38              		.loc 1 77 14 view .LVU3
ARM GAS  C:\Users\sapph\AppData\Local\Temp\cchEHrSS.s 			page 3


  39 0002 23F00043 		bic	r3, r3, #-2147483648
  40 0006 0364     		str	r3, [r0, #64]
  78:Drivers/STM32H5xx_HAL_Driver/Src/stm32h5xx_ll_usb.c **** 
  79:Drivers/STM32H5xx_HAL_Driver/Src/stm32h5xx_ll_usb.c ****   /* Force Reset IP */
  80:Drivers/STM32H5xx_HAL_Driver/Src/stm32h5xx_ll_usb.c ****   USBx->CNTR |= USB_CNTR_USBRST;
  41              		.loc 1 80 3 is_stmt 1 view .LVU4
  42              		.loc 1 80 7 is_stmt 0 view .LVU5
  43 0008 036C     		ldr	r3, [r0, #64]
  44              		.loc 1 80 14 view .LVU6
  45 000a 43F00103 		orr	r3, r3, #1
  46 000e 0364     		str	r3, [r0, #64]
  81:Drivers/STM32H5xx_HAL_Driver/Src/stm32h5xx_ll_usb.c **** 
  82:Drivers/STM32H5xx_HAL_Driver/Src/stm32h5xx_ll_usb.c ****   return HAL_OK;
  47              		.loc 1 82 3 is_stmt 1 view .LVU7
  83:Drivers/STM32H5xx_HAL_Driver/Src/stm32h5xx_ll_usb.c **** }
  48              		.loc 1 83 1 is_stmt 0 view .LVU8
  49 0010 0020     		movs	r0, #0
  50              	.LVL1:
  51              		.loc 1 83 1 view .LVU9
  52 0012 7047     		bx	lr
  53              		.cfi_endproc
  54              	.LFE160:
  56              		.section	.text.USB_CoreInit,"ax",%progbits
  57              		.align	1
  58              		.global	USB_CoreInit
  59              		.syntax unified
  60              		.thumb
  61              		.thumb_func
  63              	USB_CoreInit:
  64              	.LVL2:
  65              	.LFB161:
  84:Drivers/STM32H5xx_HAL_Driver/Src/stm32h5xx_ll_usb.c **** 
  85:Drivers/STM32H5xx_HAL_Driver/Src/stm32h5xx_ll_usb.c **** /**
  86:Drivers/STM32H5xx_HAL_Driver/Src/stm32h5xx_ll_usb.c ****   * @brief  Initializes the USB Core
  87:Drivers/STM32H5xx_HAL_Driver/Src/stm32h5xx_ll_usb.c ****   * @param  USBx USB Instance
  88:Drivers/STM32H5xx_HAL_Driver/Src/stm32h5xx_ll_usb.c ****   * @param  cfg pointer to a USB_CfgTypeDef structure that contains
  89:Drivers/STM32H5xx_HAL_Driver/Src/stm32h5xx_ll_usb.c ****   *         the configuration information for the specified USBx peripheral.
  90:Drivers/STM32H5xx_HAL_Driver/Src/stm32h5xx_ll_usb.c ****   * @retval HAL status
  91:Drivers/STM32H5xx_HAL_Driver/Src/stm32h5xx_ll_usb.c ****   */
  92:Drivers/STM32H5xx_HAL_Driver/Src/stm32h5xx_ll_usb.c **** HAL_StatusTypeDef USB_CoreInit(USB_DRD_TypeDef *USBx, USB_DRD_CfgTypeDef cfg)
  93:Drivers/STM32H5xx_HAL_Driver/Src/stm32h5xx_ll_usb.c **** {
  66              		.loc 1 93 1 is_stmt 1 view -0
  67              		.cfi_startproc
  68              		@ args = 20, pretend = 16, frame = 0
  69              		@ frame_needed = 0, uses_anonymous_args = 0
  70              		.loc 1 93 1 is_stmt 0 view .LVU11
  71 0000 84B0     		sub	sp, sp, #16
  72              		.cfi_def_cfa_offset 16
  73 0002 10B5     		push	{r4, lr}
  74              		.cfi_def_cfa_offset 24
  75              		.cfi_offset 4, -24
  76              		.cfi_offset 14, -20
  77 0004 0DF10C0C 		add	ip, sp, #12
  78 0008 8CE80E00 		stm	ip, {r1, r2, r3}
  94:Drivers/STM32H5xx_HAL_Driver/Src/stm32h5xx_ll_usb.c ****   HAL_StatusTypeDef ret;
  79              		.loc 1 94 3 is_stmt 1 view .LVU12
  95:Drivers/STM32H5xx_HAL_Driver/Src/stm32h5xx_ll_usb.c ****   UNUSED(cfg);
ARM GAS  C:\Users\sapph\AppData\Local\Temp\cchEHrSS.s 			page 4


  80              		.loc 1 95 3 view .LVU13
  96:Drivers/STM32H5xx_HAL_Driver/Src/stm32h5xx_ll_usb.c **** 
  97:Drivers/STM32H5xx_HAL_Driver/Src/stm32h5xx_ll_usb.c ****   if (USBx == NULL)
  81              		.loc 1 97 3 view .LVU14
  82              		.loc 1 97 6 is_stmt 0 view .LVU15
  83 000c 40B1     		cbz	r0, .L4
  84 000e 0446     		mov	r4, r0
  98:Drivers/STM32H5xx_HAL_Driver/Src/stm32h5xx_ll_usb.c ****   {
  99:Drivers/STM32H5xx_HAL_Driver/Src/stm32h5xx_ll_usb.c ****     return HAL_ERROR;
 100:Drivers/STM32H5xx_HAL_Driver/Src/stm32h5xx_ll_usb.c ****   }
 101:Drivers/STM32H5xx_HAL_Driver/Src/stm32h5xx_ll_usb.c **** 
 102:Drivers/STM32H5xx_HAL_Driver/Src/stm32h5xx_ll_usb.c ****   /* Reset after a PHY select */
 103:Drivers/STM32H5xx_HAL_Driver/Src/stm32h5xx_ll_usb.c ****   ret = USB_CoreReset(USBx);
  85              		.loc 1 103 3 is_stmt 1 view .LVU16
  86              		.loc 1 103 9 is_stmt 0 view .LVU17
  87 0010 FFF7FEFF 		bl	USB_CoreReset
  88              	.LVL3:
 104:Drivers/STM32H5xx_HAL_Driver/Src/stm32h5xx_ll_usb.c **** 
 105:Drivers/STM32H5xx_HAL_Driver/Src/stm32h5xx_ll_usb.c ****   /* Clear pending interrupts */
 106:Drivers/STM32H5xx_HAL_Driver/Src/stm32h5xx_ll_usb.c ****   USBx->ISTR = 0U;
  89              		.loc 1 106 3 is_stmt 1 view .LVU18
  90              		.loc 1 106 14 is_stmt 0 view .LVU19
  91 0014 0023     		movs	r3, #0
  92 0016 6364     		str	r3, [r4, #68]
 107:Drivers/STM32H5xx_HAL_Driver/Src/stm32h5xx_ll_usb.c **** 
 108:Drivers/STM32H5xx_HAL_Driver/Src/stm32h5xx_ll_usb.c ****   return ret;
  93              		.loc 1 108 3 is_stmt 1 view .LVU20
  94              	.LVL4:
  95              	.L3:
 109:Drivers/STM32H5xx_HAL_Driver/Src/stm32h5xx_ll_usb.c **** }
  96              		.loc 1 109 1 is_stmt 0 view .LVU21
  97 0018 BDE81040 		pop	{r4, lr}
  98              		.cfi_remember_state
  99              		.cfi_restore 14
 100              		.cfi_restore 4
 101              		.cfi_def_cfa_offset 16
 102 001c 04B0     		add	sp, sp, #16
 103              		.cfi_def_cfa_offset 0
 104 001e 7047     		bx	lr
 105              	.LVL5:
 106              	.L4:
 107              		.cfi_restore_state
  99:Drivers/STM32H5xx_HAL_Driver/Src/stm32h5xx_ll_usb.c ****   }
 108              		.loc 1 99 12 view .LVU22
 109 0020 0120     		movs	r0, #1
 110              	.LVL6:
  99:Drivers/STM32H5xx_HAL_Driver/Src/stm32h5xx_ll_usb.c ****   }
 111              		.loc 1 99 12 view .LVU23
 112 0022 F9E7     		b	.L3
 113              		.cfi_endproc
 114              	.LFE161:
 116              		.section	.text.USB_EnableGlobalInt,"ax",%progbits
 117              		.align	1
 118              		.global	USB_EnableGlobalInt
 119              		.syntax unified
 120              		.thumb
 121              		.thumb_func
ARM GAS  C:\Users\sapph\AppData\Local\Temp\cchEHrSS.s 			page 5


 123              	USB_EnableGlobalInt:
 124              	.LVL7:
 125              	.LFB162:
 110:Drivers/STM32H5xx_HAL_Driver/Src/stm32h5xx_ll_usb.c **** 
 111:Drivers/STM32H5xx_HAL_Driver/Src/stm32h5xx_ll_usb.c **** /**
 112:Drivers/STM32H5xx_HAL_Driver/Src/stm32h5xx_ll_usb.c ****   * @brief  USB_EnableGlobalInt
 113:Drivers/STM32H5xx_HAL_Driver/Src/stm32h5xx_ll_usb.c ****   *         Enables the controller's Global Int in the AHB Config reg
 114:Drivers/STM32H5xx_HAL_Driver/Src/stm32h5xx_ll_usb.c ****   * @param  USBx Selected device
 115:Drivers/STM32H5xx_HAL_Driver/Src/stm32h5xx_ll_usb.c ****   * @retval HAL status
 116:Drivers/STM32H5xx_HAL_Driver/Src/stm32h5xx_ll_usb.c ****   */
 117:Drivers/STM32H5xx_HAL_Driver/Src/stm32h5xx_ll_usb.c **** HAL_StatusTypeDef USB_EnableGlobalInt(USB_DRD_TypeDef *USBx)
 118:Drivers/STM32H5xx_HAL_Driver/Src/stm32h5xx_ll_usb.c **** {
 126              		.loc 1 118 1 is_stmt 1 view -0
 127              		.cfi_startproc
 128              		@ args = 0, pretend = 0, frame = 0
 129              		@ frame_needed = 0, uses_anonymous_args = 0
 130              		@ link register save eliminated.
 131              		.loc 1 118 1 is_stmt 0 view .LVU25
 132 0000 0346     		mov	r3, r0
 119:Drivers/STM32H5xx_HAL_Driver/Src/stm32h5xx_ll_usb.c ****   uint32_t winterruptmask;
 133              		.loc 1 119 3 is_stmt 1 view .LVU26
 120:Drivers/STM32H5xx_HAL_Driver/Src/stm32h5xx_ll_usb.c **** 
 121:Drivers/STM32H5xx_HAL_Driver/Src/stm32h5xx_ll_usb.c ****   /* Clear pending interrupts */
 122:Drivers/STM32H5xx_HAL_Driver/Src/stm32h5xx_ll_usb.c ****   USBx->ISTR = 0U;
 134              		.loc 1 122 3 view .LVU27
 135              		.loc 1 122 14 is_stmt 0 view .LVU28
 136 0002 0020     		movs	r0, #0
 137              	.LVL8:
 138              		.loc 1 122 14 view .LVU29
 139 0004 5864     		str	r0, [r3, #68]
 123:Drivers/STM32H5xx_HAL_Driver/Src/stm32h5xx_ll_usb.c **** 
 124:Drivers/STM32H5xx_HAL_Driver/Src/stm32h5xx_ll_usb.c ****   /* Set winterruptmask variable */
 125:Drivers/STM32H5xx_HAL_Driver/Src/stm32h5xx_ll_usb.c ****   winterruptmask = USB_CNTR_CTRM  | USB_CNTR_WKUPM |
 140              		.loc 1 125 3 is_stmt 1 view .LVU30
 141              	.LVL9:
 126:Drivers/STM32H5xx_HAL_Driver/Src/stm32h5xx_ll_usb.c ****                    USB_CNTR_SUSPM | USB_CNTR_ERRM |
 127:Drivers/STM32H5xx_HAL_Driver/Src/stm32h5xx_ll_usb.c ****                    USB_CNTR_SOFM | USB_CNTR_ESOFM |
 128:Drivers/STM32H5xx_HAL_Driver/Src/stm32h5xx_ll_usb.c ****                    USB_CNTR_RESETM | USB_CNTR_L1REQM;
 129:Drivers/STM32H5xx_HAL_Driver/Src/stm32h5xx_ll_usb.c **** 
 130:Drivers/STM32H5xx_HAL_Driver/Src/stm32h5xx_ll_usb.c ****   /* Set interrupt mask */
 131:Drivers/STM32H5xx_HAL_Driver/Src/stm32h5xx_ll_usb.c ****   USBx->CNTR = winterruptmask;
 142              		.loc 1 131 3 view .LVU31
 143              		.loc 1 131 14 is_stmt 0 view .LVU32
 144 0006 4BF68072 		movw	r2, #49024
 145 000a 1A64     		str	r2, [r3, #64]
 132:Drivers/STM32H5xx_HAL_Driver/Src/stm32h5xx_ll_usb.c **** 
 133:Drivers/STM32H5xx_HAL_Driver/Src/stm32h5xx_ll_usb.c ****   return HAL_OK;
 146              		.loc 1 133 3 is_stmt 1 view .LVU33
 134:Drivers/STM32H5xx_HAL_Driver/Src/stm32h5xx_ll_usb.c **** }
 147              		.loc 1 134 1 is_stmt 0 view .LVU34
 148 000c 7047     		bx	lr
 149              		.cfi_endproc
 150              	.LFE162:
 152              		.section	.text.USB_DisableGlobalInt,"ax",%progbits
 153              		.align	1
 154              		.global	USB_DisableGlobalInt
 155              		.syntax unified
ARM GAS  C:\Users\sapph\AppData\Local\Temp\cchEHrSS.s 			page 6


 156              		.thumb
 157              		.thumb_func
 159              	USB_DisableGlobalInt:
 160              	.LVL10:
 161              	.LFB163:
 135:Drivers/STM32H5xx_HAL_Driver/Src/stm32h5xx_ll_usb.c **** 
 136:Drivers/STM32H5xx_HAL_Driver/Src/stm32h5xx_ll_usb.c **** /**
 137:Drivers/STM32H5xx_HAL_Driver/Src/stm32h5xx_ll_usb.c ****   * @brief  USB_DisableGlobalInt
 138:Drivers/STM32H5xx_HAL_Driver/Src/stm32h5xx_ll_usb.c ****   *         Disable the controller's Global Int in the AHB Config reg
 139:Drivers/STM32H5xx_HAL_Driver/Src/stm32h5xx_ll_usb.c ****   * @param  USBx Selected device
 140:Drivers/STM32H5xx_HAL_Driver/Src/stm32h5xx_ll_usb.c ****   * @retval HAL status
 141:Drivers/STM32H5xx_HAL_Driver/Src/stm32h5xx_ll_usb.c ****   */
 142:Drivers/STM32H5xx_HAL_Driver/Src/stm32h5xx_ll_usb.c **** HAL_StatusTypeDef USB_DisableGlobalInt(USB_DRD_TypeDef *USBx)
 143:Drivers/STM32H5xx_HAL_Driver/Src/stm32h5xx_ll_usb.c **** {
 162              		.loc 1 143 1 is_stmt 1 view -0
 163              		.cfi_startproc
 164              		@ args = 0, pretend = 0, frame = 0
 165              		@ frame_needed = 0, uses_anonymous_args = 0
 166              		@ link register save eliminated.
 144:Drivers/STM32H5xx_HAL_Driver/Src/stm32h5xx_ll_usb.c ****   uint32_t winterruptmask;
 167              		.loc 1 144 3 view .LVU36
 145:Drivers/STM32H5xx_HAL_Driver/Src/stm32h5xx_ll_usb.c **** 
 146:Drivers/STM32H5xx_HAL_Driver/Src/stm32h5xx_ll_usb.c ****   /* Set winterruptmask variable */
 147:Drivers/STM32H5xx_HAL_Driver/Src/stm32h5xx_ll_usb.c ****   winterruptmask = USB_CNTR_CTRM  | USB_CNTR_WKUPM |
 168              		.loc 1 147 3 view .LVU37
 148:Drivers/STM32H5xx_HAL_Driver/Src/stm32h5xx_ll_usb.c ****                    USB_CNTR_SUSPM | USB_CNTR_ERRM |
 149:Drivers/STM32H5xx_HAL_Driver/Src/stm32h5xx_ll_usb.c ****                    USB_CNTR_SOFM | USB_CNTR_ESOFM |
 150:Drivers/STM32H5xx_HAL_Driver/Src/stm32h5xx_ll_usb.c ****                    USB_CNTR_RESETM | USB_CNTR_L1REQM;
 151:Drivers/STM32H5xx_HAL_Driver/Src/stm32h5xx_ll_usb.c **** 
 152:Drivers/STM32H5xx_HAL_Driver/Src/stm32h5xx_ll_usb.c ****   /* Clear interrupt mask */
 153:Drivers/STM32H5xx_HAL_Driver/Src/stm32h5xx_ll_usb.c ****   USBx->CNTR &= ~winterruptmask;
 169              		.loc 1 153 3 view .LVU38
 170              		.loc 1 153 7 is_stmt 0 view .LVU39
 171 0000 036C     		ldr	r3, [r0, #64]
 172              		.loc 1 153 14 view .LVU40
 173 0002 23F43F43 		bic	r3, r3, #48896
 174 0006 23F08003 		bic	r3, r3, #128
 175 000a 0364     		str	r3, [r0, #64]
 154:Drivers/STM32H5xx_HAL_Driver/Src/stm32h5xx_ll_usb.c **** 
 155:Drivers/STM32H5xx_HAL_Driver/Src/stm32h5xx_ll_usb.c ****   return HAL_OK;
 176              		.loc 1 155 3 is_stmt 1 view .LVU41
 156:Drivers/STM32H5xx_HAL_Driver/Src/stm32h5xx_ll_usb.c **** }
 177              		.loc 1 156 1 is_stmt 0 view .LVU42
 178 000c 0020     		movs	r0, #0
 179              	.LVL11:
 180              		.loc 1 156 1 view .LVU43
 181 000e 7047     		bx	lr
 182              		.cfi_endproc
 183              	.LFE163:
 185              		.section	.text.USB_SetCurrentMode,"ax",%progbits
 186              		.align	1
 187              		.global	USB_SetCurrentMode
 188              		.syntax unified
 189              		.thumb
 190              		.thumb_func
 192              	USB_SetCurrentMode:
 193              	.LVL12:
ARM GAS  C:\Users\sapph\AppData\Local\Temp\cchEHrSS.s 			page 7


 194              	.LFB164:
 157:Drivers/STM32H5xx_HAL_Driver/Src/stm32h5xx_ll_usb.c **** 
 158:Drivers/STM32H5xx_HAL_Driver/Src/stm32h5xx_ll_usb.c **** /**
 159:Drivers/STM32H5xx_HAL_Driver/Src/stm32h5xx_ll_usb.c ****   * @brief  USB_SetCurrentMode Set functional mode
 160:Drivers/STM32H5xx_HAL_Driver/Src/stm32h5xx_ll_usb.c ****   * @param  USBx Selected device
 161:Drivers/STM32H5xx_HAL_Driver/Src/stm32h5xx_ll_usb.c ****   * @param  mode current core mode
 162:Drivers/STM32H5xx_HAL_Driver/Src/stm32h5xx_ll_usb.c ****   *          This parameter can be one of the these values:
 163:Drivers/STM32H5xx_HAL_Driver/Src/stm32h5xx_ll_usb.c ****   *            @arg USB_DEVICE_MODE Peripheral mode
 164:Drivers/STM32H5xx_HAL_Driver/Src/stm32h5xx_ll_usb.c ****   * @retval HAL status
 165:Drivers/STM32H5xx_HAL_Driver/Src/stm32h5xx_ll_usb.c ****   */
 166:Drivers/STM32H5xx_HAL_Driver/Src/stm32h5xx_ll_usb.c **** HAL_StatusTypeDef USB_SetCurrentMode(USB_DRD_TypeDef *USBx, USB_DRD_ModeTypeDef mode)
 167:Drivers/STM32H5xx_HAL_Driver/Src/stm32h5xx_ll_usb.c **** {
 195              		.loc 1 167 1 is_stmt 1 view -0
 196              		.cfi_startproc
 197              		@ args = 0, pretend = 0, frame = 0
 198              		@ frame_needed = 0, uses_anonymous_args = 0
 199              		@ link register save eliminated.
 168:Drivers/STM32H5xx_HAL_Driver/Src/stm32h5xx_ll_usb.c ****   if (mode == USB_DEVICE_MODE)
 200              		.loc 1 168 3 view .LVU45
 201              		.loc 1 168 6 is_stmt 0 view .LVU46
 202 0000 29B9     		cbnz	r1, .L9
 169:Drivers/STM32H5xx_HAL_Driver/Src/stm32h5xx_ll_usb.c ****   {
 170:Drivers/STM32H5xx_HAL_Driver/Src/stm32h5xx_ll_usb.c ****     USBx->CNTR &= ~USB_CNTR_HOST;
 203              		.loc 1 170 5 is_stmt 1 view .LVU47
 204              		.loc 1 170 9 is_stmt 0 view .LVU48
 205 0002 026C     		ldr	r2, [r0, #64]
 206              		.loc 1 170 16 view .LVU49
 207 0004 22F00042 		bic	r2, r2, #-2147483648
 208 0008 0264     		str	r2, [r0, #64]
 171:Drivers/STM32H5xx_HAL_Driver/Src/stm32h5xx_ll_usb.c ****   }
 172:Drivers/STM32H5xx_HAL_Driver/Src/stm32h5xx_ll_usb.c ****   else if (mode == USB_HOST_MODE)
 173:Drivers/STM32H5xx_HAL_Driver/Src/stm32h5xx_ll_usb.c ****   {
 174:Drivers/STM32H5xx_HAL_Driver/Src/stm32h5xx_ll_usb.c ****     USBx->CNTR |= USB_CNTR_HOST;
 175:Drivers/STM32H5xx_HAL_Driver/Src/stm32h5xx_ll_usb.c ****   }
 176:Drivers/STM32H5xx_HAL_Driver/Src/stm32h5xx_ll_usb.c ****   else
 177:Drivers/STM32H5xx_HAL_Driver/Src/stm32h5xx_ll_usb.c ****   {
 178:Drivers/STM32H5xx_HAL_Driver/Src/stm32h5xx_ll_usb.c ****     return HAL_ERROR;
 179:Drivers/STM32H5xx_HAL_Driver/Src/stm32h5xx_ll_usb.c ****   }
 180:Drivers/STM32H5xx_HAL_Driver/Src/stm32h5xx_ll_usb.c **** 
 181:Drivers/STM32H5xx_HAL_Driver/Src/stm32h5xx_ll_usb.c ****   return HAL_OK;
 209              		.loc 1 181 10 view .LVU50
 210 000a 0846     		mov	r0, r1
 211              	.LVL13:
 212              		.loc 1 181 10 view .LVU51
 213 000c 7047     		bx	lr
 214              	.LVL14:
 215              	.L9:
 172:Drivers/STM32H5xx_HAL_Driver/Src/stm32h5xx_ll_usb.c ****   {
 216              		.loc 1 172 8 is_stmt 1 view .LVU52
 172:Drivers/STM32H5xx_HAL_Driver/Src/stm32h5xx_ll_usb.c ****   {
 217              		.loc 1 172 11 is_stmt 0 view .LVU53
 218 000e 0129     		cmp	r1, #1
 219 0010 05D1     		bne	.L11
 174:Drivers/STM32H5xx_HAL_Driver/Src/stm32h5xx_ll_usb.c ****   }
 220              		.loc 1 174 5 is_stmt 1 view .LVU54
 174:Drivers/STM32H5xx_HAL_Driver/Src/stm32h5xx_ll_usb.c ****   }
 221              		.loc 1 174 9 is_stmt 0 view .LVU55
ARM GAS  C:\Users\sapph\AppData\Local\Temp\cchEHrSS.s 			page 8


 222 0012 036C     		ldr	r3, [r0, #64]
 174:Drivers/STM32H5xx_HAL_Driver/Src/stm32h5xx_ll_usb.c ****   }
 223              		.loc 1 174 16 view .LVU56
 224 0014 43F00043 		orr	r3, r3, #-2147483648
 225 0018 0364     		str	r3, [r0, #64]
 226              		.loc 1 181 10 view .LVU57
 227 001a 0020     		movs	r0, #0
 228              	.LVL15:
 229              		.loc 1 181 10 view .LVU58
 230 001c 7047     		bx	lr
 231              	.LVL16:
 232              	.L11:
 178:Drivers/STM32H5xx_HAL_Driver/Src/stm32h5xx_ll_usb.c ****   }
 233              		.loc 1 178 12 view .LVU59
 234 001e 0120     		movs	r0, #1
 235              	.LVL17:
 182:Drivers/STM32H5xx_HAL_Driver/Src/stm32h5xx_ll_usb.c **** }
 236              		.loc 1 182 1 view .LVU60
 237 0020 7047     		bx	lr
 238              		.cfi_endproc
 239              	.LFE164:
 241              		.section	.text.USB_DevInit,"ax",%progbits
 242              		.align	1
 243              		.global	USB_DevInit
 244              		.syntax unified
 245              		.thumb
 246              		.thumb_func
 248              	USB_DevInit:
 249              	.LVL18:
 250              	.LFB165:
 183:Drivers/STM32H5xx_HAL_Driver/Src/stm32h5xx_ll_usb.c **** 
 184:Drivers/STM32H5xx_HAL_Driver/Src/stm32h5xx_ll_usb.c **** /**
 185:Drivers/STM32H5xx_HAL_Driver/Src/stm32h5xx_ll_usb.c ****   * @brief  USB_DevInit Initializes the USB controller registers
 186:Drivers/STM32H5xx_HAL_Driver/Src/stm32h5xx_ll_usb.c ****   *         for device mode
 187:Drivers/STM32H5xx_HAL_Driver/Src/stm32h5xx_ll_usb.c ****   * @param  USBx Selected device
 188:Drivers/STM32H5xx_HAL_Driver/Src/stm32h5xx_ll_usb.c ****   * @param  cfg  pointer to a USB_DRD_CfgTypeDef structure that contains
 189:Drivers/STM32H5xx_HAL_Driver/Src/stm32h5xx_ll_usb.c ****   *         the configuration information for the specified USBx peripheral.
 190:Drivers/STM32H5xx_HAL_Driver/Src/stm32h5xx_ll_usb.c ****   * @retval HAL status
 191:Drivers/STM32H5xx_HAL_Driver/Src/stm32h5xx_ll_usb.c ****   */
 192:Drivers/STM32H5xx_HAL_Driver/Src/stm32h5xx_ll_usb.c **** HAL_StatusTypeDef USB_DevInit(USB_DRD_TypeDef *USBx, USB_DRD_CfgTypeDef cfg)
 193:Drivers/STM32H5xx_HAL_Driver/Src/stm32h5xx_ll_usb.c **** {
 251              		.loc 1 193 1 is_stmt 1 view -0
 252              		.cfi_startproc
 253              		@ args = 20, pretend = 16, frame = 0
 254              		@ frame_needed = 0, uses_anonymous_args = 0
 255              		.loc 1 193 1 is_stmt 0 view .LVU62
 256 0000 84B0     		sub	sp, sp, #16
 257              		.cfi_def_cfa_offset 16
 258 0002 10B5     		push	{r4, lr}
 259              		.cfi_def_cfa_offset 24
 260              		.cfi_offset 4, -24
 261              		.cfi_offset 14, -20
 262 0004 0446     		mov	r4, r0
 263 0006 0DF10C0C 		add	ip, sp, #12
 264 000a 8CE80E00 		stm	ip, {r1, r2, r3}
 194:Drivers/STM32H5xx_HAL_Driver/Src/stm32h5xx_ll_usb.c ****   HAL_StatusTypeDef ret;
 265              		.loc 1 194 3 is_stmt 1 view .LVU63
ARM GAS  C:\Users\sapph\AppData\Local\Temp\cchEHrSS.s 			page 9


 195:Drivers/STM32H5xx_HAL_Driver/Src/stm32h5xx_ll_usb.c **** 
 196:Drivers/STM32H5xx_HAL_Driver/Src/stm32h5xx_ll_usb.c ****   /* Prevent unused argument(s) compilation warning */
 197:Drivers/STM32H5xx_HAL_Driver/Src/stm32h5xx_ll_usb.c ****   UNUSED(cfg);
 266              		.loc 1 197 3 view .LVU64
 198:Drivers/STM32H5xx_HAL_Driver/Src/stm32h5xx_ll_usb.c **** 
 199:Drivers/STM32H5xx_HAL_Driver/Src/stm32h5xx_ll_usb.c ****   /* Force Reset */
 200:Drivers/STM32H5xx_HAL_Driver/Src/stm32h5xx_ll_usb.c ****   USBx->CNTR = USB_CNTR_USBRST;
 267              		.loc 1 200 3 view .LVU65
 268              		.loc 1 200 14 is_stmt 0 view .LVU66
 269 000e 0123     		movs	r3, #1
 270 0010 0364     		str	r3, [r0, #64]
 201:Drivers/STM32H5xx_HAL_Driver/Src/stm32h5xx_ll_usb.c **** 
 202:Drivers/STM32H5xx_HAL_Driver/Src/stm32h5xx_ll_usb.c ****   /* Release Reset */
 203:Drivers/STM32H5xx_HAL_Driver/Src/stm32h5xx_ll_usb.c ****   USBx->CNTR &= ~USB_CNTR_USBRST;
 271              		.loc 1 203 3 is_stmt 1 view .LVU67
 272              		.loc 1 203 7 is_stmt 0 view .LVU68
 273 0012 036C     		ldr	r3, [r0, #64]
 274              		.loc 1 203 14 view .LVU69
 275 0014 23F00103 		bic	r3, r3, #1
 276 0018 0364     		str	r3, [r0, #64]
 204:Drivers/STM32H5xx_HAL_Driver/Src/stm32h5xx_ll_usb.c **** 
 205:Drivers/STM32H5xx_HAL_Driver/Src/stm32h5xx_ll_usb.c ****   /* Set the Device Mode */
 206:Drivers/STM32H5xx_HAL_Driver/Src/stm32h5xx_ll_usb.c ****   ret = USB_SetCurrentMode(USBx, USB_DEVICE_MODE);
 277              		.loc 1 206 3 is_stmt 1 view .LVU70
 278              		.loc 1 206 9 is_stmt 0 view .LVU71
 279 001a 0021     		movs	r1, #0
 280 001c FFF7FEFF 		bl	USB_SetCurrentMode
 281              	.LVL19:
 207:Drivers/STM32H5xx_HAL_Driver/Src/stm32h5xx_ll_usb.c **** 
 208:Drivers/STM32H5xx_HAL_Driver/Src/stm32h5xx_ll_usb.c ****   /* Clear pending interrupts */
 209:Drivers/STM32H5xx_HAL_Driver/Src/stm32h5xx_ll_usb.c ****   USBx->ISTR = 0U;
 282              		.loc 1 209 3 is_stmt 1 view .LVU72
 283              		.loc 1 209 14 is_stmt 0 view .LVU73
 284 0020 0023     		movs	r3, #0
 285 0022 6364     		str	r3, [r4, #68]
 210:Drivers/STM32H5xx_HAL_Driver/Src/stm32h5xx_ll_usb.c **** 
 211:Drivers/STM32H5xx_HAL_Driver/Src/stm32h5xx_ll_usb.c ****   return ret;
 286              		.loc 1 211 3 is_stmt 1 view .LVU74
 212:Drivers/STM32H5xx_HAL_Driver/Src/stm32h5xx_ll_usb.c **** }
 287              		.loc 1 212 1 is_stmt 0 view .LVU75
 288 0024 BDE81040 		pop	{r4, lr}
 289              		.cfi_restore 14
 290              		.cfi_restore 4
 291              		.cfi_def_cfa_offset 16
 292              	.LVL20:
 293              		.loc 1 212 1 view .LVU76
 294 0028 04B0     		add	sp, sp, #16
 295              		.cfi_def_cfa_offset 0
 296 002a 7047     		bx	lr
 297              		.cfi_endproc
 298              	.LFE165:
 300              		.section	.text.USB_FlushTxFifo,"ax",%progbits
 301              		.align	1
 302              		.global	USB_FlushTxFifo
 303              		.syntax unified
 304              		.thumb
 305              		.thumb_func
ARM GAS  C:\Users\sapph\AppData\Local\Temp\cchEHrSS.s 			page 10


 307              	USB_FlushTxFifo:
 308              	.LVL21:
 309              	.LFB166:
 213:Drivers/STM32H5xx_HAL_Driver/Src/stm32h5xx_ll_usb.c **** 
 214:Drivers/STM32H5xx_HAL_Driver/Src/stm32h5xx_ll_usb.c **** /**
 215:Drivers/STM32H5xx_HAL_Driver/Src/stm32h5xx_ll_usb.c ****   * @brief  USB_FlushTxFifo : Flush a Tx FIFO
 216:Drivers/STM32H5xx_HAL_Driver/Src/stm32h5xx_ll_usb.c ****   * @param  USBx : Selected device
 217:Drivers/STM32H5xx_HAL_Driver/Src/stm32h5xx_ll_usb.c ****   * @param  num : FIFO number
 218:Drivers/STM32H5xx_HAL_Driver/Src/stm32h5xx_ll_usb.c ****   *         This parameter can be a value from 1 to 15
 219:Drivers/STM32H5xx_HAL_Driver/Src/stm32h5xx_ll_usb.c ****             15 means Flush all Tx FIFOs
 220:Drivers/STM32H5xx_HAL_Driver/Src/stm32h5xx_ll_usb.c ****   * @retval HAL status
 221:Drivers/STM32H5xx_HAL_Driver/Src/stm32h5xx_ll_usb.c ****   */
 222:Drivers/STM32H5xx_HAL_Driver/Src/stm32h5xx_ll_usb.c **** HAL_StatusTypeDef USB_FlushTxFifo(USB_DRD_TypeDef const *USBx, uint32_t num)
 223:Drivers/STM32H5xx_HAL_Driver/Src/stm32h5xx_ll_usb.c **** {
 310              		.loc 1 223 1 is_stmt 1 view -0
 311              		.cfi_startproc
 312              		@ args = 0, pretend = 0, frame = 0
 313              		@ frame_needed = 0, uses_anonymous_args = 0
 314              		@ link register save eliminated.
 224:Drivers/STM32H5xx_HAL_Driver/Src/stm32h5xx_ll_usb.c ****   /* Prevent unused argument(s) compilation warning */
 225:Drivers/STM32H5xx_HAL_Driver/Src/stm32h5xx_ll_usb.c ****   UNUSED(USBx);
 315              		.loc 1 225 3 view .LVU78
 226:Drivers/STM32H5xx_HAL_Driver/Src/stm32h5xx_ll_usb.c ****   UNUSED(num);
 316              		.loc 1 226 3 view .LVU79
 227:Drivers/STM32H5xx_HAL_Driver/Src/stm32h5xx_ll_usb.c **** 
 228:Drivers/STM32H5xx_HAL_Driver/Src/stm32h5xx_ll_usb.c ****   /* NOTE : - This function is not required by USB Device FS peripheral, it is used
 229:Drivers/STM32H5xx_HAL_Driver/Src/stm32h5xx_ll_usb.c ****               only by USB OTG FS peripheral.
 230:Drivers/STM32H5xx_HAL_Driver/Src/stm32h5xx_ll_usb.c ****             - This function is added to ensure compatibility across platforms.
 231:Drivers/STM32H5xx_HAL_Driver/Src/stm32h5xx_ll_usb.c ****    */
 232:Drivers/STM32H5xx_HAL_Driver/Src/stm32h5xx_ll_usb.c **** 
 233:Drivers/STM32H5xx_HAL_Driver/Src/stm32h5xx_ll_usb.c ****   return HAL_OK;
 317              		.loc 1 233 3 view .LVU80
 234:Drivers/STM32H5xx_HAL_Driver/Src/stm32h5xx_ll_usb.c **** }
 318              		.loc 1 234 1 is_stmt 0 view .LVU81
 319 0000 0020     		movs	r0, #0
 320              	.LVL22:
 321              		.loc 1 234 1 view .LVU82
 322 0002 7047     		bx	lr
 323              		.cfi_endproc
 324              	.LFE166:
 326              		.section	.text.USB_FlushRxFifo,"ax",%progbits
 327              		.align	1
 328              		.global	USB_FlushRxFifo
 329              		.syntax unified
 330              		.thumb
 331              		.thumb_func
 333              	USB_FlushRxFifo:
 334              	.LVL23:
 335              	.LFB167:
 235:Drivers/STM32H5xx_HAL_Driver/Src/stm32h5xx_ll_usb.c **** 
 236:Drivers/STM32H5xx_HAL_Driver/Src/stm32h5xx_ll_usb.c **** /**
 237:Drivers/STM32H5xx_HAL_Driver/Src/stm32h5xx_ll_usb.c ****   * @brief  USB_FlushRxFifo : Flush Rx FIFO
 238:Drivers/STM32H5xx_HAL_Driver/Src/stm32h5xx_ll_usb.c ****   * @param  USBx : Selected device
 239:Drivers/STM32H5xx_HAL_Driver/Src/stm32h5xx_ll_usb.c ****   * @retval HAL status
 240:Drivers/STM32H5xx_HAL_Driver/Src/stm32h5xx_ll_usb.c ****   */
 241:Drivers/STM32H5xx_HAL_Driver/Src/stm32h5xx_ll_usb.c **** HAL_StatusTypeDef USB_FlushRxFifo(USB_DRD_TypeDef const *USBx)
 242:Drivers/STM32H5xx_HAL_Driver/Src/stm32h5xx_ll_usb.c **** {
ARM GAS  C:\Users\sapph\AppData\Local\Temp\cchEHrSS.s 			page 11


 336              		.loc 1 242 1 is_stmt 1 view -0
 337              		.cfi_startproc
 338              		@ args = 0, pretend = 0, frame = 0
 339              		@ frame_needed = 0, uses_anonymous_args = 0
 340              		@ link register save eliminated.
 243:Drivers/STM32H5xx_HAL_Driver/Src/stm32h5xx_ll_usb.c ****   /* Prevent unused argument(s) compilation warning */
 244:Drivers/STM32H5xx_HAL_Driver/Src/stm32h5xx_ll_usb.c ****   UNUSED(USBx);
 341              		.loc 1 244 3 view .LVU84
 245:Drivers/STM32H5xx_HAL_Driver/Src/stm32h5xx_ll_usb.c **** 
 246:Drivers/STM32H5xx_HAL_Driver/Src/stm32h5xx_ll_usb.c ****   /* NOTE : - This function is not required by USB Device FS peripheral, it is used
 247:Drivers/STM32H5xx_HAL_Driver/Src/stm32h5xx_ll_usb.c ****               only by USB OTG FS peripheral.
 248:Drivers/STM32H5xx_HAL_Driver/Src/stm32h5xx_ll_usb.c ****             - This function is added to ensure compatibility across platforms.
 249:Drivers/STM32H5xx_HAL_Driver/Src/stm32h5xx_ll_usb.c ****    */
 250:Drivers/STM32H5xx_HAL_Driver/Src/stm32h5xx_ll_usb.c **** 
 251:Drivers/STM32H5xx_HAL_Driver/Src/stm32h5xx_ll_usb.c ****   return HAL_OK;
 342              		.loc 1 251 3 view .LVU85
 252:Drivers/STM32H5xx_HAL_Driver/Src/stm32h5xx_ll_usb.c **** }
 343              		.loc 1 252 1 is_stmt 0 view .LVU86
 344 0000 0020     		movs	r0, #0
 345              	.LVL24:
 346              		.loc 1 252 1 view .LVU87
 347 0002 7047     		bx	lr
 348              		.cfi_endproc
 349              	.LFE167:
 351              		.section	.text.USB_ActivateEndpoint,"ax",%progbits
 352              		.align	1
 353              		.global	USB_ActivateEndpoint
 354              		.syntax unified
 355              		.thumb
 356              		.thumb_func
 358              	USB_ActivateEndpoint:
 359              	.LVL25:
 360              	.LFB168:
 253:Drivers/STM32H5xx_HAL_Driver/Src/stm32h5xx_ll_usb.c **** 
 254:Drivers/STM32H5xx_HAL_Driver/Src/stm32h5xx_ll_usb.c **** 
 255:Drivers/STM32H5xx_HAL_Driver/Src/stm32h5xx_ll_usb.c **** #if defined (HAL_PCD_MODULE_ENABLED)
 256:Drivers/STM32H5xx_HAL_Driver/Src/stm32h5xx_ll_usb.c **** /**
 257:Drivers/STM32H5xx_HAL_Driver/Src/stm32h5xx_ll_usb.c ****   * @brief  Activate and configure an endpoint
 258:Drivers/STM32H5xx_HAL_Driver/Src/stm32h5xx_ll_usb.c ****   * @param  USBx Selected device
 259:Drivers/STM32H5xx_HAL_Driver/Src/stm32h5xx_ll_usb.c ****   * @param  ep pointer to endpoint structure
 260:Drivers/STM32H5xx_HAL_Driver/Src/stm32h5xx_ll_usb.c ****   * @retval HAL status
 261:Drivers/STM32H5xx_HAL_Driver/Src/stm32h5xx_ll_usb.c ****   */
 262:Drivers/STM32H5xx_HAL_Driver/Src/stm32h5xx_ll_usb.c **** HAL_StatusTypeDef USB_ActivateEndpoint(USB_DRD_TypeDef *USBx, USB_DRD_EPTypeDef *ep)
 263:Drivers/STM32H5xx_HAL_Driver/Src/stm32h5xx_ll_usb.c **** {
 361              		.loc 1 263 1 is_stmt 1 view -0
 362              		.cfi_startproc
 363              		@ args = 0, pretend = 0, frame = 0
 364              		@ frame_needed = 0, uses_anonymous_args = 0
 365              		.loc 1 263 1 is_stmt 0 view .LVU89
 366 0000 30B5     		push	{r4, r5, lr}
 367              		.cfi_def_cfa_offset 12
 368              		.cfi_offset 4, -12
 369              		.cfi_offset 5, -8
 370              		.cfi_offset 14, -4
 371 0002 0346     		mov	r3, r0
 264:Drivers/STM32H5xx_HAL_Driver/Src/stm32h5xx_ll_usb.c ****   HAL_StatusTypeDef ret = HAL_OK;
 372              		.loc 1 264 3 is_stmt 1 view .LVU90
ARM GAS  C:\Users\sapph\AppData\Local\Temp\cchEHrSS.s 			page 12


 373              	.LVL26:
 265:Drivers/STM32H5xx_HAL_Driver/Src/stm32h5xx_ll_usb.c ****   uint32_t wEpRegVal;
 374              		.loc 1 265 3 view .LVU91
 266:Drivers/STM32H5xx_HAL_Driver/Src/stm32h5xx_ll_usb.c **** 
 267:Drivers/STM32H5xx_HAL_Driver/Src/stm32h5xx_ll_usb.c ****   wEpRegVal = PCD_GET_ENDPOINT(USBx, ep->num) & USB_EP_T_MASK;
 375              		.loc 1 267 3 view .LVU92
 376              		.loc 1 267 15 is_stmt 0 view .LVU93
 377 0004 91F800C0 		ldrb	ip, [r1]	@ zero_extendqisi2
 378 0008 50F82C00 		ldr	r0, [r0, ip, lsl #2]
 379              	.LVL27:
 380              		.loc 1 267 13 view .LVU94
 381 000c BA4A     		ldr	r2, .L47
 382 000e 0240     		ands	r2, r2, r0
 383              	.LVL28:
 268:Drivers/STM32H5xx_HAL_Driver/Src/stm32h5xx_ll_usb.c **** 
 269:Drivers/STM32H5xx_HAL_Driver/Src/stm32h5xx_ll_usb.c ****   /* initialize Endpoint */
 270:Drivers/STM32H5xx_HAL_Driver/Src/stm32h5xx_ll_usb.c ****   switch (ep->type)
 384              		.loc 1 270 3 is_stmt 1 view .LVU95
 385              		.loc 1 270 13 is_stmt 0 view .LVU96
 386 0010 C878     		ldrb	r0, [r1, #3]	@ zero_extendqisi2
 387              		.loc 1 270 3 view .LVU97
 388 0012 0328     		cmp	r0, #3
 389 0014 61D8     		bhi	.L44
 390 0016 DFE800F0 		tbb	[pc, r0]
 391              	.L19:
 392 001a 55       		.byte	(.L22-.L19)/2
 393 001b 5C       		.byte	(.L21-.L19)/2
 394 001c 02       		.byte	(.L20-.L19)/2
 395 001d 58       		.byte	(.L18-.L19)/2
 396              		.p2align 1
 397              	.L20:
 398 001e 0020     		movs	r0, #0
 399              	.L17:
 400              	.LVL29:
 271:Drivers/STM32H5xx_HAL_Driver/Src/stm32h5xx_ll_usb.c ****   {
 272:Drivers/STM32H5xx_HAL_Driver/Src/stm32h5xx_ll_usb.c ****     case EP_TYPE_CTRL:
 273:Drivers/STM32H5xx_HAL_Driver/Src/stm32h5xx_ll_usb.c ****       wEpRegVal |= USB_EP_CONTROL;
 274:Drivers/STM32H5xx_HAL_Driver/Src/stm32h5xx_ll_usb.c ****       break;
 275:Drivers/STM32H5xx_HAL_Driver/Src/stm32h5xx_ll_usb.c **** 
 276:Drivers/STM32H5xx_HAL_Driver/Src/stm32h5xx_ll_usb.c ****     case EP_TYPE_BULK:
 277:Drivers/STM32H5xx_HAL_Driver/Src/stm32h5xx_ll_usb.c ****       wEpRegVal |= USB_EP_BULK;
 278:Drivers/STM32H5xx_HAL_Driver/Src/stm32h5xx_ll_usb.c ****       break;
 279:Drivers/STM32H5xx_HAL_Driver/Src/stm32h5xx_ll_usb.c **** 
 280:Drivers/STM32H5xx_HAL_Driver/Src/stm32h5xx_ll_usb.c ****     case EP_TYPE_INTR:
 281:Drivers/STM32H5xx_HAL_Driver/Src/stm32h5xx_ll_usb.c ****       wEpRegVal |= USB_EP_INTERRUPT;
 282:Drivers/STM32H5xx_HAL_Driver/Src/stm32h5xx_ll_usb.c ****       break;
 283:Drivers/STM32H5xx_HAL_Driver/Src/stm32h5xx_ll_usb.c **** 
 284:Drivers/STM32H5xx_HAL_Driver/Src/stm32h5xx_ll_usb.c ****     case EP_TYPE_ISOC:
 285:Drivers/STM32H5xx_HAL_Driver/Src/stm32h5xx_ll_usb.c ****       wEpRegVal |= USB_EP_ISOCHRONOUS;
 286:Drivers/STM32H5xx_HAL_Driver/Src/stm32h5xx_ll_usb.c ****       break;
 287:Drivers/STM32H5xx_HAL_Driver/Src/stm32h5xx_ll_usb.c **** 
 288:Drivers/STM32H5xx_HAL_Driver/Src/stm32h5xx_ll_usb.c ****     default:
 289:Drivers/STM32H5xx_HAL_Driver/Src/stm32h5xx_ll_usb.c ****       ret = HAL_ERROR;
 290:Drivers/STM32H5xx_HAL_Driver/Src/stm32h5xx_ll_usb.c ****       break;
 291:Drivers/STM32H5xx_HAL_Driver/Src/stm32h5xx_ll_usb.c ****   }
 292:Drivers/STM32H5xx_HAL_Driver/Src/stm32h5xx_ll_usb.c **** 
 293:Drivers/STM32H5xx_HAL_Driver/Src/stm32h5xx_ll_usb.c ****   PCD_SET_ENDPOINT(USBx, ep->num, (wEpRegVal | USB_EP_VTRX | USB_EP_VTTX));
ARM GAS  C:\Users\sapph\AppData\Local\Temp\cchEHrSS.s 			page 13


 401              		.loc 1 293 3 is_stmt 1 view .LVU98
 402 0020 48F2800E 		movw	lr, #32896
 403 0024 42EA0E02 		orr	r2, r2, lr
 404              	.LVL30:
 405              		.loc 1 293 3 is_stmt 0 view .LVU99
 406 0028 43F82C20 		str	r2, [r3, ip, lsl #2]
 294:Drivers/STM32H5xx_HAL_Driver/Src/stm32h5xx_ll_usb.c **** 
 295:Drivers/STM32H5xx_HAL_Driver/Src/stm32h5xx_ll_usb.c ****   PCD_SET_EP_ADDRESS(USBx, ep->num, ep->num);
 407              		.loc 1 295 3 is_stmt 1 view .LVU100
 408              	.LBB2:
 409              		.loc 1 295 3 view .LVU101
 410              		.loc 1 295 3 view .LVU102
 411 002c 91F800C0 		ldrb	ip, [r1]	@ zero_extendqisi2
 412 0030 53F82C40 		ldr	r4, [r3, ip, lsl #2]
 413 0034 B14A     		ldr	r2, .L47+4
 414 0036 2240     		ands	r2, r2, r4
 415 0038 4CEA0202 		orr	r2, ip, r2
 416              	.LVL31:
 417              		.loc 1 295 3 view .LVU103
 418 003c 42EA0E02 		orr	r2, r2, lr
 419              	.LVL32:
 420              		.loc 1 295 3 is_stmt 0 view .LVU104
 421 0040 43F82C20 		str	r2, [r3, ip, lsl #2]
 422              	.LBE2:
 423              		.loc 1 295 3 is_stmt 1 view .LVU105
 296:Drivers/STM32H5xx_HAL_Driver/Src/stm32h5xx_ll_usb.c **** 
 297:Drivers/STM32H5xx_HAL_Driver/Src/stm32h5xx_ll_usb.c ****   if (ep->doublebuffer == 0U)
 424              		.loc 1 297 3 view .LVU106
 425              		.loc 1 297 9 is_stmt 0 view .LVU107
 426 0044 0A7B     		ldrb	r2, [r1, #12]	@ zero_extendqisi2
 427              		.loc 1 297 6 view .LVU108
 428 0046 002A     		cmp	r2, #0
 429 0048 40F0D380 		bne	.L23
 298:Drivers/STM32H5xx_HAL_Driver/Src/stm32h5xx_ll_usb.c ****   {
 299:Drivers/STM32H5xx_HAL_Driver/Src/stm32h5xx_ll_usb.c ****     if (ep->is_in != 0U)
 430              		.loc 1 299 5 is_stmt 1 view .LVU109
 431              		.loc 1 299 11 is_stmt 0 view .LVU110
 432 004c 4A78     		ldrb	r2, [r1, #1]	@ zero_extendqisi2
 433              		.loc 1 299 8 view .LVU111
 434 004e 002A     		cmp	r2, #0
 435 0050 51D0     		beq	.L24
 300:Drivers/STM32H5xx_HAL_Driver/Src/stm32h5xx_ll_usb.c ****     {
 301:Drivers/STM32H5xx_HAL_Driver/Src/stm32h5xx_ll_usb.c ****       /*Set the endpoint Transmit buffer address */
 302:Drivers/STM32H5xx_HAL_Driver/Src/stm32h5xx_ll_usb.c ****       PCD_SET_EP_TX_ADDRESS(USBx, ep->num, ep->pmaadress);
 436              		.loc 1 302 7 is_stmt 1 view .LVU112
 437              		.loc 1 302 7 view .LVU113
 438 0052 0A78     		ldrb	r2, [r1]	@ zero_extendqisi2
 439 0054 D200     		lsls	r2, r2, #3
 440 0056 02F18042 		add	r2, r2, #1073741824
 441 005a 02F5B232 		add	r2, r2, #91136
 442 005e 1468     		ldr	r4, [r2]
 443              	.LVL33:
 444              		.loc 1 302 7 is_stmt 0 view .LVU114
 445 0060 6FF30F04 		bfc	r4, #0, #16
 446 0064 1460     		str	r4, [r2]
 447              		.loc 1 302 7 is_stmt 1 view .LVU115
 448 0066 0A78     		ldrb	r2, [r1]	@ zero_extendqisi2
ARM GAS  C:\Users\sapph\AppData\Local\Temp\cchEHrSS.s 			page 14


 449 0068 D200     		lsls	r2, r2, #3
 450 006a 02F18042 		add	r2, r2, #1073741824
 451 006e 02F5B232 		add	r2, r2, #91136
 452 0072 1468     		ldr	r4, [r2]
 453 0074 B1F806C0 		ldrh	ip, [r1, #6]
 454              		.loc 1 302 7 is_stmt 0 view .LVU116
 455 0078 4FEA9C0C 		lsr	ip, ip, #2
 456 007c 44EA8C04 		orr	r4, r4, ip, lsl #2
 457 0080 1460     		str	r4, [r2]
 458              		.loc 1 302 7 is_stmt 1 view .LVU117
 303:Drivers/STM32H5xx_HAL_Driver/Src/stm32h5xx_ll_usb.c ****       PCD_CLEAR_TX_DTOG(USBx, ep->num);
 459              		.loc 1 303 7 view .LVU118
 460              	.LBB3:
 461              		.loc 1 303 7 view .LVU119
 462              		.loc 1 303 7 view .LVU120
 463 0082 0C78     		ldrb	r4, [r1]	@ zero_extendqisi2
 464 0084 53F82420 		ldr	r2, [r3, r4, lsl #2]
 465              	.LVL34:
 466              		.loc 1 303 7 view .LVU121
 467 0088 12F0400F 		tst	r2, #64
 468 008c 09D0     		beq	.L25
 469              		.loc 1 303 7 discriminator 1 view .LVU122
 470              	.LBB4:
 471              		.loc 1 303 7 discriminator 1 view .LVU123
 472              		.loc 1 303 7 discriminator 1 view .LVU124
 473 008e 53F82450 		ldr	r5, [r3, r4, lsl #2]
 474 0092 9A4A     		ldr	r2, .L47+4
 475              	.LVL35:
 476              		.loc 1 303 7 is_stmt 0 discriminator 1 view .LVU125
 477 0094 2A40     		ands	r2, r2, r5
 478              	.LVL36:
 479              		.loc 1 303 7 is_stmt 1 discriminator 1 view .LVU126
 480 0096 42F40042 		orr	r2, r2, #32768
 481              	.LVL37:
 482              		.loc 1 303 7 is_stmt 0 discriminator 1 view .LVU127
 483 009a 42F0C002 		orr	r2, r2, #192
 484 009e 43F82420 		str	r2, [r3, r4, lsl #2]
 485              	.LVL38:
 486              	.L25:
 487              		.loc 1 303 7 discriminator 1 view .LVU128
 488              	.LBE4:
 489              		.loc 1 303 7 is_stmt 1 discriminator 3 view .LVU129
 490              	.LBE3:
 491              		.loc 1 303 7 discriminator 3 view .LVU130
 304:Drivers/STM32H5xx_HAL_Driver/Src/stm32h5xx_ll_usb.c **** 
 305:Drivers/STM32H5xx_HAL_Driver/Src/stm32h5xx_ll_usb.c ****       if (ep->type != EP_TYPE_ISOC)
 492              		.loc 1 305 7 view .LVU131
 493              		.loc 1 305 13 is_stmt 0 view .LVU132
 494 00a2 CA78     		ldrb	r2, [r1, #3]	@ zero_extendqisi2
 495              		.loc 1 305 10 view .LVU133
 496 00a4 012A     		cmp	r2, #1
 497 00a6 1AD0     		beq	.L26
 306:Drivers/STM32H5xx_HAL_Driver/Src/stm32h5xx_ll_usb.c ****       {
 307:Drivers/STM32H5xx_HAL_Driver/Src/stm32h5xx_ll_usb.c ****         /* Configure NAK status for the Endpoint */
 308:Drivers/STM32H5xx_HAL_Driver/Src/stm32h5xx_ll_usb.c ****         PCD_SET_EP_TX_STATUS(USBx, ep->num, USB_EP_TX_NAK);
 498              		.loc 1 308 9 is_stmt 1 view .LVU134
 499              	.LBB5:
ARM GAS  C:\Users\sapph\AppData\Local\Temp\cchEHrSS.s 			page 15


 500              		.loc 1 308 9 view .LVU135
 501              		.loc 1 308 9 view .LVU136
 502 00a8 0978     		ldrb	r1, [r1]	@ zero_extendqisi2
 503              	.LVL39:
 504              		.loc 1 308 9 is_stmt 0 view .LVU137
 505 00aa 53F82140 		ldr	r4, [r3, r1, lsl #2]
 506 00ae 944A     		ldr	r2, .L47+8
 507 00b0 2240     		ands	r2, r2, r4
 508              	.LVL40:
 509              		.loc 1 308 9 is_stmt 1 view .LVU138
 510              		.loc 1 308 9 discriminator 3 view .LVU139
 511              		.loc 1 308 9 discriminator 4 view .LVU140
 512 00b2 82F02002 		eor	r2, r2, #32
 513              	.LVL41:
 514              		.loc 1 308 9 discriminator 6 view .LVU141
 515 00b6 42F40042 		orr	r2, r2, #32768
 516              	.LVL42:
 517              		.loc 1 308 9 is_stmt 0 discriminator 6 view .LVU142
 518 00ba 42F08002 		orr	r2, r2, #128
 519 00be 43F82120 		str	r2, [r3, r1, lsl #2]
 520              	.LBE5:
 521              		.loc 1 308 9 is_stmt 1 discriminator 6 view .LVU143
 522 00c2 0CE1     		b	.L27
 523              	.LVL43:
 524              	.L22:
 273:Drivers/STM32H5xx_HAL_Driver/Src/stm32h5xx_ll_usb.c ****       break;
 525              		.loc 1 273 7 view .LVU144
 273:Drivers/STM32H5xx_HAL_Driver/Src/stm32h5xx_ll_usb.c ****       break;
 526              		.loc 1 273 17 is_stmt 0 view .LVU145
 527 00c4 42F40072 		orr	r2, r2, #512
 528              	.LVL44:
 274:Drivers/STM32H5xx_HAL_Driver/Src/stm32h5xx_ll_usb.c **** 
 529              		.loc 1 274 7 is_stmt 1 view .LVU146
 530 00c8 AAE7     		b	.L17
 531              	.L18:
 281:Drivers/STM32H5xx_HAL_Driver/Src/stm32h5xx_ll_usb.c ****       break;
 532              		.loc 1 281 7 view .LVU147
 281:Drivers/STM32H5xx_HAL_Driver/Src/stm32h5xx_ll_usb.c ****       break;
 533              		.loc 1 281 17 is_stmt 0 view .LVU148
 534 00ca 42F4C062 		orr	r2, r2, #1536
 535              	.LVL45:
 282:Drivers/STM32H5xx_HAL_Driver/Src/stm32h5xx_ll_usb.c **** 
 536              		.loc 1 282 7 is_stmt 1 view .LVU149
 264:Drivers/STM32H5xx_HAL_Driver/Src/stm32h5xx_ll_usb.c ****   uint32_t wEpRegVal;
 537              		.loc 1 264 21 is_stmt 0 view .LVU150
 538 00ce 0020     		movs	r0, #0
 282:Drivers/STM32H5xx_HAL_Driver/Src/stm32h5xx_ll_usb.c **** 
 539              		.loc 1 282 7 view .LVU151
 540 00d0 A6E7     		b	.L17
 541              	.L21:
 285:Drivers/STM32H5xx_HAL_Driver/Src/stm32h5xx_ll_usb.c ****       break;
 542              		.loc 1 285 7 is_stmt 1 view .LVU152
 285:Drivers/STM32H5xx_HAL_Driver/Src/stm32h5xx_ll_usb.c ****       break;
 543              		.loc 1 285 17 is_stmt 0 view .LVU153
 544 00d2 42F48062 		orr	r2, r2, #1024
 545              	.LVL46:
 286:Drivers/STM32H5xx_HAL_Driver/Src/stm32h5xx_ll_usb.c **** 
ARM GAS  C:\Users\sapph\AppData\Local\Temp\cchEHrSS.s 			page 16


 546              		.loc 1 286 7 is_stmt 1 view .LVU154
 264:Drivers/STM32H5xx_HAL_Driver/Src/stm32h5xx_ll_usb.c ****   uint32_t wEpRegVal;
 547              		.loc 1 264 21 is_stmt 0 view .LVU155
 548 00d6 0020     		movs	r0, #0
 286:Drivers/STM32H5xx_HAL_Driver/Src/stm32h5xx_ll_usb.c **** 
 549              		.loc 1 286 7 view .LVU156
 550 00d8 A2E7     		b	.L17
 551              	.L44:
 289:Drivers/STM32H5xx_HAL_Driver/Src/stm32h5xx_ll_usb.c ****       break;
 552              		.loc 1 289 11 view .LVU157
 553 00da 0120     		movs	r0, #1
 554 00dc A0E7     		b	.L17
 555              	.LVL47:
 556              	.L26:
 309:Drivers/STM32H5xx_HAL_Driver/Src/stm32h5xx_ll_usb.c ****       }
 310:Drivers/STM32H5xx_HAL_Driver/Src/stm32h5xx_ll_usb.c ****       else
 311:Drivers/STM32H5xx_HAL_Driver/Src/stm32h5xx_ll_usb.c ****       {
 312:Drivers/STM32H5xx_HAL_Driver/Src/stm32h5xx_ll_usb.c ****         /* Configure TX Endpoint to disabled state */
 313:Drivers/STM32H5xx_HAL_Driver/Src/stm32h5xx_ll_usb.c ****         PCD_SET_EP_TX_STATUS(USBx, ep->num, USB_EP_TX_DIS);
 557              		.loc 1 313 9 is_stmt 1 view .LVU158
 558              	.LBB6:
 559              		.loc 1 313 9 view .LVU159
 560              		.loc 1 313 9 view .LVU160
 561 00de 0978     		ldrb	r1, [r1]	@ zero_extendqisi2
 562              	.LVL48:
 563              		.loc 1 313 9 is_stmt 0 view .LVU161
 564 00e0 53F82140 		ldr	r4, [r3, r1, lsl #2]
 565 00e4 864A     		ldr	r2, .L47+8
 566 00e6 2240     		ands	r2, r2, r4
 567              	.LVL49:
 568              		.loc 1 313 9 is_stmt 1 view .LVU162
 569              		.loc 1 313 9 discriminator 3 view .LVU163
 570              		.loc 1 313 9 discriminator 6 view .LVU164
 571 00e8 42F40042 		orr	r2, r2, #32768
 572              	.LVL50:
 573              		.loc 1 313 9 is_stmt 0 discriminator 6 view .LVU165
 574 00ec 42F08002 		orr	r2, r2, #128
 575 00f0 43F82120 		str	r2, [r3, r1, lsl #2]
 576 00f4 F3E0     		b	.L27
 577              	.LVL51:
 578              	.L24:
 579              		.loc 1 313 9 discriminator 6 view .LVU166
 580              	.LBE6:
 314:Drivers/STM32H5xx_HAL_Driver/Src/stm32h5xx_ll_usb.c ****       }
 315:Drivers/STM32H5xx_HAL_Driver/Src/stm32h5xx_ll_usb.c ****     }
 316:Drivers/STM32H5xx_HAL_Driver/Src/stm32h5xx_ll_usb.c ****     else
 317:Drivers/STM32H5xx_HAL_Driver/Src/stm32h5xx_ll_usb.c ****     {
 318:Drivers/STM32H5xx_HAL_Driver/Src/stm32h5xx_ll_usb.c ****       /* Set the endpoint Receive buffer address */
 319:Drivers/STM32H5xx_HAL_Driver/Src/stm32h5xx_ll_usb.c ****       PCD_SET_EP_RX_ADDRESS(USBx, ep->num, ep->pmaadress);
 581              		.loc 1 319 7 is_stmt 1 view .LVU167
 582              		.loc 1 319 7 view .LVU168
 583 00f6 0A78     		ldrb	r2, [r1]	@ zero_extendqisi2
 584 00f8 D200     		lsls	r2, r2, #3
 585 00fa 02F18042 		add	r2, r2, #1073741824
 586 00fe 02F5B232 		add	r2, r2, #91136
 587 0102 5468     		ldr	r4, [r2, #4]
 588              	.LVL52:
ARM GAS  C:\Users\sapph\AppData\Local\Temp\cchEHrSS.s 			page 17


 589              		.loc 1 319 7 is_stmt 0 view .LVU169
 590 0104 6FF30F04 		bfc	r4, #0, #16
 591 0108 5460     		str	r4, [r2, #4]
 592              		.loc 1 319 7 is_stmt 1 view .LVU170
 593 010a 0A78     		ldrb	r2, [r1]	@ zero_extendqisi2
 594 010c D200     		lsls	r2, r2, #3
 595 010e 02F18042 		add	r2, r2, #1073741824
 596 0112 02F5B232 		add	r2, r2, #91136
 597 0116 5468     		ldr	r4, [r2, #4]
 598 0118 B1F806C0 		ldrh	ip, [r1, #6]
 599              		.loc 1 319 7 is_stmt 0 view .LVU171
 600 011c 4FEA9C0C 		lsr	ip, ip, #2
 601 0120 44EA8C04 		orr	r4, r4, ip, lsl #2
 602 0124 5460     		str	r4, [r2, #4]
 603              		.loc 1 319 7 is_stmt 1 view .LVU172
 320:Drivers/STM32H5xx_HAL_Driver/Src/stm32h5xx_ll_usb.c **** 
 321:Drivers/STM32H5xx_HAL_Driver/Src/stm32h5xx_ll_usb.c ****       /* Set the endpoint Receive buffer counter */
 322:Drivers/STM32H5xx_HAL_Driver/Src/stm32h5xx_ll_usb.c ****       PCD_SET_EP_RX_CNT(USBx, ep->num, ep->maxpacket);
 604              		.loc 1 322 7 view .LVU173
 605              	.LBB7:
 606              		.loc 1 322 7 view .LVU174
 607              		.loc 1 322 7 view .LVU175
 608 0126 0A78     		ldrb	r2, [r1]	@ zero_extendqisi2
 609 0128 D200     		lsls	r2, r2, #3
 610 012a 02F18042 		add	r2, r2, #1073741824
 611 012e 02F5B232 		add	r2, r2, #91136
 612 0132 5468     		ldr	r4, [r2, #4]
 613 0134 24F07C44 		bic	r4, r4, #-67108864
 614 0138 5460     		str	r4, [r2, #4]
 615              		.loc 1 322 7 view .LVU176
 616 013a 0A69     		ldr	r2, [r1, #16]
 617 013c 42BB     		cbnz	r2, .L28
 618              		.loc 1 322 7 discriminator 1 view .LVU177
 619 013e 0A78     		ldrb	r2, [r1]	@ zero_extendqisi2
 620 0140 D200     		lsls	r2, r2, #3
 621 0142 02F18042 		add	r2, r2, #1073741824
 622 0146 02F5B232 		add	r2, r2, #91136
 623 014a 5468     		ldr	r4, [r2, #4]
 624 014c 44F00044 		orr	r4, r4, #-2147483648
 625 0150 5460     		str	r4, [r2, #4]
 626              	.L29:
 627              		.loc 1 322 7 discriminator 13 view .LVU178
 628              	.LBE7:
 629              		.loc 1 322 7 discriminator 13 view .LVU179
 323:Drivers/STM32H5xx_HAL_Driver/Src/stm32h5xx_ll_usb.c ****       PCD_CLEAR_RX_DTOG(USBx, ep->num);
 630              		.loc 1 323 7 view .LVU180
 631              	.LBB8:
 632              		.loc 1 323 7 view .LVU181
 633              		.loc 1 323 7 view .LVU182
 634 0152 0C78     		ldrb	r4, [r1]	@ zero_extendqisi2
 635 0154 53F82420 		ldr	r2, [r3, r4, lsl #2]
 636              	.LVL53:
 637              		.loc 1 323 7 view .LVU183
 638 0158 12F4804F 		tst	r2, #16384
 639 015c 09D0     		beq	.L33
 640              		.loc 1 323 7 discriminator 1 view .LVU184
 641              	.LBB9:
ARM GAS  C:\Users\sapph\AppData\Local\Temp\cchEHrSS.s 			page 18


 642              		.loc 1 323 7 discriminator 1 view .LVU185
 643              		.loc 1 323 7 discriminator 1 view .LVU186
 644 015e 53F82450 		ldr	r5, [r3, r4, lsl #2]
 645 0162 664A     		ldr	r2, .L47+4
 646              	.LVL54:
 647              		.loc 1 323 7 is_stmt 0 discriminator 1 view .LVU187
 648 0164 2A40     		ands	r2, r2, r5
 649              	.LVL55:
 650              		.loc 1 323 7 is_stmt 1 discriminator 1 view .LVU188
 651 0166 42F44042 		orr	r2, r2, #49152
 652              	.LVL56:
 653              		.loc 1 323 7 is_stmt 0 discriminator 1 view .LVU189
 654 016a 42F08002 		orr	r2, r2, #128
 655 016e 43F82420 		str	r2, [r3, r4, lsl #2]
 656              	.LVL57:
 657              	.L33:
 658              		.loc 1 323 7 discriminator 1 view .LVU190
 659              	.LBE9:
 660              		.loc 1 323 7 is_stmt 1 discriminator 3 view .LVU191
 661              	.LBE8:
 662              		.loc 1 323 7 discriminator 3 view .LVU192
 324:Drivers/STM32H5xx_HAL_Driver/Src/stm32h5xx_ll_usb.c **** 
 325:Drivers/STM32H5xx_HAL_Driver/Src/stm32h5xx_ll_usb.c ****       if (ep->num == 0U)
 663              		.loc 1 325 7 view .LVU193
 664              		.loc 1 325 13 is_stmt 0 view .LVU194
 665 0172 0978     		ldrb	r1, [r1]	@ zero_extendqisi2
 666              	.LVL58:
 667              		.loc 1 325 10 view .LVU195
 668 0174 81BB     		cbnz	r1, .L34
 326:Drivers/STM32H5xx_HAL_Driver/Src/stm32h5xx_ll_usb.c ****       {
 327:Drivers/STM32H5xx_HAL_Driver/Src/stm32h5xx_ll_usb.c ****         /* Configure VALID status for EP0 */
 328:Drivers/STM32H5xx_HAL_Driver/Src/stm32h5xx_ll_usb.c ****         PCD_SET_EP_RX_STATUS(USBx, ep->num, USB_EP_RX_VALID);
 669              		.loc 1 328 9 is_stmt 1 view .LVU196
 670              	.LBB10:
 671              		.loc 1 328 9 view .LVU197
 672              		.loc 1 328 9 view .LVU198
 673 0176 53F82140 		ldr	r4, [r3, r1, lsl #2]
 674 017a 624A     		ldr	r2, .L47+12
 675 017c 2240     		ands	r2, r2, r4
 676              	.LVL59:
 677              		.loc 1 328 9 view .LVU199
 678              		.loc 1 328 9 discriminator 1 view .LVU200
 679              		.loc 1 328 9 discriminator 3 view .LVU201
 680              		.loc 1 328 9 discriminator 4 view .LVU202
 681 017e 82F44052 		eor	r2, r2, #12288
 682              	.LVL60:
 683              		.loc 1 328 9 discriminator 6 view .LVU203
 684 0182 42F40042 		orr	r2, r2, #32768
 685              	.LVL61:
 686              		.loc 1 328 9 is_stmt 0 discriminator 6 view .LVU204
 687 0186 42F08002 		orr	r2, r2, #128
 688 018a 43F82120 		str	r2, [r3, r1, lsl #2]
 689              	.LBE10:
 690              		.loc 1 328 9 is_stmt 1 discriminator 6 view .LVU205
 691 018e A6E0     		b	.L27
 692              	.LVL62:
 693              	.L28:
ARM GAS  C:\Users\sapph\AppData\Local\Temp\cchEHrSS.s 			page 19


 694              	.LBB11:
 322:Drivers/STM32H5xx_HAL_Driver/Src/stm32h5xx_ll_usb.c ****       PCD_CLEAR_RX_DTOG(USBx, ep->num);
 695              		.loc 1 322 7 discriminator 2 view .LVU206
 696 0190 3E2A     		cmp	r2, #62
 697 0192 0FD8     		bhi	.L30
 322:Drivers/STM32H5xx_HAL_Driver/Src/stm32h5xx_ll_usb.c ****       PCD_CLEAR_RX_DTOG(USBx, ep->num);
 698              		.loc 1 322 7 discriminator 4 view .LVU207
 322:Drivers/STM32H5xx_HAL_Driver/Src/stm32h5xx_ll_usb.c ****       PCD_CLEAR_RX_DTOG(USBx, ep->num);
 699              		.loc 1 322 7 discriminator 4 view .LVU208
 700 0194 5508     		lsrs	r5, r2, #1
 701              	.LVL63:
 322:Drivers/STM32H5xx_HAL_Driver/Src/stm32h5xx_ll_usb.c ****       PCD_CLEAR_RX_DTOG(USBx, ep->num);
 702              		.loc 1 322 7 discriminator 4 view .LVU209
 703 0196 12F0010F 		tst	r2, #1
 704 019a 00D0     		beq	.L31
 322:Drivers/STM32H5xx_HAL_Driver/Src/stm32h5xx_ll_usb.c ****       PCD_CLEAR_RX_DTOG(USBx, ep->num);
 705              		.loc 1 322 7 discriminator 6 view .LVU210
 706 019c 0135     		adds	r5, r5, #1
 707              	.LVL64:
 708              	.L31:
 322:Drivers/STM32H5xx_HAL_Driver/Src/stm32h5xx_ll_usb.c ****       PCD_CLEAR_RX_DTOG(USBx, ep->num);
 709              		.loc 1 322 7 discriminator 8 view .LVU211
 710 019e 0A78     		ldrb	r2, [r1]	@ zero_extendqisi2
 711 01a0 D200     		lsls	r2, r2, #3
 712 01a2 02F18042 		add	r2, r2, #1073741824
 713 01a6 02F5B232 		add	r2, r2, #91136
 714 01aa 5468     		ldr	r4, [r2, #4]
 715 01ac 44EA8564 		orr	r4, r4, r5, lsl #26
 716 01b0 5460     		str	r4, [r2, #4]
 322:Drivers/STM32H5xx_HAL_Driver/Src/stm32h5xx_ll_usb.c ****       PCD_CLEAR_RX_DTOG(USBx, ep->num);
 717              		.loc 1 322 7 discriminator 8 view .LVU212
 718 01b2 CEE7     		b	.L29
 719              	.LVL65:
 720              	.L30:
 322:Drivers/STM32H5xx_HAL_Driver/Src/stm32h5xx_ll_usb.c ****       PCD_CLEAR_RX_DTOG(USBx, ep->num);
 721              		.loc 1 322 7 discriminator 5 view .LVU213
 322:Drivers/STM32H5xx_HAL_Driver/Src/stm32h5xx_ll_usb.c ****       PCD_CLEAR_RX_DTOG(USBx, ep->num);
 722              		.loc 1 322 7 discriminator 5 view .LVU214
 723 01b4 5509     		lsrs	r5, r2, #5
 724              	.LVL66:
 322:Drivers/STM32H5xx_HAL_Driver/Src/stm32h5xx_ll_usb.c ****       PCD_CLEAR_RX_DTOG(USBx, ep->num);
 725              		.loc 1 322 7 discriminator 5 view .LVU215
 726 01b6 12F01F0F 		tst	r2, #31
 727 01ba 00D1     		bne	.L32
 322:Drivers/STM32H5xx_HAL_Driver/Src/stm32h5xx_ll_usb.c ****       PCD_CLEAR_RX_DTOG(USBx, ep->num);
 728              		.loc 1 322 7 discriminator 10 view .LVU216
 729 01bc 013D     		subs	r5, r5, #1
 730              	.LVL67:
 731              	.L32:
 322:Drivers/STM32H5xx_HAL_Driver/Src/stm32h5xx_ll_usb.c ****       PCD_CLEAR_RX_DTOG(USBx, ep->num);
 732              		.loc 1 322 7 discriminator 12 view .LVU217
 733 01be 0A78     		ldrb	r2, [r1]	@ zero_extendqisi2
 734 01c0 D200     		lsls	r2, r2, #3
 735 01c2 02F18042 		add	r2, r2, #1073741824
 736 01c6 02F5B232 		add	r2, r2, #91136
 737 01ca 5468     		ldr	r4, [r2, #4]
 738 01cc 44EA8564 		orr	r4, r4, r5, lsl #26
ARM GAS  C:\Users\sapph\AppData\Local\Temp\cchEHrSS.s 			page 20


 739 01d0 44F00044 		orr	r4, r4, #-2147483648
 740 01d4 5460     		str	r4, [r2, #4]
 741 01d6 BCE7     		b	.L29
 742              	.LVL68:
 743              	.L34:
 322:Drivers/STM32H5xx_HAL_Driver/Src/stm32h5xx_ll_usb.c ****       PCD_CLEAR_RX_DTOG(USBx, ep->num);
 744              		.loc 1 322 7 is_stmt 0 discriminator 12 view .LVU218
 745              	.LBE11:
 329:Drivers/STM32H5xx_HAL_Driver/Src/stm32h5xx_ll_usb.c ****       }
 330:Drivers/STM32H5xx_HAL_Driver/Src/stm32h5xx_ll_usb.c ****       else
 331:Drivers/STM32H5xx_HAL_Driver/Src/stm32h5xx_ll_usb.c ****       {
 332:Drivers/STM32H5xx_HAL_Driver/Src/stm32h5xx_ll_usb.c ****         /* Configure NAK status for OUT Endpoint */
 333:Drivers/STM32H5xx_HAL_Driver/Src/stm32h5xx_ll_usb.c ****         PCD_SET_EP_RX_STATUS(USBx, ep->num, USB_EP_RX_NAK);
 746              		.loc 1 333 9 is_stmt 1 view .LVU219
 747              	.LBB12:
 748              		.loc 1 333 9 view .LVU220
 749              		.loc 1 333 9 view .LVU221
 750 01d8 53F82140 		ldr	r4, [r3, r1, lsl #2]
 751 01dc 494A     		ldr	r2, .L47+12
 752 01de 2240     		ands	r2, r2, r4
 753              	.LVL69:
 754              		.loc 1 333 9 view .LVU222
 755              		.loc 1 333 9 discriminator 3 view .LVU223
 756              		.loc 1 333 9 discriminator 4 view .LVU224
 757 01e0 82F40052 		eor	r2, r2, #8192
 758              	.LVL70:
 759              		.loc 1 333 9 discriminator 6 view .LVU225
 760 01e4 42F40042 		orr	r2, r2, #32768
 761              	.LVL71:
 762              		.loc 1 333 9 is_stmt 0 discriminator 6 view .LVU226
 763 01e8 42F08002 		orr	r2, r2, #128
 764 01ec 43F82120 		str	r2, [r3, r1, lsl #2]
 765 01f0 75E0     		b	.L27
 766              	.LVL72:
 767              	.L23:
 768              		.loc 1 333 9 discriminator 6 view .LVU227
 769              	.LBE12:
 334:Drivers/STM32H5xx_HAL_Driver/Src/stm32h5xx_ll_usb.c ****       }
 335:Drivers/STM32H5xx_HAL_Driver/Src/stm32h5xx_ll_usb.c ****     }
 336:Drivers/STM32H5xx_HAL_Driver/Src/stm32h5xx_ll_usb.c ****   }
 337:Drivers/STM32H5xx_HAL_Driver/Src/stm32h5xx_ll_usb.c **** #if (USE_USB_DOUBLE_BUFFER == 1U)
 338:Drivers/STM32H5xx_HAL_Driver/Src/stm32h5xx_ll_usb.c ****   /* Double Buffer */
 339:Drivers/STM32H5xx_HAL_Driver/Src/stm32h5xx_ll_usb.c ****   else
 340:Drivers/STM32H5xx_HAL_Driver/Src/stm32h5xx_ll_usb.c ****   {
 341:Drivers/STM32H5xx_HAL_Driver/Src/stm32h5xx_ll_usb.c ****     if (ep->type == EP_TYPE_BULK)
 770              		.loc 1 341 5 is_stmt 1 view .LVU228
 771              		.loc 1 341 11 is_stmt 0 view .LVU229
 772 01f2 CA78     		ldrb	r2, [r1, #3]	@ zero_extendqisi2
 773              		.loc 1 341 8 view .LVU230
 774 01f4 022A     		cmp	r2, #2
 775 01f6 73D0     		beq	.L46
 342:Drivers/STM32H5xx_HAL_Driver/Src/stm32h5xx_ll_usb.c ****     {
 343:Drivers/STM32H5xx_HAL_Driver/Src/stm32h5xx_ll_usb.c ****       /* Set bulk endpoint as double buffered */
 344:Drivers/STM32H5xx_HAL_Driver/Src/stm32h5xx_ll_usb.c ****       PCD_SET_BULK_EP_DBUF(USBx, ep->num);
 345:Drivers/STM32H5xx_HAL_Driver/Src/stm32h5xx_ll_usb.c ****     }
 346:Drivers/STM32H5xx_HAL_Driver/Src/stm32h5xx_ll_usb.c ****     else
 347:Drivers/STM32H5xx_HAL_Driver/Src/stm32h5xx_ll_usb.c ****     {
ARM GAS  C:\Users\sapph\AppData\Local\Temp\cchEHrSS.s 			page 21


 348:Drivers/STM32H5xx_HAL_Driver/Src/stm32h5xx_ll_usb.c ****       /* Set the ISOC endpoint in double buffer mode */
 349:Drivers/STM32H5xx_HAL_Driver/Src/stm32h5xx_ll_usb.c ****       PCD_CLEAR_EP_KIND(USBx, ep->num);
 776              		.loc 1 349 7 is_stmt 1 view .LVU231
 777              	.LBB13:
 778              		.loc 1 349 7 view .LVU232
 779              		.loc 1 349 7 view .LVU233
 780 01f8 0C78     		ldrb	r4, [r1]	@ zero_extendqisi2
 781              	.LVL73:
 782              		.loc 1 349 7 is_stmt 0 view .LVU234
 783 01fa 53F82450 		ldr	r5, [r3, r4, lsl #2]
 784 01fe 424A     		ldr	r2, .L47+16
 785 0200 2A40     		ands	r2, r2, r5
 786              	.LVL74:
 787              		.loc 1 349 7 is_stmt 1 view .LVU235
 788 0202 42F40042 		orr	r2, r2, #32768
 789              	.LVL75:
 790              		.loc 1 349 7 is_stmt 0 view .LVU236
 791 0206 42F08002 		orr	r2, r2, #128
 792 020a 43F82420 		str	r2, [r3, r4, lsl #2]
 793              	.LVL76:
 794              	.L36:
 795              		.loc 1 349 7 view .LVU237
 796              	.LBE13:
 797              		.loc 1 349 7 is_stmt 1 discriminator 1 view .LVU238
 350:Drivers/STM32H5xx_HAL_Driver/Src/stm32h5xx_ll_usb.c ****     }
 351:Drivers/STM32H5xx_HAL_Driver/Src/stm32h5xx_ll_usb.c **** 
 352:Drivers/STM32H5xx_HAL_Driver/Src/stm32h5xx_ll_usb.c ****     /* Set buffer address for double buffered mode */
 353:Drivers/STM32H5xx_HAL_Driver/Src/stm32h5xx_ll_usb.c ****     PCD_SET_EP_DBUF_ADDR(USBx, ep->num, ep->pmaaddr0, ep->pmaaddr1);
 798              		.loc 1 353 5 view .LVU239
 799              		.loc 1 353 5 view .LVU240
 800              		.loc 1 353 5 view .LVU241
 801 020e 0A78     		ldrb	r2, [r1]	@ zero_extendqisi2
 802 0210 D200     		lsls	r2, r2, #3
 803 0212 02F18042 		add	r2, r2, #1073741824
 804 0216 02F5B232 		add	r2, r2, #91136
 805 021a 1468     		ldr	r4, [r2]
 806 021c 6FF30F04 		bfc	r4, #0, #16
 807 0220 1460     		str	r4, [r2]
 808              		.loc 1 353 5 view .LVU242
 809 0222 0A78     		ldrb	r2, [r1]	@ zero_extendqisi2
 810 0224 D200     		lsls	r2, r2, #3
 811 0226 02F18042 		add	r2, r2, #1073741824
 812 022a 02F5B232 		add	r2, r2, #91136
 813 022e 1468     		ldr	r4, [r2]
 814 0230 B1F808C0 		ldrh	ip, [r1, #8]
 815              		.loc 1 353 5 is_stmt 0 view .LVU243
 816 0234 4FEA9C0C 		lsr	ip, ip, #2
 817 0238 44EA8C04 		orr	r4, r4, ip, lsl #2
 818 023c 1460     		str	r4, [r2]
 819              		.loc 1 353 5 is_stmt 1 view .LVU244
 820              		.loc 1 353 5 view .LVU245
 821              		.loc 1 353 5 view .LVU246
 822 023e 0A78     		ldrb	r2, [r1]	@ zero_extendqisi2
 823 0240 D200     		lsls	r2, r2, #3
 824 0242 02F18042 		add	r2, r2, #1073741824
 825 0246 02F5B232 		add	r2, r2, #91136
 826 024a 5468     		ldr	r4, [r2, #4]
ARM GAS  C:\Users\sapph\AppData\Local\Temp\cchEHrSS.s 			page 22


 827 024c 6FF30F04 		bfc	r4, #0, #16
 828 0250 5460     		str	r4, [r2, #4]
 829              		.loc 1 353 5 view .LVU247
 830 0252 0A78     		ldrb	r2, [r1]	@ zero_extendqisi2
 831 0254 D200     		lsls	r2, r2, #3
 832 0256 02F18042 		add	r2, r2, #1073741824
 833 025a 02F5B232 		add	r2, r2, #91136
 834 025e 5468     		ldr	r4, [r2, #4]
 835 0260 B1F80AC0 		ldrh	ip, [r1, #10]
 836 0264 4FEA9C0C 		lsr	ip, ip, #2
 837 0268 44EA8C04 		orr	r4, r4, ip, lsl #2
 838 026c 5460     		str	r4, [r2, #4]
 839              		.loc 1 353 5 view .LVU248
 840              		.loc 1 353 5 view .LVU249
 354:Drivers/STM32H5xx_HAL_Driver/Src/stm32h5xx_ll_usb.c **** 
 355:Drivers/STM32H5xx_HAL_Driver/Src/stm32h5xx_ll_usb.c ****     if (ep->is_in == 0U)
 841              		.loc 1 355 5 view .LVU250
 842              		.loc 1 355 11 is_stmt 0 view .LVU251
 843 026e 4A78     		ldrb	r2, [r1, #1]	@ zero_extendqisi2
 844              		.loc 1 355 8 view .LVU252
 845 0270 002A     		cmp	r2, #0
 846 0272 4BD1     		bne	.L37
 356:Drivers/STM32H5xx_HAL_Driver/Src/stm32h5xx_ll_usb.c ****     {
 357:Drivers/STM32H5xx_HAL_Driver/Src/stm32h5xx_ll_usb.c ****       /* Clear the data toggle bits for the endpoint IN/OUT */
 358:Drivers/STM32H5xx_HAL_Driver/Src/stm32h5xx_ll_usb.c ****       PCD_CLEAR_RX_DTOG(USBx, ep->num);
 847              		.loc 1 358 7 is_stmt 1 view .LVU253
 848              	.LBB14:
 849              		.loc 1 358 7 view .LVU254
 850              		.loc 1 358 7 view .LVU255
 851 0274 0C78     		ldrb	r4, [r1]	@ zero_extendqisi2
 852 0276 53F82420 		ldr	r2, [r3, r4, lsl #2]
 853              	.LVL77:
 854              		.loc 1 358 7 view .LVU256
 855 027a 12F4804F 		tst	r2, #16384
 856 027e 09D0     		beq	.L38
 857              		.loc 1 358 7 discriminator 1 view .LVU257
 858              	.LBB15:
 859              		.loc 1 358 7 discriminator 1 view .LVU258
 860              		.loc 1 358 7 discriminator 1 view .LVU259
 861 0280 53F82450 		ldr	r5, [r3, r4, lsl #2]
 862 0284 1D4A     		ldr	r2, .L47+4
 863              	.LVL78:
 864              		.loc 1 358 7 is_stmt 0 discriminator 1 view .LVU260
 865 0286 2A40     		ands	r2, r2, r5
 866              	.LVL79:
 867              		.loc 1 358 7 is_stmt 1 discriminator 1 view .LVU261
 868 0288 42F44042 		orr	r2, r2, #49152
 869              	.LVL80:
 870              		.loc 1 358 7 is_stmt 0 discriminator 1 view .LVU262
 871 028c 42F08002 		orr	r2, r2, #128
 872 0290 43F82420 		str	r2, [r3, r4, lsl #2]
 873              	.LVL81:
 874              	.L38:
 875              		.loc 1 358 7 discriminator 1 view .LVU263
 876              	.LBE15:
 877              		.loc 1 358 7 is_stmt 1 discriminator 3 view .LVU264
 878              	.LBE14:
ARM GAS  C:\Users\sapph\AppData\Local\Temp\cchEHrSS.s 			page 23


 879              		.loc 1 358 7 discriminator 3 view .LVU265
 359:Drivers/STM32H5xx_HAL_Driver/Src/stm32h5xx_ll_usb.c ****       PCD_CLEAR_TX_DTOG(USBx, ep->num);
 880              		.loc 1 359 7 view .LVU266
 881              	.LBB16:
 882              		.loc 1 359 7 view .LVU267
 883              		.loc 1 359 7 view .LVU268
 884 0294 0C78     		ldrb	r4, [r1]	@ zero_extendqisi2
 885 0296 53F82420 		ldr	r2, [r3, r4, lsl #2]
 886              	.LVL82:
 887              		.loc 1 359 7 view .LVU269
 888 029a 12F0400F 		tst	r2, #64
 889 029e 09D0     		beq	.L39
 890              		.loc 1 359 7 discriminator 1 view .LVU270
 891              	.LBB17:
 892              		.loc 1 359 7 discriminator 1 view .LVU271
 893              		.loc 1 359 7 discriminator 1 view .LVU272
 894 02a0 53F82450 		ldr	r5, [r3, r4, lsl #2]
 895 02a4 154A     		ldr	r2, .L47+4
 896              	.LVL83:
 897              		.loc 1 359 7 is_stmt 0 discriminator 1 view .LVU273
 898 02a6 2A40     		ands	r2, r2, r5
 899              	.LVL84:
 900              		.loc 1 359 7 is_stmt 1 discriminator 1 view .LVU274
 901 02a8 42F40042 		orr	r2, r2, #32768
 902              	.LVL85:
 903              		.loc 1 359 7 is_stmt 0 discriminator 1 view .LVU275
 904 02ac 42F0C002 		orr	r2, r2, #192
 905 02b0 43F82420 		str	r2, [r3, r4, lsl #2]
 906              	.LVL86:
 907              	.L39:
 908              		.loc 1 359 7 discriminator 1 view .LVU276
 909              	.LBE17:
 910              		.loc 1 359 7 is_stmt 1 discriminator 3 view .LVU277
 911              	.LBE16:
 912              		.loc 1 359 7 discriminator 3 view .LVU278
 360:Drivers/STM32H5xx_HAL_Driver/Src/stm32h5xx_ll_usb.c **** 
 361:Drivers/STM32H5xx_HAL_Driver/Src/stm32h5xx_ll_usb.c ****       PCD_SET_EP_RX_STATUS(USBx, ep->num, USB_EP_RX_VALID);
 913              		.loc 1 361 7 view .LVU279
 914              	.LBB18:
 915              		.loc 1 361 7 view .LVU280
 916              		.loc 1 361 7 view .LVU281
 917 02b4 91F800C0 		ldrb	ip, [r1]	@ zero_extendqisi2
 918 02b8 53F82C40 		ldr	r4, [r3, ip, lsl #2]
 919 02bc 114A     		ldr	r2, .L47+12
 920 02be 2240     		ands	r2, r2, r4
 921              	.LVL87:
 922              		.loc 1 361 7 view .LVU282
 923              		.loc 1 361 7 discriminator 1 view .LVU283
 924              		.loc 1 361 7 discriminator 3 view .LVU284
 925              		.loc 1 361 7 discriminator 4 view .LVU285
 926 02c0 82F44052 		eor	r2, r2, #12288
 927              	.LVL88:
 928              		.loc 1 361 7 discriminator 6 view .LVU286
 929 02c4 48F28004 		movw	r4, #32896
 930 02c8 2243     		orrs	r2, r2, r4
 931              	.LVL89:
 932              		.loc 1 361 7 is_stmt 0 discriminator 6 view .LVU287
ARM GAS  C:\Users\sapph\AppData\Local\Temp\cchEHrSS.s 			page 24


 933 02ca 43F82C20 		str	r2, [r3, ip, lsl #2]
 934              	.LBE18:
 935              		.loc 1 361 7 is_stmt 1 discriminator 6 view .LVU288
 362:Drivers/STM32H5xx_HAL_Driver/Src/stm32h5xx_ll_usb.c ****       PCD_SET_EP_TX_STATUS(USBx, ep->num, USB_EP_TX_DIS);
 936              		.loc 1 362 7 view .LVU289
 937              	.LBB19:
 938              		.loc 1 362 7 view .LVU290
 939              		.loc 1 362 7 view .LVU291
 940 02ce 0978     		ldrb	r1, [r1]	@ zero_extendqisi2
 941              	.LVL90:
 942              		.loc 1 362 7 is_stmt 0 view .LVU292
 943 02d0 53F82150 		ldr	r5, [r3, r1, lsl #2]
 944 02d4 0A4A     		ldr	r2, .L47+8
 945 02d6 2A40     		ands	r2, r2, r5
 946              	.LVL91:
 947              		.loc 1 362 7 is_stmt 1 view .LVU293
 948              		.loc 1 362 7 discriminator 3 view .LVU294
 949              		.loc 1 362 7 discriminator 6 view .LVU295
 950 02d8 2243     		orrs	r2, r2, r4
 951              	.LVL92:
 952              		.loc 1 362 7 is_stmt 0 discriminator 6 view .LVU296
 953 02da 43F82120 		str	r2, [r3, r1, lsl #2]
 954              	.LBE19:
 955              		.loc 1 362 7 is_stmt 1 discriminator 6 view .LVU297
 956              	.LVL93:
 957              	.L27:
 363:Drivers/STM32H5xx_HAL_Driver/Src/stm32h5xx_ll_usb.c ****     }
 364:Drivers/STM32H5xx_HAL_Driver/Src/stm32h5xx_ll_usb.c ****     else
 365:Drivers/STM32H5xx_HAL_Driver/Src/stm32h5xx_ll_usb.c ****     {
 366:Drivers/STM32H5xx_HAL_Driver/Src/stm32h5xx_ll_usb.c ****       /* Clear the data toggle bits for the endpoint IN/OUT */
 367:Drivers/STM32H5xx_HAL_Driver/Src/stm32h5xx_ll_usb.c ****       PCD_CLEAR_RX_DTOG(USBx, ep->num);
 368:Drivers/STM32H5xx_HAL_Driver/Src/stm32h5xx_ll_usb.c ****       PCD_CLEAR_TX_DTOG(USBx, ep->num);
 369:Drivers/STM32H5xx_HAL_Driver/Src/stm32h5xx_ll_usb.c **** 
 370:Drivers/STM32H5xx_HAL_Driver/Src/stm32h5xx_ll_usb.c ****       if (ep->type != EP_TYPE_ISOC)
 371:Drivers/STM32H5xx_HAL_Driver/Src/stm32h5xx_ll_usb.c ****       {
 372:Drivers/STM32H5xx_HAL_Driver/Src/stm32h5xx_ll_usb.c ****         /* Configure NAK status for the Endpoint */
 373:Drivers/STM32H5xx_HAL_Driver/Src/stm32h5xx_ll_usb.c ****         PCD_SET_EP_TX_STATUS(USBx, ep->num, USB_EP_TX_NAK);
 374:Drivers/STM32H5xx_HAL_Driver/Src/stm32h5xx_ll_usb.c ****       }
 375:Drivers/STM32H5xx_HAL_Driver/Src/stm32h5xx_ll_usb.c ****       else
 376:Drivers/STM32H5xx_HAL_Driver/Src/stm32h5xx_ll_usb.c ****       {
 377:Drivers/STM32H5xx_HAL_Driver/Src/stm32h5xx_ll_usb.c ****         /* Configure TX Endpoint to disabled state */
 378:Drivers/STM32H5xx_HAL_Driver/Src/stm32h5xx_ll_usb.c ****         PCD_SET_EP_TX_STATUS(USBx, ep->num, USB_EP_TX_DIS);
 379:Drivers/STM32H5xx_HAL_Driver/Src/stm32h5xx_ll_usb.c ****       }
 380:Drivers/STM32H5xx_HAL_Driver/Src/stm32h5xx_ll_usb.c **** 
 381:Drivers/STM32H5xx_HAL_Driver/Src/stm32h5xx_ll_usb.c ****       PCD_SET_EP_RX_STATUS(USBx, ep->num, USB_EP_RX_DIS);
 958              		.loc 1 381 7 discriminator 7 view .LVU298
 382:Drivers/STM32H5xx_HAL_Driver/Src/stm32h5xx_ll_usb.c ****     }
 383:Drivers/STM32H5xx_HAL_Driver/Src/stm32h5xx_ll_usb.c ****   }
 384:Drivers/STM32H5xx_HAL_Driver/Src/stm32h5xx_ll_usb.c **** #endif /* (USE_USB_DOUBLE_BUFFER == 1U) */
 385:Drivers/STM32H5xx_HAL_Driver/Src/stm32h5xx_ll_usb.c **** 
 386:Drivers/STM32H5xx_HAL_Driver/Src/stm32h5xx_ll_usb.c ****   return ret;
 959              		.loc 1 386 3 view .LVU299
 387:Drivers/STM32H5xx_HAL_Driver/Src/stm32h5xx_ll_usb.c **** }
 960              		.loc 1 387 1 is_stmt 0 view .LVU300
 961 02de 30BD     		pop	{r4, r5, pc}
 962              	.LVL94:
 963              	.L46:
ARM GAS  C:\Users\sapph\AppData\Local\Temp\cchEHrSS.s 			page 25


 344:Drivers/STM32H5xx_HAL_Driver/Src/stm32h5xx_ll_usb.c ****     }
 964              		.loc 1 344 7 is_stmt 1 view .LVU301
 965              	.LBB20:
 344:Drivers/STM32H5xx_HAL_Driver/Src/stm32h5xx_ll_usb.c ****     }
 966              		.loc 1 344 7 view .LVU302
 344:Drivers/STM32H5xx_HAL_Driver/Src/stm32h5xx_ll_usb.c ****     }
 967              		.loc 1 344 7 view .LVU303
 968 02e0 0C78     		ldrb	r4, [r1]	@ zero_extendqisi2
 969              	.LVL95:
 344:Drivers/STM32H5xx_HAL_Driver/Src/stm32h5xx_ll_usb.c ****     }
 970              		.loc 1 344 7 is_stmt 0 view .LVU304
 971 02e2 53F82450 		ldr	r5, [r3, r4, lsl #2]
 972 02e6 054A     		ldr	r2, .L47+4
 344:Drivers/STM32H5xx_HAL_Driver/Src/stm32h5xx_ll_usb.c ****     }
 973              		.loc 1 344 7 view .LVU305
 974 02e8 2A40     		ands	r2, r2, r5
 975              	.LVL96:
 344:Drivers/STM32H5xx_HAL_Driver/Src/stm32h5xx_ll_usb.c ****     }
 976              		.loc 1 344 7 is_stmt 1 view .LVU306
 977 02ea 42F40142 		orr	r2, r2, #33024
 978              	.LVL97:
 344:Drivers/STM32H5xx_HAL_Driver/Src/stm32h5xx_ll_usb.c ****     }
 979              		.loc 1 344 7 is_stmt 0 view .LVU307
 980 02ee 42F08002 		orr	r2, r2, #128
 981 02f2 43F82420 		str	r2, [r3, r4, lsl #2]
 982              	.LBE20:
 344:Drivers/STM32H5xx_HAL_Driver/Src/stm32h5xx_ll_usb.c ****     }
 983              		.loc 1 344 7 is_stmt 1 view .LVU308
 984 02f6 8AE7     		b	.L36
 985              	.L48:
 986              		.align	2
 987              	.L47:
 988 02f8 8F89FF07 		.word	134187407
 989 02fc 8F8FFF07 		.word	134188943
 990 0300 BF8FFF07 		.word	134188991
 991 0304 8FBFFF07 		.word	134201231
 992 0308 8F8EFF07 		.word	134188687
 993              	.LVL98:
 994              	.L37:
 367:Drivers/STM32H5xx_HAL_Driver/Src/stm32h5xx_ll_usb.c ****       PCD_CLEAR_TX_DTOG(USBx, ep->num);
 995              		.loc 1 367 7 view .LVU309
 996              	.LBB21:
 367:Drivers/STM32H5xx_HAL_Driver/Src/stm32h5xx_ll_usb.c ****       PCD_CLEAR_TX_DTOG(USBx, ep->num);
 997              		.loc 1 367 7 view .LVU310
 367:Drivers/STM32H5xx_HAL_Driver/Src/stm32h5xx_ll_usb.c ****       PCD_CLEAR_TX_DTOG(USBx, ep->num);
 998              		.loc 1 367 7 view .LVU311
 999 030c 0C78     		ldrb	r4, [r1]	@ zero_extendqisi2
 1000 030e 53F82420 		ldr	r2, [r3, r4, lsl #2]
 1001              	.LVL99:
 367:Drivers/STM32H5xx_HAL_Driver/Src/stm32h5xx_ll_usb.c ****       PCD_CLEAR_TX_DTOG(USBx, ep->num);
 1002              		.loc 1 367 7 view .LVU312
 1003 0312 12F4804F 		tst	r2, #16384
 1004 0316 09D0     		beq	.L40
 367:Drivers/STM32H5xx_HAL_Driver/Src/stm32h5xx_ll_usb.c ****       PCD_CLEAR_TX_DTOG(USBx, ep->num);
 1005              		.loc 1 367 7 discriminator 1 view .LVU313
 1006              	.LBB22:
 367:Drivers/STM32H5xx_HAL_Driver/Src/stm32h5xx_ll_usb.c ****       PCD_CLEAR_TX_DTOG(USBx, ep->num);
ARM GAS  C:\Users\sapph\AppData\Local\Temp\cchEHrSS.s 			page 26


 1007              		.loc 1 367 7 discriminator 1 view .LVU314
 367:Drivers/STM32H5xx_HAL_Driver/Src/stm32h5xx_ll_usb.c ****       PCD_CLEAR_TX_DTOG(USBx, ep->num);
 1008              		.loc 1 367 7 discriminator 1 view .LVU315
 1009 0318 53F82450 		ldr	r5, [r3, r4, lsl #2]
 1010 031c 1F4A     		ldr	r2, .L49
 1011              	.LVL100:
 367:Drivers/STM32H5xx_HAL_Driver/Src/stm32h5xx_ll_usb.c ****       PCD_CLEAR_TX_DTOG(USBx, ep->num);
 1012              		.loc 1 367 7 is_stmt 0 discriminator 1 view .LVU316
 1013 031e 2A40     		ands	r2, r2, r5
 1014              	.LVL101:
 367:Drivers/STM32H5xx_HAL_Driver/Src/stm32h5xx_ll_usb.c ****       PCD_CLEAR_TX_DTOG(USBx, ep->num);
 1015              		.loc 1 367 7 is_stmt 1 discriminator 1 view .LVU317
 1016 0320 42F44042 		orr	r2, r2, #49152
 1017              	.LVL102:
 367:Drivers/STM32H5xx_HAL_Driver/Src/stm32h5xx_ll_usb.c ****       PCD_CLEAR_TX_DTOG(USBx, ep->num);
 1018              		.loc 1 367 7 is_stmt 0 discriminator 1 view .LVU318
 1019 0324 42F08002 		orr	r2, r2, #128
 1020 0328 43F82420 		str	r2, [r3, r4, lsl #2]
 1021              	.LVL103:
 1022              	.L40:
 367:Drivers/STM32H5xx_HAL_Driver/Src/stm32h5xx_ll_usb.c ****       PCD_CLEAR_TX_DTOG(USBx, ep->num);
 1023              		.loc 1 367 7 discriminator 1 view .LVU319
 1024              	.LBE22:
 367:Drivers/STM32H5xx_HAL_Driver/Src/stm32h5xx_ll_usb.c ****       PCD_CLEAR_TX_DTOG(USBx, ep->num);
 1025              		.loc 1 367 7 is_stmt 1 discriminator 3 view .LVU320
 1026              	.LBE21:
 367:Drivers/STM32H5xx_HAL_Driver/Src/stm32h5xx_ll_usb.c ****       PCD_CLEAR_TX_DTOG(USBx, ep->num);
 1027              		.loc 1 367 7 discriminator 3 view .LVU321
 368:Drivers/STM32H5xx_HAL_Driver/Src/stm32h5xx_ll_usb.c **** 
 1028              		.loc 1 368 7 view .LVU322
 1029              	.LBB23:
 368:Drivers/STM32H5xx_HAL_Driver/Src/stm32h5xx_ll_usb.c **** 
 1030              		.loc 1 368 7 view .LVU323
 368:Drivers/STM32H5xx_HAL_Driver/Src/stm32h5xx_ll_usb.c **** 
 1031              		.loc 1 368 7 view .LVU324
 1032 032c 0C78     		ldrb	r4, [r1]	@ zero_extendqisi2
 1033 032e 53F82420 		ldr	r2, [r3, r4, lsl #2]
 1034              	.LVL104:
 368:Drivers/STM32H5xx_HAL_Driver/Src/stm32h5xx_ll_usb.c **** 
 1035              		.loc 1 368 7 view .LVU325
 1036 0332 12F0400F 		tst	r2, #64
 1037 0336 09D0     		beq	.L41
 368:Drivers/STM32H5xx_HAL_Driver/Src/stm32h5xx_ll_usb.c **** 
 1038              		.loc 1 368 7 discriminator 1 view .LVU326
 1039              	.LBB24:
 368:Drivers/STM32H5xx_HAL_Driver/Src/stm32h5xx_ll_usb.c **** 
 1040              		.loc 1 368 7 discriminator 1 view .LVU327
 368:Drivers/STM32H5xx_HAL_Driver/Src/stm32h5xx_ll_usb.c **** 
 1041              		.loc 1 368 7 discriminator 1 view .LVU328
 1042 0338 53F82450 		ldr	r5, [r3, r4, lsl #2]
 1043 033c 174A     		ldr	r2, .L49
 1044              	.LVL105:
 368:Drivers/STM32H5xx_HAL_Driver/Src/stm32h5xx_ll_usb.c **** 
 1045              		.loc 1 368 7 is_stmt 0 discriminator 1 view .LVU329
 1046 033e 2A40     		ands	r2, r2, r5
 1047              	.LVL106:
 368:Drivers/STM32H5xx_HAL_Driver/Src/stm32h5xx_ll_usb.c **** 
ARM GAS  C:\Users\sapph\AppData\Local\Temp\cchEHrSS.s 			page 27


 1048              		.loc 1 368 7 is_stmt 1 discriminator 1 view .LVU330
 1049 0340 42F40042 		orr	r2, r2, #32768
 1050              	.LVL107:
 368:Drivers/STM32H5xx_HAL_Driver/Src/stm32h5xx_ll_usb.c **** 
 1051              		.loc 1 368 7 is_stmt 0 discriminator 1 view .LVU331
 1052 0344 42F0C002 		orr	r2, r2, #192
 1053 0348 43F82420 		str	r2, [r3, r4, lsl #2]
 1054              	.LVL108:
 1055              	.L41:
 368:Drivers/STM32H5xx_HAL_Driver/Src/stm32h5xx_ll_usb.c **** 
 1056              		.loc 1 368 7 discriminator 1 view .LVU332
 1057              	.LBE24:
 368:Drivers/STM32H5xx_HAL_Driver/Src/stm32h5xx_ll_usb.c **** 
 1058              		.loc 1 368 7 is_stmt 1 discriminator 3 view .LVU333
 1059              	.LBE23:
 368:Drivers/STM32H5xx_HAL_Driver/Src/stm32h5xx_ll_usb.c **** 
 1060              		.loc 1 368 7 discriminator 3 view .LVU334
 370:Drivers/STM32H5xx_HAL_Driver/Src/stm32h5xx_ll_usb.c ****       {
 1061              		.loc 1 370 7 view .LVU335
 370:Drivers/STM32H5xx_HAL_Driver/Src/stm32h5xx_ll_usb.c ****       {
 1062              		.loc 1 370 13 is_stmt 0 view .LVU336
 1063 034c CA78     		ldrb	r2, [r1, #3]	@ zero_extendqisi2
 370:Drivers/STM32H5xx_HAL_Driver/Src/stm32h5xx_ll_usb.c ****       {
 1064              		.loc 1 370 10 view .LVU337
 1065 034e 012A     		cmp	r2, #1
 1066 0350 18D0     		beq	.L42
 373:Drivers/STM32H5xx_HAL_Driver/Src/stm32h5xx_ll_usb.c ****       }
 1067              		.loc 1 373 9 is_stmt 1 view .LVU338
 1068              	.LBB25:
 373:Drivers/STM32H5xx_HAL_Driver/Src/stm32h5xx_ll_usb.c ****       }
 1069              		.loc 1 373 9 view .LVU339
 373:Drivers/STM32H5xx_HAL_Driver/Src/stm32h5xx_ll_usb.c ****       }
 1070              		.loc 1 373 9 view .LVU340
 1071 0352 0C78     		ldrb	r4, [r1]	@ zero_extendqisi2
 1072 0354 53F82450 		ldr	r5, [r3, r4, lsl #2]
 1073 0358 114A     		ldr	r2, .L49+4
 1074 035a 2A40     		ands	r2, r2, r5
 1075              	.LVL109:
 373:Drivers/STM32H5xx_HAL_Driver/Src/stm32h5xx_ll_usb.c ****       }
 1076              		.loc 1 373 9 view .LVU341
 373:Drivers/STM32H5xx_HAL_Driver/Src/stm32h5xx_ll_usb.c ****       }
 1077              		.loc 1 373 9 discriminator 3 view .LVU342
 373:Drivers/STM32H5xx_HAL_Driver/Src/stm32h5xx_ll_usb.c ****       }
 1078              		.loc 1 373 9 discriminator 4 view .LVU343
 1079 035c 82F02002 		eor	r2, r2, #32
 1080              	.LVL110:
 373:Drivers/STM32H5xx_HAL_Driver/Src/stm32h5xx_ll_usb.c ****       }
 1081              		.loc 1 373 9 discriminator 6 view .LVU344
 1082 0360 42F40042 		orr	r2, r2, #32768
 1083              	.LVL111:
 373:Drivers/STM32H5xx_HAL_Driver/Src/stm32h5xx_ll_usb.c ****       }
 1084              		.loc 1 373 9 is_stmt 0 discriminator 6 view .LVU345
 1085 0364 42F08002 		orr	r2, r2, #128
 1086 0368 43F82420 		str	r2, [r3, r4, lsl #2]
 1087              	.LBE25:
 373:Drivers/STM32H5xx_HAL_Driver/Src/stm32h5xx_ll_usb.c ****       }
 1088              		.loc 1 373 9 is_stmt 1 discriminator 6 view .LVU346
ARM GAS  C:\Users\sapph\AppData\Local\Temp\cchEHrSS.s 			page 28


 1089              	.LVL112:
 1090              	.L43:
 378:Drivers/STM32H5xx_HAL_Driver/Src/stm32h5xx_ll_usb.c ****       }
 1091              		.loc 1 378 9 discriminator 7 view .LVU347
 381:Drivers/STM32H5xx_HAL_Driver/Src/stm32h5xx_ll_usb.c ****     }
 1092              		.loc 1 381 7 view .LVU348
 1093              	.LBB26:
 381:Drivers/STM32H5xx_HAL_Driver/Src/stm32h5xx_ll_usb.c ****     }
 1094              		.loc 1 381 7 view .LVU349
 381:Drivers/STM32H5xx_HAL_Driver/Src/stm32h5xx_ll_usb.c ****     }
 1095              		.loc 1 381 7 view .LVU350
 1096 036c 0978     		ldrb	r1, [r1]	@ zero_extendqisi2
 1097              	.LVL113:
 381:Drivers/STM32H5xx_HAL_Driver/Src/stm32h5xx_ll_usb.c ****     }
 1098              		.loc 1 381 7 is_stmt 0 view .LVU351
 1099 036e 53F82140 		ldr	r4, [r3, r1, lsl #2]
 1100 0372 0C4A     		ldr	r2, .L49+8
 1101 0374 2240     		ands	r2, r2, r4
 1102              	.LVL114:
 381:Drivers/STM32H5xx_HAL_Driver/Src/stm32h5xx_ll_usb.c ****     }
 1103              		.loc 1 381 7 is_stmt 1 view .LVU352
 381:Drivers/STM32H5xx_HAL_Driver/Src/stm32h5xx_ll_usb.c ****     }
 1104              		.loc 1 381 7 discriminator 3 view .LVU353
 381:Drivers/STM32H5xx_HAL_Driver/Src/stm32h5xx_ll_usb.c ****     }
 1105              		.loc 1 381 7 discriminator 6 view .LVU354
 1106 0376 42F40042 		orr	r2, r2, #32768
 1107              	.LVL115:
 381:Drivers/STM32H5xx_HAL_Driver/Src/stm32h5xx_ll_usb.c ****     }
 1108              		.loc 1 381 7 is_stmt 0 discriminator 6 view .LVU355
 1109 037a 42F08002 		orr	r2, r2, #128
 1110 037e 43F82120 		str	r2, [r3, r1, lsl #2]
 1111 0382 ACE7     		b	.L27
 1112              	.LVL116:
 1113              	.L42:
 381:Drivers/STM32H5xx_HAL_Driver/Src/stm32h5xx_ll_usb.c ****     }
 1114              		.loc 1 381 7 discriminator 6 view .LVU356
 1115              	.LBE26:
 378:Drivers/STM32H5xx_HAL_Driver/Src/stm32h5xx_ll_usb.c ****       }
 1116              		.loc 1 378 9 is_stmt 1 view .LVU357
 1117              	.LBB27:
 378:Drivers/STM32H5xx_HAL_Driver/Src/stm32h5xx_ll_usb.c ****       }
 1118              		.loc 1 378 9 view .LVU358
 378:Drivers/STM32H5xx_HAL_Driver/Src/stm32h5xx_ll_usb.c ****       }
 1119              		.loc 1 378 9 view .LVU359
 1120 0384 0C78     		ldrb	r4, [r1]	@ zero_extendqisi2
 1121 0386 53F82450 		ldr	r5, [r3, r4, lsl #2]
 1122 038a 054A     		ldr	r2, .L49+4
 1123 038c 2A40     		ands	r2, r2, r5
 1124              	.LVL117:
 378:Drivers/STM32H5xx_HAL_Driver/Src/stm32h5xx_ll_usb.c ****       }
 1125              		.loc 1 378 9 view .LVU360
 378:Drivers/STM32H5xx_HAL_Driver/Src/stm32h5xx_ll_usb.c ****       }
 1126              		.loc 1 378 9 discriminator 3 view .LVU361
 378:Drivers/STM32H5xx_HAL_Driver/Src/stm32h5xx_ll_usb.c ****       }
 1127              		.loc 1 378 9 discriminator 6 view .LVU362
 1128 038e 42F40042 		orr	r2, r2, #32768
 1129              	.LVL118:
ARM GAS  C:\Users\sapph\AppData\Local\Temp\cchEHrSS.s 			page 29


 378:Drivers/STM32H5xx_HAL_Driver/Src/stm32h5xx_ll_usb.c ****       }
 1130              		.loc 1 378 9 is_stmt 0 discriminator 6 view .LVU363
 1131 0392 42F08002 		orr	r2, r2, #128
 1132 0396 43F82420 		str	r2, [r3, r4, lsl #2]
 1133 039a E7E7     		b	.L43
 1134              	.L50:
 1135              		.align	2
 1136              	.L49:
 1137 039c 8F8FFF07 		.word	134188943
 1138 03a0 BF8FFF07 		.word	134188991
 1139 03a4 8FBFFF07 		.word	134201231
 1140              	.LBE27:
 1141              		.cfi_endproc
 1142              	.LFE168:
 1144              		.section	.text.USB_DeactivateEndpoint,"ax",%progbits
 1145              		.align	1
 1146              		.global	USB_DeactivateEndpoint
 1147              		.syntax unified
 1148              		.thumb
 1149              		.thumb_func
 1151              	USB_DeactivateEndpoint:
 1152              	.LVL119:
 1153              	.LFB169:
 388:Drivers/STM32H5xx_HAL_Driver/Src/stm32h5xx_ll_usb.c **** 
 389:Drivers/STM32H5xx_HAL_Driver/Src/stm32h5xx_ll_usb.c **** /**
 390:Drivers/STM32H5xx_HAL_Driver/Src/stm32h5xx_ll_usb.c ****   * @brief  De-activate and de-initialize an endpoint
 391:Drivers/STM32H5xx_HAL_Driver/Src/stm32h5xx_ll_usb.c ****   * @param  USBx Selected device
 392:Drivers/STM32H5xx_HAL_Driver/Src/stm32h5xx_ll_usb.c ****   * @param  ep pointer to endpoint structure
 393:Drivers/STM32H5xx_HAL_Driver/Src/stm32h5xx_ll_usb.c ****   * @retval HAL status
 394:Drivers/STM32H5xx_HAL_Driver/Src/stm32h5xx_ll_usb.c ****   */
 395:Drivers/STM32H5xx_HAL_Driver/Src/stm32h5xx_ll_usb.c **** HAL_StatusTypeDef USB_DeactivateEndpoint(USB_DRD_TypeDef *USBx, USB_DRD_EPTypeDef *ep)
 396:Drivers/STM32H5xx_HAL_Driver/Src/stm32h5xx_ll_usb.c **** {
 1154              		.loc 1 396 1 is_stmt 1 view -0
 1155              		.cfi_startproc
 1156              		@ args = 0, pretend = 0, frame = 0
 1157              		@ frame_needed = 0, uses_anonymous_args = 0
 1158              		@ link register save eliminated.
 1159              		.loc 1 396 1 is_stmt 0 view .LVU365
 1160 0000 10B4     		push	{r4}
 1161              		.cfi_def_cfa_offset 4
 1162              		.cfi_offset 4, -4
 397:Drivers/STM32H5xx_HAL_Driver/Src/stm32h5xx_ll_usb.c ****   if (ep->doublebuffer == 0U)
 1163              		.loc 1 397 3 is_stmt 1 view .LVU366
 1164              		.loc 1 397 9 is_stmt 0 view .LVU367
 1165 0002 0B7B     		ldrb	r3, [r1, #12]	@ zero_extendqisi2
 1166              		.loc 1 397 6 view .LVU368
 1167 0004 002B     		cmp	r3, #0
 1168 0006 3CD1     		bne	.L52
 398:Drivers/STM32H5xx_HAL_Driver/Src/stm32h5xx_ll_usb.c ****   {
 399:Drivers/STM32H5xx_HAL_Driver/Src/stm32h5xx_ll_usb.c ****     if (ep->is_in != 0U)
 1169              		.loc 1 399 5 is_stmt 1 view .LVU369
 1170              		.loc 1 399 11 is_stmt 0 view .LVU370
 1171 0008 4B78     		ldrb	r3, [r1, #1]	@ zero_extendqisi2
 1172              		.loc 1 399 8 view .LVU371
 1173 000a F3B1     		cbz	r3, .L53
 400:Drivers/STM32H5xx_HAL_Driver/Src/stm32h5xx_ll_usb.c ****     {
 401:Drivers/STM32H5xx_HAL_Driver/Src/stm32h5xx_ll_usb.c ****       PCD_CLEAR_TX_DTOG(USBx, ep->num);
ARM GAS  C:\Users\sapph\AppData\Local\Temp\cchEHrSS.s 			page 30


 1174              		.loc 1 401 7 is_stmt 1 view .LVU372
 1175              	.LBB28:
 1176              		.loc 1 401 7 view .LVU373
 1177              		.loc 1 401 7 view .LVU374
 1178 000c 0A78     		ldrb	r2, [r1]	@ zero_extendqisi2
 1179 000e 50F82230 		ldr	r3, [r0, r2, lsl #2]
 1180              	.LVL120:
 1181              		.loc 1 401 7 view .LVU375
 1182 0012 13F0400F 		tst	r3, #64
 1183 0016 09D0     		beq	.L54
 1184              		.loc 1 401 7 discriminator 1 view .LVU376
 1185              	.LBB29:
 1186              		.loc 1 401 7 discriminator 1 view .LVU377
 1187              		.loc 1 401 7 discriminator 1 view .LVU378
 1188 0018 50F82240 		ldr	r4, [r0, r2, lsl #2]
 1189 001c 5A4B     		ldr	r3, .L63
 1190              	.LVL121:
 1191              		.loc 1 401 7 is_stmt 0 discriminator 1 view .LVU379
 1192 001e 2340     		ands	r3, r3, r4
 1193              	.LVL122:
 1194              		.loc 1 401 7 is_stmt 1 discriminator 1 view .LVU380
 1195 0020 43F40043 		orr	r3, r3, #32768
 1196              	.LVL123:
 1197              		.loc 1 401 7 is_stmt 0 discriminator 1 view .LVU381
 1198 0024 43F0C003 		orr	r3, r3, #192
 1199 0028 40F82230 		str	r3, [r0, r2, lsl #2]
 1200              	.LVL124:
 1201              	.L54:
 1202              		.loc 1 401 7 discriminator 1 view .LVU382
 1203              	.LBE29:
 1204              		.loc 1 401 7 is_stmt 1 discriminator 3 view .LVU383
 1205              	.LBE28:
 1206              		.loc 1 401 7 discriminator 3 view .LVU384
 402:Drivers/STM32H5xx_HAL_Driver/Src/stm32h5xx_ll_usb.c **** 
 403:Drivers/STM32H5xx_HAL_Driver/Src/stm32h5xx_ll_usb.c ****       /* Configure DISABLE status for the Endpoint */
 404:Drivers/STM32H5xx_HAL_Driver/Src/stm32h5xx_ll_usb.c ****       PCD_SET_EP_TX_STATUS(USBx, ep->num, USB_EP_TX_DIS);
 1207              		.loc 1 404 7 view .LVU385
 1208              	.LBB30:
 1209              		.loc 1 404 7 view .LVU386
 1210              		.loc 1 404 7 view .LVU387
 1211 002c 0A78     		ldrb	r2, [r1]	@ zero_extendqisi2
 1212 002e 50F82210 		ldr	r1, [r0, r2, lsl #2]
 1213              	.LVL125:
 1214              		.loc 1 404 7 is_stmt 0 view .LVU388
 1215 0032 564B     		ldr	r3, .L63+4
 1216 0034 0B40     		ands	r3, r3, r1
 1217              	.LVL126:
 1218              		.loc 1 404 7 is_stmt 1 view .LVU389
 1219              		.loc 1 404 7 discriminator 3 view .LVU390
 1220              		.loc 1 404 7 discriminator 6 view .LVU391
 1221 0036 43F40043 		orr	r3, r3, #32768
 1222              	.LVL127:
 1223              		.loc 1 404 7 is_stmt 0 discriminator 6 view .LVU392
 1224 003a 43F08003 		orr	r3, r3, #128
 1225 003e 40F82230 		str	r3, [r0, r2, lsl #2]
 1226              	.LBE30:
 1227              		.loc 1 404 7 is_stmt 1 discriminator 6 view .LVU393
ARM GAS  C:\Users\sapph\AppData\Local\Temp\cchEHrSS.s 			page 31


 1228              	.LVL128:
 1229              	.L55:
 405:Drivers/STM32H5xx_HAL_Driver/Src/stm32h5xx_ll_usb.c ****     }
 406:Drivers/STM32H5xx_HAL_Driver/Src/stm32h5xx_ll_usb.c **** 
 407:Drivers/STM32H5xx_HAL_Driver/Src/stm32h5xx_ll_usb.c ****     else
 408:Drivers/STM32H5xx_HAL_Driver/Src/stm32h5xx_ll_usb.c ****     {
 409:Drivers/STM32H5xx_HAL_Driver/Src/stm32h5xx_ll_usb.c ****       PCD_CLEAR_RX_DTOG(USBx, ep->num);
 410:Drivers/STM32H5xx_HAL_Driver/Src/stm32h5xx_ll_usb.c **** 
 411:Drivers/STM32H5xx_HAL_Driver/Src/stm32h5xx_ll_usb.c ****       /* Configure DISABLE status for the Endpoint */
 412:Drivers/STM32H5xx_HAL_Driver/Src/stm32h5xx_ll_usb.c ****       PCD_SET_EP_RX_STATUS(USBx, ep->num, USB_EP_RX_DIS);
 413:Drivers/STM32H5xx_HAL_Driver/Src/stm32h5xx_ll_usb.c ****     }
 414:Drivers/STM32H5xx_HAL_Driver/Src/stm32h5xx_ll_usb.c ****   }
 415:Drivers/STM32H5xx_HAL_Driver/Src/stm32h5xx_ll_usb.c **** #if (USE_USB_DOUBLE_BUFFER == 1U)
 416:Drivers/STM32H5xx_HAL_Driver/Src/stm32h5xx_ll_usb.c ****   /* Double Buffer */
 417:Drivers/STM32H5xx_HAL_Driver/Src/stm32h5xx_ll_usb.c ****   else
 418:Drivers/STM32H5xx_HAL_Driver/Src/stm32h5xx_ll_usb.c ****   {
 419:Drivers/STM32H5xx_HAL_Driver/Src/stm32h5xx_ll_usb.c ****     if (ep->is_in == 0U)
 420:Drivers/STM32H5xx_HAL_Driver/Src/stm32h5xx_ll_usb.c ****     {
 421:Drivers/STM32H5xx_HAL_Driver/Src/stm32h5xx_ll_usb.c ****       /* Clear the data toggle bits for the endpoint IN/OUT*/
 422:Drivers/STM32H5xx_HAL_Driver/Src/stm32h5xx_ll_usb.c ****       PCD_CLEAR_RX_DTOG(USBx, ep->num);
 423:Drivers/STM32H5xx_HAL_Driver/Src/stm32h5xx_ll_usb.c ****       PCD_CLEAR_TX_DTOG(USBx, ep->num);
 424:Drivers/STM32H5xx_HAL_Driver/Src/stm32h5xx_ll_usb.c **** 
 425:Drivers/STM32H5xx_HAL_Driver/Src/stm32h5xx_ll_usb.c ****       /* Reset value of the data toggle bits for the endpoint out*/
 426:Drivers/STM32H5xx_HAL_Driver/Src/stm32h5xx_ll_usb.c ****       PCD_TX_DTOG(USBx, ep->num);
 427:Drivers/STM32H5xx_HAL_Driver/Src/stm32h5xx_ll_usb.c **** 
 428:Drivers/STM32H5xx_HAL_Driver/Src/stm32h5xx_ll_usb.c ****       PCD_SET_EP_RX_STATUS(USBx, ep->num, USB_EP_RX_DIS);
 429:Drivers/STM32H5xx_HAL_Driver/Src/stm32h5xx_ll_usb.c ****       PCD_SET_EP_TX_STATUS(USBx, ep->num, USB_EP_TX_DIS);
 430:Drivers/STM32H5xx_HAL_Driver/Src/stm32h5xx_ll_usb.c ****     }
 431:Drivers/STM32H5xx_HAL_Driver/Src/stm32h5xx_ll_usb.c ****     else
 432:Drivers/STM32H5xx_HAL_Driver/Src/stm32h5xx_ll_usb.c ****     {
 433:Drivers/STM32H5xx_HAL_Driver/Src/stm32h5xx_ll_usb.c ****       /* Clear the data toggle bits for the endpoint IN/OUT*/
 434:Drivers/STM32H5xx_HAL_Driver/Src/stm32h5xx_ll_usb.c ****       PCD_CLEAR_RX_DTOG(USBx, ep->num);
 435:Drivers/STM32H5xx_HAL_Driver/Src/stm32h5xx_ll_usb.c ****       PCD_CLEAR_TX_DTOG(USBx, ep->num);
 436:Drivers/STM32H5xx_HAL_Driver/Src/stm32h5xx_ll_usb.c ****       PCD_RX_DTOG(USBx, ep->num);
 437:Drivers/STM32H5xx_HAL_Driver/Src/stm32h5xx_ll_usb.c **** 
 438:Drivers/STM32H5xx_HAL_Driver/Src/stm32h5xx_ll_usb.c ****       /* Configure DISABLE status for the Endpoint*/
 439:Drivers/STM32H5xx_HAL_Driver/Src/stm32h5xx_ll_usb.c ****       PCD_SET_EP_TX_STATUS(USBx, ep->num, USB_EP_TX_DIS);
 440:Drivers/STM32H5xx_HAL_Driver/Src/stm32h5xx_ll_usb.c ****       PCD_SET_EP_RX_STATUS(USBx, ep->num, USB_EP_RX_DIS);
 1230              		.loc 1 440 7 discriminator 7 view .LVU394
 441:Drivers/STM32H5xx_HAL_Driver/Src/stm32h5xx_ll_usb.c ****     }
 442:Drivers/STM32H5xx_HAL_Driver/Src/stm32h5xx_ll_usb.c ****   }
 443:Drivers/STM32H5xx_HAL_Driver/Src/stm32h5xx_ll_usb.c **** #endif /* (USE_USB_DOUBLE_BUFFER == 1U) */
 444:Drivers/STM32H5xx_HAL_Driver/Src/stm32h5xx_ll_usb.c **** 
 445:Drivers/STM32H5xx_HAL_Driver/Src/stm32h5xx_ll_usb.c ****   return HAL_OK;
 1231              		.loc 1 445 3 view .LVU395
 446:Drivers/STM32H5xx_HAL_Driver/Src/stm32h5xx_ll_usb.c **** }
 1232              		.loc 1 446 1 is_stmt 0 view .LVU396
 1233 0042 0020     		movs	r0, #0
 1234              	.LVL129:
 1235              		.loc 1 446 1 view .LVU397
 1236 0044 5DF8044B 		ldr	r4, [sp], #4
 1237              		.cfi_remember_state
 1238              		.cfi_restore 4
 1239              		.cfi_def_cfa_offset 0
 1240 0048 7047     		bx	lr
 1241              	.LVL130:
 1242              	.L53:
ARM GAS  C:\Users\sapph\AppData\Local\Temp\cchEHrSS.s 			page 32


 1243              		.cfi_restore_state
 409:Drivers/STM32H5xx_HAL_Driver/Src/stm32h5xx_ll_usb.c **** 
 1244              		.loc 1 409 7 is_stmt 1 view .LVU398
 1245              	.LBB31:
 409:Drivers/STM32H5xx_HAL_Driver/Src/stm32h5xx_ll_usb.c **** 
 1246              		.loc 1 409 7 view .LVU399
 409:Drivers/STM32H5xx_HAL_Driver/Src/stm32h5xx_ll_usb.c **** 
 1247              		.loc 1 409 7 view .LVU400
 1248 004a 0A78     		ldrb	r2, [r1]	@ zero_extendqisi2
 1249 004c 50F82230 		ldr	r3, [r0, r2, lsl #2]
 1250              	.LVL131:
 409:Drivers/STM32H5xx_HAL_Driver/Src/stm32h5xx_ll_usb.c **** 
 1251              		.loc 1 409 7 view .LVU401
 1252 0050 13F4804F 		tst	r3, #16384
 1253 0054 09D0     		beq	.L56
 409:Drivers/STM32H5xx_HAL_Driver/Src/stm32h5xx_ll_usb.c **** 
 1254              		.loc 1 409 7 discriminator 1 view .LVU402
 1255              	.LBB32:
 409:Drivers/STM32H5xx_HAL_Driver/Src/stm32h5xx_ll_usb.c **** 
 1256              		.loc 1 409 7 discriminator 1 view .LVU403
 409:Drivers/STM32H5xx_HAL_Driver/Src/stm32h5xx_ll_usb.c **** 
 1257              		.loc 1 409 7 discriminator 1 view .LVU404
 1258 0056 50F82240 		ldr	r4, [r0, r2, lsl #2]
 1259 005a 4B4B     		ldr	r3, .L63
 1260              	.LVL132:
 409:Drivers/STM32H5xx_HAL_Driver/Src/stm32h5xx_ll_usb.c **** 
 1261              		.loc 1 409 7 is_stmt 0 discriminator 1 view .LVU405
 1262 005c 2340     		ands	r3, r3, r4
 1263              	.LVL133:
 409:Drivers/STM32H5xx_HAL_Driver/Src/stm32h5xx_ll_usb.c **** 
 1264              		.loc 1 409 7 is_stmt 1 discriminator 1 view .LVU406
 1265 005e 43F44043 		orr	r3, r3, #49152
 1266              	.LVL134:
 409:Drivers/STM32H5xx_HAL_Driver/Src/stm32h5xx_ll_usb.c **** 
 1267              		.loc 1 409 7 is_stmt 0 discriminator 1 view .LVU407
 1268 0062 43F08003 		orr	r3, r3, #128
 1269 0066 40F82230 		str	r3, [r0, r2, lsl #2]
 1270              	.LVL135:
 1271              	.L56:
 409:Drivers/STM32H5xx_HAL_Driver/Src/stm32h5xx_ll_usb.c **** 
 1272              		.loc 1 409 7 discriminator 1 view .LVU408
 1273              	.LBE32:
 409:Drivers/STM32H5xx_HAL_Driver/Src/stm32h5xx_ll_usb.c **** 
 1274              		.loc 1 409 7 is_stmt 1 discriminator 3 view .LVU409
 1275              	.LBE31:
 409:Drivers/STM32H5xx_HAL_Driver/Src/stm32h5xx_ll_usb.c **** 
 1276              		.loc 1 409 7 discriminator 3 view .LVU410
 412:Drivers/STM32H5xx_HAL_Driver/Src/stm32h5xx_ll_usb.c ****     }
 1277              		.loc 1 412 7 view .LVU411
 1278              	.LBB33:
 412:Drivers/STM32H5xx_HAL_Driver/Src/stm32h5xx_ll_usb.c ****     }
 1279              		.loc 1 412 7 view .LVU412
 412:Drivers/STM32H5xx_HAL_Driver/Src/stm32h5xx_ll_usb.c ****     }
 1280              		.loc 1 412 7 view .LVU413
 1281 006a 0A78     		ldrb	r2, [r1]	@ zero_extendqisi2
 1282 006c 50F82210 		ldr	r1, [r0, r2, lsl #2]
 1283              	.LVL136:
ARM GAS  C:\Users\sapph\AppData\Local\Temp\cchEHrSS.s 			page 33


 412:Drivers/STM32H5xx_HAL_Driver/Src/stm32h5xx_ll_usb.c ****     }
 1284              		.loc 1 412 7 is_stmt 0 view .LVU414
 1285 0070 474B     		ldr	r3, .L63+8
 1286 0072 0B40     		ands	r3, r3, r1
 1287              	.LVL137:
 412:Drivers/STM32H5xx_HAL_Driver/Src/stm32h5xx_ll_usb.c ****     }
 1288              		.loc 1 412 7 is_stmt 1 view .LVU415
 412:Drivers/STM32H5xx_HAL_Driver/Src/stm32h5xx_ll_usb.c ****     }
 1289              		.loc 1 412 7 discriminator 3 view .LVU416
 412:Drivers/STM32H5xx_HAL_Driver/Src/stm32h5xx_ll_usb.c ****     }
 1290              		.loc 1 412 7 discriminator 6 view .LVU417
 1291 0074 43F40043 		orr	r3, r3, #32768
 1292              	.LVL138:
 412:Drivers/STM32H5xx_HAL_Driver/Src/stm32h5xx_ll_usb.c ****     }
 1293              		.loc 1 412 7 is_stmt 0 discriminator 6 view .LVU418
 1294 0078 43F08003 		orr	r3, r3, #128
 1295 007c 40F82230 		str	r3, [r0, r2, lsl #2]
 1296 0080 DFE7     		b	.L55
 1297              	.LVL139:
 1298              	.L52:
 412:Drivers/STM32H5xx_HAL_Driver/Src/stm32h5xx_ll_usb.c ****     }
 1299              		.loc 1 412 7 discriminator 6 view .LVU419
 1300              	.LBE33:
 419:Drivers/STM32H5xx_HAL_Driver/Src/stm32h5xx_ll_usb.c ****     {
 1301              		.loc 1 419 5 is_stmt 1 view .LVU420
 419:Drivers/STM32H5xx_HAL_Driver/Src/stm32h5xx_ll_usb.c ****     {
 1302              		.loc 1 419 11 is_stmt 0 view .LVU421
 1303 0082 4B78     		ldrb	r3, [r1, #1]	@ zero_extendqisi2
 419:Drivers/STM32H5xx_HAL_Driver/Src/stm32h5xx_ll_usb.c ****     {
 1304              		.loc 1 419 8 view .LVU422
 1305 0084 002B     		cmp	r3, #0
 1306 0086 3FD1     		bne	.L57
 422:Drivers/STM32H5xx_HAL_Driver/Src/stm32h5xx_ll_usb.c ****       PCD_CLEAR_TX_DTOG(USBx, ep->num);
 1307              		.loc 1 422 7 is_stmt 1 view .LVU423
 1308              	.LBB34:
 422:Drivers/STM32H5xx_HAL_Driver/Src/stm32h5xx_ll_usb.c ****       PCD_CLEAR_TX_DTOG(USBx, ep->num);
 1309              		.loc 1 422 7 view .LVU424
 422:Drivers/STM32H5xx_HAL_Driver/Src/stm32h5xx_ll_usb.c ****       PCD_CLEAR_TX_DTOG(USBx, ep->num);
 1310              		.loc 1 422 7 view .LVU425
 1311 0088 0A78     		ldrb	r2, [r1]	@ zero_extendqisi2
 1312 008a 50F82230 		ldr	r3, [r0, r2, lsl #2]
 1313              	.LVL140:
 422:Drivers/STM32H5xx_HAL_Driver/Src/stm32h5xx_ll_usb.c ****       PCD_CLEAR_TX_DTOG(USBx, ep->num);
 1314              		.loc 1 422 7 view .LVU426
 1315 008e 13F4804F 		tst	r3, #16384
 1316 0092 09D0     		beq	.L58
 422:Drivers/STM32H5xx_HAL_Driver/Src/stm32h5xx_ll_usb.c ****       PCD_CLEAR_TX_DTOG(USBx, ep->num);
 1317              		.loc 1 422 7 discriminator 1 view .LVU427
 1318              	.LBB35:
 422:Drivers/STM32H5xx_HAL_Driver/Src/stm32h5xx_ll_usb.c ****       PCD_CLEAR_TX_DTOG(USBx, ep->num);
 1319              		.loc 1 422 7 discriminator 1 view .LVU428
 422:Drivers/STM32H5xx_HAL_Driver/Src/stm32h5xx_ll_usb.c ****       PCD_CLEAR_TX_DTOG(USBx, ep->num);
 1320              		.loc 1 422 7 discriminator 1 view .LVU429
 1321 0094 50F82240 		ldr	r4, [r0, r2, lsl #2]
 1322 0098 3B4B     		ldr	r3, .L63
 1323              	.LVL141:
 422:Drivers/STM32H5xx_HAL_Driver/Src/stm32h5xx_ll_usb.c ****       PCD_CLEAR_TX_DTOG(USBx, ep->num);
ARM GAS  C:\Users\sapph\AppData\Local\Temp\cchEHrSS.s 			page 34


 1324              		.loc 1 422 7 is_stmt 0 discriminator 1 view .LVU430
 1325 009a 2340     		ands	r3, r3, r4
 1326              	.LVL142:
 422:Drivers/STM32H5xx_HAL_Driver/Src/stm32h5xx_ll_usb.c ****       PCD_CLEAR_TX_DTOG(USBx, ep->num);
 1327              		.loc 1 422 7 is_stmt 1 discriminator 1 view .LVU431
 1328 009c 43F44043 		orr	r3, r3, #49152
 1329              	.LVL143:
 422:Drivers/STM32H5xx_HAL_Driver/Src/stm32h5xx_ll_usb.c ****       PCD_CLEAR_TX_DTOG(USBx, ep->num);
 1330              		.loc 1 422 7 is_stmt 0 discriminator 1 view .LVU432
 1331 00a0 43F08003 		orr	r3, r3, #128
 1332 00a4 40F82230 		str	r3, [r0, r2, lsl #2]
 1333              	.LVL144:
 1334              	.L58:
 422:Drivers/STM32H5xx_HAL_Driver/Src/stm32h5xx_ll_usb.c ****       PCD_CLEAR_TX_DTOG(USBx, ep->num);
 1335              		.loc 1 422 7 discriminator 1 view .LVU433
 1336              	.LBE35:
 422:Drivers/STM32H5xx_HAL_Driver/Src/stm32h5xx_ll_usb.c ****       PCD_CLEAR_TX_DTOG(USBx, ep->num);
 1337              		.loc 1 422 7 is_stmt 1 discriminator 3 view .LVU434
 1338              	.LBE34:
 422:Drivers/STM32H5xx_HAL_Driver/Src/stm32h5xx_ll_usb.c ****       PCD_CLEAR_TX_DTOG(USBx, ep->num);
 1339              		.loc 1 422 7 discriminator 3 view .LVU435
 423:Drivers/STM32H5xx_HAL_Driver/Src/stm32h5xx_ll_usb.c **** 
 1340              		.loc 1 423 7 view .LVU436
 1341              	.LBB36:
 423:Drivers/STM32H5xx_HAL_Driver/Src/stm32h5xx_ll_usb.c **** 
 1342              		.loc 1 423 7 view .LVU437
 423:Drivers/STM32H5xx_HAL_Driver/Src/stm32h5xx_ll_usb.c **** 
 1343              		.loc 1 423 7 view .LVU438
 1344 00a8 0A78     		ldrb	r2, [r1]	@ zero_extendqisi2
 1345 00aa 50F82230 		ldr	r3, [r0, r2, lsl #2]
 1346              	.LVL145:
 423:Drivers/STM32H5xx_HAL_Driver/Src/stm32h5xx_ll_usb.c **** 
 1347              		.loc 1 423 7 view .LVU439
 1348 00ae 13F0400F 		tst	r3, #64
 1349 00b2 09D0     		beq	.L59
 423:Drivers/STM32H5xx_HAL_Driver/Src/stm32h5xx_ll_usb.c **** 
 1350              		.loc 1 423 7 discriminator 1 view .LVU440
 1351              	.LBB37:
 423:Drivers/STM32H5xx_HAL_Driver/Src/stm32h5xx_ll_usb.c **** 
 1352              		.loc 1 423 7 discriminator 1 view .LVU441
 423:Drivers/STM32H5xx_HAL_Driver/Src/stm32h5xx_ll_usb.c **** 
 1353              		.loc 1 423 7 discriminator 1 view .LVU442
 1354 00b4 50F82240 		ldr	r4, [r0, r2, lsl #2]
 1355 00b8 334B     		ldr	r3, .L63
 1356              	.LVL146:
 423:Drivers/STM32H5xx_HAL_Driver/Src/stm32h5xx_ll_usb.c **** 
 1357              		.loc 1 423 7 is_stmt 0 discriminator 1 view .LVU443
 1358 00ba 2340     		ands	r3, r3, r4
 1359              	.LVL147:
 423:Drivers/STM32H5xx_HAL_Driver/Src/stm32h5xx_ll_usb.c **** 
 1360              		.loc 1 423 7 is_stmt 1 discriminator 1 view .LVU444
 1361 00bc 43F40043 		orr	r3, r3, #32768
 1362              	.LVL148:
 423:Drivers/STM32H5xx_HAL_Driver/Src/stm32h5xx_ll_usb.c **** 
 1363              		.loc 1 423 7 is_stmt 0 discriminator 1 view .LVU445
 1364 00c0 43F0C003 		orr	r3, r3, #192
 1365 00c4 40F82230 		str	r3, [r0, r2, lsl #2]
ARM GAS  C:\Users\sapph\AppData\Local\Temp\cchEHrSS.s 			page 35


 1366              	.LVL149:
 1367              	.L59:
 423:Drivers/STM32H5xx_HAL_Driver/Src/stm32h5xx_ll_usb.c **** 
 1368              		.loc 1 423 7 discriminator 1 view .LVU446
 1369              	.LBE37:
 423:Drivers/STM32H5xx_HAL_Driver/Src/stm32h5xx_ll_usb.c **** 
 1370              		.loc 1 423 7 is_stmt 1 discriminator 3 view .LVU447
 1371              	.LBE36:
 423:Drivers/STM32H5xx_HAL_Driver/Src/stm32h5xx_ll_usb.c **** 
 1372              		.loc 1 423 7 discriminator 3 view .LVU448
 426:Drivers/STM32H5xx_HAL_Driver/Src/stm32h5xx_ll_usb.c **** 
 1373              		.loc 1 426 7 view .LVU449
 1374              	.LBB38:
 426:Drivers/STM32H5xx_HAL_Driver/Src/stm32h5xx_ll_usb.c **** 
 1375              		.loc 1 426 7 view .LVU450
 426:Drivers/STM32H5xx_HAL_Driver/Src/stm32h5xx_ll_usb.c **** 
 1376              		.loc 1 426 7 view .LVU451
 1377 00c8 0A78     		ldrb	r2, [r1]	@ zero_extendqisi2
 1378 00ca 50F82240 		ldr	r4, [r0, r2, lsl #2]
 1379 00ce 2E4B     		ldr	r3, .L63
 1380 00d0 2340     		ands	r3, r3, r4
 1381              	.LVL150:
 426:Drivers/STM32H5xx_HAL_Driver/Src/stm32h5xx_ll_usb.c **** 
 1382              		.loc 1 426 7 view .LVU452
 1383 00d2 43F40043 		orr	r3, r3, #32768
 1384              	.LVL151:
 426:Drivers/STM32H5xx_HAL_Driver/Src/stm32h5xx_ll_usb.c **** 
 1385              		.loc 1 426 7 is_stmt 0 view .LVU453
 1386 00d6 43F0C003 		orr	r3, r3, #192
 1387 00da 40F82230 		str	r3, [r0, r2, lsl #2]
 1388              	.LBE38:
 426:Drivers/STM32H5xx_HAL_Driver/Src/stm32h5xx_ll_usb.c **** 
 1389              		.loc 1 426 7 is_stmt 1 view .LVU454
 428:Drivers/STM32H5xx_HAL_Driver/Src/stm32h5xx_ll_usb.c ****       PCD_SET_EP_TX_STATUS(USBx, ep->num, USB_EP_TX_DIS);
 1390              		.loc 1 428 7 view .LVU455
 1391              	.LBB39:
 428:Drivers/STM32H5xx_HAL_Driver/Src/stm32h5xx_ll_usb.c ****       PCD_SET_EP_TX_STATUS(USBx, ep->num, USB_EP_TX_DIS);
 1392              		.loc 1 428 7 view .LVU456
 428:Drivers/STM32H5xx_HAL_Driver/Src/stm32h5xx_ll_usb.c ****       PCD_SET_EP_TX_STATUS(USBx, ep->num, USB_EP_TX_DIS);
 1393              		.loc 1 428 7 view .LVU457
 1394 00de 0A78     		ldrb	r2, [r1]	@ zero_extendqisi2
 1395 00e0 50F82240 		ldr	r4, [r0, r2, lsl #2]
 1396              	.LVL152:
 428:Drivers/STM32H5xx_HAL_Driver/Src/stm32h5xx_ll_usb.c ****       PCD_SET_EP_TX_STATUS(USBx, ep->num, USB_EP_TX_DIS);
 1397              		.loc 1 428 7 is_stmt 0 view .LVU458
 1398 00e4 2A4B     		ldr	r3, .L63+8
 1399 00e6 2340     		ands	r3, r3, r4
 1400              	.LVL153:
 428:Drivers/STM32H5xx_HAL_Driver/Src/stm32h5xx_ll_usb.c ****       PCD_SET_EP_TX_STATUS(USBx, ep->num, USB_EP_TX_DIS);
 1401              		.loc 1 428 7 is_stmt 1 view .LVU459
 428:Drivers/STM32H5xx_HAL_Driver/Src/stm32h5xx_ll_usb.c ****       PCD_SET_EP_TX_STATUS(USBx, ep->num, USB_EP_TX_DIS);
 1402              		.loc 1 428 7 discriminator 3 view .LVU460
 428:Drivers/STM32H5xx_HAL_Driver/Src/stm32h5xx_ll_usb.c ****       PCD_SET_EP_TX_STATUS(USBx, ep->num, USB_EP_TX_DIS);
 1403              		.loc 1 428 7 discriminator 6 view .LVU461
 1404 00e8 48F2800C 		movw	ip, #32896
 1405 00ec 43EA0C03 		orr	r3, r3, ip
 1406              	.LVL154:
ARM GAS  C:\Users\sapph\AppData\Local\Temp\cchEHrSS.s 			page 36


 428:Drivers/STM32H5xx_HAL_Driver/Src/stm32h5xx_ll_usb.c ****       PCD_SET_EP_TX_STATUS(USBx, ep->num, USB_EP_TX_DIS);
 1407              		.loc 1 428 7 is_stmt 0 discriminator 6 view .LVU462
 1408 00f0 40F82230 		str	r3, [r0, r2, lsl #2]
 1409              	.LBE39:
 428:Drivers/STM32H5xx_HAL_Driver/Src/stm32h5xx_ll_usb.c ****       PCD_SET_EP_TX_STATUS(USBx, ep->num, USB_EP_TX_DIS);
 1410              		.loc 1 428 7 is_stmt 1 discriminator 6 view .LVU463
 429:Drivers/STM32H5xx_HAL_Driver/Src/stm32h5xx_ll_usb.c ****     }
 1411              		.loc 1 429 7 view .LVU464
 1412              	.LBB40:
 429:Drivers/STM32H5xx_HAL_Driver/Src/stm32h5xx_ll_usb.c ****     }
 1413              		.loc 1 429 7 view .LVU465
 429:Drivers/STM32H5xx_HAL_Driver/Src/stm32h5xx_ll_usb.c ****     }
 1414              		.loc 1 429 7 view .LVU466
 1415 00f4 0A78     		ldrb	r2, [r1]	@ zero_extendqisi2
 1416 00f6 50F82210 		ldr	r1, [r0, r2, lsl #2]
 1417              	.LVL155:
 429:Drivers/STM32H5xx_HAL_Driver/Src/stm32h5xx_ll_usb.c ****     }
 1418              		.loc 1 429 7 is_stmt 0 view .LVU467
 1419 00fa 244B     		ldr	r3, .L63+4
 1420 00fc 0B40     		ands	r3, r3, r1
 1421              	.LVL156:
 429:Drivers/STM32H5xx_HAL_Driver/Src/stm32h5xx_ll_usb.c ****     }
 1422              		.loc 1 429 7 is_stmt 1 view .LVU468
 429:Drivers/STM32H5xx_HAL_Driver/Src/stm32h5xx_ll_usb.c ****     }
 1423              		.loc 1 429 7 discriminator 3 view .LVU469
 429:Drivers/STM32H5xx_HAL_Driver/Src/stm32h5xx_ll_usb.c ****     }
 1424              		.loc 1 429 7 discriminator 6 view .LVU470
 1425 00fe 43EA0C03 		orr	r3, r3, ip
 1426              	.LVL157:
 429:Drivers/STM32H5xx_HAL_Driver/Src/stm32h5xx_ll_usb.c ****     }
 1427              		.loc 1 429 7 is_stmt 0 discriminator 6 view .LVU471
 1428 0102 40F82230 		str	r3, [r0, r2, lsl #2]
 1429              	.LBE40:
 429:Drivers/STM32H5xx_HAL_Driver/Src/stm32h5xx_ll_usb.c ****     }
 1430              		.loc 1 429 7 is_stmt 1 discriminator 6 view .LVU472
 1431 0106 9CE7     		b	.L55
 1432              	.LVL158:
 1433              	.L57:
 434:Drivers/STM32H5xx_HAL_Driver/Src/stm32h5xx_ll_usb.c ****       PCD_CLEAR_TX_DTOG(USBx, ep->num);
 1434              		.loc 1 434 7 view .LVU473
 1435              	.LBB41:
 434:Drivers/STM32H5xx_HAL_Driver/Src/stm32h5xx_ll_usb.c ****       PCD_CLEAR_TX_DTOG(USBx, ep->num);
 1436              		.loc 1 434 7 view .LVU474
 434:Drivers/STM32H5xx_HAL_Driver/Src/stm32h5xx_ll_usb.c ****       PCD_CLEAR_TX_DTOG(USBx, ep->num);
 1437              		.loc 1 434 7 view .LVU475
 1438 0108 0A78     		ldrb	r2, [r1]	@ zero_extendqisi2
 1439 010a 50F82230 		ldr	r3, [r0, r2, lsl #2]
 1440              	.LVL159:
 434:Drivers/STM32H5xx_HAL_Driver/Src/stm32h5xx_ll_usb.c ****       PCD_CLEAR_TX_DTOG(USBx, ep->num);
 1441              		.loc 1 434 7 view .LVU476
 1442 010e 13F4804F 		tst	r3, #16384
 1443 0112 09D0     		beq	.L60
 434:Drivers/STM32H5xx_HAL_Driver/Src/stm32h5xx_ll_usb.c ****       PCD_CLEAR_TX_DTOG(USBx, ep->num);
 1444              		.loc 1 434 7 discriminator 1 view .LVU477
 1445              	.LBB42:
 434:Drivers/STM32H5xx_HAL_Driver/Src/stm32h5xx_ll_usb.c ****       PCD_CLEAR_TX_DTOG(USBx, ep->num);
 1446              		.loc 1 434 7 discriminator 1 view .LVU478
ARM GAS  C:\Users\sapph\AppData\Local\Temp\cchEHrSS.s 			page 37


 434:Drivers/STM32H5xx_HAL_Driver/Src/stm32h5xx_ll_usb.c ****       PCD_CLEAR_TX_DTOG(USBx, ep->num);
 1447              		.loc 1 434 7 discriminator 1 view .LVU479
 1448 0114 50F82240 		ldr	r4, [r0, r2, lsl #2]
 1449 0118 1B4B     		ldr	r3, .L63
 1450              	.LVL160:
 434:Drivers/STM32H5xx_HAL_Driver/Src/stm32h5xx_ll_usb.c ****       PCD_CLEAR_TX_DTOG(USBx, ep->num);
 1451              		.loc 1 434 7 is_stmt 0 discriminator 1 view .LVU480
 1452 011a 2340     		ands	r3, r3, r4
 1453              	.LVL161:
 434:Drivers/STM32H5xx_HAL_Driver/Src/stm32h5xx_ll_usb.c ****       PCD_CLEAR_TX_DTOG(USBx, ep->num);
 1454              		.loc 1 434 7 is_stmt 1 discriminator 1 view .LVU481
 1455 011c 43F44043 		orr	r3, r3, #49152
 1456              	.LVL162:
 434:Drivers/STM32H5xx_HAL_Driver/Src/stm32h5xx_ll_usb.c ****       PCD_CLEAR_TX_DTOG(USBx, ep->num);
 1457              		.loc 1 434 7 is_stmt 0 discriminator 1 view .LVU482
 1458 0120 43F08003 		orr	r3, r3, #128
 1459 0124 40F82230 		str	r3, [r0, r2, lsl #2]
 1460              	.LVL163:
 1461              	.L60:
 434:Drivers/STM32H5xx_HAL_Driver/Src/stm32h5xx_ll_usb.c ****       PCD_CLEAR_TX_DTOG(USBx, ep->num);
 1462              		.loc 1 434 7 discriminator 1 view .LVU483
 1463              	.LBE42:
 434:Drivers/STM32H5xx_HAL_Driver/Src/stm32h5xx_ll_usb.c ****       PCD_CLEAR_TX_DTOG(USBx, ep->num);
 1464              		.loc 1 434 7 is_stmt 1 discriminator 3 view .LVU484
 1465              	.LBE41:
 434:Drivers/STM32H5xx_HAL_Driver/Src/stm32h5xx_ll_usb.c ****       PCD_CLEAR_TX_DTOG(USBx, ep->num);
 1466              		.loc 1 434 7 discriminator 3 view .LVU485
 435:Drivers/STM32H5xx_HAL_Driver/Src/stm32h5xx_ll_usb.c ****       PCD_RX_DTOG(USBx, ep->num);
 1467              		.loc 1 435 7 view .LVU486
 1468              	.LBB43:
 435:Drivers/STM32H5xx_HAL_Driver/Src/stm32h5xx_ll_usb.c ****       PCD_RX_DTOG(USBx, ep->num);
 1469              		.loc 1 435 7 view .LVU487
 435:Drivers/STM32H5xx_HAL_Driver/Src/stm32h5xx_ll_usb.c ****       PCD_RX_DTOG(USBx, ep->num);
 1470              		.loc 1 435 7 view .LVU488
 1471 0128 0A78     		ldrb	r2, [r1]	@ zero_extendqisi2
 1472 012a 50F82230 		ldr	r3, [r0, r2, lsl #2]
 1473              	.LVL164:
 435:Drivers/STM32H5xx_HAL_Driver/Src/stm32h5xx_ll_usb.c ****       PCD_RX_DTOG(USBx, ep->num);
 1474              		.loc 1 435 7 view .LVU489
 1475 012e 13F0400F 		tst	r3, #64
 1476 0132 09D0     		beq	.L61
 435:Drivers/STM32H5xx_HAL_Driver/Src/stm32h5xx_ll_usb.c ****       PCD_RX_DTOG(USBx, ep->num);
 1477              		.loc 1 435 7 discriminator 1 view .LVU490
 1478              	.LBB44:
 435:Drivers/STM32H5xx_HAL_Driver/Src/stm32h5xx_ll_usb.c ****       PCD_RX_DTOG(USBx, ep->num);
 1479              		.loc 1 435 7 discriminator 1 view .LVU491
 435:Drivers/STM32H5xx_HAL_Driver/Src/stm32h5xx_ll_usb.c ****       PCD_RX_DTOG(USBx, ep->num);
 1480              		.loc 1 435 7 discriminator 1 view .LVU492
 1481 0134 50F82240 		ldr	r4, [r0, r2, lsl #2]
 1482 0138 134B     		ldr	r3, .L63
 1483              	.LVL165:
 435:Drivers/STM32H5xx_HAL_Driver/Src/stm32h5xx_ll_usb.c ****       PCD_RX_DTOG(USBx, ep->num);
 1484              		.loc 1 435 7 is_stmt 0 discriminator 1 view .LVU493
 1485 013a 2340     		ands	r3, r3, r4
 1486              	.LVL166:
 435:Drivers/STM32H5xx_HAL_Driver/Src/stm32h5xx_ll_usb.c ****       PCD_RX_DTOG(USBx, ep->num);
 1487              		.loc 1 435 7 is_stmt 1 discriminator 1 view .LVU494
ARM GAS  C:\Users\sapph\AppData\Local\Temp\cchEHrSS.s 			page 38


 1488 013c 43F40043 		orr	r3, r3, #32768
 1489              	.LVL167:
 435:Drivers/STM32H5xx_HAL_Driver/Src/stm32h5xx_ll_usb.c ****       PCD_RX_DTOG(USBx, ep->num);
 1490              		.loc 1 435 7 is_stmt 0 discriminator 1 view .LVU495
 1491 0140 43F0C003 		orr	r3, r3, #192
 1492 0144 40F82230 		str	r3, [r0, r2, lsl #2]
 1493              	.LVL168:
 1494              	.L61:
 435:Drivers/STM32H5xx_HAL_Driver/Src/stm32h5xx_ll_usb.c ****       PCD_RX_DTOG(USBx, ep->num);
 1495              		.loc 1 435 7 discriminator 1 view .LVU496
 1496              	.LBE44:
 435:Drivers/STM32H5xx_HAL_Driver/Src/stm32h5xx_ll_usb.c ****       PCD_RX_DTOG(USBx, ep->num);
 1497              		.loc 1 435 7 is_stmt 1 discriminator 3 view .LVU497
 1498              	.LBE43:
 435:Drivers/STM32H5xx_HAL_Driver/Src/stm32h5xx_ll_usb.c ****       PCD_RX_DTOG(USBx, ep->num);
 1499              		.loc 1 435 7 discriminator 3 view .LVU498
 436:Drivers/STM32H5xx_HAL_Driver/Src/stm32h5xx_ll_usb.c **** 
 1500              		.loc 1 436 7 view .LVU499
 1501              	.LBB45:
 436:Drivers/STM32H5xx_HAL_Driver/Src/stm32h5xx_ll_usb.c **** 
 1502              		.loc 1 436 7 view .LVU500
 436:Drivers/STM32H5xx_HAL_Driver/Src/stm32h5xx_ll_usb.c **** 
 1503              		.loc 1 436 7 view .LVU501
 1504 0148 0A78     		ldrb	r2, [r1]	@ zero_extendqisi2
 1505 014a 50F82240 		ldr	r4, [r0, r2, lsl #2]
 1506 014e 0E4B     		ldr	r3, .L63
 1507 0150 2340     		ands	r3, r3, r4
 1508              	.LVL169:
 436:Drivers/STM32H5xx_HAL_Driver/Src/stm32h5xx_ll_usb.c **** 
 1509              		.loc 1 436 7 view .LVU502
 1510 0152 43F44043 		orr	r3, r3, #49152
 1511              	.LVL170:
 436:Drivers/STM32H5xx_HAL_Driver/Src/stm32h5xx_ll_usb.c **** 
 1512              		.loc 1 436 7 is_stmt 0 view .LVU503
 1513 0156 43F08003 		orr	r3, r3, #128
 1514 015a 40F82230 		str	r3, [r0, r2, lsl #2]
 1515              	.LBE45:
 436:Drivers/STM32H5xx_HAL_Driver/Src/stm32h5xx_ll_usb.c **** 
 1516              		.loc 1 436 7 is_stmt 1 view .LVU504
 439:Drivers/STM32H5xx_HAL_Driver/Src/stm32h5xx_ll_usb.c ****       PCD_SET_EP_RX_STATUS(USBx, ep->num, USB_EP_RX_DIS);
 1517              		.loc 1 439 7 view .LVU505
 1518              	.LBB46:
 439:Drivers/STM32H5xx_HAL_Driver/Src/stm32h5xx_ll_usb.c ****       PCD_SET_EP_RX_STATUS(USBx, ep->num, USB_EP_RX_DIS);
 1519              		.loc 1 439 7 view .LVU506
 439:Drivers/STM32H5xx_HAL_Driver/Src/stm32h5xx_ll_usb.c ****       PCD_SET_EP_RX_STATUS(USBx, ep->num, USB_EP_RX_DIS);
 1520              		.loc 1 439 7 view .LVU507
 1521 015e 0A78     		ldrb	r2, [r1]	@ zero_extendqisi2
 1522 0160 50F82240 		ldr	r4, [r0, r2, lsl #2]
 1523              	.LVL171:
 439:Drivers/STM32H5xx_HAL_Driver/Src/stm32h5xx_ll_usb.c ****       PCD_SET_EP_RX_STATUS(USBx, ep->num, USB_EP_RX_DIS);
 1524              		.loc 1 439 7 is_stmt 0 view .LVU508
 1525 0164 094B     		ldr	r3, .L63+4
 1526 0166 2340     		ands	r3, r3, r4
 1527              	.LVL172:
 439:Drivers/STM32H5xx_HAL_Driver/Src/stm32h5xx_ll_usb.c ****       PCD_SET_EP_RX_STATUS(USBx, ep->num, USB_EP_RX_DIS);
 1528              		.loc 1 439 7 is_stmt 1 view .LVU509
 439:Drivers/STM32H5xx_HAL_Driver/Src/stm32h5xx_ll_usb.c ****       PCD_SET_EP_RX_STATUS(USBx, ep->num, USB_EP_RX_DIS);
ARM GAS  C:\Users\sapph\AppData\Local\Temp\cchEHrSS.s 			page 39


 1529              		.loc 1 439 7 discriminator 3 view .LVU510
 439:Drivers/STM32H5xx_HAL_Driver/Src/stm32h5xx_ll_usb.c ****       PCD_SET_EP_RX_STATUS(USBx, ep->num, USB_EP_RX_DIS);
 1530              		.loc 1 439 7 discriminator 6 view .LVU511
 1531 0168 48F2800C 		movw	ip, #32896
 1532 016c 43EA0C03 		orr	r3, r3, ip
 1533              	.LVL173:
 439:Drivers/STM32H5xx_HAL_Driver/Src/stm32h5xx_ll_usb.c ****       PCD_SET_EP_RX_STATUS(USBx, ep->num, USB_EP_RX_DIS);
 1534              		.loc 1 439 7 is_stmt 0 discriminator 6 view .LVU512
 1535 0170 40F82230 		str	r3, [r0, r2, lsl #2]
 1536              	.LBE46:
 439:Drivers/STM32H5xx_HAL_Driver/Src/stm32h5xx_ll_usb.c ****       PCD_SET_EP_RX_STATUS(USBx, ep->num, USB_EP_RX_DIS);
 1537              		.loc 1 439 7 is_stmt 1 discriminator 6 view .LVU513
 440:Drivers/STM32H5xx_HAL_Driver/Src/stm32h5xx_ll_usb.c ****     }
 1538              		.loc 1 440 7 view .LVU514
 1539              	.LBB47:
 440:Drivers/STM32H5xx_HAL_Driver/Src/stm32h5xx_ll_usb.c ****     }
 1540              		.loc 1 440 7 view .LVU515
 440:Drivers/STM32H5xx_HAL_Driver/Src/stm32h5xx_ll_usb.c ****     }
 1541              		.loc 1 440 7 view .LVU516
 1542 0174 0A78     		ldrb	r2, [r1]	@ zero_extendqisi2
 1543 0176 50F82210 		ldr	r1, [r0, r2, lsl #2]
 1544              	.LVL174:
 440:Drivers/STM32H5xx_HAL_Driver/Src/stm32h5xx_ll_usb.c ****     }
 1545              		.loc 1 440 7 is_stmt 0 view .LVU517
 1546 017a 054B     		ldr	r3, .L63+8
 1547 017c 0B40     		ands	r3, r3, r1
 1548              	.LVL175:
 440:Drivers/STM32H5xx_HAL_Driver/Src/stm32h5xx_ll_usb.c ****     }
 1549              		.loc 1 440 7 is_stmt 1 view .LVU518
 440:Drivers/STM32H5xx_HAL_Driver/Src/stm32h5xx_ll_usb.c ****     }
 1550              		.loc 1 440 7 discriminator 3 view .LVU519
 440:Drivers/STM32H5xx_HAL_Driver/Src/stm32h5xx_ll_usb.c ****     }
 1551              		.loc 1 440 7 discriminator 6 view .LVU520
 1552 017e 43EA0C03 		orr	r3, r3, ip
 1553              	.LVL176:
 440:Drivers/STM32H5xx_HAL_Driver/Src/stm32h5xx_ll_usb.c ****     }
 1554              		.loc 1 440 7 is_stmt 0 discriminator 6 view .LVU521
 1555 0182 40F82230 		str	r3, [r0, r2, lsl #2]
 1556 0186 5CE7     		b	.L55
 1557              	.L64:
 1558              		.align	2
 1559              	.L63:
 1560 0188 8F8FFF07 		.word	134188943
 1561 018c BF8FFF07 		.word	134188991
 1562 0190 8FBFFF07 		.word	134201231
 1563              	.LBE47:
 1564              		.cfi_endproc
 1565              	.LFE169:
 1567              		.section	.text.USB_EPSetStall,"ax",%progbits
 1568              		.align	1
 1569              		.global	USB_EPSetStall
 1570              		.syntax unified
 1571              		.thumb
 1572              		.thumb_func
 1574              	USB_EPSetStall:
 1575              	.LVL177:
 1576              	.LFB171:
ARM GAS  C:\Users\sapph\AppData\Local\Temp\cchEHrSS.s 			page 40


 447:Drivers/STM32H5xx_HAL_Driver/Src/stm32h5xx_ll_usb.c **** 
 448:Drivers/STM32H5xx_HAL_Driver/Src/stm32h5xx_ll_usb.c **** /**
 449:Drivers/STM32H5xx_HAL_Driver/Src/stm32h5xx_ll_usb.c ****   * @brief  USB_EPStartXfer setup and starts a transfer over an EP
 450:Drivers/STM32H5xx_HAL_Driver/Src/stm32h5xx_ll_usb.c ****   * @param  USBx Selected device
 451:Drivers/STM32H5xx_HAL_Driver/Src/stm32h5xx_ll_usb.c ****   * @param  ep pointer to endpoint structure
 452:Drivers/STM32H5xx_HAL_Driver/Src/stm32h5xx_ll_usb.c ****   * @retval HAL status
 453:Drivers/STM32H5xx_HAL_Driver/Src/stm32h5xx_ll_usb.c ****   */
 454:Drivers/STM32H5xx_HAL_Driver/Src/stm32h5xx_ll_usb.c **** HAL_StatusTypeDef USB_EPStartXfer(USB_DRD_TypeDef *USBx, USB_DRD_EPTypeDef *ep)
 455:Drivers/STM32H5xx_HAL_Driver/Src/stm32h5xx_ll_usb.c **** {
 456:Drivers/STM32H5xx_HAL_Driver/Src/stm32h5xx_ll_usb.c ****   uint32_t len;
 457:Drivers/STM32H5xx_HAL_Driver/Src/stm32h5xx_ll_usb.c **** #if (USE_USB_DOUBLE_BUFFER == 1U)
 458:Drivers/STM32H5xx_HAL_Driver/Src/stm32h5xx_ll_usb.c ****   uint16_t pmabuffer;
 459:Drivers/STM32H5xx_HAL_Driver/Src/stm32h5xx_ll_usb.c ****   uint16_t wEPVal;
 460:Drivers/STM32H5xx_HAL_Driver/Src/stm32h5xx_ll_usb.c **** #endif /* (USE_USB_DOUBLE_BUFFER == 1U) */
 461:Drivers/STM32H5xx_HAL_Driver/Src/stm32h5xx_ll_usb.c **** 
 462:Drivers/STM32H5xx_HAL_Driver/Src/stm32h5xx_ll_usb.c ****   /* IN endpoint */
 463:Drivers/STM32H5xx_HAL_Driver/Src/stm32h5xx_ll_usb.c ****   if (ep->is_in == 1U)
 464:Drivers/STM32H5xx_HAL_Driver/Src/stm32h5xx_ll_usb.c ****   {
 465:Drivers/STM32H5xx_HAL_Driver/Src/stm32h5xx_ll_usb.c ****     /*Multi packet transfer*/
 466:Drivers/STM32H5xx_HAL_Driver/Src/stm32h5xx_ll_usb.c ****     if (ep->xfer_len > ep->maxpacket)
 467:Drivers/STM32H5xx_HAL_Driver/Src/stm32h5xx_ll_usb.c ****     {
 468:Drivers/STM32H5xx_HAL_Driver/Src/stm32h5xx_ll_usb.c ****       len = ep->maxpacket;
 469:Drivers/STM32H5xx_HAL_Driver/Src/stm32h5xx_ll_usb.c ****     }
 470:Drivers/STM32H5xx_HAL_Driver/Src/stm32h5xx_ll_usb.c ****     else
 471:Drivers/STM32H5xx_HAL_Driver/Src/stm32h5xx_ll_usb.c ****     {
 472:Drivers/STM32H5xx_HAL_Driver/Src/stm32h5xx_ll_usb.c ****       len = ep->xfer_len;
 473:Drivers/STM32H5xx_HAL_Driver/Src/stm32h5xx_ll_usb.c ****     }
 474:Drivers/STM32H5xx_HAL_Driver/Src/stm32h5xx_ll_usb.c **** 
 475:Drivers/STM32H5xx_HAL_Driver/Src/stm32h5xx_ll_usb.c ****     /* configure and validate Tx endpoint */
 476:Drivers/STM32H5xx_HAL_Driver/Src/stm32h5xx_ll_usb.c ****     if (ep->doublebuffer == 0U)
 477:Drivers/STM32H5xx_HAL_Driver/Src/stm32h5xx_ll_usb.c ****     {
 478:Drivers/STM32H5xx_HAL_Driver/Src/stm32h5xx_ll_usb.c ****       USB_WritePMA(USBx, ep->xfer_buff, ep->pmaadress, (uint16_t)len);
 479:Drivers/STM32H5xx_HAL_Driver/Src/stm32h5xx_ll_usb.c ****       PCD_SET_EP_TX_CNT(USBx, ep->num, len);
 480:Drivers/STM32H5xx_HAL_Driver/Src/stm32h5xx_ll_usb.c ****     }
 481:Drivers/STM32H5xx_HAL_Driver/Src/stm32h5xx_ll_usb.c **** #if (USE_USB_DOUBLE_BUFFER == 1U)
 482:Drivers/STM32H5xx_HAL_Driver/Src/stm32h5xx_ll_usb.c ****     else
 483:Drivers/STM32H5xx_HAL_Driver/Src/stm32h5xx_ll_usb.c ****     {
 484:Drivers/STM32H5xx_HAL_Driver/Src/stm32h5xx_ll_usb.c ****       /* double buffer bulk management */
 485:Drivers/STM32H5xx_HAL_Driver/Src/stm32h5xx_ll_usb.c ****       if (ep->type == EP_TYPE_BULK)
 486:Drivers/STM32H5xx_HAL_Driver/Src/stm32h5xx_ll_usb.c ****       {
 487:Drivers/STM32H5xx_HAL_Driver/Src/stm32h5xx_ll_usb.c ****         if (ep->xfer_len_db > ep->maxpacket)
 488:Drivers/STM32H5xx_HAL_Driver/Src/stm32h5xx_ll_usb.c ****         {
 489:Drivers/STM32H5xx_HAL_Driver/Src/stm32h5xx_ll_usb.c ****           /* enable double buffer */
 490:Drivers/STM32H5xx_HAL_Driver/Src/stm32h5xx_ll_usb.c ****           PCD_SET_BULK_EP_DBUF(USBx, ep->num);
 491:Drivers/STM32H5xx_HAL_Driver/Src/stm32h5xx_ll_usb.c **** 
 492:Drivers/STM32H5xx_HAL_Driver/Src/stm32h5xx_ll_usb.c ****           /* each Time to write in PMA xfer_len_db will */
 493:Drivers/STM32H5xx_HAL_Driver/Src/stm32h5xx_ll_usb.c ****           ep->xfer_len_db -= len;
 494:Drivers/STM32H5xx_HAL_Driver/Src/stm32h5xx_ll_usb.c **** 
 495:Drivers/STM32H5xx_HAL_Driver/Src/stm32h5xx_ll_usb.c ****           /* Fill the two first buffer in the Buffer0 & Buffer1 */
 496:Drivers/STM32H5xx_HAL_Driver/Src/stm32h5xx_ll_usb.c ****           if ((PCD_GET_ENDPOINT(USBx, ep->num) & USB_EP_DTOG_TX) != 0U)
 497:Drivers/STM32H5xx_HAL_Driver/Src/stm32h5xx_ll_usb.c ****           {
 498:Drivers/STM32H5xx_HAL_Driver/Src/stm32h5xx_ll_usb.c ****             /* Set the Double buffer counter for pmabuffer1 */
 499:Drivers/STM32H5xx_HAL_Driver/Src/stm32h5xx_ll_usb.c ****             PCD_SET_EP_DBUF1_CNT(USBx, ep->num, ep->is_in, len);
 500:Drivers/STM32H5xx_HAL_Driver/Src/stm32h5xx_ll_usb.c ****             pmabuffer = ep->pmaaddr1;
 501:Drivers/STM32H5xx_HAL_Driver/Src/stm32h5xx_ll_usb.c **** 
 502:Drivers/STM32H5xx_HAL_Driver/Src/stm32h5xx_ll_usb.c ****             /* Write the user buffer to USB PMA */
 503:Drivers/STM32H5xx_HAL_Driver/Src/stm32h5xx_ll_usb.c ****             USB_WritePMA(USBx, ep->xfer_buff, pmabuffer, (uint16_t)len);
ARM GAS  C:\Users\sapph\AppData\Local\Temp\cchEHrSS.s 			page 41


 504:Drivers/STM32H5xx_HAL_Driver/Src/stm32h5xx_ll_usb.c ****             ep->xfer_buff += len;
 505:Drivers/STM32H5xx_HAL_Driver/Src/stm32h5xx_ll_usb.c **** 
 506:Drivers/STM32H5xx_HAL_Driver/Src/stm32h5xx_ll_usb.c ****             if (ep->xfer_len_db > ep->maxpacket)
 507:Drivers/STM32H5xx_HAL_Driver/Src/stm32h5xx_ll_usb.c ****             {
 508:Drivers/STM32H5xx_HAL_Driver/Src/stm32h5xx_ll_usb.c ****               ep->xfer_len_db -= len;
 509:Drivers/STM32H5xx_HAL_Driver/Src/stm32h5xx_ll_usb.c ****             }
 510:Drivers/STM32H5xx_HAL_Driver/Src/stm32h5xx_ll_usb.c ****             else
 511:Drivers/STM32H5xx_HAL_Driver/Src/stm32h5xx_ll_usb.c ****             {
 512:Drivers/STM32H5xx_HAL_Driver/Src/stm32h5xx_ll_usb.c ****               len = ep->xfer_len_db;
 513:Drivers/STM32H5xx_HAL_Driver/Src/stm32h5xx_ll_usb.c ****               ep->xfer_len_db = 0U;
 514:Drivers/STM32H5xx_HAL_Driver/Src/stm32h5xx_ll_usb.c ****             }
 515:Drivers/STM32H5xx_HAL_Driver/Src/stm32h5xx_ll_usb.c **** 
 516:Drivers/STM32H5xx_HAL_Driver/Src/stm32h5xx_ll_usb.c ****             /* Set the Double buffer counter for pmabuffer0 */
 517:Drivers/STM32H5xx_HAL_Driver/Src/stm32h5xx_ll_usb.c ****             PCD_SET_EP_DBUF0_CNT(USBx, ep->num, ep->is_in, len);
 518:Drivers/STM32H5xx_HAL_Driver/Src/stm32h5xx_ll_usb.c ****             pmabuffer = ep->pmaaddr0;
 519:Drivers/STM32H5xx_HAL_Driver/Src/stm32h5xx_ll_usb.c **** 
 520:Drivers/STM32H5xx_HAL_Driver/Src/stm32h5xx_ll_usb.c ****             /* Write the user buffer to USB PMA */
 521:Drivers/STM32H5xx_HAL_Driver/Src/stm32h5xx_ll_usb.c ****             USB_WritePMA(USBx, ep->xfer_buff, pmabuffer, (uint16_t)len);
 522:Drivers/STM32H5xx_HAL_Driver/Src/stm32h5xx_ll_usb.c ****           }
 523:Drivers/STM32H5xx_HAL_Driver/Src/stm32h5xx_ll_usb.c ****           else
 524:Drivers/STM32H5xx_HAL_Driver/Src/stm32h5xx_ll_usb.c ****           {
 525:Drivers/STM32H5xx_HAL_Driver/Src/stm32h5xx_ll_usb.c ****             /* Set the Double buffer counter for pmabuffer0 */
 526:Drivers/STM32H5xx_HAL_Driver/Src/stm32h5xx_ll_usb.c ****             PCD_SET_EP_DBUF0_CNT(USBx, ep->num, ep->is_in, len);
 527:Drivers/STM32H5xx_HAL_Driver/Src/stm32h5xx_ll_usb.c ****             pmabuffer = ep->pmaaddr0;
 528:Drivers/STM32H5xx_HAL_Driver/Src/stm32h5xx_ll_usb.c **** 
 529:Drivers/STM32H5xx_HAL_Driver/Src/stm32h5xx_ll_usb.c ****             /* Write the user buffer to USB PMA */
 530:Drivers/STM32H5xx_HAL_Driver/Src/stm32h5xx_ll_usb.c ****             USB_WritePMA(USBx, ep->xfer_buff, pmabuffer, (uint16_t)len);
 531:Drivers/STM32H5xx_HAL_Driver/Src/stm32h5xx_ll_usb.c ****             ep->xfer_buff += len;
 532:Drivers/STM32H5xx_HAL_Driver/Src/stm32h5xx_ll_usb.c **** 
 533:Drivers/STM32H5xx_HAL_Driver/Src/stm32h5xx_ll_usb.c ****             if (ep->xfer_len_db > ep->maxpacket)
 534:Drivers/STM32H5xx_HAL_Driver/Src/stm32h5xx_ll_usb.c ****             {
 535:Drivers/STM32H5xx_HAL_Driver/Src/stm32h5xx_ll_usb.c ****               ep->xfer_len_db -= len;
 536:Drivers/STM32H5xx_HAL_Driver/Src/stm32h5xx_ll_usb.c ****             }
 537:Drivers/STM32H5xx_HAL_Driver/Src/stm32h5xx_ll_usb.c ****             else
 538:Drivers/STM32H5xx_HAL_Driver/Src/stm32h5xx_ll_usb.c ****             {
 539:Drivers/STM32H5xx_HAL_Driver/Src/stm32h5xx_ll_usb.c ****               len = ep->xfer_len_db;
 540:Drivers/STM32H5xx_HAL_Driver/Src/stm32h5xx_ll_usb.c ****               ep->xfer_len_db = 0U;
 541:Drivers/STM32H5xx_HAL_Driver/Src/stm32h5xx_ll_usb.c ****             }
 542:Drivers/STM32H5xx_HAL_Driver/Src/stm32h5xx_ll_usb.c **** 
 543:Drivers/STM32H5xx_HAL_Driver/Src/stm32h5xx_ll_usb.c ****             /* Set the Double buffer counter for pmabuffer1 */
 544:Drivers/STM32H5xx_HAL_Driver/Src/stm32h5xx_ll_usb.c ****             PCD_SET_EP_DBUF1_CNT(USBx, ep->num, ep->is_in, len);
 545:Drivers/STM32H5xx_HAL_Driver/Src/stm32h5xx_ll_usb.c ****             pmabuffer = ep->pmaaddr1;
 546:Drivers/STM32H5xx_HAL_Driver/Src/stm32h5xx_ll_usb.c **** 
 547:Drivers/STM32H5xx_HAL_Driver/Src/stm32h5xx_ll_usb.c ****             /* Write the user buffer to USB PMA */
 548:Drivers/STM32H5xx_HAL_Driver/Src/stm32h5xx_ll_usb.c ****             USB_WritePMA(USBx, ep->xfer_buff, pmabuffer, (uint16_t)len);
 549:Drivers/STM32H5xx_HAL_Driver/Src/stm32h5xx_ll_usb.c ****           }
 550:Drivers/STM32H5xx_HAL_Driver/Src/stm32h5xx_ll_usb.c ****         }
 551:Drivers/STM32H5xx_HAL_Driver/Src/stm32h5xx_ll_usb.c ****         /* auto Switch to single buffer mode when transfer <Mps no need to manage in double buffer 
 552:Drivers/STM32H5xx_HAL_Driver/Src/stm32h5xx_ll_usb.c ****         else
 553:Drivers/STM32H5xx_HAL_Driver/Src/stm32h5xx_ll_usb.c ****         {
 554:Drivers/STM32H5xx_HAL_Driver/Src/stm32h5xx_ll_usb.c ****           len = ep->xfer_len_db;
 555:Drivers/STM32H5xx_HAL_Driver/Src/stm32h5xx_ll_usb.c **** 
 556:Drivers/STM32H5xx_HAL_Driver/Src/stm32h5xx_ll_usb.c ****           /* disable double buffer mode for Bulk endpoint */
 557:Drivers/STM32H5xx_HAL_Driver/Src/stm32h5xx_ll_usb.c ****           PCD_CLEAR_BULK_EP_DBUF(USBx, ep->num);
 558:Drivers/STM32H5xx_HAL_Driver/Src/stm32h5xx_ll_usb.c **** 
 559:Drivers/STM32H5xx_HAL_Driver/Src/stm32h5xx_ll_usb.c ****           /* Set Tx count with nbre of byte to be transmitted */
 560:Drivers/STM32H5xx_HAL_Driver/Src/stm32h5xx_ll_usb.c ****           PCD_SET_EP_TX_CNT(USBx, ep->num, len);
ARM GAS  C:\Users\sapph\AppData\Local\Temp\cchEHrSS.s 			page 42


 561:Drivers/STM32H5xx_HAL_Driver/Src/stm32h5xx_ll_usb.c ****           pmabuffer = ep->pmaaddr0;
 562:Drivers/STM32H5xx_HAL_Driver/Src/stm32h5xx_ll_usb.c **** 
 563:Drivers/STM32H5xx_HAL_Driver/Src/stm32h5xx_ll_usb.c ****           /* Write the user buffer to USB PMA */
 564:Drivers/STM32H5xx_HAL_Driver/Src/stm32h5xx_ll_usb.c ****           USB_WritePMA(USBx, ep->xfer_buff, pmabuffer, (uint16_t)len);
 565:Drivers/STM32H5xx_HAL_Driver/Src/stm32h5xx_ll_usb.c ****         }
 566:Drivers/STM32H5xx_HAL_Driver/Src/stm32h5xx_ll_usb.c ****       }
 567:Drivers/STM32H5xx_HAL_Driver/Src/stm32h5xx_ll_usb.c ****       else /* manage isochronous double buffer IN mode */
 568:Drivers/STM32H5xx_HAL_Driver/Src/stm32h5xx_ll_usb.c ****       {
 569:Drivers/STM32H5xx_HAL_Driver/Src/stm32h5xx_ll_usb.c ****         /* each Time to write in PMA xfer_len_db will */
 570:Drivers/STM32H5xx_HAL_Driver/Src/stm32h5xx_ll_usb.c ****         ep->xfer_len_db -= len;
 571:Drivers/STM32H5xx_HAL_Driver/Src/stm32h5xx_ll_usb.c **** 
 572:Drivers/STM32H5xx_HAL_Driver/Src/stm32h5xx_ll_usb.c ****         /* Fill the data buffer */
 573:Drivers/STM32H5xx_HAL_Driver/Src/stm32h5xx_ll_usb.c ****         if ((PCD_GET_ENDPOINT(USBx, ep->num) & USB_EP_DTOG_TX) != 0U)
 574:Drivers/STM32H5xx_HAL_Driver/Src/stm32h5xx_ll_usb.c ****         {
 575:Drivers/STM32H5xx_HAL_Driver/Src/stm32h5xx_ll_usb.c ****           /* Set the Double buffer counter for pmabuffer1 */
 576:Drivers/STM32H5xx_HAL_Driver/Src/stm32h5xx_ll_usb.c ****           PCD_SET_EP_DBUF1_CNT(USBx, ep->num, ep->is_in, len);
 577:Drivers/STM32H5xx_HAL_Driver/Src/stm32h5xx_ll_usb.c ****           pmabuffer = ep->pmaaddr1;
 578:Drivers/STM32H5xx_HAL_Driver/Src/stm32h5xx_ll_usb.c **** 
 579:Drivers/STM32H5xx_HAL_Driver/Src/stm32h5xx_ll_usb.c ****           /* Write the user buffer to USB PMA */
 580:Drivers/STM32H5xx_HAL_Driver/Src/stm32h5xx_ll_usb.c ****           USB_WritePMA(USBx, ep->xfer_buff, pmabuffer, (uint16_t)len);
 581:Drivers/STM32H5xx_HAL_Driver/Src/stm32h5xx_ll_usb.c ****         }
 582:Drivers/STM32H5xx_HAL_Driver/Src/stm32h5xx_ll_usb.c ****         else
 583:Drivers/STM32H5xx_HAL_Driver/Src/stm32h5xx_ll_usb.c ****         {
 584:Drivers/STM32H5xx_HAL_Driver/Src/stm32h5xx_ll_usb.c ****           /* Set the Double buffer counter for pmabuffer0 */
 585:Drivers/STM32H5xx_HAL_Driver/Src/stm32h5xx_ll_usb.c ****           PCD_SET_EP_DBUF0_CNT(USBx, ep->num, ep->is_in, len);
 586:Drivers/STM32H5xx_HAL_Driver/Src/stm32h5xx_ll_usb.c ****           pmabuffer = ep->pmaaddr0;
 587:Drivers/STM32H5xx_HAL_Driver/Src/stm32h5xx_ll_usb.c **** 
 588:Drivers/STM32H5xx_HAL_Driver/Src/stm32h5xx_ll_usb.c ****           /* Write the user buffer to USB PMA */
 589:Drivers/STM32H5xx_HAL_Driver/Src/stm32h5xx_ll_usb.c ****           USB_WritePMA(USBx, ep->xfer_buff, pmabuffer, (uint16_t)len);
 590:Drivers/STM32H5xx_HAL_Driver/Src/stm32h5xx_ll_usb.c ****         }
 591:Drivers/STM32H5xx_HAL_Driver/Src/stm32h5xx_ll_usb.c ****       }
 592:Drivers/STM32H5xx_HAL_Driver/Src/stm32h5xx_ll_usb.c ****     }
 593:Drivers/STM32H5xx_HAL_Driver/Src/stm32h5xx_ll_usb.c **** #endif /* (USE_USB_DOUBLE_BUFFER == 1U) */
 594:Drivers/STM32H5xx_HAL_Driver/Src/stm32h5xx_ll_usb.c **** 
 595:Drivers/STM32H5xx_HAL_Driver/Src/stm32h5xx_ll_usb.c ****     PCD_SET_EP_TX_STATUS(USBx, ep->num, USB_EP_TX_VALID);
 596:Drivers/STM32H5xx_HAL_Driver/Src/stm32h5xx_ll_usb.c ****   }
 597:Drivers/STM32H5xx_HAL_Driver/Src/stm32h5xx_ll_usb.c ****   else /* OUT endpoint */
 598:Drivers/STM32H5xx_HAL_Driver/Src/stm32h5xx_ll_usb.c ****   {
 599:Drivers/STM32H5xx_HAL_Driver/Src/stm32h5xx_ll_usb.c ****     if (ep->doublebuffer == 0U)
 600:Drivers/STM32H5xx_HAL_Driver/Src/stm32h5xx_ll_usb.c ****     {
 601:Drivers/STM32H5xx_HAL_Driver/Src/stm32h5xx_ll_usb.c ****       /* Multi packet transfer */
 602:Drivers/STM32H5xx_HAL_Driver/Src/stm32h5xx_ll_usb.c ****       if (ep->xfer_len > ep->maxpacket)
 603:Drivers/STM32H5xx_HAL_Driver/Src/stm32h5xx_ll_usb.c ****       {
 604:Drivers/STM32H5xx_HAL_Driver/Src/stm32h5xx_ll_usb.c ****         len = ep->maxpacket;
 605:Drivers/STM32H5xx_HAL_Driver/Src/stm32h5xx_ll_usb.c ****         ep->xfer_len -= len;
 606:Drivers/STM32H5xx_HAL_Driver/Src/stm32h5xx_ll_usb.c ****       }
 607:Drivers/STM32H5xx_HAL_Driver/Src/stm32h5xx_ll_usb.c ****       else
 608:Drivers/STM32H5xx_HAL_Driver/Src/stm32h5xx_ll_usb.c ****       {
 609:Drivers/STM32H5xx_HAL_Driver/Src/stm32h5xx_ll_usb.c ****         len = ep->xfer_len;
 610:Drivers/STM32H5xx_HAL_Driver/Src/stm32h5xx_ll_usb.c ****         ep->xfer_len = 0U;
 611:Drivers/STM32H5xx_HAL_Driver/Src/stm32h5xx_ll_usb.c ****       }
 612:Drivers/STM32H5xx_HAL_Driver/Src/stm32h5xx_ll_usb.c ****       /* configure and validate Rx endpoint */
 613:Drivers/STM32H5xx_HAL_Driver/Src/stm32h5xx_ll_usb.c ****       PCD_SET_EP_RX_CNT(USBx, ep->num, len);
 614:Drivers/STM32H5xx_HAL_Driver/Src/stm32h5xx_ll_usb.c ****     }
 615:Drivers/STM32H5xx_HAL_Driver/Src/stm32h5xx_ll_usb.c **** #if (USE_USB_DOUBLE_BUFFER == 1U)
 616:Drivers/STM32H5xx_HAL_Driver/Src/stm32h5xx_ll_usb.c ****     else
 617:Drivers/STM32H5xx_HAL_Driver/Src/stm32h5xx_ll_usb.c ****     {
ARM GAS  C:\Users\sapph\AppData\Local\Temp\cchEHrSS.s 			page 43


 618:Drivers/STM32H5xx_HAL_Driver/Src/stm32h5xx_ll_usb.c ****       /* First Transfer Coming From HAL_PCD_EP_Receive & From ISR */
 619:Drivers/STM32H5xx_HAL_Driver/Src/stm32h5xx_ll_usb.c ****       /* Set the Double buffer counter */
 620:Drivers/STM32H5xx_HAL_Driver/Src/stm32h5xx_ll_usb.c ****       if (ep->type == EP_TYPE_BULK)
 621:Drivers/STM32H5xx_HAL_Driver/Src/stm32h5xx_ll_usb.c ****       {
 622:Drivers/STM32H5xx_HAL_Driver/Src/stm32h5xx_ll_usb.c ****         PCD_SET_EP_DBUF_CNT(USBx, ep->num, ep->is_in, ep->maxpacket);
 623:Drivers/STM32H5xx_HAL_Driver/Src/stm32h5xx_ll_usb.c **** 
 624:Drivers/STM32H5xx_HAL_Driver/Src/stm32h5xx_ll_usb.c ****         /* Coming from ISR */
 625:Drivers/STM32H5xx_HAL_Driver/Src/stm32h5xx_ll_usb.c ****         if (ep->xfer_count != 0U)
 626:Drivers/STM32H5xx_HAL_Driver/Src/stm32h5xx_ll_usb.c ****         {
 627:Drivers/STM32H5xx_HAL_Driver/Src/stm32h5xx_ll_usb.c ****           /* update last value to check if there is blocking state */
 628:Drivers/STM32H5xx_HAL_Driver/Src/stm32h5xx_ll_usb.c ****           wEPVal = (uint16_t)PCD_GET_ENDPOINT(USBx, ep->num);
 629:Drivers/STM32H5xx_HAL_Driver/Src/stm32h5xx_ll_usb.c **** 
 630:Drivers/STM32H5xx_HAL_Driver/Src/stm32h5xx_ll_usb.c ****           /*Blocking State */
 631:Drivers/STM32H5xx_HAL_Driver/Src/stm32h5xx_ll_usb.c ****           if ((((wEPVal & USB_EP_DTOG_RX) != 0U) && ((wEPVal & USB_EP_DTOG_TX) != 0U)) ||
 632:Drivers/STM32H5xx_HAL_Driver/Src/stm32h5xx_ll_usb.c ****               (((wEPVal & USB_EP_DTOG_RX) == 0U) && ((wEPVal & USB_EP_DTOG_TX) == 0U)))
 633:Drivers/STM32H5xx_HAL_Driver/Src/stm32h5xx_ll_usb.c ****           {
 634:Drivers/STM32H5xx_HAL_Driver/Src/stm32h5xx_ll_usb.c ****             PCD_FREE_USER_BUFFER(USBx, ep->num, 0U);
 635:Drivers/STM32H5xx_HAL_Driver/Src/stm32h5xx_ll_usb.c ****           }
 636:Drivers/STM32H5xx_HAL_Driver/Src/stm32h5xx_ll_usb.c ****         }
 637:Drivers/STM32H5xx_HAL_Driver/Src/stm32h5xx_ll_usb.c ****       }
 638:Drivers/STM32H5xx_HAL_Driver/Src/stm32h5xx_ll_usb.c ****       /* iso out double */
 639:Drivers/STM32H5xx_HAL_Driver/Src/stm32h5xx_ll_usb.c ****       else if (ep->type == EP_TYPE_ISOC)
 640:Drivers/STM32H5xx_HAL_Driver/Src/stm32h5xx_ll_usb.c ****       {
 641:Drivers/STM32H5xx_HAL_Driver/Src/stm32h5xx_ll_usb.c ****         /* Multi packet transfer */
 642:Drivers/STM32H5xx_HAL_Driver/Src/stm32h5xx_ll_usb.c ****         if (ep->xfer_len > ep->maxpacket)
 643:Drivers/STM32H5xx_HAL_Driver/Src/stm32h5xx_ll_usb.c ****         {
 644:Drivers/STM32H5xx_HAL_Driver/Src/stm32h5xx_ll_usb.c ****           len = ep->maxpacket;
 645:Drivers/STM32H5xx_HAL_Driver/Src/stm32h5xx_ll_usb.c ****           ep->xfer_len -= len;
 646:Drivers/STM32H5xx_HAL_Driver/Src/stm32h5xx_ll_usb.c ****         }
 647:Drivers/STM32H5xx_HAL_Driver/Src/stm32h5xx_ll_usb.c ****         else
 648:Drivers/STM32H5xx_HAL_Driver/Src/stm32h5xx_ll_usb.c ****         {
 649:Drivers/STM32H5xx_HAL_Driver/Src/stm32h5xx_ll_usb.c ****           len = ep->xfer_len;
 650:Drivers/STM32H5xx_HAL_Driver/Src/stm32h5xx_ll_usb.c ****           ep->xfer_len = 0U;
 651:Drivers/STM32H5xx_HAL_Driver/Src/stm32h5xx_ll_usb.c ****         }
 652:Drivers/STM32H5xx_HAL_Driver/Src/stm32h5xx_ll_usb.c ****         PCD_SET_EP_DBUF_CNT(USBx, ep->num, ep->is_in, len);
 653:Drivers/STM32H5xx_HAL_Driver/Src/stm32h5xx_ll_usb.c ****       }
 654:Drivers/STM32H5xx_HAL_Driver/Src/stm32h5xx_ll_usb.c ****       else
 655:Drivers/STM32H5xx_HAL_Driver/Src/stm32h5xx_ll_usb.c ****       {
 656:Drivers/STM32H5xx_HAL_Driver/Src/stm32h5xx_ll_usb.c ****         return HAL_ERROR;
 657:Drivers/STM32H5xx_HAL_Driver/Src/stm32h5xx_ll_usb.c ****       }
 658:Drivers/STM32H5xx_HAL_Driver/Src/stm32h5xx_ll_usb.c ****     }
 659:Drivers/STM32H5xx_HAL_Driver/Src/stm32h5xx_ll_usb.c **** #endif /* (USE_USB_DOUBLE_BUFFER == 1U) */
 660:Drivers/STM32H5xx_HAL_Driver/Src/stm32h5xx_ll_usb.c **** 
 661:Drivers/STM32H5xx_HAL_Driver/Src/stm32h5xx_ll_usb.c ****     PCD_SET_EP_RX_STATUS(USBx, ep->num, USB_EP_RX_VALID);
 662:Drivers/STM32H5xx_HAL_Driver/Src/stm32h5xx_ll_usb.c ****   }
 663:Drivers/STM32H5xx_HAL_Driver/Src/stm32h5xx_ll_usb.c **** 
 664:Drivers/STM32H5xx_HAL_Driver/Src/stm32h5xx_ll_usb.c ****   return HAL_OK;
 665:Drivers/STM32H5xx_HAL_Driver/Src/stm32h5xx_ll_usb.c **** }
 666:Drivers/STM32H5xx_HAL_Driver/Src/stm32h5xx_ll_usb.c **** 
 667:Drivers/STM32H5xx_HAL_Driver/Src/stm32h5xx_ll_usb.c **** 
 668:Drivers/STM32H5xx_HAL_Driver/Src/stm32h5xx_ll_usb.c **** /**
 669:Drivers/STM32H5xx_HAL_Driver/Src/stm32h5xx_ll_usb.c ****   * @brief  USB_EPSetStall set a stall condition over an EP
 670:Drivers/STM32H5xx_HAL_Driver/Src/stm32h5xx_ll_usb.c ****   * @param  USBx Selected device
 671:Drivers/STM32H5xx_HAL_Driver/Src/stm32h5xx_ll_usb.c ****   * @param  ep pointer to endpoint structure
 672:Drivers/STM32H5xx_HAL_Driver/Src/stm32h5xx_ll_usb.c ****   * @retval HAL status
 673:Drivers/STM32H5xx_HAL_Driver/Src/stm32h5xx_ll_usb.c ****   */
 674:Drivers/STM32H5xx_HAL_Driver/Src/stm32h5xx_ll_usb.c **** HAL_StatusTypeDef USB_EPSetStall(USB_DRD_TypeDef *USBx, USB_DRD_EPTypeDef *ep)
ARM GAS  C:\Users\sapph\AppData\Local\Temp\cchEHrSS.s 			page 44


 675:Drivers/STM32H5xx_HAL_Driver/Src/stm32h5xx_ll_usb.c **** {
 1577              		.loc 1 675 1 is_stmt 1 view -0
 1578              		.cfi_startproc
 1579              		@ args = 0, pretend = 0, frame = 0
 1580              		@ frame_needed = 0, uses_anonymous_args = 0
 1581              		@ link register save eliminated.
 676:Drivers/STM32H5xx_HAL_Driver/Src/stm32h5xx_ll_usb.c ****   if (ep->is_in != 0U)
 1582              		.loc 1 676 3 view .LVU523
 1583              		.loc 1 676 9 is_stmt 0 view .LVU524
 1584 0000 4B78     		ldrb	r3, [r1, #1]	@ zero_extendqisi2
 1585              		.loc 1 676 6 view .LVU525
 1586 0002 73B1     		cbz	r3, .L66
 677:Drivers/STM32H5xx_HAL_Driver/Src/stm32h5xx_ll_usb.c ****   {
 678:Drivers/STM32H5xx_HAL_Driver/Src/stm32h5xx_ll_usb.c ****     PCD_SET_EP_TX_STATUS(USBx, ep->num, USB_EP_TX_STALL);
 1587              		.loc 1 678 5 is_stmt 1 view .LVU526
 1588              	.LBB48:
 1589              		.loc 1 678 5 view .LVU527
 1590              		.loc 1 678 5 view .LVU528
 1591 0004 0A78     		ldrb	r2, [r1]	@ zero_extendqisi2
 1592 0006 50F82210 		ldr	r1, [r0, r2, lsl #2]
 1593              	.LVL178:
 1594              		.loc 1 678 5 is_stmt 0 view .LVU529
 1595 000a 0D4B     		ldr	r3, .L68
 1596 000c 0B40     		ands	r3, r3, r1
 1597              	.LVL179:
 1598              		.loc 1 678 5 is_stmt 1 view .LVU530
 1599              		.loc 1 678 5 discriminator 1 view .LVU531
 1600 000e 83F01003 		eor	r3, r3, #16
 1601              	.LVL180:
 1602              		.loc 1 678 5 discriminator 3 view .LVU532
 1603              		.loc 1 678 5 discriminator 6 view .LVU533
 1604 0012 43F40043 		orr	r3, r3, #32768
 1605              	.LVL181:
 1606              		.loc 1 678 5 is_stmt 0 discriminator 6 view .LVU534
 1607 0016 43F08003 		orr	r3, r3, #128
 1608 001a 40F82230 		str	r3, [r0, r2, lsl #2]
 1609              	.LBE48:
 1610              		.loc 1 678 5 is_stmt 1 discriminator 6 view .LVU535
 1611              	.LVL182:
 1612              	.L67:
 679:Drivers/STM32H5xx_HAL_Driver/Src/stm32h5xx_ll_usb.c ****   }
 680:Drivers/STM32H5xx_HAL_Driver/Src/stm32h5xx_ll_usb.c ****   else
 681:Drivers/STM32H5xx_HAL_Driver/Src/stm32h5xx_ll_usb.c ****   {
 682:Drivers/STM32H5xx_HAL_Driver/Src/stm32h5xx_ll_usb.c ****     PCD_SET_EP_RX_STATUS(USBx, ep->num, USB_EP_RX_STALL);
 1613              		.loc 1 682 5 discriminator 7 view .LVU536
 683:Drivers/STM32H5xx_HAL_Driver/Src/stm32h5xx_ll_usb.c ****   }
 684:Drivers/STM32H5xx_HAL_Driver/Src/stm32h5xx_ll_usb.c **** 
 685:Drivers/STM32H5xx_HAL_Driver/Src/stm32h5xx_ll_usb.c ****   return HAL_OK;
 1614              		.loc 1 685 3 view .LVU537
 686:Drivers/STM32H5xx_HAL_Driver/Src/stm32h5xx_ll_usb.c **** }
 1615              		.loc 1 686 1 is_stmt 0 view .LVU538
 1616 001e 0020     		movs	r0, #0
 1617              	.LVL183:
 1618              		.loc 1 686 1 view .LVU539
 1619 0020 7047     		bx	lr
 1620              	.LVL184:
 1621              	.L66:
ARM GAS  C:\Users\sapph\AppData\Local\Temp\cchEHrSS.s 			page 45


 682:Drivers/STM32H5xx_HAL_Driver/Src/stm32h5xx_ll_usb.c ****   }
 1622              		.loc 1 682 5 is_stmt 1 view .LVU540
 1623              	.LBB49:
 682:Drivers/STM32H5xx_HAL_Driver/Src/stm32h5xx_ll_usb.c ****   }
 1624              		.loc 1 682 5 view .LVU541
 682:Drivers/STM32H5xx_HAL_Driver/Src/stm32h5xx_ll_usb.c ****   }
 1625              		.loc 1 682 5 view .LVU542
 1626 0022 0A78     		ldrb	r2, [r1]	@ zero_extendqisi2
 1627 0024 50F82210 		ldr	r1, [r0, r2, lsl #2]
 1628              	.LVL185:
 682:Drivers/STM32H5xx_HAL_Driver/Src/stm32h5xx_ll_usb.c ****   }
 1629              		.loc 1 682 5 is_stmt 0 view .LVU543
 1630 0028 064B     		ldr	r3, .L68+4
 1631 002a 0B40     		ands	r3, r3, r1
 1632              	.LVL186:
 682:Drivers/STM32H5xx_HAL_Driver/Src/stm32h5xx_ll_usb.c ****   }
 1633              		.loc 1 682 5 is_stmt 1 view .LVU544
 682:Drivers/STM32H5xx_HAL_Driver/Src/stm32h5xx_ll_usb.c ****   }
 1634              		.loc 1 682 5 discriminator 1 view .LVU545
 1635 002c 83F48053 		eor	r3, r3, #4096
 1636              	.LVL187:
 682:Drivers/STM32H5xx_HAL_Driver/Src/stm32h5xx_ll_usb.c ****   }
 1637              		.loc 1 682 5 discriminator 3 view .LVU546
 682:Drivers/STM32H5xx_HAL_Driver/Src/stm32h5xx_ll_usb.c ****   }
 1638              		.loc 1 682 5 discriminator 6 view .LVU547
 1639 0030 43F40043 		orr	r3, r3, #32768
 1640              	.LVL188:
 682:Drivers/STM32H5xx_HAL_Driver/Src/stm32h5xx_ll_usb.c ****   }
 1641              		.loc 1 682 5 is_stmt 0 discriminator 6 view .LVU548
 1642 0034 43F08003 		orr	r3, r3, #128
 1643 0038 40F82230 		str	r3, [r0, r2, lsl #2]
 1644 003c EFE7     		b	.L67
 1645              	.L69:
 1646 003e 00BF     		.align	2
 1647              	.L68:
 1648 0040 BF8FFF07 		.word	134188991
 1649 0044 8FBFFF07 		.word	134201231
 1650              	.LBE49:
 1651              		.cfi_endproc
 1652              	.LFE171:
 1654              		.section	.text.USB_EPClearStall,"ax",%progbits
 1655              		.align	1
 1656              		.global	USB_EPClearStall
 1657              		.syntax unified
 1658              		.thumb
 1659              		.thumb_func
 1661              	USB_EPClearStall:
 1662              	.LVL189:
 1663              	.LFB172:
 687:Drivers/STM32H5xx_HAL_Driver/Src/stm32h5xx_ll_usb.c **** 
 688:Drivers/STM32H5xx_HAL_Driver/Src/stm32h5xx_ll_usb.c **** /**
 689:Drivers/STM32H5xx_HAL_Driver/Src/stm32h5xx_ll_usb.c ****   * @brief  USB_EPClearStall Clear a stall condition over an EP
 690:Drivers/STM32H5xx_HAL_Driver/Src/stm32h5xx_ll_usb.c ****   * @param  USBx Selected device
 691:Drivers/STM32H5xx_HAL_Driver/Src/stm32h5xx_ll_usb.c ****   * @param  ep pointer to endpoint structure
 692:Drivers/STM32H5xx_HAL_Driver/Src/stm32h5xx_ll_usb.c ****   * @retval HAL status
 693:Drivers/STM32H5xx_HAL_Driver/Src/stm32h5xx_ll_usb.c ****   */
 694:Drivers/STM32H5xx_HAL_Driver/Src/stm32h5xx_ll_usb.c **** HAL_StatusTypeDef USB_EPClearStall(USB_DRD_TypeDef *USBx, USB_DRD_EPTypeDef *ep)
ARM GAS  C:\Users\sapph\AppData\Local\Temp\cchEHrSS.s 			page 46


 695:Drivers/STM32H5xx_HAL_Driver/Src/stm32h5xx_ll_usb.c **** {
 1664              		.loc 1 695 1 is_stmt 1 view -0
 1665              		.cfi_startproc
 1666              		@ args = 0, pretend = 0, frame = 0
 1667              		@ frame_needed = 0, uses_anonymous_args = 0
 1668              		@ link register save eliminated.
 696:Drivers/STM32H5xx_HAL_Driver/Src/stm32h5xx_ll_usb.c ****   if (ep->doublebuffer == 0U)
 1669              		.loc 1 696 3 view .LVU550
 1670              		.loc 1 696 9 is_stmt 0 view .LVU551
 1671 0000 0B7B     		ldrb	r3, [r1, #12]	@ zero_extendqisi2
 1672              		.loc 1 696 6 view .LVU552
 1673 0002 002B     		cmp	r3, #0
 1674 0004 44D1     		bne	.L76
 695:Drivers/STM32H5xx_HAL_Driver/Src/stm32h5xx_ll_usb.c ****   if (ep->doublebuffer == 0U)
 1675              		.loc 1 695 1 view .LVU553
 1676 0006 10B4     		push	{r4}
 1677              		.cfi_def_cfa_offset 4
 1678              		.cfi_offset 4, -4
 697:Drivers/STM32H5xx_HAL_Driver/Src/stm32h5xx_ll_usb.c ****   {
 698:Drivers/STM32H5xx_HAL_Driver/Src/stm32h5xx_ll_usb.c ****     if (ep->is_in != 0U)
 1679              		.loc 1 698 5 is_stmt 1 view .LVU554
 1680              		.loc 1 698 11 is_stmt 0 view .LVU555
 1681 0008 4B78     		ldrb	r3, [r1, #1]	@ zero_extendqisi2
 1682              		.loc 1 698 8 view .LVU556
 1683 000a 03B3     		cbz	r3, .L72
 699:Drivers/STM32H5xx_HAL_Driver/Src/stm32h5xx_ll_usb.c ****     {
 700:Drivers/STM32H5xx_HAL_Driver/Src/stm32h5xx_ll_usb.c ****       PCD_CLEAR_TX_DTOG(USBx, ep->num);
 1684              		.loc 1 700 7 is_stmt 1 view .LVU557
 1685              	.LBB50:
 1686              		.loc 1 700 7 view .LVU558
 1687              		.loc 1 700 7 view .LVU559
 1688 000c 0A78     		ldrb	r2, [r1]	@ zero_extendqisi2
 1689 000e 50F82230 		ldr	r3, [r0, r2, lsl #2]
 1690              	.LVL190:
 1691              		.loc 1 700 7 view .LVU560
 1692 0012 13F0400F 		tst	r3, #64
 1693 0016 09D0     		beq	.L73
 1694              		.loc 1 700 7 discriminator 1 view .LVU561
 1695              	.LBB51:
 1696              		.loc 1 700 7 discriminator 1 view .LVU562
 1697              		.loc 1 700 7 discriminator 1 view .LVU563
 1698 0018 50F82240 		ldr	r4, [r0, r2, lsl #2]
 1699 001c 1D4B     		ldr	r3, .L79
 1700              	.LVL191:
 1701              		.loc 1 700 7 is_stmt 0 discriminator 1 view .LVU564
 1702 001e 2340     		ands	r3, r3, r4
 1703              	.LVL192:
 1704              		.loc 1 700 7 is_stmt 1 discriminator 1 view .LVU565
 1705 0020 43F40043 		orr	r3, r3, #32768
 1706              	.LVL193:
 1707              		.loc 1 700 7 is_stmt 0 discriminator 1 view .LVU566
 1708 0024 43F0C003 		orr	r3, r3, #192
 1709 0028 40F82230 		str	r3, [r0, r2, lsl #2]
 1710              	.LVL194:
 1711              	.L73:
 1712              		.loc 1 700 7 discriminator 1 view .LVU567
 1713              	.LBE51:
ARM GAS  C:\Users\sapph\AppData\Local\Temp\cchEHrSS.s 			page 47


 1714              		.loc 1 700 7 is_stmt 1 discriminator 3 view .LVU568
 1715              	.LBE50:
 1716              		.loc 1 700 7 discriminator 3 view .LVU569
 701:Drivers/STM32H5xx_HAL_Driver/Src/stm32h5xx_ll_usb.c **** 
 702:Drivers/STM32H5xx_HAL_Driver/Src/stm32h5xx_ll_usb.c ****       if (ep->type != EP_TYPE_ISOC)
 1717              		.loc 1 702 7 view .LVU570
 1718              		.loc 1 702 13 is_stmt 0 view .LVU571
 1719 002c CB78     		ldrb	r3, [r1, #3]	@ zero_extendqisi2
 1720              		.loc 1 702 10 view .LVU572
 1721 002e 012B     		cmp	r3, #1
 1722 0030 2AD0     		beq	.L71
 703:Drivers/STM32H5xx_HAL_Driver/Src/stm32h5xx_ll_usb.c ****       {
 704:Drivers/STM32H5xx_HAL_Driver/Src/stm32h5xx_ll_usb.c ****         /* Configure NAK status for the Endpoint */
 705:Drivers/STM32H5xx_HAL_Driver/Src/stm32h5xx_ll_usb.c ****         PCD_SET_EP_TX_STATUS(USBx, ep->num, USB_EP_TX_NAK);
 1723              		.loc 1 705 9 is_stmt 1 view .LVU573
 1724              	.LBB52:
 1725              		.loc 1 705 9 view .LVU574
 1726              		.loc 1 705 9 view .LVU575
 1727 0032 0A78     		ldrb	r2, [r1]	@ zero_extendqisi2
 1728 0034 50F82210 		ldr	r1, [r0, r2, lsl #2]
 1729              	.LVL195:
 1730              		.loc 1 705 9 is_stmt 0 view .LVU576
 1731 0038 174B     		ldr	r3, .L79+4
 1732 003a 0B40     		ands	r3, r3, r1
 1733              	.LVL196:
 1734              		.loc 1 705 9 is_stmt 1 view .LVU577
 1735              		.loc 1 705 9 discriminator 3 view .LVU578
 1736              		.loc 1 705 9 discriminator 4 view .LVU579
 1737 003c 83F02003 		eor	r3, r3, #32
 1738              	.LVL197:
 1739              		.loc 1 705 9 discriminator 6 view .LVU580
 1740 0040 43F40043 		orr	r3, r3, #32768
 1741              	.LVL198:
 1742              		.loc 1 705 9 is_stmt 0 discriminator 6 view .LVU581
 1743 0044 43F08003 		orr	r3, r3, #128
 1744 0048 40F82230 		str	r3, [r0, r2, lsl #2]
 1745 004c 1CE0     		b	.L71
 1746              	.LVL199:
 1747              	.L72:
 1748              		.loc 1 705 9 discriminator 6 view .LVU582
 1749              	.LBE52:
 706:Drivers/STM32H5xx_HAL_Driver/Src/stm32h5xx_ll_usb.c ****       }
 707:Drivers/STM32H5xx_HAL_Driver/Src/stm32h5xx_ll_usb.c ****     }
 708:Drivers/STM32H5xx_HAL_Driver/Src/stm32h5xx_ll_usb.c ****     else
 709:Drivers/STM32H5xx_HAL_Driver/Src/stm32h5xx_ll_usb.c ****     {
 710:Drivers/STM32H5xx_HAL_Driver/Src/stm32h5xx_ll_usb.c ****       PCD_CLEAR_RX_DTOG(USBx, ep->num);
 1750              		.loc 1 710 7 is_stmt 1 view .LVU583
 1751              	.LBB53:
 1752              		.loc 1 710 7 view .LVU584
 1753              		.loc 1 710 7 view .LVU585
 1754 004e 0A78     		ldrb	r2, [r1]	@ zero_extendqisi2
 1755 0050 50F82230 		ldr	r3, [r0, r2, lsl #2]
 1756              	.LVL200:
 1757              		.loc 1 710 7 view .LVU586
 1758 0054 13F4804F 		tst	r3, #16384
 1759 0058 09D0     		beq	.L74
 1760              		.loc 1 710 7 discriminator 1 view .LVU587
ARM GAS  C:\Users\sapph\AppData\Local\Temp\cchEHrSS.s 			page 48


 1761              	.LBB54:
 1762              		.loc 1 710 7 discriminator 1 view .LVU588
 1763              		.loc 1 710 7 discriminator 1 view .LVU589
 1764 005a 50F82240 		ldr	r4, [r0, r2, lsl #2]
 1765 005e 0D4B     		ldr	r3, .L79
 1766              	.LVL201:
 1767              		.loc 1 710 7 is_stmt 0 discriminator 1 view .LVU590
 1768 0060 2340     		ands	r3, r3, r4
 1769              	.LVL202:
 1770              		.loc 1 710 7 is_stmt 1 discriminator 1 view .LVU591
 1771 0062 43F44043 		orr	r3, r3, #49152
 1772              	.LVL203:
 1773              		.loc 1 710 7 is_stmt 0 discriminator 1 view .LVU592
 1774 0066 43F08003 		orr	r3, r3, #128
 1775 006a 40F82230 		str	r3, [r0, r2, lsl #2]
 1776              	.LVL204:
 1777              	.L74:
 1778              		.loc 1 710 7 discriminator 1 view .LVU593
 1779              	.LBE54:
 1780              		.loc 1 710 7 is_stmt 1 discriminator 3 view .LVU594
 1781              	.LBE53:
 1782              		.loc 1 710 7 discriminator 3 view .LVU595
 711:Drivers/STM32H5xx_HAL_Driver/Src/stm32h5xx_ll_usb.c **** 
 712:Drivers/STM32H5xx_HAL_Driver/Src/stm32h5xx_ll_usb.c ****       /* Configure VALID status for the Endpoint */
 713:Drivers/STM32H5xx_HAL_Driver/Src/stm32h5xx_ll_usb.c ****       PCD_SET_EP_RX_STATUS(USBx, ep->num, USB_EP_RX_VALID);
 1783              		.loc 1 713 7 view .LVU596
 1784              	.LBB55:
 1785              		.loc 1 713 7 view .LVU597
 1786              		.loc 1 713 7 view .LVU598
 1787 006e 0A78     		ldrb	r2, [r1]	@ zero_extendqisi2
 1788 0070 50F82210 		ldr	r1, [r0, r2, lsl #2]
 1789              	.LVL205:
 1790              		.loc 1 713 7 is_stmt 0 view .LVU599
 1791 0074 094B     		ldr	r3, .L79+8
 1792 0076 0B40     		ands	r3, r3, r1
 1793              	.LVL206:
 1794              		.loc 1 713 7 is_stmt 1 view .LVU600
 1795              		.loc 1 713 7 discriminator 1 view .LVU601
 1796              		.loc 1 713 7 discriminator 3 view .LVU602
 1797              		.loc 1 713 7 discriminator 4 view .LVU603
 1798 0078 83F44053 		eor	r3, r3, #12288
 1799              	.LVL207:
 1800              		.loc 1 713 7 discriminator 6 view .LVU604
 1801 007c 43F40043 		orr	r3, r3, #32768
 1802              	.LVL208:
 1803              		.loc 1 713 7 is_stmt 0 discriminator 6 view .LVU605
 1804 0080 43F08003 		orr	r3, r3, #128
 1805 0084 40F82230 		str	r3, [r0, r2, lsl #2]
 1806              	.LVL209:
 1807              	.L71:
 1808              		.loc 1 713 7 discriminator 6 view .LVU606
 1809              	.LBE55:
 1810              		.loc 1 713 7 is_stmt 1 discriminator 7 view .LVU607
 714:Drivers/STM32H5xx_HAL_Driver/Src/stm32h5xx_ll_usb.c ****     }
 715:Drivers/STM32H5xx_HAL_Driver/Src/stm32h5xx_ll_usb.c ****   }
 716:Drivers/STM32H5xx_HAL_Driver/Src/stm32h5xx_ll_usb.c **** 
 717:Drivers/STM32H5xx_HAL_Driver/Src/stm32h5xx_ll_usb.c ****   return HAL_OK;
ARM GAS  C:\Users\sapph\AppData\Local\Temp\cchEHrSS.s 			page 49


 1811              		.loc 1 717 3 view .LVU608
 718:Drivers/STM32H5xx_HAL_Driver/Src/stm32h5xx_ll_usb.c **** }
 1812              		.loc 1 718 1 is_stmt 0 view .LVU609
 1813 0088 0020     		movs	r0, #0
 1814              	.LVL210:
 1815              		.loc 1 718 1 view .LVU610
 1816 008a 5DF8044B 		ldr	r4, [sp], #4
 1817              		.cfi_restore 4
 1818              		.cfi_def_cfa_offset 0
 1819 008e 7047     		bx	lr
 1820              	.LVL211:
 1821              	.L76:
 713:Drivers/STM32H5xx_HAL_Driver/Src/stm32h5xx_ll_usb.c ****     }
 1822              		.loc 1 713 7 is_stmt 1 discriminator 7 view .LVU611
 717:Drivers/STM32H5xx_HAL_Driver/Src/stm32h5xx_ll_usb.c **** }
 1823              		.loc 1 717 3 view .LVU612
 1824              		.loc 1 718 1 is_stmt 0 view .LVU613
 1825 0090 0020     		movs	r0, #0
 1826              	.LVL212:
 1827              		.loc 1 718 1 view .LVU614
 1828 0092 7047     		bx	lr
 1829              	.L80:
 1830              		.align	2
 1831              	.L79:
 1832 0094 8F8FFF07 		.word	134188943
 1833 0098 BF8FFF07 		.word	134188991
 1834 009c 8FBFFF07 		.word	134201231
 1835              		.cfi_endproc
 1836              	.LFE172:
 1838              		.section	.text.USB_EPStopXfer,"ax",%progbits
 1839              		.align	1
 1840              		.global	USB_EPStopXfer
 1841              		.syntax unified
 1842              		.thumb
 1843              		.thumb_func
 1845              	USB_EPStopXfer:
 1846              	.LVL213:
 1847              	.LFB173:
 719:Drivers/STM32H5xx_HAL_Driver/Src/stm32h5xx_ll_usb.c **** 
 720:Drivers/STM32H5xx_HAL_Driver/Src/stm32h5xx_ll_usb.c **** /**
 721:Drivers/STM32H5xx_HAL_Driver/Src/stm32h5xx_ll_usb.c ****    * @brief  USB_EPStoptXfer  Stop transfer on an EP
 722:Drivers/STM32H5xx_HAL_Driver/Src/stm32h5xx_ll_usb.c ****    * @param  USBx  usb device instance
 723:Drivers/STM32H5xx_HAL_Driver/Src/stm32h5xx_ll_usb.c ****    * @param  ep pointer to endpoint structure
 724:Drivers/STM32H5xx_HAL_Driver/Src/stm32h5xx_ll_usb.c ****    * @retval HAL status
 725:Drivers/STM32H5xx_HAL_Driver/Src/stm32h5xx_ll_usb.c ****    */
 726:Drivers/STM32H5xx_HAL_Driver/Src/stm32h5xx_ll_usb.c **** HAL_StatusTypeDef USB_EPStopXfer(USB_DRD_TypeDef *USBx, USB_DRD_EPTypeDef *ep)
 727:Drivers/STM32H5xx_HAL_Driver/Src/stm32h5xx_ll_usb.c **** {
 1848              		.loc 1 727 1 is_stmt 1 view -0
 1849              		.cfi_startproc
 1850              		@ args = 0, pretend = 0, frame = 0
 1851              		@ frame_needed = 0, uses_anonymous_args = 0
 1852              		@ link register save eliminated.
 728:Drivers/STM32H5xx_HAL_Driver/Src/stm32h5xx_ll_usb.c ****   /* IN endpoint */
 729:Drivers/STM32H5xx_HAL_Driver/Src/stm32h5xx_ll_usb.c ****   if (ep->is_in == 1U)
 1853              		.loc 1 729 3 view .LVU616
 1854              		.loc 1 729 9 is_stmt 0 view .LVU617
 1855 0000 4B78     		ldrb	r3, [r1, #1]	@ zero_extendqisi2
ARM GAS  C:\Users\sapph\AppData\Local\Temp\cchEHrSS.s 			page 50


 1856              		.loc 1 729 6 view .LVU618
 1857 0002 012B     		cmp	r3, #1
 1858 0004 13D0     		beq	.L86
 730:Drivers/STM32H5xx_HAL_Driver/Src/stm32h5xx_ll_usb.c ****   {
 731:Drivers/STM32H5xx_HAL_Driver/Src/stm32h5xx_ll_usb.c ****     if (ep->doublebuffer == 0U)
 732:Drivers/STM32H5xx_HAL_Driver/Src/stm32h5xx_ll_usb.c ****     {
 733:Drivers/STM32H5xx_HAL_Driver/Src/stm32h5xx_ll_usb.c ****       if (ep->type != EP_TYPE_ISOC)
 734:Drivers/STM32H5xx_HAL_Driver/Src/stm32h5xx_ll_usb.c ****       {
 735:Drivers/STM32H5xx_HAL_Driver/Src/stm32h5xx_ll_usb.c ****         /* Configure NAK status for the Endpoint */
 736:Drivers/STM32H5xx_HAL_Driver/Src/stm32h5xx_ll_usb.c ****         PCD_SET_EP_TX_STATUS(USBx, ep->num, USB_EP_TX_NAK);
 737:Drivers/STM32H5xx_HAL_Driver/Src/stm32h5xx_ll_usb.c ****       }
 738:Drivers/STM32H5xx_HAL_Driver/Src/stm32h5xx_ll_usb.c ****       else
 739:Drivers/STM32H5xx_HAL_Driver/Src/stm32h5xx_ll_usb.c ****       {
 740:Drivers/STM32H5xx_HAL_Driver/Src/stm32h5xx_ll_usb.c ****         /* Configure TX Endpoint to disabled state */
 741:Drivers/STM32H5xx_HAL_Driver/Src/stm32h5xx_ll_usb.c ****         PCD_SET_EP_TX_STATUS(USBx, ep->num, USB_EP_TX_DIS);
 742:Drivers/STM32H5xx_HAL_Driver/Src/stm32h5xx_ll_usb.c ****       }
 743:Drivers/STM32H5xx_HAL_Driver/Src/stm32h5xx_ll_usb.c ****     }
 744:Drivers/STM32H5xx_HAL_Driver/Src/stm32h5xx_ll_usb.c ****   }
 745:Drivers/STM32H5xx_HAL_Driver/Src/stm32h5xx_ll_usb.c ****   else /* OUT endpoint */
 746:Drivers/STM32H5xx_HAL_Driver/Src/stm32h5xx_ll_usb.c ****   {
 747:Drivers/STM32H5xx_HAL_Driver/Src/stm32h5xx_ll_usb.c ****     if (ep->doublebuffer == 0U)
 1859              		.loc 1 747 5 is_stmt 1 view .LVU619
 1860              		.loc 1 747 11 is_stmt 0 view .LVU620
 1861 0006 0B7B     		ldrb	r3, [r1, #12]	@ zero_extendqisi2
 1862              		.loc 1 747 8 view .LVU621
 1863 0008 7BB9     		cbnz	r3, .L83
 748:Drivers/STM32H5xx_HAL_Driver/Src/stm32h5xx_ll_usb.c ****     {
 749:Drivers/STM32H5xx_HAL_Driver/Src/stm32h5xx_ll_usb.c ****       if (ep->type != EP_TYPE_ISOC)
 1864              		.loc 1 749 7 is_stmt 1 view .LVU622
 1865              		.loc 1 749 13 is_stmt 0 view .LVU623
 1866 000a CB78     		ldrb	r3, [r1, #3]	@ zero_extendqisi2
 1867              		.loc 1 749 10 view .LVU624
 1868 000c 012B     		cmp	r3, #1
 1869 000e 2ED0     		beq	.L85
 750:Drivers/STM32H5xx_HAL_Driver/Src/stm32h5xx_ll_usb.c ****       {
 751:Drivers/STM32H5xx_HAL_Driver/Src/stm32h5xx_ll_usb.c ****         /* Configure NAK status for the Endpoint */
 752:Drivers/STM32H5xx_HAL_Driver/Src/stm32h5xx_ll_usb.c ****         PCD_SET_EP_RX_STATUS(USBx, ep->num, USB_EP_RX_NAK);
 1870              		.loc 1 752 9 is_stmt 1 view .LVU625
 1871              	.LBB56:
 1872              		.loc 1 752 9 view .LVU626
 1873              		.loc 1 752 9 view .LVU627
 1874 0010 0A78     		ldrb	r2, [r1]	@ zero_extendqisi2
 1875 0012 50F82210 		ldr	r1, [r0, r2, lsl #2]
 1876              	.LVL214:
 1877              		.loc 1 752 9 is_stmt 0 view .LVU628
 1878 0016 1C4B     		ldr	r3, .L87
 1879 0018 0B40     		ands	r3, r3, r1
 1880              	.LVL215:
 1881              		.loc 1 752 9 is_stmt 1 view .LVU629
 1882              		.loc 1 752 9 discriminator 3 view .LVU630
 1883              		.loc 1 752 9 discriminator 4 view .LVU631
 1884 001a 83F40053 		eor	r3, r3, #8192
 1885              	.LVL216:
 1886              		.loc 1 752 9 discriminator 6 view .LVU632
 1887 001e 43F40043 		orr	r3, r3, #32768
 1888              	.LVL217:
 1889              		.loc 1 752 9 is_stmt 0 discriminator 6 view .LVU633
ARM GAS  C:\Users\sapph\AppData\Local\Temp\cchEHrSS.s 			page 51


 1890 0022 43F08003 		orr	r3, r3, #128
 1891 0026 40F82230 		str	r3, [r0, r2, lsl #2]
 1892              	.LBE56:
 1893              		.loc 1 752 9 is_stmt 1 discriminator 6 view .LVU634
 1894              	.LVL218:
 1895              	.L83:
 753:Drivers/STM32H5xx_HAL_Driver/Src/stm32h5xx_ll_usb.c ****       }
 754:Drivers/STM32H5xx_HAL_Driver/Src/stm32h5xx_ll_usb.c ****       else
 755:Drivers/STM32H5xx_HAL_Driver/Src/stm32h5xx_ll_usb.c ****       {
 756:Drivers/STM32H5xx_HAL_Driver/Src/stm32h5xx_ll_usb.c ****         /* Configure RX Endpoint to disabled state */
 757:Drivers/STM32H5xx_HAL_Driver/Src/stm32h5xx_ll_usb.c ****         PCD_SET_EP_RX_STATUS(USBx, ep->num, USB_EP_RX_DIS);
 1896              		.loc 1 757 9 discriminator 7 view .LVU635
 758:Drivers/STM32H5xx_HAL_Driver/Src/stm32h5xx_ll_usb.c ****       }
 759:Drivers/STM32H5xx_HAL_Driver/Src/stm32h5xx_ll_usb.c ****     }
 760:Drivers/STM32H5xx_HAL_Driver/Src/stm32h5xx_ll_usb.c ****   }
 761:Drivers/STM32H5xx_HAL_Driver/Src/stm32h5xx_ll_usb.c **** 
 762:Drivers/STM32H5xx_HAL_Driver/Src/stm32h5xx_ll_usb.c ****   return HAL_OK;
 1897              		.loc 1 762 3 view .LVU636
 763:Drivers/STM32H5xx_HAL_Driver/Src/stm32h5xx_ll_usb.c **** }
 1898              		.loc 1 763 1 is_stmt 0 view .LVU637
 1899 002a 0020     		movs	r0, #0
 1900              	.LVL219:
 1901              		.loc 1 763 1 view .LVU638
 1902 002c 7047     		bx	lr
 1903              	.LVL220:
 1904              	.L86:
 731:Drivers/STM32H5xx_HAL_Driver/Src/stm32h5xx_ll_usb.c ****     {
 1905              		.loc 1 731 5 is_stmt 1 view .LVU639
 731:Drivers/STM32H5xx_HAL_Driver/Src/stm32h5xx_ll_usb.c ****     {
 1906              		.loc 1 731 11 is_stmt 0 view .LVU640
 1907 002e 0B7B     		ldrb	r3, [r1, #12]	@ zero_extendqisi2
 731:Drivers/STM32H5xx_HAL_Driver/Src/stm32h5xx_ll_usb.c ****     {
 1908              		.loc 1 731 8 view .LVU641
 1909 0030 002B     		cmp	r3, #0
 1910 0032 FAD1     		bne	.L83
 733:Drivers/STM32H5xx_HAL_Driver/Src/stm32h5xx_ll_usb.c ****       {
 1911              		.loc 1 733 7 is_stmt 1 view .LVU642
 733:Drivers/STM32H5xx_HAL_Driver/Src/stm32h5xx_ll_usb.c ****       {
 1912              		.loc 1 733 13 is_stmt 0 view .LVU643
 1913 0034 CB78     		ldrb	r3, [r1, #3]	@ zero_extendqisi2
 733:Drivers/STM32H5xx_HAL_Driver/Src/stm32h5xx_ll_usb.c ****       {
 1914              		.loc 1 733 10 view .LVU644
 1915 0036 012B     		cmp	r3, #1
 1916 0038 0DD0     		beq	.L84
 736:Drivers/STM32H5xx_HAL_Driver/Src/stm32h5xx_ll_usb.c ****       }
 1917              		.loc 1 736 9 is_stmt 1 view .LVU645
 1918              	.LBB57:
 736:Drivers/STM32H5xx_HAL_Driver/Src/stm32h5xx_ll_usb.c ****       }
 1919              		.loc 1 736 9 view .LVU646
 736:Drivers/STM32H5xx_HAL_Driver/Src/stm32h5xx_ll_usb.c ****       }
 1920              		.loc 1 736 9 view .LVU647
 1921 003a 0A78     		ldrb	r2, [r1]	@ zero_extendqisi2
 1922 003c 50F82210 		ldr	r1, [r0, r2, lsl #2]
 1923              	.LVL221:
 736:Drivers/STM32H5xx_HAL_Driver/Src/stm32h5xx_ll_usb.c ****       }
 1924              		.loc 1 736 9 is_stmt 0 view .LVU648
 1925 0040 124B     		ldr	r3, .L87+4
ARM GAS  C:\Users\sapph\AppData\Local\Temp\cchEHrSS.s 			page 52


 1926 0042 0B40     		ands	r3, r3, r1
 1927              	.LVL222:
 736:Drivers/STM32H5xx_HAL_Driver/Src/stm32h5xx_ll_usb.c ****       }
 1928              		.loc 1 736 9 is_stmt 1 view .LVU649
 736:Drivers/STM32H5xx_HAL_Driver/Src/stm32h5xx_ll_usb.c ****       }
 1929              		.loc 1 736 9 discriminator 3 view .LVU650
 736:Drivers/STM32H5xx_HAL_Driver/Src/stm32h5xx_ll_usb.c ****       }
 1930              		.loc 1 736 9 discriminator 4 view .LVU651
 1931 0044 83F02003 		eor	r3, r3, #32
 1932              	.LVL223:
 736:Drivers/STM32H5xx_HAL_Driver/Src/stm32h5xx_ll_usb.c ****       }
 1933              		.loc 1 736 9 discriminator 6 view .LVU652
 1934 0048 43F40043 		orr	r3, r3, #32768
 1935              	.LVL224:
 736:Drivers/STM32H5xx_HAL_Driver/Src/stm32h5xx_ll_usb.c ****       }
 1936              		.loc 1 736 9 is_stmt 0 discriminator 6 view .LVU653
 1937 004c 43F08003 		orr	r3, r3, #128
 1938 0050 40F82230 		str	r3, [r0, r2, lsl #2]
 1939              	.LBE57:
 736:Drivers/STM32H5xx_HAL_Driver/Src/stm32h5xx_ll_usb.c ****       }
 1940              		.loc 1 736 9 is_stmt 1 discriminator 6 view .LVU654
 1941 0054 E9E7     		b	.L83
 1942              	.LVL225:
 1943              	.L84:
 741:Drivers/STM32H5xx_HAL_Driver/Src/stm32h5xx_ll_usb.c ****       }
 1944              		.loc 1 741 9 view .LVU655
 1945              	.LBB58:
 741:Drivers/STM32H5xx_HAL_Driver/Src/stm32h5xx_ll_usb.c ****       }
 1946              		.loc 1 741 9 view .LVU656
 741:Drivers/STM32H5xx_HAL_Driver/Src/stm32h5xx_ll_usb.c ****       }
 1947              		.loc 1 741 9 view .LVU657
 1948 0056 0A78     		ldrb	r2, [r1]	@ zero_extendqisi2
 1949 0058 50F82210 		ldr	r1, [r0, r2, lsl #2]
 1950              	.LVL226:
 741:Drivers/STM32H5xx_HAL_Driver/Src/stm32h5xx_ll_usb.c ****       }
 1951              		.loc 1 741 9 is_stmt 0 view .LVU658
 1952 005c 0B4B     		ldr	r3, .L87+4
 1953 005e 0B40     		ands	r3, r3, r1
 1954              	.LVL227:
 741:Drivers/STM32H5xx_HAL_Driver/Src/stm32h5xx_ll_usb.c ****       }
 1955              		.loc 1 741 9 is_stmt 1 view .LVU659
 741:Drivers/STM32H5xx_HAL_Driver/Src/stm32h5xx_ll_usb.c ****       }
 1956              		.loc 1 741 9 discriminator 3 view .LVU660
 741:Drivers/STM32H5xx_HAL_Driver/Src/stm32h5xx_ll_usb.c ****       }
 1957              		.loc 1 741 9 discriminator 6 view .LVU661
 1958 0060 43F40043 		orr	r3, r3, #32768
 1959              	.LVL228:
 741:Drivers/STM32H5xx_HAL_Driver/Src/stm32h5xx_ll_usb.c ****       }
 1960              		.loc 1 741 9 is_stmt 0 discriminator 6 view .LVU662
 1961 0064 43F08003 		orr	r3, r3, #128
 1962 0068 40F82230 		str	r3, [r0, r2, lsl #2]
 1963 006c DDE7     		b	.L83
 1964              	.LVL229:
 1965              	.L85:
 741:Drivers/STM32H5xx_HAL_Driver/Src/stm32h5xx_ll_usb.c ****       }
 1966              		.loc 1 741 9 discriminator 6 view .LVU663
 1967              	.LBE58:
ARM GAS  C:\Users\sapph\AppData\Local\Temp\cchEHrSS.s 			page 53


 757:Drivers/STM32H5xx_HAL_Driver/Src/stm32h5xx_ll_usb.c ****       }
 1968              		.loc 1 757 9 is_stmt 1 view .LVU664
 1969              	.LBB59:
 757:Drivers/STM32H5xx_HAL_Driver/Src/stm32h5xx_ll_usb.c ****       }
 1970              		.loc 1 757 9 view .LVU665
 757:Drivers/STM32H5xx_HAL_Driver/Src/stm32h5xx_ll_usb.c ****       }
 1971              		.loc 1 757 9 view .LVU666
 1972 006e 0A78     		ldrb	r2, [r1]	@ zero_extendqisi2
 1973 0070 50F82210 		ldr	r1, [r0, r2, lsl #2]
 1974              	.LVL230:
 757:Drivers/STM32H5xx_HAL_Driver/Src/stm32h5xx_ll_usb.c ****       }
 1975              		.loc 1 757 9 is_stmt 0 view .LVU667
 1976 0074 044B     		ldr	r3, .L87
 1977 0076 0B40     		ands	r3, r3, r1
 1978              	.LVL231:
 757:Drivers/STM32H5xx_HAL_Driver/Src/stm32h5xx_ll_usb.c ****       }
 1979              		.loc 1 757 9 is_stmt 1 view .LVU668
 757:Drivers/STM32H5xx_HAL_Driver/Src/stm32h5xx_ll_usb.c ****       }
 1980              		.loc 1 757 9 discriminator 3 view .LVU669
 757:Drivers/STM32H5xx_HAL_Driver/Src/stm32h5xx_ll_usb.c ****       }
 1981              		.loc 1 757 9 discriminator 6 view .LVU670
 1982 0078 43F40043 		orr	r3, r3, #32768
 1983              	.LVL232:
 757:Drivers/STM32H5xx_HAL_Driver/Src/stm32h5xx_ll_usb.c ****       }
 1984              		.loc 1 757 9 is_stmt 0 discriminator 6 view .LVU671
 1985 007c 43F08003 		orr	r3, r3, #128
 1986 0080 40F82230 		str	r3, [r0, r2, lsl #2]
 1987 0084 D1E7     		b	.L83
 1988              	.L88:
 1989 0086 00BF     		.align	2
 1990              	.L87:
 1991 0088 8FBFFF07 		.word	134201231
 1992 008c BF8FFF07 		.word	134188991
 1993              	.LBE59:
 1994              		.cfi_endproc
 1995              	.LFE173:
 1997              		.section	.text.USB_StopDevice,"ax",%progbits
 1998              		.align	1
 1999              		.global	USB_StopDevice
 2000              		.syntax unified
 2001              		.thumb
 2002              		.thumb_func
 2004              	USB_StopDevice:
 2005              	.LVL233:
 2006              	.LFB174:
 764:Drivers/STM32H5xx_HAL_Driver/Src/stm32h5xx_ll_usb.c **** #endif /* defined (HAL_PCD_MODULE_ENABLED) */
 765:Drivers/STM32H5xx_HAL_Driver/Src/stm32h5xx_ll_usb.c **** 
 766:Drivers/STM32H5xx_HAL_Driver/Src/stm32h5xx_ll_usb.c **** /**
 767:Drivers/STM32H5xx_HAL_Driver/Src/stm32h5xx_ll_usb.c ****   * @brief  USB_StopDevice Stop the usb device mode
 768:Drivers/STM32H5xx_HAL_Driver/Src/stm32h5xx_ll_usb.c ****   * @param  USBx Selected device
 769:Drivers/STM32H5xx_HAL_Driver/Src/stm32h5xx_ll_usb.c ****   * @retval HAL status
 770:Drivers/STM32H5xx_HAL_Driver/Src/stm32h5xx_ll_usb.c ****   */
 771:Drivers/STM32H5xx_HAL_Driver/Src/stm32h5xx_ll_usb.c **** HAL_StatusTypeDef USB_StopDevice(USB_DRD_TypeDef *USBx)
 772:Drivers/STM32H5xx_HAL_Driver/Src/stm32h5xx_ll_usb.c **** {
 2007              		.loc 1 772 1 is_stmt 1 view -0
 2008              		.cfi_startproc
 2009              		@ args = 0, pretend = 0, frame = 0
ARM GAS  C:\Users\sapph\AppData\Local\Temp\cchEHrSS.s 			page 54


 2010              		@ frame_needed = 0, uses_anonymous_args = 0
 2011              		@ link register save eliminated.
 2012              		.loc 1 772 1 is_stmt 0 view .LVU673
 2013 0000 0346     		mov	r3, r0
 773:Drivers/STM32H5xx_HAL_Driver/Src/stm32h5xx_ll_usb.c ****   /* disable all interrupts and force USB reset */
 774:Drivers/STM32H5xx_HAL_Driver/Src/stm32h5xx_ll_usb.c ****   USBx->CNTR = USB_CNTR_USBRST;
 2014              		.loc 1 774 3 is_stmt 1 view .LVU674
 2015              		.loc 1 774 14 is_stmt 0 view .LVU675
 2016 0002 0122     		movs	r2, #1
 2017 0004 0264     		str	r2, [r0, #64]
 775:Drivers/STM32H5xx_HAL_Driver/Src/stm32h5xx_ll_usb.c **** 
 776:Drivers/STM32H5xx_HAL_Driver/Src/stm32h5xx_ll_usb.c ****   /* clear interrupt status register */
 777:Drivers/STM32H5xx_HAL_Driver/Src/stm32h5xx_ll_usb.c ****   USBx->ISTR = 0U;
 2018              		.loc 1 777 3 is_stmt 1 view .LVU676
 2019              		.loc 1 777 14 is_stmt 0 view .LVU677
 2020 0006 0020     		movs	r0, #0
 2021              	.LVL234:
 2022              		.loc 1 777 14 view .LVU678
 2023 0008 5864     		str	r0, [r3, #68]
 778:Drivers/STM32H5xx_HAL_Driver/Src/stm32h5xx_ll_usb.c **** 
 779:Drivers/STM32H5xx_HAL_Driver/Src/stm32h5xx_ll_usb.c ****   /* switch-off device */
 780:Drivers/STM32H5xx_HAL_Driver/Src/stm32h5xx_ll_usb.c ****   USBx->CNTR = (USB_CNTR_USBRST | USB_CNTR_PDWN);
 2024              		.loc 1 780 3 is_stmt 1 view .LVU679
 2025              		.loc 1 780 14 is_stmt 0 view .LVU680
 2026 000a 0322     		movs	r2, #3
 2027 000c 1A64     		str	r2, [r3, #64]
 781:Drivers/STM32H5xx_HAL_Driver/Src/stm32h5xx_ll_usb.c **** 
 782:Drivers/STM32H5xx_HAL_Driver/Src/stm32h5xx_ll_usb.c ****   return HAL_OK;
 2028              		.loc 1 782 3 is_stmt 1 view .LVU681
 783:Drivers/STM32H5xx_HAL_Driver/Src/stm32h5xx_ll_usb.c **** }
 2029              		.loc 1 783 1 is_stmt 0 view .LVU682
 2030 000e 7047     		bx	lr
 2031              		.cfi_endproc
 2032              	.LFE174:
 2034              		.section	.text.USB_SetDevAddress,"ax",%progbits
 2035              		.align	1
 2036              		.global	USB_SetDevAddress
 2037              		.syntax unified
 2038              		.thumb
 2039              		.thumb_func
 2041              	USB_SetDevAddress:
 2042              	.LVL235:
 2043              	.LFB175:
 784:Drivers/STM32H5xx_HAL_Driver/Src/stm32h5xx_ll_usb.c **** 
 785:Drivers/STM32H5xx_HAL_Driver/Src/stm32h5xx_ll_usb.c **** /**
 786:Drivers/STM32H5xx_HAL_Driver/Src/stm32h5xx_ll_usb.c ****   * @brief  USB_SetDevAddress Stop the usb device mode
 787:Drivers/STM32H5xx_HAL_Driver/Src/stm32h5xx_ll_usb.c ****   * @param  USBx Selected device
 788:Drivers/STM32H5xx_HAL_Driver/Src/stm32h5xx_ll_usb.c ****   * @param  address new device address to be assigned
 789:Drivers/STM32H5xx_HAL_Driver/Src/stm32h5xx_ll_usb.c ****   *          This parameter can be a value from 0 to 255
 790:Drivers/STM32H5xx_HAL_Driver/Src/stm32h5xx_ll_usb.c ****   * @retval HAL status
 791:Drivers/STM32H5xx_HAL_Driver/Src/stm32h5xx_ll_usb.c ****   */
 792:Drivers/STM32H5xx_HAL_Driver/Src/stm32h5xx_ll_usb.c **** HAL_StatusTypeDef  USB_SetDevAddress(USB_DRD_TypeDef *USBx, uint8_t address)
 793:Drivers/STM32H5xx_HAL_Driver/Src/stm32h5xx_ll_usb.c **** {
 2044              		.loc 1 793 1 is_stmt 1 view -0
 2045              		.cfi_startproc
 2046              		@ args = 0, pretend = 0, frame = 0
 2047              		@ frame_needed = 0, uses_anonymous_args = 0
ARM GAS  C:\Users\sapph\AppData\Local\Temp\cchEHrSS.s 			page 55


 2048              		@ link register save eliminated.
 794:Drivers/STM32H5xx_HAL_Driver/Src/stm32h5xx_ll_usb.c ****   if (address == 0U)
 2049              		.loc 1 794 3 view .LVU684
 2050              		.loc 1 794 6 is_stmt 0 view .LVU685
 2051 0000 09B9     		cbnz	r1, .L91
 795:Drivers/STM32H5xx_HAL_Driver/Src/stm32h5xx_ll_usb.c ****   {
 796:Drivers/STM32H5xx_HAL_Driver/Src/stm32h5xx_ll_usb.c ****     /* set device address and enable function */
 797:Drivers/STM32H5xx_HAL_Driver/Src/stm32h5xx_ll_usb.c ****     USBx->DADDR = USB_DADDR_EF;
 2052              		.loc 1 797 5 is_stmt 1 view .LVU686
 2053              		.loc 1 797 17 is_stmt 0 view .LVU687
 2054 0002 8023     		movs	r3, #128
 2055 0004 C364     		str	r3, [r0, #76]
 2056              	.L91:
 798:Drivers/STM32H5xx_HAL_Driver/Src/stm32h5xx_ll_usb.c ****   }
 799:Drivers/STM32H5xx_HAL_Driver/Src/stm32h5xx_ll_usb.c **** 
 800:Drivers/STM32H5xx_HAL_Driver/Src/stm32h5xx_ll_usb.c ****   return HAL_OK;
 2057              		.loc 1 800 3 is_stmt 1 view .LVU688
 801:Drivers/STM32H5xx_HAL_Driver/Src/stm32h5xx_ll_usb.c **** }
 2058              		.loc 1 801 1 is_stmt 0 view .LVU689
 2059 0006 0020     		movs	r0, #0
 2060              	.LVL236:
 2061              		.loc 1 801 1 view .LVU690
 2062 0008 7047     		bx	lr
 2063              		.cfi_endproc
 2064              	.LFE175:
 2066              		.section	.text.USB_DevConnect,"ax",%progbits
 2067              		.align	1
 2068              		.global	USB_DevConnect
 2069              		.syntax unified
 2070              		.thumb
 2071              		.thumb_func
 2073              	USB_DevConnect:
 2074              	.LVL237:
 2075              	.LFB176:
 802:Drivers/STM32H5xx_HAL_Driver/Src/stm32h5xx_ll_usb.c **** 
 803:Drivers/STM32H5xx_HAL_Driver/Src/stm32h5xx_ll_usb.c **** /**
 804:Drivers/STM32H5xx_HAL_Driver/Src/stm32h5xx_ll_usb.c ****   * @brief  USB_DevConnect Connect the USB device by enabling the pull-up/pull-down
 805:Drivers/STM32H5xx_HAL_Driver/Src/stm32h5xx_ll_usb.c ****   * @param  USBx Selected device
 806:Drivers/STM32H5xx_HAL_Driver/Src/stm32h5xx_ll_usb.c ****   * @retval HAL status
 807:Drivers/STM32H5xx_HAL_Driver/Src/stm32h5xx_ll_usb.c ****   */
 808:Drivers/STM32H5xx_HAL_Driver/Src/stm32h5xx_ll_usb.c **** HAL_StatusTypeDef  USB_DevConnect(USB_DRD_TypeDef *USBx)
 809:Drivers/STM32H5xx_HAL_Driver/Src/stm32h5xx_ll_usb.c **** {
 2076              		.loc 1 809 1 is_stmt 1 view -0
 2077              		.cfi_startproc
 2078              		@ args = 0, pretend = 0, frame = 0
 2079              		@ frame_needed = 0, uses_anonymous_args = 0
 2080              		@ link register save eliminated.
 810:Drivers/STM32H5xx_HAL_Driver/Src/stm32h5xx_ll_usb.c ****   /* Enabling DP Pull-UP bit to Connect internal PU resistor on USB DP line */
 811:Drivers/STM32H5xx_HAL_Driver/Src/stm32h5xx_ll_usb.c ****   USBx->BCDR |= USB_BCDR_DPPU;
 2081              		.loc 1 811 3 view .LVU692
 2082              		.loc 1 811 7 is_stmt 0 view .LVU693
 2083 0000 836D     		ldr	r3, [r0, #88]
 2084              		.loc 1 811 14 view .LVU694
 2085 0002 43F40043 		orr	r3, r3, #32768
 2086 0006 8365     		str	r3, [r0, #88]
 812:Drivers/STM32H5xx_HAL_Driver/Src/stm32h5xx_ll_usb.c **** 
 813:Drivers/STM32H5xx_HAL_Driver/Src/stm32h5xx_ll_usb.c ****   return HAL_OK;
ARM GAS  C:\Users\sapph\AppData\Local\Temp\cchEHrSS.s 			page 56


 2087              		.loc 1 813 3 is_stmt 1 view .LVU695
 814:Drivers/STM32H5xx_HAL_Driver/Src/stm32h5xx_ll_usb.c **** }
 2088              		.loc 1 814 1 is_stmt 0 view .LVU696
 2089 0008 0020     		movs	r0, #0
 2090              	.LVL238:
 2091              		.loc 1 814 1 view .LVU697
 2092 000a 7047     		bx	lr
 2093              		.cfi_endproc
 2094              	.LFE176:
 2096              		.section	.text.USB_DevDisconnect,"ax",%progbits
 2097              		.align	1
 2098              		.global	USB_DevDisconnect
 2099              		.syntax unified
 2100              		.thumb
 2101              		.thumb_func
 2103              	USB_DevDisconnect:
 2104              	.LVL239:
 2105              	.LFB177:
 815:Drivers/STM32H5xx_HAL_Driver/Src/stm32h5xx_ll_usb.c **** 
 816:Drivers/STM32H5xx_HAL_Driver/Src/stm32h5xx_ll_usb.c **** /**
 817:Drivers/STM32H5xx_HAL_Driver/Src/stm32h5xx_ll_usb.c ****   * @brief  USB_DevDisconnect Disconnect the USB device by disabling the pull-up/pull-down
 818:Drivers/STM32H5xx_HAL_Driver/Src/stm32h5xx_ll_usb.c ****   * @param  USBx Selected device
 819:Drivers/STM32H5xx_HAL_Driver/Src/stm32h5xx_ll_usb.c ****   * @retval HAL status
 820:Drivers/STM32H5xx_HAL_Driver/Src/stm32h5xx_ll_usb.c ****   */
 821:Drivers/STM32H5xx_HAL_Driver/Src/stm32h5xx_ll_usb.c **** HAL_StatusTypeDef  USB_DevDisconnect(USB_DRD_TypeDef *USBx)
 822:Drivers/STM32H5xx_HAL_Driver/Src/stm32h5xx_ll_usb.c **** {
 2106              		.loc 1 822 1 is_stmt 1 view -0
 2107              		.cfi_startproc
 2108              		@ args = 0, pretend = 0, frame = 0
 2109              		@ frame_needed = 0, uses_anonymous_args = 0
 2110              		@ link register save eliminated.
 823:Drivers/STM32H5xx_HAL_Driver/Src/stm32h5xx_ll_usb.c ****   /* Disable DP Pull-Up bit to disconnect the Internal PU resistor on USB DP line */
 824:Drivers/STM32H5xx_HAL_Driver/Src/stm32h5xx_ll_usb.c ****   USBx->BCDR &= ~(USB_BCDR_DPPU);
 2111              		.loc 1 824 3 view .LVU699
 2112              		.loc 1 824 7 is_stmt 0 view .LVU700
 2113 0000 836D     		ldr	r3, [r0, #88]
 2114              		.loc 1 824 14 view .LVU701
 2115 0002 23F40043 		bic	r3, r3, #32768
 2116 0006 8365     		str	r3, [r0, #88]
 825:Drivers/STM32H5xx_HAL_Driver/Src/stm32h5xx_ll_usb.c **** 
 826:Drivers/STM32H5xx_HAL_Driver/Src/stm32h5xx_ll_usb.c ****   return HAL_OK;
 2117              		.loc 1 826 3 is_stmt 1 view .LVU702
 827:Drivers/STM32H5xx_HAL_Driver/Src/stm32h5xx_ll_usb.c **** }
 2118              		.loc 1 827 1 is_stmt 0 view .LVU703
 2119 0008 0020     		movs	r0, #0
 2120              	.LVL240:
 2121              		.loc 1 827 1 view .LVU704
 2122 000a 7047     		bx	lr
 2123              		.cfi_endproc
 2124              	.LFE177:
 2126              		.section	.text.USB_ReadInterrupts,"ax",%progbits
 2127              		.align	1
 2128              		.global	USB_ReadInterrupts
 2129              		.syntax unified
 2130              		.thumb
 2131              		.thumb_func
 2133              	USB_ReadInterrupts:
ARM GAS  C:\Users\sapph\AppData\Local\Temp\cchEHrSS.s 			page 57


 2134              	.LVL241:
 2135              	.LFB178:
 828:Drivers/STM32H5xx_HAL_Driver/Src/stm32h5xx_ll_usb.c **** 
 829:Drivers/STM32H5xx_HAL_Driver/Src/stm32h5xx_ll_usb.c **** /**
 830:Drivers/STM32H5xx_HAL_Driver/Src/stm32h5xx_ll_usb.c ****   * @brief  USB_ReadInterrupts return the global USB interrupt status
 831:Drivers/STM32H5xx_HAL_Driver/Src/stm32h5xx_ll_usb.c ****   * @param  USBx Selected device
 832:Drivers/STM32H5xx_HAL_Driver/Src/stm32h5xx_ll_usb.c ****   * @retval USB Global Interrupt status
 833:Drivers/STM32H5xx_HAL_Driver/Src/stm32h5xx_ll_usb.c ****   */
 834:Drivers/STM32H5xx_HAL_Driver/Src/stm32h5xx_ll_usb.c **** uint32_t USB_ReadInterrupts(USB_DRD_TypeDef const *USBx)
 835:Drivers/STM32H5xx_HAL_Driver/Src/stm32h5xx_ll_usb.c **** {
 2136              		.loc 1 835 1 is_stmt 1 view -0
 2137              		.cfi_startproc
 2138              		@ args = 0, pretend = 0, frame = 0
 2139              		@ frame_needed = 0, uses_anonymous_args = 0
 2140              		@ link register save eliminated.
 836:Drivers/STM32H5xx_HAL_Driver/Src/stm32h5xx_ll_usb.c ****   uint32_t tmpreg;
 2141              		.loc 1 836 3 view .LVU706
 837:Drivers/STM32H5xx_HAL_Driver/Src/stm32h5xx_ll_usb.c **** 
 838:Drivers/STM32H5xx_HAL_Driver/Src/stm32h5xx_ll_usb.c ****   tmpreg = USBx->ISTR;
 2142              		.loc 1 838 3 view .LVU707
 2143              		.loc 1 838 10 is_stmt 0 view .LVU708
 2144 0000 406C     		ldr	r0, [r0, #68]
 2145              	.LVL242:
 839:Drivers/STM32H5xx_HAL_Driver/Src/stm32h5xx_ll_usb.c ****   return tmpreg;
 2146              		.loc 1 839 3 is_stmt 1 view .LVU709
 840:Drivers/STM32H5xx_HAL_Driver/Src/stm32h5xx_ll_usb.c **** }
 2147              		.loc 1 840 1 is_stmt 0 view .LVU710
 2148 0002 7047     		bx	lr
 2149              		.cfi_endproc
 2150              	.LFE178:
 2152              		.section	.text.USB_ActivateRemoteWakeup,"ax",%progbits
 2153              		.align	1
 2154              		.global	USB_ActivateRemoteWakeup
 2155              		.syntax unified
 2156              		.thumb
 2157              		.thumb_func
 2159              	USB_ActivateRemoteWakeup:
 2160              	.LVL243:
 2161              	.LFB179:
 841:Drivers/STM32H5xx_HAL_Driver/Src/stm32h5xx_ll_usb.c **** 
 842:Drivers/STM32H5xx_HAL_Driver/Src/stm32h5xx_ll_usb.c **** /**
 843:Drivers/STM32H5xx_HAL_Driver/Src/stm32h5xx_ll_usb.c ****   * @brief  USB_ActivateRemoteWakeup : active remote wakeup signalling
 844:Drivers/STM32H5xx_HAL_Driver/Src/stm32h5xx_ll_usb.c ****   * @param  USBx Selected device
 845:Drivers/STM32H5xx_HAL_Driver/Src/stm32h5xx_ll_usb.c ****   * @retval HAL status
 846:Drivers/STM32H5xx_HAL_Driver/Src/stm32h5xx_ll_usb.c ****   */
 847:Drivers/STM32H5xx_HAL_Driver/Src/stm32h5xx_ll_usb.c **** HAL_StatusTypeDef USB_ActivateRemoteWakeup(USB_DRD_TypeDef *USBx)
 848:Drivers/STM32H5xx_HAL_Driver/Src/stm32h5xx_ll_usb.c **** {
 2162              		.loc 1 848 1 is_stmt 1 view -0
 2163              		.cfi_startproc
 2164              		@ args = 0, pretend = 0, frame = 0
 2165              		@ frame_needed = 0, uses_anonymous_args = 0
 2166              		@ link register save eliminated.
 849:Drivers/STM32H5xx_HAL_Driver/Src/stm32h5xx_ll_usb.c ****   USBx->CNTR |= USB_CNTR_L2RES;
 2167              		.loc 1 849 3 view .LVU712
 2168              		.loc 1 849 7 is_stmt 0 view .LVU713
 2169 0000 036C     		ldr	r3, [r0, #64]
 2170              		.loc 1 849 14 view .LVU714
ARM GAS  C:\Users\sapph\AppData\Local\Temp\cchEHrSS.s 			page 58


 2171 0002 43F01003 		orr	r3, r3, #16
 2172 0006 0364     		str	r3, [r0, #64]
 850:Drivers/STM32H5xx_HAL_Driver/Src/stm32h5xx_ll_usb.c **** 
 851:Drivers/STM32H5xx_HAL_Driver/Src/stm32h5xx_ll_usb.c ****   return HAL_OK;
 2173              		.loc 1 851 3 is_stmt 1 view .LVU715
 852:Drivers/STM32H5xx_HAL_Driver/Src/stm32h5xx_ll_usb.c **** }
 2174              		.loc 1 852 1 is_stmt 0 view .LVU716
 2175 0008 0020     		movs	r0, #0
 2176              	.LVL244:
 2177              		.loc 1 852 1 view .LVU717
 2178 000a 7047     		bx	lr
 2179              		.cfi_endproc
 2180              	.LFE179:
 2182              		.section	.text.USB_DeActivateRemoteWakeup,"ax",%progbits
 2183              		.align	1
 2184              		.global	USB_DeActivateRemoteWakeup
 2185              		.syntax unified
 2186              		.thumb
 2187              		.thumb_func
 2189              	USB_DeActivateRemoteWakeup:
 2190              	.LVL245:
 2191              	.LFB180:
 853:Drivers/STM32H5xx_HAL_Driver/Src/stm32h5xx_ll_usb.c **** 
 854:Drivers/STM32H5xx_HAL_Driver/Src/stm32h5xx_ll_usb.c **** /**
 855:Drivers/STM32H5xx_HAL_Driver/Src/stm32h5xx_ll_usb.c ****   * @brief  USB_DeActivateRemoteWakeup de-active remote wakeup signalling
 856:Drivers/STM32H5xx_HAL_Driver/Src/stm32h5xx_ll_usb.c ****   * @param  USBx Selected device
 857:Drivers/STM32H5xx_HAL_Driver/Src/stm32h5xx_ll_usb.c ****   * @retval HAL status
 858:Drivers/STM32H5xx_HAL_Driver/Src/stm32h5xx_ll_usb.c ****   */
 859:Drivers/STM32H5xx_HAL_Driver/Src/stm32h5xx_ll_usb.c **** HAL_StatusTypeDef USB_DeActivateRemoteWakeup(USB_DRD_TypeDef *USBx)
 860:Drivers/STM32H5xx_HAL_Driver/Src/stm32h5xx_ll_usb.c **** {
 2192              		.loc 1 860 1 is_stmt 1 view -0
 2193              		.cfi_startproc
 2194              		@ args = 0, pretend = 0, frame = 0
 2195              		@ frame_needed = 0, uses_anonymous_args = 0
 2196              		@ link register save eliminated.
 861:Drivers/STM32H5xx_HAL_Driver/Src/stm32h5xx_ll_usb.c ****   USBx->CNTR &= ~USB_CNTR_L2RES;
 2197              		.loc 1 861 3 view .LVU719
 2198              		.loc 1 861 7 is_stmt 0 view .LVU720
 2199 0000 036C     		ldr	r3, [r0, #64]
 2200              		.loc 1 861 14 view .LVU721
 2201 0002 23F01003 		bic	r3, r3, #16
 2202 0006 0364     		str	r3, [r0, #64]
 862:Drivers/STM32H5xx_HAL_Driver/Src/stm32h5xx_ll_usb.c **** 
 863:Drivers/STM32H5xx_HAL_Driver/Src/stm32h5xx_ll_usb.c ****   return HAL_OK;
 2203              		.loc 1 863 3 is_stmt 1 view .LVU722
 864:Drivers/STM32H5xx_HAL_Driver/Src/stm32h5xx_ll_usb.c **** }
 2204              		.loc 1 864 1 is_stmt 0 view .LVU723
 2205 0008 0020     		movs	r0, #0
 2206              	.LVL246:
 2207              		.loc 1 864 1 view .LVU724
 2208 000a 7047     		bx	lr
 2209              		.cfi_endproc
 2210              	.LFE180:
 2212              		.section	.text.USB_WritePMA,"ax",%progbits
 2213              		.align	1
 2214              		.global	USB_WritePMA
 2215              		.syntax unified
ARM GAS  C:\Users\sapph\AppData\Local\Temp\cchEHrSS.s 			page 59


 2216              		.thumb
 2217              		.thumb_func
 2219              	USB_WritePMA:
 2220              	.LVL247:
 2221              	.LFB181:
 865:Drivers/STM32H5xx_HAL_Driver/Src/stm32h5xx_ll_usb.c **** 
 866:Drivers/STM32H5xx_HAL_Driver/Src/stm32h5xx_ll_usb.c **** /**
 867:Drivers/STM32H5xx_HAL_Driver/Src/stm32h5xx_ll_usb.c ****   * @brief Copy a buffer from user memory area to packet memory area (PMA)
 868:Drivers/STM32H5xx_HAL_Driver/Src/stm32h5xx_ll_usb.c ****   * @param   USBx USB peripheral instance register address.
 869:Drivers/STM32H5xx_HAL_Driver/Src/stm32h5xx_ll_usb.c ****   * @param   pbUsrBuf pointer to user memory area.
 870:Drivers/STM32H5xx_HAL_Driver/Src/stm32h5xx_ll_usb.c ****   * @param   wPMABufAddr address into PMA.
 871:Drivers/STM32H5xx_HAL_Driver/Src/stm32h5xx_ll_usb.c ****   * @param   wNBytes no. of bytes to be copied.
 872:Drivers/STM32H5xx_HAL_Driver/Src/stm32h5xx_ll_usb.c ****   * @retval None
 873:Drivers/STM32H5xx_HAL_Driver/Src/stm32h5xx_ll_usb.c ****   */
 874:Drivers/STM32H5xx_HAL_Driver/Src/stm32h5xx_ll_usb.c **** void USB_WritePMA(USB_DRD_TypeDef const *USBx, uint8_t *pbUsrBuf, uint16_t wPMABufAddr, uint16_t wN
 875:Drivers/STM32H5xx_HAL_Driver/Src/stm32h5xx_ll_usb.c **** {
 2222              		.loc 1 875 1 is_stmt 1 view -0
 2223              		.cfi_startproc
 2224              		@ args = 0, pretend = 0, frame = 0
 2225              		@ frame_needed = 0, uses_anonymous_args = 0
 2226              		.loc 1 875 1 is_stmt 0 view .LVU726
 2227 0000 10B5     		push	{r4, lr}
 2228              		.cfi_def_cfa_offset 8
 2229              		.cfi_offset 4, -8
 2230              		.cfi_offset 14, -4
 876:Drivers/STM32H5xx_HAL_Driver/Src/stm32h5xx_ll_usb.c ****   UNUSED(USBx);
 2231              		.loc 1 876 3 is_stmt 1 view .LVU727
 877:Drivers/STM32H5xx_HAL_Driver/Src/stm32h5xx_ll_usb.c ****   uint32_t WrVal;
 2232              		.loc 1 877 3 view .LVU728
 878:Drivers/STM32H5xx_HAL_Driver/Src/stm32h5xx_ll_usb.c ****   uint32_t count;
 2233              		.loc 1 878 3 view .LVU729
 879:Drivers/STM32H5xx_HAL_Driver/Src/stm32h5xx_ll_usb.c ****   __IO uint32_t *pdwVal;
 2234              		.loc 1 879 3 view .LVU730
 880:Drivers/STM32H5xx_HAL_Driver/Src/stm32h5xx_ll_usb.c ****   uint32_t NbWords = ((uint32_t)wNBytes + 3U) >> 2U;
 2235              		.loc 1 880 3 view .LVU731
 2236              		.loc 1 880 41 is_stmt 0 view .LVU732
 2237 0002 D81C     		adds	r0, r3, #3
 2238              	.LVL248:
 2239              		.loc 1 880 12 view .LVU733
 2240 0004 8008     		lsrs	r0, r0, #2
 2241              	.LVL249:
 881:Drivers/STM32H5xx_HAL_Driver/Src/stm32h5xx_ll_usb.c ****   /* Due to the PMA access 32bit only so the last non word data should be processed alone */
 882:Drivers/STM32H5xx_HAL_Driver/Src/stm32h5xx_ll_usb.c ****   uint16_t remaining_bytes = wNBytes % 4U;
 2242              		.loc 1 882 3 is_stmt 1 view .LVU734
 883:Drivers/STM32H5xx_HAL_Driver/Src/stm32h5xx_ll_usb.c ****   uint8_t *pBuf = pbUsrBuf;
 2243              		.loc 1 883 3 view .LVU735
 884:Drivers/STM32H5xx_HAL_Driver/Src/stm32h5xx_ll_usb.c **** 
 885:Drivers/STM32H5xx_HAL_Driver/Src/stm32h5xx_ll_usb.c ****   /* Check if there is a remaining byte */
 886:Drivers/STM32H5xx_HAL_Driver/Src/stm32h5xx_ll_usb.c ****   if (remaining_bytes != 0U)
 2244              		.loc 1 886 3 view .LVU736
 2245              		.loc 1 886 6 is_stmt 0 view .LVU737
 2246 0006 13F00303 		ands	r3, r3, #3
 2247              	.LVL250:
 2248              		.loc 1 886 6 view .LVU738
 2249 000a 00D0     		beq	.L98
 887:Drivers/STM32H5xx_HAL_Driver/Src/stm32h5xx_ll_usb.c ****   {
 888:Drivers/STM32H5xx_HAL_Driver/Src/stm32h5xx_ll_usb.c ****     NbWords--;
ARM GAS  C:\Users\sapph\AppData\Local\Temp\cchEHrSS.s 			page 60


 2250              		.loc 1 888 5 is_stmt 1 view .LVU739
 2251              		.loc 1 888 12 is_stmt 0 view .LVU740
 2252 000c 0138     		subs	r0, r0, #1
 2253              	.LVL251:
 2254              	.L98:
 889:Drivers/STM32H5xx_HAL_Driver/Src/stm32h5xx_ll_usb.c ****   }
 890:Drivers/STM32H5xx_HAL_Driver/Src/stm32h5xx_ll_usb.c **** 
 891:Drivers/STM32H5xx_HAL_Driver/Src/stm32h5xx_ll_usb.c ****   /* Get the PMA Buffer pointer */
 892:Drivers/STM32H5xx_HAL_Driver/Src/stm32h5xx_ll_usb.c ****   pdwVal = (__IO uint32_t *)(USB_DRD_PMAADDR + (uint32_t)wPMABufAddr);
 2255              		.loc 1 892 3 is_stmt 1 view .LVU741
 2256              		.loc 1 892 46 is_stmt 0 view .LVU742
 2257 000e 02F18042 		add	r2, r2, #1073741824
 2258              	.LVL252:
 2259              		.loc 1 892 46 view .LVU743
 2260 0012 02F5B232 		add	r2, r2, #91136
 2261              	.LVL253:
 893:Drivers/STM32H5xx_HAL_Driver/Src/stm32h5xx_ll_usb.c **** 
 894:Drivers/STM32H5xx_HAL_Driver/Src/stm32h5xx_ll_usb.c ****   /* Write the Calculated Word into the PMA related Buffer */
 895:Drivers/STM32H5xx_HAL_Driver/Src/stm32h5xx_ll_usb.c ****   for (count = NbWords; count != 0U; count--)
 2262              		.loc 1 895 3 is_stmt 1 view .LVU744
 2263              		.loc 1 895 3 is_stmt 0 view .LVU745
 2264 0016 04E0     		b	.L99
 2265              	.LVL254:
 2266              	.L100:
 896:Drivers/STM32H5xx_HAL_Driver/Src/stm32h5xx_ll_usb.c ****   {
 897:Drivers/STM32H5xx_HAL_Driver/Src/stm32h5xx_ll_usb.c ****     *pdwVal = __UNALIGNED_UINT32_READ(pBuf);
 2267              		.loc 1 897 5 is_stmt 1 view .LVU746
 2268              		.loc 1 897 15 is_stmt 0 view .LVU747
 2269 0018 51F8044B 		ldr	r4, [r1], #4	@ unaligned
 2270              	.LVL255:
 2271              		.loc 1 897 13 view .LVU748
 2272 001c 42F8044B 		str	r4, [r2], #4
 2273              	.LVL256:
 898:Drivers/STM32H5xx_HAL_Driver/Src/stm32h5xx_ll_usb.c ****     pdwVal++;
 2274              		.loc 1 898 5 is_stmt 1 view .LVU749
 899:Drivers/STM32H5xx_HAL_Driver/Src/stm32h5xx_ll_usb.c ****     /* Increment pBuf 4 Time as Word Increment */
 900:Drivers/STM32H5xx_HAL_Driver/Src/stm32h5xx_ll_usb.c ****     pBuf++;
 2275              		.loc 1 900 5 view .LVU750
 901:Drivers/STM32H5xx_HAL_Driver/Src/stm32h5xx_ll_usb.c ****     pBuf++;
 2276              		.loc 1 901 5 view .LVU751
 902:Drivers/STM32H5xx_HAL_Driver/Src/stm32h5xx_ll_usb.c ****     pBuf++;
 2277              		.loc 1 902 5 view .LVU752
 903:Drivers/STM32H5xx_HAL_Driver/Src/stm32h5xx_ll_usb.c ****     pBuf++;
 2278              		.loc 1 903 5 view .LVU753
 895:Drivers/STM32H5xx_HAL_Driver/Src/stm32h5xx_ll_usb.c ****   {
 2279              		.loc 1 895 43 discriminator 3 view .LVU754
 2280 0020 0138     		subs	r0, r0, #1
 2281              	.LVL257:
 2282              	.L99:
 895:Drivers/STM32H5xx_HAL_Driver/Src/stm32h5xx_ll_usb.c ****   {
 2283              		.loc 1 895 31 discriminator 1 view .LVU755
 2284 0022 0028     		cmp	r0, #0
 2285 0024 F8D1     		bne	.L100
 904:Drivers/STM32H5xx_HAL_Driver/Src/stm32h5xx_ll_usb.c ****   }
 905:Drivers/STM32H5xx_HAL_Driver/Src/stm32h5xx_ll_usb.c **** 
 906:Drivers/STM32H5xx_HAL_Driver/Src/stm32h5xx_ll_usb.c ****   /* When Number of data is not word aligned, write the remaining Byte */
 907:Drivers/STM32H5xx_HAL_Driver/Src/stm32h5xx_ll_usb.c ****   if (remaining_bytes != 0U)
ARM GAS  C:\Users\sapph\AppData\Local\Temp\cchEHrSS.s 			page 61


 2286              		.loc 1 907 3 view .LVU756
 2287              		.loc 1 907 6 is_stmt 0 view .LVU757
 2288 0026 73B1     		cbz	r3, .L97
 2289 0028 0446     		mov	r4, r0
 2290              	.LVL258:
 2291              	.L102:
 908:Drivers/STM32H5xx_HAL_Driver/Src/stm32h5xx_ll_usb.c ****   {
 909:Drivers/STM32H5xx_HAL_Driver/Src/stm32h5xx_ll_usb.c ****     WrVal = 0U;
 910:Drivers/STM32H5xx_HAL_Driver/Src/stm32h5xx_ll_usb.c **** 
 911:Drivers/STM32H5xx_HAL_Driver/Src/stm32h5xx_ll_usb.c ****     do
 2292              		.loc 1 911 5 is_stmt 1 view .LVU758
 912:Drivers/STM32H5xx_HAL_Driver/Src/stm32h5xx_ll_usb.c ****     {
 913:Drivers/STM32H5xx_HAL_Driver/Src/stm32h5xx_ll_usb.c ****       WrVal |= (uint32_t)(*(uint8_t *)pBuf) << (8U * count);
 2293              		.loc 1 913 7 view .LVU759
 2294              		.loc 1 913 27 is_stmt 0 view .LVU760
 2295 002a 11F801CB 		ldrb	ip, [r1], #1	@ zero_extendqisi2
 2296              	.LVL259:
 2297              		.loc 1 913 52 view .LVU761
 2298 002e 4FEAC40E 		lsl	lr, r4, #3
 2299              		.loc 1 913 45 view .LVU762
 2300 0032 0CFA0EFC 		lsl	ip, ip, lr
 2301              		.loc 1 913 13 view .LVU763
 2302 0036 40EA0C00 		orr	r0, r0, ip
 2303              	.LVL260:
 914:Drivers/STM32H5xx_HAL_Driver/Src/stm32h5xx_ll_usb.c ****       count++;
 2304              		.loc 1 914 7 is_stmt 1 view .LVU764
 2305              		.loc 1 914 12 is_stmt 0 view .LVU765
 2306 003a 0134     		adds	r4, r4, #1
 2307              	.LVL261:
 915:Drivers/STM32H5xx_HAL_Driver/Src/stm32h5xx_ll_usb.c ****       pBuf++;
 2308              		.loc 1 915 7 is_stmt 1 view .LVU766
 916:Drivers/STM32H5xx_HAL_Driver/Src/stm32h5xx_ll_usb.c ****       remaining_bytes--;
 2309              		.loc 1 916 7 view .LVU767
 2310              		.loc 1 916 22 is_stmt 0 view .LVU768
 2311 003c 013B     		subs	r3, r3, #1
 2312              	.LVL262:
 2313              		.loc 1 916 22 view .LVU769
 2314 003e 9BB2     		uxth	r3, r3
 2315              	.LVL263:
 917:Drivers/STM32H5xx_HAL_Driver/Src/stm32h5xx_ll_usb.c ****     } while (remaining_bytes != 0U);
 2316              		.loc 1 917 30 is_stmt 1 discriminator 1 view .LVU770
 2317 0040 002B     		cmp	r3, #0
 2318 0042 F2D1     		bne	.L102
 918:Drivers/STM32H5xx_HAL_Driver/Src/stm32h5xx_ll_usb.c **** 
 919:Drivers/STM32H5xx_HAL_Driver/Src/stm32h5xx_ll_usb.c ****     *pdwVal = WrVal;
 2319              		.loc 1 919 5 view .LVU771
 2320              		.loc 1 919 13 is_stmt 0 view .LVU772
 2321 0044 1060     		str	r0, [r2]
 2322              	.LVL264:
 2323              	.L97:
 920:Drivers/STM32H5xx_HAL_Driver/Src/stm32h5xx_ll_usb.c ****   }
 921:Drivers/STM32H5xx_HAL_Driver/Src/stm32h5xx_ll_usb.c **** }
 2324              		.loc 1 921 1 view .LVU773
 2325 0046 10BD     		pop	{r4, pc}
 2326              		.cfi_endproc
 2327              	.LFE181:
 2329              		.section	.text.USB_EPStartXfer,"ax",%progbits
ARM GAS  C:\Users\sapph\AppData\Local\Temp\cchEHrSS.s 			page 62


 2330              		.align	1
 2331              		.global	USB_EPStartXfer
 2332              		.syntax unified
 2333              		.thumb
 2334              		.thumb_func
 2336              	USB_EPStartXfer:
 2337              	.LVL265:
 2338              	.LFB170:
 455:Drivers/STM32H5xx_HAL_Driver/Src/stm32h5xx_ll_usb.c ****   uint32_t len;
 2339              		.loc 1 455 1 is_stmt 1 view -0
 2340              		.cfi_startproc
 2341              		@ args = 0, pretend = 0, frame = 0
 2342              		@ frame_needed = 0, uses_anonymous_args = 0
 455:Drivers/STM32H5xx_HAL_Driver/Src/stm32h5xx_ll_usb.c ****   uint32_t len;
 2343              		.loc 1 455 1 is_stmt 0 view .LVU775
 2344 0000 70B5     		push	{r4, r5, r6, lr}
 2345              		.cfi_def_cfa_offset 16
 2346              		.cfi_offset 4, -16
 2347              		.cfi_offset 5, -12
 2348              		.cfi_offset 6, -8
 2349              		.cfi_offset 14, -4
 2350 0002 0546     		mov	r5, r0
 2351 0004 0C46     		mov	r4, r1
 456:Drivers/STM32H5xx_HAL_Driver/Src/stm32h5xx_ll_usb.c **** #if (USE_USB_DOUBLE_BUFFER == 1U)
 2352              		.loc 1 456 3 is_stmt 1 view .LVU776
 458:Drivers/STM32H5xx_HAL_Driver/Src/stm32h5xx_ll_usb.c ****   uint16_t wEPVal;
 2353              		.loc 1 458 3 view .LVU777
 459:Drivers/STM32H5xx_HAL_Driver/Src/stm32h5xx_ll_usb.c **** #endif /* (USE_USB_DOUBLE_BUFFER == 1U) */
 2354              		.loc 1 459 3 view .LVU778
 463:Drivers/STM32H5xx_HAL_Driver/Src/stm32h5xx_ll_usb.c ****   {
 2355              		.loc 1 463 3 view .LVU779
 463:Drivers/STM32H5xx_HAL_Driver/Src/stm32h5xx_ll_usb.c ****   {
 2356              		.loc 1 463 9 is_stmt 0 view .LVU780
 2357 0006 4B78     		ldrb	r3, [r1, #1]	@ zero_extendqisi2
 463:Drivers/STM32H5xx_HAL_Driver/Src/stm32h5xx_ll_usb.c ****   {
 2358              		.loc 1 463 6 view .LVU781
 2359 0008 012B     		cmp	r3, #1
 2360 000a 30D0     		beq	.L189
 599:Drivers/STM32H5xx_HAL_Driver/Src/stm32h5xx_ll_usb.c ****     {
 2361              		.loc 1 599 5 is_stmt 1 view .LVU782
 599:Drivers/STM32H5xx_HAL_Driver/Src/stm32h5xx_ll_usb.c ****     {
 2362              		.loc 1 599 11 is_stmt 0 view .LVU783
 2363 000c 0A7B     		ldrb	r2, [r1, #12]	@ zero_extendqisi2
 599:Drivers/STM32H5xx_HAL_Driver/Src/stm32h5xx_ll_usb.c ****     {
 2364              		.loc 1 599 8 view .LVU784
 2365 000e 002A     		cmp	r2, #0
 2366 0010 40F0FC82 		bne	.L154
 602:Drivers/STM32H5xx_HAL_Driver/Src/stm32h5xx_ll_usb.c ****       {
 2367              		.loc 1 602 7 is_stmt 1 view .LVU785
 602:Drivers/STM32H5xx_HAL_Driver/Src/stm32h5xx_ll_usb.c ****       {
 2368              		.loc 1 602 13 is_stmt 0 view .LVU786
 2369 0014 8B69     		ldr	r3, [r1, #24]
 602:Drivers/STM32H5xx_HAL_Driver/Src/stm32h5xx_ll_usb.c ****       {
 2370              		.loc 1 602 28 view .LVU787
 2371 0016 0A69     		ldr	r2, [r1, #16]
 602:Drivers/STM32H5xx_HAL_Driver/Src/stm32h5xx_ll_usb.c ****       {
 2372              		.loc 1 602 10 view .LVU788
ARM GAS  C:\Users\sapph\AppData\Local\Temp\cchEHrSS.s 			page 63


 2373 0018 9342     		cmp	r3, r2
 2374 001a 40F2CF82 		bls	.L155
 604:Drivers/STM32H5xx_HAL_Driver/Src/stm32h5xx_ll_usb.c ****         ep->xfer_len -= len;
 2375              		.loc 1 604 9 is_stmt 1 view .LVU789
 2376              	.LVL266:
 605:Drivers/STM32H5xx_HAL_Driver/Src/stm32h5xx_ll_usb.c ****       }
 2377              		.loc 1 605 9 view .LVU790
 605:Drivers/STM32H5xx_HAL_Driver/Src/stm32h5xx_ll_usb.c ****       }
 2378              		.loc 1 605 22 is_stmt 0 view .LVU791
 2379 001e 9B1A     		subs	r3, r3, r2
 2380 0020 8B61     		str	r3, [r1, #24]
 2381              	.L156:
 613:Drivers/STM32H5xx_HAL_Driver/Src/stm32h5xx_ll_usb.c ****     }
 2382              		.loc 1 613 7 is_stmt 1 view .LVU792
 2383              	.LBB60:
 613:Drivers/STM32H5xx_HAL_Driver/Src/stm32h5xx_ll_usb.c ****     }
 2384              		.loc 1 613 7 view .LVU793
 613:Drivers/STM32H5xx_HAL_Driver/Src/stm32h5xx_ll_usb.c ****     }
 2385              		.loc 1 613 7 view .LVU794
 2386 0022 2378     		ldrb	r3, [r4]	@ zero_extendqisi2
 2387 0024 DB00     		lsls	r3, r3, #3
 2388 0026 03F18043 		add	r3, r3, #1073741824
 2389 002a 03F5B233 		add	r3, r3, #91136
 2390 002e 5968     		ldr	r1, [r3, #4]
 2391              	.LVL267:
 613:Drivers/STM32H5xx_HAL_Driver/Src/stm32h5xx_ll_usb.c ****     }
 2392              		.loc 1 613 7 is_stmt 0 view .LVU795
 2393 0030 21F07C41 		bic	r1, r1, #-67108864
 2394 0034 5960     		str	r1, [r3, #4]
 613:Drivers/STM32H5xx_HAL_Driver/Src/stm32h5xx_ll_usb.c ****     }
 2395              		.loc 1 613 7 is_stmt 1 view .LVU796
 2396 0036 002A     		cmp	r2, #0
 2397 0038 40F0C482 		bne	.L157
 613:Drivers/STM32H5xx_HAL_Driver/Src/stm32h5xx_ll_usb.c ****     }
 2398              		.loc 1 613 7 discriminator 1 view .LVU797
 2399 003c 2378     		ldrb	r3, [r4]	@ zero_extendqisi2
 2400 003e DB00     		lsls	r3, r3, #3
 2401 0040 03F18043 		add	r3, r3, #1073741824
 2402 0044 03F5B233 		add	r3, r3, #91136
 2403 0048 5A68     		ldr	r2, [r3, #4]
 2404              	.LVL268:
 613:Drivers/STM32H5xx_HAL_Driver/Src/stm32h5xx_ll_usb.c ****     }
 2405              		.loc 1 613 7 is_stmt 0 discriminator 1 view .LVU798
 2406 004a 42F00042 		orr	r2, r2, #-2147483648
 2407 004e 5A60     		str	r2, [r3, #4]
 2408              	.LVL269:
 2409              	.L158:
 613:Drivers/STM32H5xx_HAL_Driver/Src/stm32h5xx_ll_usb.c ****     }
 2410              		.loc 1 613 7 discriminator 1 view .LVU799
 2411              	.LBE60:
 661:Drivers/STM32H5xx_HAL_Driver/Src/stm32h5xx_ll_usb.c ****   }
 2412              		.loc 1 661 5 is_stmt 1 view .LVU800
 2413              	.LBB61:
 661:Drivers/STM32H5xx_HAL_Driver/Src/stm32h5xx_ll_usb.c ****   }
 2414              		.loc 1 661 5 view .LVU801
 661:Drivers/STM32H5xx_HAL_Driver/Src/stm32h5xx_ll_usb.c ****   }
 2415              		.loc 1 661 5 view .LVU802
ARM GAS  C:\Users\sapph\AppData\Local\Temp\cchEHrSS.s 			page 64


 2416 0050 2278     		ldrb	r2, [r4]	@ zero_extendqisi2
 2417 0052 55F82210 		ldr	r1, [r5, r2, lsl #2]
 2418 0056 B14B     		ldr	r3, .L198
 2419 0058 0B40     		ands	r3, r3, r1
 2420              	.LVL270:
 661:Drivers/STM32H5xx_HAL_Driver/Src/stm32h5xx_ll_usb.c ****   }
 2421              		.loc 1 661 5 view .LVU803
 661:Drivers/STM32H5xx_HAL_Driver/Src/stm32h5xx_ll_usb.c ****   }
 2422              		.loc 1 661 5 discriminator 1 view .LVU804
 661:Drivers/STM32H5xx_HAL_Driver/Src/stm32h5xx_ll_usb.c ****   }
 2423              		.loc 1 661 5 discriminator 3 view .LVU805
 661:Drivers/STM32H5xx_HAL_Driver/Src/stm32h5xx_ll_usb.c ****   }
 2424              		.loc 1 661 5 discriminator 4 view .LVU806
 2425 005a 83F44053 		eor	r3, r3, #12288
 2426              	.LVL271:
 661:Drivers/STM32H5xx_HAL_Driver/Src/stm32h5xx_ll_usb.c ****   }
 2427              		.loc 1 661 5 discriminator 6 view .LVU807
 2428 005e 43F40043 		orr	r3, r3, #32768
 2429              	.LVL272:
 661:Drivers/STM32H5xx_HAL_Driver/Src/stm32h5xx_ll_usb.c ****   }
 2430              		.loc 1 661 5 is_stmt 0 discriminator 6 view .LVU808
 2431 0062 43F08003 		orr	r3, r3, #128
 2432 0066 45F82230 		str	r3, [r5, r2, lsl #2]
 2433              	.LBE61:
 664:Drivers/STM32H5xx_HAL_Driver/Src/stm32h5xx_ll_usb.c **** }
 2434              		.loc 1 664 10 view .LVU809
 2435 006a 0020     		movs	r0, #0
 2436              	.LVL273:
 2437              	.L153:
 665:Drivers/STM32H5xx_HAL_Driver/Src/stm32h5xx_ll_usb.c **** 
 2438              		.loc 1 665 1 view .LVU810
 2439 006c 70BD     		pop	{r4, r5, r6, pc}
 2440              	.LVL274:
 2441              	.L189:
 466:Drivers/STM32H5xx_HAL_Driver/Src/stm32h5xx_ll_usb.c ****     {
 2442              		.loc 1 466 5 is_stmt 1 view .LVU811
 466:Drivers/STM32H5xx_HAL_Driver/Src/stm32h5xx_ll_usb.c ****     {
 2443              		.loc 1 466 11 is_stmt 0 view .LVU812
 2444 006e 8E69     		ldr	r6, [r1, #24]
 466:Drivers/STM32H5xx_HAL_Driver/Src/stm32h5xx_ll_usb.c ****     {
 2445              		.loc 1 466 26 view .LVU813
 2446 0070 0A69     		ldr	r2, [r1, #16]
 466:Drivers/STM32H5xx_HAL_Driver/Src/stm32h5xx_ll_usb.c ****     {
 2447              		.loc 1 466 8 view .LVU814
 2448 0072 9642     		cmp	r6, r2
 2449 0074 00D9     		bls	.L106
 468:Drivers/STM32H5xx_HAL_Driver/Src/stm32h5xx_ll_usb.c ****     }
 2450              		.loc 1 468 11 view .LVU815
 2451 0076 1646     		mov	r6, r2
 2452              	.L106:
 2453              	.LVL275:
 476:Drivers/STM32H5xx_HAL_Driver/Src/stm32h5xx_ll_usb.c ****     {
 2454              		.loc 1 476 5 is_stmt 1 view .LVU816
 476:Drivers/STM32H5xx_HAL_Driver/Src/stm32h5xx_ll_usb.c ****     {
 2455              		.loc 1 476 11 is_stmt 0 view .LVU817
 2456 0078 217B     		ldrb	r1, [r4, #12]	@ zero_extendqisi2
 2457              	.LVL276:
ARM GAS  C:\Users\sapph\AppData\Local\Temp\cchEHrSS.s 			page 65


 476:Drivers/STM32H5xx_HAL_Driver/Src/stm32h5xx_ll_usb.c ****     {
 2458              		.loc 1 476 8 view .LVU818
 2459 007a 31B3     		cbz	r1, .L190
 485:Drivers/STM32H5xx_HAL_Driver/Src/stm32h5xx_ll_usb.c ****       {
 2460              		.loc 1 485 7 is_stmt 1 view .LVU819
 485:Drivers/STM32H5xx_HAL_Driver/Src/stm32h5xx_ll_usb.c ****       {
 2461              		.loc 1 485 13 is_stmt 0 view .LVU820
 2462 007c E178     		ldrb	r1, [r4, #3]	@ zero_extendqisi2
 485:Drivers/STM32H5xx_HAL_Driver/Src/stm32h5xx_ll_usb.c ****       {
 2463              		.loc 1 485 10 view .LVU821
 2464 007e 0229     		cmp	r1, #2
 2465 0080 4BD0     		beq	.L191
 570:Drivers/STM32H5xx_HAL_Driver/Src/stm32h5xx_ll_usb.c **** 
 2466              		.loc 1 570 9 is_stmt 1 view .LVU822
 570:Drivers/STM32H5xx_HAL_Driver/Src/stm32h5xx_ll_usb.c **** 
 2467              		.loc 1 570 11 is_stmt 0 view .LVU823
 2468 0082 226A     		ldr	r2, [r4, #32]
 570:Drivers/STM32H5xx_HAL_Driver/Src/stm32h5xx_ll_usb.c **** 
 2469              		.loc 1 570 25 view .LVU824
 2470 0084 921B     		subs	r2, r2, r6
 2471 0086 2262     		str	r2, [r4, #32]
 573:Drivers/STM32H5xx_HAL_Driver/Src/stm32h5xx_ll_usb.c ****         {
 2472              		.loc 1 573 9 is_stmt 1 view .LVU825
 573:Drivers/STM32H5xx_HAL_Driver/Src/stm32h5xx_ll_usb.c ****         {
 2473              		.loc 1 573 14 is_stmt 0 view .LVU826
 2474 0088 2278     		ldrb	r2, [r4]	@ zero_extendqisi2
 2475 008a 55F82210 		ldr	r1, [r5, r2, lsl #2]
 573:Drivers/STM32H5xx_HAL_Driver/Src/stm32h5xx_ll_usb.c ****         {
 2476              		.loc 1 573 12 view .LVU827
 2477 008e 11F0400F 		tst	r1, #64
 2478 0092 00F03F82 		beq	.L140
 576:Drivers/STM32H5xx_HAL_Driver/Src/stm32h5xx_ll_usb.c ****           pmabuffer = ep->pmaaddr1;
 2479              		.loc 1 576 11 is_stmt 1 view .LVU828
 576:Drivers/STM32H5xx_HAL_Driver/Src/stm32h5xx_ll_usb.c ****           pmabuffer = ep->pmaaddr1;
 2480              		.loc 1 576 11 view .LVU829
 2481 0096 002B     		cmp	r3, #0
 2482 0098 40F02382 		bne	.L141
 576:Drivers/STM32H5xx_HAL_Driver/Src/stm32h5xx_ll_usb.c ****           pmabuffer = ep->pmaaddr1;
 2483              		.loc 1 576 11 discriminator 1 view .LVU830
 2484              	.LBB62:
 576:Drivers/STM32H5xx_HAL_Driver/Src/stm32h5xx_ll_usb.c ****           pmabuffer = ep->pmaaddr1;
 2485              		.loc 1 576 11 discriminator 1 view .LVU831
 576:Drivers/STM32H5xx_HAL_Driver/Src/stm32h5xx_ll_usb.c ****           pmabuffer = ep->pmaaddr1;
 2486              		.loc 1 576 11 discriminator 1 view .LVU832
 2487 009c D200     		lsls	r2, r2, #3
 2488 009e 02F18042 		add	r2, r2, #1073741824
 2489 00a2 02F5B232 		add	r2, r2, #91136
 2490 00a6 5368     		ldr	r3, [r2, #4]
 2491 00a8 23F07C43 		bic	r3, r3, #-67108864
 2492 00ac 5360     		str	r3, [r2, #4]
 576:Drivers/STM32H5xx_HAL_Driver/Src/stm32h5xx_ll_usb.c ****           pmabuffer = ep->pmaaddr1;
 2493              		.loc 1 576 11 discriminator 1 view .LVU833
 2494 00ae 002E     		cmp	r6, #0
 2495 00b0 40F0F381 		bne	.L142
 576:Drivers/STM32H5xx_HAL_Driver/Src/stm32h5xx_ll_usb.c ****           pmabuffer = ep->pmaaddr1;
 2496              		.loc 1 576 11 discriminator 3 view .LVU834
 2497 00b4 2378     		ldrb	r3, [r4]	@ zero_extendqisi2
ARM GAS  C:\Users\sapph\AppData\Local\Temp\cchEHrSS.s 			page 66


 2498 00b6 DB00     		lsls	r3, r3, #3
 2499 00b8 03F18043 		add	r3, r3, #1073741824
 2500 00bc 03F5B233 		add	r3, r3, #91136
 2501 00c0 5A68     		ldr	r2, [r3, #4]
 2502 00c2 42F00042 		orr	r2, r2, #-2147483648
 2503 00c6 5A60     		str	r2, [r3, #4]
 2504 00c8 1DE2     		b	.L143
 2505              	.L190:
 2506              	.LBE62:
 478:Drivers/STM32H5xx_HAL_Driver/Src/stm32h5xx_ll_usb.c ****       PCD_SET_EP_TX_CNT(USBx, ep->num, len);
 2507              		.loc 1 478 7 view .LVU835
 2508 00ca B3B2     		uxth	r3, r6
 2509 00cc E288     		ldrh	r2, [r4, #6]
 2510 00ce 6169     		ldr	r1, [r4, #20]
 2511 00d0 2846     		mov	r0, r5
 2512              	.LVL277:
 478:Drivers/STM32H5xx_HAL_Driver/Src/stm32h5xx_ll_usb.c ****       PCD_SET_EP_TX_CNT(USBx, ep->num, len);
 2513              		.loc 1 478 7 is_stmt 0 view .LVU836
 2514 00d2 FFF7FEFF 		bl	USB_WritePMA
 2515              	.LVL278:
 479:Drivers/STM32H5xx_HAL_Driver/Src/stm32h5xx_ll_usb.c ****     }
 2516              		.loc 1 479 7 is_stmt 1 view .LVU837
 479:Drivers/STM32H5xx_HAL_Driver/Src/stm32h5xx_ll_usb.c ****     }
 2517              		.loc 1 479 7 view .LVU838
 2518 00d6 2378     		ldrb	r3, [r4]	@ zero_extendqisi2
 2519 00d8 DB00     		lsls	r3, r3, #3
 2520 00da 03F18043 		add	r3, r3, #1073741824
 2521 00de 03F5B233 		add	r3, r3, #91136
 2522 00e2 1A68     		ldr	r2, [r3]
 2523 00e4 92B2     		uxth	r2, r2
 2524 00e6 1A60     		str	r2, [r3]
 479:Drivers/STM32H5xx_HAL_Driver/Src/stm32h5xx_ll_usb.c ****     }
 2525              		.loc 1 479 7 view .LVU839
 2526 00e8 2378     		ldrb	r3, [r4]	@ zero_extendqisi2
 2527 00ea DB00     		lsls	r3, r3, #3
 2528 00ec 03F18043 		add	r3, r3, #1073741824
 2529 00f0 03F5B233 		add	r3, r3, #91136
 2530 00f4 1A68     		ldr	r2, [r3]
 2531 00f6 42EA0642 		orr	r2, r2, r6, lsl #16
 2532 00fa 1A60     		str	r2, [r3]
 479:Drivers/STM32H5xx_HAL_Driver/Src/stm32h5xx_ll_usb.c ****     }
 2533              		.loc 1 479 7 view .LVU840
 2534              	.LVL279:
 2535              	.L108:
 595:Drivers/STM32H5xx_HAL_Driver/Src/stm32h5xx_ll_usb.c ****   }
 2536              		.loc 1 595 5 view .LVU841
 2537              	.LBB63:
 595:Drivers/STM32H5xx_HAL_Driver/Src/stm32h5xx_ll_usb.c ****   }
 2538              		.loc 1 595 5 view .LVU842
 595:Drivers/STM32H5xx_HAL_Driver/Src/stm32h5xx_ll_usb.c ****   }
 2539              		.loc 1 595 5 view .LVU843
 2540 00fc 2278     		ldrb	r2, [r4]	@ zero_extendqisi2
 2541 00fe 55F82210 		ldr	r1, [r5, r2, lsl #2]
 2542 0102 874B     		ldr	r3, .L198+4
 2543 0104 0B40     		ands	r3, r3, r1
 2544              	.LVL280:
 595:Drivers/STM32H5xx_HAL_Driver/Src/stm32h5xx_ll_usb.c ****   }
ARM GAS  C:\Users\sapph\AppData\Local\Temp\cchEHrSS.s 			page 67


 2545              		.loc 1 595 5 view .LVU844
 595:Drivers/STM32H5xx_HAL_Driver/Src/stm32h5xx_ll_usb.c ****   }
 2546              		.loc 1 595 5 discriminator 1 view .LVU845
 595:Drivers/STM32H5xx_HAL_Driver/Src/stm32h5xx_ll_usb.c ****   }
 2547              		.loc 1 595 5 discriminator 3 view .LVU846
 595:Drivers/STM32H5xx_HAL_Driver/Src/stm32h5xx_ll_usb.c ****   }
 2548              		.loc 1 595 5 discriminator 4 view .LVU847
 2549 0106 83F03003 		eor	r3, r3, #48
 2550              	.LVL281:
 595:Drivers/STM32H5xx_HAL_Driver/Src/stm32h5xx_ll_usb.c ****   }
 2551              		.loc 1 595 5 discriminator 6 view .LVU848
 2552 010a 43F40043 		orr	r3, r3, #32768
 2553              	.LVL282:
 595:Drivers/STM32H5xx_HAL_Driver/Src/stm32h5xx_ll_usb.c ****   }
 2554              		.loc 1 595 5 is_stmt 0 discriminator 6 view .LVU849
 2555 010e 43F08003 		orr	r3, r3, #128
 2556 0112 45F82230 		str	r3, [r5, r2, lsl #2]
 2557              	.LBE63:
 595:Drivers/STM32H5xx_HAL_Driver/Src/stm32h5xx_ll_usb.c ****   }
 2558              		.loc 1 595 5 is_stmt 1 discriminator 6 view .LVU850
 664:Drivers/STM32H5xx_HAL_Driver/Src/stm32h5xx_ll_usb.c **** }
 2559              		.loc 1 664 10 is_stmt 0 view .LVU851
 2560 0116 0020     		movs	r0, #0
 2561 0118 A8E7     		b	.L153
 2562              	.LVL283:
 2563              	.L191:
 487:Drivers/STM32H5xx_HAL_Driver/Src/stm32h5xx_ll_usb.c ****         {
 2564              		.loc 1 487 9 is_stmt 1 view .LVU852
 487:Drivers/STM32H5xx_HAL_Driver/Src/stm32h5xx_ll_usb.c ****         {
 2565              		.loc 1 487 15 is_stmt 0 view .LVU853
 2566 011a 236A     		ldr	r3, [r4, #32]
 487:Drivers/STM32H5xx_HAL_Driver/Src/stm32h5xx_ll_usb.c ****         {
 2567              		.loc 1 487 12 view .LVU854
 2568 011c 9A42     		cmp	r2, r3
 2569 011e 80F09781 		bcs	.L110
 490:Drivers/STM32H5xx_HAL_Driver/Src/stm32h5xx_ll_usb.c **** 
 2570              		.loc 1 490 11 is_stmt 1 view .LVU855
 2571              	.LBB64:
 490:Drivers/STM32H5xx_HAL_Driver/Src/stm32h5xx_ll_usb.c **** 
 2572              		.loc 1 490 11 view .LVU856
 490:Drivers/STM32H5xx_HAL_Driver/Src/stm32h5xx_ll_usb.c **** 
 2573              		.loc 1 490 11 view .LVU857
 2574 0122 2278     		ldrb	r2, [r4]	@ zero_extendqisi2
 2575 0124 55F82210 		ldr	r1, [r5, r2, lsl #2]
 2576 0128 7E4B     		ldr	r3, .L198+8
 2577 012a 0B40     		ands	r3, r3, r1
 2578              	.LVL284:
 490:Drivers/STM32H5xx_HAL_Driver/Src/stm32h5xx_ll_usb.c **** 
 2579              		.loc 1 490 11 view .LVU858
 2580 012c 43F40143 		orr	r3, r3, #33024
 2581              	.LVL285:
 490:Drivers/STM32H5xx_HAL_Driver/Src/stm32h5xx_ll_usb.c **** 
 2582              		.loc 1 490 11 is_stmt 0 view .LVU859
 2583 0130 43F08003 		orr	r3, r3, #128
 2584 0134 45F82230 		str	r3, [r5, r2, lsl #2]
 2585              	.LBE64:
 490:Drivers/STM32H5xx_HAL_Driver/Src/stm32h5xx_ll_usb.c **** 
ARM GAS  C:\Users\sapph\AppData\Local\Temp\cchEHrSS.s 			page 68


 2586              		.loc 1 490 11 is_stmt 1 view .LVU860
 493:Drivers/STM32H5xx_HAL_Driver/Src/stm32h5xx_ll_usb.c **** 
 2587              		.loc 1 493 11 view .LVU861
 493:Drivers/STM32H5xx_HAL_Driver/Src/stm32h5xx_ll_usb.c **** 
 2588              		.loc 1 493 13 is_stmt 0 view .LVU862
 2589 0138 236A     		ldr	r3, [r4, #32]
 493:Drivers/STM32H5xx_HAL_Driver/Src/stm32h5xx_ll_usb.c **** 
 2590              		.loc 1 493 27 view .LVU863
 2591 013a 9B1B     		subs	r3, r3, r6
 2592 013c 2362     		str	r3, [r4, #32]
 496:Drivers/STM32H5xx_HAL_Driver/Src/stm32h5xx_ll_usb.c ****           {
 2593              		.loc 1 496 11 is_stmt 1 view .LVU864
 496:Drivers/STM32H5xx_HAL_Driver/Src/stm32h5xx_ll_usb.c ****           {
 2594              		.loc 1 496 16 is_stmt 0 view .LVU865
 2595 013e 2378     		ldrb	r3, [r4]	@ zero_extendqisi2
 2596 0140 55F82320 		ldr	r2, [r5, r3, lsl #2]
 496:Drivers/STM32H5xx_HAL_Driver/Src/stm32h5xx_ll_usb.c ****           {
 2597              		.loc 1 496 14 view .LVU866
 2598 0144 12F0400F 		tst	r2, #64
 2599 0148 00F0BE80 		beq	.L111
 499:Drivers/STM32H5xx_HAL_Driver/Src/stm32h5xx_ll_usb.c ****             pmabuffer = ep->pmaaddr1;
 2600              		.loc 1 499 13 is_stmt 1 view .LVU867
 499:Drivers/STM32H5xx_HAL_Driver/Src/stm32h5xx_ll_usb.c ****             pmabuffer = ep->pmaaddr1;
 2601              		.loc 1 499 13 view .LVU868
 2602 014c 6278     		ldrb	r2, [r4, #1]	@ zero_extendqisi2
 2603 014e 002A     		cmp	r2, #0
 2604 0150 38D1     		bne	.L112
 499:Drivers/STM32H5xx_HAL_Driver/Src/stm32h5xx_ll_usb.c ****             pmabuffer = ep->pmaaddr1;
 2605              		.loc 1 499 13 discriminator 1 view .LVU869
 2606              	.LBB65:
 499:Drivers/STM32H5xx_HAL_Driver/Src/stm32h5xx_ll_usb.c ****             pmabuffer = ep->pmaaddr1;
 2607              		.loc 1 499 13 discriminator 1 view .LVU870
 499:Drivers/STM32H5xx_HAL_Driver/Src/stm32h5xx_ll_usb.c ****             pmabuffer = ep->pmaaddr1;
 2608              		.loc 1 499 13 discriminator 1 view .LVU871
 2609 0152 DB00     		lsls	r3, r3, #3
 2610 0154 03F18043 		add	r3, r3, #1073741824
 2611 0158 03F5B233 		add	r3, r3, #91136
 2612 015c 5A68     		ldr	r2, [r3, #4]
 2613 015e 22F07C42 		bic	r2, r2, #-67108864
 2614 0162 5A60     		str	r2, [r3, #4]
 499:Drivers/STM32H5xx_HAL_Driver/Src/stm32h5xx_ll_usb.c ****             pmabuffer = ep->pmaaddr1;
 2615              		.loc 1 499 13 discriminator 1 view .LVU872
 2616 0164 56B9     		cbnz	r6, .L113
 499:Drivers/STM32H5xx_HAL_Driver/Src/stm32h5xx_ll_usb.c ****             pmabuffer = ep->pmaaddr1;
 2617              		.loc 1 499 13 discriminator 3 view .LVU873
 2618 0166 2378     		ldrb	r3, [r4]	@ zero_extendqisi2
 2619 0168 DB00     		lsls	r3, r3, #3
 2620 016a 03F18043 		add	r3, r3, #1073741824
 2621 016e 03F5B233 		add	r3, r3, #91136
 2622 0172 5A68     		ldr	r2, [r3, #4]
 2623 0174 42F00042 		orr	r2, r2, #-2147483648
 2624 0178 5A60     		str	r2, [r3, #4]
 2625 017a 25E0     		b	.L114
 2626              	.L113:
 499:Drivers/STM32H5xx_HAL_Driver/Src/stm32h5xx_ll_usb.c ****             pmabuffer = ep->pmaaddr1;
 2627              		.loc 1 499 13 discriminator 4 view .LVU874
 2628 017c 3E2E     		cmp	r6, #62
ARM GAS  C:\Users\sapph\AppData\Local\Temp\cchEHrSS.s 			page 69


 2629 017e 0FD8     		bhi	.L115
 499:Drivers/STM32H5xx_HAL_Driver/Src/stm32h5xx_ll_usb.c ****             pmabuffer = ep->pmaaddr1;
 2630              		.loc 1 499 13 discriminator 6 view .LVU875
 499:Drivers/STM32H5xx_HAL_Driver/Src/stm32h5xx_ll_usb.c ****             pmabuffer = ep->pmaaddr1;
 2631              		.loc 1 499 13 discriminator 6 view .LVU876
 2632 0180 7108     		lsrs	r1, r6, #1
 2633              	.LVL286:
 499:Drivers/STM32H5xx_HAL_Driver/Src/stm32h5xx_ll_usb.c ****             pmabuffer = ep->pmaaddr1;
 2634              		.loc 1 499 13 discriminator 6 view .LVU877
 2635 0182 16F0010F 		tst	r6, #1
 2636 0186 00D0     		beq	.L116
 499:Drivers/STM32H5xx_HAL_Driver/Src/stm32h5xx_ll_usb.c ****             pmabuffer = ep->pmaaddr1;
 2637              		.loc 1 499 13 discriminator 8 view .LVU878
 2638 0188 0131     		adds	r1, r1, #1
 2639              	.LVL287:
 2640              	.L116:
 499:Drivers/STM32H5xx_HAL_Driver/Src/stm32h5xx_ll_usb.c ****             pmabuffer = ep->pmaaddr1;
 2641              		.loc 1 499 13 discriminator 10 view .LVU879
 2642 018a 2378     		ldrb	r3, [r4]	@ zero_extendqisi2
 2643 018c DB00     		lsls	r3, r3, #3
 2644 018e 03F18043 		add	r3, r3, #1073741824
 2645 0192 03F5B233 		add	r3, r3, #91136
 2646 0196 5A68     		ldr	r2, [r3, #4]
 2647 0198 42EA8162 		orr	r2, r2, r1, lsl #26
 2648 019c 5A60     		str	r2, [r3, #4]
 499:Drivers/STM32H5xx_HAL_Driver/Src/stm32h5xx_ll_usb.c ****             pmabuffer = ep->pmaaddr1;
 2649              		.loc 1 499 13 discriminator 10 view .LVU880
 2650 019e 13E0     		b	.L114
 2651              	.LVL288:
 2652              	.L115:
 499:Drivers/STM32H5xx_HAL_Driver/Src/stm32h5xx_ll_usb.c ****             pmabuffer = ep->pmaaddr1;
 2653              		.loc 1 499 13 discriminator 7 view .LVU881
 499:Drivers/STM32H5xx_HAL_Driver/Src/stm32h5xx_ll_usb.c ****             pmabuffer = ep->pmaaddr1;
 2654              		.loc 1 499 13 discriminator 7 view .LVU882
 2655 01a0 7109     		lsrs	r1, r6, #5
 2656              	.LVL289:
 499:Drivers/STM32H5xx_HAL_Driver/Src/stm32h5xx_ll_usb.c ****             pmabuffer = ep->pmaaddr1;
 2657              		.loc 1 499 13 discriminator 7 view .LVU883
 2658 01a2 16F01F0F 		tst	r6, #31
 2659 01a6 00D1     		bne	.L117
 499:Drivers/STM32H5xx_HAL_Driver/Src/stm32h5xx_ll_usb.c ****             pmabuffer = ep->pmaaddr1;
 2660              		.loc 1 499 13 discriminator 12 view .LVU884
 2661 01a8 0139     		subs	r1, r1, #1
 2662              	.LVL290:
 2663              	.L117:
 499:Drivers/STM32H5xx_HAL_Driver/Src/stm32h5xx_ll_usb.c ****             pmabuffer = ep->pmaaddr1;
 2664              		.loc 1 499 13 discriminator 14 view .LVU885
 2665 01aa 2378     		ldrb	r3, [r4]	@ zero_extendqisi2
 2666 01ac DB00     		lsls	r3, r3, #3
 2667 01ae 03F18043 		add	r3, r3, #1073741824
 2668 01b2 03F5B233 		add	r3, r3, #91136
 2669 01b6 5A68     		ldr	r2, [r3, #4]
 2670 01b8 42EA8162 		orr	r2, r2, r1, lsl #26
 2671 01bc 42F00042 		orr	r2, r2, #-2147483648
 2672 01c0 5A60     		str	r2, [r3, #4]
 2673 01c2 01E0     		b	.L114
 2674              	.LVL291:
ARM GAS  C:\Users\sapph\AppData\Local\Temp\cchEHrSS.s 			page 70


 2675              	.L112:
 499:Drivers/STM32H5xx_HAL_Driver/Src/stm32h5xx_ll_usb.c ****             pmabuffer = ep->pmaaddr1;
 2676              		.loc 1 499 13 is_stmt 0 discriminator 14 view .LVU886
 2677              	.LBE65:
 499:Drivers/STM32H5xx_HAL_Driver/Src/stm32h5xx_ll_usb.c ****             pmabuffer = ep->pmaaddr1;
 2678              		.loc 1 499 13 is_stmt 1 discriminator 2 view .LVU887
 2679 01c4 012A     		cmp	r2, #1
 2680 01c6 27D0     		beq	.L192
 2681              	.LVL292:
 2682              	.L114:
 499:Drivers/STM32H5xx_HAL_Driver/Src/stm32h5xx_ll_usb.c ****             pmabuffer = ep->pmaaddr1;
 2683              		.loc 1 499 13 discriminator 18 view .LVU888
 500:Drivers/STM32H5xx_HAL_Driver/Src/stm32h5xx_ll_usb.c **** 
 2684              		.loc 1 500 13 view .LVU889
 503:Drivers/STM32H5xx_HAL_Driver/Src/stm32h5xx_ll_usb.c ****             ep->xfer_buff += len;
 2685              		.loc 1 503 13 view .LVU890
 2686 01c8 B3B2     		uxth	r3, r6
 2687 01ca 6289     		ldrh	r2, [r4, #10]
 2688 01cc 6169     		ldr	r1, [r4, #20]
 2689 01ce 2846     		mov	r0, r5
 2690              	.LVL293:
 503:Drivers/STM32H5xx_HAL_Driver/Src/stm32h5xx_ll_usb.c ****             ep->xfer_buff += len;
 2691              		.loc 1 503 13 is_stmt 0 view .LVU891
 2692 01d0 FFF7FEFF 		bl	USB_WritePMA
 2693              	.LVL294:
 504:Drivers/STM32H5xx_HAL_Driver/Src/stm32h5xx_ll_usb.c **** 
 2694              		.loc 1 504 13 is_stmt 1 view .LVU892
 504:Drivers/STM32H5xx_HAL_Driver/Src/stm32h5xx_ll_usb.c **** 
 2695              		.loc 1 504 15 is_stmt 0 view .LVU893
 2696 01d4 6369     		ldr	r3, [r4, #20]
 504:Drivers/STM32H5xx_HAL_Driver/Src/stm32h5xx_ll_usb.c **** 
 2697              		.loc 1 504 27 view .LVU894
 2698 01d6 3344     		add	r3, r3, r6
 2699 01d8 6361     		str	r3, [r4, #20]
 506:Drivers/STM32H5xx_HAL_Driver/Src/stm32h5xx_ll_usb.c ****             {
 2700              		.loc 1 506 13 is_stmt 1 view .LVU895
 506:Drivers/STM32H5xx_HAL_Driver/Src/stm32h5xx_ll_usb.c ****             {
 2701              		.loc 1 506 19 is_stmt 0 view .LVU896
 2702 01da 236A     		ldr	r3, [r4, #32]
 506:Drivers/STM32H5xx_HAL_Driver/Src/stm32h5xx_ll_usb.c ****             {
 2703              		.loc 1 506 37 view .LVU897
 2704 01dc 2269     		ldr	r2, [r4, #16]
 506:Drivers/STM32H5xx_HAL_Driver/Src/stm32h5xx_ll_usb.c ****             {
 2705              		.loc 1 506 16 view .LVU898
 2706 01de 9342     		cmp	r3, r2
 2707 01e0 2DD9     		bls	.L118
 508:Drivers/STM32H5xx_HAL_Driver/Src/stm32h5xx_ll_usb.c ****             }
 2708              		.loc 1 508 15 is_stmt 1 view .LVU899
 508:Drivers/STM32H5xx_HAL_Driver/Src/stm32h5xx_ll_usb.c ****             }
 2709              		.loc 1 508 31 is_stmt 0 view .LVU900
 2710 01e2 9B1B     		subs	r3, r3, r6
 2711 01e4 2362     		str	r3, [r4, #32]
 2712              	.L119:
 517:Drivers/STM32H5xx_HAL_Driver/Src/stm32h5xx_ll_usb.c ****             pmabuffer = ep->pmaaddr0;
 2713              		.loc 1 517 13 is_stmt 1 view .LVU901
 517:Drivers/STM32H5xx_HAL_Driver/Src/stm32h5xx_ll_usb.c ****             pmabuffer = ep->pmaaddr0;
 2714              		.loc 1 517 13 view .LVU902
ARM GAS  C:\Users\sapph\AppData\Local\Temp\cchEHrSS.s 			page 71


 2715 01e6 6378     		ldrb	r3, [r4, #1]	@ zero_extendqisi2
 2716 01e8 002B     		cmp	r3, #0
 2717 01ea 50D1     		bne	.L120
 517:Drivers/STM32H5xx_HAL_Driver/Src/stm32h5xx_ll_usb.c ****             pmabuffer = ep->pmaaddr0;
 2718              		.loc 1 517 13 discriminator 1 view .LVU903
 2719              	.LBB66:
 517:Drivers/STM32H5xx_HAL_Driver/Src/stm32h5xx_ll_usb.c ****             pmabuffer = ep->pmaaddr0;
 2720              		.loc 1 517 13 discriminator 1 view .LVU904
 517:Drivers/STM32H5xx_HAL_Driver/Src/stm32h5xx_ll_usb.c ****             pmabuffer = ep->pmaaddr0;
 2721              		.loc 1 517 13 discriminator 1 view .LVU905
 2722 01ec 2378     		ldrb	r3, [r4]	@ zero_extendqisi2
 2723 01ee DB00     		lsls	r3, r3, #3
 2724 01f0 03F18043 		add	r3, r3, #1073741824
 2725 01f4 03F5B233 		add	r3, r3, #91136
 2726 01f8 1A68     		ldr	r2, [r3]
 2727 01fa 22F07C42 		bic	r2, r2, #-67108864
 2728 01fe 1A60     		str	r2, [r3]
 517:Drivers/STM32H5xx_HAL_Driver/Src/stm32h5xx_ll_usb.c ****             pmabuffer = ep->pmaaddr0;
 2729              		.loc 1 517 13 discriminator 1 view .LVU906
 2730 0200 0EBB     		cbnz	r6, .L121
 517:Drivers/STM32H5xx_HAL_Driver/Src/stm32h5xx_ll_usb.c ****             pmabuffer = ep->pmaaddr0;
 2731              		.loc 1 517 13 discriminator 3 view .LVU907
 2732 0202 2378     		ldrb	r3, [r4]	@ zero_extendqisi2
 2733 0204 DB00     		lsls	r3, r3, #3
 2734 0206 03F18043 		add	r3, r3, #1073741824
 2735 020a 03F5B233 		add	r3, r3, #91136
 2736 020e 1A68     		ldr	r2, [r3]
 2737 0210 42F00042 		orr	r2, r2, #-2147483648
 2738 0214 1A60     		str	r2, [r3]
 2739 0216 3CE0     		b	.L122
 2740              	.LVL295:
 2741              	.L192:
 517:Drivers/STM32H5xx_HAL_Driver/Src/stm32h5xx_ll_usb.c ****             pmabuffer = ep->pmaaddr0;
 2742              		.loc 1 517 13 is_stmt 0 discriminator 3 view .LVU908
 2743              	.LBE66:
 499:Drivers/STM32H5xx_HAL_Driver/Src/stm32h5xx_ll_usb.c ****             pmabuffer = ep->pmaaddr1;
 2744              		.loc 1 499 13 is_stmt 1 discriminator 16 view .LVU909
 2745 0218 DB00     		lsls	r3, r3, #3
 2746 021a 03F18043 		add	r3, r3, #1073741824
 2747 021e 03F5B233 		add	r3, r3, #91136
 2748 0222 5A68     		ldr	r2, [r3, #4]
 2749 0224 92B2     		uxth	r2, r2
 2750 0226 5A60     		str	r2, [r3, #4]
 499:Drivers/STM32H5xx_HAL_Driver/Src/stm32h5xx_ll_usb.c ****             pmabuffer = ep->pmaaddr1;
 2751              		.loc 1 499 13 discriminator 16 view .LVU910
 2752 0228 2378     		ldrb	r3, [r4]	@ zero_extendqisi2
 2753 022a DB00     		lsls	r3, r3, #3
 2754 022c 03F18043 		add	r3, r3, #1073741824
 2755 0230 03F5B233 		add	r3, r3, #91136
 2756 0234 5A68     		ldr	r2, [r3, #4]
 2757 0236 42EA0642 		orr	r2, r2, r6, lsl #16
 2758 023a 5A60     		str	r2, [r3, #4]
 2759 023c C4E7     		b	.L114
 2760              	.LVL296:
 2761              	.L118:
 512:Drivers/STM32H5xx_HAL_Driver/Src/stm32h5xx_ll_usb.c ****               ep->xfer_len_db = 0U;
 2762              		.loc 1 512 15 view .LVU911
ARM GAS  C:\Users\sapph\AppData\Local\Temp\cchEHrSS.s 			page 72


 513:Drivers/STM32H5xx_HAL_Driver/Src/stm32h5xx_ll_usb.c ****             }
 2763              		.loc 1 513 15 view .LVU912
 513:Drivers/STM32H5xx_HAL_Driver/Src/stm32h5xx_ll_usb.c ****             }
 2764              		.loc 1 513 31 is_stmt 0 view .LVU913
 2765 023e 0022     		movs	r2, #0
 2766 0240 2262     		str	r2, [r4, #32]
 512:Drivers/STM32H5xx_HAL_Driver/Src/stm32h5xx_ll_usb.c ****               ep->xfer_len_db = 0U;
 2767              		.loc 1 512 19 view .LVU914
 2768 0242 1E46     		mov	r6, r3
 2769 0244 CFE7     		b	.L119
 2770              	.LVL297:
 2771              	.L121:
 2772              	.LBB67:
 517:Drivers/STM32H5xx_HAL_Driver/Src/stm32h5xx_ll_usb.c ****             pmabuffer = ep->pmaaddr0;
 2773              		.loc 1 517 13 is_stmt 1 discriminator 4 view .LVU915
 2774 0246 3E2E     		cmp	r6, #62
 2775 0248 0FD8     		bhi	.L123
 517:Drivers/STM32H5xx_HAL_Driver/Src/stm32h5xx_ll_usb.c ****             pmabuffer = ep->pmaaddr0;
 2776              		.loc 1 517 13 discriminator 6 view .LVU916
 517:Drivers/STM32H5xx_HAL_Driver/Src/stm32h5xx_ll_usb.c ****             pmabuffer = ep->pmaaddr0;
 2777              		.loc 1 517 13 discriminator 6 view .LVU917
 2778 024a 7108     		lsrs	r1, r6, #1
 2779              	.LVL298:
 517:Drivers/STM32H5xx_HAL_Driver/Src/stm32h5xx_ll_usb.c ****             pmabuffer = ep->pmaaddr0;
 2780              		.loc 1 517 13 discriminator 6 view .LVU918
 2781 024c 16F0010F 		tst	r6, #1
 2782 0250 00D0     		beq	.L124
 517:Drivers/STM32H5xx_HAL_Driver/Src/stm32h5xx_ll_usb.c ****             pmabuffer = ep->pmaaddr0;
 2783              		.loc 1 517 13 discriminator 8 view .LVU919
 2784 0252 0131     		adds	r1, r1, #1
 2785              	.LVL299:
 2786              	.L124:
 517:Drivers/STM32H5xx_HAL_Driver/Src/stm32h5xx_ll_usb.c ****             pmabuffer = ep->pmaaddr0;
 2787              		.loc 1 517 13 discriminator 10 view .LVU920
 2788 0254 2378     		ldrb	r3, [r4]	@ zero_extendqisi2
 2789 0256 DB00     		lsls	r3, r3, #3
 2790 0258 03F18043 		add	r3, r3, #1073741824
 2791 025c 03F5B233 		add	r3, r3, #91136
 2792 0260 1A68     		ldr	r2, [r3]
 2793 0262 42EA8162 		orr	r2, r2, r1, lsl #26
 2794 0266 1A60     		str	r2, [r3]
 517:Drivers/STM32H5xx_HAL_Driver/Src/stm32h5xx_ll_usb.c ****             pmabuffer = ep->pmaaddr0;
 2795              		.loc 1 517 13 discriminator 10 view .LVU921
 2796 0268 13E0     		b	.L122
 2797              	.LVL300:
 2798              	.L123:
 517:Drivers/STM32H5xx_HAL_Driver/Src/stm32h5xx_ll_usb.c ****             pmabuffer = ep->pmaaddr0;
 2799              		.loc 1 517 13 discriminator 7 view .LVU922
 517:Drivers/STM32H5xx_HAL_Driver/Src/stm32h5xx_ll_usb.c ****             pmabuffer = ep->pmaaddr0;
 2800              		.loc 1 517 13 discriminator 7 view .LVU923
 2801 026a 7109     		lsrs	r1, r6, #5
 2802              	.LVL301:
 517:Drivers/STM32H5xx_HAL_Driver/Src/stm32h5xx_ll_usb.c ****             pmabuffer = ep->pmaaddr0;
 2803              		.loc 1 517 13 discriminator 7 view .LVU924
 2804 026c 16F01F0F 		tst	r6, #31
 2805 0270 00D1     		bne	.L125
 517:Drivers/STM32H5xx_HAL_Driver/Src/stm32h5xx_ll_usb.c ****             pmabuffer = ep->pmaaddr0;
ARM GAS  C:\Users\sapph\AppData\Local\Temp\cchEHrSS.s 			page 73


 2806              		.loc 1 517 13 discriminator 12 view .LVU925
 2807 0272 0139     		subs	r1, r1, #1
 2808              	.LVL302:
 2809              	.L125:
 517:Drivers/STM32H5xx_HAL_Driver/Src/stm32h5xx_ll_usb.c ****             pmabuffer = ep->pmaaddr0;
 2810              		.loc 1 517 13 discriminator 14 view .LVU926
 2811 0274 2378     		ldrb	r3, [r4]	@ zero_extendqisi2
 2812 0276 DB00     		lsls	r3, r3, #3
 2813 0278 03F18043 		add	r3, r3, #1073741824
 2814 027c 03F5B233 		add	r3, r3, #91136
 2815 0280 1A68     		ldr	r2, [r3]
 2816 0282 42EA8162 		orr	r2, r2, r1, lsl #26
 2817 0286 42F00042 		orr	r2, r2, #-2147483648
 2818 028a 1A60     		str	r2, [r3]
 2819 028c 01E0     		b	.L122
 2820              	.LVL303:
 2821              	.L120:
 517:Drivers/STM32H5xx_HAL_Driver/Src/stm32h5xx_ll_usb.c ****             pmabuffer = ep->pmaaddr0;
 2822              		.loc 1 517 13 is_stmt 0 discriminator 14 view .LVU927
 2823              	.LBE67:
 517:Drivers/STM32H5xx_HAL_Driver/Src/stm32h5xx_ll_usb.c ****             pmabuffer = ep->pmaaddr0;
 2824              		.loc 1 517 13 is_stmt 1 discriminator 2 view .LVU928
 2825 028e 012B     		cmp	r3, #1
 2826 0290 06D0     		beq	.L193
 2827              	.L122:
 517:Drivers/STM32H5xx_HAL_Driver/Src/stm32h5xx_ll_usb.c ****             pmabuffer = ep->pmaaddr0;
 2828              		.loc 1 517 13 discriminator 18 view .LVU929
 517:Drivers/STM32H5xx_HAL_Driver/Src/stm32h5xx_ll_usb.c ****             pmabuffer = ep->pmaaddr0;
 2829              		.loc 1 517 13 discriminator 18 view .LVU930
 518:Drivers/STM32H5xx_HAL_Driver/Src/stm32h5xx_ll_usb.c **** 
 2830              		.loc 1 518 13 view .LVU931
 2831              	.LVL304:
 521:Drivers/STM32H5xx_HAL_Driver/Src/stm32h5xx_ll_usb.c ****           }
 2832              		.loc 1 521 13 view .LVU932
 2833 0292 B3B2     		uxth	r3, r6
 2834 0294 2289     		ldrh	r2, [r4, #8]
 2835 0296 6169     		ldr	r1, [r4, #20]
 2836 0298 2846     		mov	r0, r5
 2837 029a FFF7FEFF 		bl	USB_WritePMA
 2838              	.LVL305:
 521:Drivers/STM32H5xx_HAL_Driver/Src/stm32h5xx_ll_usb.c ****           }
 2839              		.loc 1 521 13 is_stmt 0 view .LVU933
 2840 029e 2DE7     		b	.L108
 2841              	.L193:
 517:Drivers/STM32H5xx_HAL_Driver/Src/stm32h5xx_ll_usb.c ****             pmabuffer = ep->pmaaddr0;
 2842              		.loc 1 517 13 is_stmt 1 discriminator 16 view .LVU934
 517:Drivers/STM32H5xx_HAL_Driver/Src/stm32h5xx_ll_usb.c ****             pmabuffer = ep->pmaaddr0;
 2843              		.loc 1 517 13 discriminator 16 view .LVU935
 2844 02a0 2378     		ldrb	r3, [r4]	@ zero_extendqisi2
 2845 02a2 DB00     		lsls	r3, r3, #3
 2846 02a4 03F18043 		add	r3, r3, #1073741824
 2847 02a8 03F5B233 		add	r3, r3, #91136
 2848 02ac 1A68     		ldr	r2, [r3]
 2849 02ae 92B2     		uxth	r2, r2
 2850 02b0 1A60     		str	r2, [r3]
 517:Drivers/STM32H5xx_HAL_Driver/Src/stm32h5xx_ll_usb.c ****             pmabuffer = ep->pmaaddr0;
 2851              		.loc 1 517 13 discriminator 16 view .LVU936
ARM GAS  C:\Users\sapph\AppData\Local\Temp\cchEHrSS.s 			page 74


 2852 02b2 2378     		ldrb	r3, [r4]	@ zero_extendqisi2
 2853 02b4 DB00     		lsls	r3, r3, #3
 2854 02b6 03F18043 		add	r3, r3, #1073741824
 2855 02ba 03F5B233 		add	r3, r3, #91136
 2856 02be 1A68     		ldr	r2, [r3]
 2857 02c0 42EA0642 		orr	r2, r2, r6, lsl #16
 2858 02c4 1A60     		str	r2, [r3]
 2859 02c6 E4E7     		b	.L122
 2860              	.LVL306:
 2861              	.L111:
 526:Drivers/STM32H5xx_HAL_Driver/Src/stm32h5xx_ll_usb.c ****             pmabuffer = ep->pmaaddr0;
 2862              		.loc 1 526 13 view .LVU937
 526:Drivers/STM32H5xx_HAL_Driver/Src/stm32h5xx_ll_usb.c ****             pmabuffer = ep->pmaaddr0;
 2863              		.loc 1 526 13 view .LVU938
 2864 02c8 6278     		ldrb	r2, [r4, #1]	@ zero_extendqisi2
 2865 02ca 002A     		cmp	r2, #0
 2866 02cc 3ED1     		bne	.L126
 526:Drivers/STM32H5xx_HAL_Driver/Src/stm32h5xx_ll_usb.c ****             pmabuffer = ep->pmaaddr0;
 2867              		.loc 1 526 13 discriminator 1 view .LVU939
 2868              	.LBB68:
 526:Drivers/STM32H5xx_HAL_Driver/Src/stm32h5xx_ll_usb.c ****             pmabuffer = ep->pmaaddr0;
 2869              		.loc 1 526 13 discriminator 1 view .LVU940
 526:Drivers/STM32H5xx_HAL_Driver/Src/stm32h5xx_ll_usb.c ****             pmabuffer = ep->pmaaddr0;
 2870              		.loc 1 526 13 discriminator 1 view .LVU941
 2871 02ce DB00     		lsls	r3, r3, #3
 2872 02d0 03F18043 		add	r3, r3, #1073741824
 2873 02d4 03F5B233 		add	r3, r3, #91136
 2874 02d8 1A68     		ldr	r2, [r3]
 2875 02da 22F07C42 		bic	r2, r2, #-67108864
 2876 02de 1A60     		str	r2, [r3]
 526:Drivers/STM32H5xx_HAL_Driver/Src/stm32h5xx_ll_usb.c ****             pmabuffer = ep->pmaaddr0;
 2877              		.loc 1 526 13 discriminator 1 view .LVU942
 2878 02e0 56B9     		cbnz	r6, .L127
 526:Drivers/STM32H5xx_HAL_Driver/Src/stm32h5xx_ll_usb.c ****             pmabuffer = ep->pmaaddr0;
 2879              		.loc 1 526 13 discriminator 3 view .LVU943
 2880 02e2 2378     		ldrb	r3, [r4]	@ zero_extendqisi2
 2881 02e4 DB00     		lsls	r3, r3, #3
 2882 02e6 03F18043 		add	r3, r3, #1073741824
 2883 02ea 03F5B233 		add	r3, r3, #91136
 2884 02ee 1A68     		ldr	r2, [r3]
 2885 02f0 42F00042 		orr	r2, r2, #-2147483648
 2886 02f4 1A60     		str	r2, [r3]
 2887 02f6 2BE0     		b	.L128
 2888              	.L127:
 526:Drivers/STM32H5xx_HAL_Driver/Src/stm32h5xx_ll_usb.c ****             pmabuffer = ep->pmaaddr0;
 2889              		.loc 1 526 13 discriminator 4 view .LVU944
 2890 02f8 3E2E     		cmp	r6, #62
 2891 02fa 15D8     		bhi	.L129
 526:Drivers/STM32H5xx_HAL_Driver/Src/stm32h5xx_ll_usb.c ****             pmabuffer = ep->pmaaddr0;
 2892              		.loc 1 526 13 discriminator 6 view .LVU945
 526:Drivers/STM32H5xx_HAL_Driver/Src/stm32h5xx_ll_usb.c ****             pmabuffer = ep->pmaaddr0;
 2893              		.loc 1 526 13 discriminator 6 view .LVU946
 2894 02fc 7108     		lsrs	r1, r6, #1
 2895              	.LVL307:
 526:Drivers/STM32H5xx_HAL_Driver/Src/stm32h5xx_ll_usb.c ****             pmabuffer = ep->pmaaddr0;
 2896              		.loc 1 526 13 discriminator 6 view .LVU947
 2897 02fe 16F0010F 		tst	r6, #1
ARM GAS  C:\Users\sapph\AppData\Local\Temp\cchEHrSS.s 			page 75


 2898 0302 00D0     		beq	.L130
 526:Drivers/STM32H5xx_HAL_Driver/Src/stm32h5xx_ll_usb.c ****             pmabuffer = ep->pmaaddr0;
 2899              		.loc 1 526 13 discriminator 8 view .LVU948
 2900 0304 0131     		adds	r1, r1, #1
 2901              	.LVL308:
 2902              	.L130:
 526:Drivers/STM32H5xx_HAL_Driver/Src/stm32h5xx_ll_usb.c ****             pmabuffer = ep->pmaaddr0;
 2903              		.loc 1 526 13 discriminator 10 view .LVU949
 2904 0306 2378     		ldrb	r3, [r4]	@ zero_extendqisi2
 2905 0308 DB00     		lsls	r3, r3, #3
 2906 030a 03F18043 		add	r3, r3, #1073741824
 2907 030e 03F5B233 		add	r3, r3, #91136
 2908 0312 1A68     		ldr	r2, [r3]
 2909 0314 42EA8162 		orr	r2, r2, r1, lsl #26
 2910 0318 1A60     		str	r2, [r3]
 526:Drivers/STM32H5xx_HAL_Driver/Src/stm32h5xx_ll_usb.c ****             pmabuffer = ep->pmaaddr0;
 2911              		.loc 1 526 13 discriminator 10 view .LVU950
 2912 031a 19E0     		b	.L128
 2913              	.L199:
 2914              		.align	2
 2915              	.L198:
 2916 031c 8FBFFF07 		.word	134201231
 2917 0320 BF8FFF07 		.word	134188991
 2918 0324 8F8FFF07 		.word	134188943
 2919              	.LVL309:
 2920              	.L129:
 526:Drivers/STM32H5xx_HAL_Driver/Src/stm32h5xx_ll_usb.c ****             pmabuffer = ep->pmaaddr0;
 2921              		.loc 1 526 13 discriminator 7 view .LVU951
 526:Drivers/STM32H5xx_HAL_Driver/Src/stm32h5xx_ll_usb.c ****             pmabuffer = ep->pmaaddr0;
 2922              		.loc 1 526 13 discriminator 7 view .LVU952
 2923 0328 7109     		lsrs	r1, r6, #5
 2924              	.LVL310:
 526:Drivers/STM32H5xx_HAL_Driver/Src/stm32h5xx_ll_usb.c ****             pmabuffer = ep->pmaaddr0;
 2925              		.loc 1 526 13 discriminator 7 view .LVU953
 2926 032a 16F01F0F 		tst	r6, #31
 2927 032e 00D1     		bne	.L131
 526:Drivers/STM32H5xx_HAL_Driver/Src/stm32h5xx_ll_usb.c ****             pmabuffer = ep->pmaaddr0;
 2928              		.loc 1 526 13 discriminator 12 view .LVU954
 2929 0330 0139     		subs	r1, r1, #1
 2930              	.LVL311:
 2931              	.L131:
 526:Drivers/STM32H5xx_HAL_Driver/Src/stm32h5xx_ll_usb.c ****             pmabuffer = ep->pmaaddr0;
 2932              		.loc 1 526 13 discriminator 14 view .LVU955
 2933 0332 2378     		ldrb	r3, [r4]	@ zero_extendqisi2
 2934 0334 DB00     		lsls	r3, r3, #3
 2935 0336 03F18043 		add	r3, r3, #1073741824
 2936 033a 03F5B233 		add	r3, r3, #91136
 2937 033e 1A68     		ldr	r2, [r3]
 2938 0340 42EA8162 		orr	r2, r2, r1, lsl #26
 2939 0344 42F00042 		orr	r2, r2, #-2147483648
 2940 0348 1A60     		str	r2, [r3]
 2941 034a 01E0     		b	.L128
 2942              	.LVL312:
 2943              	.L126:
 526:Drivers/STM32H5xx_HAL_Driver/Src/stm32h5xx_ll_usb.c ****             pmabuffer = ep->pmaaddr0;
 2944              		.loc 1 526 13 is_stmt 0 discriminator 14 view .LVU956
 2945              	.LBE68:
ARM GAS  C:\Users\sapph\AppData\Local\Temp\cchEHrSS.s 			page 76


 526:Drivers/STM32H5xx_HAL_Driver/Src/stm32h5xx_ll_usb.c ****             pmabuffer = ep->pmaaddr0;
 2946              		.loc 1 526 13 is_stmt 1 discriminator 2 view .LVU957
 2947 034c 012A     		cmp	r2, #1
 2948 034e 27D0     		beq	.L194
 2949              	.LVL313:
 2950              	.L128:
 526:Drivers/STM32H5xx_HAL_Driver/Src/stm32h5xx_ll_usb.c ****             pmabuffer = ep->pmaaddr0;
 2951              		.loc 1 526 13 discriminator 18 view .LVU958
 526:Drivers/STM32H5xx_HAL_Driver/Src/stm32h5xx_ll_usb.c ****             pmabuffer = ep->pmaaddr0;
 2952              		.loc 1 526 13 discriminator 18 view .LVU959
 527:Drivers/STM32H5xx_HAL_Driver/Src/stm32h5xx_ll_usb.c **** 
 2953              		.loc 1 527 13 view .LVU960
 530:Drivers/STM32H5xx_HAL_Driver/Src/stm32h5xx_ll_usb.c ****             ep->xfer_buff += len;
 2954              		.loc 1 530 13 view .LVU961
 2955 0350 B3B2     		uxth	r3, r6
 2956 0352 2289     		ldrh	r2, [r4, #8]
 2957 0354 6169     		ldr	r1, [r4, #20]
 2958 0356 2846     		mov	r0, r5
 2959              	.LVL314:
 530:Drivers/STM32H5xx_HAL_Driver/Src/stm32h5xx_ll_usb.c ****             ep->xfer_buff += len;
 2960              		.loc 1 530 13 is_stmt 0 view .LVU962
 2961 0358 FFF7FEFF 		bl	USB_WritePMA
 2962              	.LVL315:
 531:Drivers/STM32H5xx_HAL_Driver/Src/stm32h5xx_ll_usb.c **** 
 2963              		.loc 1 531 13 is_stmt 1 view .LVU963
 531:Drivers/STM32H5xx_HAL_Driver/Src/stm32h5xx_ll_usb.c **** 
 2964              		.loc 1 531 15 is_stmt 0 view .LVU964
 2965 035c 6369     		ldr	r3, [r4, #20]
 531:Drivers/STM32H5xx_HAL_Driver/Src/stm32h5xx_ll_usb.c **** 
 2966              		.loc 1 531 27 view .LVU965
 2967 035e 3344     		add	r3, r3, r6
 2968 0360 6361     		str	r3, [r4, #20]
 533:Drivers/STM32H5xx_HAL_Driver/Src/stm32h5xx_ll_usb.c ****             {
 2969              		.loc 1 533 13 is_stmt 1 view .LVU966
 533:Drivers/STM32H5xx_HAL_Driver/Src/stm32h5xx_ll_usb.c ****             {
 2970              		.loc 1 533 19 is_stmt 0 view .LVU967
 2971 0362 236A     		ldr	r3, [r4, #32]
 533:Drivers/STM32H5xx_HAL_Driver/Src/stm32h5xx_ll_usb.c ****             {
 2972              		.loc 1 533 37 view .LVU968
 2973 0364 2269     		ldr	r2, [r4, #16]
 533:Drivers/STM32H5xx_HAL_Driver/Src/stm32h5xx_ll_usb.c ****             {
 2974              		.loc 1 533 16 view .LVU969
 2975 0366 9342     		cmp	r3, r2
 2976 0368 2DD9     		bls	.L132
 535:Drivers/STM32H5xx_HAL_Driver/Src/stm32h5xx_ll_usb.c ****             }
 2977              		.loc 1 535 15 is_stmt 1 view .LVU970
 535:Drivers/STM32H5xx_HAL_Driver/Src/stm32h5xx_ll_usb.c ****             }
 2978              		.loc 1 535 31 is_stmt 0 view .LVU971
 2979 036a 9B1B     		subs	r3, r3, r6
 2980 036c 2362     		str	r3, [r4, #32]
 2981              	.L133:
 544:Drivers/STM32H5xx_HAL_Driver/Src/stm32h5xx_ll_usb.c ****             pmabuffer = ep->pmaaddr1;
 2982              		.loc 1 544 13 is_stmt 1 view .LVU972
 544:Drivers/STM32H5xx_HAL_Driver/Src/stm32h5xx_ll_usb.c ****             pmabuffer = ep->pmaaddr1;
 2983              		.loc 1 544 13 view .LVU973
 2984 036e 6378     		ldrb	r3, [r4, #1]	@ zero_extendqisi2
 2985 0370 002B     		cmp	r3, #0
ARM GAS  C:\Users\sapph\AppData\Local\Temp\cchEHrSS.s 			page 77


 2986 0372 50D1     		bne	.L134
 544:Drivers/STM32H5xx_HAL_Driver/Src/stm32h5xx_ll_usb.c ****             pmabuffer = ep->pmaaddr1;
 2987              		.loc 1 544 13 discriminator 1 view .LVU974
 2988              	.LBB69:
 544:Drivers/STM32H5xx_HAL_Driver/Src/stm32h5xx_ll_usb.c ****             pmabuffer = ep->pmaaddr1;
 2989              		.loc 1 544 13 discriminator 1 view .LVU975
 544:Drivers/STM32H5xx_HAL_Driver/Src/stm32h5xx_ll_usb.c ****             pmabuffer = ep->pmaaddr1;
 2990              		.loc 1 544 13 discriminator 1 view .LVU976
 2991 0374 2378     		ldrb	r3, [r4]	@ zero_extendqisi2
 2992 0376 DB00     		lsls	r3, r3, #3
 2993 0378 03F18043 		add	r3, r3, #1073741824
 2994 037c 03F5B233 		add	r3, r3, #91136
 2995 0380 5A68     		ldr	r2, [r3, #4]
 2996 0382 22F07C42 		bic	r2, r2, #-67108864
 2997 0386 5A60     		str	r2, [r3, #4]
 544:Drivers/STM32H5xx_HAL_Driver/Src/stm32h5xx_ll_usb.c ****             pmabuffer = ep->pmaaddr1;
 2998              		.loc 1 544 13 discriminator 1 view .LVU977
 2999 0388 0EBB     		cbnz	r6, .L135
 544:Drivers/STM32H5xx_HAL_Driver/Src/stm32h5xx_ll_usb.c ****             pmabuffer = ep->pmaaddr1;
 3000              		.loc 1 544 13 discriminator 3 view .LVU978
 3001 038a 2378     		ldrb	r3, [r4]	@ zero_extendqisi2
 3002 038c DB00     		lsls	r3, r3, #3
 3003 038e 03F18043 		add	r3, r3, #1073741824
 3004 0392 03F5B233 		add	r3, r3, #91136
 3005 0396 5A68     		ldr	r2, [r3, #4]
 3006 0398 42F00042 		orr	r2, r2, #-2147483648
 3007 039c 5A60     		str	r2, [r3, #4]
 3008 039e 3CE0     		b	.L136
 3009              	.LVL316:
 3010              	.L194:
 544:Drivers/STM32H5xx_HAL_Driver/Src/stm32h5xx_ll_usb.c ****             pmabuffer = ep->pmaaddr1;
 3011              		.loc 1 544 13 is_stmt 0 discriminator 3 view .LVU979
 3012              	.LBE69:
 526:Drivers/STM32H5xx_HAL_Driver/Src/stm32h5xx_ll_usb.c ****             pmabuffer = ep->pmaaddr0;
 3013              		.loc 1 526 13 is_stmt 1 discriminator 16 view .LVU980
 526:Drivers/STM32H5xx_HAL_Driver/Src/stm32h5xx_ll_usb.c ****             pmabuffer = ep->pmaaddr0;
 3014              		.loc 1 526 13 discriminator 16 view .LVU981
 3015 03a0 DB00     		lsls	r3, r3, #3
 3016 03a2 03F18043 		add	r3, r3, #1073741824
 3017 03a6 03F5B233 		add	r3, r3, #91136
 3018 03aa 1A68     		ldr	r2, [r3]
 3019 03ac 92B2     		uxth	r2, r2
 3020 03ae 1A60     		str	r2, [r3]
 526:Drivers/STM32H5xx_HAL_Driver/Src/stm32h5xx_ll_usb.c ****             pmabuffer = ep->pmaaddr0;
 3021              		.loc 1 526 13 discriminator 16 view .LVU982
 3022 03b0 2378     		ldrb	r3, [r4]	@ zero_extendqisi2
 3023 03b2 DB00     		lsls	r3, r3, #3
 3024 03b4 03F18043 		add	r3, r3, #1073741824
 3025 03b8 03F5B233 		add	r3, r3, #91136
 3026 03bc 1A68     		ldr	r2, [r3]
 3027 03be 42EA0642 		orr	r2, r2, r6, lsl #16
 3028 03c2 1A60     		str	r2, [r3]
 3029 03c4 C4E7     		b	.L128
 3030              	.LVL317:
 3031              	.L132:
 539:Drivers/STM32H5xx_HAL_Driver/Src/stm32h5xx_ll_usb.c ****               ep->xfer_len_db = 0U;
 3032              		.loc 1 539 15 view .LVU983
ARM GAS  C:\Users\sapph\AppData\Local\Temp\cchEHrSS.s 			page 78


 540:Drivers/STM32H5xx_HAL_Driver/Src/stm32h5xx_ll_usb.c ****             }
 3033              		.loc 1 540 15 view .LVU984
 540:Drivers/STM32H5xx_HAL_Driver/Src/stm32h5xx_ll_usb.c ****             }
 3034              		.loc 1 540 31 is_stmt 0 view .LVU985
 3035 03c6 0022     		movs	r2, #0
 3036 03c8 2262     		str	r2, [r4, #32]
 539:Drivers/STM32H5xx_HAL_Driver/Src/stm32h5xx_ll_usb.c ****               ep->xfer_len_db = 0U;
 3037              		.loc 1 539 19 view .LVU986
 3038 03ca 1E46     		mov	r6, r3
 3039 03cc CFE7     		b	.L133
 3040              	.LVL318:
 3041              	.L135:
 3042              	.LBB70:
 544:Drivers/STM32H5xx_HAL_Driver/Src/stm32h5xx_ll_usb.c ****             pmabuffer = ep->pmaaddr1;
 3043              		.loc 1 544 13 is_stmt 1 discriminator 4 view .LVU987
 3044 03ce 3E2E     		cmp	r6, #62
 3045 03d0 0FD8     		bhi	.L137
 544:Drivers/STM32H5xx_HAL_Driver/Src/stm32h5xx_ll_usb.c ****             pmabuffer = ep->pmaaddr1;
 3046              		.loc 1 544 13 discriminator 6 view .LVU988
 544:Drivers/STM32H5xx_HAL_Driver/Src/stm32h5xx_ll_usb.c ****             pmabuffer = ep->pmaaddr1;
 3047              		.loc 1 544 13 discriminator 6 view .LVU989
 3048 03d2 7108     		lsrs	r1, r6, #1
 3049              	.LVL319:
 544:Drivers/STM32H5xx_HAL_Driver/Src/stm32h5xx_ll_usb.c ****             pmabuffer = ep->pmaaddr1;
 3050              		.loc 1 544 13 discriminator 6 view .LVU990
 3051 03d4 16F0010F 		tst	r6, #1
 3052 03d8 00D0     		beq	.L138
 544:Drivers/STM32H5xx_HAL_Driver/Src/stm32h5xx_ll_usb.c ****             pmabuffer = ep->pmaaddr1;
 3053              		.loc 1 544 13 discriminator 8 view .LVU991
 3054 03da 0131     		adds	r1, r1, #1
 3055              	.LVL320:
 3056              	.L138:
 544:Drivers/STM32H5xx_HAL_Driver/Src/stm32h5xx_ll_usb.c ****             pmabuffer = ep->pmaaddr1;
 3057              		.loc 1 544 13 discriminator 10 view .LVU992
 3058 03dc 2378     		ldrb	r3, [r4]	@ zero_extendqisi2
 3059 03de DB00     		lsls	r3, r3, #3
 3060 03e0 03F18043 		add	r3, r3, #1073741824
 3061 03e4 03F5B233 		add	r3, r3, #91136
 3062 03e8 5A68     		ldr	r2, [r3, #4]
 3063 03ea 42EA8162 		orr	r2, r2, r1, lsl #26
 3064 03ee 5A60     		str	r2, [r3, #4]
 544:Drivers/STM32H5xx_HAL_Driver/Src/stm32h5xx_ll_usb.c ****             pmabuffer = ep->pmaaddr1;
 3065              		.loc 1 544 13 discriminator 10 view .LVU993
 3066 03f0 13E0     		b	.L136
 3067              	.LVL321:
 3068              	.L137:
 544:Drivers/STM32H5xx_HAL_Driver/Src/stm32h5xx_ll_usb.c ****             pmabuffer = ep->pmaaddr1;
 3069              		.loc 1 544 13 discriminator 7 view .LVU994
 544:Drivers/STM32H5xx_HAL_Driver/Src/stm32h5xx_ll_usb.c ****             pmabuffer = ep->pmaaddr1;
 3070              		.loc 1 544 13 discriminator 7 view .LVU995
 3071 03f2 7109     		lsrs	r1, r6, #5
 3072              	.LVL322:
 544:Drivers/STM32H5xx_HAL_Driver/Src/stm32h5xx_ll_usb.c ****             pmabuffer = ep->pmaaddr1;
 3073              		.loc 1 544 13 discriminator 7 view .LVU996
 3074 03f4 16F01F0F 		tst	r6, #31
 3075 03f8 00D1     		bne	.L139
 544:Drivers/STM32H5xx_HAL_Driver/Src/stm32h5xx_ll_usb.c ****             pmabuffer = ep->pmaaddr1;
ARM GAS  C:\Users\sapph\AppData\Local\Temp\cchEHrSS.s 			page 79


 3076              		.loc 1 544 13 discriminator 12 view .LVU997
 3077 03fa 0139     		subs	r1, r1, #1
 3078              	.LVL323:
 3079              	.L139:
 544:Drivers/STM32H5xx_HAL_Driver/Src/stm32h5xx_ll_usb.c ****             pmabuffer = ep->pmaaddr1;
 3080              		.loc 1 544 13 discriminator 14 view .LVU998
 3081 03fc 2378     		ldrb	r3, [r4]	@ zero_extendqisi2
 3082 03fe DB00     		lsls	r3, r3, #3
 3083 0400 03F18043 		add	r3, r3, #1073741824
 3084 0404 03F5B233 		add	r3, r3, #91136
 3085 0408 5A68     		ldr	r2, [r3, #4]
 3086 040a 42EA8162 		orr	r2, r2, r1, lsl #26
 3087 040e 42F00042 		orr	r2, r2, #-2147483648
 3088 0412 5A60     		str	r2, [r3, #4]
 3089 0414 01E0     		b	.L136
 3090              	.LVL324:
 3091              	.L134:
 544:Drivers/STM32H5xx_HAL_Driver/Src/stm32h5xx_ll_usb.c ****             pmabuffer = ep->pmaaddr1;
 3092              		.loc 1 544 13 is_stmt 0 discriminator 14 view .LVU999
 3093              	.LBE70:
 544:Drivers/STM32H5xx_HAL_Driver/Src/stm32h5xx_ll_usb.c ****             pmabuffer = ep->pmaaddr1;
 3094              		.loc 1 544 13 is_stmt 1 discriminator 2 view .LVU1000
 3095 0416 012B     		cmp	r3, #1
 3096 0418 06D0     		beq	.L195
 3097              	.L136:
 544:Drivers/STM32H5xx_HAL_Driver/Src/stm32h5xx_ll_usb.c ****             pmabuffer = ep->pmaaddr1;
 3098              		.loc 1 544 13 discriminator 18 view .LVU1001
 545:Drivers/STM32H5xx_HAL_Driver/Src/stm32h5xx_ll_usb.c **** 
 3099              		.loc 1 545 13 view .LVU1002
 3100              	.LVL325:
 548:Drivers/STM32H5xx_HAL_Driver/Src/stm32h5xx_ll_usb.c ****           }
 3101              		.loc 1 548 13 view .LVU1003
 3102 041a B3B2     		uxth	r3, r6
 3103 041c 6289     		ldrh	r2, [r4, #10]
 3104 041e 6169     		ldr	r1, [r4, #20]
 3105 0420 2846     		mov	r0, r5
 3106 0422 FFF7FEFF 		bl	USB_WritePMA
 3107              	.LVL326:
 548:Drivers/STM32H5xx_HAL_Driver/Src/stm32h5xx_ll_usb.c ****           }
 3108              		.loc 1 548 13 is_stmt 0 view .LVU1004
 3109 0426 69E6     		b	.L108
 3110              	.L195:
 544:Drivers/STM32H5xx_HAL_Driver/Src/stm32h5xx_ll_usb.c ****             pmabuffer = ep->pmaaddr1;
 3111              		.loc 1 544 13 is_stmt 1 discriminator 16 view .LVU1005
 3112 0428 2378     		ldrb	r3, [r4]	@ zero_extendqisi2
 3113 042a DB00     		lsls	r3, r3, #3
 3114 042c 03F18043 		add	r3, r3, #1073741824
 3115 0430 03F5B233 		add	r3, r3, #91136
 3116 0434 5A68     		ldr	r2, [r3, #4]
 3117 0436 92B2     		uxth	r2, r2
 3118 0438 5A60     		str	r2, [r3, #4]
 544:Drivers/STM32H5xx_HAL_Driver/Src/stm32h5xx_ll_usb.c ****             pmabuffer = ep->pmaaddr1;
 3119              		.loc 1 544 13 discriminator 16 view .LVU1006
 3120 043a 2378     		ldrb	r3, [r4]	@ zero_extendqisi2
 3121 043c DB00     		lsls	r3, r3, #3
 3122 043e 03F18043 		add	r3, r3, #1073741824
 3123 0442 03F5B233 		add	r3, r3, #91136
ARM GAS  C:\Users\sapph\AppData\Local\Temp\cchEHrSS.s 			page 80


 3124 0446 5A68     		ldr	r2, [r3, #4]
 3125 0448 42EA0642 		orr	r2, r2, r6, lsl #16
 3126 044c 5A60     		str	r2, [r3, #4]
 3127 044e E4E7     		b	.L136
 3128              	.LVL327:
 3129              	.L110:
 554:Drivers/STM32H5xx_HAL_Driver/Src/stm32h5xx_ll_usb.c **** 
 3130              		.loc 1 554 11 view .LVU1007
 557:Drivers/STM32H5xx_HAL_Driver/Src/stm32h5xx_ll_usb.c **** 
 3131              		.loc 1 557 11 view .LVU1008
 3132              	.LBB71:
 557:Drivers/STM32H5xx_HAL_Driver/Src/stm32h5xx_ll_usb.c **** 
 3133              		.loc 1 557 11 view .LVU1009
 557:Drivers/STM32H5xx_HAL_Driver/Src/stm32h5xx_ll_usb.c **** 
 3134              		.loc 1 557 11 view .LVU1010
 3135 0450 2178     		ldrb	r1, [r4]	@ zero_extendqisi2
 3136 0452 55F82100 		ldr	r0, [r5, r1, lsl #2]
 3137              	.LVL328:
 557:Drivers/STM32H5xx_HAL_Driver/Src/stm32h5xx_ll_usb.c **** 
 3138              		.loc 1 557 11 is_stmt 0 view .LVU1011
 3139 0456 AF4A     		ldr	r2, .L200
 3140 0458 0240     		ands	r2, r2, r0
 3141              	.LVL329:
 557:Drivers/STM32H5xx_HAL_Driver/Src/stm32h5xx_ll_usb.c **** 
 3142              		.loc 1 557 11 is_stmt 1 view .LVU1012
 3143 045a 42F40042 		orr	r2, r2, #32768
 3144              	.LVL330:
 557:Drivers/STM32H5xx_HAL_Driver/Src/stm32h5xx_ll_usb.c **** 
 3145              		.loc 1 557 11 is_stmt 0 view .LVU1013
 3146 045e 42F08002 		orr	r2, r2, #128
 3147 0462 45F82120 		str	r2, [r5, r1, lsl #2]
 3148              	.LBE71:
 557:Drivers/STM32H5xx_HAL_Driver/Src/stm32h5xx_ll_usb.c **** 
 3149              		.loc 1 557 11 is_stmt 1 view .LVU1014
 560:Drivers/STM32H5xx_HAL_Driver/Src/stm32h5xx_ll_usb.c ****           pmabuffer = ep->pmaaddr0;
 3150              		.loc 1 560 11 view .LVU1015
 560:Drivers/STM32H5xx_HAL_Driver/Src/stm32h5xx_ll_usb.c ****           pmabuffer = ep->pmaaddr0;
 3151              		.loc 1 560 11 view .LVU1016
 3152 0466 2278     		ldrb	r2, [r4]	@ zero_extendqisi2
 3153 0468 D200     		lsls	r2, r2, #3
 3154 046a 02F18042 		add	r2, r2, #1073741824
 3155 046e 02F5B232 		add	r2, r2, #91136
 3156 0472 1168     		ldr	r1, [r2]
 3157 0474 89B2     		uxth	r1, r1
 3158 0476 1160     		str	r1, [r2]
 560:Drivers/STM32H5xx_HAL_Driver/Src/stm32h5xx_ll_usb.c ****           pmabuffer = ep->pmaaddr0;
 3159              		.loc 1 560 11 view .LVU1017
 3160 0478 2278     		ldrb	r2, [r4]	@ zero_extendqisi2
 3161 047a D200     		lsls	r2, r2, #3
 3162 047c 02F18042 		add	r2, r2, #1073741824
 3163 0480 02F5B232 		add	r2, r2, #91136
 3164 0484 1168     		ldr	r1, [r2]
 3165 0486 41EA0341 		orr	r1, r1, r3, lsl #16
 3166 048a 1160     		str	r1, [r2]
 560:Drivers/STM32H5xx_HAL_Driver/Src/stm32h5xx_ll_usb.c ****           pmabuffer = ep->pmaaddr0;
 3167              		.loc 1 560 11 view .LVU1018
 561:Drivers/STM32H5xx_HAL_Driver/Src/stm32h5xx_ll_usb.c **** 
ARM GAS  C:\Users\sapph\AppData\Local\Temp\cchEHrSS.s 			page 81


 3168              		.loc 1 561 11 view .LVU1019
 3169              	.LVL331:
 564:Drivers/STM32H5xx_HAL_Driver/Src/stm32h5xx_ll_usb.c ****         }
 3170              		.loc 1 564 11 view .LVU1020
 3171 048c 9BB2     		uxth	r3, r3
 3172              	.LVL332:
 564:Drivers/STM32H5xx_HAL_Driver/Src/stm32h5xx_ll_usb.c ****         }
 3173              		.loc 1 564 11 is_stmt 0 view .LVU1021
 3174 048e 2289     		ldrh	r2, [r4, #8]
 3175 0490 6169     		ldr	r1, [r4, #20]
 3176 0492 2846     		mov	r0, r5
 3177              	.LVL333:
 564:Drivers/STM32H5xx_HAL_Driver/Src/stm32h5xx_ll_usb.c ****         }
 3178              		.loc 1 564 11 view .LVU1022
 3179 0494 FFF7FEFF 		bl	USB_WritePMA
 3180              	.LVL334:
 564:Drivers/STM32H5xx_HAL_Driver/Src/stm32h5xx_ll_usb.c ****         }
 3181              		.loc 1 564 11 view .LVU1023
 3182 0498 30E6     		b	.L108
 3183              	.LVL335:
 3184              	.L142:
 3185              	.LBB72:
 576:Drivers/STM32H5xx_HAL_Driver/Src/stm32h5xx_ll_usb.c ****           pmabuffer = ep->pmaaddr1;
 3186              		.loc 1 576 11 is_stmt 1 discriminator 4 view .LVU1024
 3187 049a 3E2E     		cmp	r6, #62
 3188 049c 0FD8     		bhi	.L144
 576:Drivers/STM32H5xx_HAL_Driver/Src/stm32h5xx_ll_usb.c ****           pmabuffer = ep->pmaaddr1;
 3189              		.loc 1 576 11 discriminator 6 view .LVU1025
 576:Drivers/STM32H5xx_HAL_Driver/Src/stm32h5xx_ll_usb.c ****           pmabuffer = ep->pmaaddr1;
 3190              		.loc 1 576 11 discriminator 6 view .LVU1026
 3191 049e 7108     		lsrs	r1, r6, #1
 3192              	.LVL336:
 576:Drivers/STM32H5xx_HAL_Driver/Src/stm32h5xx_ll_usb.c ****           pmabuffer = ep->pmaaddr1;
 3193              		.loc 1 576 11 discriminator 6 view .LVU1027
 3194 04a0 16F0010F 		tst	r6, #1
 3195 04a4 00D0     		beq	.L145
 576:Drivers/STM32H5xx_HAL_Driver/Src/stm32h5xx_ll_usb.c ****           pmabuffer = ep->pmaaddr1;
 3196              		.loc 1 576 11 discriminator 8 view .LVU1028
 3197 04a6 0131     		adds	r1, r1, #1
 3198              	.LVL337:
 3199              	.L145:
 576:Drivers/STM32H5xx_HAL_Driver/Src/stm32h5xx_ll_usb.c ****           pmabuffer = ep->pmaaddr1;
 3200              		.loc 1 576 11 discriminator 10 view .LVU1029
 3201 04a8 2378     		ldrb	r3, [r4]	@ zero_extendqisi2
 3202 04aa DB00     		lsls	r3, r3, #3
 3203 04ac 03F18043 		add	r3, r3, #1073741824
 3204 04b0 03F5B233 		add	r3, r3, #91136
 3205 04b4 5A68     		ldr	r2, [r3, #4]
 3206 04b6 42EA8162 		orr	r2, r2, r1, lsl #26
 3207 04ba 5A60     		str	r2, [r3, #4]
 576:Drivers/STM32H5xx_HAL_Driver/Src/stm32h5xx_ll_usb.c ****           pmabuffer = ep->pmaaddr1;
 3208              		.loc 1 576 11 discriminator 10 view .LVU1030
 3209 04bc 23E0     		b	.L143
 3210              	.LVL338:
 3211              	.L144:
 576:Drivers/STM32H5xx_HAL_Driver/Src/stm32h5xx_ll_usb.c ****           pmabuffer = ep->pmaaddr1;
 3212              		.loc 1 576 11 discriminator 7 view .LVU1031
ARM GAS  C:\Users\sapph\AppData\Local\Temp\cchEHrSS.s 			page 82


 576:Drivers/STM32H5xx_HAL_Driver/Src/stm32h5xx_ll_usb.c ****           pmabuffer = ep->pmaaddr1;
 3213              		.loc 1 576 11 discriminator 7 view .LVU1032
 3214 04be 7109     		lsrs	r1, r6, #5
 3215              	.LVL339:
 576:Drivers/STM32H5xx_HAL_Driver/Src/stm32h5xx_ll_usb.c ****           pmabuffer = ep->pmaaddr1;
 3216              		.loc 1 576 11 discriminator 7 view .LVU1033
 3217 04c0 16F01F0F 		tst	r6, #31
 3218 04c4 00D1     		bne	.L146
 576:Drivers/STM32H5xx_HAL_Driver/Src/stm32h5xx_ll_usb.c ****           pmabuffer = ep->pmaaddr1;
 3219              		.loc 1 576 11 discriminator 12 view .LVU1034
 3220 04c6 0139     		subs	r1, r1, #1
 3221              	.LVL340:
 3222              	.L146:
 576:Drivers/STM32H5xx_HAL_Driver/Src/stm32h5xx_ll_usb.c ****           pmabuffer = ep->pmaaddr1;
 3223              		.loc 1 576 11 discriminator 14 view .LVU1035
 3224 04c8 2378     		ldrb	r3, [r4]	@ zero_extendqisi2
 3225 04ca DB00     		lsls	r3, r3, #3
 3226 04cc 03F18043 		add	r3, r3, #1073741824
 3227 04d0 03F5B233 		add	r3, r3, #91136
 3228 04d4 5A68     		ldr	r2, [r3, #4]
 3229 04d6 42EA8162 		orr	r2, r2, r1, lsl #26
 3230 04da 42F00042 		orr	r2, r2, #-2147483648
 3231 04de 5A60     		str	r2, [r3, #4]
 3232 04e0 11E0     		b	.L143
 3233              	.LVL341:
 3234              	.L141:
 576:Drivers/STM32H5xx_HAL_Driver/Src/stm32h5xx_ll_usb.c ****           pmabuffer = ep->pmaaddr1;
 3235              		.loc 1 576 11 is_stmt 0 discriminator 14 view .LVU1036
 3236              	.LBE72:
 576:Drivers/STM32H5xx_HAL_Driver/Src/stm32h5xx_ll_usb.c ****           pmabuffer = ep->pmaaddr1;
 3237              		.loc 1 576 11 is_stmt 1 discriminator 2 view .LVU1037
 576:Drivers/STM32H5xx_HAL_Driver/Src/stm32h5xx_ll_usb.c ****           pmabuffer = ep->pmaaddr1;
 3238              		.loc 1 576 11 discriminator 16 view .LVU1038
 3239 04e2 D200     		lsls	r2, r2, #3
 3240 04e4 02F18042 		add	r2, r2, #1073741824
 3241 04e8 02F5B232 		add	r2, r2, #91136
 3242 04ec 5368     		ldr	r3, [r2, #4]
 3243 04ee 9BB2     		uxth	r3, r3
 3244 04f0 5360     		str	r3, [r2, #4]
 576:Drivers/STM32H5xx_HAL_Driver/Src/stm32h5xx_ll_usb.c ****           pmabuffer = ep->pmaaddr1;
 3245              		.loc 1 576 11 discriminator 16 view .LVU1039
 3246 04f2 2378     		ldrb	r3, [r4]	@ zero_extendqisi2
 3247 04f4 DB00     		lsls	r3, r3, #3
 3248 04f6 03F18043 		add	r3, r3, #1073741824
 3249 04fa 03F5B233 		add	r3, r3, #91136
 3250 04fe 5A68     		ldr	r2, [r3, #4]
 3251 0500 42EA0642 		orr	r2, r2, r6, lsl #16
 3252 0504 5A60     		str	r2, [r3, #4]
 3253              	.L143:
 576:Drivers/STM32H5xx_HAL_Driver/Src/stm32h5xx_ll_usb.c ****           pmabuffer = ep->pmaaddr1;
 3254              		.loc 1 576 11 discriminator 18 view .LVU1040
 577:Drivers/STM32H5xx_HAL_Driver/Src/stm32h5xx_ll_usb.c **** 
 3255              		.loc 1 577 11 view .LVU1041
 3256              	.LVL342:
 580:Drivers/STM32H5xx_HAL_Driver/Src/stm32h5xx_ll_usb.c ****         }
 3257              		.loc 1 580 11 view .LVU1042
 3258 0506 B3B2     		uxth	r3, r6
ARM GAS  C:\Users\sapph\AppData\Local\Temp\cchEHrSS.s 			page 83


 3259 0508 6289     		ldrh	r2, [r4, #10]
 3260 050a 6169     		ldr	r1, [r4, #20]
 3261 050c 2846     		mov	r0, r5
 3262              	.LVL343:
 580:Drivers/STM32H5xx_HAL_Driver/Src/stm32h5xx_ll_usb.c ****         }
 3263              		.loc 1 580 11 is_stmt 0 view .LVU1043
 3264 050e FFF7FEFF 		bl	USB_WritePMA
 3265              	.LVL344:
 580:Drivers/STM32H5xx_HAL_Driver/Src/stm32h5xx_ll_usb.c ****         }
 3266              		.loc 1 580 11 view .LVU1044
 3267 0512 F3E5     		b	.L108
 3268              	.LVL345:
 3269              	.L140:
 585:Drivers/STM32H5xx_HAL_Driver/Src/stm32h5xx_ll_usb.c ****           pmabuffer = ep->pmaaddr0;
 3270              		.loc 1 585 11 is_stmt 1 view .LVU1045
 585:Drivers/STM32H5xx_HAL_Driver/Src/stm32h5xx_ll_usb.c ****           pmabuffer = ep->pmaaddr0;
 3271              		.loc 1 585 11 view .LVU1046
 3272 0514 002B     		cmp	r3, #0
 3273 0516 38D1     		bne	.L147
 585:Drivers/STM32H5xx_HAL_Driver/Src/stm32h5xx_ll_usb.c ****           pmabuffer = ep->pmaaddr0;
 3274              		.loc 1 585 11 discriminator 1 view .LVU1047
 3275              	.LBB73:
 585:Drivers/STM32H5xx_HAL_Driver/Src/stm32h5xx_ll_usb.c ****           pmabuffer = ep->pmaaddr0;
 3276              		.loc 1 585 11 discriminator 1 view .LVU1048
 585:Drivers/STM32H5xx_HAL_Driver/Src/stm32h5xx_ll_usb.c ****           pmabuffer = ep->pmaaddr0;
 3277              		.loc 1 585 11 discriminator 1 view .LVU1049
 3278 0518 D200     		lsls	r2, r2, #3
 3279 051a 02F18042 		add	r2, r2, #1073741824
 3280 051e 02F5B232 		add	r2, r2, #91136
 3281 0522 1368     		ldr	r3, [r2]
 3282 0524 23F07C43 		bic	r3, r3, #-67108864
 3283 0528 1360     		str	r3, [r2]
 585:Drivers/STM32H5xx_HAL_Driver/Src/stm32h5xx_ll_usb.c ****           pmabuffer = ep->pmaaddr0;
 3284              		.loc 1 585 11 discriminator 1 view .LVU1050
 3285 052a 56B9     		cbnz	r6, .L148
 585:Drivers/STM32H5xx_HAL_Driver/Src/stm32h5xx_ll_usb.c ****           pmabuffer = ep->pmaaddr0;
 3286              		.loc 1 585 11 discriminator 3 view .LVU1051
 3287 052c 2378     		ldrb	r3, [r4]	@ zero_extendqisi2
 3288 052e DB00     		lsls	r3, r3, #3
 3289 0530 03F18043 		add	r3, r3, #1073741824
 3290 0534 03F5B233 		add	r3, r3, #91136
 3291 0538 1A68     		ldr	r2, [r3]
 3292 053a 42F00042 		orr	r2, r2, #-2147483648
 3293 053e 1A60     		str	r2, [r3]
 3294 0540 35E0     		b	.L149
 3295              	.L148:
 585:Drivers/STM32H5xx_HAL_Driver/Src/stm32h5xx_ll_usb.c ****           pmabuffer = ep->pmaaddr0;
 3296              		.loc 1 585 11 discriminator 4 view .LVU1052
 3297 0542 3E2E     		cmp	r6, #62
 3298 0544 0FD8     		bhi	.L150
 585:Drivers/STM32H5xx_HAL_Driver/Src/stm32h5xx_ll_usb.c ****           pmabuffer = ep->pmaaddr0;
 3299              		.loc 1 585 11 discriminator 6 view .LVU1053
 585:Drivers/STM32H5xx_HAL_Driver/Src/stm32h5xx_ll_usb.c ****           pmabuffer = ep->pmaaddr0;
 3300              		.loc 1 585 11 discriminator 6 view .LVU1054
 3301 0546 7108     		lsrs	r1, r6, #1
 3302              	.LVL346:
 585:Drivers/STM32H5xx_HAL_Driver/Src/stm32h5xx_ll_usb.c ****           pmabuffer = ep->pmaaddr0;
ARM GAS  C:\Users\sapph\AppData\Local\Temp\cchEHrSS.s 			page 84


 3303              		.loc 1 585 11 discriminator 6 view .LVU1055
 3304 0548 16F0010F 		tst	r6, #1
 3305 054c 00D0     		beq	.L151
 585:Drivers/STM32H5xx_HAL_Driver/Src/stm32h5xx_ll_usb.c ****           pmabuffer = ep->pmaaddr0;
 3306              		.loc 1 585 11 discriminator 8 view .LVU1056
 3307 054e 0131     		adds	r1, r1, #1
 3308              	.LVL347:
 3309              	.L151:
 585:Drivers/STM32H5xx_HAL_Driver/Src/stm32h5xx_ll_usb.c ****           pmabuffer = ep->pmaaddr0;
 3310              		.loc 1 585 11 discriminator 10 view .LVU1057
 3311 0550 2378     		ldrb	r3, [r4]	@ zero_extendqisi2
 3312 0552 DB00     		lsls	r3, r3, #3
 3313 0554 03F18043 		add	r3, r3, #1073741824
 3314 0558 03F5B233 		add	r3, r3, #91136
 3315 055c 1A68     		ldr	r2, [r3]
 3316 055e 42EA8162 		orr	r2, r2, r1, lsl #26
 3317 0562 1A60     		str	r2, [r3]
 585:Drivers/STM32H5xx_HAL_Driver/Src/stm32h5xx_ll_usb.c ****           pmabuffer = ep->pmaaddr0;
 3318              		.loc 1 585 11 discriminator 10 view .LVU1058
 3319 0564 23E0     		b	.L149
 3320              	.LVL348:
 3321              	.L150:
 585:Drivers/STM32H5xx_HAL_Driver/Src/stm32h5xx_ll_usb.c ****           pmabuffer = ep->pmaaddr0;
 3322              		.loc 1 585 11 discriminator 7 view .LVU1059
 585:Drivers/STM32H5xx_HAL_Driver/Src/stm32h5xx_ll_usb.c ****           pmabuffer = ep->pmaaddr0;
 3323              		.loc 1 585 11 discriminator 7 view .LVU1060
 3324 0566 7109     		lsrs	r1, r6, #5
 3325              	.LVL349:
 585:Drivers/STM32H5xx_HAL_Driver/Src/stm32h5xx_ll_usb.c ****           pmabuffer = ep->pmaaddr0;
 3326              		.loc 1 585 11 discriminator 7 view .LVU1061
 3327 0568 16F01F0F 		tst	r6, #31
 3328 056c 00D1     		bne	.L152
 585:Drivers/STM32H5xx_HAL_Driver/Src/stm32h5xx_ll_usb.c ****           pmabuffer = ep->pmaaddr0;
 3329              		.loc 1 585 11 discriminator 12 view .LVU1062
 3330 056e 0139     		subs	r1, r1, #1
 3331              	.LVL350:
 3332              	.L152:
 585:Drivers/STM32H5xx_HAL_Driver/Src/stm32h5xx_ll_usb.c ****           pmabuffer = ep->pmaaddr0;
 3333              		.loc 1 585 11 discriminator 14 view .LVU1063
 3334 0570 2378     		ldrb	r3, [r4]	@ zero_extendqisi2
 3335 0572 DB00     		lsls	r3, r3, #3
 3336 0574 03F18043 		add	r3, r3, #1073741824
 3337 0578 03F5B233 		add	r3, r3, #91136
 3338 057c 1A68     		ldr	r2, [r3]
 3339 057e 42EA8162 		orr	r2, r2, r1, lsl #26
 3340 0582 42F00042 		orr	r2, r2, #-2147483648
 3341 0586 1A60     		str	r2, [r3]
 3342 0588 11E0     		b	.L149
 3343              	.LVL351:
 3344              	.L147:
 585:Drivers/STM32H5xx_HAL_Driver/Src/stm32h5xx_ll_usb.c ****           pmabuffer = ep->pmaaddr0;
 3345              		.loc 1 585 11 is_stmt 0 discriminator 14 view .LVU1064
 3346              	.LBE73:
 585:Drivers/STM32H5xx_HAL_Driver/Src/stm32h5xx_ll_usb.c ****           pmabuffer = ep->pmaaddr0;
 3347              		.loc 1 585 11 is_stmt 1 discriminator 2 view .LVU1065
 585:Drivers/STM32H5xx_HAL_Driver/Src/stm32h5xx_ll_usb.c ****           pmabuffer = ep->pmaaddr0;
 3348              		.loc 1 585 11 discriminator 16 view .LVU1066
ARM GAS  C:\Users\sapph\AppData\Local\Temp\cchEHrSS.s 			page 85


 585:Drivers/STM32H5xx_HAL_Driver/Src/stm32h5xx_ll_usb.c ****           pmabuffer = ep->pmaaddr0;
 3349              		.loc 1 585 11 discriminator 16 view .LVU1067
 3350 058a D200     		lsls	r2, r2, #3
 3351 058c 02F18042 		add	r2, r2, #1073741824
 3352 0590 02F5B232 		add	r2, r2, #91136
 3353 0594 1368     		ldr	r3, [r2]
 3354 0596 9BB2     		uxth	r3, r3
 3355 0598 1360     		str	r3, [r2]
 585:Drivers/STM32H5xx_HAL_Driver/Src/stm32h5xx_ll_usb.c ****           pmabuffer = ep->pmaaddr0;
 3356              		.loc 1 585 11 discriminator 16 view .LVU1068
 3357 059a 2378     		ldrb	r3, [r4]	@ zero_extendqisi2
 3358 059c DB00     		lsls	r3, r3, #3
 3359 059e 03F18043 		add	r3, r3, #1073741824
 3360 05a2 03F5B233 		add	r3, r3, #91136
 3361 05a6 1A68     		ldr	r2, [r3]
 3362 05a8 42EA0642 		orr	r2, r2, r6, lsl #16
 3363 05ac 1A60     		str	r2, [r3]
 3364              	.L149:
 585:Drivers/STM32H5xx_HAL_Driver/Src/stm32h5xx_ll_usb.c ****           pmabuffer = ep->pmaaddr0;
 3365              		.loc 1 585 11 discriminator 18 view .LVU1069
 585:Drivers/STM32H5xx_HAL_Driver/Src/stm32h5xx_ll_usb.c ****           pmabuffer = ep->pmaaddr0;
 3366              		.loc 1 585 11 discriminator 18 view .LVU1070
 586:Drivers/STM32H5xx_HAL_Driver/Src/stm32h5xx_ll_usb.c **** 
 3367              		.loc 1 586 11 view .LVU1071
 3368              	.LVL352:
 589:Drivers/STM32H5xx_HAL_Driver/Src/stm32h5xx_ll_usb.c ****         }
 3369              		.loc 1 589 11 view .LVU1072
 3370 05ae B3B2     		uxth	r3, r6
 3371 05b0 2289     		ldrh	r2, [r4, #8]
 3372 05b2 6169     		ldr	r1, [r4, #20]
 3373 05b4 2846     		mov	r0, r5
 3374              	.LVL353:
 589:Drivers/STM32H5xx_HAL_Driver/Src/stm32h5xx_ll_usb.c ****         }
 3375              		.loc 1 589 11 is_stmt 0 view .LVU1073
 3376 05b6 FFF7FEFF 		bl	USB_WritePMA
 3377              	.LVL354:
 589:Drivers/STM32H5xx_HAL_Driver/Src/stm32h5xx_ll_usb.c ****         }
 3378              		.loc 1 589 11 view .LVU1074
 3379 05ba 9FE5     		b	.L108
 3380              	.LVL355:
 3381              	.L155:
 609:Drivers/STM32H5xx_HAL_Driver/Src/stm32h5xx_ll_usb.c ****         ep->xfer_len = 0U;
 3382              		.loc 1 609 9 is_stmt 1 view .LVU1075
 610:Drivers/STM32H5xx_HAL_Driver/Src/stm32h5xx_ll_usb.c ****       }
 3383              		.loc 1 610 9 view .LVU1076
 610:Drivers/STM32H5xx_HAL_Driver/Src/stm32h5xx_ll_usb.c ****       }
 3384              		.loc 1 610 22 is_stmt 0 view .LVU1077
 3385 05bc 0022     		movs	r2, #0
 3386 05be 8A61     		str	r2, [r1, #24]
 609:Drivers/STM32H5xx_HAL_Driver/Src/stm32h5xx_ll_usb.c ****         ep->xfer_len = 0U;
 3387              		.loc 1 609 13 view .LVU1078
 3388 05c0 1A46     		mov	r2, r3
 3389 05c2 2EE5     		b	.L156
 3390              	.LVL356:
 3391              	.L157:
 3392              	.LBB74:
 613:Drivers/STM32H5xx_HAL_Driver/Src/stm32h5xx_ll_usb.c ****     }
ARM GAS  C:\Users\sapph\AppData\Local\Temp\cchEHrSS.s 			page 86


 3393              		.loc 1 613 7 is_stmt 1 discriminator 2 view .LVU1079
 3394 05c4 3E2A     		cmp	r2, #62
 3395 05c6 0FD8     		bhi	.L159
 613:Drivers/STM32H5xx_HAL_Driver/Src/stm32h5xx_ll_usb.c ****     }
 3396              		.loc 1 613 7 discriminator 4 view .LVU1080
 613:Drivers/STM32H5xx_HAL_Driver/Src/stm32h5xx_ll_usb.c ****     }
 3397              		.loc 1 613 7 discriminator 4 view .LVU1081
 3398 05c8 5108     		lsrs	r1, r2, #1
 3399              	.LVL357:
 613:Drivers/STM32H5xx_HAL_Driver/Src/stm32h5xx_ll_usb.c ****     }
 3400              		.loc 1 613 7 discriminator 4 view .LVU1082
 3401 05ca 12F0010F 		tst	r2, #1
 3402 05ce 00D0     		beq	.L160
 613:Drivers/STM32H5xx_HAL_Driver/Src/stm32h5xx_ll_usb.c ****     }
 3403              		.loc 1 613 7 discriminator 6 view .LVU1083
 3404 05d0 0131     		adds	r1, r1, #1
 3405              	.LVL358:
 3406              	.L160:
 613:Drivers/STM32H5xx_HAL_Driver/Src/stm32h5xx_ll_usb.c ****     }
 3407              		.loc 1 613 7 discriminator 8 view .LVU1084
 3408 05d2 2378     		ldrb	r3, [r4]	@ zero_extendqisi2
 3409 05d4 DB00     		lsls	r3, r3, #3
 3410 05d6 03F18043 		add	r3, r3, #1073741824
 3411 05da 03F5B233 		add	r3, r3, #91136
 3412 05de 5A68     		ldr	r2, [r3, #4]
 3413              	.LVL359:
 613:Drivers/STM32H5xx_HAL_Driver/Src/stm32h5xx_ll_usb.c ****     }
 3414              		.loc 1 613 7 is_stmt 0 discriminator 8 view .LVU1085
 3415 05e0 42EA8162 		orr	r2, r2, r1, lsl #26
 3416 05e4 5A60     		str	r2, [r3, #4]
 613:Drivers/STM32H5xx_HAL_Driver/Src/stm32h5xx_ll_usb.c ****     }
 3417              		.loc 1 613 7 is_stmt 1 discriminator 8 view .LVU1086
 3418 05e6 33E5     		b	.L158
 3419              	.LVL360:
 3420              	.L159:
 613:Drivers/STM32H5xx_HAL_Driver/Src/stm32h5xx_ll_usb.c ****     }
 3421              		.loc 1 613 7 discriminator 5 view .LVU1087
 613:Drivers/STM32H5xx_HAL_Driver/Src/stm32h5xx_ll_usb.c ****     }
 3422              		.loc 1 613 7 discriminator 5 view .LVU1088
 3423 05e8 5109     		lsrs	r1, r2, #5
 3424              	.LVL361:
 613:Drivers/STM32H5xx_HAL_Driver/Src/stm32h5xx_ll_usb.c ****     }
 3425              		.loc 1 613 7 discriminator 5 view .LVU1089
 3426 05ea 12F01F0F 		tst	r2, #31
 3427 05ee 00D1     		bne	.L161
 613:Drivers/STM32H5xx_HAL_Driver/Src/stm32h5xx_ll_usb.c ****     }
 3428              		.loc 1 613 7 discriminator 10 view .LVU1090
 3429 05f0 0139     		subs	r1, r1, #1
 3430              	.LVL362:
 3431              	.L161:
 613:Drivers/STM32H5xx_HAL_Driver/Src/stm32h5xx_ll_usb.c ****     }
 3432              		.loc 1 613 7 discriminator 12 view .LVU1091
 3433 05f2 2378     		ldrb	r3, [r4]	@ zero_extendqisi2
 3434 05f4 DB00     		lsls	r3, r3, #3
 3435 05f6 03F18043 		add	r3, r3, #1073741824
 3436 05fa 03F5B233 		add	r3, r3, #91136
 3437 05fe 5A68     		ldr	r2, [r3, #4]
ARM GAS  C:\Users\sapph\AppData\Local\Temp\cchEHrSS.s 			page 87


 3438              	.LVL363:
 613:Drivers/STM32H5xx_HAL_Driver/Src/stm32h5xx_ll_usb.c ****     }
 3439              		.loc 1 613 7 is_stmt 0 discriminator 12 view .LVU1092
 3440 0600 42EA8162 		orr	r2, r2, r1, lsl #26
 3441 0604 42F00042 		orr	r2, r2, #-2147483648
 3442 0608 5A60     		str	r2, [r3, #4]
 3443 060a 21E5     		b	.L158
 3444              	.LVL364:
 3445              	.L154:
 613:Drivers/STM32H5xx_HAL_Driver/Src/stm32h5xx_ll_usb.c ****     }
 3446              		.loc 1 613 7 discriminator 12 view .LVU1093
 3447              	.LBE74:
 620:Drivers/STM32H5xx_HAL_Driver/Src/stm32h5xx_ll_usb.c ****       {
 3448              		.loc 1 620 7 is_stmt 1 view .LVU1094
 620:Drivers/STM32H5xx_HAL_Driver/Src/stm32h5xx_ll_usb.c ****       {
 3449              		.loc 1 620 13 is_stmt 0 view .LVU1095
 3450 060c CA78     		ldrb	r2, [r1, #3]	@ zero_extendqisi2
 620:Drivers/STM32H5xx_HAL_Driver/Src/stm32h5xx_ll_usb.c ****       {
 3451              		.loc 1 620 10 view .LVU1096
 3452 060e 022A     		cmp	r2, #2
 3453 0610 3DD0     		beq	.L196
 639:Drivers/STM32H5xx_HAL_Driver/Src/stm32h5xx_ll_usb.c ****       {
 3454              		.loc 1 639 12 is_stmt 1 view .LVU1097
 639:Drivers/STM32H5xx_HAL_Driver/Src/stm32h5xx_ll_usb.c ****       {
 3455              		.loc 1 639 15 is_stmt 0 view .LVU1098
 3456 0612 012A     		cmp	r2, #1
 3457 0614 40F04E81 		bne	.L187
 642:Drivers/STM32H5xx_HAL_Driver/Src/stm32h5xx_ll_usb.c ****         {
 3458              		.loc 1 642 9 is_stmt 1 view .LVU1099
 642:Drivers/STM32H5xx_HAL_Driver/Src/stm32h5xx_ll_usb.c ****         {
 3459              		.loc 1 642 15 is_stmt 0 view .LVU1100
 3460 0618 8969     		ldr	r1, [r1, #24]
 3461              	.LVL365:
 642:Drivers/STM32H5xx_HAL_Driver/Src/stm32h5xx_ll_usb.c ****         {
 3462              		.loc 1 642 30 view .LVU1101
 3463 061a 2269     		ldr	r2, [r4, #16]
 642:Drivers/STM32H5xx_HAL_Driver/Src/stm32h5xx_ll_usb.c ****         {
 3464              		.loc 1 642 12 view .LVU1102
 3465 061c 9142     		cmp	r1, r2
 3466 061e 40F2E380 		bls	.L175
 644:Drivers/STM32H5xx_HAL_Driver/Src/stm32h5xx_ll_usb.c ****           ep->xfer_len -= len;
 3467              		.loc 1 644 11 is_stmt 1 view .LVU1103
 3468              	.LVL366:
 645:Drivers/STM32H5xx_HAL_Driver/Src/stm32h5xx_ll_usb.c ****         }
 3469              		.loc 1 645 11 view .LVU1104
 645:Drivers/STM32H5xx_HAL_Driver/Src/stm32h5xx_ll_usb.c ****         }
 3470              		.loc 1 645 24 is_stmt 0 view .LVU1105
 3471 0622 891A     		subs	r1, r1, r2
 3472 0624 A161     		str	r1, [r4, #24]
 3473              	.L176:
 652:Drivers/STM32H5xx_HAL_Driver/Src/stm32h5xx_ll_usb.c ****       }
 3474              		.loc 1 652 9 is_stmt 1 view .LVU1106
 652:Drivers/STM32H5xx_HAL_Driver/Src/stm32h5xx_ll_usb.c ****       }
 3475              		.loc 1 652 9 view .LVU1107
 652:Drivers/STM32H5xx_HAL_Driver/Src/stm32h5xx_ll_usb.c ****       }
 3476              		.loc 1 652 9 view .LVU1108
 3477 0626 B3B9     		cbnz	r3, .L177
ARM GAS  C:\Users\sapph\AppData\Local\Temp\cchEHrSS.s 			page 88


 652:Drivers/STM32H5xx_HAL_Driver/Src/stm32h5xx_ll_usb.c ****       }
 3478              		.loc 1 652 9 discriminator 1 view .LVU1109
 3479              	.LBB75:
 652:Drivers/STM32H5xx_HAL_Driver/Src/stm32h5xx_ll_usb.c ****       }
 3480              		.loc 1 652 9 discriminator 1 view .LVU1110
 652:Drivers/STM32H5xx_HAL_Driver/Src/stm32h5xx_ll_usb.c ****       }
 3481              		.loc 1 652 9 discriminator 1 view .LVU1111
 3482 0628 2378     		ldrb	r3, [r4]	@ zero_extendqisi2
 3483 062a DB00     		lsls	r3, r3, #3
 3484 062c 03F18043 		add	r3, r3, #1073741824
 3485 0630 03F5B233 		add	r3, r3, #91136
 3486 0634 1968     		ldr	r1, [r3]
 3487 0636 21F07C41 		bic	r1, r1, #-67108864
 3488 063a 1960     		str	r1, [r3]
 652:Drivers/STM32H5xx_HAL_Driver/Src/stm32h5xx_ll_usb.c ****       }
 3489              		.loc 1 652 9 discriminator 1 view .LVU1112
 3490 063c 002A     		cmp	r2, #0
 3491 063e 40F0D780 		bne	.L178
 652:Drivers/STM32H5xx_HAL_Driver/Src/stm32h5xx_ll_usb.c ****       }
 3492              		.loc 1 652 9 discriminator 3 view .LVU1113
 3493 0642 2378     		ldrb	r3, [r4]	@ zero_extendqisi2
 3494 0644 DB00     		lsls	r3, r3, #3
 3495 0646 03F18043 		add	r3, r3, #1073741824
 3496 064a 03F5B233 		add	r3, r3, #91136
 3497 064e 1968     		ldr	r1, [r3]
 3498 0650 41F00041 		orr	r1, r1, #-2147483648
 3499 0654 1960     		str	r1, [r3]
 3500              	.LVL367:
 3501              	.L177:
 652:Drivers/STM32H5xx_HAL_Driver/Src/stm32h5xx_ll_usb.c ****       }
 3502              		.loc 1 652 9 is_stmt 0 discriminator 3 view .LVU1114
 3503              	.LBE75:
 652:Drivers/STM32H5xx_HAL_Driver/Src/stm32h5xx_ll_usb.c ****       }
 3504              		.loc 1 652 9 is_stmt 1 discriminator 18 view .LVU1115
 652:Drivers/STM32H5xx_HAL_Driver/Src/stm32h5xx_ll_usb.c ****       }
 3505              		.loc 1 652 9 discriminator 18 view .LVU1116
 652:Drivers/STM32H5xx_HAL_Driver/Src/stm32h5xx_ll_usb.c ****       }
 3506              		.loc 1 652 9 discriminator 18 view .LVU1117
 652:Drivers/STM32H5xx_HAL_Driver/Src/stm32h5xx_ll_usb.c ****       }
 3507              		.loc 1 652 9 discriminator 18 view .LVU1118
 3508 0656 6378     		ldrb	r3, [r4, #1]	@ zero_extendqisi2
 3509 0658 002B     		cmp	r3, #0
 3510 065a 40F01381 		bne	.L182
 652:Drivers/STM32H5xx_HAL_Driver/Src/stm32h5xx_ll_usb.c ****       }
 3511              		.loc 1 652 9 discriminator 19 view .LVU1119
 3512              	.LBB76:
 652:Drivers/STM32H5xx_HAL_Driver/Src/stm32h5xx_ll_usb.c ****       }
 3513              		.loc 1 652 9 discriminator 19 view .LVU1120
 652:Drivers/STM32H5xx_HAL_Driver/Src/stm32h5xx_ll_usb.c ****       }
 3514              		.loc 1 652 9 discriminator 19 view .LVU1121
 3515 065e 2378     		ldrb	r3, [r4]	@ zero_extendqisi2
 3516 0660 DB00     		lsls	r3, r3, #3
 3517 0662 03F18043 		add	r3, r3, #1073741824
 3518 0666 03F5B233 		add	r3, r3, #91136
 3519 066a 5968     		ldr	r1, [r3, #4]
 3520 066c 21F07C41 		bic	r1, r1, #-67108864
 3521 0670 5960     		str	r1, [r3, #4]
ARM GAS  C:\Users\sapph\AppData\Local\Temp\cchEHrSS.s 			page 89


 652:Drivers/STM32H5xx_HAL_Driver/Src/stm32h5xx_ll_usb.c ****       }
 3522              		.loc 1 652 9 discriminator 19 view .LVU1122
 3523 0672 002A     		cmp	r2, #0
 3524 0674 40F0E080 		bne	.L183
 652:Drivers/STM32H5xx_HAL_Driver/Src/stm32h5xx_ll_usb.c ****       }
 3525              		.loc 1 652 9 discriminator 21 view .LVU1123
 3526 0678 2378     		ldrb	r3, [r4]	@ zero_extendqisi2
 3527 067a DB00     		lsls	r3, r3, #3
 3528 067c 03F18043 		add	r3, r3, #1073741824
 3529 0680 03F5B233 		add	r3, r3, #91136
 3530 0684 5A68     		ldr	r2, [r3, #4]
 3531              	.LVL368:
 652:Drivers/STM32H5xx_HAL_Driver/Src/stm32h5xx_ll_usb.c ****       }
 3532              		.loc 1 652 9 is_stmt 0 discriminator 21 view .LVU1124
 3533 0686 42F00042 		orr	r2, r2, #-2147483648
 3534 068a 5A60     		str	r2, [r3, #4]
 3535 068c E0E4     		b	.L158
 3536              	.LVL369:
 3537              	.L196:
 652:Drivers/STM32H5xx_HAL_Driver/Src/stm32h5xx_ll_usb.c ****       }
 3538              		.loc 1 652 9 discriminator 21 view .LVU1125
 3539              	.LBE76:
 622:Drivers/STM32H5xx_HAL_Driver/Src/stm32h5xx_ll_usb.c **** 
 3540              		.loc 1 622 9 is_stmt 1 view .LVU1126
 622:Drivers/STM32H5xx_HAL_Driver/Src/stm32h5xx_ll_usb.c **** 
 3541              		.loc 1 622 9 view .LVU1127
 622:Drivers/STM32H5xx_HAL_Driver/Src/stm32h5xx_ll_usb.c **** 
 3542              		.loc 1 622 9 view .LVU1128
 3543 068e ABB9     		cbnz	r3, .L163
 622:Drivers/STM32H5xx_HAL_Driver/Src/stm32h5xx_ll_usb.c **** 
 3544              		.loc 1 622 9 discriminator 1 view .LVU1129
 3545              	.LBB77:
 622:Drivers/STM32H5xx_HAL_Driver/Src/stm32h5xx_ll_usb.c **** 
 3546              		.loc 1 622 9 discriminator 1 view .LVU1130
 622:Drivers/STM32H5xx_HAL_Driver/Src/stm32h5xx_ll_usb.c **** 
 3547              		.loc 1 622 9 discriminator 1 view .LVU1131
 3548 0690 0B78     		ldrb	r3, [r1]	@ zero_extendqisi2
 3549 0692 DB00     		lsls	r3, r3, #3
 3550 0694 03F18043 		add	r3, r3, #1073741824
 3551 0698 03F5B233 		add	r3, r3, #91136
 3552 069c 1A68     		ldr	r2, [r3]
 3553 069e 22F07C42 		bic	r2, r2, #-67108864
 3554 06a2 1A60     		str	r2, [r3]
 622:Drivers/STM32H5xx_HAL_Driver/Src/stm32h5xx_ll_usb.c **** 
 3555              		.loc 1 622 9 discriminator 1 view .LVU1132
 3556 06a4 0B69     		ldr	r3, [r1, #16]
 3557 06a6 1BBB     		cbnz	r3, .L164
 622:Drivers/STM32H5xx_HAL_Driver/Src/stm32h5xx_ll_usb.c **** 
 3558              		.loc 1 622 9 discriminator 3 view .LVU1133
 3559 06a8 0B78     		ldrb	r3, [r1]	@ zero_extendqisi2
 3560 06aa DB00     		lsls	r3, r3, #3
 3561 06ac 03F18043 		add	r3, r3, #1073741824
 3562 06b0 03F5B233 		add	r3, r3, #91136
 3563 06b4 1A68     		ldr	r2, [r3]
 3564 06b6 42F00042 		orr	r2, r2, #-2147483648
 3565 06ba 1A60     		str	r2, [r3]
 3566              	.LVL370:
ARM GAS  C:\Users\sapph\AppData\Local\Temp\cchEHrSS.s 			page 90


 3567              	.L163:
 622:Drivers/STM32H5xx_HAL_Driver/Src/stm32h5xx_ll_usb.c **** 
 3568              		.loc 1 622 9 is_stmt 0 discriminator 3 view .LVU1134
 3569              	.LBE77:
 622:Drivers/STM32H5xx_HAL_Driver/Src/stm32h5xx_ll_usb.c **** 
 3570              		.loc 1 622 9 is_stmt 1 discriminator 18 view .LVU1135
 622:Drivers/STM32H5xx_HAL_Driver/Src/stm32h5xx_ll_usb.c **** 
 3571              		.loc 1 622 9 discriminator 18 view .LVU1136
 622:Drivers/STM32H5xx_HAL_Driver/Src/stm32h5xx_ll_usb.c **** 
 3572              		.loc 1 622 9 discriminator 18 view .LVU1137
 622:Drivers/STM32H5xx_HAL_Driver/Src/stm32h5xx_ll_usb.c **** 
 3573              		.loc 1 622 9 discriminator 18 view .LVU1138
 3574 06bc 6378     		ldrb	r3, [r4, #1]	@ zero_extendqisi2
 3575 06be 002B     		cmp	r3, #0
 3576 06c0 60D1     		bne	.L168
 622:Drivers/STM32H5xx_HAL_Driver/Src/stm32h5xx_ll_usb.c **** 
 3577              		.loc 1 622 9 discriminator 19 view .LVU1139
 3578              	.LBB78:
 622:Drivers/STM32H5xx_HAL_Driver/Src/stm32h5xx_ll_usb.c **** 
 3579              		.loc 1 622 9 discriminator 19 view .LVU1140
 622:Drivers/STM32H5xx_HAL_Driver/Src/stm32h5xx_ll_usb.c **** 
 3580              		.loc 1 622 9 discriminator 19 view .LVU1141
 3581 06c2 2378     		ldrb	r3, [r4]	@ zero_extendqisi2
 3582 06c4 DB00     		lsls	r3, r3, #3
 3583 06c6 03F18043 		add	r3, r3, #1073741824
 3584 06ca 03F5B233 		add	r3, r3, #91136
 3585 06ce 5A68     		ldr	r2, [r3, #4]
 3586 06d0 22F07C42 		bic	r2, r2, #-67108864
 3587 06d4 5A60     		str	r2, [r3, #4]
 622:Drivers/STM32H5xx_HAL_Driver/Src/stm32h5xx_ll_usb.c **** 
 3588              		.loc 1 622 9 discriminator 19 view .LVU1142
 3589 06d6 2369     		ldr	r3, [r4, #16]
 3590 06d8 83BB     		cbnz	r3, .L169
 622:Drivers/STM32H5xx_HAL_Driver/Src/stm32h5xx_ll_usb.c **** 
 3591              		.loc 1 622 9 discriminator 21 view .LVU1143
 3592 06da 2378     		ldrb	r3, [r4]	@ zero_extendqisi2
 3593 06dc DB00     		lsls	r3, r3, #3
 3594 06de 03F18043 		add	r3, r3, #1073741824
 3595 06e2 03F5B233 		add	r3, r3, #91136
 3596 06e6 5A68     		ldr	r2, [r3, #4]
 3597 06e8 42F00042 		orr	r2, r2, #-2147483648
 3598 06ec 5A60     		str	r2, [r3, #4]
 3599 06ee 4BE0     		b	.L170
 3600              	.LVL371:
 3601              	.L164:
 622:Drivers/STM32H5xx_HAL_Driver/Src/stm32h5xx_ll_usb.c **** 
 3602              		.loc 1 622 9 is_stmt 0 discriminator 21 view .LVU1144
 3603              	.LBE78:
 3604              	.LBB79:
 622:Drivers/STM32H5xx_HAL_Driver/Src/stm32h5xx_ll_usb.c **** 
 3605              		.loc 1 622 9 is_stmt 1 discriminator 4 view .LVU1145
 3606 06f0 3E2B     		cmp	r3, #62
 3607 06f2 11D8     		bhi	.L165
 622:Drivers/STM32H5xx_HAL_Driver/Src/stm32h5xx_ll_usb.c **** 
 3608              		.loc 1 622 9 discriminator 6 view .LVU1146
 622:Drivers/STM32H5xx_HAL_Driver/Src/stm32h5xx_ll_usb.c **** 
 3609              		.loc 1 622 9 discriminator 6 view .LVU1147
ARM GAS  C:\Users\sapph\AppData\Local\Temp\cchEHrSS.s 			page 91


 3610 06f4 5908     		lsrs	r1, r3, #1
 3611              	.LVL372:
 622:Drivers/STM32H5xx_HAL_Driver/Src/stm32h5xx_ll_usb.c **** 
 3612              		.loc 1 622 9 discriminator 6 view .LVU1148
 3613 06f6 13F0010F 		tst	r3, #1
 3614 06fa 00D0     		beq	.L166
 622:Drivers/STM32H5xx_HAL_Driver/Src/stm32h5xx_ll_usb.c **** 
 3615              		.loc 1 622 9 discriminator 8 view .LVU1149
 3616 06fc 0131     		adds	r1, r1, #1
 3617              	.LVL373:
 3618              	.L166:
 622:Drivers/STM32H5xx_HAL_Driver/Src/stm32h5xx_ll_usb.c **** 
 3619              		.loc 1 622 9 discriminator 10 view .LVU1150
 3620 06fe 2378     		ldrb	r3, [r4]	@ zero_extendqisi2
 3621 0700 DB00     		lsls	r3, r3, #3
 3622 0702 03F18043 		add	r3, r3, #1073741824
 3623 0706 03F5B233 		add	r3, r3, #91136
 3624 070a 1A68     		ldr	r2, [r3]
 3625 070c 42EA8162 		orr	r2, r2, r1, lsl #26
 3626 0710 1A60     		str	r2, [r3]
 622:Drivers/STM32H5xx_HAL_Driver/Src/stm32h5xx_ll_usb.c **** 
 3627              		.loc 1 622 9 discriminator 10 view .LVU1151
 3628 0712 D3E7     		b	.L163
 3629              	.L201:
 3630              		.align	2
 3631              	.L200:
 3632 0714 8F8EFF07 		.word	134188687
 3633              	.LVL374:
 3634              	.L165:
 622:Drivers/STM32H5xx_HAL_Driver/Src/stm32h5xx_ll_usb.c **** 
 3635              		.loc 1 622 9 discriminator 7 view .LVU1152
 622:Drivers/STM32H5xx_HAL_Driver/Src/stm32h5xx_ll_usb.c **** 
 3636              		.loc 1 622 9 discriminator 7 view .LVU1153
 3637 0718 5909     		lsrs	r1, r3, #5
 3638              	.LVL375:
 622:Drivers/STM32H5xx_HAL_Driver/Src/stm32h5xx_ll_usb.c **** 
 3639              		.loc 1 622 9 discriminator 7 view .LVU1154
 3640 071a 13F01F0F 		tst	r3, #31
 3641 071e 00D1     		bne	.L167
 622:Drivers/STM32H5xx_HAL_Driver/Src/stm32h5xx_ll_usb.c **** 
 3642              		.loc 1 622 9 discriminator 12 view .LVU1155
 3643 0720 0139     		subs	r1, r1, #1
 3644              	.LVL376:
 3645              	.L167:
 622:Drivers/STM32H5xx_HAL_Driver/Src/stm32h5xx_ll_usb.c **** 
 3646              		.loc 1 622 9 discriminator 14 view .LVU1156
 3647 0722 2378     		ldrb	r3, [r4]	@ zero_extendqisi2
 3648 0724 DB00     		lsls	r3, r3, #3
 3649 0726 03F18043 		add	r3, r3, #1073741824
 3650 072a 03F5B233 		add	r3, r3, #91136
 3651 072e 1A68     		ldr	r2, [r3]
 3652 0730 42EA8162 		orr	r2, r2, r1, lsl #26
 3653 0734 42F00042 		orr	r2, r2, #-2147483648
 3654 0738 1A60     		str	r2, [r3]
 3655 073a BFE7     		b	.L163
 3656              	.LVL377:
 3657              	.L169:
ARM GAS  C:\Users\sapph\AppData\Local\Temp\cchEHrSS.s 			page 92


 622:Drivers/STM32H5xx_HAL_Driver/Src/stm32h5xx_ll_usb.c **** 
 3658              		.loc 1 622 9 is_stmt 0 discriminator 14 view .LVU1157
 3659              	.LBE79:
 3660              	.LBB80:
 622:Drivers/STM32H5xx_HAL_Driver/Src/stm32h5xx_ll_usb.c **** 
 3661              		.loc 1 622 9 is_stmt 1 discriminator 22 view .LVU1158
 3662 073c 3E2B     		cmp	r3, #62
 3663 073e 0FD8     		bhi	.L171
 622:Drivers/STM32H5xx_HAL_Driver/Src/stm32h5xx_ll_usb.c **** 
 3664              		.loc 1 622 9 discriminator 24 view .LVU1159
 622:Drivers/STM32H5xx_HAL_Driver/Src/stm32h5xx_ll_usb.c **** 
 3665              		.loc 1 622 9 discriminator 24 view .LVU1160
 3666 0740 5908     		lsrs	r1, r3, #1
 3667              	.LVL378:
 622:Drivers/STM32H5xx_HAL_Driver/Src/stm32h5xx_ll_usb.c **** 
 3668              		.loc 1 622 9 discriminator 24 view .LVU1161
 3669 0742 13F0010F 		tst	r3, #1
 3670 0746 00D0     		beq	.L172
 622:Drivers/STM32H5xx_HAL_Driver/Src/stm32h5xx_ll_usb.c **** 
 3671              		.loc 1 622 9 discriminator 26 view .LVU1162
 3672 0748 0131     		adds	r1, r1, #1
 3673              	.LVL379:
 3674              	.L172:
 622:Drivers/STM32H5xx_HAL_Driver/Src/stm32h5xx_ll_usb.c **** 
 3675              		.loc 1 622 9 discriminator 28 view .LVU1163
 3676 074a 2378     		ldrb	r3, [r4]	@ zero_extendqisi2
 3677 074c DB00     		lsls	r3, r3, #3
 3678 074e 03F18043 		add	r3, r3, #1073741824
 3679 0752 03F5B233 		add	r3, r3, #91136
 3680 0756 5A68     		ldr	r2, [r3, #4]
 3681 0758 42EA8162 		orr	r2, r2, r1, lsl #26
 3682 075c 5A60     		str	r2, [r3, #4]
 622:Drivers/STM32H5xx_HAL_Driver/Src/stm32h5xx_ll_usb.c **** 
 3683              		.loc 1 622 9 discriminator 28 view .LVU1164
 3684 075e 13E0     		b	.L170
 3685              	.LVL380:
 3686              	.L171:
 622:Drivers/STM32H5xx_HAL_Driver/Src/stm32h5xx_ll_usb.c **** 
 3687              		.loc 1 622 9 discriminator 25 view .LVU1165
 622:Drivers/STM32H5xx_HAL_Driver/Src/stm32h5xx_ll_usb.c **** 
 3688              		.loc 1 622 9 discriminator 25 view .LVU1166
 3689 0760 5909     		lsrs	r1, r3, #5
 3690              	.LVL381:
 622:Drivers/STM32H5xx_HAL_Driver/Src/stm32h5xx_ll_usb.c **** 
 3691              		.loc 1 622 9 discriminator 25 view .LVU1167
 3692 0762 13F01F0F 		tst	r3, #31
 3693 0766 00D1     		bne	.L173
 622:Drivers/STM32H5xx_HAL_Driver/Src/stm32h5xx_ll_usb.c **** 
 3694              		.loc 1 622 9 discriminator 30 view .LVU1168
 3695 0768 0139     		subs	r1, r1, #1
 3696              	.LVL382:
 3697              	.L173:
 622:Drivers/STM32H5xx_HAL_Driver/Src/stm32h5xx_ll_usb.c **** 
 3698              		.loc 1 622 9 discriminator 32 view .LVU1169
 3699 076a 2378     		ldrb	r3, [r4]	@ zero_extendqisi2
 3700 076c DB00     		lsls	r3, r3, #3
 3701 076e 03F18043 		add	r3, r3, #1073741824
ARM GAS  C:\Users\sapph\AppData\Local\Temp\cchEHrSS.s 			page 93


 3702 0772 03F5B233 		add	r3, r3, #91136
 3703 0776 5A68     		ldr	r2, [r3, #4]
 3704 0778 42EA8162 		orr	r2, r2, r1, lsl #26
 3705 077c 42F00042 		orr	r2, r2, #-2147483648
 3706 0780 5A60     		str	r2, [r3, #4]
 3707 0782 01E0     		b	.L170
 3708              	.LVL383:
 3709              	.L168:
 622:Drivers/STM32H5xx_HAL_Driver/Src/stm32h5xx_ll_usb.c **** 
 3710              		.loc 1 622 9 is_stmt 0 discriminator 32 view .LVU1170
 3711              	.LBE80:
 622:Drivers/STM32H5xx_HAL_Driver/Src/stm32h5xx_ll_usb.c **** 
 3712              		.loc 1 622 9 is_stmt 1 discriminator 20 view .LVU1171
 3713 0784 012B     		cmp	r3, #1
 3714 0786 1AD0     		beq	.L197
 3715              	.L170:
 622:Drivers/STM32H5xx_HAL_Driver/Src/stm32h5xx_ll_usb.c **** 
 3716              		.loc 1 622 9 discriminator 36 view .LVU1172
 622:Drivers/STM32H5xx_HAL_Driver/Src/stm32h5xx_ll_usb.c **** 
 3717              		.loc 1 622 9 discriminator 36 view .LVU1173
 625:Drivers/STM32H5xx_HAL_Driver/Src/stm32h5xx_ll_usb.c ****         {
 3718              		.loc 1 625 9 view .LVU1174
 625:Drivers/STM32H5xx_HAL_Driver/Src/stm32h5xx_ll_usb.c ****         {
 3719              		.loc 1 625 15 is_stmt 0 view .LVU1175
 3720 0788 E369     		ldr	r3, [r4, #28]
 625:Drivers/STM32H5xx_HAL_Driver/Src/stm32h5xx_ll_usb.c ****         {
 3721              		.loc 1 625 12 view .LVU1176
 3722 078a 002B     		cmp	r3, #0
 3723 078c 3FF460AC 		beq	.L158
 628:Drivers/STM32H5xx_HAL_Driver/Src/stm32h5xx_ll_usb.c **** 
 3724              		.loc 1 628 11 is_stmt 1 view .LVU1177
 628:Drivers/STM32H5xx_HAL_Driver/Src/stm32h5xx_ll_usb.c **** 
 3725              		.loc 1 628 30 is_stmt 0 view .LVU1178
 3726 0790 2278     		ldrb	r2, [r4]	@ zero_extendqisi2
 3727 0792 55F82210 		ldr	r1, [r5, r2, lsl #2]
 3728              	.LVL384:
 631:Drivers/STM32H5xx_HAL_Driver/Src/stm32h5xx_ll_usb.c ****               (((wEPVal & USB_EP_DTOG_RX) == 0U) && ((wEPVal & USB_EP_DTOG_TX) == 0U)))
 3729              		.loc 1 631 11 is_stmt 1 view .LVU1179
 631:Drivers/STM32H5xx_HAL_Driver/Src/stm32h5xx_ll_usb.c ****               (((wEPVal & USB_EP_DTOG_RX) == 0U) && ((wEPVal & USB_EP_DTOG_TX) == 0U)))
 3730              		.loc 1 631 50 is_stmt 0 view .LVU1180
 3731 0796 44F24003 		movw	r3, #16448
 3732 079a 01EA0300 		and	r0, r1, r3
 3733              	.LVL385:
 631:Drivers/STM32H5xx_HAL_Driver/Src/stm32h5xx_ll_usb.c ****               (((wEPVal & USB_EP_DTOG_RX) == 0U) && ((wEPVal & USB_EP_DTOG_TX) == 0U)))
 3734              		.loc 1 631 14 view .LVU1181
 3735 079e 8B43     		bics	r3, r3, r1
 3736 07a0 02D0     		beq	.L174
 631:Drivers/STM32H5xx_HAL_Driver/Src/stm32h5xx_ll_usb.c ****               (((wEPVal & USB_EP_DTOG_RX) == 0U) && ((wEPVal & USB_EP_DTOG_TX) == 0U)))
 3737              		.loc 1 631 88 discriminator 1 view .LVU1182
 3738 07a2 0028     		cmp	r0, #0
 3739 07a4 7FF454AC 		bne	.L158
 3740              	.L174:
 634:Drivers/STM32H5xx_HAL_Driver/Src/stm32h5xx_ll_usb.c ****           }
 3741              		.loc 1 634 13 is_stmt 1 view .LVU1183
 634:Drivers/STM32H5xx_HAL_Driver/Src/stm32h5xx_ll_usb.c ****           }
 3742              		.loc 1 634 13 view .LVU1184
 634:Drivers/STM32H5xx_HAL_Driver/Src/stm32h5xx_ll_usb.c ****           }
ARM GAS  C:\Users\sapph\AppData\Local\Temp\cchEHrSS.s 			page 94


 3743              		.loc 1 634 13 discriminator 1 view .LVU1185
 3744              	.LBB81:
 634:Drivers/STM32H5xx_HAL_Driver/Src/stm32h5xx_ll_usb.c ****           }
 3745              		.loc 1 634 13 discriminator 1 view .LVU1186
 634:Drivers/STM32H5xx_HAL_Driver/Src/stm32h5xx_ll_usb.c ****           }
 3746              		.loc 1 634 13 discriminator 1 view .LVU1187
 3747 07a8 55F82210 		ldr	r1, [r5, r2, lsl #2]
 3748              	.LVL386:
 634:Drivers/STM32H5xx_HAL_Driver/Src/stm32h5xx_ll_usb.c ****           }
 3749              		.loc 1 634 13 is_stmt 0 discriminator 1 view .LVU1188
 3750 07ac 434B     		ldr	r3, .L202
 3751 07ae 0B40     		ands	r3, r3, r1
 3752              	.LVL387:
 634:Drivers/STM32H5xx_HAL_Driver/Src/stm32h5xx_ll_usb.c ****           }
 3753              		.loc 1 634 13 is_stmt 1 discriminator 1 view .LVU1189
 3754 07b0 43F40043 		orr	r3, r3, #32768
 3755              	.LVL388:
 634:Drivers/STM32H5xx_HAL_Driver/Src/stm32h5xx_ll_usb.c ****           }
 3756              		.loc 1 634 13 is_stmt 0 discriminator 1 view .LVU1190
 3757 07b4 43F0C003 		orr	r3, r3, #192
 3758 07b8 45F82230 		str	r3, [r5, r2, lsl #2]
 3759              	.LBE81:
 634:Drivers/STM32H5xx_HAL_Driver/Src/stm32h5xx_ll_usb.c ****           }
 3760              		.loc 1 634 13 is_stmt 1 discriminator 1 view .LVU1191
 3761 07bc 48E4     		b	.L158
 3762              	.LVL389:
 3763              	.L197:
 622:Drivers/STM32H5xx_HAL_Driver/Src/stm32h5xx_ll_usb.c **** 
 3764              		.loc 1 622 9 discriminator 34 view .LVU1192
 3765 07be 2378     		ldrb	r3, [r4]	@ zero_extendqisi2
 3766 07c0 DB00     		lsls	r3, r3, #3
 3767 07c2 03F18043 		add	r3, r3, #1073741824
 3768 07c6 03F5B233 		add	r3, r3, #91136
 3769 07ca 5A68     		ldr	r2, [r3, #4]
 3770 07cc 92B2     		uxth	r2, r2
 3771 07ce 5A60     		str	r2, [r3, #4]
 622:Drivers/STM32H5xx_HAL_Driver/Src/stm32h5xx_ll_usb.c **** 
 3772              		.loc 1 622 9 discriminator 34 view .LVU1193
 3773 07d0 2378     		ldrb	r3, [r4]	@ zero_extendqisi2
 3774 07d2 DB00     		lsls	r3, r3, #3
 3775 07d4 03F18043 		add	r3, r3, #1073741824
 3776 07d8 03F5B233 		add	r3, r3, #91136
 3777 07dc 5A68     		ldr	r2, [r3, #4]
 3778 07de 2169     		ldr	r1, [r4, #16]
 3779 07e0 42EA0142 		orr	r2, r2, r1, lsl #16
 3780 07e4 5A60     		str	r2, [r3, #4]
 3781 07e6 CFE7     		b	.L170
 3782              	.L175:
 649:Drivers/STM32H5xx_HAL_Driver/Src/stm32h5xx_ll_usb.c ****           ep->xfer_len = 0U;
 3783              		.loc 1 649 11 view .LVU1194
 3784              	.LVL390:
 650:Drivers/STM32H5xx_HAL_Driver/Src/stm32h5xx_ll_usb.c ****         }
 3785              		.loc 1 650 11 view .LVU1195
 650:Drivers/STM32H5xx_HAL_Driver/Src/stm32h5xx_ll_usb.c ****         }
 3786              		.loc 1 650 24 is_stmt 0 view .LVU1196
 3787 07e8 0022     		movs	r2, #0
 3788 07ea A261     		str	r2, [r4, #24]
ARM GAS  C:\Users\sapph\AppData\Local\Temp\cchEHrSS.s 			page 95


 649:Drivers/STM32H5xx_HAL_Driver/Src/stm32h5xx_ll_usb.c ****           ep->xfer_len = 0U;
 3789              		.loc 1 649 15 view .LVU1197
 3790 07ec 0A46     		mov	r2, r1
 3791 07ee 1AE7     		b	.L176
 3792              	.LVL391:
 3793              	.L178:
 3794              	.LBB82:
 652:Drivers/STM32H5xx_HAL_Driver/Src/stm32h5xx_ll_usb.c ****       }
 3795              		.loc 1 652 9 is_stmt 1 discriminator 4 view .LVU1198
 3796 07f0 3E2A     		cmp	r2, #62
 3797 07f2 0FD8     		bhi	.L179
 652:Drivers/STM32H5xx_HAL_Driver/Src/stm32h5xx_ll_usb.c ****       }
 3798              		.loc 1 652 9 discriminator 6 view .LVU1199
 652:Drivers/STM32H5xx_HAL_Driver/Src/stm32h5xx_ll_usb.c ****       }
 3799              		.loc 1 652 9 discriminator 6 view .LVU1200
 3800 07f4 5008     		lsrs	r0, r2, #1
 3801              	.LVL392:
 652:Drivers/STM32H5xx_HAL_Driver/Src/stm32h5xx_ll_usb.c ****       }
 3802              		.loc 1 652 9 discriminator 6 view .LVU1201
 3803 07f6 12F0010F 		tst	r2, #1
 3804 07fa 00D0     		beq	.L180
 652:Drivers/STM32H5xx_HAL_Driver/Src/stm32h5xx_ll_usb.c ****       }
 3805              		.loc 1 652 9 discriminator 8 view .LVU1202
 3806 07fc 0130     		adds	r0, r0, #1
 3807              	.LVL393:
 3808              	.L180:
 652:Drivers/STM32H5xx_HAL_Driver/Src/stm32h5xx_ll_usb.c ****       }
 3809              		.loc 1 652 9 discriminator 10 view .LVU1203
 3810 07fe 2378     		ldrb	r3, [r4]	@ zero_extendqisi2
 3811 0800 DB00     		lsls	r3, r3, #3
 3812 0802 03F18043 		add	r3, r3, #1073741824
 3813 0806 03F5B233 		add	r3, r3, #91136
 3814 080a 1968     		ldr	r1, [r3]
 3815 080c 41EA8061 		orr	r1, r1, r0, lsl #26
 3816 0810 1960     		str	r1, [r3]
 652:Drivers/STM32H5xx_HAL_Driver/Src/stm32h5xx_ll_usb.c ****       }
 3817              		.loc 1 652 9 discriminator 10 view .LVU1204
 3818 0812 20E7     		b	.L177
 3819              	.LVL394:
 3820              	.L179:
 652:Drivers/STM32H5xx_HAL_Driver/Src/stm32h5xx_ll_usb.c ****       }
 3821              		.loc 1 652 9 discriminator 7 view .LVU1205
 652:Drivers/STM32H5xx_HAL_Driver/Src/stm32h5xx_ll_usb.c ****       }
 3822              		.loc 1 652 9 discriminator 7 view .LVU1206
 3823 0814 5009     		lsrs	r0, r2, #5
 3824              	.LVL395:
 652:Drivers/STM32H5xx_HAL_Driver/Src/stm32h5xx_ll_usb.c ****       }
 3825              		.loc 1 652 9 discriminator 7 view .LVU1207
 3826 0816 12F01F0F 		tst	r2, #31
 3827 081a 00D1     		bne	.L181
 652:Drivers/STM32H5xx_HAL_Driver/Src/stm32h5xx_ll_usb.c ****       }
 3828              		.loc 1 652 9 discriminator 12 view .LVU1208
 3829 081c 0138     		subs	r0, r0, #1
 3830              	.LVL396:
 3831              	.L181:
 652:Drivers/STM32H5xx_HAL_Driver/Src/stm32h5xx_ll_usb.c ****       }
 3832              		.loc 1 652 9 discriminator 14 view .LVU1209
ARM GAS  C:\Users\sapph\AppData\Local\Temp\cchEHrSS.s 			page 96


 3833 081e 2378     		ldrb	r3, [r4]	@ zero_extendqisi2
 3834 0820 DB00     		lsls	r3, r3, #3
 3835 0822 03F18043 		add	r3, r3, #1073741824
 3836 0826 03F5B233 		add	r3, r3, #91136
 3837 082a 1968     		ldr	r1, [r3]
 3838 082c 41EA8061 		orr	r1, r1, r0, lsl #26
 3839 0830 41F00041 		orr	r1, r1, #-2147483648
 3840 0834 1960     		str	r1, [r3]
 3841 0836 0EE7     		b	.L177
 3842              	.LVL397:
 3843              	.L183:
 652:Drivers/STM32H5xx_HAL_Driver/Src/stm32h5xx_ll_usb.c ****       }
 3844              		.loc 1 652 9 is_stmt 0 discriminator 14 view .LVU1210
 3845              	.LBE82:
 3846              	.LBB83:
 652:Drivers/STM32H5xx_HAL_Driver/Src/stm32h5xx_ll_usb.c ****       }
 3847              		.loc 1 652 9 is_stmt 1 discriminator 22 view .LVU1211
 3848 0838 3E2A     		cmp	r2, #62
 3849 083a 10D8     		bhi	.L184
 652:Drivers/STM32H5xx_HAL_Driver/Src/stm32h5xx_ll_usb.c ****       }
 3850              		.loc 1 652 9 discriminator 24 view .LVU1212
 652:Drivers/STM32H5xx_HAL_Driver/Src/stm32h5xx_ll_usb.c ****       }
 3851              		.loc 1 652 9 discriminator 24 view .LVU1213
 3852 083c 5108     		lsrs	r1, r2, #1
 3853              	.LVL398:
 652:Drivers/STM32H5xx_HAL_Driver/Src/stm32h5xx_ll_usb.c ****       }
 3854              		.loc 1 652 9 discriminator 24 view .LVU1214
 3855 083e 12F0010F 		tst	r2, #1
 3856 0842 00D0     		beq	.L185
 652:Drivers/STM32H5xx_HAL_Driver/Src/stm32h5xx_ll_usb.c ****       }
 3857              		.loc 1 652 9 discriminator 26 view .LVU1215
 3858 0844 0131     		adds	r1, r1, #1
 3859              	.LVL399:
 3860              	.L185:
 652:Drivers/STM32H5xx_HAL_Driver/Src/stm32h5xx_ll_usb.c ****       }
 3861              		.loc 1 652 9 discriminator 28 view .LVU1216
 3862 0846 2378     		ldrb	r3, [r4]	@ zero_extendqisi2
 3863 0848 DB00     		lsls	r3, r3, #3
 3864 084a 03F18043 		add	r3, r3, #1073741824
 3865 084e 03F5B233 		add	r3, r3, #91136
 3866 0852 5A68     		ldr	r2, [r3, #4]
 3867              	.LVL400:
 652:Drivers/STM32H5xx_HAL_Driver/Src/stm32h5xx_ll_usb.c ****       }
 3868              		.loc 1 652 9 is_stmt 0 discriminator 28 view .LVU1217
 3869 0854 42EA8162 		orr	r2, r2, r1, lsl #26
 3870 0858 5A60     		str	r2, [r3, #4]
 652:Drivers/STM32H5xx_HAL_Driver/Src/stm32h5xx_ll_usb.c ****       }
 3871              		.loc 1 652 9 is_stmt 1 discriminator 28 view .LVU1218
 3872 085a FFF7F9BB 		b	.L158
 3873              	.LVL401:
 3874              	.L184:
 652:Drivers/STM32H5xx_HAL_Driver/Src/stm32h5xx_ll_usb.c ****       }
 3875              		.loc 1 652 9 discriminator 25 view .LVU1219
 652:Drivers/STM32H5xx_HAL_Driver/Src/stm32h5xx_ll_usb.c ****       }
 3876              		.loc 1 652 9 discriminator 25 view .LVU1220
 3877 085e 5109     		lsrs	r1, r2, #5
 3878              	.LVL402:
ARM GAS  C:\Users\sapph\AppData\Local\Temp\cchEHrSS.s 			page 97


 652:Drivers/STM32H5xx_HAL_Driver/Src/stm32h5xx_ll_usb.c ****       }
 3879              		.loc 1 652 9 discriminator 25 view .LVU1221
 3880 0860 12F01F0F 		tst	r2, #31
 3881 0864 00D1     		bne	.L186
 652:Drivers/STM32H5xx_HAL_Driver/Src/stm32h5xx_ll_usb.c ****       }
 3882              		.loc 1 652 9 discriminator 30 view .LVU1222
 3883 0866 0139     		subs	r1, r1, #1
 3884              	.LVL403:
 3885              	.L186:
 652:Drivers/STM32H5xx_HAL_Driver/Src/stm32h5xx_ll_usb.c ****       }
 3886              		.loc 1 652 9 discriminator 32 view .LVU1223
 3887 0868 2378     		ldrb	r3, [r4]	@ zero_extendqisi2
 3888 086a DB00     		lsls	r3, r3, #3
 3889 086c 03F18043 		add	r3, r3, #1073741824
 3890 0870 03F5B233 		add	r3, r3, #91136
 3891 0874 5A68     		ldr	r2, [r3, #4]
 3892              	.LVL404:
 652:Drivers/STM32H5xx_HAL_Driver/Src/stm32h5xx_ll_usb.c ****       }
 3893              		.loc 1 652 9 is_stmt 0 discriminator 32 view .LVU1224
 3894 0876 42EA8162 		orr	r2, r2, r1, lsl #26
 3895 087a 42F00042 		orr	r2, r2, #-2147483648
 3896 087e 5A60     		str	r2, [r3, #4]
 3897 0880 FFF7E6BB 		b	.L158
 3898              	.LVL405:
 3899              	.L182:
 652:Drivers/STM32H5xx_HAL_Driver/Src/stm32h5xx_ll_usb.c ****       }
 3900              		.loc 1 652 9 discriminator 32 view .LVU1225
 3901              	.LBE83:
 652:Drivers/STM32H5xx_HAL_Driver/Src/stm32h5xx_ll_usb.c ****       }
 3902              		.loc 1 652 9 is_stmt 1 discriminator 20 view .LVU1226
 3903 0884 012B     		cmp	r3, #1
 3904 0886 7FF4E3AB 		bne	.L158
 652:Drivers/STM32H5xx_HAL_Driver/Src/stm32h5xx_ll_usb.c ****       }
 3905              		.loc 1 652 9 discriminator 34 view .LVU1227
 3906 088a 2378     		ldrb	r3, [r4]	@ zero_extendqisi2
 3907 088c DB00     		lsls	r3, r3, #3
 3908 088e 03F18043 		add	r3, r3, #1073741824
 3909 0892 03F5B233 		add	r3, r3, #91136
 3910 0896 5968     		ldr	r1, [r3, #4]
 3911 0898 89B2     		uxth	r1, r1
 3912 089a 5960     		str	r1, [r3, #4]
 652:Drivers/STM32H5xx_HAL_Driver/Src/stm32h5xx_ll_usb.c ****       }
 3913              		.loc 1 652 9 discriminator 34 view .LVU1228
 3914 089c 2378     		ldrb	r3, [r4]	@ zero_extendqisi2
 3915 089e DB00     		lsls	r3, r3, #3
 3916 08a0 03F18043 		add	r3, r3, #1073741824
 3917 08a4 03F5B233 		add	r3, r3, #91136
 3918 08a8 5968     		ldr	r1, [r3, #4]
 3919 08aa 41EA0242 		orr	r2, r1, r2, lsl #16
 3920              	.LVL406:
 652:Drivers/STM32H5xx_HAL_Driver/Src/stm32h5xx_ll_usb.c ****       }
 3921              		.loc 1 652 9 is_stmt 0 discriminator 34 view .LVU1229
 3922 08ae 5A60     		str	r2, [r3, #4]
 3923 08b0 FFF7CEBB 		b	.L158
 3924              	.LVL407:
 3925              	.L187:
 656:Drivers/STM32H5xx_HAL_Driver/Src/stm32h5xx_ll_usb.c ****       }
ARM GAS  C:\Users\sapph\AppData\Local\Temp\cchEHrSS.s 			page 98


 3926              		.loc 1 656 16 view .LVU1230
 3927 08b4 0120     		movs	r0, #1
 3928              	.LVL408:
 656:Drivers/STM32H5xx_HAL_Driver/Src/stm32h5xx_ll_usb.c ****       }
 3929              		.loc 1 656 16 view .LVU1231
 3930 08b6 FFF7D9BB 		b	.L153
 3931              	.L203:
 3932 08ba 00BF     		.align	2
 3933              	.L202:
 3934 08bc 8F8FFF07 		.word	134188943
 3935              		.cfi_endproc
 3936              	.LFE170:
 3938              		.section	.text.USB_HC_ISO_DB_StartXfer,"ax",%progbits
 3939              		.align	1
 3940              		.syntax unified
 3941              		.thumb
 3942              		.thumb_func
 3944              	USB_HC_ISO_DB_StartXfer:
 3945              	.LVL409:
 3946              	.LFB190:
 922:Drivers/STM32H5xx_HAL_Driver/Src/stm32h5xx_ll_usb.c **** 
 923:Drivers/STM32H5xx_HAL_Driver/Src/stm32h5xx_ll_usb.c **** /**
 924:Drivers/STM32H5xx_HAL_Driver/Src/stm32h5xx_ll_usb.c ****   * @brief Copy data from packet memory area (PMA) to user memory buffer
 925:Drivers/STM32H5xx_HAL_Driver/Src/stm32h5xx_ll_usb.c ****   * @param   USBx USB peripheral instance register address.
 926:Drivers/STM32H5xx_HAL_Driver/Src/stm32h5xx_ll_usb.c ****   * @param   pbUsrBuf pointer to user memory area.
 927:Drivers/STM32H5xx_HAL_Driver/Src/stm32h5xx_ll_usb.c ****   * @param   wPMABufAddr address into PMA.
 928:Drivers/STM32H5xx_HAL_Driver/Src/stm32h5xx_ll_usb.c ****   * @param   wNBytes no. of bytes to be copied.
 929:Drivers/STM32H5xx_HAL_Driver/Src/stm32h5xx_ll_usb.c ****   * @retval None
 930:Drivers/STM32H5xx_HAL_Driver/Src/stm32h5xx_ll_usb.c ****   */
 931:Drivers/STM32H5xx_HAL_Driver/Src/stm32h5xx_ll_usb.c **** void USB_ReadPMA(USB_DRD_TypeDef const *USBx, uint8_t *pbUsrBuf, uint16_t wPMABufAddr, uint16_t wNB
 932:Drivers/STM32H5xx_HAL_Driver/Src/stm32h5xx_ll_usb.c **** {
 933:Drivers/STM32H5xx_HAL_Driver/Src/stm32h5xx_ll_usb.c ****   UNUSED(USBx);
 934:Drivers/STM32H5xx_HAL_Driver/Src/stm32h5xx_ll_usb.c ****   uint32_t count;
 935:Drivers/STM32H5xx_HAL_Driver/Src/stm32h5xx_ll_usb.c ****   uint32_t RdVal;
 936:Drivers/STM32H5xx_HAL_Driver/Src/stm32h5xx_ll_usb.c ****   __IO uint32_t *pdwVal;
 937:Drivers/STM32H5xx_HAL_Driver/Src/stm32h5xx_ll_usb.c ****   uint32_t NbWords = ((uint32_t)wNBytes + 3U) >> 2U;
 938:Drivers/STM32H5xx_HAL_Driver/Src/stm32h5xx_ll_usb.c ****   /*Due to the PMA access 32bit only so the last non word data should be processed alone */
 939:Drivers/STM32H5xx_HAL_Driver/Src/stm32h5xx_ll_usb.c ****   uint16_t remaining_bytes = wNBytes % 4U;
 940:Drivers/STM32H5xx_HAL_Driver/Src/stm32h5xx_ll_usb.c ****   uint8_t *pBuf = pbUsrBuf;
 941:Drivers/STM32H5xx_HAL_Driver/Src/stm32h5xx_ll_usb.c **** 
 942:Drivers/STM32H5xx_HAL_Driver/Src/stm32h5xx_ll_usb.c ****   /* Get the PMA Buffer pointer */
 943:Drivers/STM32H5xx_HAL_Driver/Src/stm32h5xx_ll_usb.c ****   pdwVal = (__IO uint32_t *)(USB_DRD_PMAADDR + (uint32_t)wPMABufAddr);
 944:Drivers/STM32H5xx_HAL_Driver/Src/stm32h5xx_ll_usb.c **** 
 945:Drivers/STM32H5xx_HAL_Driver/Src/stm32h5xx_ll_usb.c ****   /* if nbre of byte is not word aligned decrement the nbre of word*/
 946:Drivers/STM32H5xx_HAL_Driver/Src/stm32h5xx_ll_usb.c ****   if (remaining_bytes != 0U)
 947:Drivers/STM32H5xx_HAL_Driver/Src/stm32h5xx_ll_usb.c ****   {
 948:Drivers/STM32H5xx_HAL_Driver/Src/stm32h5xx_ll_usb.c ****     NbWords--;
 949:Drivers/STM32H5xx_HAL_Driver/Src/stm32h5xx_ll_usb.c ****   }
 950:Drivers/STM32H5xx_HAL_Driver/Src/stm32h5xx_ll_usb.c **** 
 951:Drivers/STM32H5xx_HAL_Driver/Src/stm32h5xx_ll_usb.c ****   /*Read the Calculated Word From the PMA related Buffer*/
 952:Drivers/STM32H5xx_HAL_Driver/Src/stm32h5xx_ll_usb.c ****   for (count = NbWords; count != 0U; count--)
 953:Drivers/STM32H5xx_HAL_Driver/Src/stm32h5xx_ll_usb.c ****   {
 954:Drivers/STM32H5xx_HAL_Driver/Src/stm32h5xx_ll_usb.c ****     __UNALIGNED_UINT32_WRITE(pBuf, *pdwVal);
 955:Drivers/STM32H5xx_HAL_Driver/Src/stm32h5xx_ll_usb.c **** 
 956:Drivers/STM32H5xx_HAL_Driver/Src/stm32h5xx_ll_usb.c ****     pdwVal++;
 957:Drivers/STM32H5xx_HAL_Driver/Src/stm32h5xx_ll_usb.c ****     pBuf++;
 958:Drivers/STM32H5xx_HAL_Driver/Src/stm32h5xx_ll_usb.c ****     pBuf++;
ARM GAS  C:\Users\sapph\AppData\Local\Temp\cchEHrSS.s 			page 99


 959:Drivers/STM32H5xx_HAL_Driver/Src/stm32h5xx_ll_usb.c ****     pBuf++;
 960:Drivers/STM32H5xx_HAL_Driver/Src/stm32h5xx_ll_usb.c ****     pBuf++;
 961:Drivers/STM32H5xx_HAL_Driver/Src/stm32h5xx_ll_usb.c ****   }
 962:Drivers/STM32H5xx_HAL_Driver/Src/stm32h5xx_ll_usb.c **** 
 963:Drivers/STM32H5xx_HAL_Driver/Src/stm32h5xx_ll_usb.c ****   /*When Number of data is not word aligned, read the remaining byte*/
 964:Drivers/STM32H5xx_HAL_Driver/Src/stm32h5xx_ll_usb.c ****   if (remaining_bytes != 0U)
 965:Drivers/STM32H5xx_HAL_Driver/Src/stm32h5xx_ll_usb.c ****   {
 966:Drivers/STM32H5xx_HAL_Driver/Src/stm32h5xx_ll_usb.c ****     RdVal = *(__IO uint32_t *)pdwVal;
 967:Drivers/STM32H5xx_HAL_Driver/Src/stm32h5xx_ll_usb.c **** 
 968:Drivers/STM32H5xx_HAL_Driver/Src/stm32h5xx_ll_usb.c ****     do
 969:Drivers/STM32H5xx_HAL_Driver/Src/stm32h5xx_ll_usb.c ****     {
 970:Drivers/STM32H5xx_HAL_Driver/Src/stm32h5xx_ll_usb.c ****       *(uint8_t *)pBuf = (uint8_t)(RdVal >> (8U * (uint8_t)(count)));
 971:Drivers/STM32H5xx_HAL_Driver/Src/stm32h5xx_ll_usb.c ****       count++;
 972:Drivers/STM32H5xx_HAL_Driver/Src/stm32h5xx_ll_usb.c ****       pBuf++;
 973:Drivers/STM32H5xx_HAL_Driver/Src/stm32h5xx_ll_usb.c ****       remaining_bytes--;
 974:Drivers/STM32H5xx_HAL_Driver/Src/stm32h5xx_ll_usb.c ****     } while (remaining_bytes != 0U);
 975:Drivers/STM32H5xx_HAL_Driver/Src/stm32h5xx_ll_usb.c ****   }
 976:Drivers/STM32H5xx_HAL_Driver/Src/stm32h5xx_ll_usb.c **** }
 977:Drivers/STM32H5xx_HAL_Driver/Src/stm32h5xx_ll_usb.c **** 
 978:Drivers/STM32H5xx_HAL_Driver/Src/stm32h5xx_ll_usb.c **** 
 979:Drivers/STM32H5xx_HAL_Driver/Src/stm32h5xx_ll_usb.c **** /*------------------------------------------------------------------------*/
 980:Drivers/STM32H5xx_HAL_Driver/Src/stm32h5xx_ll_usb.c **** /*                                HOST API                                */
 981:Drivers/STM32H5xx_HAL_Driver/Src/stm32h5xx_ll_usb.c **** /*------------------------------------------------------------------------*/
 982:Drivers/STM32H5xx_HAL_Driver/Src/stm32h5xx_ll_usb.c **** 
 983:Drivers/STM32H5xx_HAL_Driver/Src/stm32h5xx_ll_usb.c **** /**
 984:Drivers/STM32H5xx_HAL_Driver/Src/stm32h5xx_ll_usb.c ****   * @brief  USB_HostInit Initializes the USB DRD controller registers
 985:Drivers/STM32H5xx_HAL_Driver/Src/stm32h5xx_ll_usb.c ****   *         for Host mode
 986:Drivers/STM32H5xx_HAL_Driver/Src/stm32h5xx_ll_usb.c ****   * @param  USBx Selected device
 987:Drivers/STM32H5xx_HAL_Driver/Src/stm32h5xx_ll_usb.c ****   * @param  cfg  pointer to a USB_DRD_CfgTypeDef structure that contains
 988:Drivers/STM32H5xx_HAL_Driver/Src/stm32h5xx_ll_usb.c ****   *         the configuration information for the specified USBx peripheral.
 989:Drivers/STM32H5xx_HAL_Driver/Src/stm32h5xx_ll_usb.c ****   * @retval HAL status
 990:Drivers/STM32H5xx_HAL_Driver/Src/stm32h5xx_ll_usb.c ****   */
 991:Drivers/STM32H5xx_HAL_Driver/Src/stm32h5xx_ll_usb.c **** HAL_StatusTypeDef USB_HostInit(USB_DRD_TypeDef *USBx, USB_DRD_CfgTypeDef cfg)
 992:Drivers/STM32H5xx_HAL_Driver/Src/stm32h5xx_ll_usb.c **** {
 993:Drivers/STM32H5xx_HAL_Driver/Src/stm32h5xx_ll_usb.c ****   UNUSED(cfg);
 994:Drivers/STM32H5xx_HAL_Driver/Src/stm32h5xx_ll_usb.c **** 
 995:Drivers/STM32H5xx_HAL_Driver/Src/stm32h5xx_ll_usb.c ****   /* Clear All Pending Interrupt */
 996:Drivers/STM32H5xx_HAL_Driver/Src/stm32h5xx_ll_usb.c ****   USBx->ISTR = 0U;
 997:Drivers/STM32H5xx_HAL_Driver/Src/stm32h5xx_ll_usb.c **** 
 998:Drivers/STM32H5xx_HAL_Driver/Src/stm32h5xx_ll_usb.c ****   /* Disable all interrupts */
 999:Drivers/STM32H5xx_HAL_Driver/Src/stm32h5xx_ll_usb.c ****   USBx->CNTR &= ~(USB_CNTR_CTRM | USB_CNTR_PMAOVRM | USB_CNTR_ERRM |
1000:Drivers/STM32H5xx_HAL_Driver/Src/stm32h5xx_ll_usb.c ****                   USB_CNTR_WKUPM | USB_CNTR_SUSPM | USB_CNTR_DCON |
1001:Drivers/STM32H5xx_HAL_Driver/Src/stm32h5xx_ll_usb.c ****                   USB_CNTR_SOFM | USB_CNTR_ESOFM | USB_CNTR_L1REQM);
1002:Drivers/STM32H5xx_HAL_Driver/Src/stm32h5xx_ll_usb.c **** 
1003:Drivers/STM32H5xx_HAL_Driver/Src/stm32h5xx_ll_usb.c ****   /* Clear All Pending Interrupt */
1004:Drivers/STM32H5xx_HAL_Driver/Src/stm32h5xx_ll_usb.c ****   USBx->ISTR = 0U;
1005:Drivers/STM32H5xx_HAL_Driver/Src/stm32h5xx_ll_usb.c **** 
1006:Drivers/STM32H5xx_HAL_Driver/Src/stm32h5xx_ll_usb.c ****   /* Set the PullDown on the PHY */
1007:Drivers/STM32H5xx_HAL_Driver/Src/stm32h5xx_ll_usb.c ****   USBx->BCDR |= USB_BCDR_DPPD;
1008:Drivers/STM32H5xx_HAL_Driver/Src/stm32h5xx_ll_usb.c **** 
1009:Drivers/STM32H5xx_HAL_Driver/Src/stm32h5xx_ll_usb.c ****   /* Enable Global interrupt */
1010:Drivers/STM32H5xx_HAL_Driver/Src/stm32h5xx_ll_usb.c ****   USBx->CNTR |= (USB_CNTR_CTRM | USB_CNTR_PMAOVRM | USB_CNTR_ERRM |
1011:Drivers/STM32H5xx_HAL_Driver/Src/stm32h5xx_ll_usb.c ****                  USB_CNTR_WKUPM | USB_CNTR_SUSPM | USB_CNTR_DCON |
1012:Drivers/STM32H5xx_HAL_Driver/Src/stm32h5xx_ll_usb.c ****                  USB_CNTR_SOFM | USB_CNTR_ESOFM | USB_CNTR_L1REQM);
1013:Drivers/STM32H5xx_HAL_Driver/Src/stm32h5xx_ll_usb.c **** 
1014:Drivers/STM32H5xx_HAL_Driver/Src/stm32h5xx_ll_usb.c ****   return HAL_OK;
1015:Drivers/STM32H5xx_HAL_Driver/Src/stm32h5xx_ll_usb.c **** }
ARM GAS  C:\Users\sapph\AppData\Local\Temp\cchEHrSS.s 			page 100


1016:Drivers/STM32H5xx_HAL_Driver/Src/stm32h5xx_ll_usb.c **** 
1017:Drivers/STM32H5xx_HAL_Driver/Src/stm32h5xx_ll_usb.c **** 
1018:Drivers/STM32H5xx_HAL_Driver/Src/stm32h5xx_ll_usb.c **** /**
1019:Drivers/STM32H5xx_HAL_Driver/Src/stm32h5xx_ll_usb.c ****   * @brief  USB_DRD_ResetPort : Reset Host Port
1020:Drivers/STM32H5xx_HAL_Driver/Src/stm32h5xx_ll_usb.c ****   * @param  USBx Selected device
1021:Drivers/STM32H5xx_HAL_Driver/Src/stm32h5xx_ll_usb.c ****   * @retval HAL status
1022:Drivers/STM32H5xx_HAL_Driver/Src/stm32h5xx_ll_usb.c ****   * @note (1)The application must wait at least 10 ms
1023:Drivers/STM32H5xx_HAL_Driver/Src/stm32h5xx_ll_usb.c ****   *   before clearing the reset bit.
1024:Drivers/STM32H5xx_HAL_Driver/Src/stm32h5xx_ll_usb.c ****   */
1025:Drivers/STM32H5xx_HAL_Driver/Src/stm32h5xx_ll_usb.c **** HAL_StatusTypeDef USB_ResetPort(USB_DRD_TypeDef *USBx)
1026:Drivers/STM32H5xx_HAL_Driver/Src/stm32h5xx_ll_usb.c **** {
1027:Drivers/STM32H5xx_HAL_Driver/Src/stm32h5xx_ll_usb.c ****   /* Force USB Reset */
1028:Drivers/STM32H5xx_HAL_Driver/Src/stm32h5xx_ll_usb.c ****   USBx->CNTR |= USB_CNTR_USBRST;
1029:Drivers/STM32H5xx_HAL_Driver/Src/stm32h5xx_ll_usb.c ****   HAL_Delay(100);
1030:Drivers/STM32H5xx_HAL_Driver/Src/stm32h5xx_ll_usb.c ****   /* Release USB Reset */
1031:Drivers/STM32H5xx_HAL_Driver/Src/stm32h5xx_ll_usb.c ****   USBx->CNTR &= ~USB_CNTR_USBRST;
1032:Drivers/STM32H5xx_HAL_Driver/Src/stm32h5xx_ll_usb.c ****   HAL_Delay(30);
1033:Drivers/STM32H5xx_HAL_Driver/Src/stm32h5xx_ll_usb.c **** 
1034:Drivers/STM32H5xx_HAL_Driver/Src/stm32h5xx_ll_usb.c ****   return HAL_OK;
1035:Drivers/STM32H5xx_HAL_Driver/Src/stm32h5xx_ll_usb.c **** }
1036:Drivers/STM32H5xx_HAL_Driver/Src/stm32h5xx_ll_usb.c **** 
1037:Drivers/STM32H5xx_HAL_Driver/Src/stm32h5xx_ll_usb.c **** /**
1038:Drivers/STM32H5xx_HAL_Driver/Src/stm32h5xx_ll_usb.c ****   * @brief  Return Host Core speed
1039:Drivers/STM32H5xx_HAL_Driver/Src/stm32h5xx_ll_usb.c ****   * @param  USBx Selected device
1040:Drivers/STM32H5xx_HAL_Driver/Src/stm32h5xx_ll_usb.c ****   * @retval speed Host speed
1041:Drivers/STM32H5xx_HAL_Driver/Src/stm32h5xx_ll_usb.c ****   *          This parameter can be one of these values
1042:Drivers/STM32H5xx_HAL_Driver/Src/stm32h5xx_ll_usb.c ****   *            @arg USB_DRD_SPEED_FS Full speed mode
1043:Drivers/STM32H5xx_HAL_Driver/Src/stm32h5xx_ll_usb.c ****   *            @arg USB_DRD_SPEED_LS Low speed mode
1044:Drivers/STM32H5xx_HAL_Driver/Src/stm32h5xx_ll_usb.c ****   */
1045:Drivers/STM32H5xx_HAL_Driver/Src/stm32h5xx_ll_usb.c **** uint32_t USB_GetHostSpeed(USB_DRD_TypeDef const *USBx)
1046:Drivers/STM32H5xx_HAL_Driver/Src/stm32h5xx_ll_usb.c **** {
1047:Drivers/STM32H5xx_HAL_Driver/Src/stm32h5xx_ll_usb.c ****   if ((USBx->ISTR & USB_ISTR_LS_DCONN) != 0U)
1048:Drivers/STM32H5xx_HAL_Driver/Src/stm32h5xx_ll_usb.c ****   {
1049:Drivers/STM32H5xx_HAL_Driver/Src/stm32h5xx_ll_usb.c ****     return USB_DRD_SPEED_LS;
1050:Drivers/STM32H5xx_HAL_Driver/Src/stm32h5xx_ll_usb.c ****   }
1051:Drivers/STM32H5xx_HAL_Driver/Src/stm32h5xx_ll_usb.c ****   else
1052:Drivers/STM32H5xx_HAL_Driver/Src/stm32h5xx_ll_usb.c ****   {
1053:Drivers/STM32H5xx_HAL_Driver/Src/stm32h5xx_ll_usb.c ****     return USB_DRD_SPEED_FS;
1054:Drivers/STM32H5xx_HAL_Driver/Src/stm32h5xx_ll_usb.c ****   }
1055:Drivers/STM32H5xx_HAL_Driver/Src/stm32h5xx_ll_usb.c **** }
1056:Drivers/STM32H5xx_HAL_Driver/Src/stm32h5xx_ll_usb.c **** 
1057:Drivers/STM32H5xx_HAL_Driver/Src/stm32h5xx_ll_usb.c **** /**
1058:Drivers/STM32H5xx_HAL_Driver/Src/stm32h5xx_ll_usb.c ****   * @brief  Return Host Current Frame number
1059:Drivers/STM32H5xx_HAL_Driver/Src/stm32h5xx_ll_usb.c ****   * @param  USBx Selected device
1060:Drivers/STM32H5xx_HAL_Driver/Src/stm32h5xx_ll_usb.c ****   * @retval current frame number
1061:Drivers/STM32H5xx_HAL_Driver/Src/stm32h5xx_ll_usb.c ****   */
1062:Drivers/STM32H5xx_HAL_Driver/Src/stm32h5xx_ll_usb.c **** uint32_t USB_GetCurrentFrame(USB_DRD_TypeDef const *USBx)
1063:Drivers/STM32H5xx_HAL_Driver/Src/stm32h5xx_ll_usb.c **** {
1064:Drivers/STM32H5xx_HAL_Driver/Src/stm32h5xx_ll_usb.c ****   return USBx->FNR & 0x7FFU;
1065:Drivers/STM32H5xx_HAL_Driver/Src/stm32h5xx_ll_usb.c **** }
1066:Drivers/STM32H5xx_HAL_Driver/Src/stm32h5xx_ll_usb.c **** 
1067:Drivers/STM32H5xx_HAL_Driver/Src/stm32h5xx_ll_usb.c **** /**
1068:Drivers/STM32H5xx_HAL_Driver/Src/stm32h5xx_ll_usb.c ****   * @brief  Set the channel Kind (Single/double buffer mode)
1069:Drivers/STM32H5xx_HAL_Driver/Src/stm32h5xx_ll_usb.c ****   * @param  USBx Selected device
1070:Drivers/STM32H5xx_HAL_Driver/Src/stm32h5xx_ll_usb.c ****   * @param  phy_ch_num Selected device
1071:Drivers/STM32H5xx_HAL_Driver/Src/stm32h5xx_ll_usb.c ****   * @param  db_state double state can be USB_DRD_XXX_DBUFF_ENBALE/USB_DRD_XXX_DBUFF_DISABLE
1072:Drivers/STM32H5xx_HAL_Driver/Src/stm32h5xx_ll_usb.c ****   * @retval HAL status
ARM GAS  C:\Users\sapph\AppData\Local\Temp\cchEHrSS.s 			page 101


1073:Drivers/STM32H5xx_HAL_Driver/Src/stm32h5xx_ll_usb.c ****   */
1074:Drivers/STM32H5xx_HAL_Driver/Src/stm32h5xx_ll_usb.c **** HAL_StatusTypeDef USB_HC_DoubleBuffer(USB_DRD_TypeDef *USBx,
1075:Drivers/STM32H5xx_HAL_Driver/Src/stm32h5xx_ll_usb.c ****                                       uint8_t phy_ch_num, uint8_t db_state)
1076:Drivers/STM32H5xx_HAL_Driver/Src/stm32h5xx_ll_usb.c **** {
1077:Drivers/STM32H5xx_HAL_Driver/Src/stm32h5xx_ll_usb.c ****   uint32_t tmp;
1078:Drivers/STM32H5xx_HAL_Driver/Src/stm32h5xx_ll_usb.c **** 
1079:Drivers/STM32H5xx_HAL_Driver/Src/stm32h5xx_ll_usb.c ****   if ((db_state == USB_DRD_BULK_DBUFF_ENBALE) || (db_state == USB_DRD_ISOC_DBUFF_DISABLE))
1080:Drivers/STM32H5xx_HAL_Driver/Src/stm32h5xx_ll_usb.c ****   {
1081:Drivers/STM32H5xx_HAL_Driver/Src/stm32h5xx_ll_usb.c ****     tmp = (USB_DRD_GET_CHEP(USBx, phy_ch_num) | USB_CH_KIND) & USB_CHEP_DB_MSK;
1082:Drivers/STM32H5xx_HAL_Driver/Src/stm32h5xx_ll_usb.c ****   }
1083:Drivers/STM32H5xx_HAL_Driver/Src/stm32h5xx_ll_usb.c ****   else
1084:Drivers/STM32H5xx_HAL_Driver/Src/stm32h5xx_ll_usb.c ****   {
1085:Drivers/STM32H5xx_HAL_Driver/Src/stm32h5xx_ll_usb.c ****     tmp = USB_DRD_GET_CHEP(USBx, phy_ch_num) & (~USB_CH_KIND) & USB_CHEP_DB_MSK;
1086:Drivers/STM32H5xx_HAL_Driver/Src/stm32h5xx_ll_usb.c ****   }
1087:Drivers/STM32H5xx_HAL_Driver/Src/stm32h5xx_ll_usb.c **** 
1088:Drivers/STM32H5xx_HAL_Driver/Src/stm32h5xx_ll_usb.c ****   /* Set the device speed in case using HUB FS with device LS */
1089:Drivers/STM32H5xx_HAL_Driver/Src/stm32h5xx_ll_usb.c ****   USB_DRD_SET_CHEP(USBx, phy_ch_num, tmp);
1090:Drivers/STM32H5xx_HAL_Driver/Src/stm32h5xx_ll_usb.c **** 
1091:Drivers/STM32H5xx_HAL_Driver/Src/stm32h5xx_ll_usb.c ****   return HAL_OK;
1092:Drivers/STM32H5xx_HAL_Driver/Src/stm32h5xx_ll_usb.c **** }
1093:Drivers/STM32H5xx_HAL_Driver/Src/stm32h5xx_ll_usb.c **** 
1094:Drivers/STM32H5xx_HAL_Driver/Src/stm32h5xx_ll_usb.c **** /**
1095:Drivers/STM32H5xx_HAL_Driver/Src/stm32h5xx_ll_usb.c ****   * @brief  Initialize a host channel
1096:Drivers/STM32H5xx_HAL_Driver/Src/stm32h5xx_ll_usb.c ****   * @param  USBx Selected device
1097:Drivers/STM32H5xx_HAL_Driver/Src/stm32h5xx_ll_usb.c ****   * @param  phy_ch_num Channel number
1098:Drivers/STM32H5xx_HAL_Driver/Src/stm32h5xx_ll_usb.c ****   *         This parameter can be a value from 1 to 15
1099:Drivers/STM32H5xx_HAL_Driver/Src/stm32h5xx_ll_usb.c ****   * @param  epnum Endpoint number
1100:Drivers/STM32H5xx_HAL_Driver/Src/stm32h5xx_ll_usb.c ****   *          This parameter can be a value from 1 to 15
1101:Drivers/STM32H5xx_HAL_Driver/Src/stm32h5xx_ll_usb.c ****   * @param  dev_address Current device address
1102:Drivers/STM32H5xx_HAL_Driver/Src/stm32h5xx_ll_usb.c ****   *          This parameter can be a value from 0 to 255
1103:Drivers/STM32H5xx_HAL_Driver/Src/stm32h5xx_ll_usb.c ****   * @param  speed Current device speed
1104:Drivers/STM32H5xx_HAL_Driver/Src/stm32h5xx_ll_usb.c ****   *          This parameter can be one of these values:
1105:Drivers/STM32H5xx_HAL_Driver/Src/stm32h5xx_ll_usb.c ****   *          @arg USB_DRD_SPEED_FULL Full speed mode
1106:Drivers/STM32H5xx_HAL_Driver/Src/stm32h5xx_ll_usb.c ****   *          @arg USB_DRD_SPEED_LOW  Low speed mode
1107:Drivers/STM32H5xx_HAL_Driver/Src/stm32h5xx_ll_usb.c ****   * @param  ep_type Endpoint Type
1108:Drivers/STM32H5xx_HAL_Driver/Src/stm32h5xx_ll_usb.c ****   *          This parameter can be one of these values:
1109:Drivers/STM32H5xx_HAL_Driver/Src/stm32h5xx_ll_usb.c ****   *            @arg EP_TYPE_CTRL Control type
1110:Drivers/STM32H5xx_HAL_Driver/Src/stm32h5xx_ll_usb.c ****   *            @arg EP_TYPE_ISOC Isochronous type
1111:Drivers/STM32H5xx_HAL_Driver/Src/stm32h5xx_ll_usb.c ****   *            @arg EP_TYPE_BULK Bulk type
1112:Drivers/STM32H5xx_HAL_Driver/Src/stm32h5xx_ll_usb.c ****   *            @arg EP_TYPE_INTR Interrupt type
1113:Drivers/STM32H5xx_HAL_Driver/Src/stm32h5xx_ll_usb.c ****   * @param  mps Max Packet Size
1114:Drivers/STM32H5xx_HAL_Driver/Src/stm32h5xx_ll_usb.c ****   *          This parameter can be a value from 0 to 32K
1115:Drivers/STM32H5xx_HAL_Driver/Src/stm32h5xx_ll_usb.c ****   * @retval HAL state
1116:Drivers/STM32H5xx_HAL_Driver/Src/stm32h5xx_ll_usb.c ****   */
1117:Drivers/STM32H5xx_HAL_Driver/Src/stm32h5xx_ll_usb.c **** HAL_StatusTypeDef USB_HC_Init(USB_DRD_TypeDef *USBx, uint8_t phy_ch_num,
1118:Drivers/STM32H5xx_HAL_Driver/Src/stm32h5xx_ll_usb.c ****                               uint8_t epnum, uint8_t dev_address, uint8_t speed,
1119:Drivers/STM32H5xx_HAL_Driver/Src/stm32h5xx_ll_usb.c ****                               uint8_t ep_type, uint16_t mps)
1120:Drivers/STM32H5xx_HAL_Driver/Src/stm32h5xx_ll_usb.c **** {
1121:Drivers/STM32H5xx_HAL_Driver/Src/stm32h5xx_ll_usb.c ****   HAL_StatusTypeDef ret = HAL_OK;
1122:Drivers/STM32H5xx_HAL_Driver/Src/stm32h5xx_ll_usb.c ****   uint32_t wChRegVal;
1123:Drivers/STM32H5xx_HAL_Driver/Src/stm32h5xx_ll_usb.c ****   uint32_t HostCoreSpeed;
1124:Drivers/STM32H5xx_HAL_Driver/Src/stm32h5xx_ll_usb.c **** 
1125:Drivers/STM32H5xx_HAL_Driver/Src/stm32h5xx_ll_usb.c ****   UNUSED(mps);
1126:Drivers/STM32H5xx_HAL_Driver/Src/stm32h5xx_ll_usb.c **** 
1127:Drivers/STM32H5xx_HAL_Driver/Src/stm32h5xx_ll_usb.c ****   wChRegVal = USB_DRD_GET_CHEP(USBx, phy_ch_num) & USB_CH_T_MASK;
1128:Drivers/STM32H5xx_HAL_Driver/Src/stm32h5xx_ll_usb.c **** 
1129:Drivers/STM32H5xx_HAL_Driver/Src/stm32h5xx_ll_usb.c ****   /* Initialize host Channel */
ARM GAS  C:\Users\sapph\AppData\Local\Temp\cchEHrSS.s 			page 102


1130:Drivers/STM32H5xx_HAL_Driver/Src/stm32h5xx_ll_usb.c ****   switch (ep_type)
1131:Drivers/STM32H5xx_HAL_Driver/Src/stm32h5xx_ll_usb.c ****   {
1132:Drivers/STM32H5xx_HAL_Driver/Src/stm32h5xx_ll_usb.c ****     case EP_TYPE_CTRL:
1133:Drivers/STM32H5xx_HAL_Driver/Src/stm32h5xx_ll_usb.c ****       wChRegVal |= USB_EP_CONTROL;
1134:Drivers/STM32H5xx_HAL_Driver/Src/stm32h5xx_ll_usb.c ****       break;
1135:Drivers/STM32H5xx_HAL_Driver/Src/stm32h5xx_ll_usb.c **** 
1136:Drivers/STM32H5xx_HAL_Driver/Src/stm32h5xx_ll_usb.c ****     case EP_TYPE_BULK:
1137:Drivers/STM32H5xx_HAL_Driver/Src/stm32h5xx_ll_usb.c ****       wChRegVal |= USB_EP_BULK;
1138:Drivers/STM32H5xx_HAL_Driver/Src/stm32h5xx_ll_usb.c ****       break;
1139:Drivers/STM32H5xx_HAL_Driver/Src/stm32h5xx_ll_usb.c **** 
1140:Drivers/STM32H5xx_HAL_Driver/Src/stm32h5xx_ll_usb.c ****     case EP_TYPE_INTR:
1141:Drivers/STM32H5xx_HAL_Driver/Src/stm32h5xx_ll_usb.c ****       wChRegVal |= USB_EP_INTERRUPT;
1142:Drivers/STM32H5xx_HAL_Driver/Src/stm32h5xx_ll_usb.c ****       break;
1143:Drivers/STM32H5xx_HAL_Driver/Src/stm32h5xx_ll_usb.c **** 
1144:Drivers/STM32H5xx_HAL_Driver/Src/stm32h5xx_ll_usb.c ****     case EP_TYPE_ISOC:
1145:Drivers/STM32H5xx_HAL_Driver/Src/stm32h5xx_ll_usb.c ****       wChRegVal |= USB_EP_ISOCHRONOUS;
1146:Drivers/STM32H5xx_HAL_Driver/Src/stm32h5xx_ll_usb.c ****       break;
1147:Drivers/STM32H5xx_HAL_Driver/Src/stm32h5xx_ll_usb.c **** 
1148:Drivers/STM32H5xx_HAL_Driver/Src/stm32h5xx_ll_usb.c ****     default:
1149:Drivers/STM32H5xx_HAL_Driver/Src/stm32h5xx_ll_usb.c ****       ret = HAL_ERROR;
1150:Drivers/STM32H5xx_HAL_Driver/Src/stm32h5xx_ll_usb.c ****       break;
1151:Drivers/STM32H5xx_HAL_Driver/Src/stm32h5xx_ll_usb.c ****   }
1152:Drivers/STM32H5xx_HAL_Driver/Src/stm32h5xx_ll_usb.c **** 
1153:Drivers/STM32H5xx_HAL_Driver/Src/stm32h5xx_ll_usb.c ****   /* Clear device address, Endpoint number and Low Speed Endpoint fields */
1154:Drivers/STM32H5xx_HAL_Driver/Src/stm32h5xx_ll_usb.c ****   wChRegVal &= ~(USB_CHEP_DEVADDR |
1155:Drivers/STM32H5xx_HAL_Driver/Src/stm32h5xx_ll_usb.c ****                  USB_CHEP_ADDR |
1156:Drivers/STM32H5xx_HAL_Driver/Src/stm32h5xx_ll_usb.c ****                  USB_CHEP_LSEP |
1157:Drivers/STM32H5xx_HAL_Driver/Src/stm32h5xx_ll_usb.c ****                  USB_CHEP_NAK |
1158:Drivers/STM32H5xx_HAL_Driver/Src/stm32h5xx_ll_usb.c ****                  USB_CHEP_KIND |
1159:Drivers/STM32H5xx_HAL_Driver/Src/stm32h5xx_ll_usb.c ****                  USB_CHEP_ERRTX |
1160:Drivers/STM32H5xx_HAL_Driver/Src/stm32h5xx_ll_usb.c ****                  USB_CHEP_ERRRX |
1161:Drivers/STM32H5xx_HAL_Driver/Src/stm32h5xx_ll_usb.c ****                  (0xFU << 27));
1162:Drivers/STM32H5xx_HAL_Driver/Src/stm32h5xx_ll_usb.c **** 
1163:Drivers/STM32H5xx_HAL_Driver/Src/stm32h5xx_ll_usb.c ****   /* Set device address and Endpoint number associated to the channel */
1164:Drivers/STM32H5xx_HAL_Driver/Src/stm32h5xx_ll_usb.c ****   wChRegVal |= (((uint32_t)dev_address << USB_CHEP_DEVADDR_Pos) |
1165:Drivers/STM32H5xx_HAL_Driver/Src/stm32h5xx_ll_usb.c ****                 ((uint32_t)epnum & 0x0FU));
1166:Drivers/STM32H5xx_HAL_Driver/Src/stm32h5xx_ll_usb.c **** 
1167:Drivers/STM32H5xx_HAL_Driver/Src/stm32h5xx_ll_usb.c ****   /* Get Host core Speed */
1168:Drivers/STM32H5xx_HAL_Driver/Src/stm32h5xx_ll_usb.c ****   HostCoreSpeed = USB_GetHostSpeed(USBx);
1169:Drivers/STM32H5xx_HAL_Driver/Src/stm32h5xx_ll_usb.c **** 
1170:Drivers/STM32H5xx_HAL_Driver/Src/stm32h5xx_ll_usb.c ****   /* Set the device speed in case using HUB FS with device LS */
1171:Drivers/STM32H5xx_HAL_Driver/Src/stm32h5xx_ll_usb.c ****   if ((speed == USB_DRD_SPEED_LS) && (HostCoreSpeed == USB_DRD_SPEED_FS))
1172:Drivers/STM32H5xx_HAL_Driver/Src/stm32h5xx_ll_usb.c ****   {
1173:Drivers/STM32H5xx_HAL_Driver/Src/stm32h5xx_ll_usb.c ****     wChRegVal |= USB_CHEP_LSEP;
1174:Drivers/STM32H5xx_HAL_Driver/Src/stm32h5xx_ll_usb.c ****   }
1175:Drivers/STM32H5xx_HAL_Driver/Src/stm32h5xx_ll_usb.c **** 
1176:Drivers/STM32H5xx_HAL_Driver/Src/stm32h5xx_ll_usb.c ****   /* Update the channel register value */
1177:Drivers/STM32H5xx_HAL_Driver/Src/stm32h5xx_ll_usb.c ****   USB_DRD_SET_CHEP(USBx, phy_ch_num, (wChRegVal | USB_CH_VTRX | USB_CH_VTTX));
1178:Drivers/STM32H5xx_HAL_Driver/Src/stm32h5xx_ll_usb.c **** 
1179:Drivers/STM32H5xx_HAL_Driver/Src/stm32h5xx_ll_usb.c ****   return ret;
1180:Drivers/STM32H5xx_HAL_Driver/Src/stm32h5xx_ll_usb.c **** }
1181:Drivers/STM32H5xx_HAL_Driver/Src/stm32h5xx_ll_usb.c **** 
1182:Drivers/STM32H5xx_HAL_Driver/Src/stm32h5xx_ll_usb.c **** /**
1183:Drivers/STM32H5xx_HAL_Driver/Src/stm32h5xx_ll_usb.c ****   * @brief  Start a transfer over a host channel
1184:Drivers/STM32H5xx_HAL_Driver/Src/stm32h5xx_ll_usb.c ****   * @param  USBx Selected device
1185:Drivers/STM32H5xx_HAL_Driver/Src/stm32h5xx_ll_usb.c ****   * @param  hc pointer to host channel structure
1186:Drivers/STM32H5xx_HAL_Driver/Src/stm32h5xx_ll_usb.c ****   * @retval HAL state
ARM GAS  C:\Users\sapph\AppData\Local\Temp\cchEHrSS.s 			page 103


1187:Drivers/STM32H5xx_HAL_Driver/Src/stm32h5xx_ll_usb.c ****   */
1188:Drivers/STM32H5xx_HAL_Driver/Src/stm32h5xx_ll_usb.c **** HAL_StatusTypeDef USB_HC_StartXfer(USB_DRD_TypeDef *USBx, USB_DRD_HCTypeDef *hc)
1189:Drivers/STM32H5xx_HAL_Driver/Src/stm32h5xx_ll_usb.c **** {
1190:Drivers/STM32H5xx_HAL_Driver/Src/stm32h5xx_ll_usb.c ****   uint32_t len;
1191:Drivers/STM32H5xx_HAL_Driver/Src/stm32h5xx_ll_usb.c ****   uint32_t phy_ch_num = (uint32_t)hc->phy_ch_num;
1192:Drivers/STM32H5xx_HAL_Driver/Src/stm32h5xx_ll_usb.c **** #if (USE_USB_DOUBLE_BUFFER == 1U)
1193:Drivers/STM32H5xx_HAL_Driver/Src/stm32h5xx_ll_usb.c ****   uint32_t ch_reg = USB_DRD_GET_CHEP(USBx, phy_ch_num);
1194:Drivers/STM32H5xx_HAL_Driver/Src/stm32h5xx_ll_usb.c **** #endif /* USE_USB_DOUBLE_BUFFER */
1195:Drivers/STM32H5xx_HAL_Driver/Src/stm32h5xx_ll_usb.c **** 
1196:Drivers/STM32H5xx_HAL_Driver/Src/stm32h5xx_ll_usb.c ****   if (hc->ch_dir == CH_IN_DIR)  /* In Channel */
1197:Drivers/STM32H5xx_HAL_Driver/Src/stm32h5xx_ll_usb.c ****   {
1198:Drivers/STM32H5xx_HAL_Driver/Src/stm32h5xx_ll_usb.c ****     /* Multi packet transfer */
1199:Drivers/STM32H5xx_HAL_Driver/Src/stm32h5xx_ll_usb.c ****     if (hc->xfer_len > hc->max_packet)
1200:Drivers/STM32H5xx_HAL_Driver/Src/stm32h5xx_ll_usb.c ****     {
1201:Drivers/STM32H5xx_HAL_Driver/Src/stm32h5xx_ll_usb.c ****       len = hc->max_packet;
1202:Drivers/STM32H5xx_HAL_Driver/Src/stm32h5xx_ll_usb.c ****     }
1203:Drivers/STM32H5xx_HAL_Driver/Src/stm32h5xx_ll_usb.c ****     else
1204:Drivers/STM32H5xx_HAL_Driver/Src/stm32h5xx_ll_usb.c ****     {
1205:Drivers/STM32H5xx_HAL_Driver/Src/stm32h5xx_ll_usb.c ****       len = hc->xfer_len;
1206:Drivers/STM32H5xx_HAL_Driver/Src/stm32h5xx_ll_usb.c ****     }
1207:Drivers/STM32H5xx_HAL_Driver/Src/stm32h5xx_ll_usb.c **** 
1208:Drivers/STM32H5xx_HAL_Driver/Src/stm32h5xx_ll_usb.c ****     if (hc->doublebuffer == 0U)
1209:Drivers/STM32H5xx_HAL_Driver/Src/stm32h5xx_ll_usb.c ****     {
1210:Drivers/STM32H5xx_HAL_Driver/Src/stm32h5xx_ll_usb.c ****       if ((hc->ep_type == EP_TYPE_BULK) ||
1211:Drivers/STM32H5xx_HAL_Driver/Src/stm32h5xx_ll_usb.c ****           (hc->ep_type == EP_TYPE_INTR))
1212:Drivers/STM32H5xx_HAL_Driver/Src/stm32h5xx_ll_usb.c ****       {
1213:Drivers/STM32H5xx_HAL_Driver/Src/stm32h5xx_ll_usb.c ****         USB_DRD_CLEAR_RX_DTOG(USBx, phy_ch_num);
1214:Drivers/STM32H5xx_HAL_Driver/Src/stm32h5xx_ll_usb.c **** 
1215:Drivers/STM32H5xx_HAL_Driver/Src/stm32h5xx_ll_usb.c ****         /* Set Data PID */
1216:Drivers/STM32H5xx_HAL_Driver/Src/stm32h5xx_ll_usb.c ****         if (hc->data_pid == HC_PID_DATA1)
1217:Drivers/STM32H5xx_HAL_Driver/Src/stm32h5xx_ll_usb.c ****         {
1218:Drivers/STM32H5xx_HAL_Driver/Src/stm32h5xx_ll_usb.c ****           USB_DRD_RX_DTOG(USBx, phy_ch_num);
1219:Drivers/STM32H5xx_HAL_Driver/Src/stm32h5xx_ll_usb.c ****         }
1220:Drivers/STM32H5xx_HAL_Driver/Src/stm32h5xx_ll_usb.c ****       }
1221:Drivers/STM32H5xx_HAL_Driver/Src/stm32h5xx_ll_usb.c **** 
1222:Drivers/STM32H5xx_HAL_Driver/Src/stm32h5xx_ll_usb.c ****       /* Set RX buffer count */
1223:Drivers/STM32H5xx_HAL_Driver/Src/stm32h5xx_ll_usb.c ****       USB_DRD_SET_CHEP_RX_CNT(USBx, phy_ch_num, len);
1224:Drivers/STM32H5xx_HAL_Driver/Src/stm32h5xx_ll_usb.c ****     }
1225:Drivers/STM32H5xx_HAL_Driver/Src/stm32h5xx_ll_usb.c **** #if (USE_USB_DOUBLE_BUFFER == 1U)
1226:Drivers/STM32H5xx_HAL_Driver/Src/stm32h5xx_ll_usb.c ****     else if (hc->ep_type == EP_TYPE_BULK)
1227:Drivers/STM32H5xx_HAL_Driver/Src/stm32h5xx_ll_usb.c ****     {
1228:Drivers/STM32H5xx_HAL_Driver/Src/stm32h5xx_ll_usb.c ****       /* Double buffer activated */
1229:Drivers/STM32H5xx_HAL_Driver/Src/stm32h5xx_ll_usb.c ****       if ((hc->xfer_len > hc->max_packet))
1230:Drivers/STM32H5xx_HAL_Driver/Src/stm32h5xx_ll_usb.c ****       {
1231:Drivers/STM32H5xx_HAL_Driver/Src/stm32h5xx_ll_usb.c ****         (void)USB_HC_DoubleBuffer(USBx, (uint8_t)phy_ch_num, USB_DRD_BULK_DBUFF_ENBALE);
1232:Drivers/STM32H5xx_HAL_Driver/Src/stm32h5xx_ll_usb.c **** 
1233:Drivers/STM32H5xx_HAL_Driver/Src/stm32h5xx_ll_usb.c ****         /* Set the Double buffer counter */
1234:Drivers/STM32H5xx_HAL_Driver/Src/stm32h5xx_ll_usb.c ****         USB_DRD_SET_CHEP_DBUF0_CNT(USBx, phy_ch_num, 0U, len);
1235:Drivers/STM32H5xx_HAL_Driver/Src/stm32h5xx_ll_usb.c ****         USB_DRD_SET_CHEP_DBUF1_CNT(USBx, phy_ch_num, 0U, len);
1236:Drivers/STM32H5xx_HAL_Driver/Src/stm32h5xx_ll_usb.c ****       }
1237:Drivers/STM32H5xx_HAL_Driver/Src/stm32h5xx_ll_usb.c ****       else  /* Switch to single buffer mode */
1238:Drivers/STM32H5xx_HAL_Driver/Src/stm32h5xx_ll_usb.c ****       {
1239:Drivers/STM32H5xx_HAL_Driver/Src/stm32h5xx_ll_usb.c ****         (void)USB_HC_DoubleBuffer(USBx, (uint8_t)phy_ch_num, USB_DRD_BULK_DBUFF_DISABLE);
1240:Drivers/STM32H5xx_HAL_Driver/Src/stm32h5xx_ll_usb.c **** 
1241:Drivers/STM32H5xx_HAL_Driver/Src/stm32h5xx_ll_usb.c ****         /* Set RX buffer count */
1242:Drivers/STM32H5xx_HAL_Driver/Src/stm32h5xx_ll_usb.c ****         USB_DRD_SET_CHEP_RX_CNT(USBx, phy_ch_num, len);
1243:Drivers/STM32H5xx_HAL_Driver/Src/stm32h5xx_ll_usb.c ****       }
ARM GAS  C:\Users\sapph\AppData\Local\Temp\cchEHrSS.s 			page 104


1244:Drivers/STM32H5xx_HAL_Driver/Src/stm32h5xx_ll_usb.c ****     }
1245:Drivers/STM32H5xx_HAL_Driver/Src/stm32h5xx_ll_usb.c ****     else  /* Isochronous */
1246:Drivers/STM32H5xx_HAL_Driver/Src/stm32h5xx_ll_usb.c ****     {
1247:Drivers/STM32H5xx_HAL_Driver/Src/stm32h5xx_ll_usb.c ****       /* Set the Double buffer counter */
1248:Drivers/STM32H5xx_HAL_Driver/Src/stm32h5xx_ll_usb.c ****       USB_DRD_SET_CHEP_DBUF0_CNT(USBx, phy_ch_num, 0U, len);
1249:Drivers/STM32H5xx_HAL_Driver/Src/stm32h5xx_ll_usb.c ****       USB_DRD_SET_CHEP_DBUF1_CNT(USBx, phy_ch_num, 0U, len);
1250:Drivers/STM32H5xx_HAL_Driver/Src/stm32h5xx_ll_usb.c ****     }
1251:Drivers/STM32H5xx_HAL_Driver/Src/stm32h5xx_ll_usb.c **** #endif /* USE_USB_DOUBLE_BUFFER */
1252:Drivers/STM32H5xx_HAL_Driver/Src/stm32h5xx_ll_usb.c **** 
1253:Drivers/STM32H5xx_HAL_Driver/Src/stm32h5xx_ll_usb.c ****     /* Enable host channel */
1254:Drivers/STM32H5xx_HAL_Driver/Src/stm32h5xx_ll_usb.c ****     USB_DRD_SET_CHEP_RX_STATUS(USBx, phy_ch_num, USB_CH_RX_VALID);
1255:Drivers/STM32H5xx_HAL_Driver/Src/stm32h5xx_ll_usb.c ****   }
1256:Drivers/STM32H5xx_HAL_Driver/Src/stm32h5xx_ll_usb.c ****   else   /* Out Channel */
1257:Drivers/STM32H5xx_HAL_Driver/Src/stm32h5xx_ll_usb.c ****   {
1258:Drivers/STM32H5xx_HAL_Driver/Src/stm32h5xx_ll_usb.c ****     /* Multi packet transfer */
1259:Drivers/STM32H5xx_HAL_Driver/Src/stm32h5xx_ll_usb.c ****     if (hc->xfer_len > hc->max_packet)
1260:Drivers/STM32H5xx_HAL_Driver/Src/stm32h5xx_ll_usb.c ****     {
1261:Drivers/STM32H5xx_HAL_Driver/Src/stm32h5xx_ll_usb.c ****       len = hc->max_packet;
1262:Drivers/STM32H5xx_HAL_Driver/Src/stm32h5xx_ll_usb.c ****     }
1263:Drivers/STM32H5xx_HAL_Driver/Src/stm32h5xx_ll_usb.c ****     else
1264:Drivers/STM32H5xx_HAL_Driver/Src/stm32h5xx_ll_usb.c ****     {
1265:Drivers/STM32H5xx_HAL_Driver/Src/stm32h5xx_ll_usb.c ****       len = hc->xfer_len;
1266:Drivers/STM32H5xx_HAL_Driver/Src/stm32h5xx_ll_usb.c ****     }
1267:Drivers/STM32H5xx_HAL_Driver/Src/stm32h5xx_ll_usb.c **** 
1268:Drivers/STM32H5xx_HAL_Driver/Src/stm32h5xx_ll_usb.c ****     /* Configure and validate Tx endpoint */
1269:Drivers/STM32H5xx_HAL_Driver/Src/stm32h5xx_ll_usb.c ****     if (hc->doublebuffer == 0U)
1270:Drivers/STM32H5xx_HAL_Driver/Src/stm32h5xx_ll_usb.c ****     {
1271:Drivers/STM32H5xx_HAL_Driver/Src/stm32h5xx_ll_usb.c ****       USB_WritePMA(USBx, hc->xfer_buff, hc->pmaadress, (uint16_t)len);
1272:Drivers/STM32H5xx_HAL_Driver/Src/stm32h5xx_ll_usb.c ****       USB_DRD_SET_CHEP_TX_CNT(USBx, phy_ch_num, (uint16_t)len);
1273:Drivers/STM32H5xx_HAL_Driver/Src/stm32h5xx_ll_usb.c **** 
1274:Drivers/STM32H5xx_HAL_Driver/Src/stm32h5xx_ll_usb.c ****       /* SET PID SETUP  */
1275:Drivers/STM32H5xx_HAL_Driver/Src/stm32h5xx_ll_usb.c ****       if ((hc->data_pid) == HC_PID_SETUP)
1276:Drivers/STM32H5xx_HAL_Driver/Src/stm32h5xx_ll_usb.c ****       {
1277:Drivers/STM32H5xx_HAL_Driver/Src/stm32h5xx_ll_usb.c ****         USB_DRD_CHEP_TX_SETUP(USBx,  phy_ch_num);
1278:Drivers/STM32H5xx_HAL_Driver/Src/stm32h5xx_ll_usb.c ****       }
1279:Drivers/STM32H5xx_HAL_Driver/Src/stm32h5xx_ll_usb.c **** 
1280:Drivers/STM32H5xx_HAL_Driver/Src/stm32h5xx_ll_usb.c ****       if ((hc->ep_type == EP_TYPE_BULK) ||
1281:Drivers/STM32H5xx_HAL_Driver/Src/stm32h5xx_ll_usb.c ****           (hc->ep_type == EP_TYPE_INTR))
1282:Drivers/STM32H5xx_HAL_Driver/Src/stm32h5xx_ll_usb.c ****       {
1283:Drivers/STM32H5xx_HAL_Driver/Src/stm32h5xx_ll_usb.c ****         USB_DRD_CLEAR_TX_DTOG(USBx, phy_ch_num);
1284:Drivers/STM32H5xx_HAL_Driver/Src/stm32h5xx_ll_usb.c **** 
1285:Drivers/STM32H5xx_HAL_Driver/Src/stm32h5xx_ll_usb.c ****         /* Set Data PID */
1286:Drivers/STM32H5xx_HAL_Driver/Src/stm32h5xx_ll_usb.c ****         if (hc->data_pid == HC_PID_DATA1)
1287:Drivers/STM32H5xx_HAL_Driver/Src/stm32h5xx_ll_usb.c ****         {
1288:Drivers/STM32H5xx_HAL_Driver/Src/stm32h5xx_ll_usb.c ****           USB_DRD_TX_DTOG(USBx, phy_ch_num);
1289:Drivers/STM32H5xx_HAL_Driver/Src/stm32h5xx_ll_usb.c ****         }
1290:Drivers/STM32H5xx_HAL_Driver/Src/stm32h5xx_ll_usb.c ****       }
1291:Drivers/STM32H5xx_HAL_Driver/Src/stm32h5xx_ll_usb.c ****     }
1292:Drivers/STM32H5xx_HAL_Driver/Src/stm32h5xx_ll_usb.c **** #if (USE_USB_DOUBLE_BUFFER == 1U)
1293:Drivers/STM32H5xx_HAL_Driver/Src/stm32h5xx_ll_usb.c ****     else if (hc->ep_type == EP_TYPE_BULK)
1294:Drivers/STM32H5xx_HAL_Driver/Src/stm32h5xx_ll_usb.c ****     {
1295:Drivers/STM32H5xx_HAL_Driver/Src/stm32h5xx_ll_usb.c ****       (void)USB_HC_BULK_DB_StartXfer(USBx, hc, ch_reg, &len);
1296:Drivers/STM32H5xx_HAL_Driver/Src/stm32h5xx_ll_usb.c ****     }
1297:Drivers/STM32H5xx_HAL_Driver/Src/stm32h5xx_ll_usb.c ****     else
1298:Drivers/STM32H5xx_HAL_Driver/Src/stm32h5xx_ll_usb.c ****     {
1299:Drivers/STM32H5xx_HAL_Driver/Src/stm32h5xx_ll_usb.c ****       (void)USB_HC_ISO_DB_StartXfer(USBx, hc, len);
1300:Drivers/STM32H5xx_HAL_Driver/Src/stm32h5xx_ll_usb.c ****     }
ARM GAS  C:\Users\sapph\AppData\Local\Temp\cchEHrSS.s 			page 105


1301:Drivers/STM32H5xx_HAL_Driver/Src/stm32h5xx_ll_usb.c **** #endif /* (USE_USB_DOUBLE_BUFFER == 1U) */
1302:Drivers/STM32H5xx_HAL_Driver/Src/stm32h5xx_ll_usb.c **** 
1303:Drivers/STM32H5xx_HAL_Driver/Src/stm32h5xx_ll_usb.c ****     /* Enable host channel */
1304:Drivers/STM32H5xx_HAL_Driver/Src/stm32h5xx_ll_usb.c ****     USB_DRD_SET_CHEP_TX_STATUS(USBx, hc->phy_ch_num, USB_CH_TX_VALID);
1305:Drivers/STM32H5xx_HAL_Driver/Src/stm32h5xx_ll_usb.c ****   }
1306:Drivers/STM32H5xx_HAL_Driver/Src/stm32h5xx_ll_usb.c **** 
1307:Drivers/STM32H5xx_HAL_Driver/Src/stm32h5xx_ll_usb.c ****   return HAL_OK;
1308:Drivers/STM32H5xx_HAL_Driver/Src/stm32h5xx_ll_usb.c **** }
1309:Drivers/STM32H5xx_HAL_Driver/Src/stm32h5xx_ll_usb.c **** 
1310:Drivers/STM32H5xx_HAL_Driver/Src/stm32h5xx_ll_usb.c **** #if (USE_USB_DOUBLE_BUFFER == 1U)
1311:Drivers/STM32H5xx_HAL_Driver/Src/stm32h5xx_ll_usb.c **** /**
1312:Drivers/STM32H5xx_HAL_Driver/Src/stm32h5xx_ll_usb.c ****   * @brief  Start Transfer of Channel isochronous out double buffer
1313:Drivers/STM32H5xx_HAL_Driver/Src/stm32h5xx_ll_usb.c ****   * @param  USBx Selected device
1314:Drivers/STM32H5xx_HAL_Driver/Src/stm32h5xx_ll_usb.c ****   * @param  hc_num Host Channel number
1315:Drivers/STM32H5xx_HAL_Driver/Src/stm32h5xx_ll_usb.c ****   *         This parameter can be a value from 1 to 15
1316:Drivers/STM32H5xx_HAL_Driver/Src/stm32h5xx_ll_usb.c ****   * @param  len Transfer Length
1317:Drivers/STM32H5xx_HAL_Driver/Src/stm32h5xx_ll_usb.c ****   * @retval HAL state
1318:Drivers/STM32H5xx_HAL_Driver/Src/stm32h5xx_ll_usb.c ****   */
1319:Drivers/STM32H5xx_HAL_Driver/Src/stm32h5xx_ll_usb.c **** static HAL_StatusTypeDef USB_HC_ISO_DB_StartXfer(USB_DRD_TypeDef *USBx,
1320:Drivers/STM32H5xx_HAL_Driver/Src/stm32h5xx_ll_usb.c ****                                                  USB_DRD_HCTypeDef *hc,
1321:Drivers/STM32H5xx_HAL_Driver/Src/stm32h5xx_ll_usb.c ****                                                  uint32_t len)
1322:Drivers/STM32H5xx_HAL_Driver/Src/stm32h5xx_ll_usb.c **** {
 3947              		.loc 1 1322 1 is_stmt 1 view -0
 3948              		.cfi_startproc
 3949              		@ args = 0, pretend = 0, frame = 0
 3950              		@ frame_needed = 0, uses_anonymous_args = 0
 3951              		.loc 1 1322 1 is_stmt 0 view .LVU1233
 3952 0000 08B5     		push	{r3, lr}
 3953              		.cfi_def_cfa_offset 8
 3954              		.cfi_offset 3, -8
 3955              		.cfi_offset 14, -4
1323:Drivers/STM32H5xx_HAL_Driver/Src/stm32h5xx_ll_usb.c ****   uint32_t phy_ch_num = (uint32_t)hc->phy_ch_num;
 3956              		.loc 1 1323 3 is_stmt 1 view .LVU1234
 3957              		.loc 1 1323 37 is_stmt 0 view .LVU1235
 3958 0002 91F801C0 		ldrb	ip, [r1, #1]	@ zero_extendqisi2
 3959              	.LVL410:
1324:Drivers/STM32H5xx_HAL_Driver/Src/stm32h5xx_ll_usb.c **** 
1325:Drivers/STM32H5xx_HAL_Driver/Src/stm32h5xx_ll_usb.c ****   /* check the DTOG_TX to determine in which buffer we should write */
1326:Drivers/STM32H5xx_HAL_Driver/Src/stm32h5xx_ll_usb.c ****   if ((USB_DRD_GET_CHEP(USBx, phy_ch_num) & USB_CH_DTOG_TX) != 0U)
 3960              		.loc 1 1326 3 is_stmt 1 view .LVU1236
 3961              		.loc 1 1326 8 is_stmt 0 view .LVU1237
 3962 0006 50F82C30 		ldr	r3, [r0, ip, lsl #2]
 3963              		.loc 1 1326 6 view .LVU1238
 3964 000a 13F0400F 		tst	r3, #64
 3965 000e 17D0     		beq	.L205
1327:Drivers/STM32H5xx_HAL_Driver/Src/stm32h5xx_ll_usb.c ****   {
1328:Drivers/STM32H5xx_HAL_Driver/Src/stm32h5xx_ll_usb.c ****     USB_DRD_SET_CHEP_DBUF0_CNT(USBx, phy_ch_num, 1U, len);
 3966              		.loc 1 1328 5 is_stmt 1 view .LVU1239
 3967              		.loc 1 1328 5 view .LVU1240
 3968              		.loc 1 1328 5 discriminator 2 view .LVU1241
 3969              		.loc 1 1328 5 discriminator 16 view .LVU1242
 3970              		.loc 1 1328 5 discriminator 16 view .LVU1243
 3971 0010 4FEACC0C 		lsl	ip, ip, #3
 3972              	.LVL411:
 3973              		.loc 1 1328 5 is_stmt 0 discriminator 16 view .LVU1244
 3974 0014 0CF1804C 		add	ip, ip, #1073741824
 3975 0018 0CF5B23C 		add	ip, ip, #91136
ARM GAS  C:\Users\sapph\AppData\Local\Temp\cchEHrSS.s 			page 106


 3976 001c DCF80030 		ldr	r3, [ip]
 3977 0020 9BB2     		uxth	r3, r3
 3978 0022 CCF80030 		str	r3, [ip]
 3979              	.LVL412:
 3980              		.loc 1 1328 5 is_stmt 1 discriminator 16 view .LVU1245
 3981 0026 DCF80030 		ldr	r3, [ip]
 3982 002a 43EA0243 		orr	r3, r3, r2, lsl #16
 3983 002e CCF80030 		str	r3, [ip]
 3984              		.loc 1 1328 5 discriminator 18 view .LVU1246
 3985              		.loc 1 1328 5 discriminator 18 view .LVU1247
1329:Drivers/STM32H5xx_HAL_Driver/Src/stm32h5xx_ll_usb.c ****     USB_WritePMA(USBx, hc->xfer_buff, hc->pmaaddr0, (uint16_t)len);
 3986              		.loc 1 1329 5 view .LVU1248
 3987 0032 93B2     		uxth	r3, r2
 3988 0034 CA8C     		ldrh	r2, [r1, #38]
 3989              	.LVL413:
 3990              		.loc 1 1329 5 is_stmt 0 view .LVU1249
 3991 0036 C968     		ldr	r1, [r1, #12]
 3992              	.LVL414:
 3993              		.loc 1 1329 5 view .LVU1250
 3994 0038 FFF7FEFF 		bl	USB_WritePMA
 3995              	.LVL415:
 3996              	.L206:
1330:Drivers/STM32H5xx_HAL_Driver/Src/stm32h5xx_ll_usb.c ****   }
1331:Drivers/STM32H5xx_HAL_Driver/Src/stm32h5xx_ll_usb.c ****   else
1332:Drivers/STM32H5xx_HAL_Driver/Src/stm32h5xx_ll_usb.c ****   {
1333:Drivers/STM32H5xx_HAL_Driver/Src/stm32h5xx_ll_usb.c ****     /* DTOGTX=0 */
1334:Drivers/STM32H5xx_HAL_Driver/Src/stm32h5xx_ll_usb.c ****     /* Set the Double buffer counter for pmabuffer0 */
1335:Drivers/STM32H5xx_HAL_Driver/Src/stm32h5xx_ll_usb.c ****     USB_DRD_SET_CHEP_DBUF1_CNT(USBx, phy_ch_num, 1U, len);
1336:Drivers/STM32H5xx_HAL_Driver/Src/stm32h5xx_ll_usb.c ****     USB_WritePMA(USBx, hc->xfer_buff, hc->pmaaddr1, (uint16_t)len);
1337:Drivers/STM32H5xx_HAL_Driver/Src/stm32h5xx_ll_usb.c ****   }
1338:Drivers/STM32H5xx_HAL_Driver/Src/stm32h5xx_ll_usb.c **** 
1339:Drivers/STM32H5xx_HAL_Driver/Src/stm32h5xx_ll_usb.c ****   return HAL_OK;
 3997              		.loc 1 1339 3 is_stmt 1 view .LVU1251
1340:Drivers/STM32H5xx_HAL_Driver/Src/stm32h5xx_ll_usb.c **** }
 3998              		.loc 1 1340 1 is_stmt 0 view .LVU1252
 3999 003c 0020     		movs	r0, #0
 4000 003e 08BD     		pop	{r3, pc}
 4001              	.LVL416:
 4002              	.L205:
1335:Drivers/STM32H5xx_HAL_Driver/Src/stm32h5xx_ll_usb.c ****     USB_WritePMA(USBx, hc->xfer_buff, hc->pmaaddr1, (uint16_t)len);
 4003              		.loc 1 1335 5 is_stmt 1 view .LVU1253
1335:Drivers/STM32H5xx_HAL_Driver/Src/stm32h5xx_ll_usb.c ****     USB_WritePMA(USBx, hc->xfer_buff, hc->pmaaddr1, (uint16_t)len);
 4004              		.loc 1 1335 5 view .LVU1254
1335:Drivers/STM32H5xx_HAL_Driver/Src/stm32h5xx_ll_usb.c ****     USB_WritePMA(USBx, hc->xfer_buff, hc->pmaaddr1, (uint16_t)len);
 4005              		.loc 1 1335 5 discriminator 2 view .LVU1255
1335:Drivers/STM32H5xx_HAL_Driver/Src/stm32h5xx_ll_usb.c ****     USB_WritePMA(USBx, hc->xfer_buff, hc->pmaaddr1, (uint16_t)len);
 4006              		.loc 1 1335 5 discriminator 16 view .LVU1256
 4007 0040 4FEACC0C 		lsl	ip, ip, #3
 4008              	.LVL417:
1335:Drivers/STM32H5xx_HAL_Driver/Src/stm32h5xx_ll_usb.c ****     USB_WritePMA(USBx, hc->xfer_buff, hc->pmaaddr1, (uint16_t)len);
 4009              		.loc 1 1335 5 is_stmt 0 discriminator 16 view .LVU1257
 4010 0044 0CF1804C 		add	ip, ip, #1073741824
 4011 0048 0CF5B23C 		add	ip, ip, #91136
 4012 004c DCF80430 		ldr	r3, [ip, #4]
 4013 0050 9BB2     		uxth	r3, r3
 4014 0052 CCF80430 		str	r3, [ip, #4]
 4015              	.LVL418:
ARM GAS  C:\Users\sapph\AppData\Local\Temp\cchEHrSS.s 			page 107


1335:Drivers/STM32H5xx_HAL_Driver/Src/stm32h5xx_ll_usb.c ****     USB_WritePMA(USBx, hc->xfer_buff, hc->pmaaddr1, (uint16_t)len);
 4016              		.loc 1 1335 5 is_stmt 1 discriminator 16 view .LVU1258
 4017 0056 DCF80430 		ldr	r3, [ip, #4]
 4018 005a 43EA0243 		orr	r3, r3, r2, lsl #16
 4019 005e CCF80430 		str	r3, [ip, #4]
1335:Drivers/STM32H5xx_HAL_Driver/Src/stm32h5xx_ll_usb.c ****     USB_WritePMA(USBx, hc->xfer_buff, hc->pmaaddr1, (uint16_t)len);
 4020              		.loc 1 1335 5 discriminator 18 view .LVU1259
1336:Drivers/STM32H5xx_HAL_Driver/Src/stm32h5xx_ll_usb.c ****   }
 4021              		.loc 1 1336 5 view .LVU1260
 4022 0062 93B2     		uxth	r3, r2
 4023 0064 0A8D     		ldrh	r2, [r1, #40]
 4024              	.LVL419:
1336:Drivers/STM32H5xx_HAL_Driver/Src/stm32h5xx_ll_usb.c ****   }
 4025              		.loc 1 1336 5 is_stmt 0 view .LVU1261
 4026 0066 C968     		ldr	r1, [r1, #12]
 4027              	.LVL420:
1336:Drivers/STM32H5xx_HAL_Driver/Src/stm32h5xx_ll_usb.c ****   }
 4028              		.loc 1 1336 5 view .LVU1262
 4029 0068 FFF7FEFF 		bl	USB_WritePMA
 4030              	.LVL421:
1336:Drivers/STM32H5xx_HAL_Driver/Src/stm32h5xx_ll_usb.c ****   }
 4031              		.loc 1 1336 5 view .LVU1263
 4032 006c E6E7     		b	.L206
 4033              		.cfi_endproc
 4034              	.LFE190:
 4036              		.section	.text.USB_ReadPMA,"ax",%progbits
 4037              		.align	1
 4038              		.global	USB_ReadPMA
 4039              		.syntax unified
 4040              		.thumb
 4041              		.thumb_func
 4043              	USB_ReadPMA:
 4044              	.LVL422:
 4045              	.LFB182:
 932:Drivers/STM32H5xx_HAL_Driver/Src/stm32h5xx_ll_usb.c ****   UNUSED(USBx);
 4046              		.loc 1 932 1 is_stmt 1 view -0
 4047              		.cfi_startproc
 4048              		@ args = 0, pretend = 0, frame = 0
 4049              		@ frame_needed = 0, uses_anonymous_args = 0
 4050              		@ link register save eliminated.
 932:Drivers/STM32H5xx_HAL_Driver/Src/stm32h5xx_ll_usb.c ****   UNUSED(USBx);
 4051              		.loc 1 932 1 is_stmt 0 view .LVU1265
 4052 0000 10B4     		push	{r4}
 4053              		.cfi_def_cfa_offset 4
 4054              		.cfi_offset 4, -4
 933:Drivers/STM32H5xx_HAL_Driver/Src/stm32h5xx_ll_usb.c ****   uint32_t count;
 4055              		.loc 1 933 3 is_stmt 1 view .LVU1266
 934:Drivers/STM32H5xx_HAL_Driver/Src/stm32h5xx_ll_usb.c ****   uint32_t RdVal;
 4056              		.loc 1 934 3 view .LVU1267
 935:Drivers/STM32H5xx_HAL_Driver/Src/stm32h5xx_ll_usb.c ****   __IO uint32_t *pdwVal;
 4057              		.loc 1 935 3 view .LVU1268
 936:Drivers/STM32H5xx_HAL_Driver/Src/stm32h5xx_ll_usb.c ****   uint32_t NbWords = ((uint32_t)wNBytes + 3U) >> 2U;
 4058              		.loc 1 936 3 view .LVU1269
 937:Drivers/STM32H5xx_HAL_Driver/Src/stm32h5xx_ll_usb.c ****   /*Due to the PMA access 32bit only so the last non word data should be processed alone */
 4059              		.loc 1 937 3 view .LVU1270
 937:Drivers/STM32H5xx_HAL_Driver/Src/stm32h5xx_ll_usb.c ****   /*Due to the PMA access 32bit only so the last non word data should be processed alone */
 4060              		.loc 1 937 41 is_stmt 0 view .LVU1271
ARM GAS  C:\Users\sapph\AppData\Local\Temp\cchEHrSS.s 			page 108


 4061 0002 D81C     		adds	r0, r3, #3
 4062              	.LVL423:
 937:Drivers/STM32H5xx_HAL_Driver/Src/stm32h5xx_ll_usb.c ****   /*Due to the PMA access 32bit only so the last non word data should be processed alone */
 4063              		.loc 1 937 12 view .LVU1272
 4064 0004 8008     		lsrs	r0, r0, #2
 4065              	.LVL424:
 939:Drivers/STM32H5xx_HAL_Driver/Src/stm32h5xx_ll_usb.c ****   uint8_t *pBuf = pbUsrBuf;
 4066              		.loc 1 939 3 is_stmt 1 view .LVU1273
 940:Drivers/STM32H5xx_HAL_Driver/Src/stm32h5xx_ll_usb.c **** 
 4067              		.loc 1 940 3 view .LVU1274
 943:Drivers/STM32H5xx_HAL_Driver/Src/stm32h5xx_ll_usb.c **** 
 4068              		.loc 1 943 3 view .LVU1275
 943:Drivers/STM32H5xx_HAL_Driver/Src/stm32h5xx_ll_usb.c **** 
 4069              		.loc 1 943 46 is_stmt 0 view .LVU1276
 4070 0006 02F18042 		add	r2, r2, #1073741824
 4071              	.LVL425:
 943:Drivers/STM32H5xx_HAL_Driver/Src/stm32h5xx_ll_usb.c **** 
 4072              		.loc 1 943 46 view .LVU1277
 4073 000a 02F5B232 		add	r2, r2, #91136
 4074              	.LVL426:
 946:Drivers/STM32H5xx_HAL_Driver/Src/stm32h5xx_ll_usb.c ****   {
 4075              		.loc 1 946 3 is_stmt 1 view .LVU1278
 946:Drivers/STM32H5xx_HAL_Driver/Src/stm32h5xx_ll_usb.c ****   {
 4076              		.loc 1 946 6 is_stmt 0 view .LVU1279
 4077 000e 13F00303 		ands	r3, r3, #3
 4078              	.LVL427:
 946:Drivers/STM32H5xx_HAL_Driver/Src/stm32h5xx_ll_usb.c ****   {
 4079              		.loc 1 946 6 view .LVU1280
 4080 0012 06D0     		beq	.L210
 948:Drivers/STM32H5xx_HAL_Driver/Src/stm32h5xx_ll_usb.c ****   }
 4081              		.loc 1 948 5 is_stmt 1 view .LVU1281
 948:Drivers/STM32H5xx_HAL_Driver/Src/stm32h5xx_ll_usb.c ****   }
 4082              		.loc 1 948 12 is_stmt 0 view .LVU1282
 4083 0014 0138     		subs	r0, r0, #1
 4084              	.LVL428:
 948:Drivers/STM32H5xx_HAL_Driver/Src/stm32h5xx_ll_usb.c ****   }
 4085              		.loc 1 948 12 view .LVU1283
 4086 0016 04E0     		b	.L210
 4087              	.LVL429:
 4088              	.L211:
 954:Drivers/STM32H5xx_HAL_Driver/Src/stm32h5xx_ll_usb.c **** 
 4089              		.loc 1 954 5 is_stmt 1 view .LVU1284
 4090 0018 52F8044B 		ldr	r4, [r2], #4
 4091              	.LVL430:
 954:Drivers/STM32H5xx_HAL_Driver/Src/stm32h5xx_ll_usb.c **** 
 4092              		.loc 1 954 5 is_stmt 0 view .LVU1285
 4093 001c 41F8044B 		str	r4, [r1], #4	@ unaligned
 4094              	.LVL431:
 956:Drivers/STM32H5xx_HAL_Driver/Src/stm32h5xx_ll_usb.c ****     pBuf++;
 4095              		.loc 1 956 5 is_stmt 1 view .LVU1286
 957:Drivers/STM32H5xx_HAL_Driver/Src/stm32h5xx_ll_usb.c ****     pBuf++;
 4096              		.loc 1 957 5 view .LVU1287
 958:Drivers/STM32H5xx_HAL_Driver/Src/stm32h5xx_ll_usb.c ****     pBuf++;
 4097              		.loc 1 958 5 view .LVU1288
 959:Drivers/STM32H5xx_HAL_Driver/Src/stm32h5xx_ll_usb.c ****     pBuf++;
 4098              		.loc 1 959 5 view .LVU1289
 960:Drivers/STM32H5xx_HAL_Driver/Src/stm32h5xx_ll_usb.c ****   }
ARM GAS  C:\Users\sapph\AppData\Local\Temp\cchEHrSS.s 			page 109


 4099              		.loc 1 960 5 view .LVU1290
 952:Drivers/STM32H5xx_HAL_Driver/Src/stm32h5xx_ll_usb.c ****   {
 4100              		.loc 1 952 43 discriminator 3 view .LVU1291
 4101 0020 0138     		subs	r0, r0, #1
 4102              	.LVL432:
 4103              	.L210:
 952:Drivers/STM32H5xx_HAL_Driver/Src/stm32h5xx_ll_usb.c ****   {
 4104              		.loc 1 952 31 discriminator 1 view .LVU1292
 4105 0022 0028     		cmp	r0, #0
 4106 0024 F8D1     		bne	.L211
 964:Drivers/STM32H5xx_HAL_Driver/Src/stm32h5xx_ll_usb.c ****   {
 4107              		.loc 1 964 3 view .LVU1293
 964:Drivers/STM32H5xx_HAL_Driver/Src/stm32h5xx_ll_usb.c ****   {
 4108              		.loc 1 964 6 is_stmt 0 view .LVU1294
 4109 0026 5BB1     		cbz	r3, .L208
 966:Drivers/STM32H5xx_HAL_Driver/Src/stm32h5xx_ll_usb.c **** 
 4110              		.loc 1 966 5 is_stmt 1 view .LVU1295
 966:Drivers/STM32H5xx_HAL_Driver/Src/stm32h5xx_ll_usb.c **** 
 4111              		.loc 1 966 11 is_stmt 0 view .LVU1296
 4112 0028 1468     		ldr	r4, [r2]
 4113              	.LVL433:
 4114              	.L213:
 968:Drivers/STM32H5xx_HAL_Driver/Src/stm32h5xx_ll_usb.c ****     {
 4115              		.loc 1 968 5 is_stmt 1 view .LVU1297
 970:Drivers/STM32H5xx_HAL_Driver/Src/stm32h5xx_ll_usb.c ****       count++;
 4116              		.loc 1 970 7 view .LVU1298
 970:Drivers/STM32H5xx_HAL_Driver/Src/stm32h5xx_ll_usb.c ****       count++;
 4117              		.loc 1 970 49 is_stmt 0 view .LVU1299
 4118 002a C2B2     		uxtb	r2, r0
 4119 002c D200     		lsls	r2, r2, #3
 970:Drivers/STM32H5xx_HAL_Driver/Src/stm32h5xx_ll_usb.c ****       count++;
 4120              		.loc 1 970 42 view .LVU1300
 4121 002e 24FA02F2 		lsr	r2, r4, r2
 970:Drivers/STM32H5xx_HAL_Driver/Src/stm32h5xx_ll_usb.c ****       count++;
 4122              		.loc 1 970 24 view .LVU1301
 4123 0032 01F8012B 		strb	r2, [r1], #1
 4124              	.LVL434:
 971:Drivers/STM32H5xx_HAL_Driver/Src/stm32h5xx_ll_usb.c ****       pBuf++;
 4125              		.loc 1 971 7 is_stmt 1 view .LVU1302
 971:Drivers/STM32H5xx_HAL_Driver/Src/stm32h5xx_ll_usb.c ****       pBuf++;
 4126              		.loc 1 971 12 is_stmt 0 view .LVU1303
 4127 0036 0130     		adds	r0, r0, #1
 4128              	.LVL435:
 972:Drivers/STM32H5xx_HAL_Driver/Src/stm32h5xx_ll_usb.c ****       remaining_bytes--;
 4129              		.loc 1 972 7 is_stmt 1 view .LVU1304
 973:Drivers/STM32H5xx_HAL_Driver/Src/stm32h5xx_ll_usb.c ****     } while (remaining_bytes != 0U);
 4130              		.loc 1 973 7 view .LVU1305
 973:Drivers/STM32H5xx_HAL_Driver/Src/stm32h5xx_ll_usb.c ****     } while (remaining_bytes != 0U);
 4131              		.loc 1 973 22 is_stmt 0 view .LVU1306
 4132 0038 013B     		subs	r3, r3, #1
 4133              	.LVL436:
 973:Drivers/STM32H5xx_HAL_Driver/Src/stm32h5xx_ll_usb.c ****     } while (remaining_bytes != 0U);
 4134              		.loc 1 973 22 view .LVU1307
 4135 003a 9BB2     		uxth	r3, r3
 4136              	.LVL437:
 974:Drivers/STM32H5xx_HAL_Driver/Src/stm32h5xx_ll_usb.c ****   }
 4137              		.loc 1 974 30 is_stmt 1 discriminator 1 view .LVU1308
ARM GAS  C:\Users\sapph\AppData\Local\Temp\cchEHrSS.s 			page 110


 4138 003c 002B     		cmp	r3, #0
 4139 003e F4D1     		bne	.L213
 4140              	.LVL438:
 4141              	.L208:
 976:Drivers/STM32H5xx_HAL_Driver/Src/stm32h5xx_ll_usb.c **** 
 4142              		.loc 1 976 1 is_stmt 0 view .LVU1309
 4143 0040 5DF8044B 		ldr	r4, [sp], #4
 4144              		.cfi_restore 4
 4145              		.cfi_def_cfa_offset 0
 4146 0044 7047     		bx	lr
 4147              		.cfi_endproc
 4148              	.LFE182:
 4150              		.section	.text.USB_HostInit,"ax",%progbits
 4151              		.align	1
 4152              		.global	USB_HostInit
 4153              		.syntax unified
 4154              		.thumb
 4155              		.thumb_func
 4157              	USB_HostInit:
 4158              	.LVL439:
 4159              	.LFB183:
 992:Drivers/STM32H5xx_HAL_Driver/Src/stm32h5xx_ll_usb.c ****   UNUSED(cfg);
 4160              		.loc 1 992 1 is_stmt 1 view -0
 4161              		.cfi_startproc
 4162              		@ args = 20, pretend = 16, frame = 0
 4163              		@ frame_needed = 0, uses_anonymous_args = 0
 4164              		@ link register save eliminated.
 992:Drivers/STM32H5xx_HAL_Driver/Src/stm32h5xx_ll_usb.c ****   UNUSED(cfg);
 4165              		.loc 1 992 1 is_stmt 0 view .LVU1311
 4166 0000 84B0     		sub	sp, sp, #16
 4167              		.cfi_def_cfa_offset 16
 4168 0002 8446     		mov	ip, r0
 4169 0004 01A8     		add	r0, sp, #4
 4170              	.LVL440:
 992:Drivers/STM32H5xx_HAL_Driver/Src/stm32h5xx_ll_usb.c ****   UNUSED(cfg);
 4171              		.loc 1 992 1 view .LVU1312
 4172 0006 80E80E00 		stm	r0, {r1, r2, r3}
 993:Drivers/STM32H5xx_HAL_Driver/Src/stm32h5xx_ll_usb.c **** 
 4173              		.loc 1 993 3 is_stmt 1 view .LVU1313
 996:Drivers/STM32H5xx_HAL_Driver/Src/stm32h5xx_ll_usb.c **** 
 4174              		.loc 1 996 3 view .LVU1314
 996:Drivers/STM32H5xx_HAL_Driver/Src/stm32h5xx_ll_usb.c **** 
 4175              		.loc 1 996 14 is_stmt 0 view .LVU1315
 4176 000a 0020     		movs	r0, #0
 4177 000c CCF84400 		str	r0, [ip, #68]
 999:Drivers/STM32H5xx_HAL_Driver/Src/stm32h5xx_ll_usb.c ****                   USB_CNTR_WKUPM | USB_CNTR_SUSPM | USB_CNTR_DCON |
 4178              		.loc 1 999 3 is_stmt 1 view .LVU1316
 999:Drivers/STM32H5xx_HAL_Driver/Src/stm32h5xx_ll_usb.c ****                   USB_CNTR_WKUPM | USB_CNTR_SUSPM | USB_CNTR_DCON |
 4179              		.loc 1 999 7 is_stmt 0 view .LVU1317
 4180 0010 DCF84030 		ldr	r3, [ip, #64]
 999:Drivers/STM32H5xx_HAL_Driver/Src/stm32h5xx_ll_usb.c ****                   USB_CNTR_WKUPM | USB_CNTR_SUSPM | USB_CNTR_DCON |
 4181              		.loc 1 999 14 view .LVU1318
 4182 0014 6FF3CF13 		bfc	r3, #7, #9
 4183 0018 CCF84030 		str	r3, [ip, #64]
1004:Drivers/STM32H5xx_HAL_Driver/Src/stm32h5xx_ll_usb.c **** 
 4184              		.loc 1 1004 3 is_stmt 1 view .LVU1319
1004:Drivers/STM32H5xx_HAL_Driver/Src/stm32h5xx_ll_usb.c **** 
ARM GAS  C:\Users\sapph\AppData\Local\Temp\cchEHrSS.s 			page 111


 4185              		.loc 1 1004 14 is_stmt 0 view .LVU1320
 4186 001c CCF84400 		str	r0, [ip, #68]
1007:Drivers/STM32H5xx_HAL_Driver/Src/stm32h5xx_ll_usb.c **** 
 4187              		.loc 1 1007 3 is_stmt 1 view .LVU1321
1007:Drivers/STM32H5xx_HAL_Driver/Src/stm32h5xx_ll_usb.c **** 
 4188              		.loc 1 1007 7 is_stmt 0 view .LVU1322
 4189 0020 DCF85830 		ldr	r3, [ip, #88]
1007:Drivers/STM32H5xx_HAL_Driver/Src/stm32h5xx_ll_usb.c **** 
 4190              		.loc 1 1007 14 view .LVU1323
 4191 0024 43F40043 		orr	r3, r3, #32768
 4192 0028 CCF85830 		str	r3, [ip, #88]
1010:Drivers/STM32H5xx_HAL_Driver/Src/stm32h5xx_ll_usb.c ****                  USB_CNTR_WKUPM | USB_CNTR_SUSPM | USB_CNTR_DCON |
 4193              		.loc 1 1010 3 is_stmt 1 view .LVU1324
1010:Drivers/STM32H5xx_HAL_Driver/Src/stm32h5xx_ll_usb.c ****                  USB_CNTR_WKUPM | USB_CNTR_SUSPM | USB_CNTR_DCON |
 4194              		.loc 1 1010 7 is_stmt 0 view .LVU1325
 4195 002c DCF84030 		ldr	r3, [ip, #64]
1010:Drivers/STM32H5xx_HAL_Driver/Src/stm32h5xx_ll_usb.c ****                  USB_CNTR_WKUPM | USB_CNTR_SUSPM | USB_CNTR_DCON |
 4196              		.loc 1 1010 14 view .LVU1326
 4197 0030 43F47F43 		orr	r3, r3, #65280
 4198 0034 43F08003 		orr	r3, r3, #128
 4199 0038 CCF84030 		str	r3, [ip, #64]
1014:Drivers/STM32H5xx_HAL_Driver/Src/stm32h5xx_ll_usb.c **** }
 4200              		.loc 1 1014 3 is_stmt 1 view .LVU1327
1015:Drivers/STM32H5xx_HAL_Driver/Src/stm32h5xx_ll_usb.c **** 
 4201              		.loc 1 1015 1 is_stmt 0 view .LVU1328
 4202 003c 04B0     		add	sp, sp, #16
 4203              		.cfi_def_cfa_offset 0
 4204 003e 7047     		bx	lr
 4205              		.cfi_endproc
 4206              	.LFE183:
 4208              		.section	.text.USB_ResetPort,"ax",%progbits
 4209              		.align	1
 4210              		.global	USB_ResetPort
 4211              		.syntax unified
 4212              		.thumb
 4213              		.thumb_func
 4215              	USB_ResetPort:
 4216              	.LVL441:
 4217              	.LFB184:
1026:Drivers/STM32H5xx_HAL_Driver/Src/stm32h5xx_ll_usb.c ****   /* Force USB Reset */
 4218              		.loc 1 1026 1 is_stmt 1 view -0
 4219              		.cfi_startproc
 4220              		@ args = 0, pretend = 0, frame = 0
 4221              		@ frame_needed = 0, uses_anonymous_args = 0
1026:Drivers/STM32H5xx_HAL_Driver/Src/stm32h5xx_ll_usb.c ****   /* Force USB Reset */
 4222              		.loc 1 1026 1 is_stmt 0 view .LVU1330
 4223 0000 10B5     		push	{r4, lr}
 4224              		.cfi_def_cfa_offset 8
 4225              		.cfi_offset 4, -8
 4226              		.cfi_offset 14, -4
 4227 0002 0446     		mov	r4, r0
1028:Drivers/STM32H5xx_HAL_Driver/Src/stm32h5xx_ll_usb.c ****   HAL_Delay(100);
 4228              		.loc 1 1028 3 is_stmt 1 view .LVU1331
1028:Drivers/STM32H5xx_HAL_Driver/Src/stm32h5xx_ll_usb.c ****   HAL_Delay(100);
 4229              		.loc 1 1028 7 is_stmt 0 view .LVU1332
 4230 0004 036C     		ldr	r3, [r0, #64]
1028:Drivers/STM32H5xx_HAL_Driver/Src/stm32h5xx_ll_usb.c ****   HAL_Delay(100);
ARM GAS  C:\Users\sapph\AppData\Local\Temp\cchEHrSS.s 			page 112


 4231              		.loc 1 1028 14 view .LVU1333
 4232 0006 43F00103 		orr	r3, r3, #1
 4233 000a 0364     		str	r3, [r0, #64]
1029:Drivers/STM32H5xx_HAL_Driver/Src/stm32h5xx_ll_usb.c ****   /* Release USB Reset */
 4234              		.loc 1 1029 3 is_stmt 1 view .LVU1334
 4235 000c 6420     		movs	r0, #100
 4236              	.LVL442:
1029:Drivers/STM32H5xx_HAL_Driver/Src/stm32h5xx_ll_usb.c ****   /* Release USB Reset */
 4237              		.loc 1 1029 3 is_stmt 0 view .LVU1335
 4238 000e FFF7FEFF 		bl	HAL_Delay
 4239              	.LVL443:
1031:Drivers/STM32H5xx_HAL_Driver/Src/stm32h5xx_ll_usb.c ****   HAL_Delay(30);
 4240              		.loc 1 1031 3 is_stmt 1 view .LVU1336
1031:Drivers/STM32H5xx_HAL_Driver/Src/stm32h5xx_ll_usb.c ****   HAL_Delay(30);
 4241              		.loc 1 1031 7 is_stmt 0 view .LVU1337
 4242 0012 236C     		ldr	r3, [r4, #64]
1031:Drivers/STM32H5xx_HAL_Driver/Src/stm32h5xx_ll_usb.c ****   HAL_Delay(30);
 4243              		.loc 1 1031 14 view .LVU1338
 4244 0014 23F00103 		bic	r3, r3, #1
 4245 0018 2364     		str	r3, [r4, #64]
1032:Drivers/STM32H5xx_HAL_Driver/Src/stm32h5xx_ll_usb.c **** 
 4246              		.loc 1 1032 3 is_stmt 1 view .LVU1339
 4247 001a 1E20     		movs	r0, #30
 4248 001c FFF7FEFF 		bl	HAL_Delay
 4249              	.LVL444:
1034:Drivers/STM32H5xx_HAL_Driver/Src/stm32h5xx_ll_usb.c **** }
 4250              		.loc 1 1034 3 view .LVU1340
1035:Drivers/STM32H5xx_HAL_Driver/Src/stm32h5xx_ll_usb.c **** 
 4251              		.loc 1 1035 1 is_stmt 0 view .LVU1341
 4252 0020 0020     		movs	r0, #0
 4253 0022 10BD     		pop	{r4, pc}
1035:Drivers/STM32H5xx_HAL_Driver/Src/stm32h5xx_ll_usb.c **** 
 4254              		.loc 1 1035 1 view .LVU1342
 4255              		.cfi_endproc
 4256              	.LFE184:
 4258              		.section	.text.USB_GetHostSpeed,"ax",%progbits
 4259              		.align	1
 4260              		.global	USB_GetHostSpeed
 4261              		.syntax unified
 4262              		.thumb
 4263              		.thumb_func
 4265              	USB_GetHostSpeed:
 4266              	.LVL445:
 4267              	.LFB185:
1046:Drivers/STM32H5xx_HAL_Driver/Src/stm32h5xx_ll_usb.c ****   if ((USBx->ISTR & USB_ISTR_LS_DCONN) != 0U)
 4268              		.loc 1 1046 1 is_stmt 1 view -0
 4269              		.cfi_startproc
 4270              		@ args = 0, pretend = 0, frame = 0
 4271              		@ frame_needed = 0, uses_anonymous_args = 0
 4272              		@ link register save eliminated.
1047:Drivers/STM32H5xx_HAL_Driver/Src/stm32h5xx_ll_usb.c ****   {
 4273              		.loc 1 1047 3 view .LVU1344
1047:Drivers/STM32H5xx_HAL_Driver/Src/stm32h5xx_ll_usb.c ****   {
 4274              		.loc 1 1047 12 is_stmt 0 view .LVU1345
 4275 0000 436C     		ldr	r3, [r0, #68]
1047:Drivers/STM32H5xx_HAL_Driver/Src/stm32h5xx_ll_usb.c ****   {
 4276              		.loc 1 1047 6 view .LVU1346
ARM GAS  C:\Users\sapph\AppData\Local\Temp\cchEHrSS.s 			page 113


 4277 0002 13F0804F 		tst	r3, #1073741824
 4278 0006 01D1     		bne	.L222
1053:Drivers/STM32H5xx_HAL_Driver/Src/stm32h5xx_ll_usb.c ****   }
 4279              		.loc 1 1053 12 view .LVU1347
 4280 0008 0120     		movs	r0, #1
 4281              	.LVL446:
1055:Drivers/STM32H5xx_HAL_Driver/Src/stm32h5xx_ll_usb.c **** 
 4282              		.loc 1 1055 1 view .LVU1348
 4283 000a 7047     		bx	lr
 4284              	.LVL447:
 4285              	.L222:
1049:Drivers/STM32H5xx_HAL_Driver/Src/stm32h5xx_ll_usb.c ****   }
 4286              		.loc 1 1049 12 view .LVU1349
 4287 000c 0220     		movs	r0, #2
 4288              	.LVL448:
1049:Drivers/STM32H5xx_HAL_Driver/Src/stm32h5xx_ll_usb.c ****   }
 4289              		.loc 1 1049 12 view .LVU1350
 4290 000e 7047     		bx	lr
 4291              		.cfi_endproc
 4292              	.LFE185:
 4294              		.section	.text.USB_GetCurrentFrame,"ax",%progbits
 4295              		.align	1
 4296              		.global	USB_GetCurrentFrame
 4297              		.syntax unified
 4298              		.thumb
 4299              		.thumb_func
 4301              	USB_GetCurrentFrame:
 4302              	.LVL449:
 4303              	.LFB186:
1063:Drivers/STM32H5xx_HAL_Driver/Src/stm32h5xx_ll_usb.c ****   return USBx->FNR & 0x7FFU;
 4304              		.loc 1 1063 1 is_stmt 1 view -0
 4305              		.cfi_startproc
 4306              		@ args = 0, pretend = 0, frame = 0
 4307              		@ frame_needed = 0, uses_anonymous_args = 0
 4308              		@ link register save eliminated.
1064:Drivers/STM32H5xx_HAL_Driver/Src/stm32h5xx_ll_usb.c **** }
 4309              		.loc 1 1064 3 view .LVU1352
1064:Drivers/STM32H5xx_HAL_Driver/Src/stm32h5xx_ll_usb.c **** }
 4310              		.loc 1 1064 14 is_stmt 0 view .LVU1353
 4311 0000 806C     		ldr	r0, [r0, #72]
 4312              	.LVL450:
1065:Drivers/STM32H5xx_HAL_Driver/Src/stm32h5xx_ll_usb.c **** 
 4313              		.loc 1 1065 1 view .LVU1354
 4314 0002 C0F30A00 		ubfx	r0, r0, #0, #11
 4315 0006 7047     		bx	lr
 4316              		.cfi_endproc
 4317              	.LFE186:
 4319              		.section	.text.USB_HC_DoubleBuffer,"ax",%progbits
 4320              		.align	1
 4321              		.global	USB_HC_DoubleBuffer
 4322              		.syntax unified
 4323              		.thumb
 4324              		.thumb_func
 4326              	USB_HC_DoubleBuffer:
 4327              	.LVL451:
 4328              	.LFB187:
1076:Drivers/STM32H5xx_HAL_Driver/Src/stm32h5xx_ll_usb.c ****   uint32_t tmp;
ARM GAS  C:\Users\sapph\AppData\Local\Temp\cchEHrSS.s 			page 114


 4329              		.loc 1 1076 1 is_stmt 1 view -0
 4330              		.cfi_startproc
 4331              		@ args = 0, pretend = 0, frame = 0
 4332              		@ frame_needed = 0, uses_anonymous_args = 0
 4333              		@ link register save eliminated.
1077:Drivers/STM32H5xx_HAL_Driver/Src/stm32h5xx_ll_usb.c **** 
 4334              		.loc 1 1077 3 view .LVU1356
1079:Drivers/STM32H5xx_HAL_Driver/Src/stm32h5xx_ll_usb.c ****   {
 4335              		.loc 1 1079 3 view .LVU1357
1079:Drivers/STM32H5xx_HAL_Driver/Src/stm32h5xx_ll_usb.c ****   {
 4336              		.loc 1 1079 6 is_stmt 0 view .LVU1358
 4337 0000 012A     		cmp	r2, #1
 4338 0002 08D0     		beq	.L225
1079:Drivers/STM32H5xx_HAL_Driver/Src/stm32h5xx_ll_usb.c ****   {
 4339              		.loc 1 1079 47 discriminator 1 view .LVU1359
 4340 0004 042A     		cmp	r2, #4
 4341 0006 06D0     		beq	.L225
1085:Drivers/STM32H5xx_HAL_Driver/Src/stm32h5xx_ll_usb.c ****   }
 4342              		.loc 1 1085 5 is_stmt 1 view .LVU1360
1085:Drivers/STM32H5xx_HAL_Driver/Src/stm32h5xx_ll_usb.c ****   }
 4343              		.loc 1 1085 11 is_stmt 0 view .LVU1361
 4344 0008 50F82130 		ldr	r3, [r0, r1, lsl #2]
1085:Drivers/STM32H5xx_HAL_Driver/Src/stm32h5xx_ll_usb.c ****   }
 4345              		.loc 1 1085 9 view .LVU1362
 4346 000c 23F47143 		bic	r3, r3, #61696
 4347 0010 23F0F003 		bic	r3, r3, #240
 4348              	.LVL452:
1085:Drivers/STM32H5xx_HAL_Driver/Src/stm32h5xx_ll_usb.c ****   }
 4349              		.loc 1 1085 9 view .LVU1363
 4350 0014 07E0     		b	.L227
 4351              	.LVL453:
 4352              	.L225:
1081:Drivers/STM32H5xx_HAL_Driver/Src/stm32h5xx_ll_usb.c ****   }
 4353              		.loc 1 1081 5 is_stmt 1 view .LVU1364
1081:Drivers/STM32H5xx_HAL_Driver/Src/stm32h5xx_ll_usb.c ****   }
 4354              		.loc 1 1081 12 is_stmt 0 view .LVU1365
 4355 0016 50F82130 		ldr	r3, [r0, r1, lsl #2]
1081:Drivers/STM32H5xx_HAL_Driver/Src/stm32h5xx_ll_usb.c ****   }
 4356              		.loc 1 1081 62 view .LVU1366
 4357 001a 23F47143 		bic	r3, r3, #61696
 4358 001e 23F0F003 		bic	r3, r3, #240
1081:Drivers/STM32H5xx_HAL_Driver/Src/stm32h5xx_ll_usb.c ****   }
 4359              		.loc 1 1081 9 view .LVU1367
 4360 0022 43F48073 		orr	r3, r3, #256
 4361              	.LVL454:
 4362              	.L227:
1089:Drivers/STM32H5xx_HAL_Driver/Src/stm32h5xx_ll_usb.c **** 
 4363              		.loc 1 1089 3 is_stmt 1 view .LVU1368
 4364 0026 40F82130 		str	r3, [r0, r1, lsl #2]
1091:Drivers/STM32H5xx_HAL_Driver/Src/stm32h5xx_ll_usb.c **** }
 4365              		.loc 1 1091 3 view .LVU1369
1092:Drivers/STM32H5xx_HAL_Driver/Src/stm32h5xx_ll_usb.c **** 
 4366              		.loc 1 1092 1 is_stmt 0 view .LVU1370
 4367 002a 0020     		movs	r0, #0
 4368              	.LVL455:
1092:Drivers/STM32H5xx_HAL_Driver/Src/stm32h5xx_ll_usb.c **** 
 4369              		.loc 1 1092 1 view .LVU1371
ARM GAS  C:\Users\sapph\AppData\Local\Temp\cchEHrSS.s 			page 115


 4370 002c 7047     		bx	lr
 4371              		.cfi_endproc
 4372              	.LFE187:
 4374              		.section	.text.USB_HC_BULK_DB_StartXfer,"ax",%progbits
 4375              		.align	1
 4376              		.syntax unified
 4377              		.thumb
 4378              		.thumb_func
 4380              	USB_HC_BULK_DB_StartXfer:
 4381              	.LVL456:
 4382              	.LFB191:
1341:Drivers/STM32H5xx_HAL_Driver/Src/stm32h5xx_ll_usb.c **** 
1342:Drivers/STM32H5xx_HAL_Driver/Src/stm32h5xx_ll_usb.c **** /**
1343:Drivers/STM32H5xx_HAL_Driver/Src/stm32h5xx_ll_usb.c ****   * @brief  Start Transfer of Channel bulk out double buffer
1344:Drivers/STM32H5xx_HAL_Driver/Src/stm32h5xx_ll_usb.c ****   * @param  USBx Selected device
1345:Drivers/STM32H5xx_HAL_Driver/Src/stm32h5xx_ll_usb.c ****   * @param  hc_num Host Channel number
1346:Drivers/STM32H5xx_HAL_Driver/Src/stm32h5xx_ll_usb.c ****   *         This parameter can be a value from 1 to 15
1347:Drivers/STM32H5xx_HAL_Driver/Src/stm32h5xx_ll_usb.c ****   * @param  ch_reg snapshot of the CHEPR register
1348:Drivers/STM32H5xx_HAL_Driver/Src/stm32h5xx_ll_usb.c ****   * @param  len Transfer Length
1349:Drivers/STM32H5xx_HAL_Driver/Src/stm32h5xx_ll_usb.c ****   * @retval HAL state
1350:Drivers/STM32H5xx_HAL_Driver/Src/stm32h5xx_ll_usb.c ****   */
1351:Drivers/STM32H5xx_HAL_Driver/Src/stm32h5xx_ll_usb.c **** static HAL_StatusTypeDef USB_HC_BULK_DB_StartXfer(USB_DRD_TypeDef *USBx,
1352:Drivers/STM32H5xx_HAL_Driver/Src/stm32h5xx_ll_usb.c ****                                                   USB_DRD_HCTypeDef *hc,
1353:Drivers/STM32H5xx_HAL_Driver/Src/stm32h5xx_ll_usb.c ****                                                   uint32_t ch_reg,
1354:Drivers/STM32H5xx_HAL_Driver/Src/stm32h5xx_ll_usb.c ****                                                   uint32_t *len)
1355:Drivers/STM32H5xx_HAL_Driver/Src/stm32h5xx_ll_usb.c **** {
 4383              		.loc 1 1355 1 is_stmt 1 view -0
 4384              		.cfi_startproc
 4385              		@ args = 0, pretend = 0, frame = 0
 4386              		@ frame_needed = 0, uses_anonymous_args = 0
 4387              		.loc 1 1355 1 is_stmt 0 view .LVU1373
 4388 0000 2DE9F041 		push	{r4, r5, r6, r7, r8, lr}
 4389              		.cfi_def_cfa_offset 24
 4390              		.cfi_offset 4, -24
 4391              		.cfi_offset 5, -20
 4392              		.cfi_offset 6, -16
 4393              		.cfi_offset 7, -12
 4394              		.cfi_offset 8, -8
 4395              		.cfi_offset 14, -4
 4396 0004 8046     		mov	r8, r0
 4397 0006 0C46     		mov	r4, r1
 4398 0008 1646     		mov	r6, r2
 4399 000a 1F46     		mov	r7, r3
1356:Drivers/STM32H5xx_HAL_Driver/Src/stm32h5xx_ll_usb.c ****   uint32_t phy_ch_num = (uint32_t)hc->phy_ch_num;
 4400              		.loc 1 1356 3 is_stmt 1 view .LVU1374
 4401              		.loc 1 1356 37 is_stmt 0 view .LVU1375
 4402 000c 4D78     		ldrb	r5, [r1, #1]	@ zero_extendqisi2
 4403              	.LVL457:
1357:Drivers/STM32H5xx_HAL_Driver/Src/stm32h5xx_ll_usb.c **** 
1358:Drivers/STM32H5xx_HAL_Driver/Src/stm32h5xx_ll_usb.c ****   /* -Double Buffer Mangement- */
1359:Drivers/STM32H5xx_HAL_Driver/Src/stm32h5xx_ll_usb.c ****   if (hc->xfer_len_db > hc->max_packet)
 4404              		.loc 1 1359 3 is_stmt 1 view .LVU1376
 4405              		.loc 1 1359 9 is_stmt 0 view .LVU1377
 4406 000e 4A69     		ldr	r2, [r1, #20]
 4407              	.LVL458:
 4408              		.loc 1 1359 27 view .LVU1378
 4409 0010 0B89     		ldrh	r3, [r1, #8]
ARM GAS  C:\Users\sapph\AppData\Local\Temp\cchEHrSS.s 			page 116


 4410              	.LVL459:
 4411              		.loc 1 1359 6 view .LVU1379
 4412 0012 9A42     		cmp	r2, r3
 4413 0014 6AD9     		bls	.L229
1360:Drivers/STM32H5xx_HAL_Driver/Src/stm32h5xx_ll_usb.c ****   {
1361:Drivers/STM32H5xx_HAL_Driver/Src/stm32h5xx_ll_usb.c ****     /* enable double buffer mode */
1362:Drivers/STM32H5xx_HAL_Driver/Src/stm32h5xx_ll_usb.c ****     (void)USB_HC_DoubleBuffer(USBx, (uint8_t)phy_ch_num, USB_DRD_BULK_DBUFF_ENBALE);
 4414              		.loc 1 1362 5 is_stmt 1 view .LVU1380
 4415              		.loc 1 1362 11 is_stmt 0 view .LVU1381
 4416 0016 0122     		movs	r2, #1
 4417 0018 2946     		mov	r1, r5
 4418              	.LVL460:
 4419              		.loc 1 1362 11 view .LVU1382
 4420 001a FFF7FEFF 		bl	USB_HC_DoubleBuffer
 4421              	.LVL461:
1363:Drivers/STM32H5xx_HAL_Driver/Src/stm32h5xx_ll_usb.c ****     *len = hc->max_packet;
 4422              		.loc 1 1363 5 is_stmt 1 view .LVU1383
 4423              		.loc 1 1363 14 is_stmt 0 view .LVU1384
 4424 001e 2289     		ldrh	r2, [r4, #8]
 4425              		.loc 1 1363 10 view .LVU1385
 4426 0020 3A60     		str	r2, [r7]
1364:Drivers/STM32H5xx_HAL_Driver/Src/stm32h5xx_ll_usb.c ****     hc->xfer_len_db -= *len;
 4427              		.loc 1 1364 5 is_stmt 1 view .LVU1386
 4428              		.loc 1 1364 7 is_stmt 0 view .LVU1387
 4429 0022 6369     		ldr	r3, [r4, #20]
 4430              		.loc 1 1364 21 view .LVU1388
 4431 0024 9B1A     		subs	r3, r3, r2
 4432 0026 6361     		str	r3, [r4, #20]
1365:Drivers/STM32H5xx_HAL_Driver/Src/stm32h5xx_ll_usb.c **** 
1366:Drivers/STM32H5xx_HAL_Driver/Src/stm32h5xx_ll_usb.c ****     /* Prepare two buffer before enabling host */
1367:Drivers/STM32H5xx_HAL_Driver/Src/stm32h5xx_ll_usb.c ****     if ((ch_reg & USB_CH_DTOG_TX) == 0U)
 4433              		.loc 1 1367 5 is_stmt 1 view .LVU1389
 4434              		.loc 1 1367 8 is_stmt 0 view .LVU1390
 4435 0028 16F04006 		ands	r6, r6, #64
 4436              	.LVL462:
 4437              		.loc 1 1367 8 view .LVU1391
 4438 002c 32D1     		bne	.L230
1368:Drivers/STM32H5xx_HAL_Driver/Src/stm32h5xx_ll_usb.c ****     {
1369:Drivers/STM32H5xx_HAL_Driver/Src/stm32h5xx_ll_usb.c ****       /* Write Buffer0 */
1370:Drivers/STM32H5xx_HAL_Driver/Src/stm32h5xx_ll_usb.c ****       USB_DRD_SET_CHEP_DBUF0_CNT(USBx, phy_ch_num, 1U, (uint16_t)*len);
 4439              		.loc 1 1370 7 is_stmt 1 view .LVU1392
 4440              		.loc 1 1370 7 view .LVU1393
 4441              		.loc 1 1370 7 discriminator 2 view .LVU1394
 4442              		.loc 1 1370 7 discriminator 16 view .LVU1395
 4443              		.loc 1 1370 7 discriminator 16 view .LVU1396
 4444 002e EB00     		lsls	r3, r5, #3
 4445 0030 03F18043 		add	r3, r3, #1073741824
 4446 0034 03F5B233 		add	r3, r3, #91136
 4447 0038 1A68     		ldr	r2, [r3]
 4448 003a 92B2     		uxth	r2, r2
 4449 003c 1A60     		str	r2, [r3]
 4450              		.loc 1 1370 7 discriminator 16 view .LVU1397
 4451 003e 1A68     		ldr	r2, [r3]
 4452 0040 3988     		ldrh	r1, [r7]
 4453 0042 42EA0142 		orr	r2, r2, r1, lsl #16
 4454 0046 1A60     		str	r2, [r3]
 4455              		.loc 1 1370 7 discriminator 18 view .LVU1398
ARM GAS  C:\Users\sapph\AppData\Local\Temp\cchEHrSS.s 			page 117


 4456              		.loc 1 1370 7 discriminator 18 view .LVU1399
1371:Drivers/STM32H5xx_HAL_Driver/Src/stm32h5xx_ll_usb.c ****       USB_WritePMA(USBx, hc->xfer_buff, hc->pmaaddr0, (uint16_t)*len);
 4457              		.loc 1 1371 7 view .LVU1400
 4458 0048 3B88     		ldrh	r3, [r7]
 4459 004a E28C     		ldrh	r2, [r4, #38]
 4460 004c E168     		ldr	r1, [r4, #12]
 4461 004e 4046     		mov	r0, r8
 4462 0050 FFF7FEFF 		bl	USB_WritePMA
 4463              	.LVL463:
 4464              	.L231:
1372:Drivers/STM32H5xx_HAL_Driver/Src/stm32h5xx_ll_usb.c ****     }
1373:Drivers/STM32H5xx_HAL_Driver/Src/stm32h5xx_ll_usb.c ****     else
1374:Drivers/STM32H5xx_HAL_Driver/Src/stm32h5xx_ll_usb.c ****     {
1375:Drivers/STM32H5xx_HAL_Driver/Src/stm32h5xx_ll_usb.c ****       /* Write Buffer1 */
1376:Drivers/STM32H5xx_HAL_Driver/Src/stm32h5xx_ll_usb.c ****       USB_DRD_SET_CHEP_DBUF1_CNT(USBx, phy_ch_num, 1U, (uint16_t)*len);
1377:Drivers/STM32H5xx_HAL_Driver/Src/stm32h5xx_ll_usb.c ****       USB_WritePMA(USBx, hc->xfer_buff, hc->pmaaddr1, (uint16_t)*len);
1378:Drivers/STM32H5xx_HAL_Driver/Src/stm32h5xx_ll_usb.c ****     }
1379:Drivers/STM32H5xx_HAL_Driver/Src/stm32h5xx_ll_usb.c **** 
1380:Drivers/STM32H5xx_HAL_Driver/Src/stm32h5xx_ll_usb.c ****     hc->xfer_buff += *len;
 4465              		.loc 1 1380 5 view .LVU1401
 4466              		.loc 1 1380 7 is_stmt 0 view .LVU1402
 4467 0054 E368     		ldr	r3, [r4, #12]
 4468              		.loc 1 1380 22 view .LVU1403
 4469 0056 3A68     		ldr	r2, [r7]
 4470              		.loc 1 1380 19 view .LVU1404
 4471 0058 1344     		add	r3, r3, r2
 4472 005a E360     		str	r3, [r4, #12]
1381:Drivers/STM32H5xx_HAL_Driver/Src/stm32h5xx_ll_usb.c **** 
1382:Drivers/STM32H5xx_HAL_Driver/Src/stm32h5xx_ll_usb.c ****     /* Multi packet transfer */
1383:Drivers/STM32H5xx_HAL_Driver/Src/stm32h5xx_ll_usb.c ****     if (hc->xfer_len_db > hc->max_packet)
 4473              		.loc 1 1383 5 is_stmt 1 view .LVU1405
 4474              		.loc 1 1383 11 is_stmt 0 view .LVU1406
 4475 005c 6369     		ldr	r3, [r4, #20]
 4476              		.loc 1 1383 29 view .LVU1407
 4477 005e 2289     		ldrh	r2, [r4, #8]
 4478              		.loc 1 1383 8 view .LVU1408
 4479 0060 9342     		cmp	r3, r2
 4480 0062 2BD9     		bls	.L232
1384:Drivers/STM32H5xx_HAL_Driver/Src/stm32h5xx_ll_usb.c ****     {
1385:Drivers/STM32H5xx_HAL_Driver/Src/stm32h5xx_ll_usb.c ****       hc->xfer_len_db -= *len;
 4481              		.loc 1 1385 7 is_stmt 1 view .LVU1409
 4482              		.loc 1 1385 26 is_stmt 0 view .LVU1410
 4483 0064 3A68     		ldr	r2, [r7]
 4484              		.loc 1 1385 23 view .LVU1411
 4485 0066 9B1A     		subs	r3, r3, r2
 4486 0068 6361     		str	r3, [r4, #20]
 4487              	.L233:
1386:Drivers/STM32H5xx_HAL_Driver/Src/stm32h5xx_ll_usb.c ****     }
1387:Drivers/STM32H5xx_HAL_Driver/Src/stm32h5xx_ll_usb.c ****     else
1388:Drivers/STM32H5xx_HAL_Driver/Src/stm32h5xx_ll_usb.c ****     {
1389:Drivers/STM32H5xx_HAL_Driver/Src/stm32h5xx_ll_usb.c ****       *len = hc->xfer_len_db;
1390:Drivers/STM32H5xx_HAL_Driver/Src/stm32h5xx_ll_usb.c ****       hc->xfer_len_db = 0U;
1391:Drivers/STM32H5xx_HAL_Driver/Src/stm32h5xx_ll_usb.c ****     }
1392:Drivers/STM32H5xx_HAL_Driver/Src/stm32h5xx_ll_usb.c **** 
1393:Drivers/STM32H5xx_HAL_Driver/Src/stm32h5xx_ll_usb.c ****     if ((ch_reg & USB_CH_DTOG_TX) == 0U)
 4488              		.loc 1 1393 5 is_stmt 1 view .LVU1412
 4489              		.loc 1 1393 8 is_stmt 0 view .LVU1413
ARM GAS  C:\Users\sapph\AppData\Local\Temp\cchEHrSS.s 			page 118


 4490 006a 5EBB     		cbnz	r6, .L234
1394:Drivers/STM32H5xx_HAL_Driver/Src/stm32h5xx_ll_usb.c ****     {
1395:Drivers/STM32H5xx_HAL_Driver/Src/stm32h5xx_ll_usb.c ****       /* Write Buffer1 */
1396:Drivers/STM32H5xx_HAL_Driver/Src/stm32h5xx_ll_usb.c ****       USB_DRD_SET_CHEP_DBUF1_CNT(USBx, phy_ch_num, 1U, (uint16_t)*len);
 4491              		.loc 1 1396 7 is_stmt 1 view .LVU1414
 4492              		.loc 1 1396 7 view .LVU1415
 4493              		.loc 1 1396 7 discriminator 2 view .LVU1416
 4494              		.loc 1 1396 7 discriminator 16 view .LVU1417
 4495 006c ED00     		lsls	r5, r5, #3
 4496              	.LVL464:
 4497              		.loc 1 1396 7 is_stmt 0 discriminator 16 view .LVU1418
 4498 006e 05F18045 		add	r5, r5, #1073741824
 4499 0072 05F5B235 		add	r5, r5, #91136
 4500 0076 6B68     		ldr	r3, [r5, #4]
 4501 0078 9BB2     		uxth	r3, r3
 4502 007a 6B60     		str	r3, [r5, #4]
 4503              		.loc 1 1396 7 is_stmt 1 discriminator 16 view .LVU1419
 4504 007c 6B68     		ldr	r3, [r5, #4]
 4505 007e 3A88     		ldrh	r2, [r7]
 4506 0080 43EA0243 		orr	r3, r3, r2, lsl #16
 4507 0084 6B60     		str	r3, [r5, #4]
 4508              		.loc 1 1396 7 discriminator 18 view .LVU1420
1397:Drivers/STM32H5xx_HAL_Driver/Src/stm32h5xx_ll_usb.c ****       USB_WritePMA(USBx, hc->xfer_buff, hc->pmaaddr1, (uint16_t)*len);
 4509              		.loc 1 1397 7 view .LVU1421
 4510 0086 3B88     		ldrh	r3, [r7]
 4511 0088 228D     		ldrh	r2, [r4, #40]
 4512 008a E168     		ldr	r1, [r4, #12]
 4513 008c 4046     		mov	r0, r8
 4514 008e FFF7FEFF 		bl	USB_WritePMA
 4515              	.LVL465:
 4516 0092 42E0     		b	.L235
 4517              	.LVL466:
 4518              	.L230:
1376:Drivers/STM32H5xx_HAL_Driver/Src/stm32h5xx_ll_usb.c ****       USB_WritePMA(USBx, hc->xfer_buff, hc->pmaaddr1, (uint16_t)*len);
 4519              		.loc 1 1376 7 view .LVU1422
1376:Drivers/STM32H5xx_HAL_Driver/Src/stm32h5xx_ll_usb.c ****       USB_WritePMA(USBx, hc->xfer_buff, hc->pmaaddr1, (uint16_t)*len);
 4520              		.loc 1 1376 7 view .LVU1423
1376:Drivers/STM32H5xx_HAL_Driver/Src/stm32h5xx_ll_usb.c ****       USB_WritePMA(USBx, hc->xfer_buff, hc->pmaaddr1, (uint16_t)*len);
 4521              		.loc 1 1376 7 discriminator 2 view .LVU1424
1376:Drivers/STM32H5xx_HAL_Driver/Src/stm32h5xx_ll_usb.c ****       USB_WritePMA(USBx, hc->xfer_buff, hc->pmaaddr1, (uint16_t)*len);
 4522              		.loc 1 1376 7 discriminator 16 view .LVU1425
 4523 0094 EB00     		lsls	r3, r5, #3
 4524 0096 03F18043 		add	r3, r3, #1073741824
 4525 009a 03F5B233 		add	r3, r3, #91136
 4526 009e 5A68     		ldr	r2, [r3, #4]
 4527 00a0 92B2     		uxth	r2, r2
 4528 00a2 5A60     		str	r2, [r3, #4]
1376:Drivers/STM32H5xx_HAL_Driver/Src/stm32h5xx_ll_usb.c ****       USB_WritePMA(USBx, hc->xfer_buff, hc->pmaaddr1, (uint16_t)*len);
 4529              		.loc 1 1376 7 discriminator 16 view .LVU1426
 4530 00a4 5A68     		ldr	r2, [r3, #4]
 4531 00a6 3988     		ldrh	r1, [r7]
 4532 00a8 42EA0142 		orr	r2, r2, r1, lsl #16
 4533 00ac 5A60     		str	r2, [r3, #4]
1376:Drivers/STM32H5xx_HAL_Driver/Src/stm32h5xx_ll_usb.c ****       USB_WritePMA(USBx, hc->xfer_buff, hc->pmaaddr1, (uint16_t)*len);
 4534              		.loc 1 1376 7 discriminator 18 view .LVU1427
1377:Drivers/STM32H5xx_HAL_Driver/Src/stm32h5xx_ll_usb.c ****     }
 4535              		.loc 1 1377 7 view .LVU1428
ARM GAS  C:\Users\sapph\AppData\Local\Temp\cchEHrSS.s 			page 119


 4536 00ae 3B88     		ldrh	r3, [r7]
 4537 00b0 228D     		ldrh	r2, [r4, #40]
 4538 00b2 E168     		ldr	r1, [r4, #12]
 4539 00b4 4046     		mov	r0, r8
 4540 00b6 FFF7FEFF 		bl	USB_WritePMA
 4541              	.LVL467:
 4542 00ba CBE7     		b	.L231
 4543              	.L232:
1389:Drivers/STM32H5xx_HAL_Driver/Src/stm32h5xx_ll_usb.c ****       hc->xfer_len_db = 0U;
 4544              		.loc 1 1389 7 view .LVU1429
1389:Drivers/STM32H5xx_HAL_Driver/Src/stm32h5xx_ll_usb.c ****       hc->xfer_len_db = 0U;
 4545              		.loc 1 1389 12 is_stmt 0 view .LVU1430
 4546 00bc 3B60     		str	r3, [r7]
1390:Drivers/STM32H5xx_HAL_Driver/Src/stm32h5xx_ll_usb.c ****     }
 4547              		.loc 1 1390 7 is_stmt 1 view .LVU1431
1390:Drivers/STM32H5xx_HAL_Driver/Src/stm32h5xx_ll_usb.c ****     }
 4548              		.loc 1 1390 23 is_stmt 0 view .LVU1432
 4549 00be 0023     		movs	r3, #0
 4550 00c0 6361     		str	r3, [r4, #20]
 4551 00c2 D2E7     		b	.L233
 4552              	.L234:
1398:Drivers/STM32H5xx_HAL_Driver/Src/stm32h5xx_ll_usb.c ****     }
1399:Drivers/STM32H5xx_HAL_Driver/Src/stm32h5xx_ll_usb.c ****     else
1400:Drivers/STM32H5xx_HAL_Driver/Src/stm32h5xx_ll_usb.c ****     {
1401:Drivers/STM32H5xx_HAL_Driver/Src/stm32h5xx_ll_usb.c ****       /* Write Buffer0 */
1402:Drivers/STM32H5xx_HAL_Driver/Src/stm32h5xx_ll_usb.c ****       USB_DRD_SET_CHEP_DBUF0_CNT(USBx, phy_ch_num, 1U, (uint16_t)*len);
 4553              		.loc 1 1402 7 is_stmt 1 view .LVU1433
 4554              		.loc 1 1402 7 view .LVU1434
 4555              		.loc 1 1402 7 discriminator 2 view .LVU1435
 4556              		.loc 1 1402 7 discriminator 16 view .LVU1436
 4557              		.loc 1 1402 7 discriminator 16 view .LVU1437
 4558 00c4 ED00     		lsls	r5, r5, #3
 4559              	.LVL468:
 4560              		.loc 1 1402 7 is_stmt 0 discriminator 16 view .LVU1438
 4561 00c6 05F18045 		add	r5, r5, #1073741824
 4562 00ca 05F5B235 		add	r5, r5, #91136
 4563 00ce 2B68     		ldr	r3, [r5]
 4564 00d0 9BB2     		uxth	r3, r3
 4565 00d2 2B60     		str	r3, [r5]
 4566              		.loc 1 1402 7 is_stmt 1 discriminator 16 view .LVU1439
 4567 00d4 2B68     		ldr	r3, [r5]
 4568 00d6 3A88     		ldrh	r2, [r7]
 4569 00d8 43EA0243 		orr	r3, r3, r2, lsl #16
 4570 00dc 2B60     		str	r3, [r5]
 4571              		.loc 1 1402 7 discriminator 18 view .LVU1440
 4572              		.loc 1 1402 7 discriminator 18 view .LVU1441
1403:Drivers/STM32H5xx_HAL_Driver/Src/stm32h5xx_ll_usb.c ****       USB_WritePMA(USBx, hc->xfer_buff, hc->pmaaddr0, (uint16_t)*len);
 4573              		.loc 1 1403 7 view .LVU1442
 4574 00de 3B88     		ldrh	r3, [r7]
 4575 00e0 E28C     		ldrh	r2, [r4, #38]
 4576 00e2 E168     		ldr	r1, [r4, #12]
 4577 00e4 4046     		mov	r0, r8
 4578 00e6 FFF7FEFF 		bl	USB_WritePMA
 4579              	.LVL469:
 4580 00ea 16E0     		b	.L235
 4581              	.LVL470:
 4582              	.L229:
ARM GAS  C:\Users\sapph\AppData\Local\Temp\cchEHrSS.s 			page 120


1404:Drivers/STM32H5xx_HAL_Driver/Src/stm32h5xx_ll_usb.c ****     }
1405:Drivers/STM32H5xx_HAL_Driver/Src/stm32h5xx_ll_usb.c ****   }
1406:Drivers/STM32H5xx_HAL_Driver/Src/stm32h5xx_ll_usb.c ****   else
1407:Drivers/STM32H5xx_HAL_Driver/Src/stm32h5xx_ll_usb.c ****   {
1408:Drivers/STM32H5xx_HAL_Driver/Src/stm32h5xx_ll_usb.c ****     /* Disable bulk double buffer mode */
1409:Drivers/STM32H5xx_HAL_Driver/Src/stm32h5xx_ll_usb.c ****     (void)USB_HC_DoubleBuffer(USBx, (uint8_t)phy_ch_num, USB_DRD_BULK_DBUFF_DISABLE);
 4583              		.loc 1 1409 5 view .LVU1443
 4584              		.loc 1 1409 11 is_stmt 0 view .LVU1444
 4585 00ec 0222     		movs	r2, #2
 4586 00ee 2946     		mov	r1, r5
 4587              	.LVL471:
 4588              		.loc 1 1409 11 view .LVU1445
 4589 00f0 FFF7FEFF 		bl	USB_HC_DoubleBuffer
 4590              	.LVL472:
1410:Drivers/STM32H5xx_HAL_Driver/Src/stm32h5xx_ll_usb.c ****     USB_WritePMA(USBx, hc->xfer_buff, hc->pmaaddr0, (uint16_t)*len);
 4591              		.loc 1 1410 5 is_stmt 1 view .LVU1446
 4592 00f4 3B88     		ldrh	r3, [r7]
 4593 00f6 E28C     		ldrh	r2, [r4, #38]
 4594 00f8 E168     		ldr	r1, [r4, #12]
 4595 00fa 4046     		mov	r0, r8
 4596 00fc FFF7FEFF 		bl	USB_WritePMA
 4597              	.LVL473:
1411:Drivers/STM32H5xx_HAL_Driver/Src/stm32h5xx_ll_usb.c ****     USB_DRD_SET_CHEP_TX_CNT(USBx, phy_ch_num, (uint16_t)*len);
 4598              		.loc 1 1411 5 view .LVU1447
 4599              		.loc 1 1411 5 view .LVU1448
 4600 0100 ED00     		lsls	r5, r5, #3
 4601              	.LVL474:
 4602              		.loc 1 1411 5 is_stmt 0 view .LVU1449
 4603 0102 05F18045 		add	r5, r5, #1073741824
 4604 0106 05F5B235 		add	r5, r5, #91136
 4605 010a 2B68     		ldr	r3, [r5]
 4606 010c 9BB2     		uxth	r3, r3
 4607 010e 2B60     		str	r3, [r5]
 4608              		.loc 1 1411 5 is_stmt 1 view .LVU1450
 4609 0110 2B68     		ldr	r3, [r5]
 4610 0112 3A88     		ldrh	r2, [r7]
 4611 0114 43EA0243 		orr	r3, r3, r2, lsl #16
 4612 0118 2B60     		str	r3, [r5]
 4613              	.LVL475:
 4614              	.L235:
 4615              		.loc 1 1411 5 discriminator 1 view .LVU1451
1412:Drivers/STM32H5xx_HAL_Driver/Src/stm32h5xx_ll_usb.c ****   }
1413:Drivers/STM32H5xx_HAL_Driver/Src/stm32h5xx_ll_usb.c **** 
1414:Drivers/STM32H5xx_HAL_Driver/Src/stm32h5xx_ll_usb.c ****   return HAL_OK;
 4616              		.loc 1 1414 3 view .LVU1452
1415:Drivers/STM32H5xx_HAL_Driver/Src/stm32h5xx_ll_usb.c **** }
 4617              		.loc 1 1415 1 is_stmt 0 view .LVU1453
 4618 011a 0020     		movs	r0, #0
 4619 011c BDE8F081 		pop	{r4, r5, r6, r7, r8, pc}
 4620              		.loc 1 1415 1 view .LVU1454
 4621              		.cfi_endproc
 4622              	.LFE191:
 4624              		.section	.text.USB_HC_Init,"ax",%progbits
 4625              		.align	1
 4626              		.global	USB_HC_Init
 4627              		.syntax unified
 4628              		.thumb
ARM GAS  C:\Users\sapph\AppData\Local\Temp\cchEHrSS.s 			page 121


 4629              		.thumb_func
 4631              	USB_HC_Init:
 4632              	.LVL476:
 4633              	.LFB188:
1120:Drivers/STM32H5xx_HAL_Driver/Src/stm32h5xx_ll_usb.c ****   HAL_StatusTypeDef ret = HAL_OK;
 4634              		.loc 1 1120 1 is_stmt 1 view -0
 4635              		.cfi_startproc
 4636              		@ args = 12, pretend = 0, frame = 0
 4637              		@ frame_needed = 0, uses_anonymous_args = 0
1120:Drivers/STM32H5xx_HAL_Driver/Src/stm32h5xx_ll_usb.c ****   HAL_StatusTypeDef ret = HAL_OK;
 4638              		.loc 1 1120 1 is_stmt 0 view .LVU1456
 4639 0000 F8B5     		push	{r3, r4, r5, r6, r7, lr}
 4640              		.cfi_def_cfa_offset 24
 4641              		.cfi_offset 3, -24
 4642              		.cfi_offset 4, -20
 4643              		.cfi_offset 5, -16
 4644              		.cfi_offset 6, -12
 4645              		.cfi_offset 7, -8
 4646              		.cfi_offset 14, -4
 4647 0002 0546     		mov	r5, r0
 4648 0004 0E46     		mov	r6, r1
 4649 0006 9DF81C70 		ldrb	r7, [sp, #28]	@ zero_extendqisi2
1121:Drivers/STM32H5xx_HAL_Driver/Src/stm32h5xx_ll_usb.c ****   uint32_t wChRegVal;
 4650              		.loc 1 1121 3 is_stmt 1 view .LVU1457
 4651              	.LVL477:
1122:Drivers/STM32H5xx_HAL_Driver/Src/stm32h5xx_ll_usb.c ****   uint32_t HostCoreSpeed;
 4652              		.loc 1 1122 3 view .LVU1458
1123:Drivers/STM32H5xx_HAL_Driver/Src/stm32h5xx_ll_usb.c **** 
 4653              		.loc 1 1123 3 view .LVU1459
1125:Drivers/STM32H5xx_HAL_Driver/Src/stm32h5xx_ll_usb.c **** 
 4654              		.loc 1 1125 3 view .LVU1460
1127:Drivers/STM32H5xx_HAL_Driver/Src/stm32h5xx_ll_usb.c **** 
 4655              		.loc 1 1127 3 view .LVU1461
1127:Drivers/STM32H5xx_HAL_Driver/Src/stm32h5xx_ll_usb.c **** 
 4656              		.loc 1 1127 15 is_stmt 0 view .LVU1462
 4657 000a 50F82100 		ldr	r0, [r0, r1, lsl #2]
 4658              	.LVL478:
1127:Drivers/STM32H5xx_HAL_Driver/Src/stm32h5xx_ll_usb.c **** 
 4659              		.loc 1 1127 13 view .LVU1463
 4660 000e 1849     		ldr	r1, .L248
 4661              	.LVL479:
1127:Drivers/STM32H5xx_HAL_Driver/Src/stm32h5xx_ll_usb.c **** 
 4662              		.loc 1 1127 13 view .LVU1464
 4663 0010 0140     		ands	r1, r1, r0
 4664              	.LVL480:
1130:Drivers/STM32H5xx_HAL_Driver/Src/stm32h5xx_ll_usb.c ****   {
 4665              		.loc 1 1130 3 is_stmt 1 view .LVU1465
 4666 0012 032F     		cmp	r7, #3
 4667 0014 25D8     		bhi	.L245
 4668 0016 DFE807F0 		tbb	[pc, r7]
 4669              	.L240:
 4670 001a 19       		.byte	(.L243-.L240)/2
 4671 001b 20       		.byte	(.L242-.L240)/2
 4672 001c 02       		.byte	(.L241-.L240)/2
 4673 001d 1C       		.byte	(.L239-.L240)/2
 4674              		.p2align 1
 4675              	.L241:
ARM GAS  C:\Users\sapph\AppData\Local\Temp\cchEHrSS.s 			page 122


 4676 001e 0027     		movs	r7, #0
 4677              	.L238:
 4678              	.LVL481:
1154:Drivers/STM32H5xx_HAL_Driver/Src/stm32h5xx_ll_usb.c ****                  USB_CHEP_ADDR |
 4679              		.loc 1 1154 3 view .LVU1466
1154:Drivers/STM32H5xx_HAL_Driver/Src/stm32h5xx_ll_usb.c ****                  USB_CHEP_ADDR |
 4680              		.loc 1 1154 13 is_stmt 0 view .LVU1467
 4681 0020 144C     		ldr	r4, .L248+4
 4682 0022 0C40     		ands	r4, r4, r1
 4683              	.LVL482:
1164:Drivers/STM32H5xx_HAL_Driver/Src/stm32h5xx_ll_usb.c ****                 ((uint32_t)epnum & 0x0FU));
 4684              		.loc 1 1164 3 is_stmt 1 view .LVU1468
1165:Drivers/STM32H5xx_HAL_Driver/Src/stm32h5xx_ll_usb.c **** 
 4685              		.loc 1 1165 34 is_stmt 0 view .LVU1469
 4686 0024 02F00F02 		and	r2, r2, #15
 4687              	.LVL483:
1164:Drivers/STM32H5xx_HAL_Driver/Src/stm32h5xx_ll_usb.c ****                 ((uint32_t)epnum & 0x0FU));
 4688              		.loc 1 1164 65 view .LVU1470
 4689 0028 42EA0343 		orr	r3, r2, r3, lsl #16
 4690              	.LVL484:
1164:Drivers/STM32H5xx_HAL_Driver/Src/stm32h5xx_ll_usb.c ****                 ((uint32_t)epnum & 0x0FU));
 4691              		.loc 1 1164 13 view .LVU1471
 4692 002c 1C43     		orrs	r4, r4, r3
 4693              	.LVL485:
1168:Drivers/STM32H5xx_HAL_Driver/Src/stm32h5xx_ll_usb.c **** 
 4694              		.loc 1 1168 3 is_stmt 1 view .LVU1472
1168:Drivers/STM32H5xx_HAL_Driver/Src/stm32h5xx_ll_usb.c **** 
 4695              		.loc 1 1168 19 is_stmt 0 view .LVU1473
 4696 002e 2846     		mov	r0, r5
 4697 0030 FFF7FEFF 		bl	USB_GetHostSpeed
 4698              	.LVL486:
1171:Drivers/STM32H5xx_HAL_Driver/Src/stm32h5xx_ll_usb.c ****   {
 4699              		.loc 1 1171 3 is_stmt 1 view .LVU1474
1171:Drivers/STM32H5xx_HAL_Driver/Src/stm32h5xx_ll_usb.c ****   {
 4700              		.loc 1 1171 6 is_stmt 0 view .LVU1475
 4701 0034 9DF81830 		ldrb	r3, [sp, #24]	@ zero_extendqisi2
 4702 0038 022B     		cmp	r3, #2
 4703 003a 14D0     		beq	.L247
 4704              	.L244:
1177:Drivers/STM32H5xx_HAL_Driver/Src/stm32h5xx_ll_usb.c **** 
 4705              		.loc 1 1177 3 is_stmt 1 view .LVU1476
 4706 003c 44F40044 		orr	r4, r4, #32768
 4707              	.LVL487:
1177:Drivers/STM32H5xx_HAL_Driver/Src/stm32h5xx_ll_usb.c **** 
 4708              		.loc 1 1177 3 is_stmt 0 view .LVU1477
 4709 0040 44F08004 		orr	r4, r4, #128
 4710 0044 45F82640 		str	r4, [r5, r6, lsl #2]
1179:Drivers/STM32H5xx_HAL_Driver/Src/stm32h5xx_ll_usb.c **** }
 4711              		.loc 1 1179 3 is_stmt 1 view .LVU1478
1180:Drivers/STM32H5xx_HAL_Driver/Src/stm32h5xx_ll_usb.c **** 
 4712              		.loc 1 1180 1 is_stmt 0 view .LVU1479
 4713 0048 3846     		mov	r0, r7
 4714              	.LVL488:
1180:Drivers/STM32H5xx_HAL_Driver/Src/stm32h5xx_ll_usb.c **** 
 4715              		.loc 1 1180 1 view .LVU1480
 4716 004a F8BD     		pop	{r3, r4, r5, r6, r7, pc}
 4717              	.LVL489:
ARM GAS  C:\Users\sapph\AppData\Local\Temp\cchEHrSS.s 			page 123


 4718              	.L243:
1133:Drivers/STM32H5xx_HAL_Driver/Src/stm32h5xx_ll_usb.c ****       break;
 4719              		.loc 1 1133 7 is_stmt 1 view .LVU1481
1133:Drivers/STM32H5xx_HAL_Driver/Src/stm32h5xx_ll_usb.c ****       break;
 4720              		.loc 1 1133 17 is_stmt 0 view .LVU1482
 4721 004c 41F40071 		orr	r1, r1, #512
 4722              	.LVL490:
1134:Drivers/STM32H5xx_HAL_Driver/Src/stm32h5xx_ll_usb.c **** 
 4723              		.loc 1 1134 7 is_stmt 1 view .LVU1483
 4724 0050 E6E7     		b	.L238
 4725              	.L239:
1141:Drivers/STM32H5xx_HAL_Driver/Src/stm32h5xx_ll_usb.c ****       break;
 4726              		.loc 1 1141 7 view .LVU1484
1141:Drivers/STM32H5xx_HAL_Driver/Src/stm32h5xx_ll_usb.c ****       break;
 4727              		.loc 1 1141 17 is_stmt 0 view .LVU1485
 4728 0052 41F4C061 		orr	r1, r1, #1536
 4729              	.LVL491:
1142:Drivers/STM32H5xx_HAL_Driver/Src/stm32h5xx_ll_usb.c **** 
 4730              		.loc 1 1142 7 is_stmt 1 view .LVU1486
1121:Drivers/STM32H5xx_HAL_Driver/Src/stm32h5xx_ll_usb.c ****   uint32_t wChRegVal;
 4731              		.loc 1 1121 21 is_stmt 0 view .LVU1487
 4732 0056 0027     		movs	r7, #0
1142:Drivers/STM32H5xx_HAL_Driver/Src/stm32h5xx_ll_usb.c **** 
 4733              		.loc 1 1142 7 view .LVU1488
 4734 0058 E2E7     		b	.L238
 4735              	.L242:
1145:Drivers/STM32H5xx_HAL_Driver/Src/stm32h5xx_ll_usb.c ****       break;
 4736              		.loc 1 1145 7 is_stmt 1 view .LVU1489
1145:Drivers/STM32H5xx_HAL_Driver/Src/stm32h5xx_ll_usb.c ****       break;
 4737              		.loc 1 1145 17 is_stmt 0 view .LVU1490
 4738 005a 41F48061 		orr	r1, r1, #1024
 4739              	.LVL492:
1146:Drivers/STM32H5xx_HAL_Driver/Src/stm32h5xx_ll_usb.c **** 
 4740              		.loc 1 1146 7 is_stmt 1 view .LVU1491
1121:Drivers/STM32H5xx_HAL_Driver/Src/stm32h5xx_ll_usb.c ****   uint32_t wChRegVal;
 4741              		.loc 1 1121 21 is_stmt 0 view .LVU1492
 4742 005e 0027     		movs	r7, #0
1146:Drivers/STM32H5xx_HAL_Driver/Src/stm32h5xx_ll_usb.c **** 
 4743              		.loc 1 1146 7 view .LVU1493
 4744 0060 DEE7     		b	.L238
 4745              	.L245:
1149:Drivers/STM32H5xx_HAL_Driver/Src/stm32h5xx_ll_usb.c ****       break;
 4746              		.loc 1 1149 11 view .LVU1494
 4747 0062 0127     		movs	r7, #1
 4748 0064 DCE7     		b	.L238
 4749              	.LVL493:
 4750              	.L247:
1171:Drivers/STM32H5xx_HAL_Driver/Src/stm32h5xx_ll_usb.c ****   {
 4751              		.loc 1 1171 35 discriminator 1 view .LVU1495
 4752 0066 0128     		cmp	r0, #1
 4753 0068 E8D1     		bne	.L244
1173:Drivers/STM32H5xx_HAL_Driver/Src/stm32h5xx_ll_usb.c ****   }
 4754              		.loc 1 1173 5 is_stmt 1 view .LVU1496
1173:Drivers/STM32H5xx_HAL_Driver/Src/stm32h5xx_ll_usb.c ****   }
 4755              		.loc 1 1173 15 is_stmt 0 view .LVU1497
 4756 006a 44F08074 		orr	r4, r4, #16777216
 4757              	.LVL494:
ARM GAS  C:\Users\sapph\AppData\Local\Temp\cchEHrSS.s 			page 124


1173:Drivers/STM32H5xx_HAL_Driver/Src/stm32h5xx_ll_usb.c ****   }
 4758              		.loc 1 1173 15 view .LVU1498
 4759 006e E5E7     		b	.L244
 4760              	.L249:
 4761              		.align	2
 4762              	.L248:
 4763 0070 8F89FF07 		.word	134187407
 4764 0074 F0FE0080 		.word	-2147418384
 4765              		.cfi_endproc
 4766              	.LFE188:
 4768              		.section	.text.USB_HC_StartXfer,"ax",%progbits
 4769              		.align	1
 4770              		.global	USB_HC_StartXfer
 4771              		.syntax unified
 4772              		.thumb
 4773              		.thumb_func
 4775              	USB_HC_StartXfer:
 4776              	.LVL495:
 4777              	.LFB189:
1189:Drivers/STM32H5xx_HAL_Driver/Src/stm32h5xx_ll_usb.c ****   uint32_t len;
 4778              		.loc 1 1189 1 is_stmt 1 view -0
 4779              		.cfi_startproc
 4780              		@ args = 0, pretend = 0, frame = 8
 4781              		@ frame_needed = 0, uses_anonymous_args = 0
1189:Drivers/STM32H5xx_HAL_Driver/Src/stm32h5xx_ll_usb.c ****   uint32_t len;
 4782              		.loc 1 1189 1 is_stmt 0 view .LVU1500
 4783 0000 70B5     		push	{r4, r5, r6, lr}
 4784              		.cfi_def_cfa_offset 16
 4785              		.cfi_offset 4, -16
 4786              		.cfi_offset 5, -12
 4787              		.cfi_offset 6, -8
 4788              		.cfi_offset 14, -4
 4789 0002 82B0     		sub	sp, sp, #8
 4790              		.cfi_def_cfa_offset 24
 4791 0004 0546     		mov	r5, r0
 4792 0006 0C46     		mov	r4, r1
1190:Drivers/STM32H5xx_HAL_Driver/Src/stm32h5xx_ll_usb.c ****   uint32_t phy_ch_num = (uint32_t)hc->phy_ch_num;
 4793              		.loc 1 1190 3 is_stmt 1 view .LVU1501
1191:Drivers/STM32H5xx_HAL_Driver/Src/stm32h5xx_ll_usb.c **** #if (USE_USB_DOUBLE_BUFFER == 1U)
 4794              		.loc 1 1191 3 view .LVU1502
1191:Drivers/STM32H5xx_HAL_Driver/Src/stm32h5xx_ll_usb.c **** #if (USE_USB_DOUBLE_BUFFER == 1U)
 4795              		.loc 1 1191 37 is_stmt 0 view .LVU1503
 4796 0008 4E78     		ldrb	r6, [r1, #1]	@ zero_extendqisi2
 4797              	.LVL496:
1193:Drivers/STM32H5xx_HAL_Driver/Src/stm32h5xx_ll_usb.c **** #endif /* USE_USB_DOUBLE_BUFFER */
 4798              		.loc 1 1193 3 is_stmt 1 view .LVU1504
1193:Drivers/STM32H5xx_HAL_Driver/Src/stm32h5xx_ll_usb.c **** #endif /* USE_USB_DOUBLE_BUFFER */
 4799              		.loc 1 1193 12 is_stmt 0 view .LVU1505
 4800 000a 50F82620 		ldr	r2, [r0, r6, lsl #2]
 4801              	.LVL497:
1196:Drivers/STM32H5xx_HAL_Driver/Src/stm32h5xx_ll_usb.c ****   {
 4802              		.loc 1 1196 3 is_stmt 1 view .LVU1506
1196:Drivers/STM32H5xx_HAL_Driver/Src/stm32h5xx_ll_usb.c ****   {
 4803              		.loc 1 1196 9 is_stmt 0 view .LVU1507
 4804 000e CB78     		ldrb	r3, [r1, #3]	@ zero_extendqisi2
1196:Drivers/STM32H5xx_HAL_Driver/Src/stm32h5xx_ll_usb.c ****   {
 4805              		.loc 1 1196 6 view .LVU1508
ARM GAS  C:\Users\sapph\AppData\Local\Temp\cchEHrSS.s 			page 125


 4806 0010 012B     		cmp	r3, #1
 4807 0012 23D0     		beq	.L295
1259:Drivers/STM32H5xx_HAL_Driver/Src/stm32h5xx_ll_usb.c ****     {
 4808              		.loc 1 1259 5 is_stmt 1 view .LVU1509
1259:Drivers/STM32H5xx_HAL_Driver/Src/stm32h5xx_ll_usb.c ****     {
 4809              		.loc 1 1259 11 is_stmt 0 view .LVU1510
 4810 0014 0B69     		ldr	r3, [r1, #16]
1259:Drivers/STM32H5xx_HAL_Driver/Src/stm32h5xx_ll_usb.c ****     {
 4811              		.loc 1 1259 26 view .LVU1511
 4812 0016 0989     		ldrh	r1, [r1, #8]
 4813              	.LVL498:
1259:Drivers/STM32H5xx_HAL_Driver/Src/stm32h5xx_ll_usb.c ****     {
 4814              		.loc 1 1259 8 view .LVU1512
 4815 0018 8B42     		cmp	r3, r1
 4816 001a 40F24F81 		bls	.L287
1261:Drivers/STM32H5xx_HAL_Driver/Src/stm32h5xx_ll_usb.c ****     }
 4817              		.loc 1 1261 7 is_stmt 1 view .LVU1513
1261:Drivers/STM32H5xx_HAL_Driver/Src/stm32h5xx_ll_usb.c ****     }
 4818              		.loc 1 1261 11 is_stmt 0 view .LVU1514
 4819 001e 0191     		str	r1, [sp, #4]
 4820              	.L288:
1269:Drivers/STM32H5xx_HAL_Driver/Src/stm32h5xx_ll_usb.c ****     {
 4821              		.loc 1 1269 5 is_stmt 1 view .LVU1515
1269:Drivers/STM32H5xx_HAL_Driver/Src/stm32h5xx_ll_usb.c ****     {
 4822              		.loc 1 1269 11 is_stmt 0 view .LVU1516
 4823 0020 94F82A30 		ldrb	r3, [r4, #42]	@ zero_extendqisi2
1269:Drivers/STM32H5xx_HAL_Driver/Src/stm32h5xx_ll_usb.c ****     {
 4824              		.loc 1 1269 8 view .LVU1517
 4825 0024 002B     		cmp	r3, #0
 4826 0026 00F05181 		beq	.L296
1293:Drivers/STM32H5xx_HAL_Driver/Src/stm32h5xx_ll_usb.c ****     {
 4827              		.loc 1 1293 10 is_stmt 1 view .LVU1518
1293:Drivers/STM32H5xx_HAL_Driver/Src/stm32h5xx_ll_usb.c ****     {
 4828              		.loc 1 1293 16 is_stmt 0 view .LVU1519
 4829 002a E379     		ldrb	r3, [r4, #7]	@ zero_extendqisi2
1293:Drivers/STM32H5xx_HAL_Driver/Src/stm32h5xx_ll_usb.c ****     {
 4830              		.loc 1 1293 13 view .LVU1520
 4831 002c 022B     		cmp	r3, #2
 4832 002e 00F09081 		beq	.L297
1299:Drivers/STM32H5xx_HAL_Driver/Src/stm32h5xx_ll_usb.c ****     }
 4833              		.loc 1 1299 7 is_stmt 1 view .LVU1521
1299:Drivers/STM32H5xx_HAL_Driver/Src/stm32h5xx_ll_usb.c ****     }
 4834              		.loc 1 1299 13 is_stmt 0 view .LVU1522
 4835 0032 019A     		ldr	r2, [sp, #4]
 4836              	.LVL499:
1299:Drivers/STM32H5xx_HAL_Driver/Src/stm32h5xx_ll_usb.c ****     }
 4837              		.loc 1 1299 13 view .LVU1523
 4838 0034 2146     		mov	r1, r4
 4839 0036 2846     		mov	r0, r5
 4840              	.LVL500:
1299:Drivers/STM32H5xx_HAL_Driver/Src/stm32h5xx_ll_usb.c ****     }
 4841              		.loc 1 1299 13 view .LVU1524
 4842 0038 FFF7FEFF 		bl	USB_HC_ISO_DB_StartXfer
 4843              	.LVL501:
 4844              	.L291:
1304:Drivers/STM32H5xx_HAL_Driver/Src/stm32h5xx_ll_usb.c ****   }
 4845              		.loc 1 1304 5 is_stmt 1 view .LVU1525
ARM GAS  C:\Users\sapph\AppData\Local\Temp\cchEHrSS.s 			page 126


 4846              	.LBB84:
1304:Drivers/STM32H5xx_HAL_Driver/Src/stm32h5xx_ll_usb.c ****   }
 4847              		.loc 1 1304 5 view .LVU1526
1304:Drivers/STM32H5xx_HAL_Driver/Src/stm32h5xx_ll_usb.c ****   }
 4848              		.loc 1 1304 5 view .LVU1527
 4849 003c 6278     		ldrb	r2, [r4, #1]	@ zero_extendqisi2
 4850 003e 55F82210 		ldr	r1, [r5, r2, lsl #2]
 4851 0042 9F4B     		ldr	r3, .L301
 4852 0044 0B40     		ands	r3, r3, r1
 4853              	.LVL502:
1304:Drivers/STM32H5xx_HAL_Driver/Src/stm32h5xx_ll_usb.c ****   }
 4854              		.loc 1 1304 5 view .LVU1528
1304:Drivers/STM32H5xx_HAL_Driver/Src/stm32h5xx_ll_usb.c ****   }
 4855              		.loc 1 1304 5 discriminator 1 view .LVU1529
1304:Drivers/STM32H5xx_HAL_Driver/Src/stm32h5xx_ll_usb.c ****   }
 4856              		.loc 1 1304 5 discriminator 3 view .LVU1530
1304:Drivers/STM32H5xx_HAL_Driver/Src/stm32h5xx_ll_usb.c ****   }
 4857              		.loc 1 1304 5 discriminator 4 view .LVU1531
 4858 0046 83F03003 		eor	r3, r3, #48
 4859              	.LVL503:
1304:Drivers/STM32H5xx_HAL_Driver/Src/stm32h5xx_ll_usb.c ****   }
 4860              		.loc 1 1304 5 discriminator 6 view .LVU1532
 4861 004a 43F40043 		orr	r3, r3, #32768
 4862              	.LVL504:
1304:Drivers/STM32H5xx_HAL_Driver/Src/stm32h5xx_ll_usb.c ****   }
 4863              		.loc 1 1304 5 is_stmt 0 discriminator 6 view .LVU1533
 4864 004e 43F08003 		orr	r3, r3, #128
 4865 0052 45F82230 		str	r3, [r5, r2, lsl #2]
 4866              	.LVL505:
 4867              	.L286:
1304:Drivers/STM32H5xx_HAL_Driver/Src/stm32h5xx_ll_usb.c ****   }
 4868              		.loc 1 1304 5 discriminator 6 view .LVU1534
 4869              	.LBE84:
1304:Drivers/STM32H5xx_HAL_Driver/Src/stm32h5xx_ll_usb.c ****   }
 4870              		.loc 1 1304 5 is_stmt 1 discriminator 7 view .LVU1535
1307:Drivers/STM32H5xx_HAL_Driver/Src/stm32h5xx_ll_usb.c **** }
 4871              		.loc 1 1307 3 view .LVU1536
1308:Drivers/STM32H5xx_HAL_Driver/Src/stm32h5xx_ll_usb.c **** 
 4872              		.loc 1 1308 1 is_stmt 0 view .LVU1537
 4873 0056 0020     		movs	r0, #0
 4874 0058 02B0     		add	sp, sp, #8
 4875              		.cfi_remember_state
 4876              		.cfi_def_cfa_offset 16
 4877              		@ sp needed
 4878 005a 70BD     		pop	{r4, r5, r6, pc}
 4879              	.LVL506:
 4880              	.L295:
 4881              		.cfi_restore_state
1199:Drivers/STM32H5xx_HAL_Driver/Src/stm32h5xx_ll_usb.c ****     {
 4882              		.loc 1 1199 5 is_stmt 1 view .LVU1538
1199:Drivers/STM32H5xx_HAL_Driver/Src/stm32h5xx_ll_usb.c ****     {
 4883              		.loc 1 1199 11 is_stmt 0 view .LVU1539
 4884 005c 0A69     		ldr	r2, [r1, #16]
 4885              	.LVL507:
1199:Drivers/STM32H5xx_HAL_Driver/Src/stm32h5xx_ll_usb.c ****     {
 4886              		.loc 1 1199 26 view .LVU1540
 4887 005e 0B89     		ldrh	r3, [r1, #8]
ARM GAS  C:\Users\sapph\AppData\Local\Temp\cchEHrSS.s 			page 127


1199:Drivers/STM32H5xx_HAL_Driver/Src/stm32h5xx_ll_usb.c ****     {
 4888              		.loc 1 1199 8 view .LVU1541
 4889 0060 9A42     		cmp	r2, r3
 4890 0062 25D9     		bls	.L252
1201:Drivers/STM32H5xx_HAL_Driver/Src/stm32h5xx_ll_usb.c ****     }
 4891              		.loc 1 1201 7 is_stmt 1 view .LVU1542
1201:Drivers/STM32H5xx_HAL_Driver/Src/stm32h5xx_ll_usb.c ****     }
 4892              		.loc 1 1201 11 is_stmt 0 view .LVU1543
 4893 0064 0193     		str	r3, [sp, #4]
 4894              	.L253:
1208:Drivers/STM32H5xx_HAL_Driver/Src/stm32h5xx_ll_usb.c ****     {
 4895              		.loc 1 1208 5 is_stmt 1 view .LVU1544
1208:Drivers/STM32H5xx_HAL_Driver/Src/stm32h5xx_ll_usb.c ****     {
 4896              		.loc 1 1208 11 is_stmt 0 view .LVU1545
 4897 0066 94F82A10 		ldrb	r1, [r4, #42]	@ zero_extendqisi2
 4898              	.LVL508:
1208:Drivers/STM32H5xx_HAL_Driver/Src/stm32h5xx_ll_usb.c ****     {
 4899              		.loc 1 1208 8 view .LVU1546
 4900 006a 0029     		cmp	r1, #0
 4901 006c 57D1     		bne	.L254
1210:Drivers/STM32H5xx_HAL_Driver/Src/stm32h5xx_ll_usb.c ****           (hc->ep_type == EP_TYPE_INTR))
 4902              		.loc 1 1210 7 is_stmt 1 view .LVU1547
1210:Drivers/STM32H5xx_HAL_Driver/Src/stm32h5xx_ll_usb.c ****           (hc->ep_type == EP_TYPE_INTR))
 4903              		.loc 1 1210 14 is_stmt 0 view .LVU1548
 4904 006e E379     		ldrb	r3, [r4, #7]	@ zero_extendqisi2
1210:Drivers/STM32H5xx_HAL_Driver/Src/stm32h5xx_ll_usb.c ****           (hc->ep_type == EP_TYPE_INTR))
 4905              		.loc 1 1210 41 view .LVU1549
 4906 0070 023B     		subs	r3, r3, #2
 4907 0072 DBB2     		uxtb	r3, r3
1210:Drivers/STM32H5xx_HAL_Driver/Src/stm32h5xx_ll_usb.c ****           (hc->ep_type == EP_TYPE_INTR))
 4908              		.loc 1 1210 10 view .LVU1550
 4909 0074 012B     		cmp	r3, #1
 4910 0076 1DD9     		bls	.L298
 4911              	.L255:
1218:Drivers/STM32H5xx_HAL_Driver/Src/stm32h5xx_ll_usb.c ****         }
 4912              		.loc 1 1218 11 is_stmt 1 discriminator 1 view .LVU1551
1223:Drivers/STM32H5xx_HAL_Driver/Src/stm32h5xx_ll_usb.c ****     }
 4913              		.loc 1 1223 7 view .LVU1552
 4914              	.LBB85:
1223:Drivers/STM32H5xx_HAL_Driver/Src/stm32h5xx_ll_usb.c ****     }
 4915              		.loc 1 1223 7 view .LVU1553
1223:Drivers/STM32H5xx_HAL_Driver/Src/stm32h5xx_ll_usb.c ****     }
 4916              		.loc 1 1223 7 view .LVU1554
 4917 0078 F300     		lsls	r3, r6, #3
 4918 007a 03F18043 		add	r3, r3, #1073741824
 4919 007e 03F5B233 		add	r3, r3, #91136
 4920 0082 5A68     		ldr	r2, [r3, #4]
 4921 0084 22F07C42 		bic	r2, r2, #-67108864
 4922 0088 5A60     		str	r2, [r3, #4]
1223:Drivers/STM32H5xx_HAL_Driver/Src/stm32h5xx_ll_usb.c ****     }
 4923              		.loc 1 1223 7 view .LVU1555
 4924 008a 019A     		ldr	r2, [sp, #4]
 4925 008c 7ABB     		cbnz	r2, .L257
1223:Drivers/STM32H5xx_HAL_Driver/Src/stm32h5xx_ll_usb.c ****     }
 4926              		.loc 1 1223 7 discriminator 1 view .LVU1556
 4927 008e 5A68     		ldr	r2, [r3, #4]
 4928 0090 42F00042 		orr	r2, r2, #-2147483648
ARM GAS  C:\Users\sapph\AppData\Local\Temp\cchEHrSS.s 			page 128


 4929 0094 5A60     		str	r2, [r3, #4]
 4930              	.LVL509:
 4931              	.L258:
1223:Drivers/STM32H5xx_HAL_Driver/Src/stm32h5xx_ll_usb.c ****     }
 4932              		.loc 1 1223 7 is_stmt 0 discriminator 1 view .LVU1557
 4933              	.LBE85:
1249:Drivers/STM32H5xx_HAL_Driver/Src/stm32h5xx_ll_usb.c ****     }
 4934              		.loc 1 1249 7 is_stmt 1 discriminator 18 view .LVU1558
1254:Drivers/STM32H5xx_HAL_Driver/Src/stm32h5xx_ll_usb.c ****   }
 4935              		.loc 1 1254 5 view .LVU1559
 4936              	.LBB86:
1254:Drivers/STM32H5xx_HAL_Driver/Src/stm32h5xx_ll_usb.c ****   }
 4937              		.loc 1 1254 5 view .LVU1560
1254:Drivers/STM32H5xx_HAL_Driver/Src/stm32h5xx_ll_usb.c ****   }
 4938              		.loc 1 1254 5 view .LVU1561
 4939 0096 55F82620 		ldr	r2, [r5, r6, lsl #2]
 4940 009a 8A4B     		ldr	r3, .L301+4
 4941 009c 1340     		ands	r3, r3, r2
 4942              	.LVL510:
1254:Drivers/STM32H5xx_HAL_Driver/Src/stm32h5xx_ll_usb.c ****   }
 4943              		.loc 1 1254 5 view .LVU1562
1254:Drivers/STM32H5xx_HAL_Driver/Src/stm32h5xx_ll_usb.c ****   }
 4944              		.loc 1 1254 5 discriminator 1 view .LVU1563
1254:Drivers/STM32H5xx_HAL_Driver/Src/stm32h5xx_ll_usb.c ****   }
 4945              		.loc 1 1254 5 discriminator 3 view .LVU1564
1254:Drivers/STM32H5xx_HAL_Driver/Src/stm32h5xx_ll_usb.c ****   }
 4946              		.loc 1 1254 5 discriminator 4 view .LVU1565
 4947 009e 83F44053 		eor	r3, r3, #12288
 4948              	.LVL511:
1254:Drivers/STM32H5xx_HAL_Driver/Src/stm32h5xx_ll_usb.c ****   }
 4949              		.loc 1 1254 5 discriminator 6 view .LVU1566
 4950 00a2 43F40043 		orr	r3, r3, #32768
 4951              	.LVL512:
1254:Drivers/STM32H5xx_HAL_Driver/Src/stm32h5xx_ll_usb.c ****   }
 4952              		.loc 1 1254 5 is_stmt 0 discriminator 6 view .LVU1567
 4953 00a6 43F08003 		orr	r3, r3, #128
 4954 00aa 45F82630 		str	r3, [r5, r6, lsl #2]
 4955              	.LBE86:
1254:Drivers/STM32H5xx_HAL_Driver/Src/stm32h5xx_ll_usb.c ****   }
 4956              		.loc 1 1254 5 is_stmt 1 discriminator 6 view .LVU1568
 4957 00ae D2E7     		b	.L286
 4958              	.LVL513:
 4959              	.L252:
1205:Drivers/STM32H5xx_HAL_Driver/Src/stm32h5xx_ll_usb.c ****     }
 4960              		.loc 1 1205 7 view .LVU1569
1205:Drivers/STM32H5xx_HAL_Driver/Src/stm32h5xx_ll_usb.c ****     }
 4961              		.loc 1 1205 11 is_stmt 0 view .LVU1570
 4962 00b0 0192     		str	r2, [sp, #4]
 4963 00b2 D8E7     		b	.L253
 4964              	.LVL514:
 4965              	.L298:
1213:Drivers/STM32H5xx_HAL_Driver/Src/stm32h5xx_ll_usb.c **** 
 4966              		.loc 1 1213 9 is_stmt 1 view .LVU1571
 4967              	.LBB87:
1213:Drivers/STM32H5xx_HAL_Driver/Src/stm32h5xx_ll_usb.c **** 
 4968              		.loc 1 1213 9 view .LVU1572
1213:Drivers/STM32H5xx_HAL_Driver/Src/stm32h5xx_ll_usb.c **** 
ARM GAS  C:\Users\sapph\AppData\Local\Temp\cchEHrSS.s 			page 129


 4969              		.loc 1 1213 9 view .LVU1573
 4970 00b4 55F82630 		ldr	r3, [r5, r6, lsl #2]
 4971              	.LVL515:
1213:Drivers/STM32H5xx_HAL_Driver/Src/stm32h5xx_ll_usb.c **** 
 4972              		.loc 1 1213 9 view .LVU1574
 4973 00b8 13F4804F 		tst	r3, #16384
 4974 00bc 09D0     		beq	.L256
1213:Drivers/STM32H5xx_HAL_Driver/Src/stm32h5xx_ll_usb.c **** 
 4975              		.loc 1 1213 9 discriminator 1 view .LVU1575
 4976              	.LBB88:
1213:Drivers/STM32H5xx_HAL_Driver/Src/stm32h5xx_ll_usb.c **** 
 4977              		.loc 1 1213 9 discriminator 1 view .LVU1576
1213:Drivers/STM32H5xx_HAL_Driver/Src/stm32h5xx_ll_usb.c **** 
 4978              		.loc 1 1213 9 discriminator 1 view .LVU1577
 4979 00be 55F82620 		ldr	r2, [r5, r6, lsl #2]
 4980 00c2 814B     		ldr	r3, .L301+8
 4981              	.LVL516:
1213:Drivers/STM32H5xx_HAL_Driver/Src/stm32h5xx_ll_usb.c **** 
 4982              		.loc 1 1213 9 is_stmt 0 discriminator 1 view .LVU1578
 4983 00c4 1340     		ands	r3, r3, r2
 4984              	.LVL517:
1213:Drivers/STM32H5xx_HAL_Driver/Src/stm32h5xx_ll_usb.c **** 
 4985              		.loc 1 1213 9 is_stmt 1 discriminator 1 view .LVU1579
 4986 00c6 43F44043 		orr	r3, r3, #49152
 4987              	.LVL518:
1213:Drivers/STM32H5xx_HAL_Driver/Src/stm32h5xx_ll_usb.c **** 
 4988              		.loc 1 1213 9 is_stmt 0 discriminator 1 view .LVU1580
 4989 00ca 43F08003 		orr	r3, r3, #128
 4990 00ce 45F82630 		str	r3, [r5, r6, lsl #2]
 4991              	.LVL519:
 4992              	.L256:
1213:Drivers/STM32H5xx_HAL_Driver/Src/stm32h5xx_ll_usb.c **** 
 4993              		.loc 1 1213 9 discriminator 1 view .LVU1581
 4994              	.LBE88:
1213:Drivers/STM32H5xx_HAL_Driver/Src/stm32h5xx_ll_usb.c **** 
 4995              		.loc 1 1213 9 is_stmt 1 discriminator 3 view .LVU1582
 4996              	.LBE87:
1213:Drivers/STM32H5xx_HAL_Driver/Src/stm32h5xx_ll_usb.c **** 
 4997              		.loc 1 1213 9 discriminator 3 view .LVU1583
1216:Drivers/STM32H5xx_HAL_Driver/Src/stm32h5xx_ll_usb.c ****         {
 4998              		.loc 1 1216 9 view .LVU1584
1216:Drivers/STM32H5xx_HAL_Driver/Src/stm32h5xx_ll_usb.c ****         {
 4999              		.loc 1 1216 15 is_stmt 0 view .LVU1585
 5000 00d2 A37A     		ldrb	r3, [r4, #10]	@ zero_extendqisi2
1216:Drivers/STM32H5xx_HAL_Driver/Src/stm32h5xx_ll_usb.c ****         {
 5001              		.loc 1 1216 12 view .LVU1586
 5002 00d4 022B     		cmp	r3, #2
 5003 00d6 CFD1     		bne	.L255
1218:Drivers/STM32H5xx_HAL_Driver/Src/stm32h5xx_ll_usb.c ****         }
 5004              		.loc 1 1218 11 is_stmt 1 view .LVU1587
 5005              	.LBB89:
1218:Drivers/STM32H5xx_HAL_Driver/Src/stm32h5xx_ll_usb.c ****         }
 5006              		.loc 1 1218 11 view .LVU1588
1218:Drivers/STM32H5xx_HAL_Driver/Src/stm32h5xx_ll_usb.c ****         }
 5007              		.loc 1 1218 11 view .LVU1589
 5008 00d8 55F82620 		ldr	r2, [r5, r6, lsl #2]
 5009 00dc 7A4B     		ldr	r3, .L301+8
ARM GAS  C:\Users\sapph\AppData\Local\Temp\cchEHrSS.s 			page 130


 5010 00de 1340     		ands	r3, r3, r2
 5011              	.LVL520:
1218:Drivers/STM32H5xx_HAL_Driver/Src/stm32h5xx_ll_usb.c ****         }
 5012              		.loc 1 1218 11 view .LVU1590
 5013 00e0 43F44043 		orr	r3, r3, #49152
 5014              	.LVL521:
1218:Drivers/STM32H5xx_HAL_Driver/Src/stm32h5xx_ll_usb.c ****         }
 5015              		.loc 1 1218 11 is_stmt 0 view .LVU1591
 5016 00e4 43F08003 		orr	r3, r3, #128
 5017 00e8 45F82630 		str	r3, [r5, r6, lsl #2]
 5018 00ec C4E7     		b	.L255
 5019              	.LVL522:
 5020              	.L257:
1218:Drivers/STM32H5xx_HAL_Driver/Src/stm32h5xx_ll_usb.c ****         }
 5021              		.loc 1 1218 11 view .LVU1592
 5022              	.LBE89:
 5023              	.LBB90:
1223:Drivers/STM32H5xx_HAL_Driver/Src/stm32h5xx_ll_usb.c ****     }
 5024              		.loc 1 1223 7 is_stmt 1 discriminator 2 view .LVU1593
 5025 00ee 3E2A     		cmp	r2, #62
 5026 00f0 09D8     		bhi	.L259
1223:Drivers/STM32H5xx_HAL_Driver/Src/stm32h5xx_ll_usb.c ****     }
 5027              		.loc 1 1223 7 discriminator 4 view .LVU1594
1223:Drivers/STM32H5xx_HAL_Driver/Src/stm32h5xx_ll_usb.c ****     }
 5028              		.loc 1 1223 7 discriminator 4 view .LVU1595
 5029 00f2 5108     		lsrs	r1, r2, #1
 5030              	.LVL523:
1223:Drivers/STM32H5xx_HAL_Driver/Src/stm32h5xx_ll_usb.c ****     }
 5031              		.loc 1 1223 7 discriminator 4 view .LVU1596
 5032 00f4 12F0010F 		tst	r2, #1
 5033 00f8 00D0     		beq	.L260
1223:Drivers/STM32H5xx_HAL_Driver/Src/stm32h5xx_ll_usb.c ****     }
 5034              		.loc 1 1223 7 discriminator 6 view .LVU1597
 5035 00fa 0131     		adds	r1, r1, #1
 5036              	.LVL524:
 5037              	.L260:
1223:Drivers/STM32H5xx_HAL_Driver/Src/stm32h5xx_ll_usb.c ****     }
 5038              		.loc 1 1223 7 discriminator 8 view .LVU1598
 5039 00fc 5A68     		ldr	r2, [r3, #4]
 5040 00fe 42EA8162 		orr	r2, r2, r1, lsl #26
 5041 0102 5A60     		str	r2, [r3, #4]
1223:Drivers/STM32H5xx_HAL_Driver/Src/stm32h5xx_ll_usb.c ****     }
 5042              		.loc 1 1223 7 discriminator 8 view .LVU1599
 5043 0104 C7E7     		b	.L258
 5044              	.LVL525:
 5045              	.L259:
1223:Drivers/STM32H5xx_HAL_Driver/Src/stm32h5xx_ll_usb.c ****     }
 5046              		.loc 1 1223 7 discriminator 5 view .LVU1600
1223:Drivers/STM32H5xx_HAL_Driver/Src/stm32h5xx_ll_usb.c ****     }
 5047              		.loc 1 1223 7 discriminator 5 view .LVU1601
 5048 0106 5109     		lsrs	r1, r2, #5
 5049              	.LVL526:
1223:Drivers/STM32H5xx_HAL_Driver/Src/stm32h5xx_ll_usb.c ****     }
 5050              		.loc 1 1223 7 discriminator 5 view .LVU1602
 5051 0108 12F01F0F 		tst	r2, #31
 5052 010c 00D1     		bne	.L261
1223:Drivers/STM32H5xx_HAL_Driver/Src/stm32h5xx_ll_usb.c ****     }
ARM GAS  C:\Users\sapph\AppData\Local\Temp\cchEHrSS.s 			page 131


 5053              		.loc 1 1223 7 discriminator 10 view .LVU1603
 5054 010e 0139     		subs	r1, r1, #1
 5055              	.LVL527:
 5056              	.L261:
1223:Drivers/STM32H5xx_HAL_Driver/Src/stm32h5xx_ll_usb.c ****     }
 5057              		.loc 1 1223 7 discriminator 12 view .LVU1604
 5058 0110 5A68     		ldr	r2, [r3, #4]
 5059 0112 42EA8162 		orr	r2, r2, r1, lsl #26
 5060 0116 42F00042 		orr	r2, r2, #-2147483648
 5061 011a 5A60     		str	r2, [r3, #4]
 5062 011c BBE7     		b	.L258
 5063              	.LVL528:
 5064              	.L254:
1223:Drivers/STM32H5xx_HAL_Driver/Src/stm32h5xx_ll_usb.c ****     }
 5065              		.loc 1 1223 7 is_stmt 0 discriminator 12 view .LVU1605
 5066              	.LBE90:
1226:Drivers/STM32H5xx_HAL_Driver/Src/stm32h5xx_ll_usb.c ****     {
 5067              		.loc 1 1226 10 is_stmt 1 view .LVU1606
1226:Drivers/STM32H5xx_HAL_Driver/Src/stm32h5xx_ll_usb.c ****     {
 5068              		.loc 1 1226 16 is_stmt 0 view .LVU1607
 5069 011e E179     		ldrb	r1, [r4, #7]	@ zero_extendqisi2
1226:Drivers/STM32H5xx_HAL_Driver/Src/stm32h5xx_ll_usb.c ****     {
 5070              		.loc 1 1226 13 view .LVU1608
 5071 0120 0229     		cmp	r1, #2
 5072 0122 1DD0     		beq	.L299
1248:Drivers/STM32H5xx_HAL_Driver/Src/stm32h5xx_ll_usb.c ****       USB_DRD_SET_CHEP_DBUF1_CNT(USBx, phy_ch_num, 0U, len);
 5073              		.loc 1 1248 7 is_stmt 1 view .LVU1609
1248:Drivers/STM32H5xx_HAL_Driver/Src/stm32h5xx_ll_usb.c ****       USB_DRD_SET_CHEP_DBUF1_CNT(USBx, phy_ch_num, 0U, len);
 5074              		.loc 1 1248 7 view .LVU1610
1248:Drivers/STM32H5xx_HAL_Driver/Src/stm32h5xx_ll_usb.c ****       USB_DRD_SET_CHEP_DBUF1_CNT(USBx, phy_ch_num, 0U, len);
 5075              		.loc 1 1248 7 discriminator 1 view .LVU1611
 5076              	.LBB91:
1248:Drivers/STM32H5xx_HAL_Driver/Src/stm32h5xx_ll_usb.c ****       USB_DRD_SET_CHEP_DBUF1_CNT(USBx, phy_ch_num, 0U, len);
 5077              		.loc 1 1248 7 discriminator 1 view .LVU1612
1248:Drivers/STM32H5xx_HAL_Driver/Src/stm32h5xx_ll_usb.c ****       USB_DRD_SET_CHEP_DBUF1_CNT(USBx, phy_ch_num, 0U, len);
 5078              		.loc 1 1248 7 discriminator 1 view .LVU1613
 5079 0124 F200     		lsls	r2, r6, #3
 5080 0126 02F18042 		add	r2, r2, #1073741824
 5081 012a 02F5B232 		add	r2, r2, #91136
 5082 012e 1368     		ldr	r3, [r2]
 5083 0130 23F07C43 		bic	r3, r3, #-67108864
 5084 0134 1360     		str	r3, [r2]
1248:Drivers/STM32H5xx_HAL_Driver/Src/stm32h5xx_ll_usb.c ****       USB_DRD_SET_CHEP_DBUF1_CNT(USBx, phy_ch_num, 0U, len);
 5085              		.loc 1 1248 7 discriminator 1 view .LVU1614
 5086 0136 019B     		ldr	r3, [sp, #4]
 5087 0138 002B     		cmp	r3, #0
 5088 013a 40F08F80 		bne	.L277
1248:Drivers/STM32H5xx_HAL_Driver/Src/stm32h5xx_ll_usb.c ****       USB_DRD_SET_CHEP_DBUF1_CNT(USBx, phy_ch_num, 0U, len);
 5089              		.loc 1 1248 7 discriminator 3 view .LVU1615
 5090 013e 1368     		ldr	r3, [r2]
 5091 0140 43F00043 		orr	r3, r3, #-2147483648
 5092 0144 1360     		str	r3, [r2]
 5093              	.L278:
1248:Drivers/STM32H5xx_HAL_Driver/Src/stm32h5xx_ll_usb.c ****       USB_DRD_SET_CHEP_DBUF1_CNT(USBx, phy_ch_num, 0U, len);
 5094              		.loc 1 1248 7 discriminator 15 view .LVU1616
 5095              	.LBE91:
1248:Drivers/STM32H5xx_HAL_Driver/Src/stm32h5xx_ll_usb.c ****       USB_DRD_SET_CHEP_DBUF1_CNT(USBx, phy_ch_num, 0U, len);
ARM GAS  C:\Users\sapph\AppData\Local\Temp\cchEHrSS.s 			page 132


 5096              		.loc 1 1248 7 discriminator 15 view .LVU1617
1248:Drivers/STM32H5xx_HAL_Driver/Src/stm32h5xx_ll_usb.c ****       USB_DRD_SET_CHEP_DBUF1_CNT(USBx, phy_ch_num, 0U, len);
 5097              		.loc 1 1248 7 discriminator 18 view .LVU1618
1248:Drivers/STM32H5xx_HAL_Driver/Src/stm32h5xx_ll_usb.c ****       USB_DRD_SET_CHEP_DBUF1_CNT(USBx, phy_ch_num, 0U, len);
 5098              		.loc 1 1248 7 discriminator 18 view .LVU1619
1249:Drivers/STM32H5xx_HAL_Driver/Src/stm32h5xx_ll_usb.c ****     }
 5099              		.loc 1 1249 7 view .LVU1620
1249:Drivers/STM32H5xx_HAL_Driver/Src/stm32h5xx_ll_usb.c ****     }
 5100              		.loc 1 1249 7 view .LVU1621
1249:Drivers/STM32H5xx_HAL_Driver/Src/stm32h5xx_ll_usb.c ****     }
 5101              		.loc 1 1249 7 discriminator 1 view .LVU1622
 5102              	.LBB92:
1249:Drivers/STM32H5xx_HAL_Driver/Src/stm32h5xx_ll_usb.c ****     }
 5103              		.loc 1 1249 7 discriminator 1 view .LVU1623
1249:Drivers/STM32H5xx_HAL_Driver/Src/stm32h5xx_ll_usb.c ****     }
 5104              		.loc 1 1249 7 discriminator 1 view .LVU1624
 5105 0146 5368     		ldr	r3, [r2, #4]
 5106 0148 23F07C43 		bic	r3, r3, #-67108864
 5107 014c 5360     		str	r3, [r2, #4]
1249:Drivers/STM32H5xx_HAL_Driver/Src/stm32h5xx_ll_usb.c ****     }
 5108              		.loc 1 1249 7 discriminator 1 view .LVU1625
 5109 014e 019B     		ldr	r3, [sp, #4]
 5110 0150 002B     		cmp	r3, #0
 5111 0152 40F09B80 		bne	.L282
1249:Drivers/STM32H5xx_HAL_Driver/Src/stm32h5xx_ll_usb.c ****     }
 5112              		.loc 1 1249 7 discriminator 3 view .LVU1626
 5113 0156 5368     		ldr	r3, [r2, #4]
 5114 0158 43F00043 		orr	r3, r3, #-2147483648
 5115 015c 5360     		str	r3, [r2, #4]
 5116 015e 9AE7     		b	.L258
 5117              	.L299:
1249:Drivers/STM32H5xx_HAL_Driver/Src/stm32h5xx_ll_usb.c ****     }
 5118              		.loc 1 1249 7 is_stmt 0 discriminator 3 view .LVU1627
 5119              	.LBE92:
1229:Drivers/STM32H5xx_HAL_Driver/Src/stm32h5xx_ll_usb.c ****       {
 5120              		.loc 1 1229 7 is_stmt 1 view .LVU1628
1229:Drivers/STM32H5xx_HAL_Driver/Src/stm32h5xx_ll_usb.c ****       {
 5121              		.loc 1 1229 10 is_stmt 0 view .LVU1629
 5122 0160 9A42     		cmp	r2, r3
 5123 0162 4ED9     		bls	.L263
1231:Drivers/STM32H5xx_HAL_Driver/Src/stm32h5xx_ll_usb.c **** 
 5124              		.loc 1 1231 9 is_stmt 1 view .LVU1630
1231:Drivers/STM32H5xx_HAL_Driver/Src/stm32h5xx_ll_usb.c **** 
 5125              		.loc 1 1231 15 is_stmt 0 view .LVU1631
 5126 0164 0122     		movs	r2, #1
 5127 0166 3146     		mov	r1, r6
 5128 0168 2846     		mov	r0, r5
 5129              	.LVL529:
1231:Drivers/STM32H5xx_HAL_Driver/Src/stm32h5xx_ll_usb.c **** 
 5130              		.loc 1 1231 15 view .LVU1632
 5131 016a FFF7FEFF 		bl	USB_HC_DoubleBuffer
 5132              	.LVL530:
1234:Drivers/STM32H5xx_HAL_Driver/Src/stm32h5xx_ll_usb.c ****         USB_DRD_SET_CHEP_DBUF1_CNT(USBx, phy_ch_num, 0U, len);
 5133              		.loc 1 1234 9 is_stmt 1 view .LVU1633
1234:Drivers/STM32H5xx_HAL_Driver/Src/stm32h5xx_ll_usb.c ****         USB_DRD_SET_CHEP_DBUF1_CNT(USBx, phy_ch_num, 0U, len);
 5134              		.loc 1 1234 9 view .LVU1634
1234:Drivers/STM32H5xx_HAL_Driver/Src/stm32h5xx_ll_usb.c ****         USB_DRD_SET_CHEP_DBUF1_CNT(USBx, phy_ch_num, 0U, len);
ARM GAS  C:\Users\sapph\AppData\Local\Temp\cchEHrSS.s 			page 133


 5135              		.loc 1 1234 9 discriminator 1 view .LVU1635
 5136              	.LBB93:
1234:Drivers/STM32H5xx_HAL_Driver/Src/stm32h5xx_ll_usb.c ****         USB_DRD_SET_CHEP_DBUF1_CNT(USBx, phy_ch_num, 0U, len);
 5137              		.loc 1 1234 9 discriminator 1 view .LVU1636
1234:Drivers/STM32H5xx_HAL_Driver/Src/stm32h5xx_ll_usb.c ****         USB_DRD_SET_CHEP_DBUF1_CNT(USBx, phy_ch_num, 0U, len);
 5138              		.loc 1 1234 9 discriminator 1 view .LVU1637
 5139 016e F300     		lsls	r3, r6, #3
 5140 0170 03F18043 		add	r3, r3, #1073741824
 5141 0174 03F5B233 		add	r3, r3, #91136
 5142 0178 1A68     		ldr	r2, [r3]
 5143 017a 22F07C42 		bic	r2, r2, #-67108864
 5144 017e 1A60     		str	r2, [r3]
1234:Drivers/STM32H5xx_HAL_Driver/Src/stm32h5xx_ll_usb.c ****         USB_DRD_SET_CHEP_DBUF1_CNT(USBx, phy_ch_num, 0U, len);
 5145              		.loc 1 1234 9 discriminator 1 view .LVU1638
 5146 0180 019A     		ldr	r2, [sp, #4]
 5147 0182 72B9     		cbnz	r2, .L264
1234:Drivers/STM32H5xx_HAL_Driver/Src/stm32h5xx_ll_usb.c ****         USB_DRD_SET_CHEP_DBUF1_CNT(USBx, phy_ch_num, 0U, len);
 5148              		.loc 1 1234 9 discriminator 3 view .LVU1639
 5149 0184 1A68     		ldr	r2, [r3]
 5150 0186 42F00042 		orr	r2, r2, #-2147483648
 5151 018a 1A60     		str	r2, [r3]
 5152              	.L265:
1234:Drivers/STM32H5xx_HAL_Driver/Src/stm32h5xx_ll_usb.c ****         USB_DRD_SET_CHEP_DBUF1_CNT(USBx, phy_ch_num, 0U, len);
 5153              		.loc 1 1234 9 discriminator 15 view .LVU1640
 5154              	.LBE93:
1234:Drivers/STM32H5xx_HAL_Driver/Src/stm32h5xx_ll_usb.c ****         USB_DRD_SET_CHEP_DBUF1_CNT(USBx, phy_ch_num, 0U, len);
 5155              		.loc 1 1234 9 discriminator 15 view .LVU1641
1234:Drivers/STM32H5xx_HAL_Driver/Src/stm32h5xx_ll_usb.c ****         USB_DRD_SET_CHEP_DBUF1_CNT(USBx, phy_ch_num, 0U, len);
 5156              		.loc 1 1234 9 discriminator 18 view .LVU1642
1234:Drivers/STM32H5xx_HAL_Driver/Src/stm32h5xx_ll_usb.c ****         USB_DRD_SET_CHEP_DBUF1_CNT(USBx, phy_ch_num, 0U, len);
 5157              		.loc 1 1234 9 discriminator 18 view .LVU1643
1235:Drivers/STM32H5xx_HAL_Driver/Src/stm32h5xx_ll_usb.c ****       }
 5158              		.loc 1 1235 9 view .LVU1644
1235:Drivers/STM32H5xx_HAL_Driver/Src/stm32h5xx_ll_usb.c ****       }
 5159              		.loc 1 1235 9 view .LVU1645
1235:Drivers/STM32H5xx_HAL_Driver/Src/stm32h5xx_ll_usb.c ****       }
 5160              		.loc 1 1235 9 discriminator 1 view .LVU1646
 5161              	.LBB94:
1235:Drivers/STM32H5xx_HAL_Driver/Src/stm32h5xx_ll_usb.c ****       }
 5162              		.loc 1 1235 9 discriminator 1 view .LVU1647
1235:Drivers/STM32H5xx_HAL_Driver/Src/stm32h5xx_ll_usb.c ****       }
 5163              		.loc 1 1235 9 discriminator 1 view .LVU1648
 5164 018c 5A68     		ldr	r2, [r3, #4]
 5165 018e 22F07C42 		bic	r2, r2, #-67108864
 5166 0192 5A60     		str	r2, [r3, #4]
1235:Drivers/STM32H5xx_HAL_Driver/Src/stm32h5xx_ll_usb.c ****       }
 5167              		.loc 1 1235 9 discriminator 1 view .LVU1649
 5168 0194 019A     		ldr	r2, [sp, #4]
 5169 0196 E2B9     		cbnz	r2, .L269
1235:Drivers/STM32H5xx_HAL_Driver/Src/stm32h5xx_ll_usb.c ****       }
 5170              		.loc 1 1235 9 discriminator 3 view .LVU1650
 5171 0198 5A68     		ldr	r2, [r3, #4]
 5172 019a 42F00042 		orr	r2, r2, #-2147483648
 5173 019e 5A60     		str	r2, [r3, #4]
 5174 01a0 79E7     		b	.L258
 5175              	.L264:
 5176              	.LBE94:
ARM GAS  C:\Users\sapph\AppData\Local\Temp\cchEHrSS.s 			page 134


 5177              	.LBB95:
1234:Drivers/STM32H5xx_HAL_Driver/Src/stm32h5xx_ll_usb.c ****         USB_DRD_SET_CHEP_DBUF1_CNT(USBx, phy_ch_num, 0U, len);
 5178              		.loc 1 1234 9 discriminator 4 view .LVU1651
 5179 01a2 3E2A     		cmp	r2, #62
 5180 01a4 09D8     		bhi	.L266
1234:Drivers/STM32H5xx_HAL_Driver/Src/stm32h5xx_ll_usb.c ****         USB_DRD_SET_CHEP_DBUF1_CNT(USBx, phy_ch_num, 0U, len);
 5181              		.loc 1 1234 9 discriminator 6 view .LVU1652
1234:Drivers/STM32H5xx_HAL_Driver/Src/stm32h5xx_ll_usb.c ****         USB_DRD_SET_CHEP_DBUF1_CNT(USBx, phy_ch_num, 0U, len);
 5182              		.loc 1 1234 9 discriminator 6 view .LVU1653
 5183 01a6 5108     		lsrs	r1, r2, #1
 5184              	.LVL531:
1234:Drivers/STM32H5xx_HAL_Driver/Src/stm32h5xx_ll_usb.c ****         USB_DRD_SET_CHEP_DBUF1_CNT(USBx, phy_ch_num, 0U, len);
 5185              		.loc 1 1234 9 discriminator 6 view .LVU1654
 5186 01a8 12F0010F 		tst	r2, #1
 5187 01ac 00D0     		beq	.L267
1234:Drivers/STM32H5xx_HAL_Driver/Src/stm32h5xx_ll_usb.c ****         USB_DRD_SET_CHEP_DBUF1_CNT(USBx, phy_ch_num, 0U, len);
 5188              		.loc 1 1234 9 discriminator 8 view .LVU1655
 5189 01ae 0131     		adds	r1, r1, #1
 5190              	.LVL532:
 5191              	.L267:
1234:Drivers/STM32H5xx_HAL_Driver/Src/stm32h5xx_ll_usb.c ****         USB_DRD_SET_CHEP_DBUF1_CNT(USBx, phy_ch_num, 0U, len);
 5192              		.loc 1 1234 9 discriminator 10 view .LVU1656
 5193 01b0 1A68     		ldr	r2, [r3]
 5194 01b2 42EA8162 		orr	r2, r2, r1, lsl #26
 5195 01b6 1A60     		str	r2, [r3]
1234:Drivers/STM32H5xx_HAL_Driver/Src/stm32h5xx_ll_usb.c ****         USB_DRD_SET_CHEP_DBUF1_CNT(USBx, phy_ch_num, 0U, len);
 5196              		.loc 1 1234 9 discriminator 10 view .LVU1657
 5197 01b8 E8E7     		b	.L265
 5198              	.LVL533:
 5199              	.L266:
1234:Drivers/STM32H5xx_HAL_Driver/Src/stm32h5xx_ll_usb.c ****         USB_DRD_SET_CHEP_DBUF1_CNT(USBx, phy_ch_num, 0U, len);
 5200              		.loc 1 1234 9 discriminator 7 view .LVU1658
1234:Drivers/STM32H5xx_HAL_Driver/Src/stm32h5xx_ll_usb.c ****         USB_DRD_SET_CHEP_DBUF1_CNT(USBx, phy_ch_num, 0U, len);
 5201              		.loc 1 1234 9 discriminator 7 view .LVU1659
 5202 01ba 5109     		lsrs	r1, r2, #5
 5203              	.LVL534:
1234:Drivers/STM32H5xx_HAL_Driver/Src/stm32h5xx_ll_usb.c ****         USB_DRD_SET_CHEP_DBUF1_CNT(USBx, phy_ch_num, 0U, len);
 5204              		.loc 1 1234 9 discriminator 7 view .LVU1660
 5205 01bc 12F01F0F 		tst	r2, #31
 5206 01c0 00D1     		bne	.L268
1234:Drivers/STM32H5xx_HAL_Driver/Src/stm32h5xx_ll_usb.c ****         USB_DRD_SET_CHEP_DBUF1_CNT(USBx, phy_ch_num, 0U, len);
 5207              		.loc 1 1234 9 discriminator 12 view .LVU1661
 5208 01c2 0139     		subs	r1, r1, #1
 5209              	.LVL535:
 5210              	.L268:
1234:Drivers/STM32H5xx_HAL_Driver/Src/stm32h5xx_ll_usb.c ****         USB_DRD_SET_CHEP_DBUF1_CNT(USBx, phy_ch_num, 0U, len);
 5211              		.loc 1 1234 9 discriminator 14 view .LVU1662
 5212 01c4 1A68     		ldr	r2, [r3]
 5213 01c6 42EA8162 		orr	r2, r2, r1, lsl #26
 5214 01ca 42F00042 		orr	r2, r2, #-2147483648
 5215 01ce 1A60     		str	r2, [r3]
 5216 01d0 DCE7     		b	.L265
 5217              	.LVL536:
 5218              	.L269:
1234:Drivers/STM32H5xx_HAL_Driver/Src/stm32h5xx_ll_usb.c ****         USB_DRD_SET_CHEP_DBUF1_CNT(USBx, phy_ch_num, 0U, len);
 5219              		.loc 1 1234 9 is_stmt 0 discriminator 14 view .LVU1663
 5220              	.LBE95:
ARM GAS  C:\Users\sapph\AppData\Local\Temp\cchEHrSS.s 			page 135


 5221              	.LBB96:
1235:Drivers/STM32H5xx_HAL_Driver/Src/stm32h5xx_ll_usb.c ****       }
 5222              		.loc 1 1235 9 is_stmt 1 discriminator 4 view .LVU1664
 5223 01d2 3E2A     		cmp	r2, #62
 5224 01d4 09D8     		bhi	.L270
1235:Drivers/STM32H5xx_HAL_Driver/Src/stm32h5xx_ll_usb.c ****       }
 5225              		.loc 1 1235 9 discriminator 6 view .LVU1665
1235:Drivers/STM32H5xx_HAL_Driver/Src/stm32h5xx_ll_usb.c ****       }
 5226              		.loc 1 1235 9 discriminator 6 view .LVU1666
 5227 01d6 5108     		lsrs	r1, r2, #1
 5228              	.LVL537:
1235:Drivers/STM32H5xx_HAL_Driver/Src/stm32h5xx_ll_usb.c ****       }
 5229              		.loc 1 1235 9 discriminator 6 view .LVU1667
 5230 01d8 12F0010F 		tst	r2, #1
 5231 01dc 00D0     		beq	.L271
1235:Drivers/STM32H5xx_HAL_Driver/Src/stm32h5xx_ll_usb.c ****       }
 5232              		.loc 1 1235 9 discriminator 8 view .LVU1668
 5233 01de 0131     		adds	r1, r1, #1
 5234              	.LVL538:
 5235              	.L271:
1235:Drivers/STM32H5xx_HAL_Driver/Src/stm32h5xx_ll_usb.c ****       }
 5236              		.loc 1 1235 9 discriminator 10 view .LVU1669
 5237 01e0 5A68     		ldr	r2, [r3, #4]
 5238 01e2 42EA8162 		orr	r2, r2, r1, lsl #26
 5239 01e6 5A60     		str	r2, [r3, #4]
1235:Drivers/STM32H5xx_HAL_Driver/Src/stm32h5xx_ll_usb.c ****       }
 5240              		.loc 1 1235 9 discriminator 10 view .LVU1670
 5241 01e8 55E7     		b	.L258
 5242              	.LVL539:
 5243              	.L270:
1235:Drivers/STM32H5xx_HAL_Driver/Src/stm32h5xx_ll_usb.c ****       }
 5244              		.loc 1 1235 9 discriminator 7 view .LVU1671
1235:Drivers/STM32H5xx_HAL_Driver/Src/stm32h5xx_ll_usb.c ****       }
 5245              		.loc 1 1235 9 discriminator 7 view .LVU1672
 5246 01ea 5109     		lsrs	r1, r2, #5
 5247              	.LVL540:
1235:Drivers/STM32H5xx_HAL_Driver/Src/stm32h5xx_ll_usb.c ****       }
 5248              		.loc 1 1235 9 discriminator 7 view .LVU1673
 5249 01ec 12F01F0F 		tst	r2, #31
 5250 01f0 00D1     		bne	.L272
1235:Drivers/STM32H5xx_HAL_Driver/Src/stm32h5xx_ll_usb.c ****       }
 5251              		.loc 1 1235 9 discriminator 12 view .LVU1674
 5252 01f2 0139     		subs	r1, r1, #1
 5253              	.LVL541:
 5254              	.L272:
1235:Drivers/STM32H5xx_HAL_Driver/Src/stm32h5xx_ll_usb.c ****       }
 5255              		.loc 1 1235 9 discriminator 14 view .LVU1675
 5256 01f4 5A68     		ldr	r2, [r3, #4]
 5257 01f6 42EA8162 		orr	r2, r2, r1, lsl #26
 5258 01fa 42F00042 		orr	r2, r2, #-2147483648
 5259 01fe 5A60     		str	r2, [r3, #4]
 5260 0200 49E7     		b	.L258
 5261              	.LVL542:
 5262              	.L263:
1235:Drivers/STM32H5xx_HAL_Driver/Src/stm32h5xx_ll_usb.c ****       }
 5263              		.loc 1 1235 9 is_stmt 0 discriminator 14 view .LVU1676
 5264              	.LBE96:
ARM GAS  C:\Users\sapph\AppData\Local\Temp\cchEHrSS.s 			page 136


1239:Drivers/STM32H5xx_HAL_Driver/Src/stm32h5xx_ll_usb.c **** 
 5265              		.loc 1 1239 9 is_stmt 1 view .LVU1677
1239:Drivers/STM32H5xx_HAL_Driver/Src/stm32h5xx_ll_usb.c **** 
 5266              		.loc 1 1239 15 is_stmt 0 view .LVU1678
 5267 0202 0222     		movs	r2, #2
 5268 0204 3146     		mov	r1, r6
 5269 0206 2846     		mov	r0, r5
 5270              	.LVL543:
1239:Drivers/STM32H5xx_HAL_Driver/Src/stm32h5xx_ll_usb.c **** 
 5271              		.loc 1 1239 15 view .LVU1679
 5272 0208 FFF7FEFF 		bl	USB_HC_DoubleBuffer
 5273              	.LVL544:
1242:Drivers/STM32H5xx_HAL_Driver/Src/stm32h5xx_ll_usb.c ****       }
 5274              		.loc 1 1242 9 is_stmt 1 view .LVU1680
 5275              	.LBB97:
1242:Drivers/STM32H5xx_HAL_Driver/Src/stm32h5xx_ll_usb.c ****       }
 5276              		.loc 1 1242 9 view .LVU1681
1242:Drivers/STM32H5xx_HAL_Driver/Src/stm32h5xx_ll_usb.c ****       }
 5277              		.loc 1 1242 9 view .LVU1682
 5278 020c F300     		lsls	r3, r6, #3
 5279 020e 03F18043 		add	r3, r3, #1073741824
 5280 0212 03F5B233 		add	r3, r3, #91136
 5281 0216 5A68     		ldr	r2, [r3, #4]
 5282 0218 22F07C42 		bic	r2, r2, #-67108864
 5283 021c 5A60     		str	r2, [r3, #4]
1242:Drivers/STM32H5xx_HAL_Driver/Src/stm32h5xx_ll_usb.c ****       }
 5284              		.loc 1 1242 9 view .LVU1683
 5285 021e 019A     		ldr	r2, [sp, #4]
 5286 0220 22B9     		cbnz	r2, .L273
1242:Drivers/STM32H5xx_HAL_Driver/Src/stm32h5xx_ll_usb.c ****       }
 5287              		.loc 1 1242 9 discriminator 1 view .LVU1684
 5288 0222 5A68     		ldr	r2, [r3, #4]
 5289 0224 42F00042 		orr	r2, r2, #-2147483648
 5290 0228 5A60     		str	r2, [r3, #4]
 5291 022a 34E7     		b	.L258
 5292              	.L273:
1242:Drivers/STM32H5xx_HAL_Driver/Src/stm32h5xx_ll_usb.c ****       }
 5293              		.loc 1 1242 9 discriminator 2 view .LVU1685
 5294 022c 3E2A     		cmp	r2, #62
 5295 022e 09D8     		bhi	.L274
1242:Drivers/STM32H5xx_HAL_Driver/Src/stm32h5xx_ll_usb.c ****       }
 5296              		.loc 1 1242 9 discriminator 4 view .LVU1686
1242:Drivers/STM32H5xx_HAL_Driver/Src/stm32h5xx_ll_usb.c ****       }
 5297              		.loc 1 1242 9 discriminator 4 view .LVU1687
 5298 0230 5108     		lsrs	r1, r2, #1
 5299              	.LVL545:
1242:Drivers/STM32H5xx_HAL_Driver/Src/stm32h5xx_ll_usb.c ****       }
 5300              		.loc 1 1242 9 discriminator 4 view .LVU1688
 5301 0232 12F0010F 		tst	r2, #1
 5302 0236 00D0     		beq	.L275
1242:Drivers/STM32H5xx_HAL_Driver/Src/stm32h5xx_ll_usb.c ****       }
 5303              		.loc 1 1242 9 discriminator 6 view .LVU1689
 5304 0238 0131     		adds	r1, r1, #1
 5305              	.LVL546:
 5306              	.L275:
1242:Drivers/STM32H5xx_HAL_Driver/Src/stm32h5xx_ll_usb.c ****       }
 5307              		.loc 1 1242 9 discriminator 8 view .LVU1690
ARM GAS  C:\Users\sapph\AppData\Local\Temp\cchEHrSS.s 			page 137


 5308 023a 5A68     		ldr	r2, [r3, #4]
 5309 023c 42EA8162 		orr	r2, r2, r1, lsl #26
 5310 0240 5A60     		str	r2, [r3, #4]
1242:Drivers/STM32H5xx_HAL_Driver/Src/stm32h5xx_ll_usb.c ****       }
 5311              		.loc 1 1242 9 discriminator 8 view .LVU1691
 5312 0242 28E7     		b	.L258
 5313              	.LVL547:
 5314              	.L274:
1242:Drivers/STM32H5xx_HAL_Driver/Src/stm32h5xx_ll_usb.c ****       }
 5315              		.loc 1 1242 9 discriminator 5 view .LVU1692
1242:Drivers/STM32H5xx_HAL_Driver/Src/stm32h5xx_ll_usb.c ****       }
 5316              		.loc 1 1242 9 discriminator 5 view .LVU1693
 5317 0244 5109     		lsrs	r1, r2, #5
 5318              	.LVL548:
1242:Drivers/STM32H5xx_HAL_Driver/Src/stm32h5xx_ll_usb.c ****       }
 5319              		.loc 1 1242 9 discriminator 5 view .LVU1694
 5320 0246 12F01F0F 		tst	r2, #31
 5321 024a 00D1     		bne	.L276
1242:Drivers/STM32H5xx_HAL_Driver/Src/stm32h5xx_ll_usb.c ****       }
 5322              		.loc 1 1242 9 discriminator 10 view .LVU1695
 5323 024c 0139     		subs	r1, r1, #1
 5324              	.LVL549:
 5325              	.L276:
1242:Drivers/STM32H5xx_HAL_Driver/Src/stm32h5xx_ll_usb.c ****       }
 5326              		.loc 1 1242 9 discriminator 12 view .LVU1696
 5327 024e 5A68     		ldr	r2, [r3, #4]
 5328 0250 42EA8162 		orr	r2, r2, r1, lsl #26
 5329 0254 42F00042 		orr	r2, r2, #-2147483648
 5330 0258 5A60     		str	r2, [r3, #4]
 5331 025a 1CE7     		b	.L258
 5332              	.LVL550:
 5333              	.L277:
1242:Drivers/STM32H5xx_HAL_Driver/Src/stm32h5xx_ll_usb.c ****       }
 5334              		.loc 1 1242 9 is_stmt 0 discriminator 12 view .LVU1697
 5335              	.LBE97:
 5336              	.LBB98:
1248:Drivers/STM32H5xx_HAL_Driver/Src/stm32h5xx_ll_usb.c ****       USB_DRD_SET_CHEP_DBUF1_CNT(USBx, phy_ch_num, 0U, len);
 5337              		.loc 1 1248 7 is_stmt 1 discriminator 4 view .LVU1698
 5338 025c 3E2B     		cmp	r3, #62
 5339 025e 09D8     		bhi	.L279
1248:Drivers/STM32H5xx_HAL_Driver/Src/stm32h5xx_ll_usb.c ****       USB_DRD_SET_CHEP_DBUF1_CNT(USBx, phy_ch_num, 0U, len);
 5340              		.loc 1 1248 7 discriminator 6 view .LVU1699
1248:Drivers/STM32H5xx_HAL_Driver/Src/stm32h5xx_ll_usb.c ****       USB_DRD_SET_CHEP_DBUF1_CNT(USBx, phy_ch_num, 0U, len);
 5341              		.loc 1 1248 7 discriminator 6 view .LVU1700
 5342 0260 5908     		lsrs	r1, r3, #1
 5343              	.LVL551:
1248:Drivers/STM32H5xx_HAL_Driver/Src/stm32h5xx_ll_usb.c ****       USB_DRD_SET_CHEP_DBUF1_CNT(USBx, phy_ch_num, 0U, len);
 5344              		.loc 1 1248 7 discriminator 6 view .LVU1701
 5345 0262 13F0010F 		tst	r3, #1
 5346 0266 00D0     		beq	.L280
1248:Drivers/STM32H5xx_HAL_Driver/Src/stm32h5xx_ll_usb.c ****       USB_DRD_SET_CHEP_DBUF1_CNT(USBx, phy_ch_num, 0U, len);
 5347              		.loc 1 1248 7 discriminator 8 view .LVU1702
 5348 0268 0131     		adds	r1, r1, #1
 5349              	.LVL552:
 5350              	.L280:
1248:Drivers/STM32H5xx_HAL_Driver/Src/stm32h5xx_ll_usb.c ****       USB_DRD_SET_CHEP_DBUF1_CNT(USBx, phy_ch_num, 0U, len);
 5351              		.loc 1 1248 7 discriminator 10 view .LVU1703
ARM GAS  C:\Users\sapph\AppData\Local\Temp\cchEHrSS.s 			page 138


 5352 026a 1368     		ldr	r3, [r2]
 5353 026c 43EA8163 		orr	r3, r3, r1, lsl #26
 5354 0270 1360     		str	r3, [r2]
1248:Drivers/STM32H5xx_HAL_Driver/Src/stm32h5xx_ll_usb.c ****       USB_DRD_SET_CHEP_DBUF1_CNT(USBx, phy_ch_num, 0U, len);
 5355              		.loc 1 1248 7 discriminator 10 view .LVU1704
 5356 0272 68E7     		b	.L278
 5357              	.LVL553:
 5358              	.L279:
1248:Drivers/STM32H5xx_HAL_Driver/Src/stm32h5xx_ll_usb.c ****       USB_DRD_SET_CHEP_DBUF1_CNT(USBx, phy_ch_num, 0U, len);
 5359              		.loc 1 1248 7 discriminator 7 view .LVU1705
1248:Drivers/STM32H5xx_HAL_Driver/Src/stm32h5xx_ll_usb.c ****       USB_DRD_SET_CHEP_DBUF1_CNT(USBx, phy_ch_num, 0U, len);
 5360              		.loc 1 1248 7 discriminator 7 view .LVU1706
 5361 0274 5909     		lsrs	r1, r3, #5
 5362              	.LVL554:
1248:Drivers/STM32H5xx_HAL_Driver/Src/stm32h5xx_ll_usb.c ****       USB_DRD_SET_CHEP_DBUF1_CNT(USBx, phy_ch_num, 0U, len);
 5363              		.loc 1 1248 7 discriminator 7 view .LVU1707
 5364 0276 13F01F0F 		tst	r3, #31
 5365 027a 00D1     		bne	.L281
1248:Drivers/STM32H5xx_HAL_Driver/Src/stm32h5xx_ll_usb.c ****       USB_DRD_SET_CHEP_DBUF1_CNT(USBx, phy_ch_num, 0U, len);
 5366              		.loc 1 1248 7 discriminator 12 view .LVU1708
 5367 027c 0139     		subs	r1, r1, #1
 5368              	.LVL555:
 5369              	.L281:
1248:Drivers/STM32H5xx_HAL_Driver/Src/stm32h5xx_ll_usb.c ****       USB_DRD_SET_CHEP_DBUF1_CNT(USBx, phy_ch_num, 0U, len);
 5370              		.loc 1 1248 7 discriminator 14 view .LVU1709
 5371 027e 1368     		ldr	r3, [r2]
 5372 0280 43EA8163 		orr	r3, r3, r1, lsl #26
 5373 0284 43F00043 		orr	r3, r3, #-2147483648
 5374 0288 1360     		str	r3, [r2]
 5375 028a 5CE7     		b	.L278
 5376              	.LVL556:
 5377              	.L282:
1248:Drivers/STM32H5xx_HAL_Driver/Src/stm32h5xx_ll_usb.c ****       USB_DRD_SET_CHEP_DBUF1_CNT(USBx, phy_ch_num, 0U, len);
 5378              		.loc 1 1248 7 is_stmt 0 discriminator 14 view .LVU1710
 5379              	.LBE98:
 5380              	.LBB99:
1249:Drivers/STM32H5xx_HAL_Driver/Src/stm32h5xx_ll_usb.c ****     }
 5381              		.loc 1 1249 7 is_stmt 1 discriminator 4 view .LVU1711
 5382 028c 3E2B     		cmp	r3, #62
 5383 028e 09D8     		bhi	.L283
1249:Drivers/STM32H5xx_HAL_Driver/Src/stm32h5xx_ll_usb.c ****     }
 5384              		.loc 1 1249 7 discriminator 6 view .LVU1712
1249:Drivers/STM32H5xx_HAL_Driver/Src/stm32h5xx_ll_usb.c ****     }
 5385              		.loc 1 1249 7 discriminator 6 view .LVU1713
 5386 0290 5908     		lsrs	r1, r3, #1
 5387              	.LVL557:
1249:Drivers/STM32H5xx_HAL_Driver/Src/stm32h5xx_ll_usb.c ****     }
 5388              		.loc 1 1249 7 discriminator 6 view .LVU1714
 5389 0292 13F0010F 		tst	r3, #1
 5390 0296 00D0     		beq	.L284
1249:Drivers/STM32H5xx_HAL_Driver/Src/stm32h5xx_ll_usb.c ****     }
 5391              		.loc 1 1249 7 discriminator 8 view .LVU1715
 5392 0298 0131     		adds	r1, r1, #1
 5393              	.LVL558:
 5394              	.L284:
1249:Drivers/STM32H5xx_HAL_Driver/Src/stm32h5xx_ll_usb.c ****     }
 5395              		.loc 1 1249 7 discriminator 10 view .LVU1716
ARM GAS  C:\Users\sapph\AppData\Local\Temp\cchEHrSS.s 			page 139


 5396 029a 5368     		ldr	r3, [r2, #4]
 5397 029c 43EA8163 		orr	r3, r3, r1, lsl #26
 5398 02a0 5360     		str	r3, [r2, #4]
1249:Drivers/STM32H5xx_HAL_Driver/Src/stm32h5xx_ll_usb.c ****     }
 5399              		.loc 1 1249 7 discriminator 10 view .LVU1717
 5400 02a2 F8E6     		b	.L258
 5401              	.LVL559:
 5402              	.L283:
1249:Drivers/STM32H5xx_HAL_Driver/Src/stm32h5xx_ll_usb.c ****     }
 5403              		.loc 1 1249 7 discriminator 7 view .LVU1718
1249:Drivers/STM32H5xx_HAL_Driver/Src/stm32h5xx_ll_usb.c ****     }
 5404              		.loc 1 1249 7 discriminator 7 view .LVU1719
 5405 02a4 5909     		lsrs	r1, r3, #5
 5406              	.LVL560:
1249:Drivers/STM32H5xx_HAL_Driver/Src/stm32h5xx_ll_usb.c ****     }
 5407              		.loc 1 1249 7 discriminator 7 view .LVU1720
 5408 02a6 13F01F0F 		tst	r3, #31
 5409 02aa 00D1     		bne	.L285
1249:Drivers/STM32H5xx_HAL_Driver/Src/stm32h5xx_ll_usb.c ****     }
 5410              		.loc 1 1249 7 discriminator 12 view .LVU1721
 5411 02ac 0139     		subs	r1, r1, #1
 5412              	.LVL561:
 5413              	.L285:
1249:Drivers/STM32H5xx_HAL_Driver/Src/stm32h5xx_ll_usb.c ****     }
 5414              		.loc 1 1249 7 discriminator 14 view .LVU1722
 5415 02ae 5368     		ldr	r3, [r2, #4]
 5416 02b0 43EA8163 		orr	r3, r3, r1, lsl #26
 5417 02b4 43F00043 		orr	r3, r3, #-2147483648
 5418 02b8 5360     		str	r3, [r2, #4]
 5419 02ba ECE6     		b	.L258
 5420              	.LVL562:
 5421              	.L287:
1249:Drivers/STM32H5xx_HAL_Driver/Src/stm32h5xx_ll_usb.c ****     }
 5422              		.loc 1 1249 7 is_stmt 0 discriminator 14 view .LVU1723
 5423              	.LBE99:
1265:Drivers/STM32H5xx_HAL_Driver/Src/stm32h5xx_ll_usb.c ****     }
 5424              		.loc 1 1265 7 is_stmt 1 view .LVU1724
1265:Drivers/STM32H5xx_HAL_Driver/Src/stm32h5xx_ll_usb.c ****     }
 5425              		.loc 1 1265 11 is_stmt 0 view .LVU1725
 5426 02bc 0193     		str	r3, [sp, #4]
 5427 02be AFE6     		b	.L288
 5428              	.L302:
 5429              		.align	2
 5430              	.L301:
 5431 02c0 BF8FFF07 		.word	134188991
 5432 02c4 8FBFFF07 		.word	134201231
 5433 02c8 8F8FFF07 		.word	134188943
 5434              	.L296:
1271:Drivers/STM32H5xx_HAL_Driver/Src/stm32h5xx_ll_usb.c ****       USB_DRD_SET_CHEP_TX_CNT(USBx, phy_ch_num, (uint16_t)len);
 5435              		.loc 1 1271 7 is_stmt 1 view .LVU1726
 5436 02cc BDF80430 		ldrh	r3, [sp, #4]
 5437 02d0 A28C     		ldrh	r2, [r4, #36]
 5438              	.LVL563:
1271:Drivers/STM32H5xx_HAL_Driver/Src/stm32h5xx_ll_usb.c ****       USB_DRD_SET_CHEP_TX_CNT(USBx, phy_ch_num, (uint16_t)len);
 5439              		.loc 1 1271 7 is_stmt 0 view .LVU1727
 5440 02d2 E168     		ldr	r1, [r4, #12]
 5441 02d4 2846     		mov	r0, r5
ARM GAS  C:\Users\sapph\AppData\Local\Temp\cchEHrSS.s 			page 140


 5442              	.LVL564:
1271:Drivers/STM32H5xx_HAL_Driver/Src/stm32h5xx_ll_usb.c ****       USB_DRD_SET_CHEP_TX_CNT(USBx, phy_ch_num, (uint16_t)len);
 5443              		.loc 1 1271 7 view .LVU1728
 5444 02d6 FFF7FEFF 		bl	USB_WritePMA
 5445              	.LVL565:
1272:Drivers/STM32H5xx_HAL_Driver/Src/stm32h5xx_ll_usb.c **** 
 5446              		.loc 1 1272 7 is_stmt 1 view .LVU1729
1272:Drivers/STM32H5xx_HAL_Driver/Src/stm32h5xx_ll_usb.c **** 
 5447              		.loc 1 1272 7 view .LVU1730
 5448 02da F300     		lsls	r3, r6, #3
 5449 02dc 03F18043 		add	r3, r3, #1073741824
 5450 02e0 03F5B233 		add	r3, r3, #91136
 5451 02e4 1A68     		ldr	r2, [r3]
 5452 02e6 92B2     		uxth	r2, r2
 5453 02e8 1A60     		str	r2, [r3]
1272:Drivers/STM32H5xx_HAL_Driver/Src/stm32h5xx_ll_usb.c **** 
 5454              		.loc 1 1272 7 view .LVU1731
 5455 02ea 1A68     		ldr	r2, [r3]
 5456 02ec BDF80410 		ldrh	r1, [sp, #4]
 5457 02f0 42EA0142 		orr	r2, r2, r1, lsl #16
 5458 02f4 1A60     		str	r2, [r3]
1272:Drivers/STM32H5xx_HAL_Driver/Src/stm32h5xx_ll_usb.c **** 
 5459              		.loc 1 1272 7 view .LVU1732
1275:Drivers/STM32H5xx_HAL_Driver/Src/stm32h5xx_ll_usb.c ****       {
 5460              		.loc 1 1275 7 view .LVU1733
1275:Drivers/STM32H5xx_HAL_Driver/Src/stm32h5xx_ll_usb.c ****       {
 5461              		.loc 1 1275 14 is_stmt 0 view .LVU1734
 5462 02f6 A37A     		ldrb	r3, [r4, #10]	@ zero_extendqisi2
1275:Drivers/STM32H5xx_HAL_Driver/Src/stm32h5xx_ll_usb.c ****       {
 5463              		.loc 1 1275 10 view .LVU1735
 5464 02f8 032B     		cmp	r3, #3
 5465 02fa 23D0     		beq	.L300
 5466              	.L290:
1277:Drivers/STM32H5xx_HAL_Driver/Src/stm32h5xx_ll_usb.c ****       }
 5467              		.loc 1 1277 9 is_stmt 1 discriminator 1 view .LVU1736
1280:Drivers/STM32H5xx_HAL_Driver/Src/stm32h5xx_ll_usb.c ****           (hc->ep_type == EP_TYPE_INTR))
 5468              		.loc 1 1280 7 view .LVU1737
1280:Drivers/STM32H5xx_HAL_Driver/Src/stm32h5xx_ll_usb.c ****           (hc->ep_type == EP_TYPE_INTR))
 5469              		.loc 1 1280 14 is_stmt 0 view .LVU1738
 5470 02fc E379     		ldrb	r3, [r4, #7]	@ zero_extendqisi2
1280:Drivers/STM32H5xx_HAL_Driver/Src/stm32h5xx_ll_usb.c ****           (hc->ep_type == EP_TYPE_INTR))
 5471              		.loc 1 1280 41 view .LVU1739
 5472 02fe 023B     		subs	r3, r3, #2
 5473 0300 DBB2     		uxtb	r3, r3
1280:Drivers/STM32H5xx_HAL_Driver/Src/stm32h5xx_ll_usb.c ****           (hc->ep_type == EP_TYPE_INTR))
 5474              		.loc 1 1280 10 view .LVU1740
 5475 0302 012B     		cmp	r3, #1
 5476 0304 3FF69AAE 		bhi	.L291
1283:Drivers/STM32H5xx_HAL_Driver/Src/stm32h5xx_ll_usb.c **** 
 5477              		.loc 1 1283 9 is_stmt 1 view .LVU1741
 5478              	.LBB100:
1283:Drivers/STM32H5xx_HAL_Driver/Src/stm32h5xx_ll_usb.c **** 
 5479              		.loc 1 1283 9 view .LVU1742
1283:Drivers/STM32H5xx_HAL_Driver/Src/stm32h5xx_ll_usb.c **** 
 5480              		.loc 1 1283 9 view .LVU1743
 5481 0308 55F82630 		ldr	r3, [r5, r6, lsl #2]
 5482              	.LVL566:
ARM GAS  C:\Users\sapph\AppData\Local\Temp\cchEHrSS.s 			page 141


1283:Drivers/STM32H5xx_HAL_Driver/Src/stm32h5xx_ll_usb.c **** 
 5483              		.loc 1 1283 9 view .LVU1744
 5484 030c 13F0400F 		tst	r3, #64
 5485 0310 09D0     		beq	.L292
1283:Drivers/STM32H5xx_HAL_Driver/Src/stm32h5xx_ll_usb.c **** 
 5486              		.loc 1 1283 9 discriminator 1 view .LVU1745
 5487              	.LBB101:
1283:Drivers/STM32H5xx_HAL_Driver/Src/stm32h5xx_ll_usb.c **** 
 5488              		.loc 1 1283 9 discriminator 1 view .LVU1746
1283:Drivers/STM32H5xx_HAL_Driver/Src/stm32h5xx_ll_usb.c **** 
 5489              		.loc 1 1283 9 discriminator 1 view .LVU1747
 5490 0312 55F82620 		ldr	r2, [r5, r6, lsl #2]
 5491 0316 124B     		ldr	r3, .L303
 5492              	.LVL567:
1283:Drivers/STM32H5xx_HAL_Driver/Src/stm32h5xx_ll_usb.c **** 
 5493              		.loc 1 1283 9 is_stmt 0 discriminator 1 view .LVU1748
 5494 0318 1340     		ands	r3, r3, r2
 5495              	.LVL568:
1283:Drivers/STM32H5xx_HAL_Driver/Src/stm32h5xx_ll_usb.c **** 
 5496              		.loc 1 1283 9 is_stmt 1 discriminator 1 view .LVU1749
 5497 031a 43F40043 		orr	r3, r3, #32768
 5498              	.LVL569:
1283:Drivers/STM32H5xx_HAL_Driver/Src/stm32h5xx_ll_usb.c **** 
 5499              		.loc 1 1283 9 is_stmt 0 discriminator 1 view .LVU1750
 5500 031e 43F0C003 		orr	r3, r3, #192
 5501 0322 45F82630 		str	r3, [r5, r6, lsl #2]
 5502              	.LVL570:
 5503              	.L292:
1283:Drivers/STM32H5xx_HAL_Driver/Src/stm32h5xx_ll_usb.c **** 
 5504              		.loc 1 1283 9 discriminator 1 view .LVU1751
 5505              	.LBE101:
1283:Drivers/STM32H5xx_HAL_Driver/Src/stm32h5xx_ll_usb.c **** 
 5506              		.loc 1 1283 9 is_stmt 1 discriminator 3 view .LVU1752
 5507              	.LBE100:
1283:Drivers/STM32H5xx_HAL_Driver/Src/stm32h5xx_ll_usb.c **** 
 5508              		.loc 1 1283 9 discriminator 3 view .LVU1753
1286:Drivers/STM32H5xx_HAL_Driver/Src/stm32h5xx_ll_usb.c ****         {
 5509              		.loc 1 1286 9 view .LVU1754
1286:Drivers/STM32H5xx_HAL_Driver/Src/stm32h5xx_ll_usb.c ****         {
 5510              		.loc 1 1286 15 is_stmt 0 view .LVU1755
 5511 0326 A37A     		ldrb	r3, [r4, #10]	@ zero_extendqisi2
1286:Drivers/STM32H5xx_HAL_Driver/Src/stm32h5xx_ll_usb.c ****         {
 5512              		.loc 1 1286 12 view .LVU1756
 5513 0328 022B     		cmp	r3, #2
 5514 032a 7FF487AE 		bne	.L291
1288:Drivers/STM32H5xx_HAL_Driver/Src/stm32h5xx_ll_usb.c ****         }
 5515              		.loc 1 1288 11 is_stmt 1 view .LVU1757
 5516              	.LBB102:
1288:Drivers/STM32H5xx_HAL_Driver/Src/stm32h5xx_ll_usb.c ****         }
 5517              		.loc 1 1288 11 view .LVU1758
1288:Drivers/STM32H5xx_HAL_Driver/Src/stm32h5xx_ll_usb.c ****         }
 5518              		.loc 1 1288 11 view .LVU1759
 5519 032e 55F82620 		ldr	r2, [r5, r6, lsl #2]
 5520 0332 0B4B     		ldr	r3, .L303
 5521 0334 1340     		ands	r3, r3, r2
 5522              	.LVL571:
1288:Drivers/STM32H5xx_HAL_Driver/Src/stm32h5xx_ll_usb.c ****         }
ARM GAS  C:\Users\sapph\AppData\Local\Temp\cchEHrSS.s 			page 142


 5523              		.loc 1 1288 11 view .LVU1760
 5524 0336 43F40043 		orr	r3, r3, #32768
 5525              	.LVL572:
1288:Drivers/STM32H5xx_HAL_Driver/Src/stm32h5xx_ll_usb.c ****         }
 5526              		.loc 1 1288 11 is_stmt 0 view .LVU1761
 5527 033a 43F0C003 		orr	r3, r3, #192
 5528 033e 45F82630 		str	r3, [r5, r6, lsl #2]
 5529 0342 7BE6     		b	.L291
 5530              	.LVL573:
 5531              	.L300:
1288:Drivers/STM32H5xx_HAL_Driver/Src/stm32h5xx_ll_usb.c ****         }
 5532              		.loc 1 1288 11 view .LVU1762
 5533              	.LBE102:
1277:Drivers/STM32H5xx_HAL_Driver/Src/stm32h5xx_ll_usb.c ****       }
 5534              		.loc 1 1277 9 is_stmt 1 view .LVU1763
 5535              	.LBB103:
1277:Drivers/STM32H5xx_HAL_Driver/Src/stm32h5xx_ll_usb.c ****       }
 5536              		.loc 1 1277 9 view .LVU1764
1277:Drivers/STM32H5xx_HAL_Driver/Src/stm32h5xx_ll_usb.c ****       }
 5537              		.loc 1 1277 9 view .LVU1765
 5538 0344 55F82630 		ldr	r3, [r5, r6, lsl #2]
 5539              	.LVL574:
1277:Drivers/STM32H5xx_HAL_Driver/Src/stm32h5xx_ll_usb.c ****       }
 5540              		.loc 1 1277 9 view .LVU1766
 5541 0348 43F40063 		orr	r3, r3, #2048
 5542              	.LVL575:
1277:Drivers/STM32H5xx_HAL_Driver/Src/stm32h5xx_ll_usb.c ****       }
 5543              		.loc 1 1277 9 is_stmt 0 view .LVU1767
 5544 034c 45F82630 		str	r3, [r5, r6, lsl #2]
 5545 0350 D4E7     		b	.L290
 5546              	.LVL576:
 5547              	.L297:
1277:Drivers/STM32H5xx_HAL_Driver/Src/stm32h5xx_ll_usb.c ****       }
 5548              		.loc 1 1277 9 view .LVU1768
 5549              	.LBE103:
1295:Drivers/STM32H5xx_HAL_Driver/Src/stm32h5xx_ll_usb.c ****     }
 5550              		.loc 1 1295 7 is_stmt 1 view .LVU1769
1295:Drivers/STM32H5xx_HAL_Driver/Src/stm32h5xx_ll_usb.c ****     }
 5551              		.loc 1 1295 13 is_stmt 0 view .LVU1770
 5552 0352 01AB     		add	r3, sp, #4
 5553 0354 2146     		mov	r1, r4
 5554 0356 2846     		mov	r0, r5
 5555              	.LVL577:
1295:Drivers/STM32H5xx_HAL_Driver/Src/stm32h5xx_ll_usb.c ****     }
 5556              		.loc 1 1295 13 view .LVU1771
 5557 0358 FFF7FEFF 		bl	USB_HC_BULK_DB_StartXfer
 5558              	.LVL578:
1295:Drivers/STM32H5xx_HAL_Driver/Src/stm32h5xx_ll_usb.c ****     }
 5559              		.loc 1 1295 13 view .LVU1772
 5560 035c 6EE6     		b	.L291
 5561              	.L304:
 5562 035e 00BF     		.align	2
 5563              	.L303:
 5564 0360 8F8FFF07 		.word	134188943
 5565              		.cfi_endproc
 5566              	.LFE189:
 5568              		.section	.text.USB_HC_IN_Halt,"ax",%progbits
ARM GAS  C:\Users\sapph\AppData\Local\Temp\cchEHrSS.s 			page 143


 5569              		.align	1
 5570              		.global	USB_HC_IN_Halt
 5571              		.syntax unified
 5572              		.thumb
 5573              		.thumb_func
 5575              	USB_HC_IN_Halt:
 5576              	.LVL579:
 5577              	.LFB192:
1416:Drivers/STM32H5xx_HAL_Driver/Src/stm32h5xx_ll_usb.c **** #endif /* (USE_USB_DOUBLE_BUFFER == 1U) */
1417:Drivers/STM32H5xx_HAL_Driver/Src/stm32h5xx_ll_usb.c **** 
1418:Drivers/STM32H5xx_HAL_Driver/Src/stm32h5xx_ll_usb.c **** 
1419:Drivers/STM32H5xx_HAL_Driver/Src/stm32h5xx_ll_usb.c **** /**
1420:Drivers/STM32H5xx_HAL_Driver/Src/stm32h5xx_ll_usb.c ****   * @brief  Halt a host channel in
1421:Drivers/STM32H5xx_HAL_Driver/Src/stm32h5xx_ll_usb.c ****   * @param  USBx Selected device
1422:Drivers/STM32H5xx_HAL_Driver/Src/stm32h5xx_ll_usb.c ****   * @param  hc_num Host Channel number
1423:Drivers/STM32H5xx_HAL_Driver/Src/stm32h5xx_ll_usb.c ****   *         This parameter can be a value from 1 to 15
1424:Drivers/STM32H5xx_HAL_Driver/Src/stm32h5xx_ll_usb.c ****   * @retval HAL state
1425:Drivers/STM32H5xx_HAL_Driver/Src/stm32h5xx_ll_usb.c ****   */
1426:Drivers/STM32H5xx_HAL_Driver/Src/stm32h5xx_ll_usb.c **** HAL_StatusTypeDef USB_HC_IN_Halt(USB_DRD_TypeDef *USBx, uint8_t phy_ch)
1427:Drivers/STM32H5xx_HAL_Driver/Src/stm32h5xx_ll_usb.c **** {
 5578              		.loc 1 1427 1 is_stmt 1 view -0
 5579              		.cfi_startproc
 5580              		@ args = 0, pretend = 0, frame = 0
 5581              		@ frame_needed = 0, uses_anonymous_args = 0
 5582              		@ link register save eliminated.
1428:Drivers/STM32H5xx_HAL_Driver/Src/stm32h5xx_ll_usb.c ****   /* Set disable to Channel */
1429:Drivers/STM32H5xx_HAL_Driver/Src/stm32h5xx_ll_usb.c ****   USB_DRD_SET_CHEP_RX_STATUS(USBx, phy_ch, USB_CH_RX_DIS);
 5583              		.loc 1 1429 3 view .LVU1774
 5584              	.LBB104:
 5585              		.loc 1 1429 3 view .LVU1775
 5586              		.loc 1 1429 3 view .LVU1776
 5587 0000 50F82120 		ldr	r2, [r0, r1, lsl #2]
 5588 0004 044B     		ldr	r3, .L306
 5589 0006 1340     		ands	r3, r3, r2
 5590              	.LVL580:
 5591              		.loc 1 1429 3 view .LVU1777
 5592              		.loc 1 1429 3 discriminator 3 view .LVU1778
 5593              		.loc 1 1429 3 discriminator 6 view .LVU1779
 5594 0008 43F40043 		orr	r3, r3, #32768
 5595              	.LVL581:
 5596              		.loc 1 1429 3 is_stmt 0 discriminator 6 view .LVU1780
 5597 000c 43F08003 		orr	r3, r3, #128
 5598 0010 40F82130 		str	r3, [r0, r1, lsl #2]
 5599              	.LBE104:
 5600              		.loc 1 1429 3 is_stmt 1 discriminator 6 view .LVU1781
1430:Drivers/STM32H5xx_HAL_Driver/Src/stm32h5xx_ll_usb.c **** 
1431:Drivers/STM32H5xx_HAL_Driver/Src/stm32h5xx_ll_usb.c ****   return HAL_OK;
 5601              		.loc 1 1431 3 view .LVU1782
1432:Drivers/STM32H5xx_HAL_Driver/Src/stm32h5xx_ll_usb.c **** }
 5602              		.loc 1 1432 1 is_stmt 0 view .LVU1783
 5603 0014 0020     		movs	r0, #0
 5604              	.LVL582:
 5605              		.loc 1 1432 1 view .LVU1784
 5606 0016 7047     		bx	lr
 5607              	.L307:
 5608              		.align	2
 5609              	.L306:
ARM GAS  C:\Users\sapph\AppData\Local\Temp\cchEHrSS.s 			page 144


 5610 0018 8FBFFF07 		.word	134201231
 5611              		.cfi_endproc
 5612              	.LFE192:
 5614              		.section	.text.USB_HC_OUT_Halt,"ax",%progbits
 5615              		.align	1
 5616              		.global	USB_HC_OUT_Halt
 5617              		.syntax unified
 5618              		.thumb
 5619              		.thumb_func
 5621              	USB_HC_OUT_Halt:
 5622              	.LVL583:
 5623              	.LFB193:
1433:Drivers/STM32H5xx_HAL_Driver/Src/stm32h5xx_ll_usb.c **** 
1434:Drivers/STM32H5xx_HAL_Driver/Src/stm32h5xx_ll_usb.c **** 
1435:Drivers/STM32H5xx_HAL_Driver/Src/stm32h5xx_ll_usb.c **** /**
1436:Drivers/STM32H5xx_HAL_Driver/Src/stm32h5xx_ll_usb.c ****   * @brief  Halt a host channel out
1437:Drivers/STM32H5xx_HAL_Driver/Src/stm32h5xx_ll_usb.c ****   * @param  USBx Selected device
1438:Drivers/STM32H5xx_HAL_Driver/Src/stm32h5xx_ll_usb.c ****   * @param  hc_num Host Channel number
1439:Drivers/STM32H5xx_HAL_Driver/Src/stm32h5xx_ll_usb.c ****   *         This parameter can be a value from 1 to 15
1440:Drivers/STM32H5xx_HAL_Driver/Src/stm32h5xx_ll_usb.c ****   * @retval HAL state
1441:Drivers/STM32H5xx_HAL_Driver/Src/stm32h5xx_ll_usb.c ****   */
1442:Drivers/STM32H5xx_HAL_Driver/Src/stm32h5xx_ll_usb.c **** HAL_StatusTypeDef USB_HC_OUT_Halt(USB_DRD_TypeDef *USBx, uint8_t phy_ch)
1443:Drivers/STM32H5xx_HAL_Driver/Src/stm32h5xx_ll_usb.c **** {
 5624              		.loc 1 1443 1 is_stmt 1 view -0
 5625              		.cfi_startproc
 5626              		@ args = 0, pretend = 0, frame = 0
 5627              		@ frame_needed = 0, uses_anonymous_args = 0
 5628              		@ link register save eliminated.
1444:Drivers/STM32H5xx_HAL_Driver/Src/stm32h5xx_ll_usb.c ****   /* Set disable to Channel */
1445:Drivers/STM32H5xx_HAL_Driver/Src/stm32h5xx_ll_usb.c ****   USB_DRD_SET_CHEP_TX_STATUS(USBx, phy_ch, USB_CH_TX_DIS);
 5629              		.loc 1 1445 3 view .LVU1786
 5630              	.LBB105:
 5631              		.loc 1 1445 3 view .LVU1787
 5632              		.loc 1 1445 3 view .LVU1788
 5633 0000 50F82120 		ldr	r2, [r0, r1, lsl #2]
 5634 0004 044B     		ldr	r3, .L309
 5635 0006 1340     		ands	r3, r3, r2
 5636              	.LVL584:
 5637              		.loc 1 1445 3 view .LVU1789
 5638              		.loc 1 1445 3 discriminator 3 view .LVU1790
 5639              		.loc 1 1445 3 discriminator 6 view .LVU1791
 5640 0008 43F40043 		orr	r3, r3, #32768
 5641              	.LVL585:
 5642              		.loc 1 1445 3 is_stmt 0 discriminator 6 view .LVU1792
 5643 000c 43F08003 		orr	r3, r3, #128
 5644 0010 40F82130 		str	r3, [r0, r1, lsl #2]
 5645              	.LBE105:
 5646              		.loc 1 1445 3 is_stmt 1 discriminator 6 view .LVU1793
1446:Drivers/STM32H5xx_HAL_Driver/Src/stm32h5xx_ll_usb.c **** 
1447:Drivers/STM32H5xx_HAL_Driver/Src/stm32h5xx_ll_usb.c ****   return HAL_OK;
 5647              		.loc 1 1447 3 view .LVU1794
1448:Drivers/STM32H5xx_HAL_Driver/Src/stm32h5xx_ll_usb.c **** }
 5648              		.loc 1 1448 1 is_stmt 0 view .LVU1795
 5649 0014 0020     		movs	r0, #0
 5650              	.LVL586:
 5651              		.loc 1 1448 1 view .LVU1796
 5652 0016 7047     		bx	lr
ARM GAS  C:\Users\sapph\AppData\Local\Temp\cchEHrSS.s 			page 145


 5653              	.L310:
 5654              		.align	2
 5655              	.L309:
 5656 0018 BF8FFF07 		.word	134188991
 5657              		.cfi_endproc
 5658              	.LFE193:
 5660              		.section	.text.USB_StopHost,"ax",%progbits
 5661              		.align	1
 5662              		.global	USB_StopHost
 5663              		.syntax unified
 5664              		.thumb
 5665              		.thumb_func
 5667              	USB_StopHost:
 5668              	.LVL587:
 5669              	.LFB194:
1449:Drivers/STM32H5xx_HAL_Driver/Src/stm32h5xx_ll_usb.c **** 
1450:Drivers/STM32H5xx_HAL_Driver/Src/stm32h5xx_ll_usb.c **** /**
1451:Drivers/STM32H5xx_HAL_Driver/Src/stm32h5xx_ll_usb.c ****   * @brief  Stop Host Core
1452:Drivers/STM32H5xx_HAL_Driver/Src/stm32h5xx_ll_usb.c ****   * @param  USBx Selected device
1453:Drivers/STM32H5xx_HAL_Driver/Src/stm32h5xx_ll_usb.c ****   * @retval HAL state
1454:Drivers/STM32H5xx_HAL_Driver/Src/stm32h5xx_ll_usb.c ****   */
1455:Drivers/STM32H5xx_HAL_Driver/Src/stm32h5xx_ll_usb.c **** HAL_StatusTypeDef USB_StopHost(USB_DRD_TypeDef *USBx)
1456:Drivers/STM32H5xx_HAL_Driver/Src/stm32h5xx_ll_usb.c **** {
 5670              		.loc 1 1456 1 is_stmt 1 view -0
 5671              		.cfi_startproc
 5672              		@ args = 0, pretend = 0, frame = 0
 5673              		@ frame_needed = 0, uses_anonymous_args = 0
 5674              		@ link register save eliminated.
1457:Drivers/STM32H5xx_HAL_Driver/Src/stm32h5xx_ll_usb.c ****   USBx->ISTR &= ~(USB_ISTR_DIR | USB_ISTR_L1REQ |
 5675              		.loc 1 1457 3 view .LVU1798
 5676              		.loc 1 1457 7 is_stmt 0 view .LVU1799
 5677 0000 436C     		ldr	r3, [r0, #68]
 5678              		.loc 1 1457 14 view .LVU1800
 5679 0002 23F47F43 		bic	r3, r3, #65280
 5680 0006 23F09003 		bic	r3, r3, #144
 5681 000a 4364     		str	r3, [r0, #68]
1458:Drivers/STM32H5xx_HAL_Driver/Src/stm32h5xx_ll_usb.c ****                   USB_ISTR_ESOF | USB_ISTR_SOF |
1459:Drivers/STM32H5xx_HAL_Driver/Src/stm32h5xx_ll_usb.c ****                   USB_ISTR_RESET | USB_ISTR_DCON |
1460:Drivers/STM32H5xx_HAL_Driver/Src/stm32h5xx_ll_usb.c ****                   USB_ISTR_SUSP | USB_ISTR_WKUP |
1461:Drivers/STM32H5xx_HAL_Driver/Src/stm32h5xx_ll_usb.c ****                   USB_ISTR_ERR | USB_ISTR_PMAOVR |
1462:Drivers/STM32H5xx_HAL_Driver/Src/stm32h5xx_ll_usb.c ****                   USB_ISTR_CTR);
1463:Drivers/STM32H5xx_HAL_Driver/Src/stm32h5xx_ll_usb.c **** 
1464:Drivers/STM32H5xx_HAL_Driver/Src/stm32h5xx_ll_usb.c ****   /* Set PowerDown */
1465:Drivers/STM32H5xx_HAL_Driver/Src/stm32h5xx_ll_usb.c ****   USBx->CNTR |= USB_CNTR_PDWN;
 5682              		.loc 1 1465 3 is_stmt 1 view .LVU1801
 5683              		.loc 1 1465 7 is_stmt 0 view .LVU1802
 5684 000c 036C     		ldr	r3, [r0, #64]
 5685              		.loc 1 1465 14 view .LVU1803
 5686 000e 43F00203 		orr	r3, r3, #2
 5687 0012 0364     		str	r3, [r0, #64]
1466:Drivers/STM32H5xx_HAL_Driver/Src/stm32h5xx_ll_usb.c **** 
1467:Drivers/STM32H5xx_HAL_Driver/Src/stm32h5xx_ll_usb.c ****   /* Force a Reset */
1468:Drivers/STM32H5xx_HAL_Driver/Src/stm32h5xx_ll_usb.c ****   USBx->CNTR |= USB_CNTR_USBRST;
 5688              		.loc 1 1468 3 is_stmt 1 view .LVU1804
 5689              		.loc 1 1468 7 is_stmt 0 view .LVU1805
 5690 0014 036C     		ldr	r3, [r0, #64]
 5691              		.loc 1 1468 14 view .LVU1806
ARM GAS  C:\Users\sapph\AppData\Local\Temp\cchEHrSS.s 			page 146


 5692 0016 43F00103 		orr	r3, r3, #1
 5693 001a 0364     		str	r3, [r0, #64]
1469:Drivers/STM32H5xx_HAL_Driver/Src/stm32h5xx_ll_usb.c **** 
1470:Drivers/STM32H5xx_HAL_Driver/Src/stm32h5xx_ll_usb.c ****   return HAL_OK;
 5694              		.loc 1 1470 3 is_stmt 1 view .LVU1807
1471:Drivers/STM32H5xx_HAL_Driver/Src/stm32h5xx_ll_usb.c **** }
 5695              		.loc 1 1471 1 is_stmt 0 view .LVU1808
 5696 001c 0020     		movs	r0, #0
 5697              	.LVL588:
 5698              		.loc 1 1471 1 view .LVU1809
 5699 001e 7047     		bx	lr
 5700              		.cfi_endproc
 5701              	.LFE194:
 5703              		.text
 5704              	.Letext0:
 5705              		.file 2 "C:/Users/sapph/AppData/Roaming/Code/User/globalStorage/bmd.stm32-for-vscode/@xpack-dev-to
 5706              		.file 3 "C:/Users/sapph/AppData/Roaming/Code/User/globalStorage/bmd.stm32-for-vscode/@xpack-dev-to
 5707              		.file 4 "Drivers/CMSIS/Include/cmsis_gcc.h"
 5708              		.file 5 "Drivers/CMSIS/Device/ST/STM32H5xx/Include/stm32h533xx.h"
 5709              		.file 6 "Drivers/STM32H5xx_HAL_Driver/Inc/stm32h5xx_hal_def.h"
 5710              		.file 7 "Drivers/STM32H5xx_HAL_Driver/Inc/stm32h5xx_ll_usb.h"
 5711              		.file 8 "Drivers/STM32H5xx_HAL_Driver/Inc/stm32h5xx_hal.h"
ARM GAS  C:\Users\sapph\AppData\Local\Temp\cchEHrSS.s 			page 147


DEFINED SYMBOLS
                            *ABS*:00000000 stm32h5xx_ll_usb.c
C:\Users\sapph\AppData\Local\Temp\cchEHrSS.s:22     .text.USB_CoreReset:00000000 $t
C:\Users\sapph\AppData\Local\Temp\cchEHrSS.s:27     .text.USB_CoreReset:00000000 USB_CoreReset
C:\Users\sapph\AppData\Local\Temp\cchEHrSS.s:57     .text.USB_CoreInit:00000000 $t
C:\Users\sapph\AppData\Local\Temp\cchEHrSS.s:63     .text.USB_CoreInit:00000000 USB_CoreInit
C:\Users\sapph\AppData\Local\Temp\cchEHrSS.s:117    .text.USB_EnableGlobalInt:00000000 $t
C:\Users\sapph\AppData\Local\Temp\cchEHrSS.s:123    .text.USB_EnableGlobalInt:00000000 USB_EnableGlobalInt
C:\Users\sapph\AppData\Local\Temp\cchEHrSS.s:153    .text.USB_DisableGlobalInt:00000000 $t
C:\Users\sapph\AppData\Local\Temp\cchEHrSS.s:159    .text.USB_DisableGlobalInt:00000000 USB_DisableGlobalInt
C:\Users\sapph\AppData\Local\Temp\cchEHrSS.s:186    .text.USB_SetCurrentMode:00000000 $t
C:\Users\sapph\AppData\Local\Temp\cchEHrSS.s:192    .text.USB_SetCurrentMode:00000000 USB_SetCurrentMode
C:\Users\sapph\AppData\Local\Temp\cchEHrSS.s:242    .text.USB_DevInit:00000000 $t
C:\Users\sapph\AppData\Local\Temp\cchEHrSS.s:248    .text.USB_DevInit:00000000 USB_DevInit
C:\Users\sapph\AppData\Local\Temp\cchEHrSS.s:301    .text.USB_FlushTxFifo:00000000 $t
C:\Users\sapph\AppData\Local\Temp\cchEHrSS.s:307    .text.USB_FlushTxFifo:00000000 USB_FlushTxFifo
C:\Users\sapph\AppData\Local\Temp\cchEHrSS.s:327    .text.USB_FlushRxFifo:00000000 $t
C:\Users\sapph\AppData\Local\Temp\cchEHrSS.s:333    .text.USB_FlushRxFifo:00000000 USB_FlushRxFifo
C:\Users\sapph\AppData\Local\Temp\cchEHrSS.s:352    .text.USB_ActivateEndpoint:00000000 $t
C:\Users\sapph\AppData\Local\Temp\cchEHrSS.s:358    .text.USB_ActivateEndpoint:00000000 USB_ActivateEndpoint
C:\Users\sapph\AppData\Local\Temp\cchEHrSS.s:392    .text.USB_ActivateEndpoint:0000001a $d
C:\Users\sapph\AppData\Local\Temp\cchEHrSS.s:396    .text.USB_ActivateEndpoint:0000001e $t
C:\Users\sapph\AppData\Local\Temp\cchEHrSS.s:988    .text.USB_ActivateEndpoint:000002f8 $d
C:\Users\sapph\AppData\Local\Temp\cchEHrSS.s:999    .text.USB_ActivateEndpoint:0000030c $t
C:\Users\sapph\AppData\Local\Temp\cchEHrSS.s:1137   .text.USB_ActivateEndpoint:0000039c $d
C:\Users\sapph\AppData\Local\Temp\cchEHrSS.s:1145   .text.USB_DeactivateEndpoint:00000000 $t
C:\Users\sapph\AppData\Local\Temp\cchEHrSS.s:1151   .text.USB_DeactivateEndpoint:00000000 USB_DeactivateEndpoint
C:\Users\sapph\AppData\Local\Temp\cchEHrSS.s:1560   .text.USB_DeactivateEndpoint:00000188 $d
C:\Users\sapph\AppData\Local\Temp\cchEHrSS.s:1568   .text.USB_EPSetStall:00000000 $t
C:\Users\sapph\AppData\Local\Temp\cchEHrSS.s:1574   .text.USB_EPSetStall:00000000 USB_EPSetStall
C:\Users\sapph\AppData\Local\Temp\cchEHrSS.s:1648   .text.USB_EPSetStall:00000040 $d
C:\Users\sapph\AppData\Local\Temp\cchEHrSS.s:1655   .text.USB_EPClearStall:00000000 $t
C:\Users\sapph\AppData\Local\Temp\cchEHrSS.s:1661   .text.USB_EPClearStall:00000000 USB_EPClearStall
C:\Users\sapph\AppData\Local\Temp\cchEHrSS.s:1832   .text.USB_EPClearStall:00000094 $d
C:\Users\sapph\AppData\Local\Temp\cchEHrSS.s:1839   .text.USB_EPStopXfer:00000000 $t
C:\Users\sapph\AppData\Local\Temp\cchEHrSS.s:1845   .text.USB_EPStopXfer:00000000 USB_EPStopXfer
C:\Users\sapph\AppData\Local\Temp\cchEHrSS.s:1991   .text.USB_EPStopXfer:00000088 $d
C:\Users\sapph\AppData\Local\Temp\cchEHrSS.s:1998   .text.USB_StopDevice:00000000 $t
C:\Users\sapph\AppData\Local\Temp\cchEHrSS.s:2004   .text.USB_StopDevice:00000000 USB_StopDevice
C:\Users\sapph\AppData\Local\Temp\cchEHrSS.s:2035   .text.USB_SetDevAddress:00000000 $t
C:\Users\sapph\AppData\Local\Temp\cchEHrSS.s:2041   .text.USB_SetDevAddress:00000000 USB_SetDevAddress
C:\Users\sapph\AppData\Local\Temp\cchEHrSS.s:2067   .text.USB_DevConnect:00000000 $t
C:\Users\sapph\AppData\Local\Temp\cchEHrSS.s:2073   .text.USB_DevConnect:00000000 USB_DevConnect
C:\Users\sapph\AppData\Local\Temp\cchEHrSS.s:2097   .text.USB_DevDisconnect:00000000 $t
C:\Users\sapph\AppData\Local\Temp\cchEHrSS.s:2103   .text.USB_DevDisconnect:00000000 USB_DevDisconnect
C:\Users\sapph\AppData\Local\Temp\cchEHrSS.s:2127   .text.USB_ReadInterrupts:00000000 $t
C:\Users\sapph\AppData\Local\Temp\cchEHrSS.s:2133   .text.USB_ReadInterrupts:00000000 USB_ReadInterrupts
C:\Users\sapph\AppData\Local\Temp\cchEHrSS.s:2153   .text.USB_ActivateRemoteWakeup:00000000 $t
C:\Users\sapph\AppData\Local\Temp\cchEHrSS.s:2159   .text.USB_ActivateRemoteWakeup:00000000 USB_ActivateRemoteWakeup
C:\Users\sapph\AppData\Local\Temp\cchEHrSS.s:2183   .text.USB_DeActivateRemoteWakeup:00000000 $t
C:\Users\sapph\AppData\Local\Temp\cchEHrSS.s:2189   .text.USB_DeActivateRemoteWakeup:00000000 USB_DeActivateRemoteWakeup
C:\Users\sapph\AppData\Local\Temp\cchEHrSS.s:2213   .text.USB_WritePMA:00000000 $t
C:\Users\sapph\AppData\Local\Temp\cchEHrSS.s:2219   .text.USB_WritePMA:00000000 USB_WritePMA
C:\Users\sapph\AppData\Local\Temp\cchEHrSS.s:2330   .text.USB_EPStartXfer:00000000 $t
C:\Users\sapph\AppData\Local\Temp\cchEHrSS.s:2336   .text.USB_EPStartXfer:00000000 USB_EPStartXfer
C:\Users\sapph\AppData\Local\Temp\cchEHrSS.s:2916   .text.USB_EPStartXfer:0000031c $d
C:\Users\sapph\AppData\Local\Temp\cchEHrSS.s:2923   .text.USB_EPStartXfer:00000328 $t
ARM GAS  C:\Users\sapph\AppData\Local\Temp\cchEHrSS.s 			page 148


C:\Users\sapph\AppData\Local\Temp\cchEHrSS.s:3632   .text.USB_EPStartXfer:00000714 $d
C:\Users\sapph\AppData\Local\Temp\cchEHrSS.s:3637   .text.USB_EPStartXfer:00000718 $t
C:\Users\sapph\AppData\Local\Temp\cchEHrSS.s:3934   .text.USB_EPStartXfer:000008bc $d
C:\Users\sapph\AppData\Local\Temp\cchEHrSS.s:3939   .text.USB_HC_ISO_DB_StartXfer:00000000 $t
C:\Users\sapph\AppData\Local\Temp\cchEHrSS.s:3944   .text.USB_HC_ISO_DB_StartXfer:00000000 USB_HC_ISO_DB_StartXfer
C:\Users\sapph\AppData\Local\Temp\cchEHrSS.s:4037   .text.USB_ReadPMA:00000000 $t
C:\Users\sapph\AppData\Local\Temp\cchEHrSS.s:4043   .text.USB_ReadPMA:00000000 USB_ReadPMA
C:\Users\sapph\AppData\Local\Temp\cchEHrSS.s:4151   .text.USB_HostInit:00000000 $t
C:\Users\sapph\AppData\Local\Temp\cchEHrSS.s:4157   .text.USB_HostInit:00000000 USB_HostInit
C:\Users\sapph\AppData\Local\Temp\cchEHrSS.s:4209   .text.USB_ResetPort:00000000 $t
C:\Users\sapph\AppData\Local\Temp\cchEHrSS.s:4215   .text.USB_ResetPort:00000000 USB_ResetPort
C:\Users\sapph\AppData\Local\Temp\cchEHrSS.s:4259   .text.USB_GetHostSpeed:00000000 $t
C:\Users\sapph\AppData\Local\Temp\cchEHrSS.s:4265   .text.USB_GetHostSpeed:00000000 USB_GetHostSpeed
C:\Users\sapph\AppData\Local\Temp\cchEHrSS.s:4295   .text.USB_GetCurrentFrame:00000000 $t
C:\Users\sapph\AppData\Local\Temp\cchEHrSS.s:4301   .text.USB_GetCurrentFrame:00000000 USB_GetCurrentFrame
C:\Users\sapph\AppData\Local\Temp\cchEHrSS.s:4320   .text.USB_HC_DoubleBuffer:00000000 $t
C:\Users\sapph\AppData\Local\Temp\cchEHrSS.s:4326   .text.USB_HC_DoubleBuffer:00000000 USB_HC_DoubleBuffer
C:\Users\sapph\AppData\Local\Temp\cchEHrSS.s:4375   .text.USB_HC_BULK_DB_StartXfer:00000000 $t
C:\Users\sapph\AppData\Local\Temp\cchEHrSS.s:4380   .text.USB_HC_BULK_DB_StartXfer:00000000 USB_HC_BULK_DB_StartXfer
C:\Users\sapph\AppData\Local\Temp\cchEHrSS.s:4625   .text.USB_HC_Init:00000000 $t
C:\Users\sapph\AppData\Local\Temp\cchEHrSS.s:4631   .text.USB_HC_Init:00000000 USB_HC_Init
C:\Users\sapph\AppData\Local\Temp\cchEHrSS.s:4670   .text.USB_HC_Init:0000001a $d
C:\Users\sapph\AppData\Local\Temp\cchEHrSS.s:4674   .text.USB_HC_Init:0000001e $t
C:\Users\sapph\AppData\Local\Temp\cchEHrSS.s:4763   .text.USB_HC_Init:00000070 $d
C:\Users\sapph\AppData\Local\Temp\cchEHrSS.s:4769   .text.USB_HC_StartXfer:00000000 $t
C:\Users\sapph\AppData\Local\Temp\cchEHrSS.s:4775   .text.USB_HC_StartXfer:00000000 USB_HC_StartXfer
C:\Users\sapph\AppData\Local\Temp\cchEHrSS.s:5431   .text.USB_HC_StartXfer:000002c0 $d
C:\Users\sapph\AppData\Local\Temp\cchEHrSS.s:5436   .text.USB_HC_StartXfer:000002cc $t
C:\Users\sapph\AppData\Local\Temp\cchEHrSS.s:5564   .text.USB_HC_StartXfer:00000360 $d
C:\Users\sapph\AppData\Local\Temp\cchEHrSS.s:5569   .text.USB_HC_IN_Halt:00000000 $t
C:\Users\sapph\AppData\Local\Temp\cchEHrSS.s:5575   .text.USB_HC_IN_Halt:00000000 USB_HC_IN_Halt
C:\Users\sapph\AppData\Local\Temp\cchEHrSS.s:5610   .text.USB_HC_IN_Halt:00000018 $d
C:\Users\sapph\AppData\Local\Temp\cchEHrSS.s:5615   .text.USB_HC_OUT_Halt:00000000 $t
C:\Users\sapph\AppData\Local\Temp\cchEHrSS.s:5621   .text.USB_HC_OUT_Halt:00000000 USB_HC_OUT_Halt
C:\Users\sapph\AppData\Local\Temp\cchEHrSS.s:5656   .text.USB_HC_OUT_Halt:00000018 $d
C:\Users\sapph\AppData\Local\Temp\cchEHrSS.s:5661   .text.USB_StopHost:00000000 $t
C:\Users\sapph\AppData\Local\Temp\cchEHrSS.s:5667   .text.USB_StopHost:00000000 USB_StopHost

UNDEFINED SYMBOLS
HAL_Delay
