ARM GAS  C:\Users\sapph\AppData\Local\Temp\cchEHrSS.s 			page 1


   1              		.cpu cortex-m33
   2              		.arch armv8-m.main
   3              		.fpu fpv4-sp-d16
   4              		.arch_extension dsp
   5              		.eabi_attribute 27, 1
   6              		.eabi_attribute 28, 1
   7              		.eabi_attribute 20, 1
   8              		.eabi_attribute 21, 1
   9              		.eabi_attribute 23, 3
  10              		.eabi_attribute 24, 1
  11              		.eabi_attribute 25, 1
  12              		.eabi_attribute 26, 1
  13              		.eabi_attribute 30, 1
  14              		.eabi_attribute 34, 1
  15              		.eabi_attribute 18, 4
  16              		.file	"stm32h5xx_ll_usb.c"
  17              		.text
  18              	.Ltext0:
  19              		.cfi_sections	.debug_frame
  20              		.file 1 "Drivers/STM32H5xx_HAL_Driver/Src/stm32h5xx_ll_usb.c"
  21              		.section	.text.USB_CoreReset,"ax",%progbits
  22              		.align	1
  23              		.syntax unified
  24              		.thumb
  25              		.thumb_func
  27              	USB_CoreReset:
  28              	.LVL0:
  29              	.LFB160:
   1:Drivers/STM32H5xx_HAL_Driver/Src/stm32h5xx_ll_usb.c **** /**
   2:Drivers/STM32H5xx_HAL_Driver/Src/stm32h5xx_ll_usb.c ****   ******************************************************************************
   3:Drivers/STM32H5xx_HAL_Driver/Src/stm32h5xx_ll_usb.c ****   * @file    stm32h5xx_ll_usb.c
   4:Drivers/STM32H5xx_HAL_Driver/Src/stm32h5xx_ll_usb.c ****   * @author  MCD Application Team
   5:Drivers/STM32H5xx_HAL_Driver/Src/stm32h5xx_ll_usb.c ****   * @brief   USB Low Layer HAL module driver.
   6:Drivers/STM32H5xx_HAL_Driver/Src/stm32h5xx_ll_usb.c ****   *
   7:Drivers/STM32H5xx_HAL_Driver/Src/stm32h5xx_ll_usb.c ****   *          This file provides firmware functions to manage the following
   8:Drivers/STM32H5xx_HAL_Driver/Src/stm32h5xx_ll_usb.c ****   *          functionalities of the USB Peripheral Controller:
   9:Drivers/STM32H5xx_HAL_Driver/Src/stm32h5xx_ll_usb.c ****   *           + Initialization/de-initialization functions
  10:Drivers/STM32H5xx_HAL_Driver/Src/stm32h5xx_ll_usb.c ****   *           + I/O operation functions
  11:Drivers/STM32H5xx_HAL_Driver/Src/stm32h5xx_ll_usb.c ****   *           + Peripheral Control functions
  12:Drivers/STM32H5xx_HAL_Driver/Src/stm32h5xx_ll_usb.c ****   *           + Peripheral State functions
  13:Drivers/STM32H5xx_HAL_Driver/Src/stm32h5xx_ll_usb.c ****   *
  14:Drivers/STM32H5xx_HAL_Driver/Src/stm32h5xx_ll_usb.c ****   ******************************************************************************
  15:Drivers/STM32H5xx_HAL_Driver/Src/stm32h5xx_ll_usb.c ****   * @attention
  16:Drivers/STM32H5xx_HAL_Driver/Src/stm32h5xx_ll_usb.c ****   *
  17:Drivers/STM32H5xx_HAL_Driver/Src/stm32h5xx_ll_usb.c ****   * Copyright (c) 2023 STMicroelectronics.
  18:Drivers/STM32H5xx_HAL_Driver/Src/stm32h5xx_ll_usb.c ****   * All rights reserved.
  19:Drivers/STM32H5xx_HAL_Driver/Src/stm32h5xx_ll_usb.c ****   *
  20:Drivers/STM32H5xx_HAL_Driver/Src/stm32h5xx_ll_usb.c ****   * This software is licensed under terms that can be found in the LICENSE file
  21:Drivers/STM32H5xx_HAL_Driver/Src/stm32h5xx_ll_usb.c ****   * in the root directory of this software component.
  22:Drivers/STM32H5xx_HAL_Driver/Src/stm32h5xx_ll_usb.c ****   * If no LICENSE file comes with this software, it is provided AS-IS.
  23:Drivers/STM32H5xx_HAL_Driver/Src/stm32h5xx_ll_usb.c ****   *
  24:Drivers/STM32H5xx_HAL_Driver/Src/stm32h5xx_ll_usb.c ****   ******************************************************************************
  25:Drivers/STM32H5xx_HAL_Driver/Src/stm32h5xx_ll_usb.c ****   @verbatim
  26:Drivers/STM32H5xx_HAL_Driver/Src/stm32h5xx_ll_usb.c ****   ==============================================================================
  27:Drivers/STM32H5xx_HAL_Driver/Src/stm32h5xx_ll_usb.c ****                     ##### How to use this driver #####
  28:Drivers/STM32H5xx_HAL_Driver/Src/stm32h5xx_ll_usb.c ****   ==============================================================================
  29:Drivers/STM32H5xx_HAL_Driver/Src/stm32h5xx_ll_usb.c ****     [..]
ARM GAS  C:\Users\sapph\AppData\Local\Temp\cchEHrSS.s 			page 2


  30:Drivers/STM32H5xx_HAL_Driver/Src/stm32h5xx_ll_usb.c ****       (#) Fill parameters of Init structure in USB_CfgTypeDef structure.
  31:Drivers/STM32H5xx_HAL_Driver/Src/stm32h5xx_ll_usb.c **** 
  32:Drivers/STM32H5xx_HAL_Driver/Src/stm32h5xx_ll_usb.c ****       (#) Call USB_CoreInit() API to initialize the USB Core peripheral.
  33:Drivers/STM32H5xx_HAL_Driver/Src/stm32h5xx_ll_usb.c **** 
  34:Drivers/STM32H5xx_HAL_Driver/Src/stm32h5xx_ll_usb.c ****       (#) The upper HAL HCD/PCD driver will call the right routines for its internal processes.
  35:Drivers/STM32H5xx_HAL_Driver/Src/stm32h5xx_ll_usb.c **** 
  36:Drivers/STM32H5xx_HAL_Driver/Src/stm32h5xx_ll_usb.c ****   @endverbatim
  37:Drivers/STM32H5xx_HAL_Driver/Src/stm32h5xx_ll_usb.c **** 
  38:Drivers/STM32H5xx_HAL_Driver/Src/stm32h5xx_ll_usb.c ****   ******************************************************************************
  39:Drivers/STM32H5xx_HAL_Driver/Src/stm32h5xx_ll_usb.c ****   */
  40:Drivers/STM32H5xx_HAL_Driver/Src/stm32h5xx_ll_usb.c **** 
  41:Drivers/STM32H5xx_HAL_Driver/Src/stm32h5xx_ll_usb.c **** /* Includes ------------------------------------------------------------------*/
  42:Drivers/STM32H5xx_HAL_Driver/Src/stm32h5xx_ll_usb.c **** #include "stm32h5xx_hal.h"
  43:Drivers/STM32H5xx_HAL_Driver/Src/stm32h5xx_ll_usb.c **** 
  44:Drivers/STM32H5xx_HAL_Driver/Src/stm32h5xx_ll_usb.c **** /** @addtogroup STM32H5xx_LL_USB_DRIVER
  45:Drivers/STM32H5xx_HAL_Driver/Src/stm32h5xx_ll_usb.c ****   * @{
  46:Drivers/STM32H5xx_HAL_Driver/Src/stm32h5xx_ll_usb.c ****   */
  47:Drivers/STM32H5xx_HAL_Driver/Src/stm32h5xx_ll_usb.c **** 
  48:Drivers/STM32H5xx_HAL_Driver/Src/stm32h5xx_ll_usb.c **** #if defined (HAL_PCD_MODULE_ENABLED) || defined (HAL_HCD_MODULE_ENABLED)
  49:Drivers/STM32H5xx_HAL_Driver/Src/stm32h5xx_ll_usb.c **** #if defined (USB_DRD_FS)
  50:Drivers/STM32H5xx_HAL_Driver/Src/stm32h5xx_ll_usb.c **** /* Private typedef -----------------------------------------------------------*/
  51:Drivers/STM32H5xx_HAL_Driver/Src/stm32h5xx_ll_usb.c **** /* Private define ------------------------------------------------------------*/
  52:Drivers/STM32H5xx_HAL_Driver/Src/stm32h5xx_ll_usb.c **** /* Private macro -------------------------------------------------------------*/
  53:Drivers/STM32H5xx_HAL_Driver/Src/stm32h5xx_ll_usb.c **** /* Private variables ---------------------------------------------------------*/
  54:Drivers/STM32H5xx_HAL_Driver/Src/stm32h5xx_ll_usb.c **** /* Private function prototypes -----------------------------------------------*/
  55:Drivers/STM32H5xx_HAL_Driver/Src/stm32h5xx_ll_usb.c **** /* Private functions ---------------------------------------------------------*/
  56:Drivers/STM32H5xx_HAL_Driver/Src/stm32h5xx_ll_usb.c **** 
  57:Drivers/STM32H5xx_HAL_Driver/Src/stm32h5xx_ll_usb.c **** static HAL_StatusTypeDef USB_CoreReset(USB_DRD_TypeDef *USBx);
  58:Drivers/STM32H5xx_HAL_Driver/Src/stm32h5xx_ll_usb.c **** #if (USE_USB_DOUBLE_BUFFER == 1U)
  59:Drivers/STM32H5xx_HAL_Driver/Src/stm32h5xx_ll_usb.c **** static HAL_StatusTypeDef USB_HC_BULK_DB_StartXfer(USB_DRD_TypeDef *USBx,
  60:Drivers/STM32H5xx_HAL_Driver/Src/stm32h5xx_ll_usb.c ****                                                   USB_DRD_HCTypeDef *hc,
  61:Drivers/STM32H5xx_HAL_Driver/Src/stm32h5xx_ll_usb.c ****                                                   uint32_t ch_reg,
  62:Drivers/STM32H5xx_HAL_Driver/Src/stm32h5xx_ll_usb.c ****                                                   uint32_t *len);
  63:Drivers/STM32H5xx_HAL_Driver/Src/stm32h5xx_ll_usb.c **** 
  64:Drivers/STM32H5xx_HAL_Driver/Src/stm32h5xx_ll_usb.c **** static HAL_StatusTypeDef USB_HC_ISO_DB_StartXfer(USB_DRD_TypeDef *USBx,
  65:Drivers/STM32H5xx_HAL_Driver/Src/stm32h5xx_ll_usb.c ****                                                  USB_DRD_HCTypeDef *hc,
  66:Drivers/STM32H5xx_HAL_Driver/Src/stm32h5xx_ll_usb.c ****                                                  uint32_t len);
  67:Drivers/STM32H5xx_HAL_Driver/Src/stm32h5xx_ll_usb.c **** #endif /* (USE_USB_DOUBLE_BUFFER == 1U) */
  68:Drivers/STM32H5xx_HAL_Driver/Src/stm32h5xx_ll_usb.c **** 
  69:Drivers/STM32H5xx_HAL_Driver/Src/stm32h5xx_ll_usb.c **** /**
  70:Drivers/STM32H5xx_HAL_Driver/Src/stm32h5xx_ll_usb.c ****   * @brief  Reset the USB Core (needed after USB clock settings change)
  71:Drivers/STM32H5xx_HAL_Driver/Src/stm32h5xx_ll_usb.c ****   * @param  USBx Selected device
  72:Drivers/STM32H5xx_HAL_Driver/Src/stm32h5xx_ll_usb.c ****   * @retval HAL status
  73:Drivers/STM32H5xx_HAL_Driver/Src/stm32h5xx_ll_usb.c ****   */
  74:Drivers/STM32H5xx_HAL_Driver/Src/stm32h5xx_ll_usb.c **** static HAL_StatusTypeDef USB_CoreReset(USB_DRD_TypeDef *USBx)
  75:Drivers/STM32H5xx_HAL_Driver/Src/stm32h5xx_ll_usb.c **** {
  30              		.loc 1 75 1 view -0
  31              		.cfi_startproc
  32              		@ args = 0, pretend = 0, frame = 0
  33              		@ frame_needed = 0, uses_anonymous_args = 0
  34              		@ link register save eliminated.
  76:Drivers/STM32H5xx_HAL_Driver/Src/stm32h5xx_ll_usb.c ****   /* Disable Host Mode */
  77:Drivers/STM32H5xx_HAL_Driver/Src/stm32h5xx_ll_usb.c ****   USBx->CNTR &= ~USB_CNTR_HOST;
  35              		.loc 1 77 3 view .LVU1
  36              		.loc 1 77 7 is_stmt 0 view .LVU2
  37 0000 036C     		ldr	r3, [r0, #64]
  38              		.loc 1 77 14 view .LVU3
ARM GAS  C:\Users\sapph\AppData\Local\Temp\cchEHrSS.s 			page 3


  39 0002 23F00043 		bic	r3, r3, #-2147483648
  40 0006 0364     		str	r3, [r0, #64]
  78:Drivers/STM32H5xx_HAL_Driver/Src/stm32h5xx_ll_usb.c **** 
  79:Drivers/STM32H5xx_HAL_Driver/Src/stm32h5xx_ll_usb.c ****   /* Force Reset IP */
  80:Drivers/STM32H5xx_HAL_Driver/Src/stm32h5xx_ll_usb.c ****   USBx->CNTR |= USB_CNTR_USBRST;
  41              		.loc 1 80 3 is_stmt 1 view .LVU4
  42              		.loc 1 80 7 is_stmt 0 view .LVU5
  43 0008 036C     		ldr	r3, [r0, #64]
  44              		.loc 1 80 14 view .LVU6
  45 000a 43F00103 		orr	r3, r3, #1
  46 000e 0364     		str	r3, [r0, #64]
  81:Drivers/STM32H5xx_HAL_Driver/Src/stm32h5xx_ll_usb.c **** 
  82:Drivers/STM32H5xx_HAL_Driver/Src/stm32h5xx_ll_usb.c ****   return HAL_OK;
  47              		.loc 1 82 3 is_stmt 1 view .LVU7
  83:Drivers/STM32H5xx_HAL_Driver/Src/stm32h5xx_ll_usb.c **** }
  48              		.loc 1 83 1 is_stmt 0 view .LVU8
  49 0010 0020     		movs	r0, #0
  50              	.LVL1:
  51              		.loc 1 83 1 view .LVU9
  52 0012 7047     		bx	lr
  53              		.cfi_endproc
  54              	.LFE160:
  56              		.section	.text.USB_CoreInit,"ax",%progbits
  57              		.align	1
  58              		.global	USB_CoreInit
  59              		.syntax unified
  60              		.thumb
  61              		.thumb_func
  63              	USB_CoreInit:
  64              	.LVL2:
  65              	.LFB161:
  84:Drivers/STM32H5xx_HAL_Driver/Src/stm32h5xx_ll_usb.c **** 
  85:Drivers/STM32H5xx_HAL_Driver/Src/stm32h5xx_ll_usb.c **** /**
  86:Drivers/STM32H5xx_HAL_Driver/Src/stm32h5xx_ll_usb.c ****   * @brief  Initializes the USB Core
  87:Drivers/STM32H5xx_HAL_Driver/Src/stm32h5xx_ll_usb.c ****   * @param  USBx USB Instance
  88:Drivers/STM32H5xx_HAL_Driver/Src/stm32h5xx_ll_usb.c ****   * @param  cfg pointer to a USB_CfgTypeDef structure that contains
  89:Drivers/STM32H5xx_HAL_Driver/Src/stm32h5xx_ll_usb.c ****   *         the configuration information for the specified USBx peripheral.
  90:Drivers/STM32H5xx_HAL_Driver/Src/stm32h5xx_ll_usb.c ****   * @retval HAL status
  91:Drivers/STM32H5xx_HAL_Driver/Src/stm32h5xx_ll_usb.c ****   */
  92:Drivers/STM32H5xx_HAL_Driver/Src/stm32h5xx_ll_usb.c **** HAL_StatusTypeDef USB_CoreInit(USB_DRD_TypeDef *USBx, USB_DRD_CfgTypeDef cfg)
  93:Drivers/STM32H5xx_HAL_Driver/Src/stm32h5xx_ll_usb.c **** {
  66              		.loc 1 93 1 is_stmt 1 view -0
  67              		.cfi_startproc
  68              		@ args = 20, pretend = 16, frame = 0
  69              		@ frame_needed = 0, uses_anonymous_args = 0
  70              		.loc 1 93 1 is_stmt 0 view .LVU11
  71 0000 84B0     		sub	sp, sp, #16
  72              		.cfi_def_cfa_offset 16
  73 0002 10B5     		push	{r4, lr}
  74              		.cfi_def_cfa_offset 24
  75              		.cfi_offset 4, -24
  76              		.cfi_offset 14, -20
  77 0004 0DF10C0C 		add	ip, sp, #12
  78 0008 8CE80E00 		stm	ip, {r1, r2, r3}
  94:Drivers/STM32H5xx_HAL_Driver/Src/stm32h5xx_ll_usb.c ****   HAL_StatusTypeDef ret;
  79              		.loc 1 94 3 is_stmt 1 view .LVU12
  95:Drivers/STM32H5xx_HAL_Driver/Src/stm32h5xx_ll_usb.c ****   UNUSED(cfg);
ARM GAS  C:\Users\sapph\AppData\Local\Temp\cchEHrSS.s 			page 4


  80              		.loc 1 95 3 view .LVU13
  96:Drivers/STM32H5xx_HAL_Driver/Src/stm32h5xx_ll_usb.c **** 
  97:Drivers/STM32H5xx_HAL_Driver/Src/stm32h5xx_ll_usb.c ****   if (USBx == NULL)
  81              		.loc 1 97 3 view .LVU14
  82              		.loc 1 97 6 is_stmt 0 view .LVU15
  83 000c 40B1     		cbz	r0, .L4
  84 000e 0446     		mov	r4, r0
  98:Drivers/STM32H5xx_HAL_Driver/Src/stm32h5xx_ll_usb.c ****   {
  99:Drivers/STM32H5xx_HAL_Driver/Src/stm32h5xx_ll_usb.c ****     return HAL_ERROR;
 100:Drivers/STM32H5xx_HAL_Driver/Src/stm32h5xx_ll_usb.c ****   }
 101:Drivers/STM32H5xx_HAL_Driver/Src/stm32h5xx_ll_usb.c **** 
 102:Drivers/STM32H5xx_HAL_Driver/Src/stm32h5xx_ll_usb.c ****   /* Reset after a PHY select */
 103:Drivers/STM32H5xx_HAL_Driver/Src/stm32h5xx_ll_usb.c ****   ret = USB_CoreReset(USBx);
  85              		.loc 1 103 3 is_stmt 1 view .LVU16
  86              		.loc 1 103 9 is_stmt 0 view .LVU17
  87 0010 FFF7FEFF 		bl	USB_CoreReset
  88              	.LVL3:
 104:Drivers/STM32H5xx_HAL_Driver/Src/stm32h5xx_ll_usb.c **** 
 105:Drivers/STM32H5xx_HAL_Driver/Src/stm32h5xx_ll_usb.c ****   /* Clear pending interrupts */
 106:Drivers/STM32H5xx_HAL_Driver/Src/stm32h5xx_ll_usb.c ****   USBx->ISTR = 0U;
  89              		.loc 1 106 3 is_stmt 1 view .LVU18
  90              		.loc 1 106 14 is_stmt 0 view .LVU19
  91 0014 0023     		movs	r3, #0
  92 0016 6364     		str	r3, [r4, #68]
 107:Drivers/STM32H5xx_HAL_Driver/Src/stm32h5xx_ll_usb.c **** 
 108:Drivers/STM32H5xx_HAL_Driver/Src/stm32h5xx_ll_usb.c ****   return ret;
  93              		.loc 1 108 3 is_stmt 1 view .LVU20
  94              	.LVL4:
  95              	.L3:
 109:Drivers/STM32H5xx_HAL_Driver/Src/stm32h5xx_ll_usb.c **** }
  96              		.loc 1 109 1 is_stmt 0 view .LVU21
  97 0018 BDE81040 		pop	{r4, lr}
  98              		.cfi_remember_state
  99              		.cfi_restore 14
 100              		.cfi_restore 4
 101              		.cfi_def_cfa_offset 16
 102 001c 04B0     		add	sp, sp, #16
 103              		.cfi_def_cfa_offset 0
 104 001e 7047     		bx	lr
 105              	.LVL5:
 106              	.L4:
 107              		.cfi_restore_state
  99:Drivers/STM32H5xx_HAL_Driver/Src/stm32h5xx_ll_usb.c ****   }
 108              		.loc 1 99 12 view .LVU22
 109 0020 0120     		movs	r0, #1
 110              	.LVL6:
  99:Drivers/STM32H5xx_HAL_Driver/Src/stm32h5xx_ll_usb.c ****   }
 111              		.loc 1 99 12 view .LVU23
 112 0022 F9E7     		b	.L3
 113              		.cfi_endproc
 114              	.LFE161:
 116              		.section	.text.USB_EnableGlobalInt,"ax",%progbits
 117              		.align	1
 118              		.global	USB_EnableGlobalInt
 119              		.syntax unified
 120              		.thumb
 121              		.thumb_func
ARM GAS  C:\Users\sapph\AppData\Local\Temp\cchEHrSS.s 			page 5


 123              	USB_EnableGlobalInt:
 124              	.LVL7:
 125              	.LFB162:
 110:Drivers/STM32H5xx_HAL_Driver/Src/stm32h5xx_ll_usb.c **** 
 111:Drivers/STM32H5xx_HAL_Driver/Src/stm32h5xx_ll_usb.c **** /**
 112:Drivers/STM32H5xx_HAL_Driver/Src/stm32h5xx_ll_usb.c ****   * @brief  USB_EnableGlobalInt
 113:Drivers/STM32H5xx_HAL_Driver/Src/stm32h5xx_ll_usb.c ****   *         Enables the controller's Global Int in the AHB Config reg
 114:Drivers/STM32H5xx_HAL_Driver/Src/stm32h5xx_ll_usb.c ****   * @param  USBx Selected device
 115:Drivers/STM32H5xx_HAL_Driver/Src/stm32h5xx_ll_usb.c ****   * @retval HAL status
 116:Drivers/STM32H5xx_HAL_Driver/Src/stm32h5xx_ll_usb.c ****   */
 117:Drivers/STM32H5xx_HAL_Driver/Src/stm32h5xx_ll_usb.c **** HAL_StatusTypeDef USB_EnableGlobalInt(USB_DRD_TypeDef *USBx)
 118:Drivers/STM32H5xx_HAL_Driver/Src/stm32h5xx_ll_usb.c **** {
 126              		.loc 1 118 1 is_stmt 1 view -0
 127              		.cfi_startproc
 128              		@ args = 0, pretend = 0, frame = 0
 129              		@ frame_needed = 0, uses_anonymous_args = 0
 130              		@ link register save eliminated.
 131              		.loc 1 118 1 is_stmt 0 view .LVU25
 132 0000 0346     		mov	r3, r0
 119:Drivers/STM32H5xx_HAL_Driver/Src/stm32h5xx_ll_usb.c ****   uint32_t winterruptmask;
 133              		.loc 1 119 3 is_stmt 1 view .LVU26
 120:Drivers/STM32H5xx_HAL_Driver/Src/stm32h5xx_ll_usb.c **** 
 121:Drivers/STM32H5xx_HAL_Driver/Src/stm32h5xx_ll_usb.c ****   /* Clear pending interrupts */
 122:Drivers/STM32H5xx_HAL_Driver/Src/stm32h5xx_ll_usb.c ****   USBx->ISTR = 0U;
 134              		.loc 1 122 3 view .LVU27
 135              		.loc 1 122 14 is_stmt 0 view .LVU28
 136 0002 0020     		movs	r0, #0
 137              	.LVL8:
 138              		.loc 1 122 14 view .LVU29
 139 0004 5864     		str	r0, [r3, #68]
 123:Drivers/STM32H5xx_HAL_Driver/Src/stm32h5xx_ll_usb.c **** 
 124:Drivers/STM32H5xx_HAL_Driver/Src/stm32h5xx_ll_usb.c ****   /* Set winterruptmask variable */
 125:Drivers/STM32H5xx_HAL_Driver/Src/stm32h5xx_ll_usb.c ****   winterruptmask = USB_CNTR_CTRM  | USB_CNTR_WKUPM |
 140              		.loc 1 125 3 is_stmt 1 view .LVU30
 141              	.LVL9:
 126:Drivers/STM32H5xx_HAL_Driver/Src/stm32h5xx_ll_usb.c ****                    USB_CNTR_SUSPM | USB_CNTR_ERRM |
 127:Drivers/STM32H5xx_HAL_Driver/Src/stm32h5xx_ll_usb.c ****                    USB_CNTR_SOFM | USB_CNTR_ESOFM |
 128:Drivers/STM32H5xx_HAL_Driver/Src/stm32h5xx_ll_usb.c ****                    USB_CNTR_RESETM | USB_CNTR_L1REQM;
 129:Drivers/STM32H5xx_HAL_Driver/Src/stm32h5xx_ll_usb.c **** 
 130:Drivers/STM32H5xx_HAL_Driver/Src/stm32h5xx_ll_usb.c ****   /* Set interrupt mask */
 131:Drivers/STM32H5xx_HAL_Driver/Src/stm32h5xx_ll_usb.c ****   USBx->CNTR = winterruptmask;
 142              		.loc 1 131 3 view .LVU31
 143              		.loc 1 131 14 is_stmt 0 view .LVU32
 144 0006 4BF68072 		movw	r2, #49024
 145 000a 1A64     		str	r2, [r3, #64]
 132:Drivers/STM32H5xx_HAL_Driver/Src/stm32h5xx_ll_usb.c **** 
 133:Drivers/STM32H5xx_HAL_Driver/Src/stm32h5xx_ll_usb.c ****   return HAL_OK;
 146              		.loc 1 133 3 is_stmt 1 view .LVU33
 134:Drivers/STM32H5xx_HAL_Driver/Src/stm32h5xx_ll_usb.c **** }
 147              		.loc 1 134 1 is_stmt 0 view .LVU34
 148 000c 7047     		bx	lr
 149              		.cfi_endproc
 150              	.LFE162:
 152              		.section	.text.USB_DisableGlobalInt,"ax",%progbits
 153              		.align	1
 154              		.global	USB_DisableGlobalInt
 155              		.syntax unified
ARM GAS  C:\Users\sapph\AppData\Local\Temp\cchEHrSS.s 			page 6


 156              		.thumb
 157              		.thumb_func
 159              	USB_DisableGlobalInt:
 160              	.LVL10:
 161              	.LFB163:
 135:Drivers/STM32H5xx_HAL_Driver/Src/stm32h5xx_ll_usb.c **** 
 136:Drivers/STM32H5xx_HAL_Driver/Src/stm32h5xx_ll_usb.c **** /**
 137:Drivers/STM32H5xx_HAL_Driver/Src/stm32h5xx_ll_usb.c ****   * @brief  USB_DisableGlobalInt
 138:Drivers/STM32H5xx_HAL_Driver/Src/stm32h5xx_ll_usb.c ****   *         Disable the controller's Global Int in the AHB Config reg
 139:Drivers/STM32H5xx_HAL_Driver/Src/stm32h5xx_ll_usb.c ****   * @param  USBx Selected device
 140:Drivers/STM32H5xx_HAL_Driver/Src/stm32h5xx_ll_usb.c ****   * @retval HAL status
 141:Drivers/STM32H5xx_HAL_Driver/Src/stm32h5xx_ll_usb.c ****   */
 142:Drivers/STM32H5xx_HAL_Driver/Src/stm32h5xx_ll_usb.c **** HAL_StatusTypeDef USB_DisableGlobalInt(USB_DRD_TypeDef *USBx)
 143:Drivers/STM32H5xx_HAL_Driver/Src/stm32h5xx_ll_usb.c **** {
 162              		.loc 1 143 1 is_stmt 1 view -0
 163              		.cfi_startproc
 164              		@ args = 0, pretend = 0, frame = 0
 165              		@ frame_needed = 0, uses_anonymous_args = 0
 166              		@ link register save eliminated.
 144:Drivers/STM32H5xx_HAL_Driver/Src/stm32h5xx_ll_usb.c ****   uint32_t winterruptmask;
 167              		.loc 1 144 3 view .LVU36
 145:Drivers/STM32H5xx_HAL_Driver/Src/stm32h5xx_ll_usb.c **** 
 146:Drivers/STM32H5xx_HAL_Driver/Src/stm32h5xx_ll_usb.c ****   /* Set winterruptmask variable */
 147:Drivers/STM32H5xx_HAL_Driver/Src/stm32h5xx_ll_usb.c ****   winterruptmask = USB_CNTR_CTRM  | USB_CNTR_WKUPM |
 168              		.loc 1 147 3 view .LVU37
 148:Drivers/STM32H5xx_HAL_Driver/Src/stm32h5xx_ll_usb.c ****                    USB_CNTR_SUSPM | USB_CNTR_ERRM |
 149:Drivers/STM32H5xx_HAL_Driver/Src/stm32h5xx_ll_usb.c ****                    USB_CNTR_SOFM | USB_CNTR_ESOFM |
 150:Drivers/STM32H5xx_HAL_Driver/Src/stm32h5xx_ll_usb.c ****                    USB_CNTR_RESETM | USB_CNTR_L1REQM;
 151:Drivers/STM32H5xx_HAL_Driver/Src/stm32h5xx_ll_usb.c **** 
 152:Drivers/STM32H5xx_HAL_Driver/Src/stm32h5xx_ll_usb.c ****   /* Clear interrupt mask */
 153:Drivers/STM32H5xx_HAL_Driver/Src/stm32h5xx_ll_usb.c ****   USBx->CNTR &= ~winterruptmask;
 169              		.loc 1 153 3 view .LVU38
 170              		.loc 1 153 7 is_stmt 0 view .LVU39
 171 0000 036C     		ldr	r3, [r0, #64]
 172              		.loc 1 153 14 view .LVU40
 173 0002 23F43F43 		bic	r3, r3, #48896
 174 0006 23F08003 		bic	r3, r3, #128
 175 000a 0364     		str	r3, [r0, #64]
 154:Drivers/STM32H5xx_HAL_Driver/Src/stm32h5xx_ll_usb.c **** 
 155:Drivers/STM32H5xx_HAL_Driver/Src/stm32h5xx_ll_usb.c ****   return HAL_OK;
 176              		.loc 1 155 3 is_stmt 1 view .LVU41
 156:Drivers/STM32H5xx_HAL_Driver/Src/stm32h5xx_ll_usb.c **** }
 177              		.loc 1 156 1 is_stmt 0 view .LVU42
 178 000c 0020     		movs	r0, #0
 179              	.LVL11:
 180              		.loc 1 156 1 view .LVU43
 181 000e 7047     		bx	lr
 182              		.cfi_endproc
 183              	.LFE163:
 185              		.section	.text.USB_SetCurrentMode,"ax",%progbits
 186              		.align	1
 187              		.global	USB_SetCurrentMode
 188              		.syntax unified
 189              		.thumb
 190              		.thumb_func
 192              	USB_SetCurrentMode:
 193              	.LVL12:
ARM GAS  C:\Users\sapph\AppData\Local\Temp\cchEHrSS.s 			page 7


 194              	.LFB164:
 157:Drivers/STM32H5xx_HAL_Driver/Src/stm32h5xx_ll_usb.c **** 
 158:Drivers/STM32H5xx_HAL_Driver/Src/stm32h5xx_ll_usb.c **** /**
 159:Drivers/STM32H5xx_HAL_Driver/Src/stm32h5xx_ll_usb.c ****   * @brief  USB_SetCurrentMode Set functional mode
 160:Drivers/STM32H5xx_HAL_Driver/Src/stm32h5xx_ll_usb.c ****   * @param  USBx Selected device
 161:Drivers/STM32H5xx_HAL_Driver/Src/stm32h5xx_ll_usb.c ****   * @param  mode current core mode
 162:Drivers/STM32H5xx_HAL_Driver/Src/stm32h5xx_ll_usb.c ****   *          This parameter can be one of the these values:
 163:Drivers/STM32H5xx_HAL_Driver/Src/stm32h5xx_ll_usb.c ****   *            @arg USB_DEVICE_MODE Peripheral mode
 164:Drivers/STM32H5xx_HAL_Driver/Src/stm32h5xx_ll_usb.c ****   * @retval HAL status
 165:Drivers/STM32H5xx_HAL_Driver/Src/stm32h5xx_ll_usb.c ****   */
 166:Drivers/STM32H5xx_HAL_Driver/Src/stm32h5xx_ll_usb.c **** HAL_StatusTypeDef USB_SetCurrentMode(USB_DRD_TypeDef *USBx, USB_DRD_ModeTypeDef mode)
 167:Drivers/STM32H5xx_HAL_Driver/Src/stm32h5xx_ll_usb.c **** {
 195              		.loc 1 167 1 is_stmt 1 view -0
 196              		.cfi_startproc
 197              		@ args = 0, pretend = 0, frame = 0
 198              		@ frame_needed = 0, uses_anonymous_args = 0
 199              		@ link register save eliminated.
 168:Drivers/STM32H5xx_HAL_Driver/Src/stm32h5xx_ll_usb.c ****   if (mode == USB_DEVICE_MODE)
 200              		.loc 1 168 3 view .LVU45
 201              		.loc 1 168 6 is_stmt 0 view .LVU46
 202 0000 29B9     		cbnz	r1, .L9
 169:Drivers/STM32H5xx_HAL_Driver/Src/stm32h5xx_ll_usb.c ****   {
 170:Drivers/STM32H5xx_HAL_Driver/Src/stm32h5xx_ll_usb.c ****     USBx->CNTR &= ~USB_CNTR_HOST;
 203              		.loc 1 170 5 is_stmt 1 view .LVU47
 204              		.loc 1 170 9 is_stmt 0 view .LVU48
 205 0002 026C     		ldr	r2, [r0, #64]
 206              		.loc 1 170 16 view .LVU49
 207 0004 22F00042 		bic	r2, r2, #-2147483648
 208 0008 0264     		str	r2, [r0, #64]
 171:Drivers/STM32H5xx_HAL_Driver/Src/stm32h5xx_ll_usb.c ****   }
 172:Drivers/STM32H5xx_HAL_Driver/Src/stm32h5xx_ll_usb.c ****   else if (mode == USB_HOST_MODE)
 173:Drivers/STM32H5xx_HAL_Driver/Src/stm32h5xx_ll_usb.c ****   {
 174:Drivers/STM32H5xx_HAL_Driver/Src/stm32h5xx_ll_usb.c ****     USBx->CNTR |= USB_CNTR_HOST;
 175:Drivers/STM32H5xx_HAL_Driver/Src/stm32h5xx_ll_usb.c ****   }
 176:Drivers/STM32H5xx_HAL_Driver/Src/stm32h5xx_ll_usb.c ****   else
 177:Drivers/STM32H5xx_HAL_Driver/Src/stm32h5xx_ll_usb.c ****   {
 178:Drivers/STM32H5xx_HAL_Driver/Src/stm32h5xx_ll_usb.c ****     return HAL_ERROR;
 179:Drivers/STM32H5xx_HAL_Driver/Src/stm32h5xx_ll_usb.c ****   }
 180:Drivers/STM32H5xx_HAL_Driver/Src/stm32h5xx_ll_usb.c **** 
 181:Drivers/STM32H5xx_HAL_Driver/Src/stm32h5xx_ll_usb.c ****   return HAL_OK;
 209              		.loc 1 181 10 view .LVU50
 210 000a 0846     		mov	r0, r1
 211              	.LVL13:
 212              		.loc 1 181 10 view .LVU51
 213 000c 7047     		bx	lr
 214              	.LVL14:
 215              	.L9:
 172:Drivers/STM32H5xx_HAL_Driver/Src/stm32h5xx_ll_usb.c ****   {
 216              		.loc 1 172 8 is_stmt 1 view .LVU52
 172:Drivers/STM32H5xx_HAL_Driver/Src/stm32h5xx_ll_usb.c ****   {
 217              		.loc 1 172 11 is_stmt 0 view .LVU53
 218 000e 0129     		cmp	r1, #1
 219 0010 05D1     		bne	.L11
 174:Drivers/STM32H5xx_HAL_Driver/Src/stm32h5xx_ll_usb.c ****   }
 220              		.loc 1 174 5 is_stmt 1 view .LVU54
 174:Drivers/STM32H5xx_HAL_Driver/Src/stm32h5xx_ll_usb.c ****   }
 221              		.loc 1 174 9 is_stmt 0 view .LVU55
ARM GAS  C:\Users\sapph\AppData\Local\Temp\cchEHrSS.s 			page 8


 222 0012 036C     		ldr	r3, [r0, #64]
 174:Drivers/STM32H5xx_HAL_Driver/Src/stm32h5xx_ll_usb.c ****   }
 223              		.loc 1 174 16 view .LVU56
 224 0014 43F00043 		orr	r3, r3, #-2147483648
 225 0018 0364     		str	r3, [r0, #64]
 226              		.loc 1 181 10 view .LVU57
 227 001a 0020     		movs	r0, #0
 228              	.LVL15:
 229              		.loc 1 181 10 view .LVU58
 230 001c 7047     		bx	lr
 231              	.LVL16:
 232              	.L11:
 178:Drivers/STM32H5xx_HAL_Driver/Src/stm32h5xx_ll_usb.c ****   }
 233              		.loc 1 178 12 view .LVU59
 234 001e 0120     		movs	r0, #1
 235              	.LVL17:
 182:Drivers/STM32H5xx_HAL_Driver/Src/stm32h5xx_ll_usb.c **** }
 236              		.loc 1 182 1 view .LVU60
 237 0020 7047     		bx	lr
 238              		.cfi_endproc
 239              	.LFE164:
 241              		.section	.text.USB_DevInit,"ax",%progbits
 242              		.align	1
 243              		.global	USB_DevInit
 244              		.syntax unified
 245              		.thumb
 246              		.thumb_func
 248              	USB_DevInit:
 249              	.LVL18:
 250              	.LFB165:
 183:Drivers/STM32H5xx_HAL_Driver/Src/stm32h5xx_ll_usb.c **** 
 184:Drivers/STM32H5xx_HAL_Driver/Src/stm32h5xx_ll_usb.c **** /**
 185:Drivers/STM32H5xx_HAL_Driver/Src/stm32h5xx_ll_usb.c ****   * @brief  USB_DevInit Initializes the USB controller registers
 186:Drivers/STM32H5xx_HAL_Driver/Src/stm32h5xx_ll_usb.c ****   *         for device mode
 187:Drivers/STM32H5xx_HAL_Driver/Src/stm32h5xx_ll_usb.c ****   * @param  USBx Selected device
 188:Drivers/STM32H5xx_HAL_Driver/Src/stm32h5xx_ll_usb.c ****   * @param  cfg  pointer to a USB_DRD_CfgTypeDef structure that contains
 189:Drivers/STM32H5xx_HAL_Driver/Src/stm32h5xx_ll_usb.c ****   *         the configuration information for the specified USBx peripheral.
 190:Drivers/STM32H5xx_HAL_Driver/Src/stm32h5xx_ll_usb.c ****   * @retval HAL status
 191:Drivers/STM32H5xx_HAL_Driver/Src/stm32h5xx_ll_usb.c ****   */
 192:Drivers/STM32H5xx_HAL_Driver/Src/stm32h5xx_ll_usb.c **** HAL_StatusTypeDef USB_DevInit(USB_DRD_TypeDef *USBx, USB_DRD_CfgTypeDef cfg)
 193:Drivers/STM32H5xx_HAL_Driver/Src/stm32h5xx_ll_usb.c **** {
 251              		.loc 1 193 1 is_stmt 1 view -0
 252              		.cfi_startproc
 253              		@ args = 20, pretend = 16, frame = 0
 254              		@ frame_needed = 0, uses_anonymous_args = 0
 255              		.loc 1 193 1 is_stmt 0 view .LVU62
 256 0000 84B0     		sub	sp, sp, #16
 257              		.cfi_def_cfa_offset 16
 258 0002 10B5     		push	{r4, lr}
 259              		.cfi_def_cfa_offset 24
 260              		.cfi_offset 4, -24
 261              		.cfi_offset 14, -20
 262 0004 0446     		mov	r4, r0
 263 0006 0DF10C0C 		add	ip, sp, #12
 264 000a 8CE80E00 		stm	ip, {r1, r2, r3}
 194:Drivers/STM32H5xx_HAL_Driver/Src/stm32h5xx_ll_usb.c ****   HAL_StatusTypeDef ret;
 265              		.loc 1 194 3 is_stmt 1 view .LVU63
ARM GAS  C:\Users\sapph\AppData\Local\Temp\cchEHrSS.s 			page 9


 195:Drivers/STM32H5xx_HAL_Driver/Src/stm32h5xx_ll_usb.c **** 
 196:Drivers/STM32H5xx_HAL_Driver/Src/stm32h5xx_ll_usb.c ****   /* Prevent unused argument(s) compilation warning */
 197:Drivers/STM32H5xx_HAL_Driver/Src/stm32h5xx_ll_usb.c ****   UNUSED(cfg);
 266              		.loc 1 197 3 view .LVU64
 198:Drivers/STM32H5xx_HAL_Driver/Src/stm32h5xx_ll_usb.c **** 
 199:Drivers/STM32H5xx_HAL_Driver/Src/stm32h5xx_ll_usb.c ****   /* Force Reset */
 200:Drivers/STM32H5xx_HAL_Driver/Src/stm32h5xx_ll_usb.c ****   USBx->CNTR = USB_CNTR_USBRST;
 267              		.loc 1 200 3 view .LVU65
 268              		.loc 1 200 14 is_stmt 0 view .LVU66
 269 000e 0123     		movs	r3, #1
 270 0010 0364     		str	r3, [r0, #64]
 201:Drivers/STM32H5xx_HAL_Driver/Src/stm32h5xx_ll_usb.c **** 
 202:Drivers/STM32H5xx_HAL_Driver/Src/stm32h5xx_ll_usb.c ****   /* Release Reset */
 203:Drivers/STM32H5xx_HAL_Driver/Src/stm32h5xx_ll_usb.c ****   USBx->CNTR &= ~USB_CNTR_USBRST;
 271              		.loc 1 203 3 is_stmt 1 view .LVU67
 272              		.loc 1 203 7 is_stmt 0 view .LVU68
 273 0012 036C     		ldr	r3, [r0, #64]
 274              		.loc 1 203 14 view .LVU69
 275 0014 23F00103 		bic	r3, r3, #1
 276 0018 0364     		str	r3, [r0, #64]
 204:Drivers/STM32H5xx_HAL_Driver/Src/stm32h5xx_ll_usb.c **** 
 205:Drivers/STM32H5xx_HAL_Driver/Src/stm32h5xx_ll_usb.c ****   /* Set the Device Mode */
 206:Drivers/STM32H5xx_HAL_Driver/Src/stm32h5xx_ll_usb.c ****   ret = USB_SetCurrentMode(USBx, USB_DEVICE_MODE);
 277              		.loc 1 206 3 is_stmt 1 view .LVU70
 278              		.loc 1 206 9 is_stmt 0 view .LVU71
 279 001a 0021     		movs	r1, #0
 280 001c FFF7FEFF 		bl	USB_SetCurrentMode
 281              	.LVL19:
 207:Drivers/STM32H5xx_HAL_Driver/Src/stm32h5xx_ll_usb.c **** 
 208:Drivers/STM32H5xx_HAL_Driver/Src/stm32h5xx_ll_usb.c ****   /* Clear pending interrupts */
 209:Drivers/STM32H5xx_HAL_Driver/Src/stm32h5xx_ll_usb.c ****   USBx->ISTR = 0U;
 282              		.loc 1 209 3 is_stmt 1 view .LVU72
 283              		.loc 1 209 14 is_stmt 0 view .LVU73
 284 0020 0023     		movs	r3, #0
 285 0022 6364     		str	r3, [r4, #68]
 210:Drivers/STM32H5xx_HAL_Driver/Src/stm32h5xx_ll_usb.c **** 
 211:Drivers/STM32H5xx_HAL_Driver/Src/stm32h5xx_ll_usb.c ****   return ret;
 286              		.loc 1 211 3 is_stmt 1 view .LVU74
 212:Drivers/STM32H5xx_HAL_Driver/Src/stm32h5xx_ll_usb.c **** }
 287              		.loc 1 212 1 is_stmt 0 view .LVU75
 288 0024 BDE81040 		pop	{r4, lr}
 289              		.cfi_restore 14
 290              		.cfi_restore 4
 291              		.cfi_def_cfa_offset 16
 292              	.LVL20:
 293              		.loc 1 212 1 view .LVU76
 294 0028 04B0     		add	sp, sp, #16
 295              		.cfi_def_cfa_offset 0
 296 002a 7047     		bx	lr
 297              		.cfi_endproc
 298              	.LFE165:
 300              		.section	.text.USB_FlushTxFifo,"ax",%progbits
 301              		.align	1
 302              		.global	USB_FlushTxFifo
 303              		.syntax unified
 304              		.thumb
 305              		.thumb_func
ARM GAS  C:\Users\sapph\AppData\Local\Temp\cchEHrSS.s 			page 10


 307              	USB_FlushTxFifo:
 308              	.LVL21:
 309              	.LFB166:
 213:Drivers/STM32H5xx_HAL_Driver/Src/stm32h5xx_ll_usb.c **** 
 214:Drivers/STM32H5xx_HAL_Driver/Src/stm32h5xx_ll_usb.c **** /**
 215:Drivers/STM32H5xx_HAL_Driver/Src/stm32h5xx_ll_usb.c ****   * @brief  USB_FlushTxFifo : Flush a Tx FIFO
 216:Drivers/STM32H5xx_HAL_Driver/Src/stm32h5xx_ll_usb.c ****   * @param  USBx : Selected device
 217:Drivers/STM32H5xx_HAL_Driver/Src/stm32h5xx_ll_usb.c ****   * @param  num : FIFO number
 218:Drivers/STM32H5xx_HAL_Driver/Src/stm32h5xx_ll_usb.c ****   *         This parameter can be a value from 1 to 15
 219:Drivers/STM32H5xx_HAL_Driver/Src/stm32h5xx_ll_usb.c ****             15 means Flush all Tx FIFOs
 220:Drivers/STM32H5xx_HAL_Driver/Src/stm32h5xx_ll_usb.c ****   * @retval HAL status
 221:Drivers/STM32H5xx_HAL_Driver/Src/stm32h5xx_ll_usb.c ****   */
 222:Drivers/STM32H5xx_HAL_Driver/Src/stm32h5xx_ll_usb.c **** HAL_StatusTypeDef USB_FlushTxFifo(USB_DRD_TypeDef const *USBx, uint32_t num)
 223:Drivers/STM32H5xx_HAL_Driver/Src/stm32h5xx_ll_usb.c **** {
 310              		.loc 1 223 1 is_stmt 1 view -0
 311              		.cfi_startproc
 312              		@ args = 0, pretend = 0, frame = 0
 313              		@ frame_needed = 0, uses_anonymous_args = 0
 314              		@ link register save eliminated.
 224:Drivers/STM32H5xx_HAL_Driver/Src/stm32h5xx_ll_usb.c ****   /* Prevent unused argument(s) compilation warning */
 225:Drivers/STM32H5xx_HAL_Driver/Src/stm32h5xx_ll_usb.c ****   UNUSED(USBx);
 315              		.loc 1 225 3 view .LVU78
 226:Drivers/STM32H5xx_HAL_Driver/Src/stm32h5xx_ll_usb.c ****   UNUSED(num);
 316              		.loc 1 226 3 view .LVU79
 227:Drivers/STM32H5xx_HAL_Driver/Src/stm32h5xx_ll_usb.c **** 
 228:Drivers/STM32H5xx_HAL_Driver/Src/stm32h5xx_ll_usb.c ****   /* NOTE : - This function is not required by USB Device FS peripheral, it is used
 229:Drivers/STM32H5xx_HAL_Driver/Src/stm32h5xx_ll_usb.c ****               only by USB OTG FS peripheral.
 230:Drivers/STM32H5xx_HAL_Driver/Src/stm32h5xx_ll_usb.c ****             - This function is added to ensure compatibility across platforms.
 231:Drivers/STM32H5xx_HAL_Driver/Src/stm32h5xx_ll_usb.c ****    */
 232:Drivers/STM32H5xx_HAL_Driver/Src/stm32h5xx_ll_usb.c **** 
 233:Drivers/STM32H5xx_HAL_Driver/Src/stm32h5xx_ll_usb.c ****   return HAL_OK;
 317              		.loc 1 233 3 view .LVU80
 234:Drivers/STM32H5xx_HAL_Driver/Src/stm32h5xx_ll_usb.c **** }
 318              		.loc 1 234 1 is_stmt 0 view .LVU81
 319 0000 0020     		movs	r0, #0
 320              	.LVL22:
 321              		.loc 1 234 1 view .LVU82
 322 0002 7047     		bx	lr
 323              		.cfi_endproc
 324              	.LFE166:
 326              		.section	.text.USB_FlushRxFifo,"ax",%progbits
 327              		.align	1
 328              		.global	USB_FlushRxFifo
 329              		.syntax unified
 330              		.thumb
 331              		.thumb_func
 333              	USB_FlushRxFifo:
 334              	.LVL23:
 335              	.LFB167:
 235:Drivers/STM32H5xx_HAL_Driver/Src/stm32h5xx_ll_usb.c **** 
 236:Drivers/STM32H5xx_HAL_Driver/Src/stm32h5xx_ll_usb.c **** /**
 237:Drivers/STM32H5xx_HAL_Driver/Src/stm32h5xx_ll_usb.c ****   * @brief  USB_FlushRxFifo : Flush Rx FIFO
 238:Drivers/STM32H5xx_HAL_Driver/Src/stm32h5xx_ll_usb.c ****   * @param  USBx : Selected device
 239:Drivers/STM32H5xx_HAL_Driver/Src/stm32h5xx_ll_usb.c ****   * @retval HAL status
 240:Drivers/STM32H5xx_HAL_Driver/Src/stm32h5xx_ll_usb.c ****   */
 241:Drivers/STM32H5xx_HAL_Driver/Src/stm32h5xx_ll_usb.c **** HAL_StatusTypeDef USB_FlushRxFifo(USB_DRD_TypeDef const *USBx)
 242:Drivers/STM32H5xx_HAL_Driver/Src/stm32h5xx_ll_usb.c **** {
ARM GAS  C:\Users\sapph\AppData\Local\Temp\cchEHrSS.s 			page 11


 336              		.loc 1 242 1 is_stmt 1 view -0
 337              		.cfi_startproc
 338              		@ args = 0, pretend = 0, frame = 0
 339              		@ frame_needed = 0, uses_anonymous_args = 0
 340              		@ link register save eliminated.
 243:Drivers/STM32H5xx_HAL_Driver/Src/stm32h5xx_ll_usb.c ****   /* Prevent unused argument(s) compilation warning */
 244:Drivers/STM32H5xx_HAL_Driver/Src/stm32h5xx_ll_usb.c ****   UNUSED(USBx);
 341              		.loc 1 244 3 view .LVU84
 245:Drivers/STM32H5xx_HAL_Driver/Src/stm32h5xx_ll_usb.c **** 
 246:Drivers/STM32H5xx_HAL_Driver/Src/stm32h5xx_ll_usb.c ****   /* NOTE : - This function is not required by USB Device FS peripheral, it is used
 247:Drivers/STM32H5xx_HAL_Driver/Src/stm32h5xx_ll_usb.c ****               only by USB OTG FS peripheral.
 248:Drivers/STM32H5xx_HAL_Driver/Src/stm32h5xx_ll_usb.c ****             - This function is added to ensure compatibility across platforms.
 249:Drivers/STM32H5xx_HAL_Driver/Src/stm32h5xx_ll_usb.c ****    */
 250:Drivers/STM32H5xx_HAL_Driver/Src/stm32h5xx_ll_usb.c **** 
 251:Drivers/STM32H5xx_HAL_Driver/Src/stm32h5xx_ll_usb.c ****   return HAL_OK;
 342              		.loc 1 251 3 view .LVU85
 252:Drivers/STM32H5xx_HAL_Driver/Src/stm32h5xx_ll_usb.c **** }
 343              		.loc 1 252 1 is_stmt 0 view .LVU86
 344 0000 0020     		movs	r0, #0
 345              	.LVL24:
 346              		.loc 1 252 1 view .LVU87
 347 0002 7047     		bx	lr
 348              		.cfi_endproc
 349              	.LFE167:
 351              		.section	.text.USB_ActivateEndpoint,"ax",%progbits
 352              		.align	1
 353              		.global	USB_ActivateEndpoint
 354              		.syntax unified
 355              		.thumb
 356              		.thumb_func
 358              	USB_ActivateEndpoint:
 359              	.LVL25:
 360              	.LFB168:
 253:Drivers/STM32H5xx_HAL_Driver/Src/stm32h5xx_ll_usb.c **** 
 254:Drivers/STM32H5xx_HAL_Driver/Src/stm32h5xx_ll_usb.c **** 
 255:Drivers/STM32H5xx_HAL_Driver/Src/stm32h5xx_ll_usb.c **** #if defined (HAL_PCD_MODULE_ENABLED)
 256:Drivers/STM32H5xx_HAL_Driver/Src/stm32h5xx_ll_usb.c **** /**
 257:Drivers/STM32H5xx_HAL_Driver/Src/stm32h5xx_ll_usb.c ****   * @brief  Activate and configure an endpoint
 258:Drivers/STM32H5xx_HAL_Driver/Src/stm32h5xx_ll_usb.c ****   * @param  USBx Selected device
 259:Drivers/STM32H5xx_HAL_Driver/Src/stm32h5xx_ll_usb.c ****   * @param  ep pointer to endpoint structure
 260:Drivers/STM32H5xx_HAL_Driver/Src/stm32h5xx_ll_usb.c ****   * @retval HAL status
 261:Drivers/STM32H5xx_HAL_Driver/Src/stm32h5xx_ll_usb.c ****   */
 262:Drivers/STM32H5xx_HAL_Driver/Src/stm32h5xx_ll_usb.c **** HAL_StatusTypeDef USB_ActivateEndpoint(USB_DRD_TypeDef *USBx, USB_DRD_EPTypeDef *ep)
 263:Drivers/STM32H5xx_HAL_Driver/Src/stm32h5xx_ll_usb.c **** {
 361              		.loc 1 263 1 is_stmt 1 view -0
 362              		.cfi_startproc
 363              		@ args = 0, pretend = 0, frame = 0
 364              		@ frame_needed = 0, uses_anonymous_args = 0
 365              		.loc 1 263 1 is_stmt 0 view .LVU89
 366 0000 30B5     		push	{r4, r5, lr}
 367              		.cfi_def_cfa_offset 12
 368              		.cfi_offset 4, -12
 369              		.cfi_offset 5, -8
 370              		.cfi_offset 14, -4
 371 0002 0346     		mov	r3, r0
 264:Drivers/STM32H5xx_HAL_Driver/Src/stm32h5xx_ll_usb.c ****   HAL_StatusTypeDef ret = HAL_OK;
 372              		.loc 1 264 3 is_stmt 1 view .LVU90
ARM GAS  C:\Users\sapph\AppData\Local\Temp\cchEHrSS.s 			page 12


 373              	.LVL26:
 265:Drivers/STM32H5xx_HAL_Driver/Src/stm32h5xx_ll_usb.c ****   uint32_t wEpRegVal;
 374              		.loc 1 265 3 view .LVU91
 266:Drivers/STM32H5xx_HAL_Driver/Src/stm32h5xx_ll_usb.c **** 
 267:Drivers/STM32H5xx_HAL_Driver/Src/stm32h5xx_ll_usb.c ****   wEpRegVal = PCD_GET_ENDPOINT(USBx, ep->num) & USB_EP_T_MASK;
 375              		.loc 1 267 3 view .LVU92
 376              		.loc 1 267 15 is_stmt 0 view .LVU93
 377 0004 91F800C0 		ldrb	ip, [r1]	@ zero_extendqisi2
 378 0008 50F82C00 		ldr	r0, [r0, ip, lsl #2]
 379              	.LVL27:
 380              		.loc 1 267 13 view .LVU94
 381 000c BA4A     		ldr	r2, .L47
 382 000e 0240     		ands	r2, r2, r0
 383              	.LVL28:
 268:Drivers/STM32H5xx_HAL_Driver/Src/stm32h5xx_ll_usb.c **** 
 269:Drivers/STM32H5xx_HAL_Driver/Src/stm32h5xx_ll_usb.c ****   /* initialize Endpoint */
 270:Drivers/STM32H5xx_HAL_Driver/Src/stm32h5xx_ll_usb.c ****   switch (ep->type)
 384              		.loc 1 270 3 is_stmt 1 view .LVU95
 385              		.loc 1 270 13 is_stmt 0 view .LVU96
 386 0010 C878     		ldrb	r0, [r1, #3]	@ zero_extendqisi2
 387              		.loc 1 270 3 view .LVU97
 388 0012 0328     		cmp	r0, #3
 389 0014 61D8     		bhi	.L44
 390 0016 DFE800F0 		tbb	[pc, r0]
 391              	.L19:
 392 001a 55       		.byte	(.L22-.L19)/2
 393 001b 5C       		.byte	(.L21-.L19)/2
 394 001c 02       		.byte	(.L20-.L19)/2
 395 001d 58       		.byte	(.L18-.L19)/2
 396              		.p2align 1
 397              	.L20:
 398 001e 0020     		movs	r0, #0
 399              	.L17:
 400              	.LVL29:
 271:Drivers/STM32H5xx_HAL_Driver/Src/stm32h5xx_ll_usb.c ****   {
 272:Drivers/STM32H5xx_HAL_Driver/Src/stm32h5xx_ll_usb.c ****     case EP_TYPE_CTRL:
 273:Drivers/STM32H5xx_HAL_Driver/Src/stm32h5xx_ll_usb.c ****       wEpRegVal |= USB_EP_CONTROL;
 274:Drivers/STM32H5xx_HAL_Driver/Src/stm32h5xx_ll_usb.c ****       break;
 275:Drivers/STM32H5xx_HAL_Driver/Src/stm32h5xx_ll_usb.c **** 
 276:Drivers/STM32H5xx_HAL_Driver/Src/stm32h5xx_ll_usb.c ****     case EP_TYPE_BULK:
 277:Drivers/STM32H5xx_HAL_Driver/Src/stm32h5xx_ll_usb.c ****       wEpRegVal |= USB_EP_BULK;
 278:Drivers/STM32H5xx_HAL_Driver/Src/stm32h5xx_ll_usb.c ****       break;
 279:Drivers/STM32H5xx_HAL_Driver/Src/stm32h5xx_ll_usb.c **** 
 280:Drivers/STM32H5xx_HAL_Driver/Src/stm32h5xx_ll_usb.c ****     case EP_TYPE_INTR:
 281:Drivers/STM32H5xx_HAL_Driver/Src/stm32h5xx_ll_usb.c ****       wEpRegVal |= USB_EP_INTERRUPT;
 282:Drivers/STM32H5xx_HAL_Driver/Src/stm32h5xx_ll_usb.c ****       break;
 283:Drivers/STM32H5xx_HAL_Driver/Src/stm32h5xx_ll_usb.c **** 
 284:Drivers/STM32H5xx_HAL_Driver/Src/stm32h5xx_ll_usb.c ****     case EP_TYPE_ISOC:
 285:Drivers/STM32H5xx_HAL_Driver/Src/stm32h5xx_ll_usb.c ****       wEpRegVal |= USB_EP_ISOCHRONOUS;
 286:Drivers/STM32H5xx_HAL_Driver/Src/stm32h5xx_ll_usb.c ****       break;
 287:Drivers/STM32H5xx_HAL_Driver/Src/stm32h5xx_ll_usb.c **** 
 288:Drivers/STM32H5xx_HAL_Driver/Src/stm32h5xx_ll_usb.c ****     default:
 289:Drivers/STM32H5xx_HAL_Driver/Src/stm32h5xx_ll_usb.c ****       ret = HAL_ERROR;
 290:Drivers/STM32H5xx_HAL_Driver/Src/stm32h5xx_ll_usb.c ****       break;
 291:Drivers/STM32H5xx_HAL_Driver/Src/stm32h5xx_ll_usb.c ****   }
 292:Drivers/STM32H5xx_HAL_Driver/Src/stm32h5xx_ll_usb.c **** 
 293:Drivers/STM32H5xx_HAL_Driver/Src/stm32h5xx_ll_usb.c ****   PCD_SET_ENDPOINT(USBx, ep->num, (wEpRegVal | USB_EP_VTRX | USB_EP_VTTX));
ARM GAS  C:\Users\sapph\AppData\Local\Temp\cchEHrSS.s 			page 13


 401              		.loc 1 293 3 is_stmt 1 view .LVU98
 402 0020 48F2800E 		movw	lr, #32896
 403 0024 42EA0E02 		orr	r2, r2, lr
 404              	.LVL30:
 405              		.loc 1 293 3 is_stmt 0 view .LVU99
 406 0028 43F82C20 		str	r2, [r3, ip, lsl #2]
 294:Drivers/STM32H5xx_HAL_Driver/Src/stm32h5xx_ll_usb.c **** 
 295:Drivers/STM32H5xx_HAL_Driver/Src/stm32h5xx_ll_usb.c ****   PCD_SET_EP_ADDRESS(USBx, ep->num, ep->num);
 407              		.loc 1 295 3 is_stmt 1 view .LVU100
 408              	.LBB2:
 409              		.loc 1 295 3 view .LVU101
 410              		.loc 1 295 3 view .LVU102
 411 002c 91F800C0 		ldrb	ip, [r1]	@ zero_extendqisi2
 412 0030 53F82C40 		ldr	r4, [r3, ip, lsl #2]
 413 0034 B14A     		ldr	r2, .L47+4
 414 0036 2240     		ands	r2, r2, r4
 415 0038 4CEA0202 		orr	r2, ip, r2
 416              	.LVL31:
 417              		.loc 1 295 3 view .LVU103
 418 003c 42EA0E02 		orr	r2, r2, lr
 419              	.LVL32:
 420              		.loc 1 295 3 is_stmt 0 view .LVU104
 421 0040 43F82C20 		str	r2, [r3, ip, lsl #2]
 422              	.LBE2:
 423              		.loc 1 295 3 is_stmt 1 view .LVU105
 296:Drivers/STM32H5xx_HAL_Driver/Src/stm32h5xx_ll_usb.c **** 
 297:Drivers/STM32H5xx_HAL_Driver/Src/stm32h5xx_ll_usb.c ****   if (ep->doublebuffer == 0U)
 424              		.loc 1 297 3 view .LVU106
 425              		.loc 1 297 9 is_stmt 0 view .LVU107
 426 0044 0A7B     		ldrb	r2, [r1, #12]	@ zero_extendqisi2
 427              		.loc 1 297 6 view .LVU108
 428 0046 002A     		cmp	r2, #0
 429 0048 40F0D380 		bne	.L23
 298:Drivers/STM32H5xx_HAL_Driver/Src/stm32h5xx_ll_usb.c ****   {
 299:Drivers/STM32H5xx_HAL_Driver/Src/stm32h5xx_ll_usb.c ****     if (ep->is_in != 0U)
 430              		.loc 1 299 5 is_stmt 1 view .LVU109
 431              		.loc 1 299 11 is_stmt 0 view .LVU110
 432 004c 4A78     		ldrb	r2, [r1, #1]	@ zero_extendqisi2
 433              		.loc 1 299 8 view .LVU111
 434 004e 002A     		cmp	r2, #0
 435 0050 51D0     		beq	.L24
 300:Drivers/STM32H5xx_HAL_Driver/Src/stm32h5xx_ll_usb.c ****     {
 301:Drivers/STM32H5xx_HAL_Driver/Src/stm32h5xx_ll_usb.c ****       /*Set the endpoint Transmit buffer address */
 302:Drivers/STM32H5xx_HAL_Driver/Src/stm32h5xx_ll_usb.c ****       PCD_SET_EP_TX_ADDRESS(USBx, ep->num, ep->pmaadress);
 436              		.loc 1 302 7 is_stmt 1 view .LVU112
 437              		.loc 1 302 7 view .LVU113
 438 0052 0A78     		ldrb	r2, [r1]	@ zero_extendqisi2
 439 0054 D200     		lsls	r2, r2, #3
 440 0056 02F18042 		add	r2, r2, #1073741824
 441 005a 02F5B232 		add	r2, r2, #91136
 442 005e 1468     		ldr	r4, [r2]
 443              	.LVL33:
 444              		.loc 1 302 7 is_stmt 0 view .LVU114
 445 0060 6FF30F04 		bfc	r4, #0, #16
 446 0064 1460     		str	r4, [r2]
 447              		.loc 1 302 7 is_stmt 1 view .LVU115
 448 0066 0A78     		ldrb	r2, [r1]	@ zero_extendqisi2
ARM GAS  C:\Users\sapph\AppData\Local\Temp\cchEHrSS.s 			page 14


 449 0068 D200     		lsls	r2, r2, #3
 450 006a 02F18042 		add	r2, r2, #1073741824
 451 006e 02F5B232 		add	r2, r2, #91136
 452 0072 1468     		ldr	r4, [r2]
 453 0074 B1F806C0 		ldrh	ip, [r1, #6]
 454              		.loc 1 302 7 is_stmt 0 view .LVU116
 455 0078 4FEA9C0C 		lsr	ip, ip, #2
 456 007c 44EA8C04 		orr	r4, r4, ip, lsl #2
 457 0080 1460     		str	r4, [r2]
 458              		.loc 1 302 7 is_stmt 1 view .LVU117
 303:Drivers/STM32H5xx_HAL_Driver/Src/stm32h5xx_ll_usb.c ****       PCD_CLEAR_TX_DTOG(USBx, ep->num);
 459              		.loc 1 303 7 view .LVU118
 460              	.LBB3:
 461              		.loc 1 303 7 view .LVU119
 462              		.loc 1 303 7 view .LVU120
 463 0082 0C78     		ldrb	r4, [r1]	@ zero_extendqisi2
 464 0084 53F82420 		ldr	r2, [r3, r4, lsl #2]
 465              	.LVL34:
 466              		.loc 1 303 7 view .LVU121
 467 0088 12F0400F 		tst	r2, #64
 468 008c 09D0     		beq	.L25
 469              		.loc 1 303 7 discriminator 1 view .LVU122
 470              	.LBB4:
 471              		.loc 1 303 7 discriminator 1 view .LVU123
 472              		.loc 1 303 7 discriminator 1 view .LVU124
 473 008e 53F82450 		ldr	r5, [r3, r4, lsl #2]
 474 0092 9A4A     		ldr	r2, .L47+4
 475              	.LVL35:
 476              		.loc 1 303 7 is_stmt 0 discriminator 1 view .LVU125
 477 0094 2A40     		ands	r2, r2, r5
 478              	.LVL36:
 479              		.loc 1 303 7 is_stmt 1 discriminator 1 view .LVU126
 480 0096 42F40042 		orr	r2, r2, #32768
 481              	.LVL37:
 482              		.loc 1 303 7 is_stmt 0 discriminator 1 view .LVU127
 483 009a 42F0C002 		orr	r2, r2, #192
 484 009e 43F82420 		str	r2, [r3, r4, lsl #2]
 485              	.LVL38:
 486              	.L25:
 487              		.loc 1 303 7 discriminator 1 view .LVU128
 488              	.LBE4:
 489              		.loc 1 303 7 is_stmt 1 discriminator 3 view .LVU129
 490              	.LBE3:
 491              		.loc 1 303 7 discriminator 3 view .LVU130
 304:Drivers/STM32H5xx_HAL_Driver/Src/stm32h5xx_ll_usb.c **** 
 305:Drivers/STM32H5xx_HAL_Driver/Src/stm32h5xx_ll_usb.c ****       if (ep->type != EP_TYPE_ISOC)
 492              		.loc 1 305 7 view .LVU131
 493              		.loc 1 305 13 is_stmt 0 view .LVU132
 494 00a2 CA78     		ldrb	r2, [r1, #3]	@ zero_extendqisi2
 495              		.loc 1 305 10 view .LVU133
 496 00a4 012A     		cmp	r2, #1
 497 00a6 1AD0     		beq	.L26
 306:Drivers/STM32H5xx_HAL_Driver/Src/stm32h5xx_ll_usb.c ****       {
 307:Drivers/STM32H5xx_HAL_Driver/Src/stm32h5xx_ll_usb.c ****         /* Configure NAK status for the Endpoint */
 308:Drivers/STM32H5xx_HAL_Driver/Src/stm32h5xx_ll_usb.c ****         PCD_SET_EP_TX_STATUS(USBx, ep->num, USB_EP_TX_NAK);
 498              		.loc 1 308 9 is_stmt 1 view .LVU134
 499              	.LBB5:
ARM GAS  C:\Users\sapph\AppData\Local\Temp\cchEHrSS.s 			page 15


 500              		.loc 1 308 9 view .LVU135
 501              		.loc 1 308 9 view .LVU136
 502 00a8 0978     		ldrb	r1, [r1]	@ zero_extendqisi2
 503              	.LVL39:
 504              		.loc 1 308 9 is_stmt 0 view .LVU137
 505 00aa 53F82140 		ldr	r4, [r3, r1, lsl #2]
 506 00ae 944A     		ldr	r2, .L47+8
 507 00b0 2240     		ands	r2, r2, r4
 508              	.LVL40:
 509              		.loc 1 308 9 is_stmt 1 view .LVU138
 510              		.loc 1 308 9 discriminator 3 view .LVU139
 511              		.loc 1 308 9 discriminator 4 view .LVU140
 512 00b2 82F02002 		eor	r2, r2, #32
 513              	.LVL41:
 514              		.loc 1 308 9 discriminator 6 view .LVU141
 515 00b6 42F40042 		orr	r2, r2, #32768
 516              	.LVL42:
 517              		.loc 1 308 9 is_stmt 0 discriminator 6 view .LVU142
 518 00ba 42F08002 		orr	r2, r2, #128
 519 00be 43F82120 		str	r2, [r3, r1, lsl #2]
 520              	.LBE5:
 521              		.loc 1 308 9 is_stmt 1 discriminator 6 view .LVU143
 522 00c2 0CE1     		b	.L27
 523              	.LVL43:
 524              	.L22:
 273:Drivers/STM32H5xx_HAL_Driver/Src/stm32h5xx_ll_usb.c ****       break;
 525              		.loc 1 273 7 view .LVU144
 273:Drivers/STM32H5xx_HAL_Driver/Src/stm32h5xx_ll_usb.c ****       break;
 526              		.loc 1 273 17 is_stmt 0 view .LVU145
 527 00c4 42F40072 		orr	r2, r2, #512
 528              	.LVL44:
 274:Drivers/STM32H5xx_HAL_Driver/Src/stm32h5xx_ll_usb.c **** 
 529              		.loc 1 274 7 is_stmt 1 view .LVU146
 530 00c8 AAE7     		b	.L17
 531              	.L18:
 281:Drivers/STM32H5xx_HAL_Driver/Src/stm32h5xx_ll_usb.c ****       break;
 532              		.loc 1 281 7 view .LVU147
 281:Drivers/STM32H5xx_HAL_Driver/Src/stm32h5xx_ll_usb.c ****       break;
 533              		.loc 1 281 17 is_stmt 0 view .LVU148
 534 00ca 42F4C062 		orr	r2, r2, #1536
 535              	.LVL45:
 282:Drivers/STM32H5xx_HAL_Driver/Src/stm32h5xx_ll_usb.c **** 
 536              		.loc 1 282 7 is_stmt 1 view .LVU149
 264:Drivers/STM32H5xx_HAL_Driver/Src/stm32h5xx_ll_usb.c ****   uint32_t wEpRegVal;
 537              		.loc 1 264 21 is_stmt 0 view .LVU150
 538 00ce 0020     		movs	r0, #0
 282:Drivers/STM32H5xx_HAL_Driver/Src/stm32h5xx_ll_usb.c **** 
 539              		.loc 1 282 7 view .LVU151
 540 00d0 A6E7     		b	.L17
 541              	.L21:
 285:Drivers/STM32H5xx_HAL_Driver/Src/stm32h5xx_ll_usb.c ****       break;
 542              		.loc 1 285 7 is_stmt 1 view .LVU152
 285:Drivers/STM32H5xx_HAL_Driver/Src/stm32h5xx_ll_usb.c ****       break;
 543              		.loc 1 285 17 is_stmt 0 view .LVU153
 544 00d2 42F48062 		orr	r2, r2, #1024
 545              	.LVL46:
 286:Drivers/STM32H5xx_HAL_Driver/Src/stm32h5xx_ll_usb.c **** 
ARM GAS  C:\Users\sapph\AppData\Local\Temp\cchEHrSS.s 			page 16


 546              		.loc 1 286 7 is_stmt 1 view .LVU154
 264:Drivers/STM32H5xx_HAL_Driver/Src/stm32h5xx_ll_usb.c ****   uint32_t wEpRegVal;
 547              		.loc 1 264 21 is_stmt 0 view .LVU155
 548 00d6 0020     		movs	r0, #0
 286:Drivers/STM32H5xx_HAL_Driver/Src/stm32h5xx_ll_usb.c **** 
 549              		.loc 1 286 7 view .LVU156
 550 00d8 A2E7     		b	.L17
 551              	.L44:
 289:Drivers/STM32H5xx_HAL_Driver/Src/stm32h5xx_ll_usb.c ****       break;
 552              		.loc 1 289 11 view .LVU157
 553 00da 0120     		movs	r0, #1
 554 00dc A0E7     		b	.L17
 555              	.LVL47:
 556              	.L26:
 309:Drivers/STM32H5xx_HAL_Driver/Src/stm32h5xx_ll_usb.c ****       }
 310:Drivers/STM32H5xx_HAL_Driver/Src/stm32h5xx_ll_usb.c ****       else
 311:Drivers/STM32H5xx_HAL_Driver/Src/stm32h5xx_ll_usb.c ****       {
 312:Drivers/STM32H5xx_HAL_Driver/Src/stm32h5xx_ll_usb.c ****         /* Configure TX Endpoint to disabled state */
 313:Drivers/STM32H5xx_HAL_Driver/Src/stm32h5xx_ll_usb.c ****         PCD_SET_EP_TX_STATUS(USBx, ep->num, USB_EP_TX_DIS);
 557              		.loc 1 313 9 is_stmt 1 view .LVU158
 558              	.LBB6:
 559              		.loc 1 313 9 view .LVU159
 560              		.loc 1 313 9 view .LVU160
 561 00de 0978     		ldrb	r1, [r1]	@ zero_extendqisi2
 562              	.LVL48:
 563              		.loc 1 313 9 is_stmt 0 view .LVU161
 564 00e0 53F82140 		ldr	r4, [r3, r1, lsl #2]
 565 00e4 864A     		ldr	r2, .L47+8
 566 00e6 2240     		ands	r2, r2, r4
 567              	.LVL49:
 568              		.loc 1 313 9 is_stmt 1 view .LVU162
 569              		.loc 1 313 9 discriminator 3 view .LVU163
 570              		.loc 1 313 9 discriminator 6 view .LVU164
 571 00e8 42F40042 		orr	r2, r2, #32768
 572              	.LVL50:
 573              		.loc 1 313 9 is_stmt 0 discriminator 6 view .LVU165
 574 00ec 42F08002 		orr	r2, r2, #128
 575 00f0 43F82120 		str	r2, [r3, r1, lsl #2]
 576 00f4 F3E0     		b	.L27
 577              	.LVL51:
 578              	.L24:
 579              		.loc 1 313 9 discriminator 6 view .LVU166
 580              	.LBE6:
 314:Drivers/STM32H5xx_HAL_Driver/Src/stm32h5xx_ll_usb.c ****       }
 315:Drivers/STM32H5xx_HAL_Driver/Src/stm32h5xx_ll_usb.c ****     }
 316:Drivers/STM32H5xx_HAL_Driver/Src/stm32h5xx_ll_usb.c ****     else
 317:Drivers/STM32H5xx_HAL_Driver/Src/stm32h5xx_ll_usb.c ****     {
 318:Drivers/STM32H5xx_HAL_Driver/Src/stm32h5xx_ll_usb.c ****       /* Set the endpoint Receive buffer address */
 319:Drivers/STM32H5xx_HAL_Driver/Src/stm32h5xx_ll_usb.c ****       PCD_SET_EP_RX_ADDRESS(USBx, ep->num, ep->pmaadress);
 581              		.loc 1 319 7 is_stmt 1 view .LVU167
 582              		.loc 1 319 7 view .LVU168
 583 00f6 0A78     		ldrb	r2, [r1]	@ zero_extendqisi2
 584 00f8 D200     		lsls	r2, r2, #3
 585 00fa 02F18042 		add	r2, r2, #1073741824
 586 00fe 02F5B232 		add	r2, r2, #91136
 587 0102 5468     		ldr	r4, [r2, #4]
 588              	.LVL52:
ARM GAS  C:\Users\sapph\AppData\Local\Temp\cchEHrSS.s 			page 17


 589              		.loc 1 319 7 is_stmt 0 view .LVU169
 590 0104 6FF30F04 		bfc	r4, #0, #16
 591 0108 5460     		str	r4, [r2, #4]
 592              		.loc 1 319 7 is_stmt 1 view .LVU170
 593 010a 0A78     		ldrb	r2, [r1]	@ zero_extendqisi2
 594 010c D200     		lsls	r2, r2, #3
 595 010e 02F18042 		add	r2, r2, #1073741824
 596 0112 02F5B232 		add	r2, r2, #91136
 597 0116 5468     		ldr	r4, [r2, #4]
 598 0118 B1F806C0 		ldrh	ip, [r1, #6]
 599              		.loc 1 319 7 is_stmt 0 view .LVU171
 600 011c 4FEA9C0C 		lsr	ip, ip, #2
 601 0120 44EA8C04 		orr	r4, r4, ip, lsl #2
 602 0124 5460     		str	r4, [r2, #4]
 603              		.loc 1 319 7 is_stmt 1 view .LVU172
 320:Drivers/STM32H5xx_HAL_Driver/Src/stm32h5xx_ll_usb.c **** 
 321:Drivers/STM32H5xx_HAL_Driver/Src/stm32h5xx_ll_usb.c ****       /* Set the endpoint Receive buffer counter */
 322:Drivers/STM32H5xx_HAL_Driver/Src/stm32h5xx_ll_usb.c ****       PCD_SET_EP_RX_CNT(USBx, ep->num, ep->maxpacket);
 604              		.loc 1 322 7 view .LVU173
 605              	.LBB7:
 606              		.loc 1 322 7 view .LVU174
 607              		.loc 1 322 7 view .LVU175
 608 0126 0A78     		ldrb	r2, [r1]	@ zero_extendqisi2
 609 0128 D200     		lsls	r2, r2, #3
 610 012a 02F18042 		add	r2, r2, #1073741824
 611 012e 02F5B232 		add	r2, r2, #91136
 612 0132 5468     		ldr	r4, [r2, #4]
 613 0134 24F07C44 		bic	r4, r4, #-67108864
 614 0138 5460     		str	r4, [r2, #4]
 615              		.loc 1 322 7 view .LVU176
 616 013a 0A69     		ldr	r2, [r1, #16]
 617 013c 42BB     		cbnz	r2, .L28
 618              		.loc 1 322 7 discriminator 1 view .LVU177
 619 013e 0A78     		ldrb	r2, [r1]	@ zero_extendqisi2
 620 0140 D200     		lsls	r2, r2, #3
 621 0142 02F18042 		add	r2, r2, #1073741824
 622 0146 02F5B232 		add	r2, r2, #91136
 623 014a 5468     		ldr	r4, [r2, #4]
 624 014c 44F00044 		orr	r4, r4, #-2147483648
 625 0150 5460     		str	r4, [r2, #4]
 626              	.L29:
 627              		.loc 1 322 7 discriminator 13 view .LVU178
 628              	.LBE7:
 629              		.loc 1 322 7 discriminator 13 view .LVU179
 323:Drivers/STM32H5xx_HAL_Driver/Src/stm32h5xx_ll_usb.c ****       PCD_CLEAR_RX_DTOG(USBx, ep->num);
 630              		.loc 1 323 7 view .LVU180
 631              	.LBB8:
 632              		.loc 1 323 7 view .LVU181
 633              		.loc 1 323 7 view .LVU182
 634 0152 0C78     		ldrb	r4, [r1]	@ zero_extendqisi2
 635 0154 53F82420 		ldr	r2, [r3, r4, lsl #2]
 636              	.LVL53:
 637              		.loc 1 323 7 view .LVU183
 638 0158 12F4804F 		tst	r2, #16384
 639 015c 09D0     		beq	.L33
 640              		.loc 1 323 7 discriminator 1 view .LVU184
 641              	.LBB9:
ARM GAS  C:\Users\sapph\AppData\Local\Temp\cchEHrSS.s 			page 18


 642              		.loc 1 323 7 discriminator 1 view .LVU185
 643              		.loc 1 323 7 discriminator 1 view .LVU186
 644 015e 53F82450 		ldr	r5, [r3, r4, lsl #2]
 645 0162 664A     		ldr	r2, .L47+4
 646              	.LVL54:
 647              		.loc 1 323 7 is_stmt 0 discriminator 1 view .LVU187
 648 0164 2A40     		ands	r2, r2, r5
 649              	.LVL55:
 650              		.loc 1 323 7 is_stmt 1 discriminator 1 view .LVU188
 651 0166 42F44042 		orr	r2, r2, #49152
 652              	.LVL56:
 653              		.loc 1 323 7 is_stmt 0 discriminator 1 view .LVU189
 654 016a 42F08002 		orr	r2, r2, #128
 655 016e 43F82420 		str	r2, [r3, r4, lsl #2]
 656              	.LVL57:
 657              	.L33:
 658              		.loc 1 323 7 discriminator 1 view .LVU190
 659              	.LBE9:
 660              		.loc 1 323 7 is_stmt 1 discriminator 3 view .LVU191
 661              	.LBE8:
 662              		.loc 1 323 7 discriminator 3 view .LVU192
 324:Drivers/STM32H5xx_HAL_Driver/Src/stm32h5xx_ll_usb.c **** 
 325:Drivers/STM32H5xx_HAL_Driver/Src/stm32h5xx_ll_usb.c ****       if (ep->num == 0U)
 663              		.loc 1 325 7 view .LVU193
 664              		.loc 1 325 13 is_stmt 0 view .LVU194
 665 0172 0978     		ldrb	r1, [r1]	@ zero_extendqisi2
 666              	.LVL58:
 667              		.loc 1 325 10 view .LVU195
 668 0174 81BB     		cbnz	r1, .L34
 326:Drivers/STM32H5xx_HAL_Driver/Src/stm32h5xx_ll_usb.c ****       {
 327:Drivers/STM32H5xx_HAL_Driver/Src/stm32h5xx_ll_usb.c ****         /* Configure VALID status for EP0 */
 328:Drivers/STM32H5xx_HAL_Driver/Src/stm32h5xx_ll_usb.c ****         PCD_SET_EP_RX_STATUS(USBx, ep->num, USB_EP_RX_VALID);
 669              		.loc 1 328 9 is_stmt 1 view .LVU196
 670              	.LBB10:
 671              		.loc 1 328 9 view .LVU197
 672              		.loc 1 328 9 view .LVU198
 673 0176 53F82140 		ldr	r4, [r3, r1, lsl #2]
 674 017a 624A     		ldr	r2, .L47+12
 675 017c 2240     		ands	r2, r2, r4
 676              	.LVL59:
 677              		.loc 1 328 9 view .LVU199
 678              		.loc 1 328 9 discriminator 1 view .LVU200
 679              		.loc 1 328 9 discriminator 3 view .LVU201
 680              		.loc 1 328 9 discriminator 4 view .LVU202
 681 017e 82F44052 		eor	r2, r2, #12288
 682              	.LVL60:
 683              		.loc 1 328 9 discriminator 6 view .LVU203
 684 0182 42F40042 		orr	r2, r2, #32768
 685              	.LVL61:
 686              		.loc 1 328 9 is_stmt 0 discriminator 6 view .LVU204
 687 0186 42F08002 		orr	r2, r2, #128
 688 018a 43F82120 		str	r2, [r3, r1, lsl #2]
 689              	.LBE10:
 690              		.loc 1 328 9 is_stmt 1 discriminator 6 view .LVU205
 691 018e A6E0     		b	.L27
 692              	.LVL62:
 693              	.L28:
ARM GAS  C:\Users\sapph\AppData\Local\Temp\cchEHrSS.s 			page 19


 694              	.LBB11:
 322:Drivers/STM32H5xx_HAL_Driver/Src/stm32h5xx_ll_usb.c ****       PCD_CLEAR_RX_DTOG(USBx, ep->num);
 695              		.loc 1 322 7 discriminator 2 view .LVU206
 696 0190 3E2A     		cmp	r2, #62
 697 0192 0FD8     		bhi	.L30
 322:Drivers/STM32H5xx_HAL_Driver/Src/stm32h5xx_ll_usb.c ****       PCD_CLEAR_RX_DTOG(USBx, ep->num);
 698              		.loc 1 322 7 discriminator 4 view .LVU207
 322:Drivers/STM32H5xx_HAL_Driver/Src/stm32h5xx_ll_usb.c ****       PCD_CLEAR_RX_DTOG(USBx, ep->num);
 699              		.loc 1 322 7 discriminator 4 view .LVU208
 700 0194 5508     		lsrs	r5, r2, #1
 701              	.LVL63:
 322:Drivers/STM32H5xx_HAL_Driver/Src/stm32h5xx_ll_usb.c ****       PCD_CLEAR_RX_DTOG(USBx, ep->num);
 702              		.loc 1 322 7 discriminator 4 view .LVU209
 703 0196 12F0010F 		tst	r2, #1
 704 019a 00D0     		beq	.L31
 322:Drivers/STM32H5xx_HAL_Driver/Src/stm32h5xx_ll_usb.c ****       PCD_CLEAR_RX_DTOG(USBx, ep->num);
 705              		.loc 1 322 7 discriminator 6 view .LVU210
 706 019c 0135     		adds	r5, r5, #1
 707              	.LVL64:
 708              	.L31:
 322:Drivers/STM32H5xx_HAL_Driver/Src/stm32h5xx_ll_usb.c ****       PCD_CLEAR_RX_DTOG(USBx, ep->num);
 709              		.loc 1 322 7 discriminator 8 view .LVU211
 710 019e 0A78     		ldrb	r2, [r1]	@ zero_extendqisi2
 711 01a0 D200     		lsls	r2, r2, #3
 712 01a2 02F18042 		add	r2, r2, #1073741824
 713 01a6 02F5B232 		add	r2, r2, #91136
 714 01aa 5468     		ldr	r4, [r2, #4]
 715 01ac 44EA8564 		orr	r4, r4, r5, lsl #26
 716 01b0 5460     		str	r4, [r2, #4]
 322:Drivers/STM32H5xx_HAL_Driver/Src/stm32h5xx_ll_usb.c ****       PCD_CLEAR_RX_DTOG(USBx, ep->num);
 717              		.loc 1 322 7 discriminator 8 view .LVU212
 718 01b2 CEE7     		b	.L29
 719              	.LVL65:
 720              	.L30:
 322:Drivers/STM32H5xx_HAL_Driver/Src/stm32h5xx_ll_usb.c ****       PCD_CLEAR_RX_DTOG(USBx, ep->num);
 721              		.loc 1 322 7 discriminator 5 view .LVU213
 322:Drivers/STM32H5xx_HAL_Driver/Src/stm32h5xx_ll_usb.c ****       PCD_CLEAR_RX_DTOG(USBx, ep->num);
 722              		.loc 1 322 7 discriminator 5 view .LVU214
 723 01b4 5509     		lsrs	r5, r2, #5
 724              	.LVL66:
 322:Drivers/STM32H5xx_HAL_Driver/Src/stm32h5xx_ll_usb.c ****       PCD_CLEAR_RX_DTOG(USBx, ep->num);
 725              		.loc 1 322 7 discriminator 5 view .LVU215
 726 01b6 12F01F0F 		tst	r2, #31
 727 01ba 00D1     		bne	.L32
 322:Drivers/STM32H5xx_HAL_Driver/Src/stm32h5xx_ll_usb.c ****       PCD_CLEAR_RX_DTOG(USBx, ep->num);
 728              		.loc 1 322 7 discriminator 10 view .LVU216
 729 01bc 013D     		subs	r5, r5, #1
 730              	.LVL67:
 731              	.L32:
 322:Drivers/STM32H5xx_HAL_Driver/Src/stm32h5xx_ll_usb.c ****       PCD_CLEAR_RX_DTOG(USBx, ep->num);
 732              		.loc 1 322 7 discriminator 12 view .LVU217
 733 01be 0A78     		ldrb	r2, [r1]	@ zero_extendqisi2
 734 01c0 D200     		lsls	r2, r2, #3
 735 01c2 02F18042 		add	r2, r2, #1073741824
 736 01c6 02F5B232 		add	r2, r2, #91136
 737 01ca 5468     		ldr	r4, [r2, #4]
 738 01cc 44EA8564 		orr	r4, r4, r5, lsl #26
ARM GAS  C:\Users\sapph\AppData\Local\Temp\cchEHrSS.s 			page 20


 739 01d0 44F00044 		orr	r4, r4, #-2147483648
 740 01d4 5460     		str	r4, [r2, #4]
 741 01d6 BCE7     		b	.L29
 742              	.LVL68:
 743              	.L34:
 322:Drivers/STM32H5xx_HAL_Driver/Src/stm32h5xx_ll_usb.c ****       PCD_CLEAR_RX_DTOG(USBx, ep->num);
 744              		.loc 1 322 7 is_stmt 0 discriminator 12 view .LVU218
 745              	.LBE11:
 329:Drivers/STM32H5xx_HAL_Driver/Src/stm32h5xx_ll_usb.c ****       }
 330:Drivers/STM32H5xx_HAL_Driver/Src/stm32h5xx_ll_usb.c ****       else
 331:Drivers/STM32H5xx_HAL_Driver/Src/stm32h5xx_ll_usb.c ****       {
 332:Drivers/STM32H5xx_HAL_Driver/Src/stm32h5xx_ll_usb.c ****         /* Configure NAK status for OUT Endpoint */
 333:Drivers/STM32H5xx_HAL_Driver/Src/stm32h5xx_ll_usb.c ****         PCD_SET_EP_RX_STATUS(USBx, ep->num, USB_EP_RX_NAK);
 746              		.loc 1 333 9 is_stmt 1 view .LVU219
 747              	.LBB12:
 748              		.loc 1 333 9 view .LVU220
 749              		.loc 1 333 9 view .LVU221
 750 01d8 53F82140 		ldr	r4, [r3, r1, lsl #2]
 751 01dc 494A     		ldr	r2, .L47+12
 752 01de 2240     		ands	r2, r2, r4
 753              	.LVL69:
 754              		.loc 1 333 9 view .LVU222
 755              		.loc 1 333 9 discriminator 3 view .LVU223
 756              		.loc 1 333 9 discriminator 4 view .LVU224
 757 01e0 82F40052 		eor	r2, r2, #8192
 758              	.LVL70:
 759              		.loc 1 333 9 discriminator 6 view .LVU225
 760 01e4 42F40042 		orr	r2, r2, #32768
 761              	.LVL71:
 762              		.loc 1 333 9 is_stmt 0 discriminator 6 view .LVU226
 763 01e8 42F08002 		orr	r2, r2, #128
 764 01ec 43F82120 		str	r2, [r3, r1, lsl #2]
 765 01f0 75E0     		b	.L27
 766              	.LVL72:
 767              	.L23:
 768              		.loc 1 333 9 discriminator 6 view .LVU227
 769              	.LBE12:
 334:Drivers/STM32H5xx_HAL_Driver/Src/stm32h5xx_ll_usb.c ****       }
 335:Drivers/STM32H5xx_HAL_Driver/Src/stm32h5xx_ll_usb.c ****     }
 336:Drivers/STM32H5xx_HAL_Driver/Src/stm32h5xx_ll_usb.c ****   }
 337:Drivers/STM32H5xx_HAL_Driver/Src/stm32h5xx_ll_usb.c **** #if (USE_USB_DOUBLE_BUFFER == 1U)
 338:Drivers/STM32H5xx_HAL_Driver/Src/stm32h5xx_ll_usb.c ****   /* Double Buffer */
 339:Drivers/STM32H5xx_HAL_Driver/Src/stm32h5xx_ll_usb.c ****   else
 340:Drivers/STM32H5xx_HAL_Driver/Src/stm32h5xx_ll_usb.c ****   {
 341:Drivers/STM32H5xx_HAL_Driver/Src/stm32h5xx_ll_usb.c ****     if (ep->type == EP_TYPE_BULK)
 770              		.loc 1 341 5 is_stmt 1 view .LVU228
 771              		.loc 1 341 11 is_stmt 0 view .LVU229
 772 01f2 CA78     		ldrb	r2, [r1, #3]	@ zero_extendqisi2
 773              		.loc 1 341 8 view .LVU230
 774 01f4 022A     		cmp	r2, #2
 775 01f6 73D0     		beq	.L46
 342:Drivers/STM32H5xx_HAL_Driver/Src/stm32h5xx_ll_usb.c ****     {
 343:Drivers/STM32H5xx_HAL_Driver/Src/stm32h5xx_ll_usb.c ****       /* Set bulk endpoint as double buffered */
 344:Drivers/STM32H5xx_HAL_Driver/Src/stm32h5xx_ll_usb.c ****       PCD_SET_BULK_EP_DBUF(USBx, ep->num);
 345:Drivers/STM32H5xx_HAL_Driver/Src/stm32h5xx_ll_usb.c ****     }
 346:Drivers/STM32H5xx_HAL_Driver/Src/stm32h5xx_ll_usb.c ****     else
 347:Drivers/STM32H5xx_HAL_Driver/Src/stm32h5xx_ll_usb.c ****     {
ARM GAS  C:\Users\sapph\AppData\Local\Temp\cchEHrSS.s 			page 21


 348:Drivers/STM32H5xx_HAL_Driver/Src/stm32h5xx_ll_usb.c ****       /* Set the ISOC endpoint in double buffer mode */
 349:Drivers/STM32H5xx_HAL_Driver/Src/stm32h5xx_ll_usb.c ****       PCD_CLEAR_EP_KIND(USBx, ep->num);
 776              		.loc 1 349 7 is_stmt 1 view .LVU231
 777              	.LBB13:
 778              		.loc 1 349 7 view .LVU232
 779              		.loc 1 349 7 view .LVU233
 780 01f8 0C78     		ldrb	r4, [r1]	@ zero_extendqisi2
 781              	.LVL73:
 782              		.loc 1 349 7 is_stmt 0 view .LVU234
 783 01fa 53F82450 		ldr	r5, [r3, r4, lsl #2]
 784 01fe 424A     		ldr	r2, .L47+16
 785 0200 2A40     		ands	r2, r2, r5
 786              	.LVL74:
 787              		.loc 1 349 7 is_stmt 1 view .LVU235
 788 0202 42F40042 		orr	r2, r2, #32768
 789              	.LVL75:
 790              		.loc 1 349 7 is_stmt 0 view .LVU236
 791 0206 42F08002 		orr	r2, r2, #128
 792 020a 43F82420 		str	r2, [r3, r4, lsl #2]
 793              	.LVL76:
 794              	.L36:
 795              		.loc 1 349 7 view .LVU237
 796              	.LBE13:
 797              		.loc 1 349 7 is_stmt 1 discriminator 1 view .LVU238
 350:Drivers/STM32H5xx_HAL_Driver/Src/stm32h5xx_ll_usb.c ****     }
 351:Drivers/STM32H5xx_HAL_Driver/Src/stm32h5xx_ll_usb.c **** 
 352:Drivers/STM32H5xx_HAL_Driver/Src/stm32h5xx_ll_usb.c ****     /* Set buffer address for double buffered mode */
 353:Drivers/STM32H5xx_HAL_Driver/Src/stm32h5xx_ll_usb.c ****     PCD_SET_EP_DBUF_ADDR(USBx, ep->num, ep->pmaaddr0, ep->pmaaddr1);
 798              		.loc 1 353 5 view .LVU239
 799              		.loc 1 353 5 view .LVU240
 800              		.loc 1 353 5 view .LVU241
 801 020e 0A78     		ldrb	r2, [r1]	@ zero_extendqisi2
 802 0210 D200     		lsls	r2, r2, #3
 803 0212 02F18042 		add	r2, r2, #1073741824
 804 0216 02F5B232 		add	r2, r2, #91136
 805 021a 1468     		ldr	r4, [r2]
 806 021c 6FF30F04 		bfc	r4, #0, #16
 807 0220 1460     		str	r4, [r2]
 808              		.loc 1 353 5 view .LVU242
 809 0222 0A78     		ldrb	r2, [r1]	@ zero_extendqisi2
 810 0224 D200     		lsls	r2, r2, #3
 811 0226 02F18042 		add	r2, r2, #1073741824
 812 022a 02F5B232 		add	r2, r2, #91136
 813 022e 1468     		ldr	r4, [r2]
 814 0230 B1F808C0 		ldrh	ip, [r1, #8]
 815              		.loc 1 353 5 is_stmt 0 view .LVU243
 816 0234 4FEA9C0C 		lsr	ip, ip, #2
 817 0238 44EA8C04 		orr	r4, r4, ip, lsl #2
 818 023c 1460     		str	r4, [r2]
 819              		.loc 1 353 5 is_stmt 1 view .LVU244
 820              		.loc 1 353 5 view .LVU245
 821              		.loc 1 353 5 view .LVU246
 822 023e 0A78     		ldrb	r2, [r1]	@ zero_extendqisi2
 823 0240 D200     		lsls	r2, r2, #3
 824 0242 02F18042 		add	r2, r2, #1073741824
 825 0246 02F5B232 		add	r2, r2, #91136
 826 024a 5468     		ldr	r4, [r2, #4]
ARM GAS  C:\Users\sapph\AppData\Local\Temp\cchEHrSS.s 			page 22


 827 024c 6FF30F04 		bfc	r4, #0, #16
 828 0250 5460     		str	r4, [r2, #4]
 829              		.loc 1 353 5 view .LVU247
 830 0252 0A78     		ldrb	r2, [r1]	@ zero_extendqisi2
 831 0254 D200     		lsls	r2, r2, #3
 832 0256 02F18042 		add	r2, r2, #1073741824
 833 025a 02F5B232 		add	r2, r2, #91136
 834 025e 5468     		ldr	r4, [r2, #4]
 835 0260 B1F80AC0 		ldrh	ip, [r1, #10]
 836 0264 4FEA9C0C 		lsr	ip, ip, #2
 837 0268 44EA8C04 		orr	r4, r4, ip, lsl #2
 838 026c 5460     		str	r4, [r2, #4]
 839              		.loc 1 353 5 view .LVU248
 840              		.loc 1 353 5 view .LVU249
 354:Drivers/STM32H5xx_HAL_Driver/Src/stm32h5xx_ll_usb.c **** 
 355:Drivers/STM32H5xx_HAL_Driver/Src/stm32h5xx_ll_usb.c ****     if (ep->is_in == 0U)
 841              		.loc 1 355 5 view .LVU250
 842              		.loc 1 355 11 is_stmt 0 view .LVU251
 843 026e 4A78     		ldrb	r2, [r1, #1]	@ zero_extendqisi2
 844              		.loc 1 355 8 view .LVU252
 845 0270 002A     		cmp	r2, #0
 846 0272 4BD1     		bne	.L37
 356:Drivers/STM32H5xx_HAL_Driver/Src/stm32h5xx_ll_usb.c ****     {
 357:Drivers/STM32H5xx_HAL_Driver/Src/stm32h5xx_ll_usb.c ****       /* Clear the data toggle bits for the endpoint IN/OUT */
 358:Drivers/STM32H5xx_HAL_Driver/Src/stm32h5xx_ll_usb.c ****       PCD_CLEAR_RX_DTOG(USBx, ep->num);
 847              		.loc 1 358 7 is_stmt 1 view .LVU253
 848              	.LBB14:
 849              		.loc 1 358 7 view .LVU254
 850              		.loc 1 358 7 view .LVU255
 851 0274 0C78     		ldrb	r4, [r1]	@ zero_extendqisi2
 852 0276 53F82420 		ldr	r2, [r3, r4, lsl #2]
 853              	.LVL77:
 854              		.loc 1 358 7 view .LVU256
 855 027a 12F4804F 		tst	r2, #16384
 856 027e 09D0     		beq	.L38
 857              		.loc 1 358 7 discriminator 1 view .LVU257
 858              	.LBB15:
 859              		.loc 1 358 7 discriminator 1 view .LVU258
 860              		.loc 1 358 7 discriminator 1 view .LVU259
 861 0280 53F82450 		ldr	r5, [r3, r4, lsl #2]
 862 0284 1D4A     		ldr	r2, .L47+4
 863              	.LVL78:
 864              		.loc 1 358 7 is_stmt 0 discriminator 1 view .LVU260
 865 0286 2A40     		ands	r2, r2, r5
 866              	.LVL79:
 867              		.loc 1 358 7 is_stmt 1 discriminator 1 view .LVU261
 868 0288 42F44042 		orr	r2, r2, #49152
 869              	.LVL80:
 870              		.loc 1 358 7 is_stmt 0 discriminator 1 view .LVU262
 871 028c 42F08002 		orr	r2, r2, #128
 872 0290 43F82420 		str	r2, [r3, r4, lsl #2]
 873              	.LVL81:
 874              	.L38:
 875              		.loc 1 358 7 discriminator 1 view .LVU263
 876              	.LBE15:
 877              		.loc 1 358 7 is_stmt 1 discriminator 3 view .LVU264
 878              	.LBE14:
ARM GAS  C:\Users\sapph\AppData\Local\Temp\cchEHrSS.s 			page 23


 879              		.loc 1 358 7 discriminator 3 view .LVU265
 359:Drivers/STM32H5xx_HAL_Driver/Src/stm32h5xx_ll_usb.c ****       PCD_CLEAR_TX_DTOG(USBx, ep->num);
 880              		.loc 1 359 7 view .LVU266
 881              	.LBB16:
 882              		.loc 1 359 7 view .LVU267
 883              		.loc 1 359 7 view .LVU268
 884 0294 0C78     		ldrb	r4, [r1]	@ zero_extendqisi2
 885 0296 53F82420 		ldr	r2, [r3, r4, lsl #2]
 886              	.LVL82:
 887              		.loc 1 359 7 view .LVU269
 888 029a 12F0400F 		tst	r2, #64
 889 029e 09D0     		beq	.L39
 890              		.loc 1 359 7 discriminator 1 view .LVU270
 891              	.LBB17:
 892              		.loc 1 359 7 discriminator 1 view .LVU271
 893              		.loc 1 359 7 discriminator 1 view .LVU272
 894 02a0 53F82450 		ldr	r5, [r3, r4, lsl #2]
 895 02a4 154A     		ldr	r2, .L47+4
 896              	.LVL83:
 897              		.loc 1 359 7 is_stmt 0 discriminator 1 view .LVU273
 898 02a6 2A40     		ands	r2, r2, r5
 899              	.LVL84:
 900              		.loc 1 359 7 is_stmt 1 discriminator 1 view .LVU274
 901 02a8 42F40042 		orr	r2, r2, #32768
 902              	.LVL85:
 903              		.loc 1 359 7 is_stmt 0 discriminator 1 view .LVU275
 904 02ac 42F0C002 		orr	r2, r2, #192
 905 02b0 43F82420 		str	r2, [r3, r4, lsl #2]
 906              	.LVL86:
 907              	.L39:
 908              		.loc 1 359 7 discriminator 1 view .LVU276
 909              	.LBE17:
 910              		.loc 1 359 7 is_stmt 1 discriminator 3 view .LVU277
 911              	.LBE16:
 912              		.loc 1 359 7 discriminator 3 view .LVU278
 360:Drivers/STM32H5xx_HAL_Driver/Src/stm32h5xx_ll_usb.c **** 
 361:Drivers/STM32H5xx_HAL_Driver/Src/stm32h5xx_ll_usb.c ****       PCD_SET_EP_RX_STATUS(USBx, ep->num, USB_EP_RX_VALID);
 913              		.loc 1 361 7 view .LVU279
 914              	.LBB18:
 915              		.loc 1 361 7 view .LVU280
 916              		.loc 1 361 7 view .LVU281
 917 02b4 91F800C0 		ldrb	ip, [r1]	@ zero_extendqisi2
 918 02b8 53F82C40 		ldr	r4, [r3, ip, lsl #2]
 919 02bc 114A     		ldr	r2, .L47+12
 920 02be 2240     		ands	r2, r2, r4
 921              	.LVL87:
 922              		.loc 1 361 7 view .LVU282
 923              		.loc 1 361 7 discriminator 1 view .LVU283
 924              		.loc 1 361 7 discriminator 3 view .LVU284
 925              		.loc 1 361 7 discriminator 4 view .LVU285
 926 02c0 82F44052 		eor	r2, r2, #12288
 927              	.LVL88:
 928              		.loc 1 361 7 discriminator 6 view .LVU286
 929 02c4 48F28004 		movw	r4, #32896
 930 02c8 2243     		orrs	r2, r2, r4
 931              	.LVL89:
 932              		.loc 1 361 7 is_stmt 0 discriminator 6 view .LVU287
ARM GAS  C:\Users\sapph\AppData\Local\Temp\cchEHrSS.s 			page 24


 933 02ca 43F82C20 		str	r2, [r3, ip, lsl #2]
 934              	.LBE18:
 935              		.loc 1 361 7 is_stmt 1 discriminator 6 view .LVU288
 362:Drivers/STM32H5xx_HAL_Driver/Src/stm32h5xx_ll_usb.c ****       PCD_SET_EP_TX_STATUS(USBx, ep->num, USB_EP_TX_DIS);
 936              		.loc 1 362 7 view .LVU289
 937              	.LBB19:
 938              		.loc 1 362 7 view .LVU290
 939              		.loc 1 362 7 view .LVU291
 940 02ce 0978     		ldrb	r1, [r1]	@ zero_extendqisi2
 941              	.LVL90:
 942              		.loc 1 362 7 is_stmt 0 view .LVU292
 943 02d0 53F82150 		ldr	r5, [r3, r1, lsl #2]
 944 02d4 0A4A     		ldr	r2, .L47+8
 945 02d6 2A40     		ands	r2, r2, r5
 946              	.LVL91:
 947              		.loc 1 362 7 is_stmt 1 view .LVU293
 948              		.loc 1 362 7 discriminator 3 view .LVU294
 949              		.loc 1 362 7 discriminator 6 view .LVU295
 950 02d8 2243     		orrs	r2, r2, r4
 951              	.LVL92:
 952              		.loc 1 362 7 is_stmt 0 discriminator 6 view .LVU296
 953 02da 43F82120 		str	r2, [r3, r1, lsl #2]
 954              	.LBE19:
 955              		.loc 1 362 7 is_stmt 1 discriminator 6 view .LVU297
 956              	.LVL93:
 957              	.L27:
 363:Drivers/STM32H5xx_HAL_Driver/Src/stm32h5xx_ll_usb.c ****     }
 364:Drivers/STM32H5xx_HAL_Driver/Src/stm32h5xx_ll_usb.c ****     else
 365:Drivers/STM32H5xx_HAL_Driver/Src/stm32h5xx_ll_usb.c ****     {
 366:Drivers/STM32H5xx_HAL_Driver/Src/stm32h5xx_ll_usb.c ****       /* Clear the data toggle bits for the endpoint IN/OUT */
 367:Drivers/STM32H5xx_HAL_Driver/Src/stm32h5xx_ll_usb.c ****       PCD_CLEAR_RX_DTOG(USBx, ep->num);
 368:Drivers/STM32H5xx_HAL_Driver/Src/stm32h5xx_ll_usb.c ****       PCD_CLEAR_TX_DTOG(USBx, ep->num);
 369:Drivers/STM32H5xx_HAL_Driver/Src/stm32h5xx_ll_usb.c **** 
 370:Drivers/STM32H5xx_HAL_Driver/Src/stm32h5xx_ll_usb.c ****       if (ep->type != EP_TYPE_ISOC)
 371:Drivers/STM32H5xx_HAL_Driver/Src/stm32h5xx_ll_usb.c ****       {
 372:Drivers/STM32H5xx_HAL_Driver/Src/stm32h5xx_ll_usb.c ****         /* Configure NAK status for the Endpoint */
 373:Drivers/STM32H5xx_HAL_Driver/Src/stm32h5xx_ll_usb.c ****         PCD_SET_EP_TX_STATUS(USBx, ep->num, USB_EP_TX_NAK);
 374:Drivers/STM32H5xx_HAL_Driver/Src/stm32h5xx_ll_usb.c ****       }
 375:Drivers/STM32H5xx_HAL_Driver/Src/stm32h5xx_ll_usb.c ****       else
 376:Drivers/STM32H5xx_HAL_Driver/Src/stm32h5xx_ll_usb.c ****       {
 377:Drivers/STM32H5xx_HAL_Driver/Src/stm32h5xx_ll_usb.c ****         /* Configure TX Endpoint to disabled state */
 378:Drivers/STM32H5xx_HAL_Driver/Src/stm32h5xx_ll_usb.c ****         PCD_SET_EP_TX_STATUS(USBx, ep->num, USB_EP_TX_DIS);
 379:Drivers/STM32H5xx_HAL_Driver/Src/stm32h5xx_ll_usb.c ****       }
 380:Drivers/STM32H5xx_HAL_Driver/Src/stm32h5xx_ll_usb.c **** 
 381:Drivers/STM32H5xx_HAL_Driver/Src/stm32h5xx_ll_usb.c ****       PCD_SET_EP_RX_STATUS(USBx, ep->num, USB_EP_RX_DIS);
 958              		.loc 1 381 7 discriminator 7 view .LVU298
 382:Drivers/STM32H5xx_HAL_Driver/Src/stm32h5xx_ll_usb.c ****     }
 383:Drivers/STM32H5xx_HAL_Driver/Src/stm32h5xx_ll_usb.c ****   }
 384:Drivers/STM32H5xx_HAL_Driver/Src/stm32h5xx_ll_usb.c **** #endif /* (USE_USB_DOUBLE_BUFFER == 1U) */
 385:Drivers/STM32H5xx_HAL_Driver/Src/stm32h5xx_ll_usb.c **** 
 386:Drivers/STM32H5xx_HAL_Driver/Src/stm32h5xx_ll_usb.c ****   return ret;
 959              		.loc 1 386 3 view .LVU299
 387:Drivers/STM32H5xx_HAL_Driver/Src/stm32h5xx_ll_usb.c **** }
 960              		.loc 1 387 1 is_stmt 0 view .LVU300
 961 02de 30BD     		pop	{r4, r5, pc}
 962              	.LVL94:
 963              	.L46:
ARM GAS  C:\Users\sapph\AppData\Local\Temp\cchEHrSS.s 			page 25


 344:Drivers/STM32H5xx_HAL_Driver/Src/stm32h5xx_ll_usb.c ****     }
 964              		.loc 1 344 7 is_stmt 1 view .LVU301
 965              	.LBB20:
 344:Drivers/STM32H5xx_HAL_Driver/Src/stm32h5xx_ll_usb.c ****     }
 966              		.loc 1 344 7 view .LVU302
 344:Drivers/STM32H5xx_HAL_Driver/Src/stm32h5xx_ll_usb.c ****     }
 967              		.loc 1 344 7 view .LVU303
 968 02e0 0C78     		ldrb	r4, [r1]	@ zero_extendqisi2
 969              	.LVL95:
 344:Drivers/STM32H5xx_HAL_Driver/Src/stm32h5xx_ll_usb.c ****     }
 970              		.loc 1 344 7 is_stmt 0 view .LVU304
 971 02e2 53F82450 		ldr	r5, [r3, r4, lsl #2]
 972 02e6 054A     		ldr	r2, .L47+4
 344:Drivers/STM32H5xx_HAL_Driver/Src/stm32h5xx_ll_usb.c ****     }
 973              		.loc 1 344 7 view .LVU305
 974 02e8 2A40     		ands	r2, r2, r5
 975              	.LVL96:
 344:Drivers/STM32H5xx_HAL_Driver/Src/stm32h5xx_ll_usb.c ****     }
 976              		.loc 1 344 7 is_stmt 1 view .LVU306
 977 02ea 42F40142 		orr	r2, r2, #33024
 978              	.LVL97:
 344:Drivers/STM32H5xx_HAL_Driver/Src/stm32h5xx_ll_usb.c ****     }
 979              		.loc 1 344 7 is_stmt 0 view .LVU307
 980 02ee 42F08002 		orr	r2, r2, #128
 981 02f2 43F82420 		str	r2, [r3, r4, lsl #2]
 982              	.LBE20:
 344:Drivers/STM32H5xx_HAL_Driver/Src/stm32h5xx_ll_usb.c ****     }
 983              		.loc 1 344 7 is_stmt 1 view .LVU308
 984 02f6 8AE7     		b	.L36
 985              	.L48:
 986              		.align	2
 987              	.L47:
 988 02f8 8F89FF07 		.word	134187407
 989 02fc 8F8FFF07 		.word	134188943
 990 0300 BF8FFF07 		.word	134188991
 991 0304 8FBFFF07 		.word	134201231
 992 0308 8F8EFF07 		.word	134188687
 993              	.LVL98:
 994              	.L37:
 367:Drivers/STM32H5xx_HAL_Driver/Src/stm32h5xx_ll_usb.c ****       PCD_CLEAR_TX_DTOG(USBx, ep->num);
 995              		.loc 1 367 7 view .LVU309
 996              	.LBB21:
 367:Drivers/STM32H5xx_HAL_Driver/Src/stm32h5xx_ll_usb.c ****       PCD_CLEAR_TX_DTOG(USBx, ep->num);
 997              		.loc 1 367 7 view .LVU310
 367:Drivers/STM32H5xx_HAL_Driver/Src/stm32h5xx_ll_usb.c ****       PCD_CLEAR_TX_DTOG(USBx, ep->num);
 998              		.loc 1 367 7 view .LVU311
 999 030c 0C78     		ldrb	r4, [r1]	@ zero_extendqisi2
 1000 030e 53F82420 		ldr	r2, [r3, r4, lsl #2]
 1001              	.LVL99:
 367:Drivers/STM32H5xx_HAL_Driver/Src/stm32h5xx_ll_usb.c ****       PCD_CLEAR_TX_DTOG(USBx, ep->num);
 1002              		.loc 1 367 7 view .LVU312
 1003 0312 12F4804F 		tst	r2, #16384
 1004 0316 09D0     		beq	.L40
 367:Drivers/STM32H5xx_HAL_Driver/Src/stm32h5xx_ll_usb.c ****       PCD_CLEAR_TX_DTOG(USBx, ep->num);
 1005              		.loc 1 367 7 discriminator 1 view .LVU313
 1006              	.LBB22:
 367:Drivers/STM32H5xx_HAL_Driver/Src/stm32h5xx_ll_usb.c ****       PCD_CLEAR_TX_DTOG(USBx, ep->num);
ARM GAS  C:\Users\sapph\AppData\Local\Temp\cchEHrSS.s 			page 26


 1007              		.loc 1 367 7 discriminator 1 view .LVU314
 367:Drivers/STM32H5xx_HAL_Driver/Src/stm32h5xx_ll_usb.c ****       PCD_CLEAR_TX_DTOG(USBx, ep->num);
 1008              		.loc 1 367 7 discriminator 1 view .LVU315
 1009 0318 53F82450 		ldr	r5, [r3, r4, lsl #2]
 1010 031c 1F4A     		ldr	r2, .L49
 1011              	.LVL100:
 367:Drivers/STM32H5xx_HAL_Driver/Src/stm32h5xx_ll_usb.c ****       PCD_CLEAR_TX_DTOG(USBx, ep->num);
 1012              		.loc 1 367 7 is_stmt 0 discriminator 1 view .LVU316
 1013 031e 2A40     		ands	r2, r2, r5
 1014              	.LVL101:
 367:Drivers/STM32H5xx_HAL_Driver/Src/stm32h5xx_ll_usb.c ****       PCD_CLEAR_TX_DTOG(USBx, ep->num);
 1015              		.loc 1 367 7 is_stmt 1 discriminator 1 view .LVU317
 1016 0320 42F44042 		orr	r2, r2, #49152
 1017              	.LVL102:
 367:Drivers/STM32H5xx_HAL_Driver/Src/stm32h5xx_ll_usb.c ****       PCD_CLEAR_TX_DTOG(USBx, ep->num);
 1018              		.loc 1 367 7 is_stmt 0 discriminator 1 view .LVU318
 1019 0324 42F08002 		orr	r2, r2, #128
 1020 0328 43F82420 		str	r2, [r3, r4, lsl #2]
 1021              	.LVL103:
 1022              	.L40:
 367:Drivers/STM32H5xx_HAL_Driver/Src/stm32h5xx_ll_usb.c ****       PCD_CLEAR_TX_DTOG(USBx, ep->num);
 1023              		.loc 1 367 7 discriminator 1 view .LVU319
 1024              	.LBE22:
 367:Drivers/STM32H5xx_HAL_Driver/Src/stm32h5xx_ll_usb.c ****       PCD_CLEAR_TX_DTOG(USBx, ep->num);
 1025              		.loc 1 367 7 is_stmt 1 discriminator 3 view .LVU320
 1026              	.LBE21:
 367:Drivers/STM32H5xx_HAL_Driver/Src/stm32h5xx_ll_usb.c ****       PCD_CLEAR_TX_DTOG(USBx, ep->num);
 1027              		.loc 1 367 7 discriminator 3 view .LVU321
 368:Drivers/STM32H5xx_HAL_Driver/Src/stm32h5xx_ll_usb.c **** 
 1028              		.loc 1 368 7 view .LVU322
 1029              	.LBB23:
 368:Drivers/STM32H5xx_HAL_Driver/Src/stm32h5xx_ll_usb.c **** 
 1030              		.loc 1 368 7 view .LVU323
 368:Drivers/STM32H5xx_HAL_Driver/Src/stm32h5xx_ll_usb.c **** 
 1031              		.loc 1 368 7 view .LVU324
 1032 032c 0C78     		ldrb	r4, [r1]	@ zero_extendqisi2
 1033 032e 53F82420 		ldr	r2, [r3, r4, lsl #2]
 1034              	.LVL104:
 368:Drivers/STM32H5xx_HAL_Driver/Src/stm32h5xx_ll_usb.c **** 
 1035              		.loc 1 368 7 view .LVU325
 1036 0332 12F0400F 		tst	r2, #64
 1037 0336 09D0     		beq	.L41
 368:Drivers/STM32H5xx_HAL_Driver/Src/stm32h5xx_ll_usb.c **** 
 1038              		.loc 1 368 7 discriminator 1 view .LVU326
 1039              	.LBB24:
 368:Drivers/STM32H5xx_HAL_Driver/Src/stm32h5xx_ll_usb.c **** 
 1040              		.loc 1 368 7 discriminator 1 view .LVU327
 368:Drivers/STM32H5xx_HAL_Driver/Src/stm32h5xx_ll_usb.c **** 
 1041              		.loc 1 368 7 discriminator 1 view .LVU328
 1042 0338 53F82450 		ldr	r5, [r3, r4, lsl #2]
 1043 033c 174A     		ldr	r2, .L49
 1044              	.LVL105:
 368:Drivers/STM32H5xx_HAL_Driver/Src/stm32h5xx_ll_usb.c **** 
 1045              		.loc 1 368 7 is_stmt 0 discriminator 1 view .LVU329
 1046 033e 2A40     		ands	r2, r2, r5
 1047              	.LVL106:
 368:Drivers/STM32H5xx_HAL_Driver/Src/stm32h5xx_ll_usb.c **** 
ARM GAS  C:\Users\sapph\AppData\Local\Temp\cchEHrSS.s 			page 27


 1048              		.loc 1 368 7 is_stmt 1 discriminator 1 view .LVU330
 1049 0340 42F40042 		orr	r2, r2, #32768
 1050              	.LVL107:
 368:Drivers/STM32H5xx_HAL_Driver/Src/stm32h5xx_ll_usb.c **** 
 1051              		.loc 1 368 7 is_stmt 0 discriminator 1 view .LVU331
 1052 0344 42F0C002 		orr	r2, r2, #192
 1053 0348 43F82420 		str	r2, [r3, r4, lsl #2]
 1054              	.LVL108:
 1055              	.L41:
 368:Drivers/STM32H5xx_HAL_Driver/Src/stm32h5xx_ll_usb.c **** 
 1056              		.loc 1 368 7 discriminator 1 view .LVU332
 1057              	.LBE24:
 368:Drivers/STM32H5xx_HAL_Driver/Src/stm32h5xx_ll_usb.c **** 
 1058              		.loc 1 368 7 is_stmt 1 discriminator 3 view .LVU333
 1059              	.LBE23:
 368:Drivers/STM32H5xx_HAL_Driver/Src/stm32h5xx_ll_usb.c **** 
 1060              		.loc 1 368 7 discriminator 3 view .LVU334
 370:Drivers/STM32H5xx_HAL_Driver/Src/stm32h5xx_ll_usb.c ****       {
 1061              		.loc 1 370 7 view .LVU335
 370:Drivers/STM32H5xx_HAL_Driver/Src/stm32h5xx_ll_usb.c ****       {
 1062              		.loc 1 370 13 is_stmt 0 view .LVU336
 1063 034c CA78     		ldrb	r2, [r1, #3]	@ zero_extendqisi2
 370:Drivers/STM32H5xx_HAL_Driver/Src/stm32h5xx_ll_usb.c ****       {
 1064              		.loc 1 370 10 view .LVU337
 1065 034e 012A     		cmp	r2, #1
 1066 0350 18D0     		beq	.L42
 373:Drivers/STM32H5xx_HAL_Driver/Src/stm32h5xx_ll_usb.c ****       }
 1067              		.loc 1 373 9 is_stmt 1 view .LVU338
 1068              	.LBB25:
 373:Drivers/STM32H5xx_HAL_Driver/Src/stm32h5xx_ll_usb.c ****       }
 1069              		.loc 1 373 9 view .LVU339
 373:Drivers/STM32H5xx_HAL_Driver/Src/stm32h5xx_ll_usb.c ****       }
 1070              		.loc 1 373 9 view .LVU340
 1071 0352 0C78     		ldrb	r4, [r1]	@ zero_extendqisi2
 1072 0354 53F82450 		ldr	r5, [r3, r4, lsl #2]
 1073 0358 114A     		ldr	r2, .L49+4
 1074 035a 2A40     		ands	r2, r2, r5
 1075              	.LVL109:
 373:Drivers/STM32H5xx_HAL_Driver/Src/stm32h5xx_ll_usb.c ****       }
 1076              		.loc 1 373 9 view .LVU341
 373:Drivers/STM32H5xx_HAL_Driver/Src/stm32h5xx_ll_usb.c ****       }
 1077              		.loc 1 373 9 discriminator 3 view .LVU342
 373:Drivers/STM32H5xx_HAL_Driver/Src/stm32h5xx_ll_usb.c ****       }
 1078              		.loc 1 373 9 discriminator 4 view .LVU343
 1079 035c 82F02002 		eor	r2, r2, #32
 1080              	.LVL110:
 373:Drivers/STM32H5xx_HAL_Driver/Src/stm32h5xx_ll_usb.c ****       }
 1081              		.loc 1 373 9 discriminator 6 view .LVU344
 1082 0360 42F40042 		orr	r2, r2, #32768
 1083              	.LVL111:
 373:Drivers/STM32H5xx_HAL_Driver/Src/stm32h5xx_ll_usb.c ****       }
 1084              		.loc 1 373 9 is_stmt 0 discriminator 6 view .LVU345
 1085 0364 42F08002 		orr	r2, r2, #128
 1086 0368 43F82420 		str	r2, [r3, r4, lsl #2]
 1087              	.LBE25:
 373:Drivers/STM32H5xx_HAL_Driver/Src/stm32h5xx_ll_usb.c ****       }
 1088              		.loc 1 373 9 is_stmt 1 discriminator 6 view .LVU346
ARM GAS  C:\Users\sapph\AppData\Local\Temp\cchEHrSS.s 			page 28


 1089              	.LVL112:
 1090              	.L43:
 378:Drivers/STM32H5xx_HAL_Driver/Src/stm32h5xx_ll_usb.c ****       }
 1091              		.loc 1 378 9 discriminator 7 view .LVU347
 381:Drivers/STM32H5xx_HAL_Driver/Src/stm32h5xx_ll_usb.c ****     }
 1092              		.loc 1 381 7 view .LVU348
 1093              	.LBB26:
 381:Drivers/STM32H5xx_HAL_Driver/Src/stm32h5xx_ll_usb.c ****     }
 1094              		.loc 1 381 7 view .LVU349
 381:Drivers/STM32H5xx_HAL_Driver/Src/stm32h5xx_ll_usb.c ****     }
 1095              		.loc 1 381 7 view .LVU350
 1096 036c 0978     		ldrb	r1, [r1]	@ zero_extendqisi2
 1097              	.LVL113:
 381:Drivers/STM32H5xx_HAL_Driver/Src/stm32h5xx_ll_usb.c ****     }
 1098              		.loc 1 381 7 is_stmt 0 view .LVU351
 1099 036e 53F82140 		ldr	r4, [r3, r1, lsl #2]
 1100 0372 0C4A     		ldr	r2, .L49+8
 1101 0374 2240     		ands	r2, r2, r4
 1102              	.LVL114:
 381:Drivers/STM32H5xx_HAL_Driver/Src/stm32h5xx_ll_usb.c ****     }
 1103              		.loc 1 381 7 is_stmt 1 view .LVU352
 381:Drivers/STM32H5xx_HAL_Driver/Src/stm32h5xx_ll_usb.c ****     }
 1104              		.loc 1 381 7 discriminator 3 view .LVU353
 381:Drivers/STM32H5xx_HAL_Driver/Src/stm32h5xx_ll_usb.c ****     }
 1105              		.loc 1 381 7 discriminator 6 view .LVU354
 1106 0376 42F40042 		orr	r2, r2, #32768
 1107              	.LVL115:
 381:Drivers/STM32H5xx_HAL_Driver/Src/stm32h5xx_ll_usb.c ****     }
 1108              		.loc 1 381 7 is_stmt 0 discriminator 6 view .LVU355
 1109 037a 42F08002 		orr	r2, r2, #128
 1110 037e 43F82120 		str	r2, [r3, r1, lsl #2]
 1111 0382 ACE7     		b	.L27
 1112              	.LVL116:
 1113              	.L42:
 381:Drivers/STM32H5xx_HAL_Driver/Src/stm32h5xx_ll_usb.c ****     }
 1114              		.loc 1 381 7 discriminator 6 view .LVU356
 1115              	.LBE26:
 378:Drivers/STM32H5xx_HAL_Driver/Src/stm32h5xx_ll_usb.c ****       }
 1116              		.loc 1 378 9 is_stmt 1 view .LVU357
 1117              	.LBB27:
 378:Drivers/STM32H5xx_HAL_Driver/Src/stm32h5xx_ll_usb.c ****       }
 1118              		.loc 1 378 9 view .LVU358
 378:Drivers/STM32H5xx_HAL_Driver/Src/stm32h5xx_ll_usb.c ****       }
 1119              		.loc 1 378 9 view .LVU359
 1120 0384 0C78     		ldrb	r4, [r1]	@ zero_extendqisi2
 1121 0386 53F82450 		ldr	r5, [r3, r4, lsl #2]
 1122 038a 054A     		ldr	r2, .L49+4
 1123 038c 2A40     		ands	r2, r2, r5
 1124              	.LVL117:
 378:Drivers/STM32H5xx_HAL_Driver/Src/stm32h5xx_ll_usb.c ****       }
 1125              		.loc 1 378 9 view .LVU360
 378:Drivers/STM32H5xx_HAL_Driver/Src/stm32h5xx_ll_usb.c ****       }
 1126              		.loc 1 378 9 discriminator 3 view .LVU361
 378:Drivers/STM32H5xx_HAL_Driver/Src/stm32h5xx_ll_usb.c ****       }
 1127              		.loc 1 378 9 discriminator 6 view .LVU362
 1128 038e 42F40042 		orr	r2, r2, #32768
 1129              	.LVL118:
ARM GAS  C:\Users\sapph\AppData\Local\Temp\cchEHrSS.s 			page 29


 378:Drivers/STM32H5xx_HAL_Driver/Src/stm32h5xx_ll_usb.c ****       }
 1130              		.loc 1 378 9 is_stmt 0 discriminator 6 view .LVU363
 1131 0392 42F08002 		orr	r2, r2, #128
 1132 0396 43F82420 		str	r2, [r3, r4, lsl #2]
 1133 039a E7E7     		b	.L43
 1134              	.L50:
 1135              		.align	2
 1136              	.L49:
 1137 039c 8F8FFF07 		.word	134188943
 1138 03a0 BF8FFF07 		.word	134188991
 1139 03a4 8FBFFF07 		.word	134201231
 1140              	.LBE27:
 1141              		.cfi_endproc
 1142              	.LFE168:
 1144              		.section	.text.USB_DeactivateEndpoint,"ax",%progbits
 1145              		.align	1
 1146              		.global	USB_DeactivateEndpoint
 1147              		.syntax unified
 1148              		.thumb
 1149              		.thumb_func
 1151              	USB_DeactivateEndpoint:
 1152              	.LVL119:
 1153              	.LFB169:
 388:Drivers/STM32H5xx_HAL_Driver/Src/stm32h5xx_ll_usb.c **** 
 389:Drivers/STM32H5xx_HAL_Driver/Src/stm32h5xx_ll_usb.c **** /**
 390:Drivers/STM32H5xx_HAL_Driver/Src/stm32h5xx_ll_usb.c ****   * @brief  De-activate and de-initialize an endpoint
 391:Drivers/STM32H5xx_HAL_Driver/Src/stm32h5xx_ll_usb.c ****   * @param  USBx Selected device
 392:Drivers/STM32H5xx_HAL_Driver/Src/stm32h5xx_ll_usb.c ****   * @param  ep pointer to endpoint structure
 393:Drivers/STM32H5xx_HAL_Driver/Src/stm32h5xx_ll_usb.c ****   * @retval HAL status
 394:Drivers/STM32H5xx_HAL_Driver/Src/stm32h5xx_ll_usb.c ****   */
 395:Drivers/STM32H5xx_HAL_Driver/Src/stm32h5xx_ll_usb.c **** HAL_StatusTypeDef USB_DeactivateEndpoint(USB_DRD_TypeDef *USBx, USB_DRD_EPTypeDef *ep)
 396:Drivers/STM32H5xx_HAL_Driver/Src/stm32h5xx_ll_usb.c **** {
 1154              		.loc 1 396 1 is_stmt 1 view -0
 1155              		.cfi_startproc
 1156              		@ args = 0, pretend = 0, frame = 0
 1157              		@ frame_needed = 0, uses_anonymous_args = 0
 1158              		@ link register save eliminated.
 1159              		.loc 1 396 1 is_stmt 0 view .LVU365
 1160 0000 10B4     		push	{r4}
 1161              		.cfi_def_cfa_offset 4
 1162              		.cfi_offset 4, -4
 397:Drivers/STM32H5xx_HAL_Driver/Src/stm32h5xx_ll_usb.c ****   if (ep->doublebuffer == 0U)
 1163              		.loc 1 397 3 is_stmt 1 view .LVU366
 1164              		.loc 1 397 9 is_stmt 0 view .LVU367
 1165 0002 0B7B     		ldrb	r3, [r1, #12]	@ zero_extendqisi2
 1166              		.loc 1 397 6 view .LVU368
 1167 0004 002B     		cmp	r3, #0
 1168 0006 3CD1     		bne	.L52
 398:Drivers/STM32H5xx_HAL_Driver/Src/stm32h5xx_ll_usb.c ****   {
 399:Drivers/STM32H5xx_HAL_Driver/Src/stm32h5xx_ll_usb.c ****     if (ep->is_in != 0U)
 1169              		.loc 1 399 5 is_stmt 1 view .LVU369
 1170              		.loc 1 399 11 is_stmt 0 view .LVU370
 1171 0008 4B78     		ldrb	r3, [r1, #1]	@ zero_extendqisi2
 1172              		.loc 1 399 8 view .LVU371
 1173 000a F3B1     		cbz	r3, .L53
 400:Drivers/STM32H5xx_HAL_Driver/Src/stm32h5xx_ll_usb.c ****     {
 401:Drivers/STM32H5xx_HAL_Driver/Src/stm32h5xx_ll_usb.c ****       PCD_CLEAR_TX_DTOG(USBx, ep->num);
ARM GAS  C:\Users\sapph\AppData\Local\Temp\cchEHrSS.s 			page 30


 1174              		.loc 1 401 7 is_stmt 1 view .LVU372
 1175              	.LBB28:
 1176              		.loc 1 401 7 view .LVU373
 1177              		.loc 1 401 7 view .LVU374
 1178 000c 0A78     		ldrb	r2, [r1]	@ zero_extendqisi2
 1179 000e 50F82230 		ldr	r3, [r0, r2, lsl #2]
 1180              	.LVL120:
 1181              		.loc 1 401 7 view .LVU375
 1182 0012 13F0400F 		tst	r3, #64
 1183 0016 09D0     		beq	.L54
 1184              		.loc 1 401 7 discriminator 1 view .LVU376
 1185              	.LBB29:
 1186              		.loc 1 401 7 discriminator 1 view .LVU377
 1187              		.loc 1 401 7 discriminator 1 view .LVU378
 1188 0018 50F82240 		ldr	r4, [r0, r2, lsl #2]
 1189 001c 5A4B     		ldr	r3, .L63
 1190              	.LVL121:
 1191              		.loc 1 401 7 is_stmt 0 discriminator 1 view .LVU379
 1192 001e 2340     		ands	r3, r3, r4
 1193              	.LVL122:
 1194              		.loc 1 401 7 is_stmt 1 discriminator 1 view .LVU380
 1195 0020 43F40043 		orr	r3, r3, #32768
 1196              	.LVL123:
 1197              		.loc 1 401 7 is_stmt 0 discriminator 1 view .LVU381
 1198 0024 43F0C003 		orr	r3, r3, #192
 1199 0028 40F82230 		str	r3, [r0, r2, lsl #2]
 1200              	.LVL124:
 1201              	.L54:
 1202              		.loc 1 401 7 discriminator 1 view .LVU382
 1203              	.LBE29:
 1204              		.loc 1 401 7 is_stmt 1 discriminator 3 view .LVU383
 1205              	.LBE28:
 1206              		.loc 1 401 7 discriminator 3 view .LVU384
 402:Drivers/STM32H5xx_HAL_Driver/Src/stm32h5xx_ll_usb.c **** 
 403:Drivers/STM32H5xx_HAL_Driver/Src/stm32h5xx_ll_usb.c ****       /* Configure DISABLE status for the Endpoint */
 404:Drivers/STM32H5xx_HAL_Driver/Src/stm32h5xx_ll_usb.c ****       PCD_SET_EP_TX_STATUS(USBx, ep->num, USB_EP_TX_DIS);
 1207              		.loc 1 404 7 view .LVU385
 1208              	.LBB30:
 1209              		.loc 1 404 7 view .LVU386
 1210              		.loc 1 404 7 view .LVU387
 1211 002c 0A78     		ldrb	r2, [r1]	@ zero_extendqisi2
 1212 002e 50F82210 		ldr	r1, [r0, r2, lsl #2]
 1213              	.LVL125:
 1214              		.loc 1 404 7 is_stmt 0 view .LVU388
 1215 0032 564B     		ldr	r3, .L63+4
 1216 0034 0B40     		ands	r3, r3, r1
 1217              	.LVL126:
 1218              		.loc 1 404 7 is_stmt 1 view .LVU389
 1219              		.loc 1 404 7 discriminator 3 view .LVU390
 1220              		.loc 1 404 7 discriminator 6 view .LVU391
 1221 0036 43F40043 		orr	r3, r3, #32768
 1222              	.LVL127:
 1223              		.loc 1 404 7 is_stmt 0 discriminator 6 view .LVU392
 1224 003a 43F08003 		orr	r3, r3, #128
 1225 003e 40F82230 		str	r3, [r0, r2, lsl #2]
 1226              	.LBE30:
 1227              		.loc 1 404 7 is_stmt 1 discriminator 6 view .LVU393
ARM GAS  C:\Users\sapph\AppData\Local\Temp\cchEHrSS.s 			page 31


 1228              	.LVL128:
 1229              	.L55:
 405:Drivers/STM32H5xx_HAL_Driver/Src/stm32h5xx_ll_usb.c ****     }
 406:Drivers/STM32H5xx_HAL_Driver/Src/stm32h5xx_ll_usb.c **** 
 407:Drivers/STM32H5xx_HAL_Driver/Src/stm32h5xx_ll_usb.c ****     else
 408:Drivers/STM32H5xx_HAL_Driver/Src/stm32h5xx_ll_usb.c ****     {
 409:Drivers/STM32H5xx_HAL_Driver/Src/stm32h5xx_ll_usb.c ****       PCD_CLEAR_RX_DTOG(USBx, ep->num);
 410:Drivers/STM32H5xx_HAL_Driver/Src/stm32h5xx_ll_usb.c **** 
 411:Drivers/STM32H5xx_HAL_Driver/Src/stm32h5xx_ll_usb.c ****       /* Configure DISABLE status for the Endpoint */
 412:Drivers/STM32H5xx_HAL_Driver/Src/stm32h5xx_ll_usb.c ****       PCD_SET_EP_RX_STATUS(USBx, ep->num, USB_EP_RX_DIS);
 413:Drivers/STM32H5xx_HAL_Driver/Src/stm32h5xx_ll_usb.c ****     }
 414:Drivers/STM32H5xx_HAL_Driver/Src/stm32h5xx_ll_usb.c ****   }
 415:Drivers/STM32H5xx_HAL_Driver/Src/stm32h5xx_ll_usb.c **** #if (USE_USB_DOUBLE_BUFFER == 1U)
 416:Drivers/STM32H5xx_HAL_Driver/Src/stm32h5xx_ll_usb.c ****   /* Double Buffer */
 417:Drivers/STM32H5xx_HAL_Driver/Src/stm32h5xx_ll_usb.c ****   else
 418:Drivers/STM32H5xx_HAL_Driver/Src/stm32h5xx_ll_usb.c ****   {
 419:Drivers/STM32H5xx_HAL_Driver/Src/stm32h5xx_ll_usb.c ****     if (ep->is_in == 0U)
 420:Drivers/STM32H5xx_HAL_Driver/Src/stm32h5xx_ll_usb.c ****     {
 421:Drivers/STM32H5xx_HAL_Driver/Src/stm32h5xx_ll_usb.c ****       /* Clear the data toggle bits for the endpoint IN/OUT*/
 422:Drivers/STM32H5xx_HAL_Driver/Src/stm32h5xx_ll_usb.c ****       PCD_CLEAR_RX_DTOG(USBx, ep->num);
 423:Drivers/STM32H5xx_HAL_Driver/Src/stm32h5xx_ll_usb.c ****       PCD_CLEAR_TX_DTOG(USBx, ep->num);
 424:Drivers/STM32H5xx_HAL_Driver/Src/stm32h5xx_ll_usb.c **** 
 425:Drivers/STM32H5xx_HAL_Driver/Src/stm32h5xx_ll_usb.c ****       /* Reset value of the data toggle bits for the endpoint out*/
 426:Drivers/STM32H5xx_HAL_Driver/Src/stm32h5xx_ll_usb.c ****       PCD_TX_DTOG(USBx, ep->num);
 427:Drivers/STM32H5xx_HAL_Driver/Src/stm32h5xx_ll_usb.c **** 
 428:Drivers/STM32H5xx_HAL_Driver/Src/stm32h5xx_ll_usb.c ****       PCD_SET_EP_RX_STATUS(USBx, ep->num, USB_EP_RX_DIS);
 429:Drivers/STM32H5xx_HAL_Driver/Src/stm32h5xx_ll_usb.c ****       PCD_SET_EP_TX_STATUS(USBx, ep->num, USB_EP_TX_DIS);
 430:Drivers/STM32H5xx_HAL_Driver/Src/stm32h5xx_ll_usb.c ****     }
 431:Drivers/STM32H5xx_HAL_Driver/Src/stm32h5xx_ll_usb.c ****     else
 432:Drivers/STM32H5xx_HAL_Driver/Src/stm32h5xx_ll_usb.c ****     {
 433:Drivers/STM32H5xx_HAL_Driver/Src/stm32h5xx_ll_usb.c ****       /* Clear the data toggle bits for the endpoint IN/OUT*/
 434:Drivers/STM32H5xx_HAL_Driver/Src/stm32h5xx_ll_usb.c ****       PCD_CLEAR_RX_DTOG(USBx, ep->num);
 435:Drivers/STM32H5xx_HAL_Driver/Src/stm32h5xx_ll_usb.c ****       PCD_CLEAR_TX_DTOG(USBx, ep->num);
 436:Drivers/STM32H5xx_HAL_Driver/Src/stm32h5xx_ll_usb.c ****       PCD_RX_DTOG(USBx, ep->num);
 437:Drivers/STM32H5xx_HAL_Driver/Src/stm32h5xx_ll_usb.c **** 
 438:Drivers/STM32H5xx_HAL_Driver/Src/stm32h5xx_ll_usb.c ****       /* Configure DISABLE status for the Endpoint*/
 439:Drivers/STM32H5xx_HAL_Driver/Src/stm32h5xx_ll_usb.c ****       PCD_SET_EP_TX_STATUS(USBx, ep->num, USB_EP_TX_DIS);
 440:Drivers/STM32H5xx_HAL_Driver/Src/stm32h5xx_ll_usb.c ****       PCD_SET_EP_RX_STATUS(USBx, ep->num, USB_EP_RX_DIS);
 1230              		.loc 1 440 7 discriminator 7 view .LVU394
 441:Drivers/STM32H5xx_HAL_Driver/Src/stm32h5xx_ll_usb.c ****     }
 442:Drivers/STM32H5xx_HAL_Driver/Src/stm32h5xx_ll_usb.c ****   }
 443:Drivers/STM32H5xx_HAL_Driver/Src/stm32h5xx_ll_usb.c **** #endif /* (USE_USB_DOUBLE_BUFFER == 1U) */
 444:Drivers/STM32H5xx_HAL_Driver/Src/stm32h5xx_ll_usb.c **** 
 445:Drivers/STM32H5xx_HAL_Driver/Src/stm32h5xx_ll_usb.c ****   return HAL_OK;
 1231              		.loc 1 445 3 view .LVU395
 446:Drivers/STM32H5xx_HAL_Driver/Src/stm32h5xx_ll_usb.c **** }
 1232              		.loc 1 446 1 is_stmt 0 view .LVU396
 1233 0042 0020     		movs	r0, #0
 1234              	.LVL129:
 1235              		.loc 1 446 1 view .LVU397
 1236 0044 5DF8044B 		ldr	r4, [sp], #4
 1237              		.cfi_remember_state
 1238              		.cfi_restore 4
 1239              		.cfi_def_cfa_offset 0
 1240 0048 7047     		bx	lr
 1241              	.LVL130:
 1242              	.L53:
ARM GAS  C:\Users\sapph\AppData\Local\Temp\cchEHrSS.s 			page 32


 1243              		.cfi_restore_state
 409:Drivers/STM32H5xx_HAL_Driver/Src/stm32h5xx_ll_usb.c **** 
 1244              		.loc 1 409 7 is_stmt 1 view .LVU398
 1245              	.LBB31:
 409:Drivers/STM32H5xx_HAL_Driver/Src/stm32h5xx_ll_usb.c **** 
 1246              		.loc 1 409 7 view .LVU399
 409:Drivers/STM32H5xx_HAL_Driver/Src/stm32h5xx_ll_usb.c **** 
 1247              		.loc 1 409 7 view .LVU400
 1248 004a 0A78     		ldrb	r2, [r1]	@ zero_extendqisi2
 1249 004c 50F82230 		ldr	r3, [r0, r2, lsl #2]
 1250              	.LVL131:
 409:Drivers/STM32H5xx_HAL_Driver/Src/stm32h5xx_ll_usb.c **** 
 1251              		.loc 1 409 7 view .LVU401
 1252 0050 13F4804F 		tst	r3, #16384
 1253 0054 09D0     		beq	.L56
 409:Drivers/STM32H5xx_HAL_Driver/Src/stm32h5xx_ll_usb.c **** 
 1254              		.loc 1 409 7 discriminator 1 view .LVU402
 1255              	.LBB32:
 409:Drivers/STM32H5xx_HAL_Driver/Src/stm32h5xx_ll_usb.c **** 
 1256              		.loc 1 409 7 discriminator 1 view .LVU403
 409:Drivers/STM32H5xx_HAL_Driver/Src/stm32h5xx_ll_usb.c **** 
 1257              		.loc 1 409 7 discriminator 1 view .LVU404
 1258 0056 50F82240 		ldr	r4, [r0, r2, lsl #2]
 1259 005a 4B4B     		ldr	r3, .L63
 1260              	.LVL132:
 409:Drivers/STM32H5xx_HAL_Driver/Src/stm32h5xx_ll_usb.c **** 
 1261              		.loc 1 409 7 is_stmt 0 discriminator 1 view .LVU405
 1262 005c 2340     		ands	r3, r3, r4
 1263              	.LVL133:
 409:Drivers/STM32H5xx_HAL_Driver/Src/stm32h5xx_ll_usb.c **** 
 1264              		.loc 1 409 7 is_stmt 1 discriminator 1 view .LVU406
 1265 005e 43F44043 		orr	r3, r3, #49152
 1266              	.LVL134:
 409:Drivers/STM32H5xx_HAL_Driver/Src/stm32h5xx_ll_usb.c **** 
 1267              		.loc 1 409 7 is_stmt 0 discriminator 1 view .LVU407
 1268 0062 43F08003 		orr	r3, r3, #128
 1269 0066 40F82230 		str	r3, [r0, r2, lsl #2]
 1270              	.LVL135:
 1271              	.L56:
 409:Drivers/STM32H5xx_HAL_Driver/Src/stm32h5xx_ll_usb.c **** 
 1272              		.loc 1 409 7 discriminator 1 view .LVU408
 1273              	.LBE32:
 409:Drivers/STM32H5xx_HAL_Driver/Src/stm32h5xx_ll_usb.c **** 
 1274              		.loc 1 409 7 is_stmt 1 discriminator 3 view .LVU409
 1275              	.LBE31:
 409:Drivers/STM32H5xx_HAL_Driver/Src/stm32h5xx_ll_usb.c **** 
 1276              		.loc 1 409 7 discriminator 3 view .LVU410
 412:Drivers/STM32H5xx_HAL_Driver/Src/stm32h5xx_ll_usb.c ****     }
 1277              		.loc 1 412 7 view .LVU411
 1278              	.LBB33:
 412:Drivers/STM32H5xx_HAL_Driver/Src/stm32h5xx_ll_usb.c ****     }
 1279              		.loc 1 412 7 view .LVU412
 412:Drivers/STM32H5xx_HAL_Driver/Src/stm32h5xx_ll_usb.c ****     }
 1280              		.loc 1 412 7 view .LVU413
 1281 006a 0A78     		ldrb	r2, [r1]	@ zero_extendqisi2
 1282 006c 50F82210 		ldr	r1, [r0, r2, lsl #2]
 1283              	.LVL136:
ARM GAS  C:\Users\sapph\AppData\Local\Temp\cchEHrSS.s 			page 33


 412:Drivers/STM32H5xx_HAL_Driver/Src/stm32h5xx_ll_usb.c ****     }
 1284              		.loc 1 412 7 is_stmt 0 view .LVU414
 1285 0070 474B     		ldr	r3, .L63+8
 1286 0072 0B40     		ands	r3, r3, r1
 1287              	.LVL137:
 412:Drivers/STM32H5xx_HAL_Driver/Src/stm32h5xx_ll_usb.c ****     }
 1288              		.loc 1 412 7 is_stmt 1 view .LVU415
 412:Drivers/STM32H5xx_HAL_Driver/Src/stm32h5xx_ll_usb.c ****     }
 1289              		.loc 1 412 7 discriminator 3 view .LVU416
 412:Drivers/STM32H5xx_HAL_Driver/Src/stm32h5xx_ll_usb.c ****     }
 1290              		.loc 1 412 7 discriminator 6 view .LVU417
 1291 0074 43F40043 		orr	r3, r3, #32768
 1292              	.LVL138:
 412:Drivers/STM32H5xx_HAL_Driver/Src/stm32h5xx_ll_usb.c ****     }
 1293              		.loc 1 412 7 is_stmt 0 discriminator 6 view .LVU418
 1294 0078 43F08003 		orr	r3, r3, #128
 1295 007c 40F82230 		str	r3, [r0, r2, lsl #2]
 1296 0080 DFE7     		b	.L55
 1297              	.LVL139:
 1298              	.L52:
 412:Drivers/STM32H5xx_HAL_Driver/Src/stm32h5xx_ll_usb.c ****     }
 1299              		.loc 1 412 7 discriminator 6 view .LVU419
 1300              	.LBE33:
 419:Drivers/STM32H5xx_HAL_Driver/Src/stm32h5xx_ll_usb.c ****     {
 1301              		.loc 1 419 5 is_stmt 1 view .LVU420
 419:Drivers/STM32H5xx_HAL_Driver/Src/stm32h5xx_ll_usb.c ****     {
 1302              		.loc 1 419 11 is_stmt 0 view .LVU421
 1303 0082 4B78     		ldrb	r3, [r1, #1]	@ zero_extendqisi2
 419:Drivers/STM32H5xx_HAL_Driver/Src/stm32h5xx_ll_usb.c ****     {
 1304              		.loc 1 419 8 view .LVU422
 1305 0084 002B     		cmp	r3, #0
 1306 0086 3FD1     		bne	.L57
 422:Drivers/STM32H5xx_HAL_Driver/Src/stm32h5xx_ll_usb.c ****       PCD_CLEAR_TX_DTOG(USBx, ep->num);
 1307              		.loc 1 422 7 is_stmt 1 view .LVU423
 1308              	.LBB34:
 422:Drivers/STM32H5xx_HAL_Driver/Src/stm32h5xx_ll_usb.c ****       PCD_CLEAR_TX_DTOG(USBx, ep->num);
 1309              		.loc 1 422 7 view .LVU424
 422:Drivers/STM32H5xx_HAL_Driver/Src/stm32h5xx_ll_usb.c ****       PCD_CLEAR_TX_DTOG(USBx, ep->num);
 1310              		.loc 1 422 7 view .LVU425
 1311 0088 0A78     		ldrb	r2, [r1]	@ zero_extendqisi2
 1312 008a 50F82230 		ldr	r3, [r0, r2, lsl #2]
 1313              	.LVL140:
 422:Drivers/STM32H5xx_HAL_Driver/Src/stm32h5xx_ll_usb.c ****       PCD_CLEAR_TX_DTOG(USBx, ep->num);
 1314              		.loc 1 422 7 view .LVU426
 1315 008e 13F4804F 		tst	r3, #16384
 1316 0092 09D0     		beq	.L58
 422:Drivers/STM32H5xx_HAL_Driver/Src/stm32h5xx_ll_usb.c ****       PCD_CLEAR_TX_DTOG(USBx, ep->num);
 1317              		.loc 1 422 7 discriminator 1 view .LVU427
 1318              	.LBB35:
 422:Drivers/STM32H5xx_HAL_Driver/Src/stm32h5xx_ll_usb.c ****       PCD_CLEAR_TX_DTOG(USBx, ep->num);
 1319              		.loc 1 422 7 discriminator 1 view .LVU428
 422:Drivers/STM32H5xx_HAL_Driver/Src/stm32h5xx_ll_usb.c ****       PCD_CLEAR_TX_DTOG(USBx, ep->num);
 1320              		.loc 1 422 7 discriminator 1 view .LVU429
 1321 0094 50F82240 		ldr	r4, [r0, r2, lsl #2]
 1322 0098 3B4B     		ldr	r3, .L63
 1323              	.LVL141:
 422:Drivers/STM32H5xx_HAL_Driver/Src/stm32h5xx_ll_usb.c ****       PCD_CLEAR_TX_DTOG(USBx, ep->num);
ARM GAS  C:\Users\sapph\AppData\Local\Temp\cchEHrSS.s 			page 34


 1324              		.loc 1 422 7 is_stmt 0 discriminator 1 view .LVU430
 1325 009a 2340     		ands	r3, r3, r4
 1326              	.LVL142:
 422:Drivers/STM32H5xx_HAL_Driver/Src/stm32h5xx_ll_usb.c ****       PCD_CLEAR_TX_DTOG(USBx, ep->num);
 1327              		.loc 1 422 7 is_stmt 1 discriminator 1 view .LVU431
 1328 009c 43F44043 		orr	r3, r3, #49152
 1329              	.LVL143:
 422:Drivers/STM32H5xx_HAL_Driver/Src/stm32h5xx_ll_usb.c ****       PCD_CLEAR_TX_DTOG(USBx, ep->num);
 1330              		.loc 1 422 7 is_stmt 0 discriminator 1 view .LVU432
 1331 00a0 43F08003 		orr	r3, r3, #128
 1332 00a4 40F82230 		str	r3, [r0, r2, lsl #2]
 1333              	.LVL144:
 1334              	.L58:
 422:Drivers/STM32H5xx_HAL_Driver/Src/stm32h5xx_ll_usb.c ****       PCD_CLEAR_TX_DTOG(USBx, ep->num);
 1335              		.loc 1 422 7 discriminator 1 view .LVU433
 1336              	.LBE35:
 422:Drivers/STM32H5xx_HAL_Driver/Src/stm32h5xx_ll_usb.c ****       PCD_CLEAR_TX_DTOG(USBx, ep->num);
 1337              		.loc 1 422 7 is_stmt 1 discriminator 3 view .LVU434
 1338              	.LBE34:
 422:Drivers/STM32H5xx_HAL_Driver/Src/stm32h5xx_ll_usb.c ****       PCD_CLEAR_TX_DTOG(USBx, ep->num);
 1339              		.loc 1 422 7 discriminator 3 view .LVU435
 423:Drivers/STM32H5xx_HAL_Driver/Src/stm32h5xx_ll_usb.c **** 
 1340              		.loc 1 423 7 view .LVU436
 1341              	.LBB36:
 423:Drivers/STM32H5xx_HAL_Driver/Src/stm32h5xx_ll_usb.c **** 
 1342              		.loc 1 423 7 view .LVU437
 423:Drivers/STM32H5xx_HAL_Driver/Src/stm32h5xx_ll_usb.c **** 
 1343              		.loc 1 423 7 view .LVU438
 1344 00a8 0A78     		ldrb	r2, [r1]	@ zero_extendqisi2
 1345 00aa 50F82230 		ldr	r3, [r0, r2, lsl #2]
 1346              	.LVL145:
 423:Drivers/STM32H5xx_HAL_Driver/Src/stm32h5xx_ll_usb.c **** 
 1347              		.loc 1 423 7 view .LVU439
 1348 00ae 13F0400F 		tst	r3, #64
 1349 00b2 09D0     		beq	.L59
 423:Drivers/STM32H5xx_HAL_Driver/Src/stm32h5xx_ll_usb.c **** 
 1350              		.loc 1 423 7 discriminator 1 view .LVU440
 1351              	.LBB37:
 423:Drivers/STM32H5xx_HAL_Driver/Src/stm32h5xx_ll_usb.c **** 
 1352              		.loc 1 423 7 discriminator 1 view .LVU441
 423:Drivers/STM32H5xx_HAL_Driver/Src/stm32h5xx_ll_usb.c **** 
 1353              		.loc 1 423 7 discriminator 1 view .LVU442
 1354 00b4 50F82240 		ldr	r4, [r0, r2, lsl #2]
 1355 00b8 334B     		ldr	r3, .L63
 1356              	.LVL146:
 423:Drivers/STM32H5xx_HAL_Driver/Src/stm32h5xx_ll_usb.c **** 
 1357              		.loc 1 423 7 is_stmt 0 discriminator 1 view .LVU443
 1358 00ba 2340     		ands	r3, r3, r4
 1359              	.LVL147:
 423:Drivers/STM32H5xx_HAL_Driver/Src/stm32h5xx_ll_usb.c **** 
 1360              		.loc 1 423 7 is_stmt 1 discriminator 1 view .LVU444
 1361 00bc 43F40043 		orr	r3, r3, #32768
 1362              	.LVL148:
 423:Drivers/STM32H5xx_HAL_Driver/Src/stm32h5xx_ll_usb.c **** 
 1363              		.loc 1 423 7 is_stmt 0 discriminator 1 view .LVU445
 1364 00c0 43F0C003 		orr	r3, r3, #192
 1365 00c4 40F82230 		str	r3, [r0, r2, lsl #2]
ARM GAS  C:\Users\sapph\AppData\Local\Temp\cchEHrSS.s 			page 35


 1366              	.LVL149:
 1367              	.L59:
 423:Drivers/STM32H5xx_HAL_Driver/Src/stm32h5xx_ll_usb.c **** 
 1368              		.loc 1 423 7 discriminator 1 view .LVU446
 1369              	.LBE37:
 423:Drivers/STM32H5xx_HAL_Driver/Src/stm32h5xx_ll_usb.c **** 
 1370              		.loc 1 423 7 is_stmt 1 discriminator 3 view .LVU447
 1371              	.LBE36:
 423:Drivers/STM32H5xx_HAL_Driver/Src/stm32h5xx_ll_usb.c **** 
 1372              		.loc 1 423 7 discriminator 3 view .LVU448
 426:Drivers/STM32H5xx_HAL_Driver/Src/stm32h5xx_ll_usb.c **** 
 1373              		.loc 1 426 7 view .LVU449
 1374              	.LBB38:
 426:Drivers/STM32H5xx_HAL_Driver/Src/stm32h5xx_ll_usb.c **** 
 1375              		.loc 1 426 7 view .LVU450
 426:Drivers/STM32H5xx_HAL_Driver/Src/stm32h5xx_ll_usb.c **** 
 1376              		.loc 1 426 7 view .LVU451
 1377 00c8 0A78     		ldrb	r2, [r1]	@ zero_extendqisi2
 1378 00ca 50F82240 		ldr	r4, [r0, r2, lsl #2]
 1379 00ce 2E4B     		ldr	r3, .L63
 1380 00d0 2340     		ands	r3, r3, r4
 1381              	.LVL150:
 426:Drivers/STM32H5xx_HAL_Driver/Src/stm32h5xx_ll_usb.c **** 
 1382              		.loc 1 426 7 view .LVU452
 1383 00d2 43F40043 		orr	r3, r3, #32768
 1384              	.LVL151:
 426:Drivers/STM32H5xx_HAL_Driver/Src/stm32h5xx_ll_usb.c **** 
 1385              		.loc 1 426 7 is_stmt 0 view .LVU453
 1386 00d6 43F0C003 		orr	r3, r3, #192
 1387 00da 40F82230 		str	r3, [r0, r2, lsl #2]
 1388              	.LBE38:
 426:Drivers/STM32H5xx_HAL_Driver/Src/stm32h5xx_ll_usb.c **** 
 1389              		.loc 1 426 7 is_stmt 1 view .LVU454
 428:Drivers/STM32H5xx_HAL_Driver/Src/stm32h5xx_ll_usb.c ****       PCD_SET_EP_TX_STATUS(USBx, ep->num, USB_EP_TX_DIS);
 1390              		.loc 1 428 7 view .LVU455
 1391              	.LBB39:
 428:Drivers/STM32H5xx_HAL_Driver/Src/stm32h5xx_ll_usb.c ****       PCD_SET_EP_TX_STATUS(USBx, ep->num, USB_EP_TX_DIS);
 1392              		.loc 1 428 7 view .LVU456
 428:Drivers/STM32H5xx_HAL_Driver/Src/stm32h5xx_ll_usb.c ****       PCD_SET_EP_TX_STATUS(USBx, ep->num, USB_EP_TX_DIS);
 1393              		.loc 1 428 7 view .LVU457
 1394 00de 0A78     		ldrb	r2, [r1]	@ zero_extendqisi2
 1395 00e0 50F82240 		ldr	r4, [r0, r2, lsl #2]
 1396              	.LVL152:
 428:Drivers/STM32H5xx_HAL_Driver/Src/stm32h5xx_ll_usb.c ****       PCD_SET_EP_TX_STATUS(USBx, ep->num, USB_EP_TX_DIS);
 1397              		.loc 1 428 7 is_stmt 0 view .LVU458
 1398 00e4 2A4B     		ldr	r3, .L63+8
 1399 00e6 2340     		ands	r3, r3, r4
 1400              	.LVL153:
 428:Drivers/STM32H5xx_HAL_Driver/Src/stm32h5xx_ll_usb.c ****       PCD_SET_EP_TX_STATUS(USBx, ep->num, USB_EP_TX_DIS);
 1401              		.loc 1 428 7 is_stmt 1 view .LVU459
 428:Drivers/STM32H5xx_HAL_Driver/Src/stm32h5xx_ll_usb.c ****       PCD_SET_EP_TX_STATUS(USBx, ep->num, USB_EP_TX_DIS);
 1402              		.loc 1 428 7 discriminator 3 view .LVU460
 428:Drivers/STM32H5xx_HAL_Driver/Src/stm32h5xx_ll_usb.c ****       PCD_SET_EP_TX_STATUS(USBx, ep->num, USB_EP_TX_DIS);
 1403              		.loc 1 428 7 discriminator 6 view .LVU461
 1404 00e8 48F2800C 		movw	ip, #32896
 1405 00ec 43EA0C03 		orr	r3, r3, ip
 1406              	.LVL154:
ARM GAS  C:\Users\sapph\AppData\Local\Temp\cchEHrSS.s 			page 36


 428:Drivers/STM32H5xx_HAL_Driver/Src/stm32h5xx_ll_usb.c ****       PCD_SET_EP_TX_STATUS(USBx, ep->num, USB_EP_TX_DIS);
 1407              		.loc 1 428 7 is_stmt 0 discriminator 6 view .LVU462
 1408 00f0 40F82230 		str	r3, [r0, r2, lsl #2]
 1409              	.LBE39:
 428:Drivers/STM32H5xx_HAL_Driver/Src/stm32h5xx_ll_usb.c ****       PCD_SET_EP_TX_STATUS(USBx, ep->num, USB_EP_TX_DIS);
 1410              		.loc 1 428 7 is_stmt 1 discriminator 6 view .LVU463
 429:Drivers/STM32H5xx_HAL_Driver/Src/stm32h5xx_ll_usb.c ****     }
 1411              		.loc 1 429 7 view .LVU464
 1412              	.LBB40:
 429:Drivers/STM32H5xx_HAL_Driver/Src/stm32h5xx_ll_usb.c ****     }
 1413              		.loc 1 429 7 view .LVU465
 429:Drivers/STM32H5xx_HAL_Driver/Src/stm32h5xx_ll_usb.c ****     }
 1414              		.loc 1 429 7 view .LVU466
 1415 00f4 0A78     		ldrb	r2, [r1]	@ zero_extendqisi2
 1416 00f6 50F82210 		ldr	r1, [r0, r2, lsl #2]
 1417              	.LVL155:
 429:Drivers/STM32H5xx_HAL_Driver/Src/stm32h5xx_ll_usb.c ****     }
 1418              		.loc 1 429 7 is_stmt 0 view .LVU467
 1419 00fa 244B     		ldr	r3, .L63+4
 1420 00fc 0B40     		ands	r3, r3, r1
 1421              	.LVL156:
 429:Drivers/STM32H5xx_HAL_Driver/Src/stm32h5xx_ll_usb.c ****     }
 1422              		.loc 1 429 7 is_stmt 1 view .LVU468
 429:Drivers/STM32H5xx_HAL_Driver/Src/stm32h5xx_ll_usb.c ****     }
 1423              		.loc 1 429 7 discriminator 3 view .LVU469
 429:Drivers/STM32H5xx_HAL_Driver/Src/stm32h5xx_ll_usb.c ****     }
 1424              		.loc 1 429 7 discriminator 6 view .LVU470
 1425 00fe 43EA0C03 		orr	r3, r3, ip
 1426              	.LVL157:
 429:Drivers/STM32H5xx_HAL_Driver/Src/stm32h5xx_ll_usb.c ****     }
 1427              		.loc 1 429 7 is_stmt 0 discriminator 6 view .LVU471
 1428 0102 40F82230 		str	r3, [r0, r2, lsl #2]
 1429              	.LBE40:
 429:Drivers/STM32H5xx_HAL_Driver/Src/stm32h5xx_ll_usb.c ****     }
 1430              		.loc 1 429 7 is_stmt 1 discriminator 6 view .LVU472
 1431 0106 9CE7     		b	.L55
 1432              	.LVL158:
 1433              	.L57:
 434:Drivers/STM32H5xx_HAL_Driver/Src/stm32h5xx_ll_usb.c ****       PCD_CLEAR_TX_DTOG(USBx, ep->num);
 1434              		.loc 1 434 7 view .LVU473
 1435              	.LBB41:
 434:Drivers/STM32H5xx_HAL_Driver/Src/stm32h5xx_ll_usb.c ****       PCD_CLEAR_TX_DTOG(USBx, ep->num);
 1436              		.loc 1 434 7 view .LVU474
 434:Drivers/STM32H5xx_HAL_Driver/Src/stm32h5xx_ll_usb.c ****       PCD_CLEAR_TX_DTOG(USBx, ep->num);
 1437              		.loc 1 434 7 view .LVU475
 1438 0108 0A78     		ldrb	r2, [r1]	@ zero_extendqisi2
 1439 010a 50F82230 		ldr	r3, [r0, r2, lsl #2]
 1440              	.LVL159:
 434:Drivers/STM32H5xx_HAL_Driver/Src/stm32h5xx_ll_usb.c ****       PCD_CLEAR_TX_DTOG(USBx, ep->num);
 1441              		.loc 1 434 7 view .LVU476
 1442 010e 13F4804F 		tst	r3, #16384
 1443 0112 09D0     		beq	.L60
 434:Drivers/STM32H5xx_HAL_Driver/Src/stm32h5xx_ll_usb.c ****       PCD_CLEAR_TX_DTOG(USBx, ep->num);
 1444              		.loc 1 434 7 discriminator 1 view .LVU477
 1445              	.LBB42:
 434:Drivers/STM32H5xx_HAL_Driver/Src/stm32h5xx_ll_usb.c ****       PCD_CLEAR_TX_DTOG(USBx, ep->num);
 1446              		.loc 1 434 7 discriminator 1 view .LVU478
ARM GAS  C:\Users\sapph\AppData\Local\Temp\cchEHrSS.s 			page 37


 434:Drivers/STM32H5xx_HAL_Driver/Src/stm32h5xx_ll_usb.c ****       PCD_CLEAR_TX_DTOG(USBx, ep->num);
 1447              		.loc 1 434 7 discriminator 1 view .LVU479
 1448 0114 50F82240 		ldr	r4, [r0, r2, lsl #2]
 1449 0118 1B4B     		ldr	r3, .L63
 1450              	.LVL160:
 434:Drivers/STM32H5xx_HAL_Driver/Src/stm32h5xx_ll_usb.c ****       PCD_CLEAR_TX_DTOG(USBx, ep->num);
 1451              		.loc 1 434 7 is_stmt 0 discriminator 1 view .LVU480
 1452 011a 2340     		ands	r3, r3, r4
 1453              	.LVL161:
 434:Drivers/STM32H5xx_HAL_Driver/Src/stm32h5xx_ll_usb.c ****       PCD_CLEAR_TX_DTOG(USBx, ep->num);
 1454              		.loc 1 434 7 is_stmt 1 discriminator 1 view .LVU481
 1455 011c 43F44043 		orr	r3, r3, #49152
 1456              	.LVL162:
 434:Drivers/STM32H5xx_HAL_Driver/Src/stm32h5xx_ll_usb.c ****       PCD_CLEAR_TX_DTOG(USBx, ep->num);
 1457              		.loc 1 434 7 is_stmt 0 discriminator 1 view .LVU482
 1458 0120 43F08003 		orr	r3, r3, #128
 1459 0124 40F82230 		str	r3, [r0, r2, lsl #2]
 1460              	.LVL163:
 1461              	.L60:
 434:Drivers/STM32H5xx_HAL_Driver/Src/stm32h5xx_ll_usb.c ****       PCD_CLEAR_TX_DTOG(USBx, ep->num);
 1462              		.loc 1 434 7 discriminator 1 view .LVU483
 1463              	.LBE42:
 434:Drivers/STM32H5xx_HAL_Driver/Src/stm32h5xx_ll_usb.c ****       PCD_CLEAR_TX_DTOG(USBx, ep->num);
 1464              		.loc 1 434 7 is_stmt 1 discriminator 3 view .LVU484
 1465              	.LBE41:
 434:Drivers/STM32H5xx_HAL_Driver/Src/stm32h5xx_ll_usb.c ****       PCD_CLEAR_TX_DTOG(USBx, ep->num);
 1466              		.loc 1 434 7 discriminator 3 view .LVU485
 435:Drivers/STM32H5xx_HAL_Driver/Src/stm32h5xx_ll_usb.c ****       PCD_RX_DTOG(USBx, ep->num);
 1467              		.loc 1 435 7 view .LVU486
 1468              	.LBB43:
 435:Drivers/STM32H5xx_HAL_Driver/Src/stm32h5xx_ll_usb.c ****       PCD_RX_DTOG(USBx, ep->num);
 1469              		.loc 1 435 7 view .LVU487
 435:Drivers/STM32H5xx_HAL_Driver/Src/stm32h5xx_ll_usb.c ****       PCD_RX_DTOG(USBx, ep->num);
 1470              		.loc 1 435 7 view .LVU488
 1471 0128 0A78     		ldrb	r2, [r1]	@ zero_extendqisi2
 1472 012a 50F82230 		ldr	r3, [r0, r2, lsl #2]
 1473              	.LVL164:
 435:Drivers/STM32H5xx_HAL_Driver/Src/stm32h5xx_ll_usb.c ****       PCD_RX_DTOG(USBx, ep->num);
 1474              		.loc 1 435 7 view .LVU489
 1475 012e 13F0400F 		tst	r3, #64
 1476 0132 09D0     		beq	.L61
 435:Drivers/STM32H5xx_HAL_Driver/Src/stm32h5xx_ll_usb.c ****       PCD_RX_DTOG(USBx, ep->num);
 1477              		.loc 1 435 7 discriminator 1 view .LVU490
 1478              	.LBB44:
 435:Drivers/STM32H5xx_HAL_Driver/Src/stm32h5xx_ll_usb.c ****       PCD_RX_DTOG(USBx, ep->num);
 1479              		.loc 1 435 7 discriminator 1 view .LVU491
 435:Drivers/STM32H5xx_HAL_Driver/Src/stm32h5xx_ll_usb.c ****       PCD_RX_DTOG(USBx, ep->num);
 1480              		.loc 1 435 7 discriminator 1 view .LVU492
 1481 0134 50F82240 		ldr	r4, [r0, r2, lsl #2]
 1482 0138 134B     		ldr	r3, .L63
 1483              	.LVL165:
 435:Drivers/STM32H5xx_HAL_Driver/Src/stm32h5xx_ll_usb.c ****       PCD_RX_DTOG(USBx, ep->num);
 1484              		.loc 1 435 7 is_stmt 0 discriminator 1 view .LVU493
 1485 013a 2340     		ands	r3, r3, r4
 1486              	.LVL166:
 435:Drivers/STM32H5xx_HAL_Driver/Src/stm32h5xx_ll_usb.c ****       PCD_RX_DTOG(USBx, ep->num);
 1487              		.loc 1 435 7 is_stmt 1 discriminator 1 view .LVU494
ARM GAS  C:\Users\sapph\AppData\Local\Temp\cchEHrSS.s 			page 38


 1488 013c 43F40043 		orr	r3, r3, #32768
 1489              	.LVL167:
 435:Drivers/STM32H5xx_HAL_Driver/Src/stm32h5xx_ll_usb.c ****       PCD_RX_DTOG(USBx, ep->num);
 1490              		.loc 1 435 7 is_stmt 0 discriminator 1 view .LVU495
 1491 0140 43F0C003 		orr	r3, r3, #192
 1492 0144 40F82230 		str	r3, [r0, r2, lsl #2]
 1493              	.LVL168:
 1494              	.L61:
 435:Drivers/STM32H5xx_HAL_Driver/Src/stm32h5xx_ll_usb.c ****       PCD_RX_DTOG(USBx, ep->num);
 1495              		.loc 1 435 7 discriminator 1 view .LVU496
 1496              	.LBE44:
 435:Drivers/STM32H5xx_HAL_Driver/Src/stm32h5xx_ll_usb.c ****       PCD_RX_DTOG(USBx, ep->num);
 1497              		.loc 1 435 7 is_stmt 1 discriminator 3 view .LVU497
 1498              	.LBE43:
 435:Drivers/STM32H5xx_HAL_Driver/Src/stm32h5xx_ll_usb.c ****       PCD_RX_DTOG(USBx, ep->num);
 1499              		.loc 1 435 7 discriminator 3 view .LVU498
 436:Drivers/STM32H5xx_HAL_Driver/Src/stm32h5xx_ll_usb.c **** 
 1500              		.loc 1 436 7 view .LVU499
 1501              	.LBB45:
 436:Drivers/STM32H5xx_HAL_Driver/Src/stm32h5xx_ll_usb.c **** 
 1502              		.loc 1 436 7 view .LVU500
 436:Drivers/STM32H5xx_HAL_Driver/Src/stm32h5xx_ll_usb.c **** 
 1503              		.loc 1 436 7 view .LVU501
 1504 0148 0A78     		ldrb	r2, [r1]	@ zero_extendqisi2
 1505 014a 50F82240 		ldr	r4, [r0, r2, lsl #2]
 1506 014e 0E4B     		ldr	r3, .L63
 1507 0150 2340     		ands	r3, r3, r4
 1508              	.LVL169:
 436:Drivers/STM32H5xx_HAL_Driver/Src/stm32h5xx_ll_usb.c **** 
 1509              		.loc 1 436 7 view .LVU502
 1510 0152 43F44043 		orr	r3, r3, #49152
 1511              	.LVL170:
 436:Drivers/STM32H5xx_HAL_Driver/Src/stm32h5xx_ll_usb.c **** 
 1512              		.loc 1 436 7 is_stmt 0 view .LVU503
 1513 0156 43F08003 		orr	r3, r3, #128
 1514 015a 40F82230 		str	r3, [r0, r2, lsl #2]
 1515              	.LBE45:
 436:Drivers/STM32H5xx_HAL_Driver/Src/stm32h5xx_ll_usb.c **** 
 1516              		.loc 1 436 7 is_stmt 1 view .LVU504
 439:Drivers/STM32H5xx_HAL_Driver/Src/stm32h5xx_ll_usb.c ****       PCD_SET_EP_RX_STATUS(USBx, ep->num, USB_EP_RX_DIS);
 1517              		.loc 1 439 7 view .LVU505
 1518              	.LBB46:
 439:Drivers/STM32H5xx_HAL_Driver/Src/stm32h5xx_ll_usb.c ****       PCD_SET_EP_RX_STATUS(USBx, ep->num, USB_EP_RX_DIS);
 1519              		.loc 1 439 7 view .LVU506
 439:Drivers/STM32H5xx_HAL_Driver/Src/stm32h5xx_ll_usb.c ****       PCD_SET_EP_RX_STATUS(USBx, ep->num, USB_EP_RX_DIS);
 1520              		.loc 1 439 7 view .LVU507
 1521 015e 0A78     		ldrb	r2, [r1]	@ zero_extendqisi2
 1522 0160 50F82240 		ldr	r4, [r0, r2, lsl #2]
 1523              	.LVL171:
 439:Drivers/STM32H5xx_HAL_Driver/Src/stm32h5xx_ll_usb.c ****       PCD_SET_EP_RX_STATUS(USBx, ep->num, USB_EP_RX_DIS);
 1524              		.loc 1 439 7 is_stmt 0 view .LVU508
 1525 0164 094B     		ldr	r3, .L63+4
 1526 0166 2340     		ands	r3, r3, r4
 1527              	.LVL172:
 439:Drivers/STM32H5xx_HAL_Driver/Src/stm32h5xx_ll_usb.c ****       PCD_SET_EP_RX_STATUS(USBx, ep->num, USB_EP_RX_DIS);
 1528              		.loc 1 439 7 is_stmt 1 view .LVU509
 439:Drivers/STM32H5xx_HAL_Driver/Src/stm32h5xx_ll_usb.c ****       PCD_SET_EP_RX_STATUS(USBx, ep->num, USB_EP_RX_DIS);
ARM GAS  C:\Users\sapph\AppData\Local\Temp\cchEHrSS.s 			page 39


 1529              		.loc 1 439 7 discriminator 3 view .LVU510
 439:Drivers/STM32H5xx_HAL_Driver/Src/stm32h5xx_ll_usb.c ****       PCD_SET_EP_RX_STATUS(USBx, ep->num, USB_EP_RX_DIS);
 1530              		.loc 1 439 7 discriminator 6 view .LVU511
 1531 0168 48F2800C 		movw	ip, #32896
 1532 016c 43EA0C03 		orr	r3, r3, ip
 1533              	.LVL173:
 439:Drivers/STM32H5xx_HAL_Driver/Src/stm32h5xx_ll_usb.c ****       PCD_SET_EP_RX_STATUS(USBx, ep->num, USB_EP_RX_DIS);
 1534              		.loc 1 439 7 is_stmt 0 discriminator 6 view .LVU512
 1535 0170 40F82230 		str	r3, [r0, r2, lsl #2]
 1536              	.LBE46:
 439:Drivers/STM32H5xx_HAL_Driver/Src/stm32h5xx_ll_usb.c ****       PCD_SET_EP_RX_STATUS(USBx, ep->num, USB_EP_RX_DIS);
 1537              		.loc 1 439 7 is_stmt 1 discriminator 6 view .LVU513
 440:Drivers/STM32H5xx_HAL_Driver/Src/stm32h5xx_ll_usb.c ****     }
 1538              		.loc 1 440 7 view .LVU514
 1539              	.LBB47:
 440:Drivers/STM32H5xx_HAL_Driver/Src/stm32h5xx_ll_usb.c ****     }
 1540              		.loc 1 440 7 view .LVU515
 440:Drivers/STM32H5xx_HAL_Driver/Src/stm32h5xx_ll_usb.c ****     }
 1541              		.loc 1 440 7 view .LVU516
 1542 0174 0A78     		ldrb	r2, [r1]	@ zero_extendqisi2
 1543 0176 50F82210 		ldr	r1, [r0, r2, lsl #2]
 1544              	.LVL174:
 440:Drivers/STM32H5xx_HAL_Driver/Src/stm32h5xx_ll_usb.c ****     }
 1545              		.loc 1 440 7 is_stmt 0 view .LVU517
 1546 017a 054B     		ldr	r3, .L63+8
 1547 017c 0B40     		ands	r3, r3, r1
 1548              	.LVL175:
 440:Drivers/STM32H5xx_HAL_Driver/Src/stm32h5xx_ll_usb.c ****     }
 1549              		.loc 1 440 7 is_stmt 1 view .LVU518
 440:Drivers/STM32H5xx_HAL_Driver/Src/stm32h5xx_ll_usb.c ****     }
 1550              		.loc 1 440 7 discriminator 3 view .LVU519
 440:Drivers/STM32H5xx_HAL_Driver/Src/stm32h5xx_ll_usb.c ****     }
 1551              		.loc 1 440 7 discriminator 6 view .LVU520
 1552 017e 43EA0C03 		orr	r3, r3, ip
 1553              	.LVL176:
 440:Drivers/STM32H5xx_HAL_Driver/Src/stm32h5xx_ll_usb.c ****     }
 1554              		.loc 1 440 7 is_stmt 0 discriminator 6 view .LVU521
 1555 0182 40F82230 		str	r3, [r0, r2, lsl #2]
 1556 0186 5CE7     		b	.L55
 1557              	.L64:
 1558              		.align	2
 1559              	.L63:
 1560 0188 8F8FFF07 		.word	134188943
 1561 018c BF8FFF07 		.word	134188991
 1562 0190 8FBFFF07 		.word	134201231
 1563              	.LBE47:
 1564              		.cfi_endproc
 1565              	.LFE169:
 1567              		.section	.text.USB_EPSetStall,"ax",%progbits
 1568              		.align	1
 1569              		.global	USB_EPSetStall
 1570              		.syntax unified
 1571              		.thumb
 1572              		.thumb_func
 1574              	USB_EPSetStall:
 1575              	.LVL177:
 1576              	.LFB171:
ARM GAS  C:\Users\sapph\AppData\Local\Temp\cchEHrSS.s 			page 40


 447:Drivers/STM32H5xx_HAL_Driver/Src/stm32h5xx_ll_usb.c **** 
 448:Drivers/STM32H5xx_HAL_Driver/Src/stm32h5xx_ll_usb.c **** /**
 449:Drivers/STM32H5xx_HAL_Driver/Src/stm32h5xx_ll_usb.c ****   * @brief  USB_EPStartXfer setup and starts a transfer over an EP
 450:Drivers/STM32H5xx_HAL_Driver/Src/stm32h5xx_ll_usb.c ****   * @param  USBx Selected device
 451:Drivers/STM32H5xx_HAL_Driver/Src/stm32h5xx_ll_usb.c ****   * @param  ep pointer to endpoint structure
 452:Drivers/STM32H5xx_HAL_Driver/Src/stm32h5xx_ll_usb.c ****   * @retval HAL status
 453:Drivers/STM32H5xx_HAL_Driver/Src/stm32h5xx_ll_usb.c ****   */
 454:Drivers/STM32H5xx_HAL_Driver/Src/stm32h5xx_ll_usb.c **** HAL_StatusTypeDef USB_EPStartXfer(USB_DRD_TypeDef *USBx, USB_DRD_EPTypeDef *ep)
 455:Drivers/STM32H5xx_HAL_Driver/Src/stm32h5xx_ll_usb.c **** {
 456:Drivers/STM32H5xx_HAL_Driver/Src/stm32h5xx_ll_usb.c ****   uint32_t len;
 457:Drivers/STM32H5xx_HAL_Driver/Src/stm32h5xx_ll_usb.c **** #if (USE_USB_DOUBLE_BUFFER == 1U)
 458:Drivers/STM32H5xx_HAL_Driver/Src/stm32h5xx_ll_usb.c ****   uint16_t pmabuffer;
 459:Drivers/STM32H5xx_HAL_Driver/Src/stm32h5xx_ll_usb.c ****   uint16_t wEPVal;
 460:Drivers/STM32H5xx_HAL_Driver/Src/stm32h5xx_ll_usb.c **** #endif /* (USE_USB_DOUBLE_BUFFER == 1U) */
 461:Drivers/STM32H5xx_HAL_Driver/Src/stm32h5xx_ll_usb.c **** 
 462:Drivers/STM32H5xx_HAL_Driver/Src/stm32h5xx_ll_usb.c ****   /* IN endpoint */
 463:Drivers/STM32H5xx_HAL_Driver/Src/stm32h5xx_ll_usb.c ****   if (ep->is_in == 1U)
 464:Drivers/STM32H5xx_HAL_Driver/Src/stm32h5xx_ll_usb.c ****   {
 465:Drivers/STM32H5xx_HAL_Driver/Src/stm32h5xx_ll_usb.c ****     /*Multi packet transfer*/
 466:Drivers/STM32H5xx_HAL_Driver/Src/stm32h5xx_ll_usb.c ****     if (ep->xfer_len > ep->maxpacket)
 467:Drivers/STM32H5xx_HAL_Driver/Src/stm32h5xx_ll_usb.c ****     {
 468:Drivers/STM32H5xx_HAL_Driver/Src/stm32h5xx_ll_usb.c ****       len = ep->maxpacket;
 469:Drivers/STM32H5xx_HAL_Driver/Src/stm32h5xx_ll_usb.c ****     }
 470:Drivers/STM32H5xx_HAL_Driver/Src/stm32h5xx_ll_usb.c ****     else
 471:Drivers/STM32H5xx_HAL_Driver/Src/stm32h5xx_ll_usb.c ****     {
 472:Drivers/STM32H5xx_HAL_Driver/Src/stm32h5xx_ll_usb.c ****       len = ep->xfer_len;
 473:Drivers/STM32H5xx_HAL_Driver/Src/stm32h5xx_ll_usb.c ****     }
 474:Drivers/STM32H5xx_HAL_Driver/Src/stm32h5xx_ll_usb.c **** 
 475:Drivers/STM32H5xx_HAL_Driver/Src/stm32h5xx_ll_usb.c ****     /* configure and validate Tx endpoint */
 476:Drivers/STM32H5xx_HAL_Driver/Src/stm32h5xx_ll_usb.c ****     if (ep->doublebuffer == 0U)
 477:Drivers/STM32H5xx_HAL_Driver/Src/stm32h5xx_ll_usb.c ****     {
 478:Drivers/STM32H5xx_HAL_Driver/Src/stm32h5xx_ll_usb.c ****       USB_WritePMA(USBx, ep->xfer_buff, ep->pmaadress, (uint16_t)len);
 479:Drivers/STM32H5xx_HAL_Driver/Src/stm32h5xx_ll_usb.c ****       PCD_SET_EP_TX_CNT(USBx, ep->num, len);
 480:Drivers/STM32H5xx_HAL_Driver/Src/stm32h5xx_ll_usb.c ****     }
 481:Drivers/STM32H5xx_HAL_Driver/Src/stm32h5xx_ll_usb.c **** #if (USE_USB_DOUBLE_BUFFER == 1U)
 482:Drivers/STM32H5xx_HAL_Driver/Src/stm32h5xx_ll_usb.c ****     else
 483:Drivers/STM32H5xx_HAL_Driver/Src/stm32h5xx_ll_usb.c ****     {
 484:Drivers/STM32H5xx_HAL_Driver/Src/stm32h5xx_ll_usb.c ****       /* double buffer bulk management */
 485:Drivers/STM32H5xx_HAL_Driver/Src/stm32h5xx_ll_usb.c ****       if (ep->type == EP_TYPE_BULK)
 486:Drivers/STM32H5xx_HAL_Driver/Src/stm32h5xx_ll_usb.c ****       {
 487:Drivers/STM32H5xx_HAL_Driver/Src/stm32h5xx_ll_usb.c ****         if (ep->xfer_len_db > ep->maxpacket)
 488:Drivers/STM32H5xx_HAL_Driver/Src/stm32h5xx_ll_usb.c ****         {
 489:Drivers/STM32H5xx_HAL_Driver/Src/stm32h5xx_ll_usb.c ****           /* enable double buffer */
 490:Drivers/STM32H5xx_HAL_Driver/Src/stm32h5xx_ll_usb.c ****           PCD_SET_BULK_EP_DBUF(USBx, ep->num);
 491:Drivers/STM32H5xx_HAL_Driver/Src/stm32h5xx_ll_usb.c **** 
 492:Drivers/STM32H5xx_HAL_Driver/Src/stm32h5xx_ll_usb.c ****           /* each Time to write in PMA xfer_len_db will */
 493:Drivers/STM32H5xx_HAL_Driver/Src/stm32h5xx_ll_usb.c ****           ep->xfer_len_db -= len;
 494:Drivers/STM32H5xx_HAL_Driver/Src/stm32h5xx_ll_usb.c **** 
 495:Drivers/STM32H5xx_HAL_Driver/Src/stm32h5xx_ll_usb.c ****           /* Fill the two first buffer in the Buffer0 & Buffer1 */
 496:Drivers/STM32H5xx_HAL_Driver/Src/stm32h5xx_ll_usb.c ****           if ((PCD_GET_ENDPOINT(USBx, ep->num) & USB_EP_DTOG_TX) != 0U)
 497:Drivers/STM32H5xx_HAL_Driver/Src/stm32h5xx_ll_usb.c ****           {
 498:Drivers/STM32H5xx_HAL_Driver/Src/stm32h5xx_ll_usb.c ****             /* Set the Double buffer counter for pmabuffer1 */
 499:Drivers/STM32H5xx_HAL_Driver/Src/stm32h5xx_ll_usb.c ****             PCD_SET_EP_DBUF1_CNT(USBx, ep->num, ep->is_in, len);
 500:Drivers/STM32H5xx_HAL_Driver/Src/stm32h5xx_ll_usb.c ****             pmabuffer = ep->pmaaddr1;
 501:Drivers/STM32H5xx_HAL_Driver/Src/stm32h5xx_ll_usb.c **** 
 502:Drivers/STM32H5xx_HAL_Driver/Src/stm32h5xx_ll_usb.c ****             /* Write the user buffer to USB PMA */
 503:Drivers/STM32H5xx_HAL_Driver/Src/stm32h5xx_ll_usb.c ****             USB_WritePMA(USBx, ep->xfer_buff, pmabuffer, (uint16_t)len);
ARM GAS  C:\Users\sapph\AppData\Local\Temp\cchEHrSS.s 			page 41


 504:Drivers/STM32H5xx_HAL_Driver/Src/stm32h5xx_ll_usb.c ****             ep->xfer_buff += len;
 505:Drivers/STM32H5xx_HAL_Driver/Src/stm32h5xx_ll_usb.c **** 
 506:Drivers/STM32H5xx_HAL_Driver/Src/stm32h5xx_ll_usb.c ****             if (ep->xfer_len_db > ep->maxpacket)
 507:Drivers/STM32H5xx_HAL_Driver/Src/stm32h5xx_ll_usb.c ****             {
 508:Drivers/STM32H5xx_HAL_Driver/Src/stm32h5xx_ll_usb.c ****               ep->xfer_len_db -= len;
 509:Drivers/STM32H5xx_HAL_Driver/Src/stm32h5xx_ll_usb.c ****             }
 510:Drivers/STM32H5xx_HAL_Driver/Src/stm32h5xx_ll_usb.c ****             else
 511:Drivers/STM32H5xx_HAL_Driver/Src/stm32h5xx_ll_usb.c ****             {
 512:Drivers/STM32H5xx_HAL_Driver/Src/stm32h5xx_ll_usb.c ****               len = ep->xfer_len_db;
 513:Drivers/STM32H5xx_HAL_Driver/Src/stm32h5xx_ll_usb.c ****               ep->xfer_len_db = 0U;
 514:Drivers/STM32H5xx_HAL_Driver/Src/stm32h5xx_ll_usb.c ****             }
 515:Drivers/STM32H5xx_HAL_Driver/Src/stm32h5xx_ll_usb.c **** 
 516:Drivers/STM32H5xx_HAL_Driver/Src/stm32h5xx_ll_usb.c ****             /* Set the Double buffer counter for pmabuffer0 */
 517:Drivers/STM32H5xx_HAL_Driver/Src/stm32h5xx_ll_usb.c ****             PCD_SET_EP_DBUF0_CNT(USBx, ep->num, ep->is_in, len);
 518:Drivers/STM32H5xx_HAL_Driver/Src/stm32h5xx_ll_usb.c ****             pmabuffer = ep->pmaaddr0;
 519:Drivers/STM32H5xx_HAL_Driver/Src/stm32h5xx_ll_usb.c **** 
 520:Drivers/STM32H5xx_HAL_Driver/Src/stm32h5xx_ll_usb.c ****             /* Write the user buffer to USB PMA */
 521:Drivers/STM32H5xx_HAL_Driver/Src/stm32h5xx_ll_usb.c ****             USB_WritePMA(USBx, ep->xfer_buff, pmabuffer, (uint16_t)len);
 522:Drivers/STM32H5xx_HAL_Driver/Src/stm32h5xx_ll_usb.c ****           }
 523:Drivers/STM32H5xx_HAL_Driver/Src/stm32h5xx_ll_usb.c ****           else
 524:Drivers/STM32H5xx_HAL_Driver/Src/stm32h5xx_ll_usb.c ****           {
 525:Drivers/STM32H5xx_HAL_Driver/Src/stm32h5xx_ll_usb.c ****             /* Set the Double buffer counter for pmabuffer0 */
 526:Drivers/STM32H5xx_HAL_Driver/Src/stm32h5xx_ll_usb.c ****             PCD_SET_EP_DBUF0_CNT(USBx, ep->num, ep->is_in, len);
 527:Drivers/STM32H5xx_HAL_Driver/Src/stm32h5xx_ll_usb.c ****             pmabuffer = ep->pmaaddr0;
 528:Drivers/STM32H5xx_HAL_Driver/Src/stm32h5xx_ll_usb.c **** 
 529:Drivers/STM32H5xx_HAL_Driver/Src/stm32h5xx_ll_usb.c ****             /* Write the user buffer to USB PMA */
 530:Drivers/STM32H5xx_HAL_Driver/Src/stm32h5xx_ll_usb.c ****             USB_WritePMA(USBx, ep->xfer_buff, pmabuffer, (uint16_t)len);
 531:Drivers/STM32H5xx_HAL_Driver/Src/stm32h5xx_ll_usb.c ****             ep->xfer_buff += len;
 532:Drivers/STM32H5xx_HAL_Driver/Src/stm32h5xx_ll_usb.c **** 
 533:Drivers/STM32H5xx_HAL_Driver/Src/stm32h5xx_ll_usb.c ****             if (ep->xfer_len_db > ep->maxpacket)
 534:Drivers/STM32H5xx_HAL_Driver/Src/stm32h5xx_ll_usb.c ****             {
 535:Drivers/STM32H5xx_HAL_Driver/Src/stm32h5xx_ll_usb.c ****               ep->xfer_len_db -= len;
 536:Drivers/STM32H5xx_HAL_Driver/Src/stm32h5xx_ll_usb.c ****             }
 537:Drivers/STM32H5xx_HAL_Driver/Src/stm32h5xx_ll_usb.c ****             else
 538:Drivers/STM32H5xx_HAL_Driver/Src/stm32h5xx_ll_usb.c ****             {
 539:Drivers/STM32H5xx_HAL_Driver/Src/stm32h5xx_ll_usb.c ****               len = ep->xfer_len_db;
 540:Drivers/STM32H5xx_HAL_Driver/Src/stm32h5xx_ll_usb.c ****               ep->xfer_len_db = 0U;
 541:Drivers/STM32H5xx_HAL_Driver/Src/stm32h5xx_ll_usb.c ****             }
 542:Drivers/STM32H5xx_HAL_Driver/Src/stm32h5xx_ll_usb.c **** 
 543:Drivers/STM32H5xx_HAL_Driver/Src/stm32h5xx_ll_usb.c ****             /* Set the Double buffer counter for pmabuffer1 */
 544:Drivers/STM32H5xx_HAL_Driver/Src/stm32h5xx_ll_usb.c ****             PCD_SET_EP_DBUF1_CNT(USBx, ep->num, ep->is_in, len);
 545:Drivers/STM32H5xx_HAL_Driver/Src/stm32h5xx_ll_usb.c ****             pmabuffer = ep->pmaaddr1;
 546:Drivers/STM32H5xx_HAL_Driver/Src/stm32h5xx_ll_usb.c **** 
 547:Drivers/STM32H5xx_HAL_Driver/Src/stm32h5xx_ll_usb.c ****             /* Write the user buffer to USB PMA */
 548:Drivers/STM32H5xx_HAL_Driver/Src/stm32h5xx_ll_usb.c ****             USB_WritePMA(USBx, ep->xfer_buff, pmabuffer, (uint16_t)len);
 549:Drivers/STM32H5xx_HAL_Driver/Src/stm32h5xx_ll_usb.c ****           }
 550:Drivers/STM32H5xx_HAL_Driver/Src/stm32h5xx_ll_usb.c ****         }
 551:Drivers/STM32H5xx_HAL_Driver/Src/stm32h5xx_ll_usb.c ****         /* auto Switch to single buffer mode when transfer <Mps no need to manage in double buffer 
 552:Drivers/STM32H5xx_HAL_Driver/Src/stm32h5xx_ll_usb.c ****         else
 553:Drivers/STM32H5xx_HAL_Driver/Src/stm32h5xx_ll_usb.c ****         {
 554:Drivers/STM32H5xx_HAL_Driver/Src/stm32h5xx_ll_usb.c ****           len = ep->xfer_len_db;
 555:Drivers/STM32H5xx_HAL_Driver/Src/stm32h5xx_ll_usb.c **** 
 556:Drivers/STM32H5xx_HAL_Driver/Src/stm32h5xx_ll_usb.c ****           /* disable double buffer mode for Bulk endpoint */
 557:Drivers/STM32H5xx_HAL_Driver/Src/stm32h5xx_ll_usb.c ****           PCD_CLEAR_BULK_EP_DBUF(USBx, ep->num);
 558:Drivers/STM32H5xx_HAL_Driver/Src/stm32h5xx_ll_usb.c **** 
 559:Drivers/STM32H5xx_HAL_Driver/Src/stm32h5xx_ll_usb.c ****           /* Set Tx count with nbre of byte to be transmitted */
 560:Drivers/STM32H5xx_HAL_Driver/Src/stm32h5xx_ll_usb.c ****           PCD_SET_EP_TX_CNT(USBx, ep->num, len);
ARM GAS  C:\Users\sapph\AppData\Local\Temp\cchEHrSS.s 			page 42


 561:Drivers/STM32H5xx_HAL_Driver/Src/stm32h5xx_ll_usb.c ****           pmabuffer = ep->pmaaddr0;
 562:Drivers/STM32H5xx_HAL_Driver/Src/stm32h5xx_ll_usb.c **** 
 563:Drivers/STM32H5xx_HAL_Driver/Src/stm32h5xx_ll_usb.c ****           /* Write the user buffer to USB PMA */
 564:Drivers/STM32H5xx_HAL_Driver/Src/stm32h5xx_ll_usb.c ****           USB_WritePMA(USBx, ep->xfer_buff, pmabuffer, (uint16_t)len);
 565:Drivers/STM32H5xx_HAL_Driver/Src/stm32h5xx_ll_usb.c ****         }
 566:Drivers/STM32H5xx_HAL_Driver/Src/stm32h5xx_ll_usb.c ****       }
 567:Drivers/STM32H5xx_HAL_Driver/Src/stm32h5xx_ll_usb.c ****       else /* manage isochronous double buffer IN mode */
 568:Drivers/STM32H5xx_HAL_Driver/Src/stm32h5xx_ll_usb.c ****       {
 569:Drivers/STM32H5xx_HAL_Driver/Src/stm32h5xx_ll_usb.c ****         /* each Time to write in PMA xfer_len_db will */
 570:Drivers/STM32H5xx_HAL_Driver/Src/stm32h5xx_ll_usb.c ****         ep->xfer_len_db -= len;
 571:Drivers/STM32H5xx_HAL_Driver/Src/stm32h5xx_ll_usb.c **** 
 572:Drivers/STM32H5xx_HAL_Driver/Src/stm32h5xx_ll_usb.c ****         /* Fill the data buffer */
 573:Drivers/STM32H5xx_HAL_Driver/Src/stm32h5xx_ll_usb.c ****         if ((PCD_GET_ENDPOINT(USBx, ep->num) & USB_EP_DTOG_TX) != 0U)
 574:Drivers/STM32H5xx_HAL_Driver/Src/stm32h5xx_ll_usb.c ****         {
 575:Drivers/STM32H5xx_HAL_Driver/Src/stm32h5xx_ll_usb.c ****           /* Set the Double buffer counter for pmabuffer1 */
 576:Drivers/STM32H5xx_HAL_Driver/Src/stm32h5xx_ll_usb.c ****           PCD_SET_EP_DBUF1_CNT(USBx, ep->num, ep->is_in, len);
 577:Drivers/STM32H5xx_HAL_Driver/Src/stm32h5xx_ll_usb.c ****           pmabuffer = ep->pmaaddr1;
 578:Drivers/STM32H5xx_HAL_Driver/Src/stm32h5xx_ll_usb.c **** 
 579:Drivers/STM32H5xx_HAL_Driver/Src/stm32h5xx_ll_usb.c ****           /* Write the user buffer to USB PMA */
 580:Drivers/STM32H5xx_HAL_Driver/Src/stm32h5xx_ll_usb.c ****           USB_WritePMA(USBx, ep->xfer_buff, pmabuffer, (uint16_t)len);
 581:Drivers/STM32H5xx_HAL_Driver/Src/stm32h5xx_ll_usb.c ****         }
 582:Drivers/STM32H5xx_HAL_Driver/Src/stm32h5xx_ll_usb.c ****         else
 583:Drivers/STM32H5xx_HAL_Driver/Src/stm32h5xx_ll_usb.c ****         {
 584:Drivers/STM32H5xx_HAL_Driver/Src/stm32h5xx_ll_usb.c ****           /* Set the Double buffer counter for pmabuffer0 */
 585:Drivers/STM32H5xx_HAL_Driver/Src/stm32h5xx_ll_usb.c ****           PCD_SET_EP_DBUF0_CNT(USBx, ep->num, ep->is_in, len);
 586:Drivers/STM32H5xx_HAL_Driver/Src/stm32h5xx_ll_usb.c ****           pmabuffer = ep->pmaaddr0;
 587:Drivers/STM32H5xx_HAL_Driver/Src/stm32h5xx_ll_usb.c **** 
 588:Drivers/STM32H5xx_HAL_Driver/Src/stm32h5xx_ll_usb.c ****           /* Write the user buffer to USB PMA */
 589:Drivers/STM32H5xx_HAL_Driver/Src/stm32h5xx_ll_usb.c ****           USB_WritePMA(USBx, ep->xfer_buff, pmabuffer, (uint16_t)len);
 590:Drivers/STM32H5xx_HAL_Driver/Src/stm32h5xx_ll_usb.c ****         }
 591:Drivers/STM32H5xx_HAL_Driver/Src/stm32h5xx_ll_usb.c ****       }
 592:Drivers/STM32H5xx_HAL_Driver/Src/stm32h5xx_ll_usb.c ****     }
 593:Drivers/STM32H5xx_HAL_Driver/Src/stm32h5xx_ll_usb.c **** #endif /* (USE_USB_DOUBLE_BUFFER == 1U) */
 594:Drivers/STM32H5xx_HAL_Driver/Src/stm32h5xx_ll_usb.c **** 
 595:Drivers/STM32H5xx_HAL_Driver/Src/stm32h5xx_ll_usb.c ****     PCD_SET_EP_TX_STATUS(USBx, ep->num, USB_EP_TX_VALID);
 596:Drivers/STM32H5xx_HAL_Driver/Src/stm32h5xx_ll_usb.c ****   }
 597:Drivers/STM32H5xx_HAL_Driver/Src/stm32h5xx_ll_usb.c ****   else /* OUT endpoint */
 598:Drivers/STM32H5xx_HAL_Driver/Src/stm32h5xx_ll_usb.c ****   {
 599:Drivers/STM32H5xx_HAL_Driver/Src/stm32h5xx_ll_usb.c ****     if (ep->doublebuffer == 0U)
 600:Drivers/STM32H5xx_HAL_Driver/Src/stm32h5xx_ll_usb.c ****     {
 601:Drivers/STM32H5xx_HAL_Driver/Src/stm32h5xx_ll_usb.c ****       /* Multi packet transfer */
 602:Drivers/STM32H5xx_HAL_Driver/Src/stm32h5xx_ll_usb.c ****       if (ep->xfer_len > ep->maxpacket)
 603:Drivers/STM32H5xx_HAL_Driver/Src/stm32h5xx_ll_usb.c ****       {
 604:Drivers/STM32H5xx_HAL_Driver/Src/stm32h5xx_ll_usb.c ****         len = ep->maxpacket;
 605:Drivers/STM32H5xx_HAL_Driver/Src/stm32h5xx_ll_usb.c ****         ep->xfer_len -= len;
 606:Drivers/STM32H5xx_HAL_Driver/Src/stm32h5xx_ll_usb.c ****       }
 607:Drivers/STM32H5xx_HAL_Driver/Src/stm32h5xx_ll_usb.c ****       else
 608:Drivers/STM32H5xx_HAL_Driver/Src/stm32h5xx_ll_usb.c ****       {
 609:Drivers/STM32H5xx_HAL_Driver/Src/stm32h5xx_ll_usb.c ****         len = ep->xfer_len;
 610:Drivers/STM32H5xx_HAL_Driver/Src/stm32h5xx_ll_usb.c ****         ep->xfer_len = 0U;
 611:Drivers/STM32H5xx_HAL_Driver/Src/stm32h5xx_ll_usb.c ****       }
 612:Drivers/STM32H5xx_HAL_Driver/Src/stm32h5xx_ll_usb.c ****       /* configure and validate Rx endpoint */
 613:Drivers/STM32H5xx_HAL_Driver/Src/stm32h5xx_ll_usb.c ****       PCD_SET_EP_RX_CNT(USBx, ep->num, len);
 614:Drivers/STM32H5xx_HAL_Driver/Src/stm32h5xx_ll_usb.c ****     }
 615:Drivers/STM32H5xx_HAL_Driver/Src/stm32h5xx_ll_usb.c **** #if (USE_USB_DOUBLE_BUFFER == 1U)
 616:Drivers/STM32H5xx_HAL_Driver/Src/stm32h5xx_ll_usb.c ****     else
 617:Drivers/STM32H5xx_HAL_Driver/Src/stm32h5xx_ll_usb.c ****     {
ARM GAS  C:\Users\sapph\AppData\Local\Temp\cchEHrSS.s 			page 43


 618:Drivers/STM32H5xx_HAL_Driver/Src/stm32h5xx_ll_usb.c ****       /* First Transfer Coming From HAL_PCD_EP_Receive & From ISR */
 619:Drivers/STM32H5xx_HAL_Driver/Src/stm32h5xx_ll_usb.c ****       /* Set the Double buffer counter */
 620:Drivers/STM32H5xx_HAL_Driver/Src/stm32h5xx_ll_usb.c ****       if (ep->type == EP_TYPE_BULK)
 621:Drivers/STM32H5xx_HAL_Driver/Src/stm32h5xx_ll_usb.c ****       {
 622:Drivers/STM32H5xx_HAL_Driver/Src/stm32h5xx_ll_usb.c ****         PCD_SET_EP_DBUF_CNT(USBx, ep->num, ep->is_in, ep->maxpacket);
 623:Drivers/STM32H5xx_HAL_Driver/Src/stm32h5xx_ll_usb.c **** 
 624:Drivers/STM32H5xx_HAL_Driver/Src/stm32h5xx_ll_usb.c ****         /* Coming from ISR */
 625:Drivers/STM32H5xx_HAL_Driver/Src/stm32h5xx_ll_usb.c ****         if (ep->xfer_count != 0U)
 626:Drivers/STM32H5xx_HAL_Driver/Src/stm32h5xx_ll_usb.c ****         {
 627:Drivers/STM32H5xx_HAL_Driver/Src/stm32h5xx_ll_usb.c ****           /* update last value to check if there is blocking state */
 628:Drivers/STM32H5xx_HAL_Driver/Src/stm32h5xx_ll_usb.c ****           wEPVal = (uint16_t)PCD_GET_ENDPOINT(USBx, ep->num);
 629:Drivers/STM32H5xx_HAL_Driver/Src/stm32h5xx_ll_usb.c **** 
 630:Drivers/STM32H5xx_HAL_Driver/Src/stm32h5xx_ll_usb.c ****           /*Blocking State */
 631:Drivers/STM32H5xx_HAL_Driver/Src/stm32h5xx_ll_usb.c ****           if ((((wEPVal & USB_EP_DTOG_RX) != 0U) && ((wEPVal & USB_EP_DTOG_TX) != 0U)) ||
 632:Drivers/STM32H5xx_HAL_Driver/Src/stm32h5xx_ll_usb.c ****               (((wEPVal & USB_EP_DTOG_RX) == 0U) && ((wEPVal & USB_EP_DTOG_TX) == 0U)))
 633:Drivers/STM32H5xx_HAL_Driver/Src/stm32h5xx_ll_usb.c ****           {
 634:Drivers/STM32H5xx_HAL_Driver/Src/stm32h5xx_ll_usb.c ****             PCD_FREE_USER_BUFFER(USBx, ep->num, 0U);
 635:Drivers/STM32H5xx_HAL_Driver/Src/stm32h5xx_ll_usb.c ****           }
 636:Drivers/STM32H5xx_HAL_Driver/Src/stm32h5xx_ll_usb.c ****         }
 637:Drivers/STM32H5xx_HAL_Driver/Src/stm32h5xx_ll_usb.c ****       }
 638:Drivers/STM32H5xx_HAL_Driver/Src/stm32h5xx_ll_usb.c ****       /* iso out double */
 639:Drivers/STM32H5xx_HAL_Driver/Src/stm32h5xx_ll_usb.c ****       else if (ep->type == EP_TYPE_ISOC)
 640:Drivers/STM32H5xx_HAL_Driver/Src/stm32h5xx_ll_usb.c ****       {
 641:Drivers/STM32H5xx_HAL_Driver/Src/stm32h5xx_ll_usb.c ****         /* Multi packet transfer */
 642:Drivers/STM32H5xx_HAL_Driver/Src/stm32h5xx_ll_usb.c ****         if (ep->xfer_len > ep->maxpacket)
 643:Drivers/STM32H5xx_HAL_Driver/Src/stm32h5xx_ll_usb.c ****         {
 644:Drivers/STM32H5xx_HAL_Driver/Src/stm32h5xx_ll_usb.c ****           len = ep->maxpacket;
 645:Drivers/STM32H5xx_HAL_Driver/Src/stm32h5xx_ll_usb.c ****           ep->xfer_len -= len;
 646:Drivers/STM32H5xx_HAL_Driver/Src/stm32h5xx_ll_usb.c ****         }
 647:Drivers/STM32H5xx_HAL_Driver/Src/stm32h5xx_ll_usb.c ****         else
 648:Drivers/STM32H5xx_HAL_Driver/Src/stm32h5xx_ll_usb.c ****         {
 649:Drivers/STM32H5xx_HAL_Driver/Src/stm32h5xx_ll_usb.c ****           len = ep->xfer_len;
 650:Drivers/STM32H5xx_HAL_Driver/Src/stm32h5xx_ll_usb.c ****           ep->xfer_len = 0U;
 651:Drivers/STM32H5xx_HAL_Driver/Src/stm32h5xx_ll_usb.c ****         }
 652:Drivers/STM32H5xx_HAL_Driver/Src/stm32h5xx_ll_usb.c ****         PCD_SET_EP_DBUF_CNT(USBx, ep->num, ep->is_in, len);
 653:Drivers/STM32H5xx_HAL_Driver/Src/stm32h5xx_ll_usb.c ****       }
 654:Drivers/STM32H5xx_HAL_Driver/Src/stm32h5xx_ll_usb.c ****       else
 655:Drivers/STM32H5xx_HAL_Driver/Src/stm32h5xx_ll_usb.c ****       {
 656:Drivers/STM32H5xx_HAL_Driver/Src/stm32h5xx_ll_usb.c ****         return HAL_ERROR;
 657:Drivers/STM32H5xx_HAL_Driver/Src/stm32h5xx_ll_usb.c ****       }
 658:Drivers/STM32H5xx_HAL_Driver/Src/stm32h5xx_ll_usb.c ****     }
 659:Drivers/STM32H5xx_HAL_Driver/Src/stm32h5xx_ll_usb.c **** #endif /* (USE_USB_DOUBLE_BUFFER == 1U) */
 660:Drivers/STM32H5xx_HAL_Driver/Src/stm32h5xx_ll_usb.c **** 
 661:Drivers/STM32H5xx_HAL_Driver/Src/stm32h5xx_ll_usb.c ****     PCD_SET_EP_RX_STATUS(USBx, ep->num, USB_EP_RX_VALID);
 662:Drivers/STM32H5xx_HAL_Driver/Src/stm32h5xx_ll_usb.c ****   }
 663:Drivers/STM32H5xx_HAL_Driver/Src/stm32h5xx_ll_usb.c **** 
 664:Drivers/STM32H5xx_HAL_Driver/Src/stm32h5xx_ll_usb.c ****   return HAL_OK;
 665:Drivers/STM32H5xx_HAL_Driver/Src/stm32h5xx_ll_usb.c **** }
 666:Drivers/STM32H5xx_HAL_Driver/Src/stm32h5xx_ll_usb.c **** 
 667:Drivers/STM32H5xx_HAL_Driver/Src/stm32h5xx_ll_usb.c **** 
 668:Drivers/STM32H5xx_HAL_Driver/Src/stm32h5xx_ll_usb.c **** /**
 669:Drivers/STM32H5xx_HAL_Driver/Src/stm32h5xx_ll_usb.c ****   * @brief  USB_EPSetStall set a stall condition over an EP
 670:Drivers/STM32H5xx_HAL_Driver/Src/stm32h5xx_ll_usb.c ****   * @param  USBx Selected device
 671:Drivers/STM32H5xx_HAL_Driver/Src/stm32h5xx_ll_usb.c ****   * @param  ep pointer to endpoint structure
 672:Drivers/STM32H5xx_HAL_Driver/Src/stm32h5xx_ll_usb.c ****   * @retval HAL status
 673:Drivers/STM32H5xx_HAL_Driver/Src/stm32h5xx_ll_usb.c ****   */
 674:Drivers/STM32H5xx_HAL_Driver/Src/stm32h5xx_ll_usb.c **** HAL_StatusTypeDef USB_EPSetStall(USB_DRD_TypeDef *USBx, USB_DRD_EPTypeDef *ep)
ARM GAS  C:\Users\sapph\AppData\Local\Temp\cchEHrSS.s 			page 44


 675:Drivers/STM32H5xx_HAL_Driver/Src/stm32h5xx_ll_usb.c **** {
 1577              		.loc 1 675 1 is_stmt 1 view -0
 1578              		.cfi_startproc
 1579              		@ args = 0, pretend = 0, frame = 0
 1580              		@ frame_needed = 0, uses_anonymous_args = 0
 1581              		@ link register save eliminated.
 676:Drivers/STM32H5xx_HAL_Driver/Src/stm32h5xx_ll_usb.c ****   if (ep->is_in != 0U)
 1582              		.loc 1 676 3 view .LVU523
 1583              		.loc 1 676 9 is_stmt 0 view .LVU524
 1584 0000 4B78     		ldrb	r3, [r1, #1]	@ zero_extendqisi2
 1585              		.loc 1 676 6 view .LVU525
 1586 0002 73B1     		cbz	r3, .L66
 677:Drivers/STM32H5xx_HAL_Driver/Src/stm32h5xx_ll_usb.c ****   {
 678:Drivers/STM32H5xx_HAL_Driver/Src/stm32h5xx_ll_usb.c ****     PCD_SET_EP_TX_STATUS(USBx, ep->num, USB_EP_TX_STALL);
 1587              		.loc 1 678 5 is_stmt 1 view .LVU526
 1588              	.LBB48:
 1589              		.loc 1 678 5 view .LVU527
 1590              		.loc 1 678 5 view .LVU528
 1591 0004 0A78     		ldrb	r2, [r1]	@ zero_extendqisi2
 1592 0006 50F82210 		ldr	r1, [r0, r2, lsl #2]
 1593              	.LVL178:
 1594              		.loc 1 678 5 is_stmt 0 view .LVU529
 1595 000a 0D4B     		ldr	r3, .L68
 1596 000c 0B40     		ands	r3, r3, r1
 1597              	.LVL179:
 1598              		.loc 1 678 5 is_stmt 1 view .LVU530
 1599              		.loc 1 678 5 discriminator 1 view .LVU531
 1600 000e 83F01003 		eor	r3, r3, #16
 1601              	.LVL180:
 1602              		.loc 1 678 5 discriminator 3 view .LVU532
 1603              		.loc 1 678 5 discriminator 6 view .LVU533
 1604 0012 43F40043 		orr	r3, r3, #32768
 1605              	.LVL181:
 1606              		.loc 1 678 5 is_stmt 0 discriminator 6 view .LVU534
 1607 0016 43F08003 		orr	r3, r3, #128
 1608 001a 40F82230 		str	r3, [r0, r2, lsl #2]
 1609              	.LBE48:
 1610              		.loc 1 678 5 is_stmt 1 discriminator 6 view .LVU535
 1611              	.LVL182:
 1612              	.L67:
 679:Drivers/STM32H5xx_HAL_Driver/Src/stm32h5xx_ll_usb.c ****   }
 680:Drivers/STM32H5xx_HAL_Driver/Src/stm32h5xx_ll_usb.c ****   else
 681:Drivers/STM32H5xx_HAL_Driver/Src/stm32h5xx_ll_usb.c ****   {
 682:Drivers/STM32H5xx_HAL_Driver/Src/stm32h5xx_ll_usb.c ****     PCD_SET_EP_RX_STATUS(USBx, ep->num, USB_EP_RX_STALL);
 1613              		.loc 1 682 5 discriminator 7 view .LVU536
 683:Drivers/STM32H5xx_HAL_Driver/Src/stm32h5xx_ll_usb.c ****   }
 684:Drivers/STM32H5xx_HAL_Driver/Src/stm32h5xx_ll_usb.c **** 
 685:Drivers/STM32H5xx_HAL_Driver/Src/stm32h5xx_ll_usb.c ****   return HAL_OK;
 1614              		.loc 1 685 3 view .LVU537
 686:Drivers/STM32H5xx_HAL_Driver/Src/stm32h5xx_ll_usb.c **** }
 1615              		.loc 1 686 1 is_stmt 0 view .LVU538
 1616 001e 0020     		movs	r0, #0
 1617              	.LVL183:
 1618              		.loc 1 686 1 view .LVU539
 1619 0020 7047     		bx	lr
 1620              	.LVL184:
 1621              	.L66:
ARM GAS  C:\Users\sapph\AppData\Local\Temp\cchEHrSS.s 			page 45


 682:Drivers/STM32H5xx_HAL_Driver/Src/stm32h5xx_ll_usb.c ****   }
 1622              		.loc 1 682 5 is_stmt 1 view .LVU540
 1623              	.LBB49:
 682:Drivers/STM32H5xx_HAL_Driver/Src/stm32h5xx_ll_usb.c ****   }
 1624              		.loc 1 682 5 view .LVU541
 682:Drivers/STM32H5xx_HAL_Driver/Src/stm32h5xx_ll_usb.c ****   }
 1625              		.loc 1 682 5 view .LVU542
 1626 0022 0A78     		ldrb	r2, [r1]	@ zero_extendqisi2
 1627 0024 50F82210 		ldr	r1, [r0, r2, lsl #2]
 1628              	.LVL185:
 682:Drivers/STM32H5xx_HAL_Driver/Src/stm32h5xx_ll_usb.c ****   }
 1629              		.loc 1 682 5 is_stmt 0 view .LVU543
 1630 0028 064B     		ldr	r3, .L68+4
 1631 002a 0B40     		ands	r3, r3, r1
 1632              	.LVL186:
 682:Drivers/STM32H5xx_HAL_Driver/Src/stm32h5xx_ll_usb.c ****   }
 1633              		.loc 1 682 5 is_stmt 1 view .LVU544
 682:Drivers/STM32H5xx_HAL_Driver/Src/stm32h5xx_ll_usb.c ****   }
 1634              		.loc 1 682 5 discriminator 1 view .LVU545
 1635 002c 83F48053 		eor	r3, r3, #4096
 1636              	.LVL187:
 682:Drivers/STM32H5xx_HAL_Driver/Src/stm32h5xx_ll_usb.c ****   }
 1637              		.loc 1 682 5 discriminator 3 view .LVU546
 682:Drivers/STM32H5xx_HAL_Driver/Src/stm32h5xx_ll_usb.c ****   }
 1638              		.loc 1 682 5 discriminator 6 view .LVU547
 1639 0030 43F40043 		orr	r3, r3, #32768
 1640              	.LVL188:
 682:Drivers/STM32H5xx_HAL_Driver/Src/stm32h5xx_ll_usb.c ****   }
 1641              		.loc 1 682 5 is_stmt 0 discriminator 6 view .LVU548
 1642 0034 43F08003 		orr	r3, r3, #128
 1643 0038 40F82230 		str	r3, [r0, r2, lsl #2]
 1644 003c EFE7     		b	.L67
 1645              	.L69:
 1646 003e 00BF     		.align	2
 1647              	.L68:
 1648 0040 BF8FFF07 		.word	134188991
 1649 0044 8FBFFF07 		.word	134201231
 1650              	.LBE49:
 1651              		.cfi_endproc
 1652              	.LFE171:
 1654              		.section	.text.USB_EPClearStall,"ax",%progbits
 1655              		.align	1
 1656              		.global	USB_EPClearStall
 1657              		.syntax unified
 1658              		.thumb
 1659              		.thumb_func
 1661              	USB_EPClearStall:
 1662              	.LVL189:
 1663              	.LFB172:
 687:Drivers/STM32H5xx_HAL_Driver/Src/stm32h5xx_ll_usb.c **** 
 688:Drivers/STM32H5xx_HAL_Driver/Src/stm32h5xx_ll_usb.c **** /**
 689:Drivers/STM32H5xx_HAL_Driver/Src/stm32h5xx_ll_usb.c ****   * @brief  USB_EPClearStall Clear a stall condition over an EP
 690:Drivers/STM32H5xx_HAL_Driver/Src/stm32h5xx_ll_usb.c ****   * @param  USBx Selected device
 691:Drivers/STM32H5xx_HAL_Driver/Src/stm32h5xx_ll_usb.c ****   * @param  ep pointer to endpoint structure
 692:Drivers/STM32H5xx_HAL_Driver/Src/stm32h5xx_ll_usb.c ****   * @retval HAL status
 693:Drivers/STM32H5xx_HAL_Driver/Src/stm32h5xx_ll_usb.c ****   */
 694:Drivers/STM32H5xx_HAL_Driver/Src/stm32h5xx_ll_usb.c **** HAL_StatusTypeDef USB_EPClearStall(USB_DRD_TypeDef *USBx, USB_DRD_EPTypeDef *ep)
ARM GAS  C:\Users\sapph\AppData\Local\Temp\cchEHrSS.s 			page 46


 695:Drivers/STM32H5xx_HAL_Driver/Src/stm32h5xx_ll_usb.c **** {
 1664              		.loc 1 695 1 is_stmt 1 view -0
 1665              		.cfi_startproc
 1666              		@ args = 0, pretend = 0, frame = 0
 1667              		@ frame_needed = 0, uses_anonymous_args = 0
 1668              		@ link register save eliminated.
 696:Drivers/STM32H5xx_HAL_Driver/Src/stm32h5xx_ll_usb.c ****   if (ep->doublebuffer == 0U)
 1669              		.loc 1 696 3 view .LVU550
 1670              		.loc 1 696 9 is_stmt 0 view .LVU551
 1671 0000 0B7B     		ldrb	r3, [r1, #12]	@ zero_extendqisi2
 1672              		.loc 1 696 6 view .LVU552
 1673 0002 002B     		cmp	r3, #0
 1674 0004 44D1     		bne	.L76
 695:Drivers/STM32H5xx_HAL_Driver/Src/stm32h5xx_ll_usb.c ****   if (ep->doublebuffer == 0U)
 1675              		.loc 1 695 1 view .LVU553
 1676 0006 10B4     		push	{r4}
 1677              		.cfi_def_cfa_offset 4
 1678              		.cfi_offset 4, -4
 697:Drivers/STM32H5xx_HAL_Driver/Src/stm32h5xx_ll_usb.c ****   {
 698:Drivers/STM32H5xx_HAL_Driver/Src/stm32h5xx_ll_usb.c ****     if (ep->is_in != 0U)
 1679              		.loc 1 698 5 is_stmt 1 view .LVU554
 1680              		.loc 1 698 11 is_stmt 0 view .LVU555
 1681 0008 4B78     		ldrb	r3, [r1, #1]	@ zero_extendqisi2
 1682              		.loc 1 698 8 view .LVU556
 1683 000a 03B3     		cbz	r3, .L72
 699:Drivers/STM32H5xx_HAL_Driver/Src/stm32h5xx_ll_usb.c ****     {
 700:Drivers/STM32H5xx_HAL_Driver/Src/stm32h5xx_ll_usb.c ****       PCD_CLEAR_TX_DTOG(USBx, ep->num);
 1684              		.loc 1 700 7 is_stmt 1 view .LVU557
 1685              	.LBB50:
 1686              		.loc 1 700 7 view .LVU558
 1687              		.loc 1 700 7 view .LVU559
 1688 000c 0A78     		ldrb	r2, [r1]	@ zero_extendqisi2
 1689 000e 50F82230 		ldr	r3, [r0, r2, lsl #2]
 1690              	.LVL190:
 1691              		.loc 1 700 7 view .LVU560
 1692 0012 13F0400F 		tst	r3, #64
 1693 0016 09D0     		beq	.L73
 1694              		.loc 1 700 7 discriminator 1 view .LVU561
 1695              	.LBB51:
 1696              		.loc 1 700 7 discriminator 1 view .LVU562
 1697              		.loc 1 700 7 discriminator 1 view .LVU563
 1698 0018 50F82240 		ldr	r4, [r0, r2, lsl #2]
 1699 001c 1D4B     		ldr	r3, .L79
 1700              	.LVL191:
 1701              		.loc 1 700 7 is_stmt 0 discriminator 1 view .LVU564
 1702 001e 2340     		ands	r3, r3, r4
 1703              	.LVL192:
 1704              		.loc 1 700 7 is_stmt 1 discriminator 1 view .LVU565
 1705 0020 43F40043 		orr	r3, r3, #32768
 1706              	.LVL193:
 1707              		.loc 1 700 7 is_stmt 0 discriminator 1 view .LVU566
 1708 0024 43F0C003 		orr	r3, r3, #192
 1709 0028 40F82230 		str	r3, [r0, r2, lsl #2]
 1710              	.LVL194:
 1711              	.L73:
 1712              		.loc 1 700 7 discriminator 1 view .LVU567
 1713              	.LBE51:
ARM GAS  C:\Users\sapph\AppData\Local\Temp\cchEHrSS.s 			page 47


 1714              		.loc 1 700 7 is_stmt 1 discriminator 3 view .LVU568
 1715              	.LBE50:
 1716              		.loc 1 700 7 discriminator 3 view .LVU569
 701:Drivers/STM32H5xx_HAL_Driver/Src/stm32h5xx_ll_usb.c **** 
 702:Drivers/STM32H5xx_HAL_Driver/Src/stm32h5xx_ll_usb.c ****       if (ep->type != EP_TYPE_ISOC)
 1717              		.loc 1 702 7 view .LVU570
 1718              		.loc 1 702 13 is_stmt 0 view .LVU571
 1719 002c CB78     		ldrb	r3, [r1, #3]	@ zero_extendqisi2
 1720              		.loc 1 702 10 view .LVU572
 1721 002e 012B     		cmp	r3, #1
 1722 0030 2AD0     		beq	.L71
 703:Drivers/STM32H5xx_HAL_Driver/Src/stm32h5xx_ll_usb.c ****       {
 704:Drivers/STM32H5xx_HAL_Driver/Src/stm32h5xx_ll_usb.c ****         /* Configure NAK status for the Endpoint */
 705:Drivers/STM32H5xx_HAL_Driver/Src/stm32h5xx_ll_usb.c ****         PCD_SET_EP_TX_STATUS(USBx, ep->num, USB_EP_TX_NAK);
 1723              		.loc 1 705 9 is_stmt 1 view .LVU573
 1724              	.LBB52:
 1725              		.loc 1 705 9 view .LVU574
 1726              		.loc 1 705 9 view .LVU575
 1727 0032 0A78     		ldrb	r2, [r1]	@ zero_extendqisi2
 1728 0034 50F82210 		ldr	r1, [r0, r2, lsl #2]
 1729              	.LVL195:
 1730              		.loc 1 705 9 is_stmt 0 view .LVU576
 1731 0038 174B     		ldr	r3, .L79+4
 1732 003a 0B40     		ands	r3, r3, r1
 1733              	.LVL196:
 1734              		.loc 1 705 9 is_stmt 1 view .LVU577
 1735              		.loc 1 705 9 discriminator 3 view .LVU578
 1736              		.loc 1 705 9 discriminator 4 view .LVU579
 1737 003c 83F02003 		eor	r3, r3, #32
 1738              	.LVL197:
 1739              		.loc 1 705 9 discriminator 6 view .LVU580
 1740 0040 43F40043 		orr	r3, r3, #32768
 1741              	.LVL198:
 1742              		.loc 1 705 9 is_stmt 0 discriminator 6 view .LVU581
 1743 0044 43F08003 		orr	r3, r3, #128
 1744 0048 40F82230 		str	r3, [r0, r2, lsl #2]
 1745 004c 1CE0     		b	.L71
 1746              	.LVL199:
 1747              	.L72:
 1748              		.loc 1 705 9 discriminator 6 view .LVU582
 1749              	.LBE52:
 706:Drivers/STM32H5xx_HAL_Driver/Src/stm32h5xx_ll_usb.c ****       }
 707:Drivers/STM32H5xx_HAL_Driver/Src/stm32h5xx_ll_usb.c ****     }
 708:Drivers/STM32H5xx_HAL_Driver/Src/stm32h5xx_ll_usb.c ****     else
 709:Drivers/STM32H5xx_HAL_Driver/Src/stm32h5xx_ll_usb.c ****     {
 710:Drivers/STM32H5xx_HAL_Driver/Src/stm32h5xx_ll_usb.c ****       PCD_CLEAR_RX_DTOG(USBx, ep->num);
 1750              		.loc 1 710 7 is_stmt 1 view .LVU583
 1751              	.LBB53:
 1752              		.loc 1 710 7 view .LVU584
 1753              		.loc 1 710 7 view .LVU585
 1754 004e 0A78     		ldrb	r2, [r1]	@ zero_extendqisi2
 1755 0050 50F82230 		ldr	r3, [r0, r2, lsl #2]
 1756              	.LVL200:
 1757              		.loc 1 710 7 view .LVU586
 1758 0054 13F4804F 		tst	r3, #16384
 1759 0058 09D0     		beq	.L74
 1760              		.loc 1 710 7 discriminator 1 view .LVU587
ARM GAS  C:\Users\sapph\AppData\Local\Temp\cchEHrSS.s 			page 48


 1761              	.LBB54:
 1762              		.loc 1 710 7 discriminator 1 view .LVU588
 1763              		.loc 1 710 7 discriminator 1 view .LVU589
 1764 005a 50F82240 		ldr	r4, [r0, r2, lsl #2]
 1765 005e 0D4B     		ldr	r3, .L79
 1766              	.LVL201:
 1767              		.loc 1 710 7 is_stmt 0 discriminator 1 view .LVU590
 1768 0060 2340     		ands	r3, r3, r4
 1769              	.LVL202:
 1770              		.loc 1 710 7 is_stmt 1 discriminator 1 view .LVU591
 1771 0062 43F44043 		orr	r3, r3, #49152
 1772              	.LVL203:
 1773              		.loc 1 710 7 is_stmt 0 discriminator 1 view .LVU592
 1774 0066 43F08003 		orr	r3, r3, #128
 1775 006a 40F82230 		str	r3, [r0, r2, lsl #2]
 1776              	.LVL204:
 1777              	.L74:
 1778              		.loc 1 710 7 discriminator 1 view .LVU593
 1779              	.LBE54:
 1780              		.loc 1 710 7 is_stmt 1 discriminator 3 view .LVU594
 1781              	.LBE53:
 1782              		.loc 1 710 7 discriminator 3 view .LVU595
 711:Drivers/STM32H5xx_HAL_Driver/Src/stm32h5xx_ll_usb.c **** 
 712:Drivers/STM32H5xx_HAL_Driver/Src/stm32h5xx_ll_usb.c ****       /* Configure VALID status for the Endpoint */
 713:Drivers/STM32H5xx_HAL_Driver/Src/stm32h5xx_ll_usb.c ****       PCD_SET_EP_RX_STATUS(USBx, ep->num, USB_EP_RX_VALID);
 1783              		.loc 1 713 7 view .LVU596
 1784              	.LBB55:
 1785              		.loc 1 713 7 view .LVU597
 1786              		.loc 1 713 7 view .LVU598
 1787 006e 0A78     		ldrb	r2, [r1]	@ zero_extendqisi2
 1788 0070 50F82210 		ldr	r1, [r0, r2, lsl #2]
 1789              	.LVL205:
 1790              		.loc 1 713 7 is_stmt 0 view .LVU599
 1791 0074 094B     		ldr	r3, .L79+8
 1792 0076 0B40     		ands	r3, r3, r1
 1793              	.LVL206:
 1794              		.loc 1 713 7 is_stmt 1 view .LVU600
 1795              		.loc 1 713 7 discriminator 1 view .LVU601
 1796              		.loc 1 713 7 discriminator 3 view .LVU602
 1797              		.loc 1 713 7 discriminator 4 view .LVU603
 1798 0078 83F44053 		eor	r3, r3, #12288
 1799              	.LVL207:
 1800              		.loc 1 713 7 discriminator 6 view .LVU604
 1801 007c 43F40043 		orr	r3, r3, #32768
 1802              	.LVL208:
 1803              		.loc 1 713 7 is_stmt 0 discriminator 6 view .LVU605
 1804 0080 43F08003 		orr	r3, r3, #128
 1805 0084 40F82230 		str	r3, [r0, r2, lsl #2]
 1806              	.LVL209:
 1807              	.L71:
 1808              		.loc 1 713 7 discriminator 6 view .LVU606
 1809              	.LBE55:
 1810              		.loc 1 713 7 is_stmt 1 discriminator 7 view .LVU607
 714:Drivers/STM32H5xx_HAL_Driver/Src/stm32h5xx_ll_usb.c ****     }
 715:Drivers/STM32H5xx_HAL_Driver/Src/stm32h5xx_ll_usb.c ****   }
 716:Drivers/STM32H5xx_HAL_Driver/Src/stm32h5xx_ll_usb.c **** 
 717:Drivers/STM32H5xx_HAL_Driver/Src/stm32h5xx_ll_usb.c ****   return HAL_OK;
ARM GAS  C:\Users\sapph\AppData\Local\Temp\cchEHrSS.s 			page 49


 1811              		.loc 1 717 3 view .LVU608
 718:Drivers/STM32H5xx_HAL_Driver/Src/stm32h5xx_ll_usb.c **** }
 1812              		.loc 1 718 1 is_stmt 0 view .LVU609
 1813 0088 0020     		movs	r0, #0
 1814              	.LVL210:
 1815              		.loc 1 718 1 view .LVU610
 1816 008a 5DF8044B 		ldr	r4, [sp], #4
 1817              		.cfi_restore 4
 1818              		.cfi_def_cfa_offset 0
 1819 008e 7047     		bx	lr
 1820              	.LVL211:
 1821              	.L76:
 713:Drivers/STM32H5xx_HAL_Driver/Src/stm32h5xx_ll_usb.c ****     }
 1822              		.loc 1 713 7 is_stmt 1 discriminator 7 view .LVU611
 717:Drivers/STM32H5xx_HAL_Driver/Src/stm32h5xx_ll_usb.c **** }
 1823              		.loc 1 717 3 view .LVU612
 1824              		.loc 1 718 1 is_stmt 0 view .LVU613
 1825 0090 0020     		movs	r0, #0
 1826              	.LVL212:
 1827              		.loc 1 718 1 view .LVU614
 1828 0092 7047     		bx	lr
 1829              	.L80:
 1830              		.align	2
 1831              	.L79:
 1832 0094 8F8FFF07 		.word	134188943
 1833 0098 BF8FFF07 		.word	134188991
 1834 009c 8FBFFF07 		.word	134201231
 1835              		.cfi_endproc
 1836              	.LFE172:
 1838              		.section	.text.USB_EPStopXfer,"ax",%progbits
 1839              		.align	1
 1840              		.global	USB_EPStopXfer
 1841              		.syntax unified
 1842              		.thumb
 1843              		.thumb_func
 1845              	USB_EPStopXfer:
 1846              	.LVL213:
 1847              	.LFB173:
 719:Drivers/STM32H5xx_HAL_Driver/Src/stm32h5xx_ll_usb.c **** 
 720:Drivers/STM32H5xx_HAL_Driver/Src/stm32h5xx_ll_usb.c **** /**
 721:Drivers/STM32H5xx_HAL_Driver/Src/stm32h5xx_ll_usb.c ****    * @brief  USB_EPStoptXfer  Stop transfer on an EP
 722:Drivers/STM32H5xx_HAL_Driver/Src/stm32h5xx_ll_usb.c ****    * @param  USBx  usb device instance
 723:Drivers/STM32H5xx_HAL_Driver/Src/stm32h5xx_ll_usb.c ****    * @param  ep pointer to endpoint structure
 724:Drivers/STM32H5xx_HAL_Driver/Src/stm32h5xx_ll_usb.c ****    * @retval HAL status
 725:Drivers/STM32H5xx_HAL_Driver/Src/stm32h5xx_ll_usb.c ****    */
 726:Drivers/STM32H5xx_HAL_Driver/Src/stm32h5xx_ll_usb.c **** HAL_StatusTypeDef USB_EPStopXfer(USB_DRD_TypeDef *USBx, USB_DRD_EPTypeDef *ep)
 727:Drivers/STM32H5xx_HAL_Driver/Src/stm32h5xx_ll_usb.c **** {
 1848              		.loc 1 727 1 is_stmt 1 view -0
 1849              		.cfi_startproc
 1850              		@ args = 0, pretend = 0, frame = 0
 1851              		@ frame_needed = 0, uses_anonymous_args = 0
 1852              		@ link register save eliminated.
 728:Drivers/STM32H5xx_HAL_Driver/Src/stm32h5xx_ll_usb.c ****   /* IN endpoint */
 729:Drivers/STM32H5xx_HAL_Driver/Src/stm32h5xx_ll_usb.c ****   if (ep->is_in == 1U)
 1853              		.loc 1 729 3 view .LVU616
 1854              		.loc 1 729 9 is_stmt 0 view .LVU617
 1855 0000 4B78     		ldrb	r3, [r1, #1]	@ zero_extendqisi2
ARM GAS  C:\Users\sapph\AppData\Local\Temp\cchEHrSS.s 			page 50


 1856              		.loc 1 729 6 view .LVU618
 1857 0002 012B     		cmp	r3, #1
 1858 0004 13D0     		beq	.L86
 730:Drivers/STM32H5xx_HAL_Driver/Src/stm32h5xx_ll_usb.c ****   {
 731:Drivers/STM32H5xx_HAL_Driver/Src/stm32h5xx_ll_usb.c ****     if (ep->doublebuffer == 0U)
 732:Drivers/STM32H5xx_HAL_Driver/Src/stm32h5xx_ll_usb.c ****     {
 733:Drivers/STM32H5xx_HAL_Driver/Src/stm32h5xx_ll_usb.c ****       if (ep->type != EP_TYPE_ISOC)
 734:Drivers/STM32H5xx_HAL_Driver/Src/stm32h5xx_ll_usb.c ****       {
 735:Drivers/STM32H5xx_HAL_Driver/Src/stm32h5xx_ll_usb.c ****         /* Configure NAK status for the Endpoint */
 736:Drivers/STM32H5xx_HAL_Driver/Src/stm32h5xx_ll_usb.c ****         PCD_SET_EP_TX_STATUS(USBx, ep->num, USB_EP_TX_NAK);
 737:Drivers/STM32H5xx_HAL_Driver/Src/stm32h5xx_ll_usb.c ****       }
 738:Drivers/STM32H5xx_HAL_Driver/Src/stm32h5xx_ll_usb.c ****       else
 739:Drivers/STM32H5xx_HAL_Driver/Src/stm32h5xx_ll_usb.c ****       {
 740:Drivers/STM32H5xx_HAL_Driver/Src/stm32h5xx_ll_usb.c ****         /* Configure TX Endpoint to disabled state */
 741:Drivers/STM32H5xx_HAL_Driver/Src/stm32h5xx_ll_usb.c ****         PCD_SET_EP_TX_STATUS(USBx, ep->num, USB_EP_TX_DIS);
 742:Drivers/STM32H5xx_HAL_Driver/Src/stm32h5xx_ll_usb.c ****       }
 743:Drivers/STM32H5xx_HAL_Driver/Src/stm32h5xx_ll_usb.c ****     }
 744:Drivers/STM32H5xx_HAL_Driver/Src/stm32h5xx_ll_usb.c ****   }
 745:Drivers/STM32H5xx_HAL_Driver/Src/stm32h5xx_ll_usb.c ****   else /* OUT endpoint */
 746:Drivers/STM32H5xx_HAL_Driver/Src/stm32h5xx_ll_usb.c ****   {
 747:Drivers/STM32H5xx_HAL_Driver/Src/stm32h5xx_ll_usb.c ****     if (ep->doublebuffer == 0U)
 1859              		.loc 1 747 5 is_stmt 1 view .LVU619
 1860              		.loc 1 747 11 is_stmt 0 view .LVU620
 1861 0006 0B7B     		ldrb	r3, [r1, #12]	@ zero_extendqisi2
 1862              		.loc 1 747 8 view .LVU621
 1863 0008 7BB9     		cbnz	r3, .L83
 748:Drivers/STM32H5xx_HAL_Driver/Src/stm32h5xx_ll_usb.c ****     {
 749:Drivers/STM32H5xx_HAL_Driver/Src/stm32h5xx_ll_usb.c ****       if (ep->type != EP_TYPE_ISOC)
 1864              		.loc 1 749 7 is_stmt 1 view .LVU622
 1865              		.loc 1 749 13 is_stmt 0 view .LVU623
 1866 000a CB78     		ldrb	r3, [r1, #3]	@ zero_extendqisi2
 1867              		.loc 1 749 10 view .LVU624
 1868 000c 012B     		cmp	r3, #1
 1869 000e 2ED0     		beq	.L85
 750:Drivers/STM32H5xx_HAL_Driver/Src/stm32h5xx_ll_usb.c ****       {
 751:Drivers/STM32H5xx_HAL_Driver/Src/stm32h5xx_ll_usb.c ****         /* Configure NAK status for the Endpoint */
 752:Drivers/STM32H5xx_HAL_Driver/Src/stm32h5xx_ll_usb.c ****         PCD_SET_EP_RX_STATUS(USBx, ep->num, USB_EP_RX_NAK);
 1870              		.loc 1 752 9 is_stmt 1 view .LVU625
 1871              	.LBB56:
 1872              		.loc 1 752 9 view .LVU626
 1873              		.loc 1 752 9 view .LVU627
 1874 0010 0A78     		ldrb	r2, [r1]	@ zero_extendqisi2
 1875 0012 50F82210 		ldr	r1, [r0, r2, lsl #2]
 1876              	.LVL214:
 1877              		.loc 1 752 9 is_stmt 0 view .LVU628
 1878 0016 1C4B     		ldr	r3, .L87
 1879 0018 0B40     		ands	r3, r3, r1
 1880              	.LVL215:
 1881              		.loc 1 752 9 is_stmt 1 view .LVU629
 1882              		.loc 1 752 9 discriminator 3 view .LVU630
 1883              		.loc 1 752 9 discriminator 4 view .LVU631
 1884 001a 83F40053 		eor	r3, r3, #8192
 1885              	.LVL216:
 1886              		.loc 1 752 9 discriminator 6 view .LVU632
 1887 001e 43F40043 		orr	r3, r3, #32768
 1888              	.LVL217:
 1889              		.loc 1 752 9 is_stmt 0 discriminator 6 view .LVU633
ARM GAS  C:\Users\sapph\AppData\Local\Temp\cchEHrSS.s 			page 51


 1890 0022 43F08003 		orr	r3, r3, #128
 1891 0026 40F82230 		str	r3, [r0, r2, lsl #2]
 1892              	.LBE56:
 1893              		.loc 1 752 9 is_stmt 1 discriminator 6 view .LVU634
 1894              	.LVL218:
 1895              	.L83:
 753:Drivers/STM32H5xx_HAL_Driver/Src/stm32h5xx_ll_usb.c ****       }
 754:Drivers/STM32H5xx_HAL_Driver/Src/stm32h5xx_ll_usb.c ****       else
 755:Drivers/STM32H5xx_HAL_Driver/Src/stm32h5xx_ll_usb.c ****       {
 756:Drivers/STM32H5xx_HAL_Driver/Src/stm32h5xx_ll_usb.c ****         /* Configure RX Endpoint to disabled state */
 757:Drivers/STM32H5xx_HAL_Driver/Src/stm32h5xx_ll_usb.c ****         PCD_SET_EP_RX_STATUS(USBx, ep->num, USB_EP_RX_DIS);
 1896              		.loc 1 757 9 discriminator 7 view .LVU635
 758:Drivers/STM32H5xx_HAL_Driver/Src/stm32h5xx_ll_usb.c ****       }
 759:Drivers/STM32H5xx_HAL_Driver/Src/stm32h5xx_ll_usb.c ****     }
 760:Drivers/STM32H5xx_HAL_Driver/Src/stm32h5xx_ll_usb.c ****   }
 761:Drivers/STM32H5xx_HAL_Driver/Src/stm32h5xx_ll_usb.c **** 
 762:Drivers/STM32H5xx_HAL_Driver/Src/stm32h5xx_ll_usb.c ****   return HAL_OK;
 1897              		.loc 1 762 3 view .LVU636
 763:Drivers/STM32H5xx_HAL_Driver/Src/stm32h5xx_ll_usb.c **** }
 1898              		.loc 1 763 1 is_stmt 0 view .LVU637
 1899 002a 0020     		movs	r0, #0
 1900              	.LVL219:
 1901              		.loc 1 763 1 view .LVU638
 1902 002c 7047     		bx	lr
 1903              	.LVL220:
 1904              	.L86:
 731:Drivers/STM32H5xx_HAL_Driver/Src/stm32h5xx_ll_usb.c ****     {
 1905              		.loc 1 731 5 is_stmt 1 view .LVU639
 731:Drivers/STM32H5xx_HAL_Driver/Src/stm32h5xx_ll_usb.c ****     {
 1906              		.loc 1 731 11 is_stmt 0 view .LVU640
 1907 002e 0B7B     		ldrb	r3, [r1, #12]	@ zero_extendqisi2
 731:Drivers/STM32H5xx_HAL_Driver/Src/stm32h5xx_ll_usb.c ****     {
 1908              		.loc 1 731 8 view .LVU641
 1909 0030 002B     		cmp	r3, #0
 1910 0032 FAD1     		bne	.L83
 733:Drivers/STM32H5xx_HAL_Driver/Src/stm32h5xx_ll_usb.c ****       {
 1911              		.loc 1 733 7 is_stmt 1 view .LVU642
 733:Drivers/STM32H5xx_HAL_Driver/Src/stm32h5xx_ll_usb.c ****       {
 1912              		.loc 1 733 13 is_stmt 0 view .LVU643
 1913 0034 CB78     		ldrb	r3, [r1, #3]	@ zero_extendqisi2
 733:Drivers/STM32H5xx_HAL_Driver/Src/stm32h5xx_ll_usb.c ****       {
 1914              		.loc 1 733 10 view .LVU644
 1915 0036 012B     		cmp	r3, #1
 1916 0038 0DD0     		beq	.L84
 736:Drivers/STM32H5xx_HAL_Driver/Src/stm32h5xx_ll_usb.c ****       }
 1917              		.loc 1 736 9 is_stmt 1 view .LVU645
 1918              	.LBB57:
 736:Drivers/STM32H5xx_HAL_Driver/Src/stm32h5xx_ll_usb.c ****       }
 1919              		.loc 1 736 9 view .LVU646
 736:Drivers/STM32H5xx_HAL_Driver/Src/stm32h5xx_ll_usb.c ****       }
 1920              		.loc 1 736 9 view .LVU647
 1921 003a 0A78     		ldrb	r2, [r1]	@ zero_extendqisi2
 1922 003c 50F82210 		ldr	r1, [r0, r2, lsl #2]
 1923              	.LVL221:
 736:Drivers/STM32H5xx_HAL_Driver/Src/stm32h5xx_ll_usb.c ****       }
 1924              		.loc 1 736 9 is_stmt 0 view .LVU648
 1925 0040 124B     		ldr	r3, .L87+4
ARM GAS  C:\Users\sapph\AppData\Local\Temp\cchEHrSS.s 			page 52


 1926 0042 0B40     		ands	r3, r3, r1
 1927              	.LVL222:
 736:Drivers/STM32H5xx_HAL_Driver/Src/stm32h5xx_ll_usb.c ****       }
 1928              		.loc 1 736 9 is_stmt 1 view .LVU649
 736:Drivers/STM32H5xx_HAL_Driver/Src/stm32h5xx_ll_usb.c ****       }
 1929              		.loc 1 736 9 discriminator 3 view .LVU650
 736:Drivers/STM32H5xx_HAL_Driver/Src/stm32h5xx_ll_usb.c ****       }
 1930              		.loc 1 736 9 discriminator 4 view .LVU651
 1931 0044 83F02003 		eor	r3, r3, #32
 1932              	.LVL223:
 736:Drivers/STM32H5xx_HAL_Driver/Src/stm32h5xx_ll_usb.c ****       }
 1933              		.loc 1 736 9 discriminator 6 view .LVU652
 1934 0048 43F40043 		orr	r3, r3, #32768
 1935              	.LVL224:
 736:Drivers/STM32H5xx_HAL_Driver/Src/stm32h5xx_ll_usb.c ****       }
 1936              		.loc 1 736 9 is_stmt 0 discriminator 6 view .LVU653
 1937 004c 43F08003 		orr	r3, r3, #128
 1938 0050 40F82230 		str	r3, [r0, r2, lsl #2]
 1939              	.LBE57:
 736:Drivers/STM32H5xx_HAL_Driver/Src/stm32h5xx_ll_usb.c ****       }
 1940              		.loc 1 736 9 is_stmt 1 discriminator 6 view .LVU654
 1941 0054 E9E7     		b	.L83
 1942              	.LVL225:
 1943              	.L84:
 741:Drivers/STM32H5xx_HAL_Driver/Src/stm32h5xx_ll_usb.c ****       }
 1944              		.loc 1 741 9 view .LVU655
 1945              	.LBB58:
 741:Drivers/STM32H5xx_HAL_Driver/Src/stm32h5xx_ll_usb.c ****       }
 1946              		.loc 1 741 9 view .LVU656
 741:Drivers/STM32H5xx_HAL_Driver/Src/stm32h5xx_ll_usb.c ****       }
 1947              		.loc 1 741 9 view .LVU657
 1948 0056 0A78     		ldrb	r2, [r1]	@ zero_extendqisi2
 1949 0058 50F82210 		ldr	r1, [r0, r2, lsl #2]
 1950              	.LVL226:
 741:Drivers/STM32H5xx_HAL_Driver/Src/stm32h5xx_ll_usb.c ****       }
 1951              		.loc 1 741 9 is_stmt 0 view .LVU658
 1952 005c 0B4B     		ldr	r3, .L87+4
 1953 005e 0B40     		ands	r3, r3, r1
 1954              	.LVL227:
 741:Drivers/STM32H5xx_HAL_Driver/Src/stm32h5xx_ll_usb.c ****       }
 1955              		.loc 1 741 9 is_stmt 1 view .LVU659
 741:Drivers/STM32H5xx_HAL_Driver/Src/stm32h5xx_ll_usb.c ****       }
 1956              		.loc 1 741 9 discriminator 3 view .LVU660
 741:Drivers/STM32H5xx_HAL_Driver/Src/stm32h5xx_ll_usb.c ****       }
 1957              		.loc 1 741 9 discriminator 6 view .LVU661
 1958 0060 43F40043 		orr	r3, r3, #32768
 1959              	.LVL228:
 741:Drivers/STM32H5xx_HAL_Driver/Src/stm32h5xx_ll_usb.c ****       }
 1960              		.loc 1 741 9 is_stmt 0 discriminator 6 view .LVU662
 1961 0064 43F08003 		orr	r3, r3, #128
 1962 0068 40F82230 		str	r3, [r0, r2, lsl #2]
 1963 006c DDE7     		b	.L83
 1964              	.LVL229:
 1965              	.L85:
 741:Drivers/STM32H5xx_HAL_Driver/Src/stm32h5xx_ll_usb.c ****       }
 1966              		.loc 1 741 9 discriminator 6 view .LVU663
 1967              	.LBE58:
ARM GAS  C:\Users\sapph\AppData\Local\Temp\cchEHrSS.s 			page 53


 757:Drivers/STM32H5xx_HAL_Driver/Src/stm32h5xx_ll_usb.c ****       }
 1968              		.loc 1 757 9 is_stmt 1 view .LVU664
 1969              	.LBB59:
 757:Drivers/STM32H5xx_HAL_Driver/Src/stm32h5xx_ll_usb.c ****       }
 1970              		.loc 1 757 9 view .LVU665
 757:Drivers/STM32H5xx_HAL_Driver/Src/stm32h5xx_ll_usb.c ****       }
 1971              		.loc 1 757 9 view .LVU666
 1972 006e 0A78     		ldrb	r2, [r1]	@ zero_extendqisi2
 1973 0070 50F82210 		ldr	r1, [r0, r2, lsl #2]
 1974              	.LVL230:
 757:Drivers/STM32H5xx_HAL_Driver/Src/stm32h5xx_ll_usb.c ****       }
 1975              		.loc 1 757 9 is_stmt 0 view .LVU667
 1976 0074 044B     		ldr	r3, .L87
 1977 0076 0B40     		ands	r3, r3, r1
 1978              	.LVL231:
 757:Drivers/STM32H5xx_HAL_Driver/Src/stm32h5xx_ll_usb.c ****       }
 1979              		.loc 1 757 9 is_stmt 1 view .LVU668
 757:Drivers/STM32H5xx_HAL_Driver/Src/stm32h5xx_ll_usb.c ****       }
 1980              		.loc 1 757 9 discriminator 3 view .LVU669
 757:Drivers/STM32H5xx_HAL_Driver/Src/stm32h5xx_ll_usb.c ****       }
 1981              		.loc 1 757 9 discriminator 6 view .LVU670
 1982 0078 43F40043 		orr	r3, r3, #32768
 1983              	.LVL232:
 757:Drivers/STM32H5xx_HAL_Driver/Src/stm32h5xx_ll_usb.c ****       }
 1984              		.loc 1 757 9 is_stmt 0 discriminator 6 view .LVU671
 1985 007c 43F08003 		orr	r3, r3, #128
 1986 0080 40F82230 		str	r3, [r0, r2, lsl #2]
 1987 0084 D1E7     		b	.L83
 1988              	.L88:
 1989 0086 00BF     		.align	2
 1990              	.L87:
 1991 0088 8FBFFF07 		.word	134201231
 1992 008c BF8FFF07 		.word	134188991
 1993              	.LBE59:
 1994              		.cfi_endproc
 1995              	.LFE173:
 1997              		.section	.text.USB_StopDevice,"ax",%progbits
 1998              		.align	1
 1999              		.global	USB_StopDevice
 2000              		.syntax unified
 2001              		.thumb
 2002              		.thumb_func
 2004              	USB_StopDevice:
 2005              	.LVL233:
 2006              	.LFB174:
 764:Drivers/STM32H5xx_HAL_Driver/Src/stm32h5xx_ll_usb.c **** #endif /* defined (HAL_PCD_MODULE_ENABLED) */
 765:Drivers/STM32H5xx_HAL_Driver/Src/stm32h5xx_ll_usb.c **** 
 766:Drivers/STM32H5xx_HAL_Driver/Src/stm32h5xx_ll_usb.c **** /**
 767:Drivers/STM32H5xx_HAL_Driver/Src/stm32h5xx_ll_usb.c ****   * @brief  USB_StopDevice Stop the usb device mode
 768:Drivers/STM32H5xx_HAL_Driver/Src/stm32h5xx_ll_usb.c ****   * @param  USBx Selected device
 769:Drivers/STM32H5xx_HAL_Driver/Src/stm32h5xx_ll_usb.c ****   * @retval HAL status
 770:Drivers/STM32H5xx_HAL_Driver/Src/stm32h5xx_ll_usb.c ****   */
 771:Drivers/STM32H5xx_HAL_Driver/Src/stm32h5xx_ll_usb.c **** HAL_StatusTypeDef USB_StopDevice(USB_DRD_TypeDef *USBx)
 772:Drivers/STM32H5xx_HAL_Driver/Src/stm32h5xx_ll_usb.c **** {
 2007              		.loc 1 772 1 is_stmt 1 view -0
 2008              		.cfi_startproc
 2009              		@ args = 0, pretend = 0, frame = 0
ARM GAS  C:\Users\sapph\AppData\Local\Temp\cchEHrSS.s 			page 54


 2010              		@ frame_needed = 0, uses_anonymous_args = 0
 2011              		@ link register save eliminated.
 2012              		.loc 1 772 1 is_stmt 0 view .LVU673
 2013 0000 0346     		mov	r3, r0
 773:Drivers/STM32H5xx_HAL_Driver/Src/stm32h5xx_ll_usb.c ****   /* disable all interrupts and force USB reset */
 774:Drivers/STM32H5xx_HAL_Driver/Src/stm32h5xx_ll_usb.c ****   USBx->CNTR = USB_CNTR_USBRST;
 2014              		.loc 1 774 3 is_stmt 1 view .LVU674
 2015              		.loc 1 774 14 is_stmt 0 view .LVU675
 2016 0002 0122     		movs	r2, #1
 2017 0004 0264     		str	r2, [r0, #64]
 775:Drivers/STM32H5xx_HAL_Driver/Src/stm32h5xx_ll_usb.c **** 
 776:Drivers/STM32H5xx_HAL_Driver/Src/stm32h5xx_ll_usb.c ****   /* clear interrupt status register */
 777:Drivers/STM32H5xx_HAL_Driver/Src/stm32h5xx_ll_usb.c ****   USBx->ISTR = 0U;
 2018              		.loc 1 777 3 is_stmt 1 view .LVU676
 2019              		.loc 1 777 14 is_stmt 0 view .LVU677
 2020 0006 0020     		movs	r0, #0
 2021              	.LVL234:
 2022              		.loc 1 777 14 view .LVU678
 2023 0008 5864     		str	r0, [r3, #68]
 778:Drivers/STM32H5xx_HAL_Driver/Src/stm32h5xx_ll_usb.c **** 
 779:Drivers/STM32H5xx_HAL_Driver/Src/stm32h5xx_ll_usb.c ****   /* switch-off device */
 780:Drivers/STM32H5xx_HAL_Driver/Src/stm32h5xx_ll_usb.c ****   USBx->CNTR = (USB_CNTR_USBRST | USB_CNTR_PDWN);
 2024              		.loc 1 780 3 is_stmt 1 view .LVU679
 2025              		.loc 1 780 14 is_stmt 0 view .LVU680
 2026 000a 0322     		movs	r2, #3
 2027 000c 1A64     		str	r2, [r3, #64]
 781:Drivers/STM32H5xx_HAL_Driver/Src/stm32h5xx_ll_usb.c **** 
 782:Drivers/STM32H5xx_HAL_Driver/Src/stm32h5xx_ll_usb.c ****   return HAL_OK;
 2028              		.loc 1 782 3 is_stmt 1 view .LVU681
 783:Drivers/STM32H5xx_HAL_Driver/Src/stm32h5xx_ll_usb.c **** }
 2029              		.loc 1 783 1 is_stmt 0 view .LVU682
 2030 000e 7047     		bx	lr
 2031              		.cfi_endproc
 2032              	.LFE174:
 2034              		.section	.text.USB_SetDevAddress,"ax",%progbits
 2035              		.align	1
 2036              		.global	USB_SetDevAddress
 2037              		.syntax unified
 2038              		.thumb
 2039              		.thumb_func
 2041              	USB_SetDevAddress:
 2042              	.LVL235:
 2043              	.LFB175:
 784:Drivers/STM32H5xx_HAL_Driver/Src/stm32h5xx_ll_usb.c **** 
 785:Drivers/STM32H5xx_HAL_Driver/Src/stm32h5xx_ll_usb.c **** /**
 786:Drivers/STM32H5xx_HAL_Driver/Src/stm32h5xx_ll_usb.c ****   * @brief  USB_SetDevAddress Stop the usb device mode
 787:Drivers/STM32H5xx_HAL_Driver/Src/stm32h5xx_ll_usb.c ****   * @param  USBx Selected device
 788:Drivers/STM32H5xx_HAL_Driver/Src/stm32h5xx_ll_usb.c ****   * @param  address new device address to be assigned
 789:Drivers/STM32H5xx_HAL_Driver/Src/stm32h5xx_ll_usb.c ****   *          This parameter can be a value from 0 to 255
 790:Drivers/STM32H5xx_HAL_Driver/Src/stm32h5xx_ll_usb.c ****   * @retval HAL status
 791:Drivers/STM32H5xx_HAL_Driver/Src/stm32h5xx_ll_usb.c ****   */
 792:Drivers/STM32H5xx_HAL_Driver/Src/stm32h5xx_ll_usb.c **** HAL_StatusTypeDef  USB_SetDevAddress(USB_DRD_TypeDef *USBx, uint8_t address)
 793:Drivers/STM32H5xx_HAL_Driver/Src/stm32h5xx_ll_usb.c **** {
 2044              		.loc 1 793 1 is_stmt 1 view -0
 2045              		.cfi_startproc
 2046              		@ args = 0, pretend = 0, frame = 0
 2047              		@ frame_needed = 0, uses_anonymous_args = 0
ARM GAS  C:\Users\sapph\AppData\Local\Temp\cchEHrSS.s 			page 55


 2048              		@ link register save eliminated.
 794:Drivers/STM32H5xx_HAL_Driver/Src/stm32h5xx_ll_usb.c ****   if (address == 0U)
 2049              		.loc 1 794 3 view .LVU684
 2050              		.loc 1 794 6 is_stmt 0 view .LVU685
 2051 0000 09B9     		cbnz	r1, .L91
 795:Drivers/STM32H5xx_HAL_Driver/Src/stm32h5xx_ll_usb.c ****   {
 796:Drivers/STM32H5xx_HAL_Driver/Src/stm32h5xx_ll_usb.c ****     /* set device address and enable function */
 797:Drivers/STM32H5xx_HAL_Driver/Src/stm32h5xx_ll_usb.c ****     USBx->DADDR = USB_DADDR_EF;
 2052              		.loc 1 797 5 is_stmt 1 view .LVU686
 2053              		.loc 1 797 17 is_stmt 0 view .LVU687
 2054 0002 8023     		movs	r3, #128
 2055 0004 C364     		str	r3, [r0, #76]
 2056              	.L91:
 798:Drivers/STM32H5xx_HAL_Driver/Src/stm32h5xx_ll_usb.c ****   }
 799:Drivers/STM32H5xx_HAL_Driver/Src/stm32h5xx_ll_usb.c **** 
 800:Drivers/STM32H5xx_HAL_Driver/Src/stm32h5xx_ll_usb.c ****   return HAL_OK;
 2057              		.loc 1 800 3 is_stmt 1 view .LVU688
 801:Drivers/STM32H5xx_HAL_Driver/Src/stm32h5xx_ll_usb.c **** }
 2058              		.loc 1 801 1 is_stmt 0 view .LVU689
 2059 0006 0020     		movs	r0, #0
 2060              	.LVL236:
 2061              		.loc 1 801 1 view .LVU690
 2062 0008 7047     		bx	lr
 2063              		.cfi_endproc
 2064              	.LFE175:
 2066              		.section	.text.USB_DevConnect,"ax",%progbits
 2067              		.align	1
 2068              		.global	USB_DevConnect
 2069              		.syntax unified
 2070              		.thumb
 2071              		.thumb_func
 2073              	USB_DevConnect:
 2074              	.LVL237:
 2075              	.LFB176:
 802:Drivers/STM32H5xx_HAL_Driver/Src/stm32h5xx_ll_usb.c **** 
 803:Drivers/STM32H5xx_HAL_Driver/Src/stm32h5xx_ll_usb.c **** /**
 804:Drivers/STM32H5xx_HAL_Driver/Src/stm32h5xx_ll_usb.c ****   * @brief  USB_DevConnect Connect the USB device by enabling the pull-up/pull-down
 805:Drivers/STM32H5xx_HAL_Driver/Src/stm32h5xx_ll_usb.c ****   * @param  USBx Selected device
 806:Drivers/STM32H5xx_HAL_Driver/Src/stm32h5xx_ll_usb.c ****   * @retval HAL status
 807:Drivers/STM32H5xx_HAL_Driver/Src/stm32h5xx_ll_usb.c ****   */
 808:Drivers/STM32H5xx_HAL_Driver/Src/stm32h5xx_ll_usb.c **** HAL_StatusTypeDef  USB_DevConnect(USB_DRD_TypeDef *USBx)
 809:Drivers/STM32H5xx_HAL_Driver/Src/stm32h5xx_ll_usb.c **** {
 2076              		.loc 1 809 1 is_stmt 1 view -0
 2077              		.cfi_startproc
 2078              		@ args = 0, pretend = 0, frame = 0
 2079              		@ frame_needed = 0, uses_anonymous_args = 0
 2080              		@ link register save eliminated.
 810:Drivers/STM32H5xx_HAL_Driver/Src/stm32h5xx_ll_usb.c ****   /* Enabling DP Pull-UP bit to Connect internal PU resistor on USB DP line */
 811:Drivers/STM32H5xx_HAL_Driver/Src/stm32h5xx_ll_usb.c ****   USBx->BCDR |= USB_BCDR_DPPU;
 2081              		.loc 1 811 3 view .LVU692
 2082              		.loc 1 811 7 is_stmt 0 view .LVU693
 2083 0000 836D     		ldr	r3, [r0, #88]
 2084              		.loc 1 811 14 view .LVU694
 2085 0002 43F40043 		orr	r3, r3, #32768
 2086 0006 8365     		str	r3, [r0, #88]
 812:Drivers/STM32H5xx_HAL_Driver/Src/stm32h5xx_ll_usb.c **** 
 813:Drivers/STM32H5xx_HAL_Driver/Src/stm32h5xx_ll_usb.c ****   return HAL_OK;
ARM GAS  C:\Users\sapph\AppData\Local\Temp\cchEHrSS.s 			page 56


 2087              		.loc 1 813 3 is_stmt 1 view .LVU695
 814:Drivers/STM32H5xx_HAL_Driver/Src/stm32h5xx_ll_usb.c **** }
 2088              		.loc 1 814 1 is_stmt 0 view .LVU696
 2089 0008 0020     		movs	r0, #0
 2090              	.LVL238:
 2091              		.loc 1 814 1 view .LVU697
 2092 000a 7047     		bx	lr
 2093              		.cfi_endproc
 2094              	.LFE176:
 2096              		.section	.text.USB_DevDisconnect,"ax",%progbits
 2097              		.align	1
 2098              		.global	USB_DevDisconnect
 2099              		.syntax unified
 2100              		.thumb
 2101              		.thumb_func
 2103              	USB_DevDisconnect:
 2104              	.LVL239:
 2105              	.LFB177:
 815:Drivers/STM32H5xx_HAL_Driver/Src/stm32h5xx_ll_usb.c **** 
 816:Drivers/STM32H5xx_HAL_Driver/Src/stm32h5xx_ll_usb.c **** /**
 817:Drivers/STM32H5xx_HAL_Driver/Src/stm32h5xx_ll_usb.c ****   * @brief  USB_DevDisconnect Disconnect the USB device by disabling the pull-up/pull-down
 818:Drivers/STM32H5xx_HAL_Driver/Src/stm32h5xx_ll_usb.c ****   * @param  USBx Selected device
 819:Drivers/STM32H5xx_HAL_Driver/Src/stm32h5xx_ll_usb.c ****   * @retval HAL status
 820:Drivers/STM32H5xx_HAL_Driver/Src/stm32h5xx_ll_usb.c ****   */
 821:Drivers/STM32H5xx_HAL_Driver/Src/stm32h5xx_ll_usb.c **** HAL_StatusTypeDef  USB_DevDisconnect(USB_DRD_TypeDef *USBx)
 822:Drivers/STM32H5xx_HAL_Driver/Src/stm32h5xx_ll_usb.c **** {
 2106              		.loc 1 822 1 is_stmt 1 view -0
 2107              		.cfi_startproc
 2108              		@ args = 0, pretend = 0, frame = 0
 2109              		@ frame_needed = 0, uses_anonymous_args = 0
 2110              		@ link register save eliminated.
 823:Drivers/STM32H5xx_HAL_Driver/Src/stm32h5xx_ll_usb.c ****   /* Disable DP Pull-Up bit to disconnect the Internal PU resistor on USB DP line */
 824:Drivers/STM32H5xx_HAL_Driver/Src/stm32h5xx_ll_usb.c ****   USBx->BCDR &= ~(USB_BCDR_DPPU);
 2111              		.loc 1 824 3 view .LVU699
 2112              		.loc 1 824 7 is_stmt 0 view .LVU700
 2113 0000 836D     		ldr	r3, [r0, #88]
 2114              		.loc 1 824 14 view .LVU701
 2115 0002 23F40043 		bic	r3, r3, #32768
 2116 0006 8365     		str	r3, [r0, #88]
 825:Drivers/STM32H5xx_HAL_Driver/Src/stm32h5xx_ll_usb.c **** 
 826:Drivers/STM32H5xx_HAL_Driver/Src/stm32h5xx_ll_usb.c ****   return HAL_OK;
 2117              		.loc 1 826 3 is_stmt 1 view .LVU702
 827:Drivers/STM32H5xx_HAL_Driver/Src/stm32h5xx_ll_usb.c **** }
 2118              		.loc 1 827 1 is_stmt 0 view .LVU703
 2119 0008 0020     		movs	r0, #0
 2120              	.LVL240:
 2121              		.loc 1 827 1 view .LVU704
 2122 000a 7047     		bx	lr
 2123              		.cfi_endproc
 2124              	.LFE177:
 2126              		.section	.text.USB_ReadInterrupts,"ax",%progbits
 2127              		.align	1
 2128              		.global	USB_ReadInterrupts
 2129              		.syntax unified
 2130              		.thumb
 2131              		.thumb_func
 2133              	USB_ReadInterrupts:
ARM GAS  C:\Users\sapph\AppData\Local\Temp\cchEHrSS.s 			page 57


 2134              	.LVL241:
 2135              	.LFB178:
 828:Drivers/STM32H5xx_HAL_Driver/Src/stm32h5xx_ll_usb.c **** 
 829:Drivers/STM32H5xx_HAL_Driver/Src/stm32h5xx_ll_usb.c **** /**
 830:Drivers/STM32H5xx_HAL_Driver/Src/stm32h5xx_ll_usb.c ****   * @brief  USB_ReadInterrupts return the global USB interrupt status
 831:Drivers/STM32H5xx_HAL_Driver/Src/stm32h5xx_ll_usb.c ****   * @param  USBx Selected device
 832:Drivers/STM32H5xx_HAL_Driver/Src/stm32h5xx_ll_usb.c ****   * @retval USB Global Interrupt status
 833:Drivers/STM32H5xx_HAL_Driver/Src/stm32h5xx_ll_usb.c ****   */
 834:Drivers/STM32H5xx_HAL_Driver/Src/stm32h5xx_ll_usb.c **** uint32_t USB_ReadInterrupts(USB_DRD_TypeDef const *USBx)
 835:Drivers/STM32H5xx_HAL_Driver/Src/stm32h5xx_ll_usb.c **** {
 2136              		.loc 1 835 1 is_stmt 1 view -0
 2137              		.cfi_startproc
 2138              		@ args = 0, pretend = 0, frame = 0
 2139              		@ frame_needed = 0, uses_anonymous_args = 0
 2140              		@ link register save eliminated.
 836:Drivers/STM32H5xx_HAL_Driver/Src/stm32h5xx_ll_usb.c ****   uint32_t tmpreg;
 2141              		.loc 1 836 3 view .LVU706
 837:Drivers/STM32H5xx_HAL_Driver/Src/stm32h5xx_ll_usb.c **** 
 838:Drivers/STM32H5xx_HAL_Driver/Src/stm32h5xx_ll_usb.c ****   tmpreg = USBx->ISTR;
 2142              		.loc 1 838 3 view .LVU707
 2143              		.loc 1 838 10 is_stmt 0 view .LVU708
 2144 0000 406C     		ldr	r0, [r0, #68]
 2145              	.LVL242:
 839:Drivers/STM32H5xx_HAL_Driver/Src/stm32h5xx_ll_usb.c ****   return tmpreg;
 2146              		.loc 1 839 3 is_stmt 1 view .LVU709
 840:Drivers/STM32H5xx_HAL_Driver/Src/stm32h5xx_ll_usb.c **** }
 2147              		.loc 1 840 1 is_stmt 0 view .LVU710
 2148 0002 7047     		bx	lr
 2149              		.cfi_endproc
 2150              	.LFE178:
 2152              		.section	.text.USB_ActivateRemoteWakeup,"ax",%progbits
 2153              		.align	1
 2154              		.global	USB_ActivateRemoteWakeup
 2155              		.syntax unified
 2156              		.thumb
 2157              		.thumb_func
 2159              	USB_ActivateRemoteWakeup:
 2160              	.LVL243:
 2161              	.LFB179:
 841:Drivers/STM32H5xx_HAL_Driver/Src/stm32h5xx_ll_usb.c **** 
 842:Drivers/STM32H5xx_HAL_Driver/Src/stm32h5xx_ll_usb.c **** /**
 843:Drivers/STM32H5xx_HAL_Driver/Src/stm32h5xx_ll_usb.c ****   * @brief  USB_ActivateRemoteWakeup : active remote wakeup signalling
 844:Drivers/STM32H5xx_HAL_Driver/Src/stm32h5xx_ll_usb.c ****   * @param  USBx Selected device
 845:Drivers/STM32H5xx_HAL_Driver/Src/stm32h5xx_ll_usb.c ****   * @retval HAL status
 846:Drivers/STM32H5xx_HAL_Driver/Src/stm32h5xx_ll_usb.c ****   */
 847:Drivers/STM32H5xx_HAL_Driver/Src/stm32h5xx_ll_usb.c **** HAL_StatusTypeDef USB_ActivateRemoteWakeup(USB_DRD_TypeDef *USBx)
 848:Drivers/STM32H5xx_HAL_Driver/Src/stm32h5xx_ll_usb.c **** {
 2162              		.loc 1 848 1 is_stmt 1 view -0
 2163              		.cfi_startproc
 2164              		@ args = 0, pretend = 0, frame = 0
 2165              		@ frame_needed = 0, uses_anonymous_args = 0
 2166              		@ link register save eliminated.
 849:Drivers/STM32H5xx_HAL_Driver/Src/stm32h5xx_ll_usb.c ****   USBx->CNTR |= USB_CNTR_L2RES;
 2167              		.loc 1 849 3 view .LVU712
 2168              		.loc 1 849 7 is_stmt 0 view .LVU713
 2169 0000 036C     		ldr	r3, [r0, #64]
 2170              		.loc 1 849 14 view .LVU714
ARM GAS  C:\Users\sapph\AppData\Local\Temp\cchEHrSS.s 			page 58


 2171 0002 43F01003 		orr	r3, r3, #16
 2172 0006 0364     		str	r3, [r0, #64]
 850:Drivers/STM32H5xx_HAL_Driver/Src/stm32h5xx_ll_usb.c **** 
 851:Drivers/STM32H5xx_HAL_Driver/Src/stm32h5xx_ll_usb.c ****   return HAL_OK;
 2173              		.loc 1 851 3 is_stmt 1 view .LVU715
 852:Drivers/STM32H5xx_HAL_Driver/Src/stm32h5xx_ll_usb.c **** }
 2174              		.loc 1 852 1 is_stmt 0 view .LVU716
 2175 0008 0020     		movs	r0, #0
 2176              	.LVL244:
 2177              		.loc 1 852 1 view .LVU717
 2178 000a 7047     		bx	lr
 2179              		.cfi_endproc
 2180              	.LFE179:
 2182              		.section	.text.USB_DeActivateRemoteWakeup,"ax",%progbits
 2183              		.align	1
 2184              		.global	USB_DeActivateRemoteWakeup
 2185              		.syntax unified
 2186              		.thumb
 2187              		.thumb_func
 2189              	USB_DeActivateRemoteWakeup:
 2190              	.LVL245:
 2191              	.LFB180:
 853:Drivers/STM32H5xx_HAL_Driver/Src/stm32h5xx_ll_usb.c **** 
 854:Drivers/STM32H5xx_HAL_Driver/Src/stm32h5xx_ll_usb.c **** /**
 855:Drivers/STM32H5xx_HAL_Driver/Src/stm32h5xx_ll_usb.c ****   * @brief  USB_DeActivateRemoteWakeup de-active remote wakeup signalling
 856:Drivers/STM32H5xx_HAL_Driver/Src/stm32h5xx_ll_usb.c ****   * @param  USBx Selected device
 857:Drivers/STM32H5xx_HAL_Driver/Src/stm32h5xx_ll_usb.c ****   * @retval HAL status
 858:Drivers/STM32H5xx_HAL_Driver/Src/stm32h5xx_ll_usb.c ****   */
 859:Drivers/STM32H5xx_HAL_Driver/Src/stm32h5xx_ll_usb.c **** HAL_StatusTypeDef USB_DeActivateRemoteWakeup(USB_DRD_TypeDef *USBx)
 860:Drivers/STM32H5xx_HAL_Driver/Src/stm32h5xx_ll_usb.c **** {
 2192              		.loc 1 860 1 is_stmt 1 view -0
 2193              		.cfi_startproc
 2194              		@ args = 0, pretend = 0, frame = 0
 2195              		@ frame_needed = 0, uses_anonymous_args = 0
 2196              		@ link register save eliminated.
 861:Drivers/STM32H5xx_HAL_Driver/Src/stm32h5xx_ll_usb.c ****   USBx->CNTR &= ~USB_CNTR_L2RES;
 2197              		.loc 1 861 3 view .LVU719
 2198              		.loc 1 861 7 is_stmt 0 view .LVU720
 2199 0000 036C     		ldr	r3, [r0, #64]
 2200              		.loc 1 861 14 view .LVU721
 2201 0002 23F01003 		bic	r3, r3, #16
 2202 0006 0364     		str	r3, [r0, #64]
 862:Drivers/STM32H5xx_HAL_Driver/Src/stm32h5xx_ll_usb.c **** 
 863:Drivers/STM32H5xx_HAL_Driver/Src/stm32h5xx_ll_usb.c ****   return HAL_OK;
 2203              		.loc 1 863 3 is_stmt 1 view .LVU722
 864:Drivers/STM32H5xx_HAL_Driver/Src/stm32h5xx_ll_usb.c **** }
 2204              		.loc 1 864 1 is_stmt 0 view .LVU723
 2205 0008 0020     		movs	r0, #0
 2206              	.LVL246:
 2207              		.loc 1 864 1 view .LVU724
 2208 000a 7047     		bx	lr
 2209              		.cfi_endproc
 2210              	.LFE180:
 2212              		.section	.text.USB_WritePMA,"ax",%progbits
 2213              		.align	1
 2214              		.global	USB_WritePMA
 2215              		.syntax unified
ARM GAS  C:\Users\sapph\AppData\Local\Temp\cchEHrSS.s 			page 59


 2216              		.thumb
 2217              		.thumb_func
 2219              	USB_WritePMA:
 2220              	.LVL247:
 2221              	.LFB181:
 865:Drivers/STM32H5xx_HAL_Driver/Src/stm32h5xx_ll_usb.c **** 
 866:Drivers/STM32H5xx_HAL_Driver/Src/stm32h5xx_ll_usb.c **** /**
 867:Drivers/STM32H5xx_HAL_Driver/Src/stm32h5xx_ll_usb.c ****   * @brief Copy a buffer from user memory area to packet memory area (PMA)
 868:Drivers/STM32H5xx_HAL_Driver/Src/stm32h5xx_ll_usb.c ****   * @param   USBx USB peripheral instance register address.
 869:Drivers/STM32H5xx_HAL_Driver/Src/stm32h5xx_ll_usb.c ****   * @param   pbUsrBuf pointer to user memory area.
 870:Drivers/STM32H5xx_HAL_Driver/Src/stm32h5xx_ll_usb.c ****   * @param   wPMABufAddr address into PMA.
 871:Drivers/STM32H5xx_HAL_Driver/Src/stm32h5xx_ll_usb.c ****   * @param   wNBytes no. of bytes to be copied.
 872:Drivers/STM32H5xx_HAL_Driver/Src/stm32h5xx_ll_usb.c ****   * @retval None
 873:Drivers/STM32H5xx_HAL_Driver/Src/stm32h5xx_ll_usb.c ****   */
 874:Drivers/STM32H5xx_HAL_Driver/Src/stm32h5xx_ll_usb.c **** void USB_WritePMA(USB_DRD_TypeDef const *USBx, uint8_t *pbUsrBuf, uint16_t wPMABufAddr, uint16_t wN
 875:Drivers/STM32H5xx_HAL_Driver/Src/stm32h5xx_ll_usb.c **** {
 2222              		.loc 1 875 1 is_stmt 1 view -0
 2223              		.cfi_startproc
 2224              		@ args = 0, pretend = 0, frame = 0
 2225              		@ frame_needed = 0, uses_anonymous_args = 0
 2226              		.loc 1 875 1 is_stmt 0 view .LVU726
 2227 0000 10B5     		push	{r4, lr}
 2228              		.cfi_def_cfa_offset 8
 2229              		.cfi_offset 4, -8
 2230              		.cfi_offset 14, -4
 876:Drivers/STM32H5xx_HAL_Driver/Src/stm32h5xx_ll_usb.c ****   UNUSED(USBx);
 2231              		.loc 1 876 3 is_stmt 1 view .LVU727
 877:Drivers/STM32H5xx_HAL_Driver/Src/stm32h5xx_ll_usb.c ****   uint32_t WrVal;
 2232              		.loc 1 877 3 view .LVU728
 878:Drivers/STM32H5xx_HAL_Driver/Src/stm32h5xx_ll_usb.c ****   uint32_t count;
 2233              		.loc 1 878 3 view .LVU729
 879:Drivers/STM32H5xx_HAL_Driver/Src/stm32h5xx_ll_usb.c ****   __IO uint32_t *pdwVal;
 2234              		.loc 1 879 3 view .LVU730
 880:Drivers/STM32H5xx_HAL_Driver/Src/stm32h5xx_ll_usb.c ****   uint32_t NbWords = ((uint32_t)wNBytes + 3U) >> 2U;
 2235              		.loc 1 880 3 view .LVU731
 2236              		.loc 1 880 41 is_stmt 0 view .LVU732
 2237 0002 D81C     		adds	r0, r3, #3
 2238              	.LVL248:
 2239              		.loc 1 880 12 view .LVU733
 2240 0004 8008     		lsrs	r0, r0, #2
 2241              	.LVL249:
 881:Drivers/STM32H5xx_HAL_Driver/Src/stm32h5xx_ll_usb.c ****   /* Due to the PMA access 32bit only so the last non word data should be processed alone */
 882:Drivers/STM32H5xx_HAL_Driver/Src/stm32h5xx_ll_usb.c ****   uint16_t remaining_bytes = wNBytes % 4U;
 2242              		.loc 1 882 3 is_stmt 1 view .LVU734
 883:Drivers/STM32H5xx_HAL_Driver/Src/stm32h5xx_ll_usb.c ****   uint8_t *pBuf = pbUsrBuf;
 2243              		.loc 1 883 3 view .LVU735
 884:Drivers/STM32H5xx_HAL_Driver/Src/stm32h5xx_ll_usb.c **** 
 885:Drivers/STM32H5xx_HAL_Driver/Src/stm32h5xx_ll_usb.c ****   /* Check if there is a remaining byte */
 886:Drivers/STM32H5xx_HAL_Driver/Src/stm32h5xx_ll_usb.c ****   if (remaining_bytes != 0U)
 2244              		.loc 1 886 3 view .LVU736
 2245              		.loc 1 886 6 is_stmt 0 view .LVU737
 2246 0006 13F00303 		ands	r3, r3, #3
 2247              	.LVL250:
 2248              		.loc 1 886 6 view .LVU738
 2249 000a 00D0     		beq	.L98
 887:Drivers/STM32H5xx_HAL_Driver/Src/stm32h5xx_ll_usb.c ****   {
 888:Drivers/STM32H5xx_HAL_Driver/Src/stm32h5xx_ll_usb.c ****     NbWords--;
ARM GAS  C:\Users\sapph\AppData\Local\Temp\cchEHrSS.s 			page 60


 2250              		.loc 1 888 5 is_stmt 1 view .LVU739
 2251              		.loc 1 888 12 is_stmt 0 view .LVU740
 2252 000c 0138     		subs	r0, r0, #1
 2253              	.LVL251:
 2254              	.L98:
 889:Drivers/STM32H5xx_HAL_Driver/Src/stm32h5xx_ll_usb.c ****   }
 890:Drivers/STM32H5xx_HAL_Driver/Src/stm32h5xx_ll_usb.c **** 
 891:Drivers/STM32H5xx_HAL_Driver/Src/stm32h5xx_ll_usb.c ****   /* Get the PMA Buffer pointer */
 892:Drivers/STM32H5xx_HAL_Driver/Src/stm32h5xx_ll_usb.c ****   pdwVal = (__IO uint32_t *)(USB_DRD_PMAADDR + (uint32_t)wPMABufAddr);
 2255              		.loc 1 892 3 is_stmt 1 view .LVU741
 2256              		.loc 1 892 46 is_stmt 0 view .LVU742
 2257 000e 02F18042 		add	r2, r2, #1073741824
 2258              	.LVL252:
 2259              		.loc 1 892 46 view .LVU743
 2260 0012 02F5B232 		add	r2, r2, #91136
 2261              	.LVL253:
 893:Drivers/STM32H5xx_HAL_Driver/Src/stm32h5xx_ll_usb.c **** 
 894:Drivers/STM32H5xx_HAL_Driver/Src/stm32h5xx_ll_usb.c ****   /* Write the Calculated Word into the PMA related Buffer */
 895:Drivers/STM32H5xx_HAL_Driver/Src/stm32h5xx_ll_usb.c ****   for (count = NbWords; count != 0U; count--)
 2262              		.loc 1 895 3 is_stmt 1 view .LVU744
 2263              		.loc 1 895 3 is_stmt 0 view .LVU745
 2264 0016 04E0     		b	.L99
 2265              	.LVL254:
 2266              	.L100:
 896:Drivers/STM32H5xx_HAL_Driver/Src/stm32h5xx_ll_usb.c ****   {
 897:Drivers/STM32H5xx_HAL_Driver/Src/stm32h5xx_ll_usb.c ****     *pdwVal = __UNALIGNED_UINT32_READ(pBuf);
 2267              		.loc 1 897 5 is_stmt 1 view .LVU746
 2268              		.loc 1 897 15 is_stmt 0 view .LVU747
 2269 0018 51F8044B 		ldr	r4, [r1], #4	@ unaligned
 2270              	.LVL255:
 2271              		.loc 1 897 13 view .LVU748
 2272 001c 42F8044B 		str	r4, [r2], #4
 2273              	.LVL256:
 898:Drivers/STM32H5xx_HAL_Driver/Src/stm32h5xx_ll_usb.c ****     pdwVal++;
 2274              		.loc 1 898 5 is_stmt 1 view .LVU749
 899:Drivers/STM32H5xx_HAL_Driver/Src/stm32h5xx_ll_usb.c ****     /* Increment pBuf 4 Time as Word Increment */
 900:Drivers/STM32H5xx_HAL_Driver/Src/stm32h5xx_ll_usb.c ****     pBuf++;
 2275              		.loc 1 900 5 view .LVU750
 901:Drivers/STM32H5xx_HAL_Driver/Src/stm32h5xx_ll_usb.c ****     pBuf++;
 2276              		.loc 1 901 5 view .LVU751
 902:Drivers/STM32H5xx_HAL_Driver/Src/stm32h5xx_ll_usb.c ****     pBuf++;
 2277              		.loc 1 902 5 view .LVU752
 903:Drivers/STM32H5xx_HAL_Driver/Src/stm32h5xx_ll_usb.c ****     pBuf++;
 2278              		.loc 1 903 5 view .LVU753
 895:Drivers/STM32H5xx_HAL_Driver/Src/stm32h5xx_ll_usb.c ****   {
 2279              		.loc 1 895 43 discriminator 3 view .LVU754
 2280 0020 0138     		subs	r0, r0, #1
 2281              	.LVL257:
 2282              	.L99:
 895:Drivers/STM32H5xx_HAL_Driver/Src/stm32h5xx_ll_usb.c ****   {
 2283              		.loc 1 895 31 discriminator 1 view .LVU755
 2284 0022 0028     		cmp	r0, #0
 2285 0024 F8D1     		bne	.L100
 904:Drivers/STM32H5xx_HAL_Driver/Src/stm32h5xx_ll_usb.c ****   }
 905:Drivers/STM32H5xx_HAL_Driver/Src/stm32h5xx_ll_usb.c **** 
 906:Drivers/STM32H5xx_HAL_Driver/Src/stm32h5xx_ll_usb.c ****   /* When Number of data is not word aligned, write the remaining Byte */
 907:Drivers/STM32H5xx_HAL_Driver/Src/stm32h5xx_ll_usb.c ****   if (remaining_bytes != 0U)
ARM GAS  C:\Users\sapph\AppData\Local\Temp\cchEHrSS.s 			page 61


 2286              		.loc 1 907 3 view .LVU756
 2287              		.loc 1 907 6 is_stmt 0 view .LVU757
 2288 0026 73B1     		cbz	r3, .L97
 2289 0028 0446     		mov	r4, r0
 2290              	.LVL258:
 2291              	.L102:
 908:Drivers/STM32H5xx_HAL_Driver/Src/stm32h5xx_ll_usb.c ****   {
 909:Drivers/STM32H5xx_HAL_Driver/Src/stm32h5xx_ll_usb.c ****     WrVal = 0U;
 910:Drivers/STM32H5xx_HAL_Driver/Src/stm32h5xx_ll_usb.c **** 
 911:Drivers/STM32H5xx_HAL_Driver/Src/stm32h5xx_ll_usb.c ****     do
 2292              		.loc 1 911 5 is_stmt 1 view .LVU758
 912:Drivers/STM32H5xx_HAL_Driver/Src/stm32h5xx_ll_usb.c ****     {
 913:Drivers/STM32H5xx_HAL_Driver/Src/stm32h5xx_ll_usb.c ****       WrVal |= (uint32_t)(*(uint8_t *)pBuf) << (8U * count);
 2293              		.loc 1 913 7 view .LVU759
 2294              		.loc 1 913 27 is_stmt 0 view .LVU760
 2295 002a 11F801CB 		ldrb	ip, [r1], #1	@ zero_extendqisi2
 2296              	.LVL259:
 2297              		.loc 1 913 52 view .LVU761
 2298 002e 4FEAC40E 		lsl	lr, r4, #3
 2299              		.loc 1 913 45 view .LVU762
 2300 0032 0CFA0EFC 		lsl	ip, ip, lr
 2301              		.loc 1 913 13 view .LVU763
 2302 0036 40EA0C00 		orr	r0, r0, ip
 2303              	.LVL260:
 914:Drivers/STM32H5xx_HAL_Driver/Src/stm32h5xx_ll_usb.c ****       count++;
 2304              		.loc 1 914 7 is_stmt 1 view .LVU764
 2305              		.loc 1 914 12 is_stmt 0 view .LVU765
 2306 003a 0134     		adds	r4, r4, #1
 2307              	.LVL261:
 915:Drivers/STM32H5xx_HAL_Driver/Src/stm32h5xx_ll_usb.c ****       pBuf++;
 2308              		.loc 1 915 7 is_stmt 1 view .LVU766
 916:Drivers/STM32H5xx_HAL_Driver/Src/stm32h5xx_ll_usb.c ****       remaining_bytes--;
 2309              		.loc 1 916 7 view .LVU767
 2310              		.loc 1 916 22 is_stmt 0 view .LVU768
 2311 003c 013B     		subs	r3, r3, #1
 2312              	.LVL262:
 2313              		.loc 1 916 22 view .LVU769
 2314 003e 9BB2     		uxth	r3, r3
 2315              	.LVL263:
 917:Drivers/STM32H5xx_HAL_Driver/Src/stm32h5xx_ll_usb.c ****     } while (remaining_bytes != 0U);
 2316              		.loc 1 917 30 is_stmt 1 discriminator 1 view .LVU770
 2317 0040 002B     		cmp	r3, #0
 2318 0042 F2D1     		bne	.L102
 918:Drivers/STM32H5xx_HAL_Driver/Src/stm32h5xx_ll_usb.c **** 
 919:Drivers/STM32H5xx_HAL_Driver/Src/stm32h5xx_ll_usb.c ****     *pdwVal = WrVal;
 2319              		.loc 1 919 5 view .LVU771
 2320              		.loc 1 919 13 is_stmt 0 view .LVU772
 2321 0044 1060     		str	r0, [r2]
 2322              	.LVL264:
 2323              	.L97:
 920:Drivers/STM32H5xx_HAL_Driver/Src/stm32h5xx_ll_usb.c ****   }
 921:Drivers/STM32H5xx_HAL_Driver/Src/stm32h5xx_ll_usb.c **** }
 2324              		.loc 1 921 1 view .LVU773
 2325 0046 10BD     		pop	{r4, pc}
 2326              		.cfi_endproc
 2327              	.LFE181:
 2329              		.section	.text.USB_EPStartXfer,"ax",%progbits
ARM GAS  C:\Users\sapph\AppData\Local\Temp\cchEHrSS.s 			page 62


 2330              		.align	1
 2331              		.global	USB_EPStartXfer
 2332              		.syntax unified
 2333              		.thumb
 2334              		.thumb_func
 2336              	USB_EPStartXfer:
 2337              	.LVL265:
 2338              	.LFB170:
 455:Drivers/STM32H5xx_HAL_Driver/Src/stm32h5xx_ll_usb.c ****   uint32_t len;
 2339              		.loc 1 455 1 is_stmt 1 view -0
 2340              		.cfi_startproc
 2341              		@ args = 0, pretend = 0, frame = 0
 2342              		@ frame_needed = 0, uses_anonymous_args = 0
 455:Drivers/STM32H5xx_HAL_Driver/Src/stm32h5xx_ll_usb.c ****   uint32_t len;
 2343              		.loc 1 455 1 is_stmt 0 view .LVU775
 2344 0000 70B5     		push	{r4, r5, r6, lr}
 2345              		.cfi_def_cfa_offset 16
 2346              		.cfi_offset 4, -16
 2347              		.cfi_offset 5, -12
 2348              		.cfi_offset 6, -8
 2349              		.cfi_offset 14, -4
 2350 0002 0546     		mov	r5, r0
 2351 0004 0C46     		mov	r4, r1
 456:Drivers/STM32H5xx_HAL_Driver/Src/stm32h5xx_ll_usb.c **** #if (USE_USB_DOUBLE_BUFFER == 1U)
 2352              		.loc 1 456 3 is_stmt 1 view .LVU776
 458:Drivers/STM32H5xx_HAL_Driver/Src/stm32h5xx_ll_usb.c ****   uint16_t wEPVal;
 2353              		.loc 1 458 3 view .LVU777
 459:Drivers/STM32H5xx_HAL_Driver/Src/stm32h5xx_ll_usb.c **** #endif /* (USE_USB_DOUBLE_BUFFER == 1U) */
 2354              		.loc 1 459 3 view .LVU778
 463:Drivers/STM32H5xx_HAL_Driver/Src/stm32h5xx_ll_usb.c ****   {
 2355              		.loc 1 463 3 view .LVU779
 463:Drivers/STM32H5xx_HAL_Driver/Src/stm32h5xx_ll_usb.c ****   {
 2356              		.loc 1 463 9 is_stmt 0 view .LVU780
 2357 0006 4B78     		ldrb	r3, [r1, #1]	@ zero_extendqisi2
 463:Drivers/STM32H5xx_HAL_Driver/Src/stm32h5xx_ll_usb.c ****   {
 2358              		.loc 1 463 6 view .LVU781
 2359 0008 012B     		cmp	r3, #1
 2360 000a 30D0     		beq	.L189
 599:Drivers/STM32H5xx_HAL_Driver/Src/stm32h5xx_ll_usb.c ****     {
 2361              		.loc 1 599 5 is_stmt 1 view .LVU782
 599:Drivers/STM32H5xx_HAL_Driver/Src/stm32h5xx_ll_usb.c ****     {
 2362              		.loc 1 599 11 is_stmt 0 view .LVU783
 2363 000c 0A7B     		ldrb	r2, [r1, #12]	@ zero_extendqisi2
 599:Drivers/STM32H5xx_HAL_Driver/Src/stm32h5xx_ll_usb.c ****     {
 2364              		.loc 1 599 8 view .LVU784
 2365 000e 002A     		cmp	r2, #0
 2366 0010 40F0FC82 		bne	.L154
 602:Drivers/STM32H5xx_HAL_Driver/Src/stm32h5xx_ll_usb.c ****       {
 2367              		.loc 1 602 7 is_stmt 1 view .LVU785
 602:Drivers/STM32H5xx_HAL_Driver/Src/stm32h5xx_ll_usb.c ****       {
 2368              		.loc 1 602 13 is_stmt 0 view .LVU786
 2369 0014 8B69     		ldr	r3, [r1, #24]
 602:Drivers/STM32H5xx_HAL_Driver/Src/stm32h5xx_ll_usb.c ****       {
 2370              		.loc 1 602 28 view .LVU787
 2371 0016 0A69     		ldr	r2, [r1, #16]
 602:Drivers/STM32H5xx_HAL_Driver/Src/stm32h5xx_ll_usb.c ****       {
 2372              		.loc 1 602 10 view .LVU788
ARM GAS  C:\Users\sapph\AppData\Local\Temp\cchEHrSS.s 			page 63


 2373 0018 9342     		cmp	r3, r2
 2374 001a 40F2CF82 		bls	.L155
 604:Drivers/STM32H5xx_HAL_Driver/Src/stm32h5xx_ll_usb.c ****         ep->xfer_len -= len;
 2375              		.loc 1 604 9 is_stmt 1 view .LVU789
 2376              	.LVL266:
 605:Drivers/STM32H5xx_HAL_Driver/Src/stm32h5xx_ll_usb.c ****       }
 2377              		.loc 1 605 9 view .LVU790
 605:Drivers/STM32H5xx_HAL_Driver/Src/stm32h5xx_ll_usb.c ****       }
 2378              		.loc 1 605 22 is_stmt 0 view .LVU791
 2379 001e 9B1A     		subs	r3, r3, r2
 2380 0020 8B61     		str	r3, [r1, #24]
 2381              	.L156:
 613:Drivers/STM32H5xx_HAL_Driver/Src/stm32h5xx_ll_usb.c ****     }
 2382              		.loc 1 613 7 is_stmt 1 view .LVU792
 2383              	.LBB60:
 613:Drivers/STM32H5xx_HAL_Driver/Src/stm32h5xx_ll_usb.c ****     }
 2384              		.loc 1 613 7 view .LVU793
 613:Drivers/STM32H5xx_HAL_Driver/Src/stm32h5xx_ll_usb.c ****     }
 2385              		.loc 1 613 7 view .LVU794
 2386 0022 2378     		ldrb	r3, [r4]	@ zero_extendqisi2
 2387 0024 DB00     		lsls	r3, r3, #3
 2388 0026 03F18043 		add	r3, r3, #1073741824
 2389 002a 03F5B233 		add	r3, r3, #91136
 2390 002e 5968     		ldr	r1, [r3, #4]
 2391              	.LVL267:
 613:Drivers/STM32H5xx_HAL_Driver/Src/stm32h5xx_ll_usb.c ****     }
 2392              		.loc 1 613 7 is_stmt 0 view .LVU795
 2393 0030 21F07C41 		bic	r1, r1, #-67108864
 2394 0034 5960     		str	r1, [r3, #4]
 613:Drivers/STM32H5xx_HAL_Driver/Src/stm32h5xx_ll_usb.c ****     }
 2395              		.loc 1 613 7 is_stmt 1 view .LVU796
 2396 0036 002A     		cmp	r2, #0
 2397 0038 40F0C482 		bne	.L157
 613:Drivers/STM32H5xx_HAL_Driver/Src/stm32h5xx_ll_usb.c ****     }
 2398              		.loc 1 613 7 discriminator 1 view .LVU797
 2399 003c 2378     		ldrb	r3, [r4]	@ zero_extendqisi2
 2400 003e DB00     		lsls	r3, r3, #3
 2401 0040 03F18043 		add	r3, r3, #1073741824
 2402 0044 03F5B233 		add	r3, r3, #91136
 2403 0048 5A68     		ldr	r2, [r3, #4]
 2404              	.LVL268:
 613:Drivers/STM32H5xx_HAL_Driver/Src/stm32h5xx_ll_usb.c ****     }
 2405              		.loc 1 613 7 is_stmt 0 discriminator 1 view .LVU798
 2406 004a 42F00042 		orr	r2, r2, #-2147483648
 2407 004e 5A60     		str	r2, [r3, #4]
 2408              	.LVL269:
 2409              	.L158:
 613:Drivers/STM32H5xx_HAL_Driver/Src/stm32h5xx_ll_usb.c ****     }
 2410              		.loc 1 613 7 discriminator 1 view .LVU799
 2411              	.LBE60:
 661:Drivers/STM32H5xx_HAL_Driver/Src/stm32h5xx_ll_usb.c ****   }
 2412              		.loc 1 661 5 is_stmt 1 view .LVU800
 2413              	.LBB61:
 661:Drivers/STM32H5xx_HAL_Driver/Src/stm32h5xx_ll_usb.c ****   }
 2414              		.loc 1 661 5 view .LVU801
 661:Drivers/STM32H5xx_HAL_Driver/Src/stm32h5xx_ll_usb.c ****   }
 2415              		.loc 1 661 5 view .LVU802
ARM GAS  C:\Users\sapph\AppData\Local\Temp\cchEHrSS.s 			page 64


 2416 0050 2278     		ldrb	r2, [r4]	@ zero_extendqisi2
 2417 0052 55F82210 		ldr	r1, [r5, r2, lsl #2]
 2418 0056 B14B     		ldr	r3, .L198
 2419 0058 0B40     		ands	r3, r3, r1
 2420              	.LVL270:
 661:Drivers/STM32H5xx_HAL_Driver/Src/stm32h5xx_ll_usb.c ****   }
 2421              		.loc 1 661 5 view .LVU803
 661:Drivers/STM32H5xx_HAL_Driver/Src/stm32h5xx_ll_usb.c ****   }
 2422              		.loc 1 661 5 discriminator 1 view .LVU804
 661:Drivers/STM32H5xx_HAL_Driver/Src/stm32h5xx_ll_usb.c ****   }
 2423              		.loc 1 661 5 discriminator 3 view .LVU805
 661:Drivers/STM32H5xx_HAL_Driver/Src/stm32h5xx_ll_usb.c ****   }
 2424              		.loc 1 661 5 discriminator 4 view .LVU806
 2425 005a 83F44053 		eor	r3, r3, #12288
 2426              	.LVL271:
 661:Drivers/STM32H5xx_HAL_Driver/Src/stm32h5xx_ll_usb.c ****   }
 2427              		.loc 1 661 5 discriminator 6 view .LVU807
 2428 005e 43F40043 		orr	r3, r3, #32768
 2429              	.LVL272:
 661:Drivers/STM32H5xx_HAL_Driver/Src/stm32h5xx_ll_usb.c ****   }
 2430              		.loc 1 661 5 is_stmt 0 discriminator 6 view .LVU808
 2431 0062 43F08003 		orr	r3, r3, #128
 2432 0066 45F82230 		str	r3, [r5, r2, lsl #2]
 2433              	.LBE61:
 664:Drivers/STM32H5xx_HAL_Driver/Src/stm32h5xx_ll_usb.c **** }
 2434              		.loc 1 664 10 view .LVU809
 2435 006a 0020     		movs	r0, #0
 2436              	.LVL273:
 2437              	.L153:
 665:Drivers/STM32H5xx_HAL_Driver/Src/stm32h5xx_ll_usb.c **** 
 2438              		.loc 1 665 1 view .LVU810
 2439 006c 70BD     		pop	{r4, r5, r6, pc}
 2440              	.LVL274:
 2441              	.L189:
 466:Drivers/STM32H5xx_HAL_Driver/Src/stm32h5xx_ll_usb.c ****     {
 2442              		.loc 1 466 5 is_stmt 1 view .LVU811
 466:Drivers/STM32H5xx_HAL_Driver/Src/stm32h5xx_ll_usb.c ****     {
 2443              		.loc 1 466 11 is_stmt 0 view .LVU812
 2444 006e 8E69     		ldr	r6, [r1, #24]
 466:Drivers/STM32H5xx_HAL_Driver/Src/stm32h5xx_ll_usb.c ****     {
 2445              		.loc 1 466 26 view .LVU813
 2446 0070 0A69     		ldr	r2, [r1, #16]
 466:Drivers/STM32H5xx_HAL_Driver/Src/stm32h5xx_ll_usb.c ****     {
 2447              		.loc 1 466 8 view .LVU814
 2448 0072 9642     		cmp	r6, r2
 2449 0074 00D9     		bls	.L106
 468:Drivers/STM32H5xx_HAL_Driver/Src/stm32h5xx_ll_usb.c ****     }
 2450              		.loc 1 468 11 view .LVU815
 2451 0076 1646     		mov	r6, r2
 2452              	.L106:
 2453              	.LVL275:
 476:Drivers/STM32H5xx_HAL_Driver/Src/stm32h5xx_ll_usb.c ****     {
 2454              		.loc 1 476 5 is_stmt 1 view .LVU816
 476:Drivers/STM32H5xx_HAL_Driver/Src/stm32h5xx_ll_usb.c ****     {
 2455              		.loc 1 476 11 is_stmt 0 view .LVU817
 2456 0078 217B     		ldrb	r1, [r4, #12]	@ zero_extendqisi2
 2457              	.LVL276:
ARM GAS  C:\Users\sapph\AppData\Local\Temp\cchEHrSS.s 			page 65


 476:Drivers/STM32H5xx_HAL_Driver/Src/stm32h5xx_ll_usb.c ****     {
 2458              		.loc 1 476 8 view .LVU818
 2459 007a 31B3     		cbz	r1, .L190
 485:Drivers/STM32H5xx_HAL_Driver/Src/stm32h5xx_ll_usb.c ****       {
 2460              		.loc 1 485 7 is_stmt 1 view .LVU819
 485:Drivers/STM32H5xx_HAL_Driver/Src/stm32h5xx_ll_usb.c ****       {
 2461              		.loc 1 485 13 is_stmt 0 view .LVU820
 2462 007c E178     		ldrb	r1, [r4, #3]	@ zero_extendqisi2
 485:Drivers/STM32H5xx_HAL_Driver/Src/stm32h5xx_ll_usb.c ****       {
 2463              		.loc 1 485 10 view .LVU821
 2464 007e 0229     		cmp	r1, #2
 2465 0080 4BD0     		beq	.L191
 570:Drivers/STM32H5xx_HAL_Driver/Src/stm32h5xx_ll_usb.c **** 
 2466              		.loc 1 570 9 is_stmt 1 view .LVU822
 570:Drivers/STM32H5xx_HAL_Driver/Src/stm32h5xx_ll_usb.c **** 
 2467              		.loc 1 570 11 is_stmt 0 view .LVU823
 2468 0082 226A     		ldr	r2, [r4, #32]
 570:Drivers/STM32H5xx_HAL_Driver/Src/stm32h5xx_ll_usb.c **** 
 2469              		.loc 1 570 25 view .LVU824
 2470 0084 921B     		subs	r2, r2, r6
 2471 0086 2262     		str	r2, [r4, #32]
 573:Drivers/STM32H5xx_HAL_Driver/Src/stm32h5xx_ll_usb.c ****         {
 2472              		.loc 1 573 9 is_stmt 1 view .LVU825
 573:Drivers/STM32H5xx_HAL_Driver/Src/stm32h5xx_ll_usb.c ****         {
 2473              		.loc 1 573 14 is_stmt 0 view .LVU826
 2474 0088 2278     		ldrb	r2, [r4]	@ zero_extendqisi2
 2475 008a 55F82210 		ldr	r1, [r5, r2, lsl #2]
 573:Drivers/STM32H5xx_HAL_Driver/Src/stm32h5xx_ll_usb.c ****         {
 2476              		.loc 1 573 12 view .LVU827
 2477 008e 11F0400F 		tst	r1, #64
 2478 0092 00F03F82 		beq	.L140
 576:Drivers/STM32H5xx_HAL_Driver/Src/stm32h5xx_ll_usb.c ****           pmabuffer = ep->pmaaddr1;
 2479              		.loc 1 576 11 is_stmt 1 view .LVU828
 576:Drivers/STM32H5xx_HAL_Driver/Src/stm32h5xx_ll_usb.c ****           pmabuffer = ep->pmaaddr1;
 2480              		.loc 1 576 11 view .LVU829
 2481 0096 002B     		cmp	r3, #0
 2482 0098 40F02382 		bne	.L141
 576:Drivers/STM32H5xx_HAL_Driver/Src/stm32h5xx_ll_usb.c ****           pmabuffer = ep->pmaaddr1;
 2483              		.loc 1 576 11 discriminator 1 view .LVU830
 2484              	.LBB62:
 576:Drivers/STM32H5xx_HAL_Driver/Src/stm32h5xx_ll_usb.c ****           pmabuffer = ep->pmaaddr1;
 2485              		.loc 1 576 11 discriminator 1 view .LVU831
 576:Drivers/STM32H5xx_HAL_Driver/Src/stm32h5xx_ll_usb.c ****           pmabuffer = ep->pmaaddr1;
 2486              		.loc 1 576 11 discriminator 1 view .LVU832
 2487 009c D200     		lsls	r2, r2, #3
 2488 009e 02F18042 		add	r2, r2, #1073741824
 2489 00a2 02F5B232 		add	r2, r2, #91136
 2490 00a6 5368     		ldr	r3, [r2, #4]
 2491 00a8 23F07C43 		bic	r3, r3, #-67108864
 2492 00ac 5360     		str	r3, [r2, #4]
 576:Drivers/STM32H5xx_HAL_Driver/Src/stm32h5xx_ll_usb.c ****           pmabuffer = ep->pmaaddr1;
 2493              		.loc 1 576 11 discriminator 1 view .LVU833
 2494 00ae 002E     		cmp	r6, #0
 2495 00b0 40F0F381 		bne	.L142
 576:Drivers/STM32H5xx_HAL_Driver/Src/stm32h5xx_ll_usb.c ****           pmabuffer = ep->pmaaddr1;
 2496              		.loc 1 576 11 discriminator 3 view .LVU834
 2497 00b4 2378     		ldrb	r3, [r4]	@ zero_extendqisi2
ARM GAS  C:\Users\sapph\AppData\Local\Temp\cchEHrSS.s 			page 66


 2498 00b6 DB00     		lsls	r3, r3, #3
 2499 00b8 03F18043 		add	r3, r3, #1073741824
 2500 00bc 03F5B233 		add	r3, r3, #91136
 2501 00c0 5A68     		ldr	r2, [r3, #4]
 2502 00c2 42F00042 		orr	r2, r2, #-2147483648
 2503 00c6 5A60     		str	r2, [r3, #4]
 2504 00c8 1DE2     		b	.L143
 2505              	.L190:
 2506              	.LBE62:
 478:Drivers/STM32H5xx_HAL_Driver/Src/stm32h5xx_ll_usb.c ****       PCD_SET_EP_TX_CNT(USBx, ep->num, len);
 2507              		.loc 1 478 7 view .LVU835
 2508 00ca B3B2     		uxth	r3, r6
 2509 00cc E288     		ldrh	r2, [r4, #6]
 2510 00ce 6169     		ldr	r1, [r4, #20]
 2511 00d0 2846     		mov	r0, r5
 2512              	.LVL277:
 478:Drivers/STM32H5xx_HAL_Driver/Src/stm32h5xx_ll_usb.c ****       PCD_SET_EP_TX_CNT(USBx, ep->num, len);
 2513              		.loc 1 478 7 is_stmt 0 view .LVU836
 2514 00d2 FFF7FEFF 		bl	USB_WritePMA
 2515              	.LVL278:
 479:Drivers/STM32H5xx_HAL_Driver/Src/stm32h5xx_ll_usb.c ****     }
 2516              		.loc 1 479 7 is_stmt 1 view .LVU837
 479:Drivers/STM32H5xx_HAL_Driver/Src/stm32h5xx_ll_usb.c ****     }
 2517              		.loc 1 479 7 view .LVU838
 2518 00d6 2378     		ldrb	r3, [r4]	@ zero_extendqisi2
 2519 00d8 DB00     		lsls	r3, r3, #3
 2520 00da 03F18043 		add	r3, r3, #1073741824
 2521 00de 03F5B233 		add	r3, r3, #91136
 2522 00e2 1A68     		ldr	r2, [r3]
 2523 00e4 92B2     		uxth	r2, r2
 2524 00e6 1A60     		str	r2, [r3]
 479:Drivers/STM32H5xx_HAL_Driver/Src/stm32h5xx_ll_usb.c ****     }
 2525              		.loc 1 479 7 view .LVU839
 2526 00e8 2378     		ldrb	r3, [r4]	@ zero_extendqisi2
 2527 00ea DB00     		lsls	r3, r3, #3
 2528 00ec 03F18043 		add	r3, r3, #1073741824
 2529 00f0 03F5B233 		add	r3, r3, #91136
 2530 00f4 1A68     		ldr	r2, [r3]
 2531 00f6 42EA0642 		orr	r2, r2, r6, lsl #16
 2532 00fa 1A60     		str	r2, [r3]
 479:Drivers/STM32H5xx_HAL_Driver/Src/stm32h5xx_ll_usb.c ****     }
 2533              		.loc 1 479 7 view .LVU840
 2534              	.LVL279:
 2535              	.L108:
 595:Drivers/STM32H5xx_HAL_Driver/Src/stm32h5xx_ll_usb.c ****   }
 2536              		.loc 1 595 5 view .LVU841
 2537              	.LBB63:
 595:Drivers/STM32H5xx_HAL_Driver/Src/stm32h5xx_ll_usb.c ****   }
 2538              		.loc 1 595 5 view .LVU842
 595:Drivers/STM32H5xx_HAL_Driver/Src/stm32h5xx_ll_usb.c ****   }
 2539              		.loc 1 595 5 view .LVU843
 2540 00fc 2278     		ldrb	r2, [r4]	@ zero_extendqisi2
 2541 00fe 55F82210 		ldr	r1, [r5, r2, lsl #2]
 2542 0102 874B     		ldr	r3, .L198+4
 2543 0104 0B40     		ands	r3, r3, r1
 2544              	.LVL280:
 595:Drivers/STM32H5xx_HAL_Driver/Src/stm32h5xx_ll_usb.c ****   }
ARM GAS  C:\Users\sapph\AppData\Local\Temp\cchEHrSS.s 			page 67


 2545              		.loc 1 595 5 view .LVU844
 595:Drivers/STM32H5xx_HAL_Driver/Src/stm32h5xx_ll_usb.c ****   }
 2546              		.loc 1 595 5 discriminator 1 view .LVU845
 595:Drivers/STM32H5xx_HAL_Driver/Src/stm32h5xx_ll_usb.c ****   }
 2547              		.loc 1 595 5 discriminator 3 view .LVU846
 595:Drivers/STM32H5xx_HAL_Driver/Src/stm32h5xx_ll_usb.c ****   }
 2548              		.loc 1 595 5 discriminator 4 view .LVU847
 2549 0106 83F03003 		eor	r3, r3, #48
 2550              	.LVL281:
 595:Drivers/STM32H5xx_HAL_Driver/Src/stm32h5xx_ll_usb.c ****   }
 2551              		.loc 1 595 5 discriminator 6 view .LVU848
 2552 010a 43F40043 		orr	r3, r3, #32768
 2553              	.LVL282:
 595:Drivers/STM32H5xx_HAL_Driver/Src/stm32h5xx_ll_usb.c ****   }
 2554              		.loc 1 595 5 is_stmt 0 discriminator 6 view .LVU849
 2555 010e 43F08003 		orr	r3, r3, #128
 2556 0112 45F82230 		str	r3, [r5, r2, lsl #2]
 2557              	.LBE63:
 595:Drivers/STM32H5xx_HAL_Driver/Src/stm32h5xx_ll_usb.c ****   }
 2558              		.loc 1 595 5 is_stmt 1 discriminator 6 view .LVU850
 664:Drivers/STM32H5xx_HAL_Driver/Src/stm32h5xx_ll_usb.c **** }
 2559              		.loc 1 664 10 is_stmt 0 view .LVU851
 2560 0116 0020     		movs	r0, #0
 2561 0118 A8E7     		b	.L153
 2562              	.LVL283:
 2563              	.L191:
 487:Drivers/STM32H5xx_HAL_Driver/Src/stm32h5xx_ll_usb.c ****         {
 2564              		.loc 1 487 9 is_stmt 1 view .LVU852
 487:Drivers/STM32H5xx_HAL_Driver/Src/stm32h5xx_ll_usb.c ****         {
 2565              		.loc 1 487 15 is_stmt 0 view .LVU853
 2566 011a 236A     		ldr	r3, [r4, #32]
 487:Drivers/STM32H5xx_HAL_Driver/Src/stm32h5xx_ll_usb.c ****         {
 2567              		.loc 1 487 12 view .LVU854
 2568 011c 9A42     		cmp	r2, r3
 2569 011e 80F09781 		bcs	.L110
 490:Drivers/STM32H5xx_HAL_Driver/Src/stm32h5xx_ll_usb.c **** 
 2570              		.loc 1 490 11 is_stmt 1 view .LVU855
 2571              	.LBB64:
 490:Drivers/STM32H5xx_HAL_Driver/Src/stm32h5xx_ll_usb.c **** 
 2572              		.loc 1 490 11 view .LVU856
 490:Drivers/STM32H5xx_HAL_Driver/Src/stm32h5xx_ll_usb.c **** 
 2573              		.loc 1 490 11 view .LVU857
 2574 0122 2278     		ldrb	r2, [r4]	@ zero_extendqisi2
 2575 0124 55F82210 		ldr	r1, [r5, r2, lsl #2]
 2576 0128 7E4B     		ldr	r3, .L198+8
 2577 012a 0B40     		ands	r3, r3, r1
 2578              	.LVL284:
 490:Drivers/STM32H5xx_HAL_Driver/Src/stm32h5xx_ll_usb.c **** 
 2579              		.loc 1 490 11 view .LVU858
 2580 012c 43F40143 		orr	r3, r3, #33024
 2581              	.LVL285:
 490:Drivers/STM32H5xx_HAL_Driver/Src/stm32h5xx_ll_usb.c **** 
 2582              		.loc 1 490 11 is_stmt 0 view .LVU859
 2583 0130 43F08003 		orr	r3, r3, #128
 2584 0134 45F82230 		str	r3, [r5, r2, lsl #2]
 2585              	.LBE64:
 490:Drivers/STM32H5xx_HAL_Driver/Src/stm32h5xx_ll_usb.c **** 
ARM GAS  C:\Users\sapph\AppData\Local\Temp\cchEHrSS.s 			page 68


 2586              		.loc 1 490 11 is_stmt 1 view .LVU860
 493:Drivers/STM32H5xx_HAL_Driver/Src/stm32h5xx_ll_usb.c **** 
 2587              		.loc 1 493 11 view .LVU861
 493:Drivers/STM32H5xx_HAL_Driver/Src/stm32h5xx_ll_usb.c **** 
 2588              		.loc 1 493 13 is_stmt 0 view .LVU862
 2589 0138 236A     		ldr	r3, [r4, #32]
 493:Drivers/STM32H5xx_HAL_Driver/Src/stm32h5xx_ll_usb.c **** 
 2590              		.loc 1 493 27 view .LVU863
 2591 013a 9B1B     		subs	r3, r3, r6
 2592 013c 2362     		str	r3, [r4, #32]
 496:Drivers/STM32H5xx_HAL_Driver/Src/stm32h5xx_ll_usb.c ****           {
 2593              		.loc 1 496 11 is_stmt 1 view .LVU864
 496:Drivers/STM32H5xx_HAL_Driver/Src/stm32h5xx_ll_usb.c ****           {
 2594              		.loc 1 496 16 is_stmt 0 view .LVU865
 2595 013e 2378     		ldrb	r3, [r4]	@ zero_extendqisi2
 2596 0140 55F82320 		ldr	r2, [r5, r3, lsl #2]
 496:Drivers/STM32H5xx_HAL_Driver/Src/stm32h5xx_ll_usb.c ****           {
 2597              		.loc 1 496 14 view .LVU866
 2598 0144 12F0400F 		tst	r2, #64
 2599 0148 00F0BE80 		beq	.L111
 499:Drivers/STM32H5xx_HAL_Driver/Src/stm32h5xx_ll_usb.c ****             pmabuffer = ep->pmaaddr1;
 2600              		.loc 1 499 13 is_stmt 1 view .LVU867
 499:Drivers/STM32H5xx_HAL_Driver/Src/stm32h5xx_ll_usb.c ****             pmabuffer = ep->pmaaddr1;
 2601              		.loc 1 499 13 view .LVU868
 2602 014c 6278     		ldrb	r2, [r4, #1]	@ zero_extendqisi2
 2603 014e 002A     		cmp	r2, #0
 2604 0150 38D1     		bne	.L112
 499:Drivers/STM32H5xx_HAL_Driver/Src/stm32h5xx_ll_usb.c ****             pmabuffer = ep->pmaaddr1;
 2605              		.loc 1 499 13 discriminator 1 view .LVU869
 2606              	.LBB65:
 499:Drivers/STM32H5xx_HAL_Driver/Src/stm32h5xx_ll_usb.c ****             pmabuffer = ep->pmaaddr1;
 2607              		.loc 1 499 13 discriminator 1 view .LVU870
 499:Drivers/STM32H5xx_HAL_Driver/Src/stm32h5xx_ll_usb.c ****             pmabuffer = ep->pmaaddr1;
 2608              		.loc 1 499 13 discriminator 1 view .LVU871
 2609 0152 DB00     		lsls	r3, r3, #3
 2610 0154 03F18043 		add	r3, r3, #1073741824
 2611 0158 03F5B233 		add	r3, r3, #91136
 2612 015c 5A68     		ldr	r2, [r3, #4]
 2613 015e 22F07C42 		bic	r2, r2, #-67108864
 2614 0162 5A60     		str	r2, [r3, #4]
 499:Drivers/STM32H5xx_HAL_Driver/Src/stm32h5xx_ll_usb.c ****             pmabuffer = ep->pmaaddr1;
 2615              		.loc 1 499 13 discriminator 1 view .LVU872
 2616 0164 56B9     		cbnz	r6, .L113
 499:Drivers/STM32H5xx_HAL_Driver/Src/stm32h5xx_ll_usb.c ****             pmabuffer = ep->pmaaddr1;
 2617              		.loc 1 499 13 discriminator 3 view .LVU873
 2618 0166 2378     		ldrb	r3, [r4]	@ zero_extendqisi2
 2619 0168 DB00     		lsls	r3, r3, #3
 2620 016a 03F18043 		add	r3, r3, #1073741824
 2621 016e 03F5B233 		add	r3, r3, #91136
 2622 0172 5A68     		ldr	r2, [r3, #4]
 2623 0174 42F00042 		orr	r2, r2, #-2147483648
 2624 0178 5A60     		str	r2, [r3, #4]
 2625 017a 25E0     		b	.L114
 2626              	.L113:
 499:Drivers/STM32H5xx_HAL_Driver/Src/stm32h5xx_ll_usb.c ****             pmabuffer = ep->pmaaddr1;
 2627              		.loc 1 499 13 discriminator 4 view .LVU874
 2628 017c 3E2E     		cmp	r6, #62
ARM GAS  C:\Users\sapph\AppData\Local\Temp\cchEHrSS.s 			page 69


 2629 017e 0FD8     		bhi	.L115
 499:Drivers/STM32H5xx_HAL_Driver/Src/stm32h5xx_ll_usb.c ****             pmabuffer = ep->pmaaddr1;
 2630              		.loc 1 499 13 discriminator 6 view .LVU875
 499:Drivers/STM32H5xx_HAL_Driver/Src/stm32h5xx_ll_usb.c ****             pmabuffer = ep->pmaaddr1;
 2631              		.loc 1 499 13 discriminator 6 view .LVU876
 2632 0180 7108     		lsrs	r1, r6, #1
 2633              	.LVL286:
 499:Drivers/STM32H5xx_HAL_Driver/Src/stm32h5xx_ll_usb.c ****             pmabuffer = ep->pmaaddr1;
 2634              		.loc 1 499 13 discriminator 6 view .LVU877
 2635 0182 16F0010F 		tst	r6, #1
 2636 0186 00D0     		beq	.L116
 499:Drivers/STM32H5xx_HAL_Driver/Src/stm32h5xx_ll_usb.c ****             pmabuffer = ep->pmaaddr1;
 2637              		.loc 1 499 13 discriminator 8 view .LVU878
 2638 0188 0131     		adds	r1, r1, #1
 2639              	.LVL287:
 2640              	.L116:
 499:Drivers/STM32H5xx_HAL_Driver/Src/stm32h5xx_ll_usb.c ****             pmabuffer = ep->pmaaddr1;
 2641              		.loc 1 499 13 discriminator 10 view .LVU879
 2642 018a 2378     		ldrb	r3, [r4]	@ zero_extendqisi2
 2643 018c DB00     		lsls	r3, r3, #3
 2644 018e 03F18043 		add	r3, r3, #1073741824
 2645 0192 03F5B233 		add	r3, r3, #91136
 2646 0196 5A68     		ldr	r2, [r3, #4]
 2647 0198 42EA8162 		orr	r2, r2, r1, lsl #26
 2648 019c 5A60     		str	r2, [r3, #4]
 499:Drivers/STM32H5xx_HAL_Driver/Src/stm32h5xx_ll_usb.c ****             pmabuffer = ep->pmaaddr1;
 2649              		.loc 1 499 13 discriminator 10 view .LVU880
 2650 019e 13E0     		b	.L114
 2651              	.LVL288:
 2652              	.L115:
 499:Drivers/STM32H5xx_HAL_Driver/Src/stm32h5xx_ll_usb.c ****             pmabuffer = ep->pmaaddr1;
 2653              		.loc 1 499 13 discriminator 7 view .LVU881
 499:Drivers/STM32H5xx_HAL_Driver/Src/stm32h5xx_ll_usb.c ****             pmabuffer = ep->pmaaddr1;
 2654              		.loc 1 499 13 discriminator 7 view .LVU882
 2655 01a0 7109     		lsrs	r1, r6, #5
 2656              	.LVL289:
 499:Drivers/STM32H5xx_HAL_Driver/Src/stm32h5xx_ll_usb.c ****             pmabuffer = ep->pmaaddr1;
 2657              		.loc 1 499 13 discriminator 7 view .LVU883
 2658 01a2 16F01F0F 		tst	r6, #31
 2659 01a6 00D1     		bne	.L117
 499:Drivers/STM32H5xx_HAL_Driver/Src/stm32h5xx_ll_usb.c ****             pmabuffer = ep->pmaaddr1;
 2660              		.loc 1 499 13 discriminator 12 view .LVU884
 2661 01a8 0139     		subs	r1, r1, #1
 2662              	.LVL290:
 2663              	.L117:
 499:Drivers/STM32H5xx_HAL_Driver/Src/stm32h5xx_ll_usb.c ****             pmabuffer = ep->pmaaddr1;
 2664              		.loc 1 499 13 discriminator 14 view .LVU885
 2665 01aa 2378     		ldrb	r3, [r4]	@ zero_extendqisi2
 2666 01ac DB00     		lsls	r3, r3, #3
 2667 01ae 03F18043 		add	r3, r3, #1073741824
 2668 01b2 03F5B233 		add	r3, r3, #91136
 2669 01b6 5A68     		ldr	r2, [r3, #4]
 2670 01b8 42EA8162 		orr	r2, r2, r1, lsl #26
 2671 01bc 42F00042 		orr	r2, r2, #-2147483648
 2672 01c0 5A60     		str	r2, [r3, #4]
 2673 01c2 01E0     		b	.L114
 2674              	.LVL291:
ARM GAS  C:\Users\sapph\AppData\Local\Temp\cchEHrSS.s 			page 70


 2675              	.L112:
 499:Drivers/STM32H5xx_HAL_Driver/Src/stm32h5xx_ll_usb.c ****             pmabuffer = ep->pmaaddr1;
 2676              		.loc 1 499 13 is_stmt 0 discriminator 14 view .LVU886
 2677              	.LBE65:
 499:Drivers/STM32H5xx_HAL_Driver/Src/stm32h5xx_ll_usb.c ****             pmabuffer = ep->pmaaddr1;
 2678              		.loc 1 499 13 is_stmt 1 discriminator 2 view .LVU887
 2679 01c4 012A     		cmp	r2, #1
 2680 01c6 27D0     		beq	.L192
 2681              	.LVL292:
 2682              	.L114:
 499:Drivers/STM32H5xx_HAL_Driver/Src/stm32h5xx_ll_usb.c ****             pmabuffer = ep->pmaaddr1;
 2683              		.loc 1 499 13 discriminator 18 view .LVU888
 500:Drivers/STM32H5xx_HAL_Driver/Src/stm32h5xx_ll_usb.c **** 
 2684              		.loc 1 500 13 view .LVU889
 503:Drivers/STM32H5xx_HAL_Driver/Src/stm32h5xx_ll_usb.c ****             ep->xfer_buff += len;
 2685              		.loc 1 503 13 view .LVU890
 2686 01c8 B3B2     		uxth	r3, r6
 2687 01ca 6289     		ldrh	r2, [r4, #10]
 2688 01cc 6169     		ldr	r1, [r4, #20]
 2689 01ce 2846     		mov	r0, r5
 2690              	.LVL293:
 503:Drivers/STM32H5xx_HAL_Driver/Src/stm32h5xx_ll_usb.c ****             ep->xfer_buff += len;
 2691              		.loc 1 503 13 is_stmt 0 view .LVU891
 2692 01d0 FFF7FEFF 		bl	USB_WritePMA
 2693              	.LVL294:
 504:Drivers/STM32H5xx_HAL_Driver/Src/stm32h5xx_ll_usb.c **** 
 2694              		.loc 1 504 13 is_stmt 1 view .LVU892
 504:Drivers/STM32H5xx_HAL_Driver/Src/stm32h5xx_ll_usb.c **** 
 2695              		.loc 1 504 15 is_stmt 0 view .LVU893
 2696 01d4 6369     		ldr	r3, [r4, #20]
 504:Drivers/STM32H5xx_HAL_Driver/Src/stm32h5xx_ll_usb.c **** 
 2697              		.loc 1 504 27 view .LVU894
 2698 01d6 3344     		add	r3, r3, r6
 2699 01d8 6361     		str	r3, [r4, #20]
 506:Drivers/STM32H5xx_HAL_Driver/Src/stm32h5xx_ll_usb.c ****             {
 2700              		.loc 1 506 13 is_stmt 1 view .LVU895
 506:Drivers/STM32H5xx_HAL_Driver/Src/stm32h5xx_ll_usb.c ****             {
 2701              		.loc 1 506 19 is_stmt 0 view .LVU896
 2702 01da 236A     		ldr	r3, [r4, #32]
 506:Drivers/STM32H5xx_HAL_Driver/Src/stm32h5xx_ll_usb.c ****             {
 2703              		.loc 1 506 37 view .LVU897
 2704 01dc 2269     		ldr	r2, [r4, #16]
 506:Drivers/STM32H5xx_HAL_Driver/Src/stm32h5xx_ll_usb.c ****             {
 2705              		.loc 1 506 16 view .LVU898
 2706 01de 9342     		cmp	r3, r2
 2707 01e0 2DD9     		bls	.L118
 508:Drivers/STM32H5xx_HAL_Driver/Src/stm32h5xx_ll_usb.c ****             }
 2708              		.loc 1 508 15 is_stmt 1 view .LVU899
 508:Drivers/STM32H5xx_HAL_Driver/Src/stm32h5xx_ll_usb.c ****             }
 2709              		.loc 1 508 31 is_stmt 0 view .LVU900
 2710 01e2 9B1B     		subs	r3, r3, r6
 2711 01e4 2362     		str	r3, [r4, #32]
 2712              	.L119:
 517:Drivers/STM32H5xx_HAL_Driver/Src/stm32h5xx_ll_usb.c ****             pmabuffer = ep->pmaaddr0;
 2713              		.loc 1 517 13 is_stmt 1 view .LVU901
 517:Drivers/STM32H5xx_HAL_Driver/Src/stm32h5xx_ll_usb.c ****             pmabuffer = ep->pmaaddr0;
 2714              		.loc 1 517 13 view .LVU902
ARM GAS  C:\Users\sapph\AppData\Local\Temp\cchEHrSS.s 			page 71


 2715 01e6 6378     		ldrb	r3, [r4, #1]	@ zero_extendqisi2
 2716 01e8 002B     		cmp	r3, #0
 2717 01ea 50D1     		bne	.L120
 517:Drivers/STM32H5xx_HAL_Driver/Src/stm32h5xx_ll_usb.c ****             pmabuffer = ep->pmaaddr0;
 2718              		.loc 1 517 13 discriminator 1 view .LVU903
 2719              	.LBB66:
 517:Drivers/STM32H5xx_HAL_Driver/Src/stm32h5xx_ll_usb.c ****             pmabuffer = ep->pmaaddr0;
 2720              		.loc 1 517 13 discriminator 1 view .LVU904
 517:Drivers/STM32H5xx_HAL_Driver/Src/stm32h5xx_ll_usb.c ****             pmabuffer = ep->pmaaddr0;
 2721              		.loc 1 517 13 discriminator 1 view .LVU905
 2722 01ec 2378     		ldrb	r3, [r4]	@ zero_extendqisi2
 2723 01ee DB00     		lsls	r3, r3, #3
 2724 01f0 03F18043 		add	r3, r3, #1073741824
 2725 01f4 03F5B233 		add	r3, r3, #91136
 2726 01f8 1A68     		ldr	r2, [r3]
 2727 01fa 22F07C42 		bic	r2, r2, #-67108864
 2728 01fe 1A60     		str	r2, [r3]
 517:Drivers/STM32H5xx_HAL_Driver/Src/stm32h5xx_ll_usb.c ****             pmabuffer = ep->pmaaddr0;
 2729              		.loc 1 517 13 discriminator 1 view .LVU906
 2730 0200 0EBB     		cbnz	r6, .L121
 517:Drivers/STM32H5xx_HAL_Driver/Src/stm32h5xx_ll_usb.c ****             pmabuffer = ep->pmaaddr0;
 2731              		.loc 1 517 13 discriminator 3 view .LVU907
 2732 0202 2378     		ldrb	r3, [r4]	@ zero_extendqisi2
 2733 0204 DB00     		lsls	r3, r3, #3
 2734 0206 03F18043 		add	r3, r3, #1073741824
 2735 020a 03F5B233 		add	r3, r3, #91136
 2736 020e 1A68     		ldr	r2, [r3]
 2737 0210 42F00042 		orr	r2, r2, #-2147483648
 2738 0214 1A60     		str	r2, [r3]
 2739 0216 3CE0     		b	.L122
 2740              	.LVL295:
 2741              	.L192:
 517:Drivers/STM32H5xx_HAL_Driver/Src/stm32h5xx_ll_usb.c ****             pmabuffer = ep->pmaaddr0;
 2742              		.loc 1 517 13 is_stmt 0 discriminator 3 view .LVU908
 2743              	.LBE66:
 499:Drivers/STM32H5xx_HAL_Driver/Src/stm32h5xx_ll_usb.c ****             pmabuffer = ep->pmaaddr1;
 2744              		.loc 1 499 13 is_stmt 1 discriminator 16 view .LVU909
 2745 0218 DB00     		lsls	r3, r3, #3
 2746 021a 03F18043 		add	r3, r3, #1073741824
 2747 021e 03F5B233 		add	r3, r3, #91136
 2748 0222 5A68     		ldr	r2, [r3, #4]
 2749 0224 92B2     		uxth	r2, r2
 2750 0226 5A60     		str	r2, [r3, #4]
 499:Drivers/STM32H5xx_HAL_Driver/Src/stm32h5xx_ll_usb.c ****             pmabuffer = ep->pmaaddr1;
 2751              		.loc 1 499 13 discriminator 16 view .LVU910
 2752 0228 2378     		ldrb	r3, [r4]	@ zero_extendqisi2
 2753 022a DB00     		lsls	r3, r3, #3
 2754 022c 03F18043 		add	r3, r3, #1073741824
 2755 0230 03F5B233 		add	r3, r3, #91136
 2756 0234 5A68     		ldr	r2, [r3, #4]
 2757 0236 42EA0642 		orr	r2, r2, r6, lsl #16
 2758 023a 5A60     		str	r2, [r3, #4]
 2759 023c C4E7     		b	.L114
 2760              	.LVL296:
 2761              	.L118:
 512:Drivers/STM32H5xx_HAL_Driver/Src/stm32h5xx_ll_usb.c ****               ep->xfer_len_db = 0U;
 2762              		.loc 1 512 15 view .LVU911
ARM GAS  C:\Users\sapph\AppData\Local\Temp\cchEHrSS.s 			page 72


 513:Drivers/STM32H5xx_HAL_Driver/Src/stm32h5xx_ll_usb.c ****             }
 2763              		.loc 1 513 15 view .LVU912
 513:Drivers/STM32H5xx_HAL_Driver/Src/stm32h5xx_ll_usb.c ****             }
 2764              		.loc 1 513 31 is_stmt 0 view .LVU913
 2765 023e 0022     		movs	r2, #0
 2766 0240 2262     		str	r2, [r4, #32]
 512:Drivers/STM32H5xx_HAL_Driver/Src/stm32h5xx_ll_usb.c ****               ep->xfer_len_db = 0U;
 2767              		.loc 1 512 19 view .LVU914
 2768 0242 1E46     		mov	r6, r3
 2769 0244 CFE7     		b	.L119
 2770              	.LVL297:
 2771              	.L121:
 2772              	.LBB67:
 517:Drivers/STM32H5xx_HAL_Driver/Src/stm32h5xx_ll_usb.c ****             pmabuffer = ep->pmaaddr0;
 2773              		.loc 1 517 13 is_stmt 1 discriminator 4 view .LVU915
 2774 0246 3E2E     		cmp	r6, #62
 2775 0248 0FD8     		bhi	.L123
 517:Drivers/STM32H5xx_HAL_Driver/Src/stm32h5xx_ll_usb.c ****             pmabuffer = ep->pmaaddr0;
 2776              		.loc 1 517 13 discriminator 6 view .LVU916
 517:Drivers/STM32H5xx_HAL_Driver/Src/stm32h5xx_ll_usb.c ****             pmabuffer = ep->pmaaddr0;
 2777              		.loc 1 517 13 discriminator 6 view .LVU917
 2778 024a 7108     		lsrs	r1, r6, #1
 2779              	.LVL298:
 517:Drivers/STM32H5xx_HAL_Driver/Src/stm32h5xx_ll_usb.c ****             pmabuffer = ep->pmaaddr0;
 2780              		.loc 1 517 13 discriminator 6 view .LVU918
 2781 024c 16F0010F 		tst	r6, #1
 2782 0250 00D0     		beq	.L124
 517:Drivers/STM32H5xx_HAL_Driver/Src/stm32h5xx_ll_usb.c ****             pmabuffer = ep->pmaaddr0;
 2783              		.loc 1 517 13 discriminator 8 view .LVU919
 2784 0252 0131     		adds	r1, r1, #1
 2785              	.LVL299:
 2786              	.L124:
 517:Drivers/STM32H5xx_HAL_Driver/Src/stm32h5xx_ll_usb.c ****             pmabuffer = ep->pmaaddr0;
 2787              		.loc 1 517 13 discriminator 10 view .LVU920
 2788 0254 2378     		ldrb	r3, [r4]	@ zero_extendqisi2
 2789 0256 DB00     		lsls	r3, r3, #3
 2790 0258 03F18043 		add	r3, r3, #1073741824
 2791 025c 03F5B233 		add	r3, r3, #91136
 2792 0260 1A68     		ldr	r2, [r3]
 2793 0262 42EA8162 		orr	r2, r2, r1, lsl #26
 2794 0266 1A60     		str	r2, [r3]
 517:Drivers/STM32H5xx_HAL_Driver/Src/stm32h5xx_ll_usb.c ****             pmabuffer = ep->pmaaddr0;
 2795              		.loc 1 517 13 discriminator 10 view .LVU921
 2796 0268 13E0     		b	.L122
 2797              	.LVL300:
 2798              	.L123:
 517:Drivers/STM32H5xx_HAL_Driver/Src/stm32h5xx_ll_usb.c ****             pmabuffer = ep->pmaaddr0;
 2799              		.loc 1 517 13 discriminator 7 view .LVU922
 517:Drivers/STM32H5xx_HAL_Driver/Src/stm32h5xx_ll_usb.c ****             pmabuffer = ep->pmaaddr0;
 2800              		.loc 1 517 13 discriminator 7 view .LVU923
 2801 026a 7109     		lsrs	r1, r6, #5
 2802              	.LVL301:
 517:Drivers/STM32H5xx_HAL_Driver/Src/stm32h5xx_ll_usb.c ****             pmabuffer = ep->pmaaddr0;
 2803              		.loc 1 517 13 discriminator 7 view .LVU924
 2804 026c 16F01F0F 		tst	r6, #31
 2805 0270 00D1     		bne	.L125
 517:Drivers/STM32H5xx_HAL_Driver/Src/stm32h5xx_ll_usb.c ****             pmabuffer = ep->pmaaddr0;
ARM GAS  C:\Users\sapph\AppData\Local\Temp\cchEHrSS.s 			page 73


 2806              		.loc 1 517 13 discriminator 12 view .LVU925
 2807 0272 0139     		subs	r1, r1, #1
 2808              	.LVL302:
 2809              	.L125:
 517:Drivers/STM32H5xx_HAL_Driver/Src/stm32h5xx_ll_usb.c ****             pmabuffer = ep->pmaaddr0;
 2810              		.loc 1 517 13 discriminator 14 view .LVU926
 2811 0274 2378     		ldrb	r3, [r4]	@ zero_extendqisi2
 2812 0276 DB00     		lsls	r3, r3, #3
 2813 0278 03F18043 		add	r3, r3, #1073741824
 2814 027c 03F5B233 		add	r3, r3, #91136
 2815 0280 1A68     		ldr	r2, [r3]
 2816 0282 42EA8162 		orr	r2, r2, r1, lsl #26
 2817 0286 42F00042 		orr	r2, r2, #-2147483648
 2818 028a 1A60     		str	r2, [r3]
 2819 028c 01E0     		b	.L122
 2820              	.LVL303:
 2821              	.L120:
 517:Drivers/STM32H5xx_HAL_Driver/Src/stm32h5xx_ll_usb.c ****             pmabuffer = ep->pmaaddr0;
 2822              		.loc 1 517 13 is_stmt 0 discriminator 14 view .LVU927
 2823              	.LBE67:
 517:Drivers/STM32H5xx_HAL_Driver/Src/stm32h5xx_ll_usb.c ****             pmabuffer = ep->pmaaddr0;
 2824              		.loc 1 517 13 is_stmt 1 discriminator 2 view .LVU928
 2825 028e 012B     		cmp	r3, #1
 2826 0290 06D0     		beq	.L193
 2827              	.L122:
 517:Drivers/STM32H5xx_HAL_Driver/Src/stm32h5xx_ll_usb.c ****             pmabuffer = ep->pmaaddr0;
 2828              		.loc 1 517 13 discriminator 18 view .LVU929
 517:Drivers/STM32H5xx_HAL_Driver/Src/stm32h5xx_ll_usb.c ****             pmabuffer = ep->pmaaddr0;
 2829              		.loc 1 517 13 discriminator 18 view .LVU930
 518:Drivers/STM32H5xx_HAL_Driver/Src/stm32h5xx_ll_usb.c **** 
 2830              		.loc 1 518 13 view .LVU931
 2831              	.LVL304:
 521:Drivers/STM32H5xx_HAL_Driver/Src/stm32h5xx_ll_usb.c ****           }
 2832              		.loc 1 521 13 view .LVU932
 2833 0292 B3B2     		uxth	r3, r6
 2834 0294 2289     		ldrh	r2, [r4, #8]
 2835 0296 6169     		ldr	r1, [r4, #20]
 2836 0298 2846     		mov	r0, r5
 2837 029a FFF7FEFF 		bl	USB_WritePMA
 2838              	.LVL305:
 521:Drivers/STM32H5xx_HAL_Driver/Src/stm32h5xx_ll_usb.c ****           }
 2839              		.loc 1 521 13 is_stmt 0 view .LVU933
 2840 029e 2DE7     		b	.L108
 2841              	.L193:
 517:Drivers/STM32H5xx_HAL_Driver/Src/stm32h5xx_ll_usb.c ****             pmabuffer = ep->pmaaddr0;
 2842              		.loc 1 517 13 is_stmt 1 discriminator 16 view .LVU934
 517:Drivers/STM32H5xx_HAL_Driver/Src/stm32h5xx_ll_usb.c ****             pmabuffer = ep->pmaaddr0;
 2843              		.loc 1 517 13 discriminator 16 view .LVU935
 2844 02a0 2378     		ldrb	r3, [r4]	@ zero_extendqisi2
 2845 02a2 DB00     		lsls	r3, r3, #3
 2846 02a4 03F18043 		add	r3, r3, #1073741824
 2847 02a8 03F5B233 		add	r3, r3, #91136
 2848 02ac 1A68     		ldr	r2, [r3]
 2849 02ae 92B2     		uxth	r2, r2
 2850 02b0 1A60     		str	r2, [r3]
 517:Drivers/STM32H5xx_HAL_Driver/Src/stm32h5xx_ll_usb.c ****             pmabuffer = ep->pmaaddr0;
 2851              		.loc 1 517 13 discriminator 16 view .LVU936
ARM GAS  C:\Users\sapph\AppData\Local\Temp\cchEHrSS.s 			page 74


 2852 02b2 2378     		ldrb	r3, [r4]	@ zero_extendqisi2
 2853 02b4 DB00     		lsls	r3, r3, #3
 2854 02b6 03F18043 		add	r3, r3, #1073741824
 2855 02ba 03F5B233 		add	r3, r3, #91136
 2856 02be 1A68     		ldr	r2, [r3]
 2857 02c0 42EA0642 		orr	r2, r2, r6, lsl #16
 2858 02c4 1A60     		str	r2, [r3]
 2859 02c6 E4E7     		b	.L122
 2860              	.LVL306:
 2861              	.L111:
 526:Drivers/STM32H5xx_HAL_Driver/Src/stm32h5xx_ll_usb.c ****             pmabuffer = ep->pmaaddr0;
 2862              		.loc 1 526 13 view .LVU937
 526:Drivers/STM32H5xx_HAL_Driver/Src/stm32h5xx_ll_usb.c ****             pmabuffer = ep->pmaaddr0;
 2863              		.loc 1 526 13 view .LVU938
 2864 02c8 6278     		ldrb	r2, [r4, #1]	@ zero_extendqisi2
 2865 02ca 002A     		cmp	r2, #0
 2866 02cc 3ED1     		bne	.L126
 526:Drivers/STM32H5xx_HAL_Driver/Src/stm32h5xx_ll_usb.c ****             pmabuffer = ep->pmaaddr0;
 2867              		.loc 1 526 13 discriminator 1 view .LVU939
 2868              	.LBB68:
 526:Drivers/STM32H5xx_HAL_Driver/Src/stm32h5xx_ll_usb.c ****             pmabuffer = ep->pmaaddr0;
 2869              		.loc 1 526 13 discriminator 1 view .LVU940
 526:Drivers/STM32H5xx_HAL_Driver/Src/stm32h5xx_ll_usb.c ****             pmabuffer = ep->pmaaddr0;
 2870              		.loc 1 526 13 discriminator 1 view .LVU941
 2871 02ce DB00     		lsls	r3, r3, #3
 2872 02d0 03F18043 		add	r3, r3, #1073741824
 2873 02d4 03F5B233 		add	r3, r3, #91136
 2874 02d8 1A68     		ldr	r2, [r3]
 2875 02da 22F07C42 		bic	r2, r2, #-67108864
 2876 02de 1A60     		str	r2, [r3]
 526:Drivers/STM32H5xx_HAL_Driver/Src/stm32h5xx_ll_usb.c ****             pmabuffer = ep->pmaaddr0;
 2877              		.loc 1 526 13 discriminator 1 view .LVU942
 2878 02e0 56B9     		cbnz	r6, .L127
 526:Drivers/STM32H5xx_HAL_Driver/Src/stm32h5xx_ll_usb.c ****             pmabuffer = ep->pmaaddr0;
 2879              		.loc 1 526 13 discriminator 3 view .LVU943
 2880 02e2 2378     		ldrb	r3, [r4]	@ zero_extendqisi2
 2881 02e4 DB00     		lsls	r3, r3, #3
 2882 02e6 03F18043 		add	r3, r3, #1073741824
 2883 02ea 03F5B233 		add	r3, r3, #91136
 2884 02ee 1A68     		ldr	r2, [r3]
 2885 02f0 42F00042 		orr	r2, r2, #-2147483648
 2886 02f4 1A60     		str	r2, [r3]
 2887 02f6 2BE0     		b	.L128
 2888              	.L127:
 526:Drivers/STM32H5xx_HAL_Driver/Src/stm32h5xx_ll_usb.c ****             pmabuffer = ep->pmaaddr0;
 2889              		.loc 1 526 13 discriminator 4 view .LVU944
 2890 02f8 3E2E     		cmp	r6, #62
 2891 02fa 15D8     		bhi	.L129
 526:Drivers/STM32H5xx_HAL_Driver/Src/stm32h5xx_ll_usb.c ****             pmabuffer = ep->pmaaddr0;
 2892              		.loc 1 526 13 discriminator 6 view .LVU945
 526:Drivers/STM32H5xx_HAL_Driver/Src/stm32h5xx_ll_usb.c ****             pmabuffer = ep->pmaaddr0;
 2893              		.loc 1 526 13 discriminator 6 view .LVU946
 2894 02fc 7108     		lsrs	r1, r6, #1
 2895              	.LVL307:
 526:Drivers/STM32H5xx_HAL_Driver/Src/stm32h5xx_ll_usb.c ****             pmabuffer = ep->pmaaddr0;
 2896              		.loc 1 526 13 discriminator 6 view .LVU947
 2897 02fe 16F0010F 		tst	r6, #1
ARM GAS  C:\Users\sapph\AppData\Local\Temp\cchEHrSS.s 			page 75


 2898 0302 00D0     		beq	.L130
 526:Drivers/STM32H5xx_HAL_Driver/Src/stm32h5xx_ll_usb.c ****             pmabuffer = ep->pmaaddr0;
 2899              		.loc 1 526 13 discriminator 8 view .LVU948
 2900 0304 0131     		adds	r1, r1, #1
 2901              	.LVL308:
 2902              	.L130:
 526:Drivers/STM32H5xx_HAL_Driver/Src/stm32h5xx_ll_usb.c ****             pmabuffer = ep->pmaaddr0;
 2903              		.loc 1 526 13 discriminator 10 view .LVU949
 2904 0306 2378     		ldrb	r3, [r4]	@ zero_extendqisi2
 2905 0308 DB00     		lsls	r3, r3, #3
 2906 030a 03F18043 		add	r3, r3, #1073741824
 2907 030e 03F5B233 		add	r3, r3, #91136
 2908 0312 1A68     		ldr	r2, [r3]
 2909 0314 42EA8162 		orr	r2, r2, r1, lsl #26
 2910 0318 1A60     		str	r2, [r3]
 526:Drivers/STM32H5xx_HAL_Driver/Src/stm32h5xx_ll_usb.c ****             pmabuffer = ep->pmaaddr0;
 2911              		.loc 1 526 13 discriminator 10 view .LVU950
 2912 031a 19E0     		b	.L128
 2913              	.L199:
 2914              		.align	2
 2915              	.L198:
 2916 031c 8FBFFF07 		.word	134201231
 2917 0320 BF8FFF07 		.word	134188991
 2918 0324 8F8FFF07 		.word	134188943
 2919              	.LVL309:
 2920              	.L129:
 526:Drivers/STM32H5xx_HAL_Driver/Src/stm32h5xx_ll_usb.c ****             pmabuffer = ep->pmaaddr0;
 2921              		.loc 1 526 13 discriminator 7 view .LVU951
 526:Drivers/STM32H5xx_HAL_Driver/Src/stm32h5xx_ll_usb.c ****             pmabuffer = ep->pmaaddr0;
 2922              		.loc 1 526 13 discriminator 7 view .LVU952
 2923 0328 7109     		lsrs	r1, r6, #5
 2924              	.LVL310:
 526:Drivers/STM32H5xx_HAL_Driver/Src/stm32h5xx_ll_usb.c ****             pmabuffer = ep->pmaaddr0;
 2925              		.loc 1 526 13 discriminator 7 view .LVU953
 2926 032a 16F01F0F 		tst	r6, #31
 2927 032e 00D1     		bne	.L131
 526:Drivers/STM32H5xx_HAL_Driver/Src/stm32h5xx_ll_usb.c ****             pmabuffer = ep->pmaaddr0;
 2928              		.loc 1 526 13 discriminator 12 view .LVU954
 2929 0330 0139     		subs	r1, r1, #1
 2930              	.LVL311:
 2931              	.L131:
 526:Drivers/STM32H5xx_HAL_Driver/Src/stm32h5xx_ll_usb.c ****             pmabuffer = ep->pmaaddr0;
 2932              		.loc 1 526 13 discriminator 14 view .LVU955
 2933 0332 2378     		ldrb	r3, [r4]	@ zero_extendqisi2
 2934 0334 DB00     		lsls	r3, r3, #3
 2935 0336 03F18043 		add	r3, r3, #1073741824
 2936 033a 03F5B233 		add	r3, r3, #91136
 2937 033e 1A68     		ldr	r2, [r3]
 2938 0340 42EA8162 		orr	r2, r2, r1, lsl #26
 2939 0344 42F00042 		orr	r2, r2, #-2147483648
 2940 0348 1A60     		str	r2, [r3]
 2941 034a 01E0     		b	.L128
 2942              	.LVL312:
 2943              	.L126:
 526:Drivers/STM32H5xx_HAL_Driver/Src/stm32h5xx_ll_usb.c ****             pmabuffer = ep->pmaaddr0;
 2944              		.loc 1 526 13 is_stmt 0 discriminator 14 view .LVU956
 2945              	.LBE68:
ARM GAS  C:\Users\sapph\AppData\Local\Temp\cchEHrSS.s 			page 76


 526:Drivers/STM32H5xx_HAL_Driver/Src/stm32h5xx_ll_usb.c ****             pmabuffer = ep->pmaaddr0;
 2946              		.loc 1 526 13 is_stmt 1 discriminator 2 view .LVU957
 2947 034c 012A     		cmp	r2, #1
 2948 034e 27D0     		beq	.L194
 2949              	.LVL313:
 2950              	.L128:
 526:Drivers/STM32H5xx_HAL_Driver/Src/stm32h5xx_ll_usb.c ****             pmabuffer = ep->pmaaddr0;
 2951              		.loc 1 526 13 discriminator 18 view .LVU958
 526:Drivers/STM32H5xx_HAL_Driver/Src/stm32h5xx_ll_usb.c ****             pmabuffer = ep->pmaaddr0;
 2952              		.loc 1 526 13 discriminator 18 view .LVU959
 527:Drivers/STM32H5xx_HAL_Driver/Src/stm32h5xx_ll_usb.c **** 
 2953              		.loc 1 527 13 view .LVU960
 530:Drivers/STM32H5xx_HAL_Driver/Src/stm32h5xx_ll_usb.c ****             ep->xfer_buff += len;
 2954              		.loc 1 530 13 view .LVU961
 2955 0350 B3B2     		uxth	r3, r6
 2956 0352 2289     		ldrh	r2, [r4, #8]
