ARM GAS  C:\Users\sapph\AppData\Local\Temp\ccpAXXPh.s 			page 1


   1              		.cpu cortex-m33
   2              		.arch armv8-m.main
   3              		.fpu fpv4-sp-d16
   4              		.arch_extension dsp
   5              		.eabi_attribute 27, 1
   6              		.eabi_attribute 28, 1
   7              		.eabi_attribute 20, 1
   8              		.eabi_attribute 21, 1
   9              		.eabi_attribute 23, 3
  10              		.eabi_attribute 24, 1
  11              		.eabi_attribute 25, 1
  12              		.eabi_attribute 26, 1
  13              		.eabi_attribute 30, 1
  14              		.eabi_attribute 34, 1
  15              		.eabi_attribute 18, 4
  16              		.file	"stm32h5xx_hal_exti.c"
  17              		.text
  18              	.Ltext0:
  19              		.cfi_sections	.debug_frame
  20              		.file 1 "Drivers/STM32H5xx_HAL_Driver/Src/stm32h5xx_hal_exti.c"
  21              		.section	.text.HAL_EXTI_SetConfigLine,"ax",%progbits
  22              		.align	1
  23              		.global	HAL_EXTI_SetConfigLine
  24              		.syntax unified
  25              		.thumb
  26              		.thumb_func
  28              	HAL_EXTI_SetConfigLine:
  29              	.LVL0:
  30              	.LFB160:
   1:Drivers/STM32H5xx_HAL_Driver/Src/stm32h5xx_hal_exti.c **** /**
   2:Drivers/STM32H5xx_HAL_Driver/Src/stm32h5xx_hal_exti.c ****   ******************************************************************************
   3:Drivers/STM32H5xx_HAL_Driver/Src/stm32h5xx_hal_exti.c ****   * @file    stm32h5xx_hal_exti.c
   4:Drivers/STM32H5xx_HAL_Driver/Src/stm32h5xx_hal_exti.c ****   * @author  MCD Application Team
   5:Drivers/STM32H5xx_HAL_Driver/Src/stm32h5xx_hal_exti.c ****   * @brief   EXTI HAL module driver.
   6:Drivers/STM32H5xx_HAL_Driver/Src/stm32h5xx_hal_exti.c ****   *          This file provides firmware functions to manage the following
   7:Drivers/STM32H5xx_HAL_Driver/Src/stm32h5xx_hal_exti.c ****   *          functionalities of the General Purpose Input/Output (EXTI) peripheral:
   8:Drivers/STM32H5xx_HAL_Driver/Src/stm32h5xx_hal_exti.c ****   *           + Initialization and de-initialization functions
   9:Drivers/STM32H5xx_HAL_Driver/Src/stm32h5xx_hal_exti.c ****   *           + IO operation functions
  10:Drivers/STM32H5xx_HAL_Driver/Src/stm32h5xx_hal_exti.c ****   *
  11:Drivers/STM32H5xx_HAL_Driver/Src/stm32h5xx_hal_exti.c ****   ******************************************************************************
  12:Drivers/STM32H5xx_HAL_Driver/Src/stm32h5xx_hal_exti.c ****   * @attention
  13:Drivers/STM32H5xx_HAL_Driver/Src/stm32h5xx_hal_exti.c ****   *
  14:Drivers/STM32H5xx_HAL_Driver/Src/stm32h5xx_hal_exti.c ****   * Copyright (c) 2023 STMicroelectronics.
  15:Drivers/STM32H5xx_HAL_Driver/Src/stm32h5xx_hal_exti.c ****   * All rights reserved.
  16:Drivers/STM32H5xx_HAL_Driver/Src/stm32h5xx_hal_exti.c ****   *
  17:Drivers/STM32H5xx_HAL_Driver/Src/stm32h5xx_hal_exti.c ****   * This software is licensed under terms that can be found in the LICENSE file
  18:Drivers/STM32H5xx_HAL_Driver/Src/stm32h5xx_hal_exti.c ****   * in the root directory of this software component.
  19:Drivers/STM32H5xx_HAL_Driver/Src/stm32h5xx_hal_exti.c ****   * If no LICENSE file comes with this software, it is provided AS-IS.
  20:Drivers/STM32H5xx_HAL_Driver/Src/stm32h5xx_hal_exti.c ****   *
  21:Drivers/STM32H5xx_HAL_Driver/Src/stm32h5xx_hal_exti.c ****   ******************************************************************************
  22:Drivers/STM32H5xx_HAL_Driver/Src/stm32h5xx_hal_exti.c ****   @verbatim
  23:Drivers/STM32H5xx_HAL_Driver/Src/stm32h5xx_hal_exti.c ****   ==============================================================================
  24:Drivers/STM32H5xx_HAL_Driver/Src/stm32h5xx_hal_exti.c ****                     ##### EXTI Peripheral features #####
  25:Drivers/STM32H5xx_HAL_Driver/Src/stm32h5xx_hal_exti.c ****   ==============================================================================
  26:Drivers/STM32H5xx_HAL_Driver/Src/stm32h5xx_hal_exti.c ****   [..]
  27:Drivers/STM32H5xx_HAL_Driver/Src/stm32h5xx_hal_exti.c ****     (+) Each Exti line can be configured within this driver.
  28:Drivers/STM32H5xx_HAL_Driver/Src/stm32h5xx_hal_exti.c **** 
ARM GAS  C:\Users\sapph\AppData\Local\Temp\ccpAXXPh.s 			page 2


  29:Drivers/STM32H5xx_HAL_Driver/Src/stm32h5xx_hal_exti.c ****     (+) Exti line can be configured in 3 different modes
  30:Drivers/STM32H5xx_HAL_Driver/Src/stm32h5xx_hal_exti.c ****         (++) Interrupt
  31:Drivers/STM32H5xx_HAL_Driver/Src/stm32h5xx_hal_exti.c ****         (++) Event
  32:Drivers/STM32H5xx_HAL_Driver/Src/stm32h5xx_hal_exti.c ****         (++) Both of them
  33:Drivers/STM32H5xx_HAL_Driver/Src/stm32h5xx_hal_exti.c **** 
  34:Drivers/STM32H5xx_HAL_Driver/Src/stm32h5xx_hal_exti.c ****     (+) Configurable Exti lines can be configured with 3 different triggers
  35:Drivers/STM32H5xx_HAL_Driver/Src/stm32h5xx_hal_exti.c ****         (++) Rising
  36:Drivers/STM32H5xx_HAL_Driver/Src/stm32h5xx_hal_exti.c ****         (++) Falling
  37:Drivers/STM32H5xx_HAL_Driver/Src/stm32h5xx_hal_exti.c ****         (++) Both of them
  38:Drivers/STM32H5xx_HAL_Driver/Src/stm32h5xx_hal_exti.c **** 
  39:Drivers/STM32H5xx_HAL_Driver/Src/stm32h5xx_hal_exti.c ****     (+) When set in interrupt mode, configurable Exti lines have two diffenrents
  40:Drivers/STM32H5xx_HAL_Driver/Src/stm32h5xx_hal_exti.c ****         interrupt pending registers which allow to distinguish which transition
  41:Drivers/STM32H5xx_HAL_Driver/Src/stm32h5xx_hal_exti.c ****         occurs:
  42:Drivers/STM32H5xx_HAL_Driver/Src/stm32h5xx_hal_exti.c ****         (++) Rising edge pending interrupt
  43:Drivers/STM32H5xx_HAL_Driver/Src/stm32h5xx_hal_exti.c ****         (++) Falling
  44:Drivers/STM32H5xx_HAL_Driver/Src/stm32h5xx_hal_exti.c **** 
  45:Drivers/STM32H5xx_HAL_Driver/Src/stm32h5xx_hal_exti.c ****     (+) Exti lines 0 to 15 are linked to gpio pin number 0 to 15. Gpio port can
  46:Drivers/STM32H5xx_HAL_Driver/Src/stm32h5xx_hal_exti.c ****         be selected through multiplexer.
  47:Drivers/STM32H5xx_HAL_Driver/Src/stm32h5xx_hal_exti.c **** 
  48:Drivers/STM32H5xx_HAL_Driver/Src/stm32h5xx_hal_exti.c ****                      ##### How to use this driver #####
  49:Drivers/STM32H5xx_HAL_Driver/Src/stm32h5xx_hal_exti.c ****   ==============================================================================
  50:Drivers/STM32H5xx_HAL_Driver/Src/stm32h5xx_hal_exti.c ****   [..]
  51:Drivers/STM32H5xx_HAL_Driver/Src/stm32h5xx_hal_exti.c **** 
  52:Drivers/STM32H5xx_HAL_Driver/Src/stm32h5xx_hal_exti.c ****     (#) Configure the EXTI line using HAL_EXTI_SetConfigLine().
  53:Drivers/STM32H5xx_HAL_Driver/Src/stm32h5xx_hal_exti.c ****         (++) Choose the interrupt line number by setting "Line" member from
  54:Drivers/STM32H5xx_HAL_Driver/Src/stm32h5xx_hal_exti.c ****              EXTI_ConfigTypeDef structure.
  55:Drivers/STM32H5xx_HAL_Driver/Src/stm32h5xx_hal_exti.c ****         (++) Configure the interrupt and/or event mode using "Mode" member from
  56:Drivers/STM32H5xx_HAL_Driver/Src/stm32h5xx_hal_exti.c ****              EXTI_ConfigTypeDef structure.
  57:Drivers/STM32H5xx_HAL_Driver/Src/stm32h5xx_hal_exti.c ****         (++) For configurable lines, configure rising and/or falling trigger
  58:Drivers/STM32H5xx_HAL_Driver/Src/stm32h5xx_hal_exti.c ****              "Trigger" member from EXTI_ConfigTypeDef structure.
  59:Drivers/STM32H5xx_HAL_Driver/Src/stm32h5xx_hal_exti.c ****         (++) For Exti lines linked to gpio, choose gpio port using "GPIOSel"
  60:Drivers/STM32H5xx_HAL_Driver/Src/stm32h5xx_hal_exti.c ****              member from GPIO_InitTypeDef structure.
  61:Drivers/STM32H5xx_HAL_Driver/Src/stm32h5xx_hal_exti.c **** 
  62:Drivers/STM32H5xx_HAL_Driver/Src/stm32h5xx_hal_exti.c ****     (#) Get current Exti configuration of a dedicated line using
  63:Drivers/STM32H5xx_HAL_Driver/Src/stm32h5xx_hal_exti.c ****         HAL_EXTI_GetConfigLine().
  64:Drivers/STM32H5xx_HAL_Driver/Src/stm32h5xx_hal_exti.c ****         (++) Provide exiting handle as parameter.
  65:Drivers/STM32H5xx_HAL_Driver/Src/stm32h5xx_hal_exti.c ****         (++) Provide pointer on EXTI_ConfigTypeDef structure as second parameter.
  66:Drivers/STM32H5xx_HAL_Driver/Src/stm32h5xx_hal_exti.c **** 
  67:Drivers/STM32H5xx_HAL_Driver/Src/stm32h5xx_hal_exti.c ****     (#) Clear Exti configuration of a dedicated line using HAL_EXTI_GetConfigLine().
  68:Drivers/STM32H5xx_HAL_Driver/Src/stm32h5xx_hal_exti.c ****         (++) Provide exiting handle as parameter.
  69:Drivers/STM32H5xx_HAL_Driver/Src/stm32h5xx_hal_exti.c **** 
  70:Drivers/STM32H5xx_HAL_Driver/Src/stm32h5xx_hal_exti.c ****     (#) Register callback to treat Exti interrupts using HAL_EXTI_RegisterCallback().
  71:Drivers/STM32H5xx_HAL_Driver/Src/stm32h5xx_hal_exti.c ****         (++) Provide exiting handle as first parameter.
  72:Drivers/STM32H5xx_HAL_Driver/Src/stm32h5xx_hal_exti.c ****         (++) Provide which callback will be registered using one value from
  73:Drivers/STM32H5xx_HAL_Driver/Src/stm32h5xx_hal_exti.c ****              EXTI_CallbackIDTypeDef.
  74:Drivers/STM32H5xx_HAL_Driver/Src/stm32h5xx_hal_exti.c ****         (++) Provide callback function pointer.
  75:Drivers/STM32H5xx_HAL_Driver/Src/stm32h5xx_hal_exti.c **** 
  76:Drivers/STM32H5xx_HAL_Driver/Src/stm32h5xx_hal_exti.c ****     (#) Get interrupt pending bit using HAL_EXTI_GetPending().
  77:Drivers/STM32H5xx_HAL_Driver/Src/stm32h5xx_hal_exti.c **** 
  78:Drivers/STM32H5xx_HAL_Driver/Src/stm32h5xx_hal_exti.c ****     (#) Clear interrupt pending bit using HAL_EXTI_GetPending().
  79:Drivers/STM32H5xx_HAL_Driver/Src/stm32h5xx_hal_exti.c **** 
  80:Drivers/STM32H5xx_HAL_Driver/Src/stm32h5xx_hal_exti.c ****     (#) Generate software interrupt using HAL_EXTI_GenerateSWI().
  81:Drivers/STM32H5xx_HAL_Driver/Src/stm32h5xx_hal_exti.c **** 
  82:Drivers/STM32H5xx_HAL_Driver/Src/stm32h5xx_hal_exti.c ****   @endverbatim
  83:Drivers/STM32H5xx_HAL_Driver/Src/stm32h5xx_hal_exti.c ****   */
  84:Drivers/STM32H5xx_HAL_Driver/Src/stm32h5xx_hal_exti.c **** 
  85:Drivers/STM32H5xx_HAL_Driver/Src/stm32h5xx_hal_exti.c **** /* Includes ------------------------------------------------------------------*/
ARM GAS  C:\Users\sapph\AppData\Local\Temp\ccpAXXPh.s 			page 3


  86:Drivers/STM32H5xx_HAL_Driver/Src/stm32h5xx_hal_exti.c **** #include "stm32h5xx_hal.h"
  87:Drivers/STM32H5xx_HAL_Driver/Src/stm32h5xx_hal_exti.c **** 
  88:Drivers/STM32H5xx_HAL_Driver/Src/stm32h5xx_hal_exti.c **** /** @addtogroup STM32H5xx_HAL_Driver
  89:Drivers/STM32H5xx_HAL_Driver/Src/stm32h5xx_hal_exti.c ****   * @{
  90:Drivers/STM32H5xx_HAL_Driver/Src/stm32h5xx_hal_exti.c ****   */
  91:Drivers/STM32H5xx_HAL_Driver/Src/stm32h5xx_hal_exti.c **** 
  92:Drivers/STM32H5xx_HAL_Driver/Src/stm32h5xx_hal_exti.c **** /** @addtogroup EXTI
  93:Drivers/STM32H5xx_HAL_Driver/Src/stm32h5xx_hal_exti.c ****   * @{
  94:Drivers/STM32H5xx_HAL_Driver/Src/stm32h5xx_hal_exti.c ****   */
  95:Drivers/STM32H5xx_HAL_Driver/Src/stm32h5xx_hal_exti.c **** 
  96:Drivers/STM32H5xx_HAL_Driver/Src/stm32h5xx_hal_exti.c **** #ifdef HAL_EXTI_MODULE_ENABLED
  97:Drivers/STM32H5xx_HAL_Driver/Src/stm32h5xx_hal_exti.c **** 
  98:Drivers/STM32H5xx_HAL_Driver/Src/stm32h5xx_hal_exti.c **** /* Private typedef -----------------------------------------------------------*/
  99:Drivers/STM32H5xx_HAL_Driver/Src/stm32h5xx_hal_exti.c **** /* Private defines ------------------------------------------------------------*/
 100:Drivers/STM32H5xx_HAL_Driver/Src/stm32h5xx_hal_exti.c **** /** @defgroup EXTI_Private_Constants EXTI Private Constants
 101:Drivers/STM32H5xx_HAL_Driver/Src/stm32h5xx_hal_exti.c ****   * @{
 102:Drivers/STM32H5xx_HAL_Driver/Src/stm32h5xx_hal_exti.c ****   */
 103:Drivers/STM32H5xx_HAL_Driver/Src/stm32h5xx_hal_exti.c **** #define EXTI_MODE_OFFSET                    0x04U   /* 0x10: byte offset between: IMR1/EMR1 and IMR
 104:Drivers/STM32H5xx_HAL_Driver/Src/stm32h5xx_hal_exti.c **** #define EXTI_CONFIG_OFFSET                  0x08U   /* 0x20: byte offset between Rising1/Falling1 a
 105:Drivers/STM32H5xx_HAL_Driver/Src/stm32h5xx_hal_exti.c ****                                                              configuration registers */
 106:Drivers/STM32H5xx_HAL_Driver/Src/stm32h5xx_hal_exti.c **** #define EXTI_PRIVCFGR_OFFSET                0x08U   /* 0x20: byte offset between PRIVCFGR1 and PRIV
 107:Drivers/STM32H5xx_HAL_Driver/Src/stm32h5xx_hal_exti.c **** #define EXTI_SECCFGR_OFFSET                 0x08U   /* 0x20: byte offset between SECCFGR1 and SECCF
 108:Drivers/STM32H5xx_HAL_Driver/Src/stm32h5xx_hal_exti.c **** /**
 109:Drivers/STM32H5xx_HAL_Driver/Src/stm32h5xx_hal_exti.c ****   * @}
 110:Drivers/STM32H5xx_HAL_Driver/Src/stm32h5xx_hal_exti.c ****   */
 111:Drivers/STM32H5xx_HAL_Driver/Src/stm32h5xx_hal_exti.c **** 
 112:Drivers/STM32H5xx_HAL_Driver/Src/stm32h5xx_hal_exti.c **** /* Private macros ------------------------------------------------------------*/
 113:Drivers/STM32H5xx_HAL_Driver/Src/stm32h5xx_hal_exti.c **** /* Private variables ---------------------------------------------------------*/
 114:Drivers/STM32H5xx_HAL_Driver/Src/stm32h5xx_hal_exti.c **** /* Private function prototypes -----------------------------------------------*/
 115:Drivers/STM32H5xx_HAL_Driver/Src/stm32h5xx_hal_exti.c **** /* Exported functions --------------------------------------------------------*/
 116:Drivers/STM32H5xx_HAL_Driver/Src/stm32h5xx_hal_exti.c **** 
 117:Drivers/STM32H5xx_HAL_Driver/Src/stm32h5xx_hal_exti.c **** /** @addtogroup EXTI_Exported_Functions
 118:Drivers/STM32H5xx_HAL_Driver/Src/stm32h5xx_hal_exti.c ****   * @{
 119:Drivers/STM32H5xx_HAL_Driver/Src/stm32h5xx_hal_exti.c ****   */
 120:Drivers/STM32H5xx_HAL_Driver/Src/stm32h5xx_hal_exti.c **** 
 121:Drivers/STM32H5xx_HAL_Driver/Src/stm32h5xx_hal_exti.c **** /** @addtogroup EXTI_Exported_Functions_Group1
 122:Drivers/STM32H5xx_HAL_Driver/Src/stm32h5xx_hal_exti.c ****   *  @brief    Configuration functions
 123:Drivers/STM32H5xx_HAL_Driver/Src/stm32h5xx_hal_exti.c ****   *
 124:Drivers/STM32H5xx_HAL_Driver/Src/stm32h5xx_hal_exti.c **** @verbatim
 125:Drivers/STM32H5xx_HAL_Driver/Src/stm32h5xx_hal_exti.c ****  ===============================================================================
 126:Drivers/STM32H5xx_HAL_Driver/Src/stm32h5xx_hal_exti.c ****               ##### Configuration functions #####
 127:Drivers/STM32H5xx_HAL_Driver/Src/stm32h5xx_hal_exti.c ****  ===============================================================================
 128:Drivers/STM32H5xx_HAL_Driver/Src/stm32h5xx_hal_exti.c **** 
 129:Drivers/STM32H5xx_HAL_Driver/Src/stm32h5xx_hal_exti.c **** @endverbatim
 130:Drivers/STM32H5xx_HAL_Driver/Src/stm32h5xx_hal_exti.c ****   * @{
 131:Drivers/STM32H5xx_HAL_Driver/Src/stm32h5xx_hal_exti.c ****   */
 132:Drivers/STM32H5xx_HAL_Driver/Src/stm32h5xx_hal_exti.c **** 
 133:Drivers/STM32H5xx_HAL_Driver/Src/stm32h5xx_hal_exti.c **** /**
 134:Drivers/STM32H5xx_HAL_Driver/Src/stm32h5xx_hal_exti.c ****   * @brief  Set configuration of a dedicated Exti line.
 135:Drivers/STM32H5xx_HAL_Driver/Src/stm32h5xx_hal_exti.c ****   * @param  hexti Exti handle.
 136:Drivers/STM32H5xx_HAL_Driver/Src/stm32h5xx_hal_exti.c ****   * @param  pExtiConfig Pointer on EXTI configuration to be set.
 137:Drivers/STM32H5xx_HAL_Driver/Src/stm32h5xx_hal_exti.c ****   * @retval HAL Status.
 138:Drivers/STM32H5xx_HAL_Driver/Src/stm32h5xx_hal_exti.c ****   */
 139:Drivers/STM32H5xx_HAL_Driver/Src/stm32h5xx_hal_exti.c **** HAL_StatusTypeDef HAL_EXTI_SetConfigLine(EXTI_HandleTypeDef *hexti, EXTI_ConfigTypeDef *pExtiConfig
 140:Drivers/STM32H5xx_HAL_Driver/Src/stm32h5xx_hal_exti.c **** {
  31              		.loc 1 140 1 view -0
  32              		.cfi_startproc
ARM GAS  C:\Users\sapph\AppData\Local\Temp\ccpAXXPh.s 			page 4


  33              		@ args = 0, pretend = 0, frame = 0
  34              		@ frame_needed = 0, uses_anonymous_args = 0
 141:Drivers/STM32H5xx_HAL_Driver/Src/stm32h5xx_hal_exti.c ****   __IO uint32_t *regaddr;
  35              		.loc 1 141 3 view .LVU1
 142:Drivers/STM32H5xx_HAL_Driver/Src/stm32h5xx_hal_exti.c ****   uint32_t regval;
  36              		.loc 1 142 3 view .LVU2
 143:Drivers/STM32H5xx_HAL_Driver/Src/stm32h5xx_hal_exti.c ****   uint32_t linepos;
  37              		.loc 1 143 3 view .LVU3
 144:Drivers/STM32H5xx_HAL_Driver/Src/stm32h5xx_hal_exti.c ****   uint32_t maskline;
  38              		.loc 1 144 3 view .LVU4
 145:Drivers/STM32H5xx_HAL_Driver/Src/stm32h5xx_hal_exti.c ****   uint32_t offset;
  39              		.loc 1 145 3 view .LVU5
 146:Drivers/STM32H5xx_HAL_Driver/Src/stm32h5xx_hal_exti.c **** 
 147:Drivers/STM32H5xx_HAL_Driver/Src/stm32h5xx_hal_exti.c ****   /* Check null pointer */
 148:Drivers/STM32H5xx_HAL_Driver/Src/stm32h5xx_hal_exti.c ****   if ((hexti == NULL) || (pExtiConfig == NULL))
  40              		.loc 1 148 3 view .LVU6
  41              		.loc 1 148 6 is_stmt 0 view .LVU7
  42 0000 0028     		cmp	r0, #0
  43 0002 5ED0     		beq	.L12
  44              		.loc 1 148 23 discriminator 1 view .LVU8
  45 0004 0029     		cmp	r1, #0
  46 0006 5ED0     		beq	.L13
 140:Drivers/STM32H5xx_HAL_Driver/Src/stm32h5xx_hal_exti.c ****   __IO uint32_t *regaddr;
  47              		.loc 1 140 1 view .LVU9
  48 0008 70B5     		push	{r4, r5, r6, lr}
  49              		.cfi_def_cfa_offset 16
  50              		.cfi_offset 4, -16
  51              		.cfi_offset 5, -12
  52              		.cfi_offset 6, -8
  53              		.cfi_offset 14, -4
 149:Drivers/STM32H5xx_HAL_Driver/Src/stm32h5xx_hal_exti.c ****   {
 150:Drivers/STM32H5xx_HAL_Driver/Src/stm32h5xx_hal_exti.c ****     return HAL_ERROR;
 151:Drivers/STM32H5xx_HAL_Driver/Src/stm32h5xx_hal_exti.c ****   }
 152:Drivers/STM32H5xx_HAL_Driver/Src/stm32h5xx_hal_exti.c **** 
 153:Drivers/STM32H5xx_HAL_Driver/Src/stm32h5xx_hal_exti.c ****   /* Check the parameters */
 154:Drivers/STM32H5xx_HAL_Driver/Src/stm32h5xx_hal_exti.c ****   assert_param(IS_EXTI_LINE(pExtiConfig->Line));
  54              		.loc 1 154 3 is_stmt 1 view .LVU10
 155:Drivers/STM32H5xx_HAL_Driver/Src/stm32h5xx_hal_exti.c ****   assert_param(IS_EXTI_MODE(pExtiConfig->Mode));
  55              		.loc 1 155 3 view .LVU11
 156:Drivers/STM32H5xx_HAL_Driver/Src/stm32h5xx_hal_exti.c **** 
 157:Drivers/STM32H5xx_HAL_Driver/Src/stm32h5xx_hal_exti.c ****   /* Assign line number to handle */
 158:Drivers/STM32H5xx_HAL_Driver/Src/stm32h5xx_hal_exti.c ****   hexti->Line = pExtiConfig->Line;
  56              		.loc 1 158 3 view .LVU12
  57              		.loc 1 158 28 is_stmt 0 view .LVU13
  58 000a 0A68     		ldr	r2, [r1]
  59              		.loc 1 158 15 view .LVU14
  60 000c 0260     		str	r2, [r0]
 159:Drivers/STM32H5xx_HAL_Driver/Src/stm32h5xx_hal_exti.c **** 
 160:Drivers/STM32H5xx_HAL_Driver/Src/stm32h5xx_hal_exti.c ****   /* compute line register offset and line mask */
 161:Drivers/STM32H5xx_HAL_Driver/Src/stm32h5xx_hal_exti.c ****   offset = ((pExtiConfig->Line & EXTI_REG_MASK) >> EXTI_REG_SHIFT);
  61              		.loc 1 161 3 is_stmt 1 view .LVU15
  62              		.loc 1 161 10 is_stmt 0 view .LVU16
  63 000e C2F30043 		ubfx	r3, r2, #16, #1
  64              	.LVL1:
 162:Drivers/STM32H5xx_HAL_Driver/Src/stm32h5xx_hal_exti.c ****   linepos = (pExtiConfig->Line & EXTI_PIN_MASK);
  65              		.loc 1 162 3 is_stmt 1 view .LVU17
  66              		.loc 1 162 11 is_stmt 0 view .LVU18
ARM GAS  C:\Users\sapph\AppData\Local\Temp\ccpAXXPh.s 			page 5


  67 0012 02F01F0C 		and	ip, r2, #31
  68              	.LVL2:
 163:Drivers/STM32H5xx_HAL_Driver/Src/stm32h5xx_hal_exti.c ****   maskline = (1UL << linepos);
  69              		.loc 1 163 3 is_stmt 1 view .LVU19
  70              		.loc 1 163 12 is_stmt 0 view .LVU20
  71 0016 0120     		movs	r0, #1
  72              	.LVL3:
  73              		.loc 1 163 12 view .LVU21
  74 0018 00FA0CF0 		lsl	r0, r0, ip
  75              	.LVL4:
 164:Drivers/STM32H5xx_HAL_Driver/Src/stm32h5xx_hal_exti.c **** 
 165:Drivers/STM32H5xx_HAL_Driver/Src/stm32h5xx_hal_exti.c ****   /* Configure triggers for configurable lines */
 166:Drivers/STM32H5xx_HAL_Driver/Src/stm32h5xx_hal_exti.c ****   if ((pExtiConfig->Line & EXTI_CONFIG) != 0U)
  76              		.loc 1 166 3 is_stmt 1 view .LVU22
  77              		.loc 1 166 6 is_stmt 0 view .LVU23
  78 001c 12F0007F 		tst	r2, #33554432
  79 0020 1CD0     		beq	.L3
 167:Drivers/STM32H5xx_HAL_Driver/Src/stm32h5xx_hal_exti.c ****   {
 168:Drivers/STM32H5xx_HAL_Driver/Src/stm32h5xx_hal_exti.c ****     assert_param(IS_EXTI_TRIGGER(pExtiConfig->Trigger));
  80              		.loc 1 168 5 is_stmt 1 view .LVU24
 169:Drivers/STM32H5xx_HAL_Driver/Src/stm32h5xx_hal_exti.c **** 
 170:Drivers/STM32H5xx_HAL_Driver/Src/stm32h5xx_hal_exti.c ****     /* Configure rising trigger */
 171:Drivers/STM32H5xx_HAL_Driver/Src/stm32h5xx_hal_exti.c ****     regaddr = (__IO uint32_t *)(&EXTI->RTSR1 + (EXTI_CONFIG_OFFSET * offset));
  81              		.loc 1 171 5 view .LVU25
  82              		.loc 1 171 15 is_stmt 0 view .LVU26
  83 0022 4FEA431E 		lsl	lr, r3, #5
  84              		.loc 1 171 13 view .LVU27
  85 0026 0EF18844 		add	r4, lr, #1140850688
  86 002a 04F50834 		add	r4, r4, #139264
  87              	.LVL5:
 172:Drivers/STM32H5xx_HAL_Driver/Src/stm32h5xx_hal_exti.c ****     regval = *regaddr;
  88              		.loc 1 172 5 is_stmt 1 view .LVU28
  89              		.loc 1 172 12 is_stmt 0 view .LVU29
  90 002e 2568     		ldr	r5, [r4]
  91              	.LVL6:
 173:Drivers/STM32H5xx_HAL_Driver/Src/stm32h5xx_hal_exti.c **** 
 174:Drivers/STM32H5xx_HAL_Driver/Src/stm32h5xx_hal_exti.c ****     /* Mask or set line */
 175:Drivers/STM32H5xx_HAL_Driver/Src/stm32h5xx_hal_exti.c ****     if ((pExtiConfig->Trigger & EXTI_TRIGGER_RISING) != 0U)
  92              		.loc 1 175 5 is_stmt 1 view .LVU30
  93              		.loc 1 175 8 is_stmt 0 view .LVU31
  94 0030 8E68     		ldr	r6, [r1, #8]
  95 0032 16F0010F 		tst	r6, #1
  96 0036 24D0     		beq	.L4
 176:Drivers/STM32H5xx_HAL_Driver/Src/stm32h5xx_hal_exti.c ****     {
 177:Drivers/STM32H5xx_HAL_Driver/Src/stm32h5xx_hal_exti.c ****       regval |= maskline;
  97              		.loc 1 177 7 is_stmt 1 view .LVU32
  98              		.loc 1 177 14 is_stmt 0 view .LVU33
  99 0038 0543     		orrs	r5, r5, r0
 100              	.LVL7:
 101              	.L5:
 178:Drivers/STM32H5xx_HAL_Driver/Src/stm32h5xx_hal_exti.c ****     }
 179:Drivers/STM32H5xx_HAL_Driver/Src/stm32h5xx_hal_exti.c ****     else
 180:Drivers/STM32H5xx_HAL_Driver/Src/stm32h5xx_hal_exti.c ****     {
 181:Drivers/STM32H5xx_HAL_Driver/Src/stm32h5xx_hal_exti.c ****       regval &= ~maskline;
 182:Drivers/STM32H5xx_HAL_Driver/Src/stm32h5xx_hal_exti.c ****     }
 183:Drivers/STM32H5xx_HAL_Driver/Src/stm32h5xx_hal_exti.c **** 
 184:Drivers/STM32H5xx_HAL_Driver/Src/stm32h5xx_hal_exti.c ****     /* Store rising trigger mode */
ARM GAS  C:\Users\sapph\AppData\Local\Temp\ccpAXXPh.s 			page 6


 185:Drivers/STM32H5xx_HAL_Driver/Src/stm32h5xx_hal_exti.c ****     *regaddr = regval;
 102              		.loc 1 185 5 is_stmt 1 view .LVU34
 103              		.loc 1 185 14 is_stmt 0 view .LVU35
 104 003a 2560     		str	r5, [r4]
 186:Drivers/STM32H5xx_HAL_Driver/Src/stm32h5xx_hal_exti.c **** 
 187:Drivers/STM32H5xx_HAL_Driver/Src/stm32h5xx_hal_exti.c ****     /* Configure falling trigger */
 188:Drivers/STM32H5xx_HAL_Driver/Src/stm32h5xx_hal_exti.c ****     regaddr = (__IO uint32_t *)(&EXTI->FTSR1 + (EXTI_CONFIG_OFFSET * offset));
 105              		.loc 1 188 5 is_stmt 1 view .LVU36
 106              		.loc 1 188 13 is_stmt 0 view .LVU37
 107 003c 234E     		ldr	r6, .L19
 108              	.LVL8:
 189:Drivers/STM32H5xx_HAL_Driver/Src/stm32h5xx_hal_exti.c ****     regval = *regaddr;
 109              		.loc 1 189 5 is_stmt 1 view .LVU38
 110              		.loc 1 189 12 is_stmt 0 view .LVU39
 111 003e 5EF80640 		ldr	r4, [lr, r6]
 112              	.LVL9:
 190:Drivers/STM32H5xx_HAL_Driver/Src/stm32h5xx_hal_exti.c **** 
 191:Drivers/STM32H5xx_HAL_Driver/Src/stm32h5xx_hal_exti.c ****     /* Mask or set line */
 192:Drivers/STM32H5xx_HAL_Driver/Src/stm32h5xx_hal_exti.c ****     if ((pExtiConfig->Trigger & EXTI_TRIGGER_FALLING) != 0U)
 113              		.loc 1 192 5 is_stmt 1 view .LVU40
 114              		.loc 1 192 21 is_stmt 0 view .LVU41
 115 0042 8D68     		ldr	r5, [r1, #8]
 116              		.loc 1 192 8 view .LVU42
 117 0044 15F0020F 		tst	r5, #2
 118 0048 1ED0     		beq	.L6
 193:Drivers/STM32H5xx_HAL_Driver/Src/stm32h5xx_hal_exti.c ****     {
 194:Drivers/STM32H5xx_HAL_Driver/Src/stm32h5xx_hal_exti.c ****       regval |= maskline;
 119              		.loc 1 194 7 is_stmt 1 view .LVU43
 120              		.loc 1 194 14 is_stmt 0 view .LVU44
 121 004a 0443     		orrs	r4, r4, r0
 122              	.LVL10:
 123              	.L7:
 195:Drivers/STM32H5xx_HAL_Driver/Src/stm32h5xx_hal_exti.c ****     }
 196:Drivers/STM32H5xx_HAL_Driver/Src/stm32h5xx_hal_exti.c ****     else
 197:Drivers/STM32H5xx_HAL_Driver/Src/stm32h5xx_hal_exti.c ****     {
 198:Drivers/STM32H5xx_HAL_Driver/Src/stm32h5xx_hal_exti.c ****       regval &= ~maskline;
 199:Drivers/STM32H5xx_HAL_Driver/Src/stm32h5xx_hal_exti.c ****     }
 200:Drivers/STM32H5xx_HAL_Driver/Src/stm32h5xx_hal_exti.c **** 
 201:Drivers/STM32H5xx_HAL_Driver/Src/stm32h5xx_hal_exti.c ****     /* Store falling trigger mode */
 202:Drivers/STM32H5xx_HAL_Driver/Src/stm32h5xx_hal_exti.c ****     *regaddr = regval;
 124              		.loc 1 202 5 is_stmt 1 view .LVU45
 125              		.loc 1 202 14 is_stmt 0 view .LVU46
 126 004c 4EF80640 		str	r4, [lr, r6]
 203:Drivers/STM32H5xx_HAL_Driver/Src/stm32h5xx_hal_exti.c **** 
 204:Drivers/STM32H5xx_HAL_Driver/Src/stm32h5xx_hal_exti.c ****     /* Configure gpio port selection in case of gpio exti line */
 205:Drivers/STM32H5xx_HAL_Driver/Src/stm32h5xx_hal_exti.c ****     if ((pExtiConfig->Line & EXTI_GPIO) == EXTI_GPIO)
 127              		.loc 1 205 5 is_stmt 1 view .LVU47
 128              		.loc 1 205 21 is_stmt 0 view .LVU48
 129 0050 0C68     		ldr	r4, [r1]
 130              	.LVL11:
 131              		.loc 1 205 28 view .LVU49
 132 0052 04F0C064 		and	r4, r4, #100663296
 133              		.loc 1 205 8 view .LVU50
 134 0056 B4F1C06F 		cmp	r4, #100663296
 135 005a 18D0     		beq	.L18
 136              	.LVL12:
 137              	.L3:
ARM GAS  C:\Users\sapph\AppData\Local\Temp\ccpAXXPh.s 			page 7


 206:Drivers/STM32H5xx_HAL_Driver/Src/stm32h5xx_hal_exti.c ****     {
 207:Drivers/STM32H5xx_HAL_Driver/Src/stm32h5xx_hal_exti.c ****       assert_param(IS_EXTI_GPIO_PORT(pExtiConfig->GPIOSel));
 208:Drivers/STM32H5xx_HAL_Driver/Src/stm32h5xx_hal_exti.c ****       assert_param(IS_EXTI_GPIO_PIN(linepos));
 209:Drivers/STM32H5xx_HAL_Driver/Src/stm32h5xx_hal_exti.c **** 
 210:Drivers/STM32H5xx_HAL_Driver/Src/stm32h5xx_hal_exti.c ****       regval = EXTI->EXTICR[(linepos >> 2U) & 0x03UL];
 211:Drivers/STM32H5xx_HAL_Driver/Src/stm32h5xx_hal_exti.c ****       regval &= ~(EXTI_EXTICR1_EXTI0 << (EXTI_EXTICR1_EXTI1_Pos * (linepos & 0x03U)));
 212:Drivers/STM32H5xx_HAL_Driver/Src/stm32h5xx_hal_exti.c ****       regval |= (pExtiConfig->GPIOSel << (EXTI_EXTICR1_EXTI1_Pos * (linepos & 0x03U)));
 213:Drivers/STM32H5xx_HAL_Driver/Src/stm32h5xx_hal_exti.c ****       EXTI->EXTICR[(linepos >> 2U) & 0x03UL] = regval;
 214:Drivers/STM32H5xx_HAL_Driver/Src/stm32h5xx_hal_exti.c ****     }
 215:Drivers/STM32H5xx_HAL_Driver/Src/stm32h5xx_hal_exti.c ****   }
 216:Drivers/STM32H5xx_HAL_Driver/Src/stm32h5xx_hal_exti.c **** 
 217:Drivers/STM32H5xx_HAL_Driver/Src/stm32h5xx_hal_exti.c ****   /* Configure interrupt mode : read current mode */
 218:Drivers/STM32H5xx_HAL_Driver/Src/stm32h5xx_hal_exti.c ****   regaddr = (__IO uint32_t *)(&EXTI->IMR1 + (EXTI_MODE_OFFSET * offset));
 138              		.loc 1 218 3 is_stmt 1 view .LVU51
 139              		.loc 1 218 13 is_stmt 0 view .LVU52
 140 005c 1B01     		lsls	r3, r3, #4
 141              	.LVL13:
 142              		.loc 1 218 11 view .LVU53
 143 005e 1C4C     		ldr	r4, .L19+4
 144              	.LVL14:
 219:Drivers/STM32H5xx_HAL_Driver/Src/stm32h5xx_hal_exti.c ****   regval = *regaddr;
 145              		.loc 1 219 3 is_stmt 1 view .LVU54
 146              		.loc 1 219 10 is_stmt 0 view .LVU55
 147 0060 1A59     		ldr	r2, [r3, r4]
 148              	.LVL15:
 220:Drivers/STM32H5xx_HAL_Driver/Src/stm32h5xx_hal_exti.c **** 
 221:Drivers/STM32H5xx_HAL_Driver/Src/stm32h5xx_hal_exti.c ****   /* Mask or set line */
 222:Drivers/STM32H5xx_HAL_Driver/Src/stm32h5xx_hal_exti.c ****   if ((pExtiConfig->Mode & EXTI_MODE_INTERRUPT) != 0U)
 149              		.loc 1 222 3 is_stmt 1 view .LVU56
 150              		.loc 1 222 6 is_stmt 0 view .LVU57
 151 0062 4D68     		ldr	r5, [r1, #4]
 152 0064 15F0010F 		tst	r5, #1
 153 0068 25D0     		beq	.L8
 223:Drivers/STM32H5xx_HAL_Driver/Src/stm32h5xx_hal_exti.c ****   {
 224:Drivers/STM32H5xx_HAL_Driver/Src/stm32h5xx_hal_exti.c ****     regval |= maskline;
 154              		.loc 1 224 5 is_stmt 1 view .LVU58
 155              		.loc 1 224 12 is_stmt 0 view .LVU59
 156 006a 0243     		orrs	r2, r2, r0
 157              	.LVL16:
 158              	.L9:
 225:Drivers/STM32H5xx_HAL_Driver/Src/stm32h5xx_hal_exti.c ****   }
 226:Drivers/STM32H5xx_HAL_Driver/Src/stm32h5xx_hal_exti.c ****   else
 227:Drivers/STM32H5xx_HAL_Driver/Src/stm32h5xx_hal_exti.c ****   {
 228:Drivers/STM32H5xx_HAL_Driver/Src/stm32h5xx_hal_exti.c ****     regval &= ~maskline;
 229:Drivers/STM32H5xx_HAL_Driver/Src/stm32h5xx_hal_exti.c ****   }
 230:Drivers/STM32H5xx_HAL_Driver/Src/stm32h5xx_hal_exti.c **** 
 231:Drivers/STM32H5xx_HAL_Driver/Src/stm32h5xx_hal_exti.c ****   /* Store interrupt mode */
 232:Drivers/STM32H5xx_HAL_Driver/Src/stm32h5xx_hal_exti.c ****   *regaddr = regval;
 159              		.loc 1 232 3 is_stmt 1 view .LVU60
 160              		.loc 1 232 12 is_stmt 0 view .LVU61
 161 006c 1A51     		str	r2, [r3, r4]
 233:Drivers/STM32H5xx_HAL_Driver/Src/stm32h5xx_hal_exti.c **** 
 234:Drivers/STM32H5xx_HAL_Driver/Src/stm32h5xx_hal_exti.c ****   /* Configure event mode : read current mode */
 235:Drivers/STM32H5xx_HAL_Driver/Src/stm32h5xx_hal_exti.c ****   regaddr = (__IO uint32_t *)(&EXTI->EMR1 + (EXTI_MODE_OFFSET * offset));
 162              		.loc 1 235 3 is_stmt 1 view .LVU62
 163              		.loc 1 235 11 is_stmt 0 view .LVU63
 164 006e 194C     		ldr	r4, .L19+8
ARM GAS  C:\Users\sapph\AppData\Local\Temp\ccpAXXPh.s 			page 8


 165              	.LVL17:
 236:Drivers/STM32H5xx_HAL_Driver/Src/stm32h5xx_hal_exti.c ****   regval = *regaddr;
 166              		.loc 1 236 3 is_stmt 1 view .LVU64
 167              		.loc 1 236 10 is_stmt 0 view .LVU65
 168 0070 1A59     		ldr	r2, [r3, r4]
 169              	.LVL18:
 237:Drivers/STM32H5xx_HAL_Driver/Src/stm32h5xx_hal_exti.c **** 
 238:Drivers/STM32H5xx_HAL_Driver/Src/stm32h5xx_hal_exti.c ****   /* Mask or set line */
 239:Drivers/STM32H5xx_HAL_Driver/Src/stm32h5xx_hal_exti.c ****   if ((pExtiConfig->Mode & EXTI_MODE_EVENT) != 0U)
 170              		.loc 1 239 3 is_stmt 1 view .LVU66
 171              		.loc 1 239 19 is_stmt 0 view .LVU67
 172 0072 4968     		ldr	r1, [r1, #4]
 173              	.LVL19:
 174              		.loc 1 239 6 view .LVU68
 175 0074 11F0020F 		tst	r1, #2
 176 0078 20D0     		beq	.L10
 240:Drivers/STM32H5xx_HAL_Driver/Src/stm32h5xx_hal_exti.c ****   {
 241:Drivers/STM32H5xx_HAL_Driver/Src/stm32h5xx_hal_exti.c ****     regval |= maskline;
 177              		.loc 1 241 5 is_stmt 1 view .LVU69
 178              		.loc 1 241 12 is_stmt 0 view .LVU70
 179 007a 0243     		orrs	r2, r2, r0
 180              	.LVL20:
 181              	.L11:
 242:Drivers/STM32H5xx_HAL_Driver/Src/stm32h5xx_hal_exti.c ****   }
 243:Drivers/STM32H5xx_HAL_Driver/Src/stm32h5xx_hal_exti.c ****   else
 244:Drivers/STM32H5xx_HAL_Driver/Src/stm32h5xx_hal_exti.c ****   {
 245:Drivers/STM32H5xx_HAL_Driver/Src/stm32h5xx_hal_exti.c ****     regval &= ~maskline;
 246:Drivers/STM32H5xx_HAL_Driver/Src/stm32h5xx_hal_exti.c ****   }
 247:Drivers/STM32H5xx_HAL_Driver/Src/stm32h5xx_hal_exti.c **** 
 248:Drivers/STM32H5xx_HAL_Driver/Src/stm32h5xx_hal_exti.c ****   /* Store event mode */
 249:Drivers/STM32H5xx_HAL_Driver/Src/stm32h5xx_hal_exti.c ****   *regaddr = regval;
 182              		.loc 1 249 3 is_stmt 1 view .LVU71
 183              		.loc 1 249 12 is_stmt 0 view .LVU72
 184 007c 1A51     		str	r2, [r3, r4]
 250:Drivers/STM32H5xx_HAL_Driver/Src/stm32h5xx_hal_exti.c **** 
 251:Drivers/STM32H5xx_HAL_Driver/Src/stm32h5xx_hal_exti.c ****   return HAL_OK;
 185              		.loc 1 251 3 is_stmt 1 view .LVU73
 186              		.loc 1 251 10 is_stmt 0 view .LVU74
 187 007e 0020     		movs	r0, #0
 188              	.LVL21:
 252:Drivers/STM32H5xx_HAL_Driver/Src/stm32h5xx_hal_exti.c **** }
 189              		.loc 1 252 1 view .LVU75
 190 0080 70BD     		pop	{r4, r5, r6, pc}
 191              	.LVL22:
 192              	.L4:
 181:Drivers/STM32H5xx_HAL_Driver/Src/stm32h5xx_hal_exti.c ****     }
 193              		.loc 1 181 7 is_stmt 1 view .LVU76
 181:Drivers/STM32H5xx_HAL_Driver/Src/stm32h5xx_hal_exti.c ****     }
 194              		.loc 1 181 14 is_stmt 0 view .LVU77
 195 0082 25EA0005 		bic	r5, r5, r0
 196              	.LVL23:
 181:Drivers/STM32H5xx_HAL_Driver/Src/stm32h5xx_hal_exti.c ****     }
 197              		.loc 1 181 14 view .LVU78
 198 0086 D8E7     		b	.L5
 199              	.LVL24:
 200              	.L6:
 198:Drivers/STM32H5xx_HAL_Driver/Src/stm32h5xx_hal_exti.c ****     }
ARM GAS  C:\Users\sapph\AppData\Local\Temp\ccpAXXPh.s 			page 9


 201              		.loc 1 198 7 is_stmt 1 view .LVU79
 198:Drivers/STM32H5xx_HAL_Driver/Src/stm32h5xx_hal_exti.c ****     }
 202              		.loc 1 198 14 is_stmt 0 view .LVU80
 203 0088 24EA0004 		bic	r4, r4, r0
 204              	.LVL25:
 198:Drivers/STM32H5xx_HAL_Driver/Src/stm32h5xx_hal_exti.c ****     }
 205              		.loc 1 198 14 view .LVU81
 206 008c DEE7     		b	.L7
 207              	.LVL26:
 208              	.L18:
 207:Drivers/STM32H5xx_HAL_Driver/Src/stm32h5xx_hal_exti.c ****       assert_param(IS_EXTI_GPIO_PIN(linepos));
 209              		.loc 1 207 7 is_stmt 1 view .LVU82
 208:Drivers/STM32H5xx_HAL_Driver/Src/stm32h5xx_hal_exti.c **** 
 210              		.loc 1 208 7 view .LVU83
 210:Drivers/STM32H5xx_HAL_Driver/Src/stm32h5xx_hal_exti.c ****       regval &= ~(EXTI_EXTICR1_EXTI0 << (EXTI_EXTICR1_EXTI1_Pos * (linepos & 0x03U)));
 211              		.loc 1 210 7 view .LVU84
 210:Drivers/STM32H5xx_HAL_Driver/Src/stm32h5xx_hal_exti.c ****       regval &= ~(EXTI_EXTICR1_EXTI0 << (EXTI_EXTICR1_EXTI1_Pos * (linepos & 0x03U)));
 212              		.loc 1 210 45 is_stmt 0 view .LVU85
 213 008e CCF3810C 		ubfx	ip, ip, #2, #2
 214              	.LVL27:
 210:Drivers/STM32H5xx_HAL_Driver/Src/stm32h5xx_hal_exti.c ****       regval &= ~(EXTI_EXTICR1_EXTI0 << (EXTI_EXTICR1_EXTI1_Pos * (linepos & 0x03U)));
 215              		.loc 1 210 14 view .LVU86
 216 0092 114E     		ldr	r6, .L19+12
 217              	.LVL28:
 210:Drivers/STM32H5xx_HAL_Driver/Src/stm32h5xx_hal_exti.c ****       regval &= ~(EXTI_EXTICR1_EXTI0 << (EXTI_EXTICR1_EXTI1_Pos * (linepos & 0x03U)));
 218              		.loc 1 210 14 view .LVU87
 219 0094 0CF1180C 		add	ip, ip, #24
 220 0098 56F82C50 		ldr	r5, [r6, ip, lsl #2]
 221              	.LVL29:
 211:Drivers/STM32H5xx_HAL_Driver/Src/stm32h5xx_hal_exti.c ****       regval |= (pExtiConfig->GPIOSel << (EXTI_EXTICR1_EXTI1_Pos * (linepos & 0x03U)));
 222              		.loc 1 211 7 is_stmt 1 view .LVU88
 211:Drivers/STM32H5xx_HAL_Driver/Src/stm32h5xx_hal_exti.c ****       regval |= (pExtiConfig->GPIOSel << (EXTI_EXTICR1_EXTI1_Pos * (linepos & 0x03U)));
 223              		.loc 1 211 76 is_stmt 0 view .LVU89
 224 009c 02F00302 		and	r2, r2, #3
 225              	.LVL30:
 211:Drivers/STM32H5xx_HAL_Driver/Src/stm32h5xx_hal_exti.c ****       regval |= (pExtiConfig->GPIOSel << (EXTI_EXTICR1_EXTI1_Pos * (linepos & 0x03U)));
 226              		.loc 1 211 65 view .LVU90
 227 00a0 D200     		lsls	r2, r2, #3
 211:Drivers/STM32H5xx_HAL_Driver/Src/stm32h5xx_hal_exti.c ****       regval |= (pExtiConfig->GPIOSel << (EXTI_EXTICR1_EXTI1_Pos * (linepos & 0x03U)));
 228              		.loc 1 211 38 view .LVU91
 229 00a2 0F24     		movs	r4, #15
 230 00a4 9440     		lsls	r4, r4, r2
 211:Drivers/STM32H5xx_HAL_Driver/Src/stm32h5xx_hal_exti.c ****       regval |= (pExtiConfig->GPIOSel << (EXTI_EXTICR1_EXTI1_Pos * (linepos & 0x03U)));
 231              		.loc 1 211 14 view .LVU92
 232 00a6 25EA0405 		bic	r5, r5, r4
 233              	.LVL31:
 212:Drivers/STM32H5xx_HAL_Driver/Src/stm32h5xx_hal_exti.c ****       EXTI->EXTICR[(linepos >> 2U) & 0x03UL] = regval;
 234              		.loc 1 212 7 is_stmt 1 view .LVU93
 212:Drivers/STM32H5xx_HAL_Driver/Src/stm32h5xx_hal_exti.c ****       EXTI->EXTICR[(linepos >> 2U) & 0x03UL] = regval;
 235              		.loc 1 212 29 is_stmt 0 view .LVU94
 236 00aa CC68     		ldr	r4, [r1, #12]
 212:Drivers/STM32H5xx_HAL_Driver/Src/stm32h5xx_hal_exti.c ****       EXTI->EXTICR[(linepos >> 2U) & 0x03UL] = regval;
 237              		.loc 1 212 39 view .LVU95
 238 00ac 9440     		lsls	r4, r4, r2
 212:Drivers/STM32H5xx_HAL_Driver/Src/stm32h5xx_hal_exti.c ****       EXTI->EXTICR[(linepos >> 2U) & 0x03UL] = regval;
 239              		.loc 1 212 14 view .LVU96
 240 00ae 2C43     		orrs	r4, r4, r5
ARM GAS  C:\Users\sapph\AppData\Local\Temp\ccpAXXPh.s 			page 10


 241              	.LVL32:
 213:Drivers/STM32H5xx_HAL_Driver/Src/stm32h5xx_hal_exti.c ****     }
 242              		.loc 1 213 7 is_stmt 1 view .LVU97
 213:Drivers/STM32H5xx_HAL_Driver/Src/stm32h5xx_hal_exti.c ****     }
 243              		.loc 1 213 46 is_stmt 0 view .LVU98
 244 00b0 46F82C40 		str	r4, [r6, ip, lsl #2]
 245 00b4 D2E7     		b	.L3
 246              	.LVL33:
 247              	.L8:
 228:Drivers/STM32H5xx_HAL_Driver/Src/stm32h5xx_hal_exti.c ****   }
 248              		.loc 1 228 5 is_stmt 1 view .LVU99
 228:Drivers/STM32H5xx_HAL_Driver/Src/stm32h5xx_hal_exti.c ****   }
 249              		.loc 1 228 12 is_stmt 0 view .LVU100
 250 00b6 22EA0002 		bic	r2, r2, r0
 251              	.LVL34:
 228:Drivers/STM32H5xx_HAL_Driver/Src/stm32h5xx_hal_exti.c ****   }
 252              		.loc 1 228 12 view .LVU101
 253 00ba D7E7     		b	.L9
 254              	.LVL35:
 255              	.L10:
 245:Drivers/STM32H5xx_HAL_Driver/Src/stm32h5xx_hal_exti.c ****   }
 256              		.loc 1 245 5 is_stmt 1 view .LVU102
 245:Drivers/STM32H5xx_HAL_Driver/Src/stm32h5xx_hal_exti.c ****   }
 257              		.loc 1 245 12 is_stmt 0 view .LVU103
 258 00bc 22EA0002 		bic	r2, r2, r0
 259              	.LVL36:
 245:Drivers/STM32H5xx_HAL_Driver/Src/stm32h5xx_hal_exti.c ****   }
 260              		.loc 1 245 12 view .LVU104
 261 00c0 DCE7     		b	.L11
 262              	.LVL37:
 263              	.L12:
 264              		.cfi_def_cfa_offset 0
 265              		.cfi_restore 4
 266              		.cfi_restore 5
 267              		.cfi_restore 6
 268              		.cfi_restore 14
 150:Drivers/STM32H5xx_HAL_Driver/Src/stm32h5xx_hal_exti.c ****   }
 269              		.loc 1 150 12 view .LVU105
 270 00c2 0120     		movs	r0, #1
 271              	.LVL38:
 150:Drivers/STM32H5xx_HAL_Driver/Src/stm32h5xx_hal_exti.c ****   }
 272              		.loc 1 150 12 view .LVU106
 273 00c4 7047     		bx	lr
 274              	.LVL39:
 275              	.L13:
 150:Drivers/STM32H5xx_HAL_Driver/Src/stm32h5xx_hal_exti.c ****   }
 276              		.loc 1 150 12 view .LVU107
 277 00c6 0120     		movs	r0, #1
 278              	.LVL40:
 279              		.loc 1 252 1 view .LVU108
 280 00c8 7047     		bx	lr
 281              	.L20:
 282 00ca 00BF     		.align	2
 283              	.L19:
 284 00cc 04200244 		.word	1140989956
 285 00d0 80200244 		.word	1140990080
 286 00d4 84200244 		.word	1140990084
ARM GAS  C:\Users\sapph\AppData\Local\Temp\ccpAXXPh.s 			page 11


 287 00d8 00200244 		.word	1140989952
 288              		.cfi_endproc
 289              	.LFE160:
 291              		.section	.text.HAL_EXTI_GetConfigLine,"ax",%progbits
 292              		.align	1
 293              		.global	HAL_EXTI_GetConfigLine
 294              		.syntax unified
 295              		.thumb
 296              		.thumb_func
 298              	HAL_EXTI_GetConfigLine:
 299              	.LVL41:
 300              	.LFB161:
 253:Drivers/STM32H5xx_HAL_Driver/Src/stm32h5xx_hal_exti.c **** 
 254:Drivers/STM32H5xx_HAL_Driver/Src/stm32h5xx_hal_exti.c **** 
 255:Drivers/STM32H5xx_HAL_Driver/Src/stm32h5xx_hal_exti.c **** /**
 256:Drivers/STM32H5xx_HAL_Driver/Src/stm32h5xx_hal_exti.c ****   * @brief  Get configuration of a dedicated Exti line.
 257:Drivers/STM32H5xx_HAL_Driver/Src/stm32h5xx_hal_exti.c ****   * @param  hexti Exti handle.
 258:Drivers/STM32H5xx_HAL_Driver/Src/stm32h5xx_hal_exti.c ****   * @param  pExtiConfig Pointer on structure to store Exti configuration.
 259:Drivers/STM32H5xx_HAL_Driver/Src/stm32h5xx_hal_exti.c ****   * @retval HAL Status.
 260:Drivers/STM32H5xx_HAL_Driver/Src/stm32h5xx_hal_exti.c ****   */
 261:Drivers/STM32H5xx_HAL_Driver/Src/stm32h5xx_hal_exti.c **** HAL_StatusTypeDef HAL_EXTI_GetConfigLine(EXTI_HandleTypeDef *hexti, EXTI_ConfigTypeDef *pExtiConfig
 262:Drivers/STM32H5xx_HAL_Driver/Src/stm32h5xx_hal_exti.c **** {
 301              		.loc 1 262 1 is_stmt 1 view -0
 302              		.cfi_startproc
 303              		@ args = 0, pretend = 0, frame = 0
 304              		@ frame_needed = 0, uses_anonymous_args = 0
 263:Drivers/STM32H5xx_HAL_Driver/Src/stm32h5xx_hal_exti.c ****   const __IO uint32_t *regaddr;
 305              		.loc 1 263 3 view .LVU110
 264:Drivers/STM32H5xx_HAL_Driver/Src/stm32h5xx_hal_exti.c ****   uint32_t regval;
 306              		.loc 1 264 3 view .LVU111
 265:Drivers/STM32H5xx_HAL_Driver/Src/stm32h5xx_hal_exti.c ****   uint32_t linepos;
 307              		.loc 1 265 3 view .LVU112
 266:Drivers/STM32H5xx_HAL_Driver/Src/stm32h5xx_hal_exti.c ****   uint32_t maskline;
 308              		.loc 1 266 3 view .LVU113
 267:Drivers/STM32H5xx_HAL_Driver/Src/stm32h5xx_hal_exti.c ****   uint32_t offset;
 309              		.loc 1 267 3 view .LVU114
 268:Drivers/STM32H5xx_HAL_Driver/Src/stm32h5xx_hal_exti.c **** 
 269:Drivers/STM32H5xx_HAL_Driver/Src/stm32h5xx_hal_exti.c ****   /* Check null pointer */
 270:Drivers/STM32H5xx_HAL_Driver/Src/stm32h5xx_hal_exti.c ****   if ((hexti == NULL) || (pExtiConfig == NULL))
 310              		.loc 1 270 3 view .LVU115
 311              		.loc 1 270 6 is_stmt 0 view .LVU116
 312 0000 0028     		cmp	r0, #0
 313 0002 51D0     		beq	.L28
 314              		.loc 1 270 23 discriminator 1 view .LVU117
 315 0004 0029     		cmp	r1, #0
 316 0006 51D0     		beq	.L29
 262:Drivers/STM32H5xx_HAL_Driver/Src/stm32h5xx_hal_exti.c ****   const __IO uint32_t *regaddr;
 317              		.loc 1 262 1 view .LVU118
 318 0008 30B5     		push	{r4, r5, lr}
 319              		.cfi_def_cfa_offset 12
 320              		.cfi_offset 4, -12
 321              		.cfi_offset 5, -8
 322              		.cfi_offset 14, -4
 271:Drivers/STM32H5xx_HAL_Driver/Src/stm32h5xx_hal_exti.c ****   {
 272:Drivers/STM32H5xx_HAL_Driver/Src/stm32h5xx_hal_exti.c ****     return HAL_ERROR;
 273:Drivers/STM32H5xx_HAL_Driver/Src/stm32h5xx_hal_exti.c ****   }
 274:Drivers/STM32H5xx_HAL_Driver/Src/stm32h5xx_hal_exti.c **** 
ARM GAS  C:\Users\sapph\AppData\Local\Temp\ccpAXXPh.s 			page 12


 275:Drivers/STM32H5xx_HAL_Driver/Src/stm32h5xx_hal_exti.c ****   /* Check the parameter */
 276:Drivers/STM32H5xx_HAL_Driver/Src/stm32h5xx_hal_exti.c ****   assert_param(IS_EXTI_LINE(hexti->Line));
 323              		.loc 1 276 3 is_stmt 1 view .LVU119
 277:Drivers/STM32H5xx_HAL_Driver/Src/stm32h5xx_hal_exti.c **** 
 278:Drivers/STM32H5xx_HAL_Driver/Src/stm32h5xx_hal_exti.c ****   /* Store handle line number to configiguration structure */
 279:Drivers/STM32H5xx_HAL_Driver/Src/stm32h5xx_hal_exti.c ****   pExtiConfig->Line = hexti->Line;
 324              		.loc 1 279 3 view .LVU120
 325              		.loc 1 279 28 is_stmt 0 view .LVU121
 326 000a 0368     		ldr	r3, [r0]
 327              		.loc 1 279 21 view .LVU122
 328 000c 0B60     		str	r3, [r1]
 280:Drivers/STM32H5xx_HAL_Driver/Src/stm32h5xx_hal_exti.c **** 
 281:Drivers/STM32H5xx_HAL_Driver/Src/stm32h5xx_hal_exti.c ****   /* compute line register offset and line mask */
 282:Drivers/STM32H5xx_HAL_Driver/Src/stm32h5xx_hal_exti.c ****   offset = ((pExtiConfig->Line & EXTI_REG_MASK) >> EXTI_REG_SHIFT);
 329              		.loc 1 282 3 is_stmt 1 view .LVU123
 330              		.loc 1 282 10 is_stmt 0 view .LVU124
 331 000e C3F30040 		ubfx	r0, r3, #16, #1
 332              	.LVL42:
 283:Drivers/STM32H5xx_HAL_Driver/Src/stm32h5xx_hal_exti.c ****   linepos = (pExtiConfig->Line & EXTI_PIN_MASK);
 333              		.loc 1 283 3 is_stmt 1 view .LVU125
 334              		.loc 1 283 11 is_stmt 0 view .LVU126
 335 0012 03F01F0E 		and	lr, r3, #31
 336              	.LVL43:
 284:Drivers/STM32H5xx_HAL_Driver/Src/stm32h5xx_hal_exti.c ****   maskline = (1UL << linepos);
 337              		.loc 1 284 3 is_stmt 1 view .LVU127
 338              		.loc 1 284 12 is_stmt 0 view .LVU128
 339 0016 0122     		movs	r2, #1
 340 0018 02FA0EF2 		lsl	r2, r2, lr
 341              	.LVL44:
 285:Drivers/STM32H5xx_HAL_Driver/Src/stm32h5xx_hal_exti.c **** 
 286:Drivers/STM32H5xx_HAL_Driver/Src/stm32h5xx_hal_exti.c ****   /* 1] Get core mode : interrupt */
 287:Drivers/STM32H5xx_HAL_Driver/Src/stm32h5xx_hal_exti.c ****   regaddr = (__IO uint32_t *)(&EXTI->IMR1 + (EXTI_MODE_OFFSET * offset));
 342              		.loc 1 287 3 is_stmt 1 view .LVU129
 343              		.loc 1 287 13 is_stmt 0 view .LVU130
 344 001c 4FEA001C 		lsl	ip, r0, #4
 345              		.loc 1 287 11 view .LVU131
 346 0020 244C     		ldr	r4, .L37
 347              	.LVL45:
 288:Drivers/STM32H5xx_HAL_Driver/Src/stm32h5xx_hal_exti.c ****   regval = *regaddr;
 348              		.loc 1 288 3 is_stmt 1 view .LVU132
 349              		.loc 1 288 10 is_stmt 0 view .LVU133
 350 0022 5CF80440 		ldr	r4, [ip, r4]
 351              	.LVL46:
 289:Drivers/STM32H5xx_HAL_Driver/Src/stm32h5xx_hal_exti.c **** 
 290:Drivers/STM32H5xx_HAL_Driver/Src/stm32h5xx_hal_exti.c ****   /* Check if selected line is enable */
 291:Drivers/STM32H5xx_HAL_Driver/Src/stm32h5xx_hal_exti.c ****   if ((regval & maskline) != 0U)
 352              		.loc 1 291 3 is_stmt 1 view .LVU134
 353              		.loc 1 291 6 is_stmt 0 view .LVU135
 354 0026 2242     		tst	r2, r4
 355 0028 2AD0     		beq	.L23
 292:Drivers/STM32H5xx_HAL_Driver/Src/stm32h5xx_hal_exti.c ****   {
 293:Drivers/STM32H5xx_HAL_Driver/Src/stm32h5xx_hal_exti.c ****     pExtiConfig->Mode = EXTI_MODE_INTERRUPT;
 356              		.loc 1 293 5 is_stmt 1 view .LVU136
 357              		.loc 1 293 23 is_stmt 0 view .LVU137
 358 002a 0124     		movs	r4, #1
 359              	.LVL47:
 360              		.loc 1 293 23 view .LVU138
ARM GAS  C:\Users\sapph\AppData\Local\Temp\ccpAXXPh.s 			page 13


 361 002c 4C60     		str	r4, [r1, #4]
 362              	.L24:
 294:Drivers/STM32H5xx_HAL_Driver/Src/stm32h5xx_hal_exti.c ****   }
 295:Drivers/STM32H5xx_HAL_Driver/Src/stm32h5xx_hal_exti.c ****   else
 296:Drivers/STM32H5xx_HAL_Driver/Src/stm32h5xx_hal_exti.c ****   {
 297:Drivers/STM32H5xx_HAL_Driver/Src/stm32h5xx_hal_exti.c ****     pExtiConfig->Mode = EXTI_MODE_NONE;
 298:Drivers/STM32H5xx_HAL_Driver/Src/stm32h5xx_hal_exti.c ****   }
 299:Drivers/STM32H5xx_HAL_Driver/Src/stm32h5xx_hal_exti.c **** 
 300:Drivers/STM32H5xx_HAL_Driver/Src/stm32h5xx_hal_exti.c ****   /* Get event mode */
 301:Drivers/STM32H5xx_HAL_Driver/Src/stm32h5xx_hal_exti.c ****   regaddr = (__IO uint32_t *)(&EXTI->EMR1 + (EXTI_MODE_OFFSET * offset));
 363              		.loc 1 301 3 is_stmt 1 view .LVU139
 364              		.loc 1 301 11 is_stmt 0 view .LVU140
 365 002e 224C     		ldr	r4, .L37+4
 366              	.LVL48:
 302:Drivers/STM32H5xx_HAL_Driver/Src/stm32h5xx_hal_exti.c ****   regval = *regaddr;
 367              		.loc 1 302 3 is_stmt 1 view .LVU141
 368              		.loc 1 302 10 is_stmt 0 view .LVU142
 369 0030 5CF80440 		ldr	r4, [ip, r4]
 370              	.LVL49:
 303:Drivers/STM32H5xx_HAL_Driver/Src/stm32h5xx_hal_exti.c **** 
 304:Drivers/STM32H5xx_HAL_Driver/Src/stm32h5xx_hal_exti.c ****   /* Check if selected line is enable */
 305:Drivers/STM32H5xx_HAL_Driver/Src/stm32h5xx_hal_exti.c ****   if ((regval & maskline) != 0U)
 371              		.loc 1 305 3 is_stmt 1 view .LVU143
 372              		.loc 1 305 6 is_stmt 0 view .LVU144
 373 0034 2242     		tst	r2, r4
 374 0036 03D0     		beq	.L25
 306:Drivers/STM32H5xx_HAL_Driver/Src/stm32h5xx_hal_exti.c ****   {
 307:Drivers/STM32H5xx_HAL_Driver/Src/stm32h5xx_hal_exti.c ****     pExtiConfig->Mode |= EXTI_MODE_EVENT;
 375              		.loc 1 307 5 is_stmt 1 view .LVU145
 376              		.loc 1 307 16 is_stmt 0 view .LVU146
 377 0038 4C68     		ldr	r4, [r1, #4]
 378              	.LVL50:
 379              		.loc 1 307 23 view .LVU147
 380 003a 44F00204 		orr	r4, r4, #2
 381 003e 4C60     		str	r4, [r1, #4]
 382              	.L25:
 308:Drivers/STM32H5xx_HAL_Driver/Src/stm32h5xx_hal_exti.c ****   }
 309:Drivers/STM32H5xx_HAL_Driver/Src/stm32h5xx_hal_exti.c **** 
 310:Drivers/STM32H5xx_HAL_Driver/Src/stm32h5xx_hal_exti.c ****   /* 2] Get trigger for configurable lines : rising */
 311:Drivers/STM32H5xx_HAL_Driver/Src/stm32h5xx_hal_exti.c ****   if ((pExtiConfig->Line & EXTI_CONFIG) != 0U)
 383              		.loc 1 311 3 is_stmt 1 view .LVU148
 384              		.loc 1 311 6 is_stmt 0 view .LVU149
 385 0040 13F0007F 		tst	r3, #33554432
 386 0044 34D0     		beq	.L30
 312:Drivers/STM32H5xx_HAL_Driver/Src/stm32h5xx_hal_exti.c ****   {
 313:Drivers/STM32H5xx_HAL_Driver/Src/stm32h5xx_hal_exti.c ****     regaddr = (__IO uint32_t *)(&EXTI->RTSR1 + (EXTI_CONFIG_OFFSET * offset));
 387              		.loc 1 313 5 is_stmt 1 view .LVU150
 388              		.loc 1 313 15 is_stmt 0 view .LVU151
 389 0046 4001     		lsls	r0, r0, #5
 390              	.LVL51:
 391              		.loc 1 313 13 view .LVU152
 392 0048 00F1884C 		add	ip, r0, #1140850688
 393              	.LVL52:
 394              		.loc 1 313 13 view .LVU153
 395 004c 0CF5083C 		add	ip, ip, #139264
 396              	.LVL53:
 314:Drivers/STM32H5xx_HAL_Driver/Src/stm32h5xx_hal_exti.c ****     regval = *regaddr;
ARM GAS  C:\Users\sapph\AppData\Local\Temp\ccpAXXPh.s 			page 14


 397              		.loc 1 314 5 is_stmt 1 view .LVU154
 398              		.loc 1 314 12 is_stmt 0 view .LVU155
 399 0050 DCF80050 		ldr	r5, [ip]
 400              	.LVL54:
 315:Drivers/STM32H5xx_HAL_Driver/Src/stm32h5xx_hal_exti.c **** 
 316:Drivers/STM32H5xx_HAL_Driver/Src/stm32h5xx_hal_exti.c ****     /* Get default Trigger and GPIOSel configuration */
 317:Drivers/STM32H5xx_HAL_Driver/Src/stm32h5xx_hal_exti.c ****     pExtiConfig->Trigger = EXTI_TRIGGER_NONE;
 401              		.loc 1 317 5 is_stmt 1 view .LVU156
 402              		.loc 1 317 26 is_stmt 0 view .LVU157
 403 0054 0024     		movs	r4, #0
 404 0056 8C60     		str	r4, [r1, #8]
 318:Drivers/STM32H5xx_HAL_Driver/Src/stm32h5xx_hal_exti.c ****     pExtiConfig->GPIOSel = 0x00u;
 405              		.loc 1 318 5 is_stmt 1 view .LVU158
 406              		.loc 1 318 26 is_stmt 0 view .LVU159
 407 0058 CC60     		str	r4, [r1, #12]
 319:Drivers/STM32H5xx_HAL_Driver/Src/stm32h5xx_hal_exti.c **** 
 320:Drivers/STM32H5xx_HAL_Driver/Src/stm32h5xx_hal_exti.c ****     /* Check if configuration of selected line is enable */
 321:Drivers/STM32H5xx_HAL_Driver/Src/stm32h5xx_hal_exti.c ****     if ((regval & maskline) != 0U)
 408              		.loc 1 321 5 is_stmt 1 view .LVU160
 409              		.loc 1 321 8 is_stmt 0 view .LVU161
 410 005a 2A42     		tst	r2, r5
 411 005c 01D0     		beq	.L26
 322:Drivers/STM32H5xx_HAL_Driver/Src/stm32h5xx_hal_exti.c ****     {
 323:Drivers/STM32H5xx_HAL_Driver/Src/stm32h5xx_hal_exti.c ****       pExtiConfig->Trigger = EXTI_TRIGGER_RISING;
 412              		.loc 1 323 7 is_stmt 1 view .LVU162
 413              		.loc 1 323 28 is_stmt 0 view .LVU163
 414 005e 0124     		movs	r4, #1
 415 0060 8C60     		str	r4, [r1, #8]
 416              	.L26:
 324:Drivers/STM32H5xx_HAL_Driver/Src/stm32h5xx_hal_exti.c ****     }
 325:Drivers/STM32H5xx_HAL_Driver/Src/stm32h5xx_hal_exti.c **** 
 326:Drivers/STM32H5xx_HAL_Driver/Src/stm32h5xx_hal_exti.c ****     /* Get falling configuration */
 327:Drivers/STM32H5xx_HAL_Driver/Src/stm32h5xx_hal_exti.c ****     regaddr = (__IO uint32_t *)(&EXTI->FTSR1 + (EXTI_CONFIG_OFFSET * offset));
 417              		.loc 1 327 5 is_stmt 1 view .LVU164
 418              		.loc 1 327 13 is_stmt 0 view .LVU165
 419 0062 164C     		ldr	r4, .L37+8
 420              	.LVL55:
 328:Drivers/STM32H5xx_HAL_Driver/Src/stm32h5xx_hal_exti.c ****     regval = *regaddr;
 421              		.loc 1 328 5 is_stmt 1 view .LVU166
 422              		.loc 1 328 12 is_stmt 0 view .LVU167
 423 0064 0059     		ldr	r0, [r0, r4]
 424              	.LVL56:
 329:Drivers/STM32H5xx_HAL_Driver/Src/stm32h5xx_hal_exti.c **** 
 330:Drivers/STM32H5xx_HAL_Driver/Src/stm32h5xx_hal_exti.c ****     /* Check if configuration of selected line is enable */
 331:Drivers/STM32H5xx_HAL_Driver/Src/stm32h5xx_hal_exti.c ****     if ((regval & maskline) != 0U)
 425              		.loc 1 331 5 is_stmt 1 view .LVU168
 426              		.loc 1 331 8 is_stmt 0 view .LVU169
 427 0066 0242     		tst	r2, r0
 428 0068 03D0     		beq	.L27
 332:Drivers/STM32H5xx_HAL_Driver/Src/stm32h5xx_hal_exti.c ****     {
 333:Drivers/STM32H5xx_HAL_Driver/Src/stm32h5xx_hal_exti.c ****       pExtiConfig->Trigger |= EXTI_TRIGGER_FALLING;
 429              		.loc 1 333 7 is_stmt 1 view .LVU170
 430              		.loc 1 333 18 is_stmt 0 view .LVU171
 431 006a 8A68     		ldr	r2, [r1, #8]
 432              	.LVL57:
 433              		.loc 1 333 28 view .LVU172
 434 006c 42F00202 		orr	r2, r2, #2
ARM GAS  C:\Users\sapph\AppData\Local\Temp\ccpAXXPh.s 			page 15


 435 0070 8A60     		str	r2, [r1, #8]
 436              	.L27:
 334:Drivers/STM32H5xx_HAL_Driver/Src/stm32h5xx_hal_exti.c ****     }
 335:Drivers/STM32H5xx_HAL_Driver/Src/stm32h5xx_hal_exti.c **** 
 336:Drivers/STM32H5xx_HAL_Driver/Src/stm32h5xx_hal_exti.c ****     /* Get Gpio port selection for gpio lines */
 337:Drivers/STM32H5xx_HAL_Driver/Src/stm32h5xx_hal_exti.c ****     if ((pExtiConfig->Line & EXTI_GPIO) == EXTI_GPIO)
 437              		.loc 1 337 5 is_stmt 1 view .LVU173
 438              		.loc 1 337 28 is_stmt 0 view .LVU174
 439 0072 03F0C062 		and	r2, r3, #100663296
 440              		.loc 1 337 8 view .LVU175
 441 0076 B2F1C06F 		cmp	r2, #100663296
 442 007a 04D0     		beq	.L36
 338:Drivers/STM32H5xx_HAL_Driver/Src/stm32h5xx_hal_exti.c ****     {
 339:Drivers/STM32H5xx_HAL_Driver/Src/stm32h5xx_hal_exti.c ****       assert_param(IS_EXTI_GPIO_PIN(linepos));
 340:Drivers/STM32H5xx_HAL_Driver/Src/stm32h5xx_hal_exti.c **** 
 341:Drivers/STM32H5xx_HAL_Driver/Src/stm32h5xx_hal_exti.c ****       regval = EXTI->EXTICR[(linepos >> 2U) & 0x03UL];
 342:Drivers/STM32H5xx_HAL_Driver/Src/stm32h5xx_hal_exti.c ****       pExtiConfig->GPIOSel = (regval >> (EXTI_EXTICR1_EXTI1_Pos * (linepos & 0x03u))) & EXTI_EXTICR
 343:Drivers/STM32H5xx_HAL_Driver/Src/stm32h5xx_hal_exti.c ****     }
 344:Drivers/STM32H5xx_HAL_Driver/Src/stm32h5xx_hal_exti.c ****   }
 345:Drivers/STM32H5xx_HAL_Driver/Src/stm32h5xx_hal_exti.c **** 
 346:Drivers/STM32H5xx_HAL_Driver/Src/stm32h5xx_hal_exti.c ****   return HAL_OK;
 443              		.loc 1 346 10 view .LVU176
 444 007c 0020     		movs	r0, #0
 445              	.LVL58:
 446              		.loc 1 346 10 view .LVU177
 447 007e 18E0     		b	.L22
 448              	.LVL59:
 449              	.L23:
 297:Drivers/STM32H5xx_HAL_Driver/Src/stm32h5xx_hal_exti.c ****   }
 450              		.loc 1 297 5 is_stmt 1 view .LVU178
 297:Drivers/STM32H5xx_HAL_Driver/Src/stm32h5xx_hal_exti.c ****   }
 451              		.loc 1 297 23 is_stmt 0 view .LVU179
 452 0080 0024     		movs	r4, #0
 453              	.LVL60:
 297:Drivers/STM32H5xx_HAL_Driver/Src/stm32h5xx_hal_exti.c ****   }
 454              		.loc 1 297 23 view .LVU180
 455 0082 4C60     		str	r4, [r1, #4]
 456 0084 D3E7     		b	.L24
 457              	.LVL61:
 458              	.L36:
 339:Drivers/STM32H5xx_HAL_Driver/Src/stm32h5xx_hal_exti.c **** 
 459              		.loc 1 339 7 is_stmt 1 view .LVU181
 341:Drivers/STM32H5xx_HAL_Driver/Src/stm32h5xx_hal_exti.c ****       pExtiConfig->GPIOSel = (regval >> (EXTI_EXTICR1_EXTI1_Pos * (linepos & 0x03u))) & EXTI_EXTICR
 460              		.loc 1 341 7 view .LVU182
 341:Drivers/STM32H5xx_HAL_Driver/Src/stm32h5xx_hal_exti.c ****       pExtiConfig->GPIOSel = (regval >> (EXTI_EXTICR1_EXTI1_Pos * (linepos & 0x03u))) & EXTI_EXTICR
 461              		.loc 1 341 45 is_stmt 0 view .LVU183
 462 0086 CEF3810E 		ubfx	lr, lr, #2, #2
 463              	.LVL62:
 341:Drivers/STM32H5xx_HAL_Driver/Src/stm32h5xx_hal_exti.c ****       pExtiConfig->GPIOSel = (regval >> (EXTI_EXTICR1_EXTI1_Pos * (linepos & 0x03u))) & EXTI_EXTICR
 464              		.loc 1 341 14 view .LVU184
 465 008a 0EF1180E 		add	lr, lr, #24
 466 008e 0C4A     		ldr	r2, .L37+12
 467 0090 52F82E20 		ldr	r2, [r2, lr, lsl #2]
 468              	.LVL63:
 342:Drivers/STM32H5xx_HAL_Driver/Src/stm32h5xx_hal_exti.c ****     }
 469              		.loc 1 342 7 is_stmt 1 view .LVU185
 342:Drivers/STM32H5xx_HAL_Driver/Src/stm32h5xx_hal_exti.c ****     }
ARM GAS  C:\Users\sapph\AppData\Local\Temp\ccpAXXPh.s 			page 16


 470              		.loc 1 342 76 is_stmt 0 view .LVU186
 471 0094 03F00303 		and	r3, r3, #3
 472              	.LVL64:
 342:Drivers/STM32H5xx_HAL_Driver/Src/stm32h5xx_hal_exti.c ****     }
 473              		.loc 1 342 65 view .LVU187
 474 0098 DB00     		lsls	r3, r3, #3
 342:Drivers/STM32H5xx_HAL_Driver/Src/stm32h5xx_hal_exti.c ****     }
 475              		.loc 1 342 38 view .LVU188
 476 009a 22FA03F3 		lsr	r3, r2, r3
 342:Drivers/STM32H5xx_HAL_Driver/Src/stm32h5xx_hal_exti.c ****     }
 477              		.loc 1 342 87 view .LVU189
 478 009e 03F00F03 		and	r3, r3, #15
 342:Drivers/STM32H5xx_HAL_Driver/Src/stm32h5xx_hal_exti.c ****     }
 479              		.loc 1 342 28 view .LVU190
 480 00a2 CB60     		str	r3, [r1, #12]
 481              		.loc 1 346 10 view .LVU191
 482 00a4 0020     		movs	r0, #0
 483 00a6 04E0     		b	.L22
 484              	.LVL65:
 485              	.L28:
 486              		.cfi_def_cfa_offset 0
 487              		.cfi_restore 4
 488              		.cfi_restore 5
 489              		.cfi_restore 14
 272:Drivers/STM32H5xx_HAL_Driver/Src/stm32h5xx_hal_exti.c ****   }
 490              		.loc 1 272 12 view .LVU192
 491 00a8 0120     		movs	r0, #1
 492              	.LVL66:
 272:Drivers/STM32H5xx_HAL_Driver/Src/stm32h5xx_hal_exti.c ****   }
 493              		.loc 1 272 12 view .LVU193
 494 00aa 7047     		bx	lr
 495              	.LVL67:
 496              	.L29:
 272:Drivers/STM32H5xx_HAL_Driver/Src/stm32h5xx_hal_exti.c ****   }
 497              		.loc 1 272 12 view .LVU194
 498 00ac 0120     		movs	r0, #1
 499              	.LVL68:
 347:Drivers/STM32H5xx_HAL_Driver/Src/stm32h5xx_hal_exti.c **** }
 500              		.loc 1 347 1 view .LVU195
 501 00ae 7047     		bx	lr
 502              	.LVL69:
 503              	.L30:
 504              		.cfi_def_cfa_offset 12
 505              		.cfi_offset 4, -12
 506              		.cfi_offset 5, -8
 507              		.cfi_offset 14, -4
 346:Drivers/STM32H5xx_HAL_Driver/Src/stm32h5xx_hal_exti.c **** }
 508              		.loc 1 346 10 view .LVU196
 509 00b0 0020     		movs	r0, #0
 510              	.LVL70:
 511              	.L22:
 512              		.loc 1 347 1 view .LVU197
 513 00b2 30BD     		pop	{r4, r5, pc}
 514              	.L38:
 515              		.align	2
 516              	.L37:
 517 00b4 80200244 		.word	1140990080
ARM GAS  C:\Users\sapph\AppData\Local\Temp\ccpAXXPh.s 			page 17


 518 00b8 84200244 		.word	1140990084
 519 00bc 04200244 		.word	1140989956
 520 00c0 00200244 		.word	1140989952
 521              		.cfi_endproc
 522              	.LFE161:
 524              		.section	.text.HAL_EXTI_ClearConfigLine,"ax",%progbits
 525              		.align	1
 526              		.global	HAL_EXTI_ClearConfigLine
 527              		.syntax unified
 528              		.thumb
 529              		.thumb_func
 531              	HAL_EXTI_ClearConfigLine:
 532              	.LVL71:
 533              	.LFB162:
 348:Drivers/STM32H5xx_HAL_Driver/Src/stm32h5xx_hal_exti.c **** 
 349:Drivers/STM32H5xx_HAL_Driver/Src/stm32h5xx_hal_exti.c **** 
 350:Drivers/STM32H5xx_HAL_Driver/Src/stm32h5xx_hal_exti.c **** /**
 351:Drivers/STM32H5xx_HAL_Driver/Src/stm32h5xx_hal_exti.c ****   * @brief  Clear whole configuration of a dedicated Exti line.
 352:Drivers/STM32H5xx_HAL_Driver/Src/stm32h5xx_hal_exti.c ****   * @param  hexti Exti handle.
 353:Drivers/STM32H5xx_HAL_Driver/Src/stm32h5xx_hal_exti.c ****   * @retval HAL Status.
 354:Drivers/STM32H5xx_HAL_Driver/Src/stm32h5xx_hal_exti.c ****   */
 355:Drivers/STM32H5xx_HAL_Driver/Src/stm32h5xx_hal_exti.c **** HAL_StatusTypeDef HAL_EXTI_ClearConfigLine(const EXTI_HandleTypeDef *hexti)
 356:Drivers/STM32H5xx_HAL_Driver/Src/stm32h5xx_hal_exti.c **** {
 534              		.loc 1 356 1 is_stmt 1 view -0
 535              		.cfi_startproc
 536              		@ args = 0, pretend = 0, frame = 0
 537              		@ frame_needed = 0, uses_anonymous_args = 0
 357:Drivers/STM32H5xx_HAL_Driver/Src/stm32h5xx_hal_exti.c ****   __IO uint32_t *regaddr;
 538              		.loc 1 357 3 view .LVU199
 358:Drivers/STM32H5xx_HAL_Driver/Src/stm32h5xx_hal_exti.c ****   uint32_t regval;
 539              		.loc 1 358 3 view .LVU200
 359:Drivers/STM32H5xx_HAL_Driver/Src/stm32h5xx_hal_exti.c ****   uint32_t linepos;
 540              		.loc 1 359 3 view .LVU201
 360:Drivers/STM32H5xx_HAL_Driver/Src/stm32h5xx_hal_exti.c ****   uint32_t maskline;
 541              		.loc 1 360 3 view .LVU202
 361:Drivers/STM32H5xx_HAL_Driver/Src/stm32h5xx_hal_exti.c ****   uint32_t offset;
 542              		.loc 1 361 3 view .LVU203
 362:Drivers/STM32H5xx_HAL_Driver/Src/stm32h5xx_hal_exti.c **** 
 363:Drivers/STM32H5xx_HAL_Driver/Src/stm32h5xx_hal_exti.c ****   /* Check null pointer */
 364:Drivers/STM32H5xx_HAL_Driver/Src/stm32h5xx_hal_exti.c ****   if (hexti == NULL)
 543              		.loc 1 364 3 view .LVU204
 544              		.loc 1 364 6 is_stmt 0 view .LVU205
 545 0000 0028     		cmp	r0, #0
 546 0002 41D0     		beq	.L41
 356:Drivers/STM32H5xx_HAL_Driver/Src/stm32h5xx_hal_exti.c ****   __IO uint32_t *regaddr;
 547              		.loc 1 356 1 view .LVU206
 548 0004 70B5     		push	{r4, r5, r6, lr}
 549              		.cfi_def_cfa_offset 16
 550              		.cfi_offset 4, -16
 551              		.cfi_offset 5, -12
 552              		.cfi_offset 6, -8
 553              		.cfi_offset 14, -4
 554 0006 8446     		mov	ip, r0
 365:Drivers/STM32H5xx_HAL_Driver/Src/stm32h5xx_hal_exti.c ****   {
 366:Drivers/STM32H5xx_HAL_Driver/Src/stm32h5xx_hal_exti.c ****     return HAL_ERROR;
 367:Drivers/STM32H5xx_HAL_Driver/Src/stm32h5xx_hal_exti.c ****   }
 368:Drivers/STM32H5xx_HAL_Driver/Src/stm32h5xx_hal_exti.c **** 
ARM GAS  C:\Users\sapph\AppData\Local\Temp\ccpAXXPh.s 			page 18


 369:Drivers/STM32H5xx_HAL_Driver/Src/stm32h5xx_hal_exti.c ****   /* Check the parameter */
 370:Drivers/STM32H5xx_HAL_Driver/Src/stm32h5xx_hal_exti.c ****   assert_param(IS_EXTI_LINE(hexti->Line));
 555              		.loc 1 370 3 is_stmt 1 view .LVU207
 371:Drivers/STM32H5xx_HAL_Driver/Src/stm32h5xx_hal_exti.c **** 
 372:Drivers/STM32H5xx_HAL_Driver/Src/stm32h5xx_hal_exti.c ****   /* compute line register offset and line mask */
 373:Drivers/STM32H5xx_HAL_Driver/Src/stm32h5xx_hal_exti.c ****   offset = ((hexti->Line & EXTI_REG_MASK) >> EXTI_REG_SHIFT);
 556              		.loc 1 373 3 view .LVU208
 557              		.loc 1 373 19 is_stmt 0 view .LVU209
 558 0008 0468     		ldr	r4, [r0]
 559              		.loc 1 373 10 view .LVU210
 560 000a C4F30041 		ubfx	r1, r4, #16, #1
 561              	.LVL72:
 374:Drivers/STM32H5xx_HAL_Driver/Src/stm32h5xx_hal_exti.c ****   linepos = (hexti->Line & EXTI_PIN_MASK);
 562              		.loc 1 374 3 is_stmt 1 view .LVU211
 563              		.loc 1 374 11 is_stmt 0 view .LVU212
 564 000e 04F01F0E 		and	lr, r4, #31
 565              	.LVL73:
 375:Drivers/STM32H5xx_HAL_Driver/Src/stm32h5xx_hal_exti.c ****   maskline = (1UL << linepos);
 566              		.loc 1 375 3 is_stmt 1 view .LVU213
 567              		.loc 1 375 12 is_stmt 0 view .LVU214
 568 0012 0123     		movs	r3, #1
 569 0014 03FA0EF3 		lsl	r3, r3, lr
 570              	.LVL74:
 376:Drivers/STM32H5xx_HAL_Driver/Src/stm32h5xx_hal_exti.c **** 
 377:Drivers/STM32H5xx_HAL_Driver/Src/stm32h5xx_hal_exti.c ****   /* 1] Clear interrupt mode */
 378:Drivers/STM32H5xx_HAL_Driver/Src/stm32h5xx_hal_exti.c ****   regaddr = (__IO uint32_t *)(&EXTI->IMR1 + (EXTI_MODE_OFFSET * offset));
 571              		.loc 1 378 3 is_stmt 1 view .LVU215
 572              		.loc 1 378 13 is_stmt 0 view .LVU216
 573 0018 0A01     		lsls	r2, r1, #4
 574              		.loc 1 378 11 view .LVU217
 575 001a 1D4D     		ldr	r5, .L49
 576              	.LVL75:
 379:Drivers/STM32H5xx_HAL_Driver/Src/stm32h5xx_hal_exti.c ****   regval = (*regaddr & ~maskline);
 577              		.loc 1 379 3 is_stmt 1 view .LVU218
 578              		.loc 1 379 13 is_stmt 0 view .LVU219
 579 001c 5059     		ldr	r0, [r2, r5]
 580              	.LVL76:
 581              		.loc 1 379 24 view .LVU220
 582 001e DE43     		mvns	r6, r3
 583              		.loc 1 379 10 view .LVU221
 584 0020 20EA0300 		bic	r0, r0, r3
 585              	.LVL77:
 380:Drivers/STM32H5xx_HAL_Driver/Src/stm32h5xx_hal_exti.c ****   *regaddr = regval;
 586              		.loc 1 380 3 is_stmt 1 view .LVU222
 587              		.loc 1 380 12 is_stmt 0 view .LVU223
 588 0024 5051     		str	r0, [r2, r5]
 381:Drivers/STM32H5xx_HAL_Driver/Src/stm32h5xx_hal_exti.c **** 
 382:Drivers/STM32H5xx_HAL_Driver/Src/stm32h5xx_hal_exti.c ****   /* 2] Clear event mode */
 383:Drivers/STM32H5xx_HAL_Driver/Src/stm32h5xx_hal_exti.c ****   regaddr = (__IO uint32_t *)(&EXTI->EMR1 + (EXTI_MODE_OFFSET * offset));
 589              		.loc 1 383 3 is_stmt 1 view .LVU224
 590              		.loc 1 383 11 is_stmt 0 view .LVU225
 591 0026 0435     		adds	r5, r5, #4
 592              	.LVL78:
 384:Drivers/STM32H5xx_HAL_Driver/Src/stm32h5xx_hal_exti.c ****   regval = (*regaddr & ~maskline);
 593              		.loc 1 384 3 is_stmt 1 view .LVU226
 594              		.loc 1 384 13 is_stmt 0 view .LVU227
 595 0028 5059     		ldr	r0, [r2, r5]
ARM GAS  C:\Users\sapph\AppData\Local\Temp\ccpAXXPh.s 			page 19


 596              	.LVL79:
 597              		.loc 1 384 10 view .LVU228
 598 002a 20EA0303 		bic	r3, r0, r3
 599              	.LVL80:
 385:Drivers/STM32H5xx_HAL_Driver/Src/stm32h5xx_hal_exti.c ****   *regaddr = regval;
 600              		.loc 1 385 3 is_stmt 1 view .LVU229
 601              		.loc 1 385 12 is_stmt 0 view .LVU230
 602 002e 5351     		str	r3, [r2, r5]
 386:Drivers/STM32H5xx_HAL_Driver/Src/stm32h5xx_hal_exti.c **** 
 387:Drivers/STM32H5xx_HAL_Driver/Src/stm32h5xx_hal_exti.c ****   /* 3] Clear triggers in case of configurable lines */
 388:Drivers/STM32H5xx_HAL_Driver/Src/stm32h5xx_hal_exti.c ****   if ((hexti->Line & EXTI_CONFIG) != 0U)
 603              		.loc 1 388 3 is_stmt 1 view .LVU231
 604              		.loc 1 388 13 is_stmt 0 view .LVU232
 605 0030 DCF80030 		ldr	r3, [ip]
 606              	.LVL81:
 607              		.loc 1 388 6 view .LVU233
 608 0034 13F0007F 		tst	r3, #33554432
 609 0038 28D0     		beq	.L42
 389:Drivers/STM32H5xx_HAL_Driver/Src/stm32h5xx_hal_exti.c ****   {
 390:Drivers/STM32H5xx_HAL_Driver/Src/stm32h5xx_hal_exti.c ****     regaddr = (__IO uint32_t *)(&EXTI->RTSR1 + (EXTI_CONFIG_OFFSET * offset));
 610              		.loc 1 390 5 is_stmt 1 view .LVU234
 611              		.loc 1 390 15 is_stmt 0 view .LVU235
 612 003a 4901     		lsls	r1, r1, #5
 613              	.LVL82:
 614              		.loc 1 390 13 view .LVU236
 615 003c 01F18843 		add	r3, r1, #1140850688
 616 0040 03F50833 		add	r3, r3, #139264
 617              	.LVL83:
 391:Drivers/STM32H5xx_HAL_Driver/Src/stm32h5xx_hal_exti.c ****     regval = (*regaddr & ~maskline);
 618              		.loc 1 391 5 is_stmt 1 view .LVU237
 619              		.loc 1 391 15 is_stmt 0 view .LVU238
 620 0044 1A68     		ldr	r2, [r3]
 621              	.LVL84:
 622              		.loc 1 391 12 view .LVU239
 623 0046 3240     		ands	r2, r2, r6
 624              	.LVL85:
 392:Drivers/STM32H5xx_HAL_Driver/Src/stm32h5xx_hal_exti.c ****     *regaddr = regval;
 625              		.loc 1 392 5 is_stmt 1 view .LVU240
 626              		.loc 1 392 14 is_stmt 0 view .LVU241
 627 0048 1A60     		str	r2, [r3]
 393:Drivers/STM32H5xx_HAL_Driver/Src/stm32h5xx_hal_exti.c **** 
 394:Drivers/STM32H5xx_HAL_Driver/Src/stm32h5xx_hal_exti.c ****     regaddr = (__IO uint32_t *)(&EXTI->FTSR1 + (EXTI_CONFIG_OFFSET * offset));
 628              		.loc 1 394 5 is_stmt 1 view .LVU242
 629              		.loc 1 394 13 is_stmt 0 view .LVU243
 630 004a 124B     		ldr	r3, .L49+4
 631              	.LVL86:
 395:Drivers/STM32H5xx_HAL_Driver/Src/stm32h5xx_hal_exti.c ****     regval = (*regaddr & ~maskline);
 632              		.loc 1 395 5 is_stmt 1 view .LVU244
 633              		.loc 1 395 15 is_stmt 0 view .LVU245
 634 004c CA58     		ldr	r2, [r1, r3]
 635              	.LVL87:
 636              		.loc 1 395 12 view .LVU246
 637 004e 1640     		ands	r6, r6, r2
 638              	.LVL88:
 396:Drivers/STM32H5xx_HAL_Driver/Src/stm32h5xx_hal_exti.c ****     *regaddr = regval;
 639              		.loc 1 396 5 is_stmt 1 view .LVU247
 640              		.loc 1 396 14 is_stmt 0 view .LVU248
ARM GAS  C:\Users\sapph\AppData\Local\Temp\ccpAXXPh.s 			page 20


 641 0050 CE50     		str	r6, [r1, r3]
 397:Drivers/STM32H5xx_HAL_Driver/Src/stm32h5xx_hal_exti.c **** 
 398:Drivers/STM32H5xx_HAL_Driver/Src/stm32h5xx_hal_exti.c ****     /* Get Gpio port selection for gpio lines */
 399:Drivers/STM32H5xx_HAL_Driver/Src/stm32h5xx_hal_exti.c ****     if ((hexti->Line & EXTI_GPIO) == EXTI_GPIO)
 642              		.loc 1 399 5 is_stmt 1 view .LVU249
 643              		.loc 1 399 15 is_stmt 0 view .LVU250
 644 0052 DCF80030 		ldr	r3, [ip]
 645              	.LVL89:
 646              		.loc 1 399 22 view .LVU251
 647 0056 03F0C063 		and	r3, r3, #100663296
 648              		.loc 1 399 8 view .LVU252
 649 005a B3F1C06F 		cmp	r3, #100663296
 650 005e 01D0     		beq	.L48
 400:Drivers/STM32H5xx_HAL_Driver/Src/stm32h5xx_hal_exti.c ****     {
 401:Drivers/STM32H5xx_HAL_Driver/Src/stm32h5xx_hal_exti.c ****       assert_param(IS_EXTI_GPIO_PIN(linepos));
 402:Drivers/STM32H5xx_HAL_Driver/Src/stm32h5xx_hal_exti.c **** 
 403:Drivers/STM32H5xx_HAL_Driver/Src/stm32h5xx_hal_exti.c ****       regval = EXTI->EXTICR[(linepos >> 2U) & 0x03UL];
 404:Drivers/STM32H5xx_HAL_Driver/Src/stm32h5xx_hal_exti.c ****       regval &= ~(EXTI_EXTICR1_EXTI0 << (EXTI_EXTICR1_EXTI1_Pos * (linepos & 0x03U)));
 405:Drivers/STM32H5xx_HAL_Driver/Src/stm32h5xx_hal_exti.c ****       EXTI->EXTICR[(linepos >> 2U) & 0x03UL] = regval;
 406:Drivers/STM32H5xx_HAL_Driver/Src/stm32h5xx_hal_exti.c ****     }
 407:Drivers/STM32H5xx_HAL_Driver/Src/stm32h5xx_hal_exti.c ****   }
 408:Drivers/STM32H5xx_HAL_Driver/Src/stm32h5xx_hal_exti.c **** 
 409:Drivers/STM32H5xx_HAL_Driver/Src/stm32h5xx_hal_exti.c ****   return HAL_OK;
 651              		.loc 1 409 10 view .LVU253
 652 0060 0020     		movs	r0, #0
 653 0062 14E0     		b	.L40
 654              	.L48:
 401:Drivers/STM32H5xx_HAL_Driver/Src/stm32h5xx_hal_exti.c **** 
 655              		.loc 1 401 7 is_stmt 1 view .LVU254
 403:Drivers/STM32H5xx_HAL_Driver/Src/stm32h5xx_hal_exti.c ****       regval &= ~(EXTI_EXTICR1_EXTI0 << (EXTI_EXTICR1_EXTI1_Pos * (linepos & 0x03U)));
 656              		.loc 1 403 7 view .LVU255
 403:Drivers/STM32H5xx_HAL_Driver/Src/stm32h5xx_hal_exti.c ****       regval &= ~(EXTI_EXTICR1_EXTI0 << (EXTI_EXTICR1_EXTI1_Pos * (linepos & 0x03U)));
 657              		.loc 1 403 45 is_stmt 0 view .LVU256
 658 0064 CEF3810E 		ubfx	lr, lr, #2, #2
 659              	.LVL90:
 403:Drivers/STM32H5xx_HAL_Driver/Src/stm32h5xx_hal_exti.c ****       regval &= ~(EXTI_EXTICR1_EXTI0 << (EXTI_EXTICR1_EXTI1_Pos * (linepos & 0x03U)));
 660              		.loc 1 403 14 view .LVU257
 661 0068 0B49     		ldr	r1, .L49+8
 662              	.LVL91:
 403:Drivers/STM32H5xx_HAL_Driver/Src/stm32h5xx_hal_exti.c ****       regval &= ~(EXTI_EXTICR1_EXTI0 << (EXTI_EXTICR1_EXTI1_Pos * (linepos & 0x03U)));
 663              		.loc 1 403 14 view .LVU258
 664 006a 0EF1180E 		add	lr, lr, #24
 665 006e 51F82E30 		ldr	r3, [r1, lr, lsl #2]
 666              	.LVL92:
 404:Drivers/STM32H5xx_HAL_Driver/Src/stm32h5xx_hal_exti.c ****       EXTI->EXTICR[(linepos >> 2U) & 0x03UL] = regval;
 667              		.loc 1 404 7 is_stmt 1 view .LVU259
 404:Drivers/STM32H5xx_HAL_Driver/Src/stm32h5xx_hal_exti.c ****       EXTI->EXTICR[(linepos >> 2U) & 0x03UL] = regval;
 668              		.loc 1 404 76 is_stmt 0 view .LVU260
 669 0072 04F00304 		and	r4, r4, #3
 670              	.LVL93:
 404:Drivers/STM32H5xx_HAL_Driver/Src/stm32h5xx_hal_exti.c ****       EXTI->EXTICR[(linepos >> 2U) & 0x03UL] = regval;
 671              		.loc 1 404 65 view .LVU261
 672 0076 E400     		lsls	r4, r4, #3
 404:Drivers/STM32H5xx_HAL_Driver/Src/stm32h5xx_hal_exti.c ****       EXTI->EXTICR[(linepos >> 2U) & 0x03UL] = regval;
 673              		.loc 1 404 38 view .LVU262
 674 0078 0F22     		movs	r2, #15
 675 007a A240     		lsls	r2, r2, r4
ARM GAS  C:\Users\sapph\AppData\Local\Temp\ccpAXXPh.s 			page 21


 404:Drivers/STM32H5xx_HAL_Driver/Src/stm32h5xx_hal_exti.c ****       EXTI->EXTICR[(linepos >> 2U) & 0x03UL] = regval;
 676              		.loc 1 404 14 view .LVU263
 677 007c 23EA0203 		bic	r3, r3, r2
 678              	.LVL94:
 405:Drivers/STM32H5xx_HAL_Driver/Src/stm32h5xx_hal_exti.c ****     }
 679              		.loc 1 405 7 is_stmt 1 view .LVU264
 405:Drivers/STM32H5xx_HAL_Driver/Src/stm32h5xx_hal_exti.c ****     }
 680              		.loc 1 405 46 is_stmt 0 view .LVU265
 681 0080 41F82E30 		str	r3, [r1, lr, lsl #2]
 682              		.loc 1 409 10 view .LVU266
 683 0084 0020     		movs	r0, #0
 684 0086 02E0     		b	.L40
 685              	.LVL95:
 686              	.L41:
 687              		.cfi_def_cfa_offset 0
 688              		.cfi_restore 4
 689              		.cfi_restore 5
 690              		.cfi_restore 6
 691              		.cfi_restore 14
 366:Drivers/STM32H5xx_HAL_Driver/Src/stm32h5xx_hal_exti.c ****   }
 692              		.loc 1 366 12 view .LVU267
 693 0088 0120     		movs	r0, #1
 694              	.LVL96:
 410:Drivers/STM32H5xx_HAL_Driver/Src/stm32h5xx_hal_exti.c **** }
 695              		.loc 1 410 1 view .LVU268
 696 008a 7047     		bx	lr
 697              	.LVL97:
 698              	.L42:
 699              		.cfi_def_cfa_offset 16
 700              		.cfi_offset 4, -16
 701              		.cfi_offset 5, -12
 702              		.cfi_offset 6, -8
 703              		.cfi_offset 14, -4
 409:Drivers/STM32H5xx_HAL_Driver/Src/stm32h5xx_hal_exti.c **** }
 704              		.loc 1 409 10 view .LVU269
 705 008c 0020     		movs	r0, #0
 706              	.LVL98:
 707              	.L40:
 708              		.loc 1 410 1 view .LVU270
 709 008e 70BD     		pop	{r4, r5, r6, pc}
 710              	.L50:
 711              		.align	2
 712              	.L49:
 713 0090 80200244 		.word	1140990080
 714 0094 04200244 		.word	1140989956
 715 0098 00200244 		.word	1140989952
 716              		.cfi_endproc
 717              	.LFE162:
 719              		.section	.text.HAL_EXTI_RegisterCallback,"ax",%progbits
 720              		.align	1
 721              		.global	HAL_EXTI_RegisterCallback
 722              		.syntax unified
 723              		.thumb
 724              		.thumb_func
 726              	HAL_EXTI_RegisterCallback:
 727              	.LVL99:
 728              	.LFB163:
ARM GAS  C:\Users\sapph\AppData\Local\Temp\ccpAXXPh.s 			page 22


 411:Drivers/STM32H5xx_HAL_Driver/Src/stm32h5xx_hal_exti.c **** 
 412:Drivers/STM32H5xx_HAL_Driver/Src/stm32h5xx_hal_exti.c **** 
 413:Drivers/STM32H5xx_HAL_Driver/Src/stm32h5xx_hal_exti.c **** /**
 414:Drivers/STM32H5xx_HAL_Driver/Src/stm32h5xx_hal_exti.c ****   * @brief  Register callback for a dedicaated Exti line.
 415:Drivers/STM32H5xx_HAL_Driver/Src/stm32h5xx_hal_exti.c ****   * @param  hexti Exti handle.
 416:Drivers/STM32H5xx_HAL_Driver/Src/stm32h5xx_hal_exti.c ****   * @param  CallbackID User callback identifier.
 417:Drivers/STM32H5xx_HAL_Driver/Src/stm32h5xx_hal_exti.c ****   *         This parameter can be one of @arg @ref EXTI_CallbackIDTypeDef values.
 418:Drivers/STM32H5xx_HAL_Driver/Src/stm32h5xx_hal_exti.c ****   * @param  pPendingCbfn function pointer to be stored as callback.
 419:Drivers/STM32H5xx_HAL_Driver/Src/stm32h5xx_hal_exti.c ****   * @retval HAL Status.
 420:Drivers/STM32H5xx_HAL_Driver/Src/stm32h5xx_hal_exti.c ****   */
 421:Drivers/STM32H5xx_HAL_Driver/Src/stm32h5xx_hal_exti.c **** HAL_StatusTypeDef HAL_EXTI_RegisterCallback(EXTI_HandleTypeDef *hexti, EXTI_CallbackIDTypeDef Callb
 422:Drivers/STM32H5xx_HAL_Driver/Src/stm32h5xx_hal_exti.c ****                                             void (*pPendingCbfn)(void))
 423:Drivers/STM32H5xx_HAL_Driver/Src/stm32h5xx_hal_exti.c **** {
 729              		.loc 1 423 1 is_stmt 1 view -0
 730              		.cfi_startproc
 731              		@ args = 0, pretend = 0, frame = 0
 732              		@ frame_needed = 0, uses_anonymous_args = 0
 733              		@ link register save eliminated.
 424:Drivers/STM32H5xx_HAL_Driver/Src/stm32h5xx_hal_exti.c ****   HAL_StatusTypeDef status = HAL_OK;
 734              		.loc 1 424 3 view .LVU272
 425:Drivers/STM32H5xx_HAL_Driver/Src/stm32h5xx_hal_exti.c **** 
 426:Drivers/STM32H5xx_HAL_Driver/Src/stm32h5xx_hal_exti.c ****   switch (CallbackID)
 735              		.loc 1 426 3 view .LVU273
 736 0000 0129     		cmp	r1, #1
 737 0002 06D0     		beq	.L52
 738 0004 0229     		cmp	r1, #2
 739 0006 07D0     		beq	.L53
 740 0008 49B9     		cbnz	r1, .L55
 427:Drivers/STM32H5xx_HAL_Driver/Src/stm32h5xx_hal_exti.c ****   {
 428:Drivers/STM32H5xx_HAL_Driver/Src/stm32h5xx_hal_exti.c ****     case  HAL_EXTI_COMMON_CB_ID:
 429:Drivers/STM32H5xx_HAL_Driver/Src/stm32h5xx_hal_exti.c ****       hexti->RisingCallback = pPendingCbfn;
 741              		.loc 1 429 7 view .LVU274
 742              		.loc 1 429 29 is_stmt 0 view .LVU275
 743 000a 4260     		str	r2, [r0, #4]
 430:Drivers/STM32H5xx_HAL_Driver/Src/stm32h5xx_hal_exti.c ****       hexti->FallingCallback = pPendingCbfn;
 744              		.loc 1 430 7 is_stmt 1 view .LVU276
 745              		.loc 1 430 30 is_stmt 0 view .LVU277
 746 000c 8260     		str	r2, [r0, #8]
 431:Drivers/STM32H5xx_HAL_Driver/Src/stm32h5xx_hal_exti.c ****       break;
 747              		.loc 1 431 7 is_stmt 1 view .LVU278
 424:Drivers/STM32H5xx_HAL_Driver/Src/stm32h5xx_hal_exti.c **** 
 748              		.loc 1 424 21 is_stmt 0 view .LVU279
 749 000e 0846     		mov	r0, r1
 750              	.LVL100:
 751              		.loc 1 431 7 view .LVU280
 752 0010 7047     		bx	lr
 753              	.LVL101:
 754              	.L52:
 432:Drivers/STM32H5xx_HAL_Driver/Src/stm32h5xx_hal_exti.c **** 
 433:Drivers/STM32H5xx_HAL_Driver/Src/stm32h5xx_hal_exti.c ****     case  HAL_EXTI_RISING_CB_ID:
 434:Drivers/STM32H5xx_HAL_Driver/Src/stm32h5xx_hal_exti.c ****       hexti->RisingCallback = pPendingCbfn;
 755              		.loc 1 434 7 is_stmt 1 view .LVU281
 756              		.loc 1 434 29 is_stmt 0 view .LVU282
 757 0012 4260     		str	r2, [r0, #4]
 435:Drivers/STM32H5xx_HAL_Driver/Src/stm32h5xx_hal_exti.c ****       break;
 758              		.loc 1 435 7 is_stmt 1 view .LVU283
 424:Drivers/STM32H5xx_HAL_Driver/Src/stm32h5xx_hal_exti.c **** 
ARM GAS  C:\Users\sapph\AppData\Local\Temp\ccpAXXPh.s 			page 23


 759              		.loc 1 424 21 is_stmt 0 view .LVU284
 760 0014 0020     		movs	r0, #0
 761              	.LVL102:
 762              		.loc 1 435 7 view .LVU285
 763 0016 7047     		bx	lr
 764              	.LVL103:
 765              	.L53:
 436:Drivers/STM32H5xx_HAL_Driver/Src/stm32h5xx_hal_exti.c **** 
 437:Drivers/STM32H5xx_HAL_Driver/Src/stm32h5xx_hal_exti.c ****     case  HAL_EXTI_FALLING_CB_ID:
 438:Drivers/STM32H5xx_HAL_Driver/Src/stm32h5xx_hal_exti.c ****       hexti->FallingCallback = pPendingCbfn;
 766              		.loc 1 438 7 is_stmt 1 view .LVU286
 767              		.loc 1 438 30 is_stmt 0 view .LVU287
 768 0018 8260     		str	r2, [r0, #8]
 439:Drivers/STM32H5xx_HAL_Driver/Src/stm32h5xx_hal_exti.c ****       break;
 769              		.loc 1 439 7 is_stmt 1 view .LVU288
 424:Drivers/STM32H5xx_HAL_Driver/Src/stm32h5xx_hal_exti.c **** 
 770              		.loc 1 424 21 is_stmt 0 view .LVU289
 771 001a 0020     		movs	r0, #0
 772              	.LVL104:
 773              		.loc 1 439 7 view .LVU290
 774 001c 7047     		bx	lr
 775              	.LVL105:
 776              	.L55:
 426:Drivers/STM32H5xx_HAL_Driver/Src/stm32h5xx_hal_exti.c ****   {
 777              		.loc 1 426 3 view .LVU291
 778 001e 0120     		movs	r0, #1
 779              	.LVL106:
 440:Drivers/STM32H5xx_HAL_Driver/Src/stm32h5xx_hal_exti.c **** 
 441:Drivers/STM32H5xx_HAL_Driver/Src/stm32h5xx_hal_exti.c ****     default:
 442:Drivers/STM32H5xx_HAL_Driver/Src/stm32h5xx_hal_exti.c ****       status = HAL_ERROR;
 443:Drivers/STM32H5xx_HAL_Driver/Src/stm32h5xx_hal_exti.c ****       break;
 444:Drivers/STM32H5xx_HAL_Driver/Src/stm32h5xx_hal_exti.c ****   }
 445:Drivers/STM32H5xx_HAL_Driver/Src/stm32h5xx_hal_exti.c **** 
 446:Drivers/STM32H5xx_HAL_Driver/Src/stm32h5xx_hal_exti.c ****   return status;
 780              		.loc 1 446 3 is_stmt 1 view .LVU292
 447:Drivers/STM32H5xx_HAL_Driver/Src/stm32h5xx_hal_exti.c **** }
 781              		.loc 1 447 1 is_stmt 0 view .LVU293
 782 0020 7047     		bx	lr
 783              		.cfi_endproc
 784              	.LFE163:
 786              		.section	.text.HAL_EXTI_GetHandle,"ax",%progbits
 787              		.align	1
 788              		.global	HAL_EXTI_GetHandle
 789              		.syntax unified
 790              		.thumb
 791              		.thumb_func
 793              	HAL_EXTI_GetHandle:
 794              	.LVL107:
 795              	.LFB164:
 448:Drivers/STM32H5xx_HAL_Driver/Src/stm32h5xx_hal_exti.c **** 
 449:Drivers/STM32H5xx_HAL_Driver/Src/stm32h5xx_hal_exti.c **** 
 450:Drivers/STM32H5xx_HAL_Driver/Src/stm32h5xx_hal_exti.c **** /**
 451:Drivers/STM32H5xx_HAL_Driver/Src/stm32h5xx_hal_exti.c ****   * @brief  Store line number as handle private field.
 452:Drivers/STM32H5xx_HAL_Driver/Src/stm32h5xx_hal_exti.c ****   * @param  hexti Exti handle.
 453:Drivers/STM32H5xx_HAL_Driver/Src/stm32h5xx_hal_exti.c ****   * @param  ExtiLine Exti line number.
 454:Drivers/STM32H5xx_HAL_Driver/Src/stm32h5xx_hal_exti.c ****   *         This parameter can be from 0 to @ref EXTI_LINE_NB.
 455:Drivers/STM32H5xx_HAL_Driver/Src/stm32h5xx_hal_exti.c ****   * @retval HAL Status.
ARM GAS  C:\Users\sapph\AppData\Local\Temp\ccpAXXPh.s 			page 24


 456:Drivers/STM32H5xx_HAL_Driver/Src/stm32h5xx_hal_exti.c ****   */
 457:Drivers/STM32H5xx_HAL_Driver/Src/stm32h5xx_hal_exti.c **** HAL_StatusTypeDef HAL_EXTI_GetHandle(EXTI_HandleTypeDef *hexti, uint32_t ExtiLine)
 458:Drivers/STM32H5xx_HAL_Driver/Src/stm32h5xx_hal_exti.c **** {
 796              		.loc 1 458 1 is_stmt 1 view -0
 797              		.cfi_startproc
 798              		@ args = 0, pretend = 0, frame = 0
 799              		@ frame_needed = 0, uses_anonymous_args = 0
 800              		@ link register save eliminated.
 459:Drivers/STM32H5xx_HAL_Driver/Src/stm32h5xx_hal_exti.c ****   /* Check the parameters */
 460:Drivers/STM32H5xx_HAL_Driver/Src/stm32h5xx_hal_exti.c ****   assert_param(IS_EXTI_LINE(ExtiLine));
 801              		.loc 1 460 3 view .LVU295
 461:Drivers/STM32H5xx_HAL_Driver/Src/stm32h5xx_hal_exti.c **** 
 462:Drivers/STM32H5xx_HAL_Driver/Src/stm32h5xx_hal_exti.c ****   /* Check null pointer */
 463:Drivers/STM32H5xx_HAL_Driver/Src/stm32h5xx_hal_exti.c ****   if (hexti == NULL)
 802              		.loc 1 463 3 view .LVU296
 803              		.loc 1 463 6 is_stmt 0 view .LVU297
 804 0000 10B1     		cbz	r0, .L58
 464:Drivers/STM32H5xx_HAL_Driver/Src/stm32h5xx_hal_exti.c ****   {
 465:Drivers/STM32H5xx_HAL_Driver/Src/stm32h5xx_hal_exti.c ****     return HAL_ERROR;
 466:Drivers/STM32H5xx_HAL_Driver/Src/stm32h5xx_hal_exti.c ****   }
 467:Drivers/STM32H5xx_HAL_Driver/Src/stm32h5xx_hal_exti.c ****   else
 468:Drivers/STM32H5xx_HAL_Driver/Src/stm32h5xx_hal_exti.c ****   {
 469:Drivers/STM32H5xx_HAL_Driver/Src/stm32h5xx_hal_exti.c ****     /* Store line number as handle private field */
 470:Drivers/STM32H5xx_HAL_Driver/Src/stm32h5xx_hal_exti.c ****     hexti->Line = ExtiLine;
 805              		.loc 1 470 5 is_stmt 1 view .LVU298
 806              		.loc 1 470 17 is_stmt 0 view .LVU299
 807 0002 0160     		str	r1, [r0]
 471:Drivers/STM32H5xx_HAL_Driver/Src/stm32h5xx_hal_exti.c **** 
 472:Drivers/STM32H5xx_HAL_Driver/Src/stm32h5xx_hal_exti.c ****     return HAL_OK;
 808              		.loc 1 472 5 is_stmt 1 view .LVU300
 809              		.loc 1 472 12 is_stmt 0 view .LVU301
 810 0004 0020     		movs	r0, #0
 811              	.LVL108:
 812              		.loc 1 472 12 view .LVU302
 813 0006 7047     		bx	lr
 814              	.LVL109:
 815              	.L58:
 465:Drivers/STM32H5xx_HAL_Driver/Src/stm32h5xx_hal_exti.c ****   }
 816              		.loc 1 465 12 view .LVU303
 817 0008 0120     		movs	r0, #1
 818              	.LVL110:
 473:Drivers/STM32H5xx_HAL_Driver/Src/stm32h5xx_hal_exti.c ****   }
 474:Drivers/STM32H5xx_HAL_Driver/Src/stm32h5xx_hal_exti.c **** }
 819              		.loc 1 474 1 view .LVU304
 820 000a 7047     		bx	lr
 821              		.cfi_endproc
 822              	.LFE164:
 824              		.section	.text.HAL_EXTI_IRQHandler,"ax",%progbits
 825              		.align	1
 826              		.global	HAL_EXTI_IRQHandler
 827              		.syntax unified
 828              		.thumb
 829              		.thumb_func
 831              	HAL_EXTI_IRQHandler:
 832              	.LVL111:
 833              	.LFB165:
 475:Drivers/STM32H5xx_HAL_Driver/Src/stm32h5xx_hal_exti.c **** 
ARM GAS  C:\Users\sapph\AppData\Local\Temp\ccpAXXPh.s 			page 25


 476:Drivers/STM32H5xx_HAL_Driver/Src/stm32h5xx_hal_exti.c **** 
 477:Drivers/STM32H5xx_HAL_Driver/Src/stm32h5xx_hal_exti.c **** /**
 478:Drivers/STM32H5xx_HAL_Driver/Src/stm32h5xx_hal_exti.c ****   * @}
 479:Drivers/STM32H5xx_HAL_Driver/Src/stm32h5xx_hal_exti.c ****   */
 480:Drivers/STM32H5xx_HAL_Driver/Src/stm32h5xx_hal_exti.c **** 
 481:Drivers/STM32H5xx_HAL_Driver/Src/stm32h5xx_hal_exti.c **** /** @addtogroup EXTI_Exported_Functions_Group2
 482:Drivers/STM32H5xx_HAL_Driver/Src/stm32h5xx_hal_exti.c ****   *  @brief EXTI IO functions.
 483:Drivers/STM32H5xx_HAL_Driver/Src/stm32h5xx_hal_exti.c ****   *
 484:Drivers/STM32H5xx_HAL_Driver/Src/stm32h5xx_hal_exti.c **** @verbatim
 485:Drivers/STM32H5xx_HAL_Driver/Src/stm32h5xx_hal_exti.c ****  ===============================================================================
 486:Drivers/STM32H5xx_HAL_Driver/Src/stm32h5xx_hal_exti.c ****                        ##### IO operation functions #####
 487:Drivers/STM32H5xx_HAL_Driver/Src/stm32h5xx_hal_exti.c ****  ===============================================================================
 488:Drivers/STM32H5xx_HAL_Driver/Src/stm32h5xx_hal_exti.c **** 
 489:Drivers/STM32H5xx_HAL_Driver/Src/stm32h5xx_hal_exti.c **** @endverbatim
 490:Drivers/STM32H5xx_HAL_Driver/Src/stm32h5xx_hal_exti.c ****   * @{
 491:Drivers/STM32H5xx_HAL_Driver/Src/stm32h5xx_hal_exti.c ****   */
 492:Drivers/STM32H5xx_HAL_Driver/Src/stm32h5xx_hal_exti.c **** 
 493:Drivers/STM32H5xx_HAL_Driver/Src/stm32h5xx_hal_exti.c **** /**
 494:Drivers/STM32H5xx_HAL_Driver/Src/stm32h5xx_hal_exti.c ****   * @brief  Handle EXTI interrupt request.
 495:Drivers/STM32H5xx_HAL_Driver/Src/stm32h5xx_hal_exti.c ****   * @param  hexti Exti handle.
 496:Drivers/STM32H5xx_HAL_Driver/Src/stm32h5xx_hal_exti.c ****   * @retval none.
 497:Drivers/STM32H5xx_HAL_Driver/Src/stm32h5xx_hal_exti.c ****   */
 498:Drivers/STM32H5xx_HAL_Driver/Src/stm32h5xx_hal_exti.c **** void HAL_EXTI_IRQHandler(const EXTI_HandleTypeDef *hexti)
 499:Drivers/STM32H5xx_HAL_Driver/Src/stm32h5xx_hal_exti.c **** {
 834              		.loc 1 499 1 is_stmt 1 view -0
 835              		.cfi_startproc
 836              		@ args = 0, pretend = 0, frame = 0
 837              		@ frame_needed = 0, uses_anonymous_args = 0
 838              		.loc 1 499 1 is_stmt 0 view .LVU306
 839 0000 70B5     		push	{r4, r5, r6, lr}
 840              		.cfi_def_cfa_offset 16
 841              		.cfi_offset 4, -16
 842              		.cfi_offset 5, -12
 843              		.cfi_offset 6, -8
 844              		.cfi_offset 14, -4
 845 0002 0646     		mov	r6, r0
 500:Drivers/STM32H5xx_HAL_Driver/Src/stm32h5xx_hal_exti.c ****   __IO uint32_t *regaddr;
 846              		.loc 1 500 3 is_stmt 1 view .LVU307
 501:Drivers/STM32H5xx_HAL_Driver/Src/stm32h5xx_hal_exti.c ****   uint32_t regval;
 847              		.loc 1 501 3 view .LVU308
 502:Drivers/STM32H5xx_HAL_Driver/Src/stm32h5xx_hal_exti.c ****   uint32_t maskline;
 848              		.loc 1 502 3 view .LVU309
 503:Drivers/STM32H5xx_HAL_Driver/Src/stm32h5xx_hal_exti.c ****   uint32_t offset;
 849              		.loc 1 503 3 view .LVU310
 504:Drivers/STM32H5xx_HAL_Driver/Src/stm32h5xx_hal_exti.c **** 
 505:Drivers/STM32H5xx_HAL_Driver/Src/stm32h5xx_hal_exti.c ****   /* Compute line register offset and line mask */
 506:Drivers/STM32H5xx_HAL_Driver/Src/stm32h5xx_hal_exti.c ****   offset = ((hexti->Line & EXTI_REG_MASK) >> EXTI_REG_SHIFT);
 850              		.loc 1 506 3 view .LVU311
 851              		.loc 1 506 19 is_stmt 0 view .LVU312
 852 0004 0368     		ldr	r3, [r0]
 853              		.loc 1 506 10 view .LVU313
 854 0006 C3F30044 		ubfx	r4, r3, #16, #1
 855              	.LVL112:
 507:Drivers/STM32H5xx_HAL_Driver/Src/stm32h5xx_hal_exti.c ****   maskline = (1UL << (hexti->Line & EXTI_PIN_MASK));
 856              		.loc 1 507 3 is_stmt 1 view .LVU314
 857              		.loc 1 507 35 is_stmt 0 view .LVU315
 858 000a 03F01F03 		and	r3, r3, #31
ARM GAS  C:\Users\sapph\AppData\Local\Temp\ccpAXXPh.s 			page 26


 859              		.loc 1 507 12 view .LVU316
 860 000e 0125     		movs	r5, #1
 861 0010 9D40     		lsls	r5, r5, r3
 862              	.LVL113:
 508:Drivers/STM32H5xx_HAL_Driver/Src/stm32h5xx_hal_exti.c **** 
 509:Drivers/STM32H5xx_HAL_Driver/Src/stm32h5xx_hal_exti.c ****   /* Get rising edge pending bit  */
 510:Drivers/STM32H5xx_HAL_Driver/Src/stm32h5xx_hal_exti.c ****   regaddr = (__IO uint32_t *)(&EXTI->RPR1 + (EXTI_CONFIG_OFFSET * offset));
 863              		.loc 1 510 3 is_stmt 1 view .LVU317
 864              		.loc 1 510 13 is_stmt 0 view .LVU318
 865 0012 6401     		lsls	r4, r4, #5
 866              	.LVL114:
 867              		.loc 1 510 11 view .LVU319
 868 0014 084B     		ldr	r3, .L63
 869              	.LVL115:
 511:Drivers/STM32H5xx_HAL_Driver/Src/stm32h5xx_hal_exti.c ****   regval = (*regaddr & maskline);
 870              		.loc 1 511 3 is_stmt 1 view .LVU320
 871              		.loc 1 511 13 is_stmt 0 view .LVU321
 872 0016 E258     		ldr	r2, [r4, r3]
 873              	.LVL116:
 512:Drivers/STM32H5xx_HAL_Driver/Src/stm32h5xx_hal_exti.c **** 
 513:Drivers/STM32H5xx_HAL_Driver/Src/stm32h5xx_hal_exti.c ****   if (regval != 0U)
 874              		.loc 1 513 3 is_stmt 1 view .LVU322
 875              		.loc 1 513 6 is_stmt 0 view .LVU323
 876 0018 2A42     		tst	r2, r5
 877 001a 03D0     		beq	.L60
 514:Drivers/STM32H5xx_HAL_Driver/Src/stm32h5xx_hal_exti.c ****   {
 515:Drivers/STM32H5xx_HAL_Driver/Src/stm32h5xx_hal_exti.c ****     /* Clear pending bit */
 516:Drivers/STM32H5xx_HAL_Driver/Src/stm32h5xx_hal_exti.c ****     *regaddr = maskline;
 878              		.loc 1 516 5 is_stmt 1 view .LVU324
 879              		.loc 1 516 14 is_stmt 0 view .LVU325
 880 001c E550     		str	r5, [r4, r3]
 881              	.LVL117:
 517:Drivers/STM32H5xx_HAL_Driver/Src/stm32h5xx_hal_exti.c **** 
 518:Drivers/STM32H5xx_HAL_Driver/Src/stm32h5xx_hal_exti.c ****     /* Call rising callback */
 519:Drivers/STM32H5xx_HAL_Driver/Src/stm32h5xx_hal_exti.c ****     if (hexti->RisingCallback != NULL)
 882              		.loc 1 519 5 is_stmt 1 view .LVU326
 883              		.loc 1 519 14 is_stmt 0 view .LVU327
 884 001e 4368     		ldr	r3, [r0, #4]
 885              	.LVL118:
 886              		.loc 1 519 8 view .LVU328
 887 0020 03B1     		cbz	r3, .L60
 520:Drivers/STM32H5xx_HAL_Driver/Src/stm32h5xx_hal_exti.c ****     {
 521:Drivers/STM32H5xx_HAL_Driver/Src/stm32h5xx_hal_exti.c ****       hexti->RisingCallback();
 888              		.loc 1 521 7 is_stmt 1 view .LVU329
 889 0022 9847     		blx	r3
 890              	.LVL119:
 891              	.L60:
 522:Drivers/STM32H5xx_HAL_Driver/Src/stm32h5xx_hal_exti.c ****     }
 523:Drivers/STM32H5xx_HAL_Driver/Src/stm32h5xx_hal_exti.c ****   }
 524:Drivers/STM32H5xx_HAL_Driver/Src/stm32h5xx_hal_exti.c **** 
 525:Drivers/STM32H5xx_HAL_Driver/Src/stm32h5xx_hal_exti.c ****   /* Get falling edge pending bit  */
 526:Drivers/STM32H5xx_HAL_Driver/Src/stm32h5xx_hal_exti.c ****   regaddr = (__IO uint32_t *)(&EXTI->FPR1 + (EXTI_CONFIG_OFFSET * offset));
 892              		.loc 1 526 3 view .LVU330
 893              		.loc 1 526 11 is_stmt 0 view .LVU331
 894 0024 054B     		ldr	r3, .L63+4
 895              	.LVL120:
 527:Drivers/STM32H5xx_HAL_Driver/Src/stm32h5xx_hal_exti.c ****   regval = (*regaddr & maskline);
ARM GAS  C:\Users\sapph\AppData\Local\Temp\ccpAXXPh.s 			page 27


 896              		.loc 1 527 3 is_stmt 1 view .LVU332
 897              		.loc 1 527 13 is_stmt 0 view .LVU333
 898 0026 E258     		ldr	r2, [r4, r3]
 899              	.LVL121:
 528:Drivers/STM32H5xx_HAL_Driver/Src/stm32h5xx_hal_exti.c **** 
 529:Drivers/STM32H5xx_HAL_Driver/Src/stm32h5xx_hal_exti.c ****   if (regval != 0U)
 900              		.loc 1 529 3 is_stmt 1 view .LVU334
 901              		.loc 1 529 6 is_stmt 0 view .LVU335
 902 0028 2A42     		tst	r2, r5
 903 002a 03D0     		beq	.L59
 530:Drivers/STM32H5xx_HAL_Driver/Src/stm32h5xx_hal_exti.c ****   {
 531:Drivers/STM32H5xx_HAL_Driver/Src/stm32h5xx_hal_exti.c ****     /* Clear pending bit */
 532:Drivers/STM32H5xx_HAL_Driver/Src/stm32h5xx_hal_exti.c ****     *regaddr = maskline;
 904              		.loc 1 532 5 is_stmt 1 view .LVU336
 905              		.loc 1 532 14 is_stmt 0 view .LVU337
 906 002c E550     		str	r5, [r4, r3]
 533:Drivers/STM32H5xx_HAL_Driver/Src/stm32h5xx_hal_exti.c **** 
 534:Drivers/STM32H5xx_HAL_Driver/Src/stm32h5xx_hal_exti.c ****     /* Call rising callback */
 535:Drivers/STM32H5xx_HAL_Driver/Src/stm32h5xx_hal_exti.c ****     if (hexti->FallingCallback != NULL)
 907              		.loc 1 535 5 is_stmt 1 view .LVU338
 908              		.loc 1 535 14 is_stmt 0 view .LVU339
 909 002e B368     		ldr	r3, [r6, #8]
 910              	.LVL122:
 911              		.loc 1 535 8 view .LVU340
 912 0030 03B1     		cbz	r3, .L59
 536:Drivers/STM32H5xx_HAL_Driver/Src/stm32h5xx_hal_exti.c ****     {
 537:Drivers/STM32H5xx_HAL_Driver/Src/stm32h5xx_hal_exti.c ****       hexti->FallingCallback();
 913              		.loc 1 537 7 is_stmt 1 view .LVU341
 914 0032 9847     		blx	r3
 915              	.LVL123:
 916              	.L59:
 538:Drivers/STM32H5xx_HAL_Driver/Src/stm32h5xx_hal_exti.c ****     }
 539:Drivers/STM32H5xx_HAL_Driver/Src/stm32h5xx_hal_exti.c ****   }
 540:Drivers/STM32H5xx_HAL_Driver/Src/stm32h5xx_hal_exti.c **** }
 917              		.loc 1 540 1 is_stmt 0 view .LVU342
 918 0034 70BD     		pop	{r4, r5, r6, pc}
 919              	.LVL124:
 920              	.L64:
 921              		.loc 1 540 1 view .LVU343
 922 0036 00BF     		.align	2
 923              	.L63:
 924 0038 0C200244 		.word	1140989964
 925 003c 10200244 		.word	1140989968
 926              		.cfi_endproc
 927              	.LFE165:
 929              		.section	.text.HAL_EXTI_GetPending,"ax",%progbits
 930              		.align	1
 931              		.global	HAL_EXTI_GetPending
 932              		.syntax unified
 933              		.thumb
 934              		.thumb_func
 936              	HAL_EXTI_GetPending:
 937              	.LVL125:
 938              	.LFB166:
 541:Drivers/STM32H5xx_HAL_Driver/Src/stm32h5xx_hal_exti.c **** 
 542:Drivers/STM32H5xx_HAL_Driver/Src/stm32h5xx_hal_exti.c **** 
 543:Drivers/STM32H5xx_HAL_Driver/Src/stm32h5xx_hal_exti.c **** /**
ARM GAS  C:\Users\sapph\AppData\Local\Temp\ccpAXXPh.s 			page 28


 544:Drivers/STM32H5xx_HAL_Driver/Src/stm32h5xx_hal_exti.c ****   * @brief  Get interrupt pending bit of a dedicated line.
 545:Drivers/STM32H5xx_HAL_Driver/Src/stm32h5xx_hal_exti.c ****   * @param  hexti Exti handle.
 546:Drivers/STM32H5xx_HAL_Driver/Src/stm32h5xx_hal_exti.c ****   * @param  Edge Specify which pending edge as to be checked.
 547:Drivers/STM32H5xx_HAL_Driver/Src/stm32h5xx_hal_exti.c ****   *         This parameter can be one of the following values:
 548:Drivers/STM32H5xx_HAL_Driver/Src/stm32h5xx_hal_exti.c ****   *           @arg @ref EXTI_TRIGGER_RISING
 549:Drivers/STM32H5xx_HAL_Driver/Src/stm32h5xx_hal_exti.c ****   *           @arg @ref EXTI_TRIGGER_FALLING
 550:Drivers/STM32H5xx_HAL_Driver/Src/stm32h5xx_hal_exti.c ****   * @retval 1 if interrupt is pending else 0.
 551:Drivers/STM32H5xx_HAL_Driver/Src/stm32h5xx_hal_exti.c ****   */
 552:Drivers/STM32H5xx_HAL_Driver/Src/stm32h5xx_hal_exti.c **** uint32_t HAL_EXTI_GetPending(const EXTI_HandleTypeDef *hexti, uint32_t Edge)
 553:Drivers/STM32H5xx_HAL_Driver/Src/stm32h5xx_hal_exti.c **** {
 939              		.loc 1 553 1 is_stmt 1 view -0
 940              		.cfi_startproc
 941              		@ args = 0, pretend = 0, frame = 0
 942              		@ frame_needed = 0, uses_anonymous_args = 0
 943              		@ link register save eliminated.
 554:Drivers/STM32H5xx_HAL_Driver/Src/stm32h5xx_hal_exti.c ****   const __IO uint32_t *regaddr;
 944              		.loc 1 554 3 view .LVU345
 555:Drivers/STM32H5xx_HAL_Driver/Src/stm32h5xx_hal_exti.c ****   uint32_t regval;
 945              		.loc 1 555 3 view .LVU346
 556:Drivers/STM32H5xx_HAL_Driver/Src/stm32h5xx_hal_exti.c ****   uint32_t linepos;
 946              		.loc 1 556 3 view .LVU347
 557:Drivers/STM32H5xx_HAL_Driver/Src/stm32h5xx_hal_exti.c ****   uint32_t maskline;
 947              		.loc 1 557 3 view .LVU348
 558:Drivers/STM32H5xx_HAL_Driver/Src/stm32h5xx_hal_exti.c ****   uint32_t offset;
 948              		.loc 1 558 3 view .LVU349
 559:Drivers/STM32H5xx_HAL_Driver/Src/stm32h5xx_hal_exti.c **** 
 560:Drivers/STM32H5xx_HAL_Driver/Src/stm32h5xx_hal_exti.c ****   /* Check the parameters */
 561:Drivers/STM32H5xx_HAL_Driver/Src/stm32h5xx_hal_exti.c ****   assert_param(IS_EXTI_LINE(hexti->Line));
 949              		.loc 1 561 3 view .LVU350
 562:Drivers/STM32H5xx_HAL_Driver/Src/stm32h5xx_hal_exti.c ****   assert_param(IS_EXTI_CONFIG_LINE(hexti->Line));
 950              		.loc 1 562 3 view .LVU351
 563:Drivers/STM32H5xx_HAL_Driver/Src/stm32h5xx_hal_exti.c ****   assert_param(IS_EXTI_PENDING_EDGE(Edge));
 951              		.loc 1 563 3 view .LVU352
 564:Drivers/STM32H5xx_HAL_Driver/Src/stm32h5xx_hal_exti.c **** 
 565:Drivers/STM32H5xx_HAL_Driver/Src/stm32h5xx_hal_exti.c ****   /* compute line register offset and line mask */
 566:Drivers/STM32H5xx_HAL_Driver/Src/stm32h5xx_hal_exti.c ****   offset = ((hexti->Line & EXTI_REG_MASK) >> EXTI_REG_SHIFT);
 952              		.loc 1 566 3 view .LVU353
 953              		.loc 1 566 19 is_stmt 0 view .LVU354
 954 0000 0368     		ldr	r3, [r0]
 955              		.loc 1 566 10 view .LVU355
 956 0002 C3F30040 		ubfx	r0, r3, #16, #1
 957              	.LVL126:
 567:Drivers/STM32H5xx_HAL_Driver/Src/stm32h5xx_hal_exti.c ****   linepos = (hexti->Line & EXTI_PIN_MASK);
 958              		.loc 1 567 3 is_stmt 1 view .LVU356
 959              		.loc 1 567 11 is_stmt 0 view .LVU357
 960 0006 03F01F03 		and	r3, r3, #31
 961              	.LVL127:
 568:Drivers/STM32H5xx_HAL_Driver/Src/stm32h5xx_hal_exti.c ****   maskline = (1UL << linepos);
 962              		.loc 1 568 3 is_stmt 1 view .LVU358
 963              		.loc 1 568 12 is_stmt 0 view .LVU359
 964 000a 0122     		movs	r2, #1
 965 000c 9A40     		lsls	r2, r2, r3
 966              	.LVL128:
 569:Drivers/STM32H5xx_HAL_Driver/Src/stm32h5xx_hal_exti.c **** 
 570:Drivers/STM32H5xx_HAL_Driver/Src/stm32h5xx_hal_exti.c ****   if (Edge != EXTI_TRIGGER_RISING)
 967              		.loc 1 570 3 is_stmt 1 view .LVU360
 968              		.loc 1 570 6 is_stmt 0 view .LVU361
ARM GAS  C:\Users\sapph\AppData\Local\Temp\ccpAXXPh.s 			page 29


 969 000e 0129     		cmp	r1, #1
 970 0010 06D0     		beq	.L66
 571:Drivers/STM32H5xx_HAL_Driver/Src/stm32h5xx_hal_exti.c ****   {
 572:Drivers/STM32H5xx_HAL_Driver/Src/stm32h5xx_hal_exti.c ****     /* Get falling edge pending bit */
 573:Drivers/STM32H5xx_HAL_Driver/Src/stm32h5xx_hal_exti.c ****     regaddr = (__IO uint32_t *)(&EXTI->FPR1 + (EXTI_CONFIG_OFFSET * offset));
 971              		.loc 1 573 5 is_stmt 1 view .LVU362
 972              		.loc 1 573 13 is_stmt 0 view .LVU363
 973 0012 0549     		ldr	r1, .L68
 974              	.LVL129:
 975              		.loc 1 573 13 view .LVU364
 976 0014 01EB4010 		add	r0, r1, r0, lsl #5
 977              	.LVL130:
 978              	.L67:
 574:Drivers/STM32H5xx_HAL_Driver/Src/stm32h5xx_hal_exti.c ****   }
 575:Drivers/STM32H5xx_HAL_Driver/Src/stm32h5xx_hal_exti.c ****   else
 576:Drivers/STM32H5xx_HAL_Driver/Src/stm32h5xx_hal_exti.c ****   {
 577:Drivers/STM32H5xx_HAL_Driver/Src/stm32h5xx_hal_exti.c ****     /* Get rising edge pending bit */
 578:Drivers/STM32H5xx_HAL_Driver/Src/stm32h5xx_hal_exti.c ****     regaddr = (__IO uint32_t *)(&EXTI->RPR1 + (EXTI_CONFIG_OFFSET * offset));
 579:Drivers/STM32H5xx_HAL_Driver/Src/stm32h5xx_hal_exti.c ****   }
 580:Drivers/STM32H5xx_HAL_Driver/Src/stm32h5xx_hal_exti.c **** 
 581:Drivers/STM32H5xx_HAL_Driver/Src/stm32h5xx_hal_exti.c ****   /* return 1 if bit is set else 0 */
 582:Drivers/STM32H5xx_HAL_Driver/Src/stm32h5xx_hal_exti.c ****   regval = ((*regaddr & maskline) >> linepos);
 979              		.loc 1 582 3 is_stmt 1 view .LVU365
 980              		.loc 1 582 14 is_stmt 0 view .LVU366
 981 0018 0068     		ldr	r0, [r0]
 982              	.LVL131:
 983              		.loc 1 582 23 view .LVU367
 984 001a 1040     		ands	r0, r0, r2
 985              	.LVL132:
 583:Drivers/STM32H5xx_HAL_Driver/Src/stm32h5xx_hal_exti.c ****   return regval;
 986              		.loc 1 583 3 is_stmt 1 view .LVU368
 584:Drivers/STM32H5xx_HAL_Driver/Src/stm32h5xx_hal_exti.c **** }
 987              		.loc 1 584 1 is_stmt 0 view .LVU369
 988 001c D840     		lsrs	r0, r0, r3
 989              	.LVL133:
 990              		.loc 1 584 1 view .LVU370
 991 001e 7047     		bx	lr
 992              	.LVL134:
 993              	.L66:
 578:Drivers/STM32H5xx_HAL_Driver/Src/stm32h5xx_hal_exti.c ****   }
 994              		.loc 1 578 5 is_stmt 1 view .LVU371
 578:Drivers/STM32H5xx_HAL_Driver/Src/stm32h5xx_hal_exti.c ****   }
 995              		.loc 1 578 13 is_stmt 0 view .LVU372
 996 0020 0249     		ldr	r1, .L68+4
 997              	.LVL135:
 578:Drivers/STM32H5xx_HAL_Driver/Src/stm32h5xx_hal_exti.c ****   }
 998              		.loc 1 578 13 view .LVU373
 999 0022 01EB4010 		add	r0, r1, r0, lsl #5
 1000              	.LVL136:
 578:Drivers/STM32H5xx_HAL_Driver/Src/stm32h5xx_hal_exti.c ****   }
 1001              		.loc 1 578 13 view .LVU374
 1002 0026 F7E7     		b	.L67
 1003              	.L69:
 1004              		.align	2
 1005              	.L68:
 1006 0028 10200244 		.word	1140989968
 1007 002c 0C200244 		.word	1140989964
ARM GAS  C:\Users\sapph\AppData\Local\Temp\ccpAXXPh.s 			page 30


 1008              		.cfi_endproc
 1009              	.LFE166:
 1011              		.section	.text.HAL_EXTI_ClearPending,"ax",%progbits
 1012              		.align	1
 1013              		.global	HAL_EXTI_ClearPending
 1014              		.syntax unified
 1015              		.thumb
 1016              		.thumb_func
 1018              	HAL_EXTI_ClearPending:
 1019              	.LVL137:
 1020              	.LFB167:
 585:Drivers/STM32H5xx_HAL_Driver/Src/stm32h5xx_hal_exti.c **** 
 586:Drivers/STM32H5xx_HAL_Driver/Src/stm32h5xx_hal_exti.c **** 
 587:Drivers/STM32H5xx_HAL_Driver/Src/stm32h5xx_hal_exti.c **** /**
 588:Drivers/STM32H5xx_HAL_Driver/Src/stm32h5xx_hal_exti.c ****   * @brief  Clear interrupt pending bit of a dedicated line.
 589:Drivers/STM32H5xx_HAL_Driver/Src/stm32h5xx_hal_exti.c ****   * @param  hexti Exti handle.
 590:Drivers/STM32H5xx_HAL_Driver/Src/stm32h5xx_hal_exti.c ****   * @param  Edge Specify which pending edge as to be clear.
 591:Drivers/STM32H5xx_HAL_Driver/Src/stm32h5xx_hal_exti.c ****   *         This parameter can be one of the following values:
 592:Drivers/STM32H5xx_HAL_Driver/Src/stm32h5xx_hal_exti.c ****   *           @arg @ref EXTI_TRIGGER_RISING
 593:Drivers/STM32H5xx_HAL_Driver/Src/stm32h5xx_hal_exti.c ****   *           @arg @ref EXTI_TRIGGER_FALLING
 594:Drivers/STM32H5xx_HAL_Driver/Src/stm32h5xx_hal_exti.c ****   * @retval None.
 595:Drivers/STM32H5xx_HAL_Driver/Src/stm32h5xx_hal_exti.c ****   */
 596:Drivers/STM32H5xx_HAL_Driver/Src/stm32h5xx_hal_exti.c **** void HAL_EXTI_ClearPending(const EXTI_HandleTypeDef *hexti, uint32_t Edge)
 597:Drivers/STM32H5xx_HAL_Driver/Src/stm32h5xx_hal_exti.c **** {
 1021              		.loc 1 597 1 is_stmt 1 view -0
 1022              		.cfi_startproc
 1023              		@ args = 0, pretend = 0, frame = 0
 1024              		@ frame_needed = 0, uses_anonymous_args = 0
 1025              		@ link register save eliminated.
 598:Drivers/STM32H5xx_HAL_Driver/Src/stm32h5xx_hal_exti.c ****   __IO uint32_t *regaddr;
 1026              		.loc 1 598 3 view .LVU376
 599:Drivers/STM32H5xx_HAL_Driver/Src/stm32h5xx_hal_exti.c ****   uint32_t maskline;
 1027              		.loc 1 599 3 view .LVU377
 600:Drivers/STM32H5xx_HAL_Driver/Src/stm32h5xx_hal_exti.c ****   uint32_t offset;
 1028              		.loc 1 600 3 view .LVU378
 601:Drivers/STM32H5xx_HAL_Driver/Src/stm32h5xx_hal_exti.c **** 
 602:Drivers/STM32H5xx_HAL_Driver/Src/stm32h5xx_hal_exti.c ****   /* Check the parameters */
 603:Drivers/STM32H5xx_HAL_Driver/Src/stm32h5xx_hal_exti.c ****   assert_param(IS_EXTI_LINE(hexti->Line));
 1029              		.loc 1 603 3 view .LVU379
 604:Drivers/STM32H5xx_HAL_Driver/Src/stm32h5xx_hal_exti.c ****   assert_param(IS_EXTI_CONFIG_LINE(hexti->Line));
 1030              		.loc 1 604 3 view .LVU380
 605:Drivers/STM32H5xx_HAL_Driver/Src/stm32h5xx_hal_exti.c ****   assert_param(IS_EXTI_PENDING_EDGE(Edge));
 1031              		.loc 1 605 3 view .LVU381
 606:Drivers/STM32H5xx_HAL_Driver/Src/stm32h5xx_hal_exti.c **** 
 607:Drivers/STM32H5xx_HAL_Driver/Src/stm32h5xx_hal_exti.c ****   /* compute line register offset and line mask */
 608:Drivers/STM32H5xx_HAL_Driver/Src/stm32h5xx_hal_exti.c ****   offset = ((hexti->Line & EXTI_REG_MASK) >> EXTI_REG_SHIFT);
 1032              		.loc 1 608 3 view .LVU382
 1033              		.loc 1 608 19 is_stmt 0 view .LVU383
 1034 0000 0368     		ldr	r3, [r0]
 1035              		.loc 1 608 10 view .LVU384
 1036 0002 C3F30042 		ubfx	r2, r3, #16, #1
 1037              	.LVL138:
 609:Drivers/STM32H5xx_HAL_Driver/Src/stm32h5xx_hal_exti.c ****   maskline = (1UL << (hexti->Line & EXTI_PIN_MASK));
 1038              		.loc 1 609 3 is_stmt 1 view .LVU385
 1039              		.loc 1 609 35 is_stmt 0 view .LVU386
 1040 0006 03F01F03 		and	r3, r3, #31
 1041              		.loc 1 609 12 view .LVU387
ARM GAS  C:\Users\sapph\AppData\Local\Temp\ccpAXXPh.s 			page 31


 1042 000a 0120     		movs	r0, #1
 1043              	.LVL139:
 1044              		.loc 1 609 12 view .LVU388
 1045 000c 00FA03F3 		lsl	r3, r0, r3
 1046              	.LVL140:
 610:Drivers/STM32H5xx_HAL_Driver/Src/stm32h5xx_hal_exti.c **** 
 611:Drivers/STM32H5xx_HAL_Driver/Src/stm32h5xx_hal_exti.c ****   if (Edge != EXTI_TRIGGER_RISING)
 1047              		.loc 1 611 3 is_stmt 1 view .LVU389
 1048              		.loc 1 611 6 is_stmt 0 view .LVU390
 1049 0010 8142     		cmp	r1, r0
 1050 0012 04D0     		beq	.L71
 612:Drivers/STM32H5xx_HAL_Driver/Src/stm32h5xx_hal_exti.c ****   {
 613:Drivers/STM32H5xx_HAL_Driver/Src/stm32h5xx_hal_exti.c ****     /* Get falling edge pending register address */
 614:Drivers/STM32H5xx_HAL_Driver/Src/stm32h5xx_hal_exti.c ****     regaddr = (__IO uint32_t *)(&EXTI->FPR1 + (EXTI_CONFIG_OFFSET * offset));
 1051              		.loc 1 614 5 is_stmt 1 view .LVU391
 1052              		.loc 1 614 13 is_stmt 0 view .LVU392
 1053 0014 0449     		ldr	r1, .L73
 1054              	.LVL141:
 1055              		.loc 1 614 13 view .LVU393
 1056 0016 01EB4212 		add	r2, r1, r2, lsl #5
 1057              	.LVL142:
 1058              	.L72:
 615:Drivers/STM32H5xx_HAL_Driver/Src/stm32h5xx_hal_exti.c ****   }
 616:Drivers/STM32H5xx_HAL_Driver/Src/stm32h5xx_hal_exti.c ****   else
 617:Drivers/STM32H5xx_HAL_Driver/Src/stm32h5xx_hal_exti.c ****   {
 618:Drivers/STM32H5xx_HAL_Driver/Src/stm32h5xx_hal_exti.c ****     /* Get falling edge pending register address */
 619:Drivers/STM32H5xx_HAL_Driver/Src/stm32h5xx_hal_exti.c ****     regaddr = (__IO uint32_t *)(&EXTI->RPR1 + (EXTI_CONFIG_OFFSET * offset));
 620:Drivers/STM32H5xx_HAL_Driver/Src/stm32h5xx_hal_exti.c ****   }
 621:Drivers/STM32H5xx_HAL_Driver/Src/stm32h5xx_hal_exti.c **** 
 622:Drivers/STM32H5xx_HAL_Driver/Src/stm32h5xx_hal_exti.c ****   /* Clear Pending bit */
 623:Drivers/STM32H5xx_HAL_Driver/Src/stm32h5xx_hal_exti.c ****   *regaddr =  maskline;
 1059              		.loc 1 623 3 is_stmt 1 view .LVU394
 1060              		.loc 1 623 12 is_stmt 0 view .LVU395
 1061 001a 1360     		str	r3, [r2]
 1062              	.LVL143:
 624:Drivers/STM32H5xx_HAL_Driver/Src/stm32h5xx_hal_exti.c **** }
 1063              		.loc 1 624 1 view .LVU396
 1064 001c 7047     		bx	lr
 1065              	.LVL144:
 1066              	.L71:
 619:Drivers/STM32H5xx_HAL_Driver/Src/stm32h5xx_hal_exti.c ****   }
 1067              		.loc 1 619 5 is_stmt 1 view .LVU397
 619:Drivers/STM32H5xx_HAL_Driver/Src/stm32h5xx_hal_exti.c ****   }
 1068              		.loc 1 619 13 is_stmt 0 view .LVU398
 1069 001e 0349     		ldr	r1, .L73+4
 1070              	.LVL145:
 619:Drivers/STM32H5xx_HAL_Driver/Src/stm32h5xx_hal_exti.c ****   }
 1071              		.loc 1 619 13 view .LVU399
 1072 0020 01EB4212 		add	r2, r1, r2, lsl #5
 1073              	.LVL146:
 619:Drivers/STM32H5xx_HAL_Driver/Src/stm32h5xx_hal_exti.c ****   }
 1074              		.loc 1 619 13 view .LVU400
 1075 0024 F9E7     		b	.L72
 1076              	.L74:
 1077 0026 00BF     		.align	2
 1078              	.L73:
 1079 0028 10200244 		.word	1140989968
ARM GAS  C:\Users\sapph\AppData\Local\Temp\ccpAXXPh.s 			page 32


 1080 002c 0C200244 		.word	1140989964
 1081              		.cfi_endproc
 1082              	.LFE167:
 1084              		.section	.text.HAL_EXTI_GenerateSWI,"ax",%progbits
 1085              		.align	1
 1086              		.global	HAL_EXTI_GenerateSWI
 1087              		.syntax unified
 1088              		.thumb
 1089              		.thumb_func
 1091              	HAL_EXTI_GenerateSWI:
 1092              	.LVL147:
 1093              	.LFB168:
 625:Drivers/STM32H5xx_HAL_Driver/Src/stm32h5xx_hal_exti.c **** 
 626:Drivers/STM32H5xx_HAL_Driver/Src/stm32h5xx_hal_exti.c **** 
 627:Drivers/STM32H5xx_HAL_Driver/Src/stm32h5xx_hal_exti.c **** /**
 628:Drivers/STM32H5xx_HAL_Driver/Src/stm32h5xx_hal_exti.c ****   * @brief  Generate a software interrupt for a dedicated line.
 629:Drivers/STM32H5xx_HAL_Driver/Src/stm32h5xx_hal_exti.c ****   * @param  hexti Exti handle.
 630:Drivers/STM32H5xx_HAL_Driver/Src/stm32h5xx_hal_exti.c ****   * @retval None.
 631:Drivers/STM32H5xx_HAL_Driver/Src/stm32h5xx_hal_exti.c ****   */
 632:Drivers/STM32H5xx_HAL_Driver/Src/stm32h5xx_hal_exti.c **** void HAL_EXTI_GenerateSWI(const EXTI_HandleTypeDef *hexti)
 633:Drivers/STM32H5xx_HAL_Driver/Src/stm32h5xx_hal_exti.c **** {
 1094              		.loc 1 633 1 is_stmt 1 view -0
 1095              		.cfi_startproc
 1096              		@ args = 0, pretend = 0, frame = 0
 1097              		@ frame_needed = 0, uses_anonymous_args = 0
 1098              		@ link register save eliminated.
 634:Drivers/STM32H5xx_HAL_Driver/Src/stm32h5xx_hal_exti.c ****   __IO uint32_t *regaddr;
 1099              		.loc 1 634 3 view .LVU402
 635:Drivers/STM32H5xx_HAL_Driver/Src/stm32h5xx_hal_exti.c ****   uint32_t maskline;
 1100              		.loc 1 635 3 view .LVU403
 636:Drivers/STM32H5xx_HAL_Driver/Src/stm32h5xx_hal_exti.c ****   uint32_t offset;
 1101              		.loc 1 636 3 view .LVU404
 637:Drivers/STM32H5xx_HAL_Driver/Src/stm32h5xx_hal_exti.c **** 
 638:Drivers/STM32H5xx_HAL_Driver/Src/stm32h5xx_hal_exti.c ****   /* Check the parameters */
 639:Drivers/STM32H5xx_HAL_Driver/Src/stm32h5xx_hal_exti.c ****   assert_param(IS_EXTI_LINE(hexti->Line));
 1102              		.loc 1 639 3 view .LVU405
 640:Drivers/STM32H5xx_HAL_Driver/Src/stm32h5xx_hal_exti.c ****   assert_param(IS_EXTI_CONFIG_LINE(hexti->Line));
 1103              		.loc 1 640 3 view .LVU406
 641:Drivers/STM32H5xx_HAL_Driver/Src/stm32h5xx_hal_exti.c **** 
 642:Drivers/STM32H5xx_HAL_Driver/Src/stm32h5xx_hal_exti.c ****   /* compute line register offset and line mask */
 643:Drivers/STM32H5xx_HAL_Driver/Src/stm32h5xx_hal_exti.c ****   offset = ((hexti->Line & EXTI_REG_MASK) >> EXTI_REG_SHIFT);
 1104              		.loc 1 643 3 view .LVU407
 1105              		.loc 1 643 19 is_stmt 0 view .LVU408
 1106 0000 0368     		ldr	r3, [r0]
 1107              		.loc 1 643 10 view .LVU409
 1108 0002 C3F30042 		ubfx	r2, r3, #16, #1
 1109              	.LVL148:
 644:Drivers/STM32H5xx_HAL_Driver/Src/stm32h5xx_hal_exti.c ****   maskline = (1UL << (hexti->Line & EXTI_PIN_MASK));
 1110              		.loc 1 644 3 is_stmt 1 view .LVU410
 1111              		.loc 1 644 35 is_stmt 0 view .LVU411
 1112 0006 03F01F03 		and	r3, r3, #31
 1113              		.loc 1 644 12 view .LVU412
 1114 000a 0121     		movs	r1, #1
 1115 000c 9940     		lsls	r1, r1, r3
 1116              	.LVL149:
 645:Drivers/STM32H5xx_HAL_Driver/Src/stm32h5xx_hal_exti.c **** 
 646:Drivers/STM32H5xx_HAL_Driver/Src/stm32h5xx_hal_exti.c ****   regaddr = (__IO uint32_t *)(&EXTI->SWIER1 + (EXTI_CONFIG_OFFSET * offset));
ARM GAS  C:\Users\sapph\AppData\Local\Temp\ccpAXXPh.s 			page 33


 1117              		.loc 1 646 3 is_stmt 1 view .LVU413
 1118              		.loc 1 646 13 is_stmt 0 view .LVU414
 1119 000e 5301     		lsls	r3, r2, #5
 1120              		.loc 1 646 11 view .LVU415
 1121 0010 014A     		ldr	r2, .L76
 1122              	.LVL150:
 647:Drivers/STM32H5xx_HAL_Driver/Src/stm32h5xx_hal_exti.c ****   *regaddr = maskline;
 1123              		.loc 1 647 3 is_stmt 1 view .LVU416
 1124              		.loc 1 647 12 is_stmt 0 view .LVU417
 1125 0012 9950     		str	r1, [r3, r2]
 1126              	.LVL151:
 648:Drivers/STM32H5xx_HAL_Driver/Src/stm32h5xx_hal_exti.c **** }
 1127              		.loc 1 648 1 view .LVU418
 1128 0014 7047     		bx	lr
 1129              	.L77:
 1130 0016 00BF     		.align	2
 1131              	.L76:
 1132 0018 08200244 		.word	1140989960
 1133              		.cfi_endproc
 1134              	.LFE168:
 1136              		.section	.text.HAL_EXTI_ConfigLineAttributes,"ax",%progbits
 1137              		.align	1
 1138              		.global	HAL_EXTI_ConfigLineAttributes
 1139              		.syntax unified
 1140              		.thumb
 1141              		.thumb_func
 1143              	HAL_EXTI_ConfigLineAttributes:
 1144              	.LVL152:
 1145              	.LFB169:
 649:Drivers/STM32H5xx_HAL_Driver/Src/stm32h5xx_hal_exti.c **** 
 650:Drivers/STM32H5xx_HAL_Driver/Src/stm32h5xx_hal_exti.c **** 
 651:Drivers/STM32H5xx_HAL_Driver/Src/stm32h5xx_hal_exti.c **** /**
 652:Drivers/STM32H5xx_HAL_Driver/Src/stm32h5xx_hal_exti.c ****   * @}
 653:Drivers/STM32H5xx_HAL_Driver/Src/stm32h5xx_hal_exti.c ****   */
 654:Drivers/STM32H5xx_HAL_Driver/Src/stm32h5xx_hal_exti.c **** 
 655:Drivers/STM32H5xx_HAL_Driver/Src/stm32h5xx_hal_exti.c **** /** @defgroup EXTI_Exported_Functions_Group3 EXTI line attributes management functions
 656:Drivers/STM32H5xx_HAL_Driver/Src/stm32h5xx_hal_exti.c ****   *  @brief EXTI attributes management functions.
 657:Drivers/STM32H5xx_HAL_Driver/Src/stm32h5xx_hal_exti.c ****   *
 658:Drivers/STM32H5xx_HAL_Driver/Src/stm32h5xx_hal_exti.c **** @verbatim
 659:Drivers/STM32H5xx_HAL_Driver/Src/stm32h5xx_hal_exti.c ****  ===============================================================================
 660:Drivers/STM32H5xx_HAL_Driver/Src/stm32h5xx_hal_exti.c ****                        ##### EXTI attributes functions #####
 661:Drivers/STM32H5xx_HAL_Driver/Src/stm32h5xx_hal_exti.c ****  ===============================================================================
 662:Drivers/STM32H5xx_HAL_Driver/Src/stm32h5xx_hal_exti.c **** 
 663:Drivers/STM32H5xx_HAL_Driver/Src/stm32h5xx_hal_exti.c **** @endverbatim
 664:Drivers/STM32H5xx_HAL_Driver/Src/stm32h5xx_hal_exti.c ****   * @{
 665:Drivers/STM32H5xx_HAL_Driver/Src/stm32h5xx_hal_exti.c ****   */
 666:Drivers/STM32H5xx_HAL_Driver/Src/stm32h5xx_hal_exti.c **** 
 667:Drivers/STM32H5xx_HAL_Driver/Src/stm32h5xx_hal_exti.c **** /**
 668:Drivers/STM32H5xx_HAL_Driver/Src/stm32h5xx_hal_exti.c ****   * @brief  Configure the EXTI line attribute(s).
 669:Drivers/STM32H5xx_HAL_Driver/Src/stm32h5xx_hal_exti.c ****   * @note   Available attributes are to secure EXTI line and set EXT line as privileged.
 670:Drivers/STM32H5xx_HAL_Driver/Src/stm32h5xx_hal_exti.c ****   *         Default state is not secure and unprivileged access allowed.
 671:Drivers/STM32H5xx_HAL_Driver/Src/stm32h5xx_hal_exti.c ****   * @note   Secure and non-secure attributes can only be set from the secure
 672:Drivers/STM32H5xx_HAL_Driver/Src/stm32h5xx_hal_exti.c ****   *         state when the system implements the security (TZEN=1).
 673:Drivers/STM32H5xx_HAL_Driver/Src/stm32h5xx_hal_exti.c ****   * @note   Security and privilege attributes can be set independently.
 674:Drivers/STM32H5xx_HAL_Driver/Src/stm32h5xx_hal_exti.c ****   * @param  ExtiLine Exti line number.
 675:Drivers/STM32H5xx_HAL_Driver/Src/stm32h5xx_hal_exti.c ****   *         This parameter can be from 0 to @ref EXTI_LINE_NB.
 676:Drivers/STM32H5xx_HAL_Driver/Src/stm32h5xx_hal_exti.c ****   * @param  LineAttributes can be one or a combination of the following values:
ARM GAS  C:\Users\sapph\AppData\Local\Temp\ccpAXXPh.s 			page 34


 677:Drivers/STM32H5xx_HAL_Driver/Src/stm32h5xx_hal_exti.c ****   *            @arg @ref EXTI_LINE_PRIV         Privileged-only access
 678:Drivers/STM32H5xx_HAL_Driver/Src/stm32h5xx_hal_exti.c ****   *            @arg @ref EXTI_LINE_NPRIV        Privileged/Non-privileged access
 679:Drivers/STM32H5xx_HAL_Driver/Src/stm32h5xx_hal_exti.c ****   *            @arg @ref EXTI_LINE_SEC          Secure-only access
 680:Drivers/STM32H5xx_HAL_Driver/Src/stm32h5xx_hal_exti.c ****   *            @arg @ref EXTI_LINE_NSEC         Secure/Non-secure access
 681:Drivers/STM32H5xx_HAL_Driver/Src/stm32h5xx_hal_exti.c ****   * @retval None
 682:Drivers/STM32H5xx_HAL_Driver/Src/stm32h5xx_hal_exti.c ****   */
 683:Drivers/STM32H5xx_HAL_Driver/Src/stm32h5xx_hal_exti.c **** void HAL_EXTI_ConfigLineAttributes(uint32_t ExtiLine, uint32_t LineAttributes)
 684:Drivers/STM32H5xx_HAL_Driver/Src/stm32h5xx_hal_exti.c **** {
 1146              		.loc 1 684 1 is_stmt 1 view -0
 1147              		.cfi_startproc
 1148              		@ args = 0, pretend = 0, frame = 0
 1149              		@ frame_needed = 0, uses_anonymous_args = 0
 1150              		@ link register save eliminated.
 1151              		.loc 1 684 1 is_stmt 0 view .LVU420
 1152 0000 10B4     		push	{r4}
 1153              		.cfi_def_cfa_offset 4
 1154              		.cfi_offset 4, -4
 685:Drivers/STM32H5xx_HAL_Driver/Src/stm32h5xx_hal_exti.c ****   __IO uint32_t *regaddr;
 1155              		.loc 1 685 3 is_stmt 1 view .LVU421
 686:Drivers/STM32H5xx_HAL_Driver/Src/stm32h5xx_hal_exti.c ****   uint32_t regval;
 1156              		.loc 1 686 3 view .LVU422
 687:Drivers/STM32H5xx_HAL_Driver/Src/stm32h5xx_hal_exti.c ****   uint32_t linepos;
 1157              		.loc 1 687 3 view .LVU423
 688:Drivers/STM32H5xx_HAL_Driver/Src/stm32h5xx_hal_exti.c ****   uint32_t maskline;
 1158              		.loc 1 688 3 view .LVU424
 689:Drivers/STM32H5xx_HAL_Driver/Src/stm32h5xx_hal_exti.c ****   uint32_t offset;
 1159              		.loc 1 689 3 view .LVU425
 690:Drivers/STM32H5xx_HAL_Driver/Src/stm32h5xx_hal_exti.c **** 
 691:Drivers/STM32H5xx_HAL_Driver/Src/stm32h5xx_hal_exti.c ****   /* Check the parameters */
 692:Drivers/STM32H5xx_HAL_Driver/Src/stm32h5xx_hal_exti.c ****   assert_param(IS_EXTI_LINE(ExtiLine));
 1160              		.loc 1 692 3 view .LVU426
 693:Drivers/STM32H5xx_HAL_Driver/Src/stm32h5xx_hal_exti.c ****   assert_param(IS_EXTI_LINE_ATTRIBUTES(LineAttributes));
 1161              		.loc 1 693 3 view .LVU427
 694:Drivers/STM32H5xx_HAL_Driver/Src/stm32h5xx_hal_exti.c **** 
 695:Drivers/STM32H5xx_HAL_Driver/Src/stm32h5xx_hal_exti.c ****   /* compute line register offset and line mask */
 696:Drivers/STM32H5xx_HAL_Driver/Src/stm32h5xx_hal_exti.c ****   offset = ((ExtiLine & EXTI_REG_MASK) >> EXTI_REG_SHIFT);
 1162              		.loc 1 696 3 view .LVU428
 1163              		.loc 1 696 10 is_stmt 0 view .LVU429
 1164 0002 C0F30043 		ubfx	r3, r0, #16, #1
 1165              	.LVL153:
 697:Drivers/STM32H5xx_HAL_Driver/Src/stm32h5xx_hal_exti.c ****   linepos = (ExtiLine & EXTI_PIN_MASK);
 1166              		.loc 1 697 3 is_stmt 1 view .LVU430
 1167              		.loc 1 697 11 is_stmt 0 view .LVU431
 1168 0006 00F01F00 		and	r0, r0, #31
 1169              	.LVL154:
 698:Drivers/STM32H5xx_HAL_Driver/Src/stm32h5xx_hal_exti.c ****   maskline = (1UL << linepos);
 1170              		.loc 1 698 3 is_stmt 1 view .LVU432
 1171              		.loc 1 698 12 is_stmt 0 view .LVU433
 1172 000a 0122     		movs	r2, #1
 1173 000c 8240     		lsls	r2, r2, r0
 1174              	.LVL155:
 699:Drivers/STM32H5xx_HAL_Driver/Src/stm32h5xx_hal_exti.c **** 
 700:Drivers/STM32H5xx_HAL_Driver/Src/stm32h5xx_hal_exti.c ****   /* Configure privilege or non-privilege attributes */
 701:Drivers/STM32H5xx_HAL_Driver/Src/stm32h5xx_hal_exti.c ****   regaddr = (__IO uint32_t *)(&EXTI->PRIVCFGR1 + (EXTI_PRIVCFGR_OFFSET * offset));
 1175              		.loc 1 701 3 is_stmt 1 view .LVU434
 1176              		.loc 1 701 13 is_stmt 0 view .LVU435
 1177 000e 5B01     		lsls	r3, r3, #5
ARM GAS  C:\Users\sapph\AppData\Local\Temp\ccpAXXPh.s 			page 35


 1178              	.LVL156:
 1179              		.loc 1 701 11 view .LVU436
 1180 0010 084C     		ldr	r4, .L83
 1181              	.LVL157:
 702:Drivers/STM32H5xx_HAL_Driver/Src/stm32h5xx_hal_exti.c ****   regval = *regaddr;
 1182              		.loc 1 702 3 is_stmt 1 view .LVU437
 1183              		.loc 1 702 10 is_stmt 0 view .LVU438
 1184 0012 1859     		ldr	r0, [r3, r4]
 1185              	.LVL158:
 703:Drivers/STM32H5xx_HAL_Driver/Src/stm32h5xx_hal_exti.c **** 
 704:Drivers/STM32H5xx_HAL_Driver/Src/stm32h5xx_hal_exti.c ****   /* Mask or set line */
 705:Drivers/STM32H5xx_HAL_Driver/Src/stm32h5xx_hal_exti.c ****   if ((LineAttributes & EXTI_LINE_PRIV) == EXTI_LINE_PRIV)
 1186              		.loc 1 705 3 is_stmt 1 view .LVU439
 1187              		.loc 1 705 6 is_stmt 0 view .LVU440
 1188 0014 40F2022C 		movw	ip, #514
 1189 0018 3CEA010C 		bics	ip, ip, r1
 1190 001c 05D0     		beq	.L82
 706:Drivers/STM32H5xx_HAL_Driver/Src/stm32h5xx_hal_exti.c ****   {
 707:Drivers/STM32H5xx_HAL_Driver/Src/stm32h5xx_hal_exti.c ****     regval |= maskline;
 708:Drivers/STM32H5xx_HAL_Driver/Src/stm32h5xx_hal_exti.c ****   }
 709:Drivers/STM32H5xx_HAL_Driver/Src/stm32h5xx_hal_exti.c ****   else if ((LineAttributes & EXTI_LINE_NPRIV) == EXTI_LINE_NPRIV)
 1191              		.loc 1 709 8 is_stmt 1 view .LVU441
 1192              		.loc 1 709 11 is_stmt 0 view .LVU442
 1193 001e 11F4007F 		tst	r1, #512
 1194 0022 03D0     		beq	.L80
 710:Drivers/STM32H5xx_HAL_Driver/Src/stm32h5xx_hal_exti.c ****   {
 711:Drivers/STM32H5xx_HAL_Driver/Src/stm32h5xx_hal_exti.c ****     regval &= ~maskline;
 1195              		.loc 1 711 5 is_stmt 1 view .LVU443
 1196              		.loc 1 711 12 is_stmt 0 view .LVU444
 1197 0024 20EA0200 		bic	r0, r0, r2
 1198              	.LVL159:
 1199              		.loc 1 711 12 view .LVU445
 1200 0028 00E0     		b	.L80
 1201              	.L82:
 707:Drivers/STM32H5xx_HAL_Driver/Src/stm32h5xx_hal_exti.c ****   }
 1202              		.loc 1 707 5 is_stmt 1 view .LVU446
 707:Drivers/STM32H5xx_HAL_Driver/Src/stm32h5xx_hal_exti.c ****   }
 1203              		.loc 1 707 12 is_stmt 0 view .LVU447
 1204 002a 1043     		orrs	r0, r0, r2
 1205              	.LVL160:
 1206              	.L80:
 712:Drivers/STM32H5xx_HAL_Driver/Src/stm32h5xx_hal_exti.c ****   }
 713:Drivers/STM32H5xx_HAL_Driver/Src/stm32h5xx_hal_exti.c ****   else
 714:Drivers/STM32H5xx_HAL_Driver/Src/stm32h5xx_hal_exti.c ****   {
 715:Drivers/STM32H5xx_HAL_Driver/Src/stm32h5xx_hal_exti.c ****     /* do nothing */
 716:Drivers/STM32H5xx_HAL_Driver/Src/stm32h5xx_hal_exti.c ****   }
 1207              		.loc 1 716 3 is_stmt 1 view .LVU448
 717:Drivers/STM32H5xx_HAL_Driver/Src/stm32h5xx_hal_exti.c **** 
 718:Drivers/STM32H5xx_HAL_Driver/Src/stm32h5xx_hal_exti.c ****   /* Store privilege or non-privilege attribute */
 719:Drivers/STM32H5xx_HAL_Driver/Src/stm32h5xx_hal_exti.c ****   *regaddr = regval;
 1208              		.loc 1 719 3 view .LVU449
 1209              		.loc 1 719 12 is_stmt 0 view .LVU450
 1210 002c 1851     		str	r0, [r3, r4]
 720:Drivers/STM32H5xx_HAL_Driver/Src/stm32h5xx_hal_exti.c **** 
 721:Drivers/STM32H5xx_HAL_Driver/Src/stm32h5xx_hal_exti.c **** #if defined (__ARM_FEATURE_CMSE) && (__ARM_FEATURE_CMSE == 3U)
 722:Drivers/STM32H5xx_HAL_Driver/Src/stm32h5xx_hal_exti.c **** 
 723:Drivers/STM32H5xx_HAL_Driver/Src/stm32h5xx_hal_exti.c ****   /* Configure secure or non-secure attributes */
ARM GAS  C:\Users\sapph\AppData\Local\Temp\ccpAXXPh.s 			page 36


 724:Drivers/STM32H5xx_HAL_Driver/Src/stm32h5xx_hal_exti.c ****   regaddr = (__IO uint32_t *)(&EXTI->SECCFGR1 + (EXTI_SECCFGR_OFFSET * offset));
 725:Drivers/STM32H5xx_HAL_Driver/Src/stm32h5xx_hal_exti.c ****   regval = *regaddr;
 726:Drivers/STM32H5xx_HAL_Driver/Src/stm32h5xx_hal_exti.c **** 
 727:Drivers/STM32H5xx_HAL_Driver/Src/stm32h5xx_hal_exti.c ****   /* Mask or set line */
 728:Drivers/STM32H5xx_HAL_Driver/Src/stm32h5xx_hal_exti.c ****   if ((LineAttributes & EXTI_LINE_SEC) == EXTI_LINE_SEC)
 729:Drivers/STM32H5xx_HAL_Driver/Src/stm32h5xx_hal_exti.c ****   {
 730:Drivers/STM32H5xx_HAL_Driver/Src/stm32h5xx_hal_exti.c ****     regval |= maskline;
 731:Drivers/STM32H5xx_HAL_Driver/Src/stm32h5xx_hal_exti.c ****   }
 732:Drivers/STM32H5xx_HAL_Driver/Src/stm32h5xx_hal_exti.c ****   else if ((LineAttributes & EXTI_LINE_NSEC) == EXTI_LINE_NSEC)
 733:Drivers/STM32H5xx_HAL_Driver/Src/stm32h5xx_hal_exti.c ****   {
 734:Drivers/STM32H5xx_HAL_Driver/Src/stm32h5xx_hal_exti.c ****     regval &= ~maskline;
 735:Drivers/STM32H5xx_HAL_Driver/Src/stm32h5xx_hal_exti.c ****   }
 736:Drivers/STM32H5xx_HAL_Driver/Src/stm32h5xx_hal_exti.c ****   else
 737:Drivers/STM32H5xx_HAL_Driver/Src/stm32h5xx_hal_exti.c ****   {
 738:Drivers/STM32H5xx_HAL_Driver/Src/stm32h5xx_hal_exti.c ****     /* do nothing */
 739:Drivers/STM32H5xx_HAL_Driver/Src/stm32h5xx_hal_exti.c ****   }
 740:Drivers/STM32H5xx_HAL_Driver/Src/stm32h5xx_hal_exti.c **** 
 741:Drivers/STM32H5xx_HAL_Driver/Src/stm32h5xx_hal_exti.c ****   /* Store secure or non-secure attribute */
 742:Drivers/STM32H5xx_HAL_Driver/Src/stm32h5xx_hal_exti.c ****   *regaddr = regval;
 743:Drivers/STM32H5xx_HAL_Driver/Src/stm32h5xx_hal_exti.c **** 
 744:Drivers/STM32H5xx_HAL_Driver/Src/stm32h5xx_hal_exti.c **** #endif /* __ARM_FEATURE_CMSE */
 745:Drivers/STM32H5xx_HAL_Driver/Src/stm32h5xx_hal_exti.c **** }
 1211              		.loc 1 745 1 view .LVU451
 1212 002e 5DF8044B 		ldr	r4, [sp], #4
 1213              		.cfi_restore 4
 1214              		.cfi_def_cfa_offset 0
 1215              	.LVL161:
 1216              		.loc 1 745 1 view .LVU452
 1217 0032 7047     		bx	lr
 1218              	.L84:
 1219              		.align	2
 1220              	.L83:
 1221 0034 18200244 		.word	1140989976
 1222              		.cfi_endproc
 1223              	.LFE169:
 1225              		.section	.text.HAL_EXTI_GetConfigLineAttributes,"ax",%progbits
 1226              		.align	1
 1227              		.global	HAL_EXTI_GetConfigLineAttributes
 1228              		.syntax unified
 1229              		.thumb
 1230              		.thumb_func
 1232              	HAL_EXTI_GetConfigLineAttributes:
 1233              	.LVL162:
 1234              	.LFB170:
 746:Drivers/STM32H5xx_HAL_Driver/Src/stm32h5xx_hal_exti.c **** 
 747:Drivers/STM32H5xx_HAL_Driver/Src/stm32h5xx_hal_exti.c **** /**
 748:Drivers/STM32H5xx_HAL_Driver/Src/stm32h5xx_hal_exti.c ****   * @brief  Get the EXTI line attribute(s).
 749:Drivers/STM32H5xx_HAL_Driver/Src/stm32h5xx_hal_exti.c ****   * @note   Secure and non-secure attributes are only available from secure state
 750:Drivers/STM32H5xx_HAL_Driver/Src/stm32h5xx_hal_exti.c ****   *         when the system implements the security (TZEN=1)
 751:Drivers/STM32H5xx_HAL_Driver/Src/stm32h5xx_hal_exti.c ****   * @param  ExtiLine Exti line number.
 752:Drivers/STM32H5xx_HAL_Driver/Src/stm32h5xx_hal_exti.c ****   *         This parameter can be from 0 to @ref EXTI_LINE_NB.
 753:Drivers/STM32H5xx_HAL_Driver/Src/stm32h5xx_hal_exti.c ****   * @param  pLineAttributes: pointer to return line attributes.
 754:Drivers/STM32H5xx_HAL_Driver/Src/stm32h5xx_hal_exti.c ****   * @retval HAL Status.
 755:Drivers/STM32H5xx_HAL_Driver/Src/stm32h5xx_hal_exti.c ****   */
 756:Drivers/STM32H5xx_HAL_Driver/Src/stm32h5xx_hal_exti.c **** HAL_StatusTypeDef HAL_EXTI_GetConfigLineAttributes(uint32_t ExtiLine, uint32_t *pLineAttributes)
 757:Drivers/STM32H5xx_HAL_Driver/Src/stm32h5xx_hal_exti.c **** {
 1235              		.loc 1 757 1 is_stmt 1 view -0
ARM GAS  C:\Users\sapph\AppData\Local\Temp\ccpAXXPh.s 			page 37


 1236              		.cfi_startproc
 1237              		@ args = 0, pretend = 0, frame = 0
 1238              		@ frame_needed = 0, uses_anonymous_args = 0
 1239              		@ link register save eliminated.
 758:Drivers/STM32H5xx_HAL_Driver/Src/stm32h5xx_hal_exti.c ****   const __IO uint32_t *regaddr;
 1240              		.loc 1 758 3 view .LVU454
 759:Drivers/STM32H5xx_HAL_Driver/Src/stm32h5xx_hal_exti.c ****   uint32_t linepos;
 1241              		.loc 1 759 3 view .LVU455
 760:Drivers/STM32H5xx_HAL_Driver/Src/stm32h5xx_hal_exti.c ****   uint32_t maskline;
 1242              		.loc 1 760 3 view .LVU456
 761:Drivers/STM32H5xx_HAL_Driver/Src/stm32h5xx_hal_exti.c ****   uint32_t offset;
 1243              		.loc 1 761 3 view .LVU457
 762:Drivers/STM32H5xx_HAL_Driver/Src/stm32h5xx_hal_exti.c ****   uint32_t attributes;
 1244              		.loc 1 762 3 view .LVU458
 763:Drivers/STM32H5xx_HAL_Driver/Src/stm32h5xx_hal_exti.c **** 
 764:Drivers/STM32H5xx_HAL_Driver/Src/stm32h5xx_hal_exti.c ****   /* Check null pointer */
 765:Drivers/STM32H5xx_HAL_Driver/Src/stm32h5xx_hal_exti.c ****   if (pLineAttributes == NULL)
 1245              		.loc 1 765 3 view .LVU459
 1246              		.loc 1 765 6 is_stmt 0 view .LVU460
 1247 0000 8C46     		mov	ip, r1
 1248 0002 99B1     		cbz	r1, .L88
 766:Drivers/STM32H5xx_HAL_Driver/Src/stm32h5xx_hal_exti.c ****   {
 767:Drivers/STM32H5xx_HAL_Driver/Src/stm32h5xx_hal_exti.c ****     return HAL_ERROR;
 768:Drivers/STM32H5xx_HAL_Driver/Src/stm32h5xx_hal_exti.c ****   }
 769:Drivers/STM32H5xx_HAL_Driver/Src/stm32h5xx_hal_exti.c **** 
 770:Drivers/STM32H5xx_HAL_Driver/Src/stm32h5xx_hal_exti.c ****   /* Check the parameters */
 771:Drivers/STM32H5xx_HAL_Driver/Src/stm32h5xx_hal_exti.c ****   assert_param(IS_EXTI_LINE(ExtiLine));
 1249              		.loc 1 771 3 is_stmt 1 view .LVU461
 772:Drivers/STM32H5xx_HAL_Driver/Src/stm32h5xx_hal_exti.c **** 
 773:Drivers/STM32H5xx_HAL_Driver/Src/stm32h5xx_hal_exti.c ****   /* Compute line register offset and line mask */
 774:Drivers/STM32H5xx_HAL_Driver/Src/stm32h5xx_hal_exti.c ****   offset = ((ExtiLine & EXTI_REG_MASK) >> EXTI_REG_SHIFT);
 1250              		.loc 1 774 3 view .LVU462
 1251              		.loc 1 774 10 is_stmt 0 view .LVU463
 1252 0004 C0F30042 		ubfx	r2, r0, #16, #1
 1253              	.LVL163:
 775:Drivers/STM32H5xx_HAL_Driver/Src/stm32h5xx_hal_exti.c ****   linepos = (ExtiLine & EXTI_PIN_MASK);
 1254              		.loc 1 775 3 is_stmt 1 view .LVU464
 1255              		.loc 1 775 11 is_stmt 0 view .LVU465
 1256 0008 00F01F00 		and	r0, r0, #31
 1257              	.LVL164:
 776:Drivers/STM32H5xx_HAL_Driver/Src/stm32h5xx_hal_exti.c ****   maskline = (1UL << linepos);
 1258              		.loc 1 776 3 is_stmt 1 view .LVU466
 1259              		.loc 1 776 12 is_stmt 0 view .LVU467
 1260 000c 0123     		movs	r3, #1
 1261 000e 8340     		lsls	r3, r3, r0
 1262              	.LVL165:
 777:Drivers/STM32H5xx_HAL_Driver/Src/stm32h5xx_hal_exti.c **** 
 778:Drivers/STM32H5xx_HAL_Driver/Src/stm32h5xx_hal_exti.c ****   /* Get privilege or non-privilege attribute */
 779:Drivers/STM32H5xx_HAL_Driver/Src/stm32h5xx_hal_exti.c ****   regaddr = (__IO uint32_t *)(&EXTI->PRIVCFGR1 + (EXTI_PRIVCFGR_OFFSET * offset));
 1263              		.loc 1 779 3 is_stmt 1 view .LVU468
 1264              		.loc 1 779 13 is_stmt 0 view .LVU469
 1265 0010 5201     		lsls	r2, r2, #5
 1266              	.LVL166:
 1267              		.loc 1 779 11 view .LVU470
 1268 0012 0749     		ldr	r1, .L90
 1269              	.LVL167:
 780:Drivers/STM32H5xx_HAL_Driver/Src/stm32h5xx_hal_exti.c **** 
ARM GAS  C:\Users\sapph\AppData\Local\Temp\ccpAXXPh.s 			page 38


 781:Drivers/STM32H5xx_HAL_Driver/Src/stm32h5xx_hal_exti.c ****   if ((*regaddr & maskline) != 0U)
 1270              		.loc 1 781 3 is_stmt 1 view .LVU471
 1271              		.loc 1 781 8 is_stmt 0 view .LVU472
 1272 0014 5258     		ldr	r2, [r2, r1]
 1273              	.LVL168:
 1274              		.loc 1 781 6 view .LVU473
 1275 0016 1A42     		tst	r2, r3
 1276 0018 05D0     		beq	.L89
 782:Drivers/STM32H5xx_HAL_Driver/Src/stm32h5xx_hal_exti.c ****   {
 783:Drivers/STM32H5xx_HAL_Driver/Src/stm32h5xx_hal_exti.c ****     attributes = EXTI_LINE_PRIV;
 1277              		.loc 1 783 16 view .LVU474
 1278 001a 40F20223 		movw	r3, #514
 1279              	.LVL169:
 1280              	.L87:
 784:Drivers/STM32H5xx_HAL_Driver/Src/stm32h5xx_hal_exti.c ****   }
 785:Drivers/STM32H5xx_HAL_Driver/Src/stm32h5xx_hal_exti.c ****   else
 786:Drivers/STM32H5xx_HAL_Driver/Src/stm32h5xx_hal_exti.c ****   {
 787:Drivers/STM32H5xx_HAL_Driver/Src/stm32h5xx_hal_exti.c ****     attributes = EXTI_LINE_NPRIV;
 788:Drivers/STM32H5xx_HAL_Driver/Src/stm32h5xx_hal_exti.c ****   }
 789:Drivers/STM32H5xx_HAL_Driver/Src/stm32h5xx_hal_exti.c **** 
 790:Drivers/STM32H5xx_HAL_Driver/Src/stm32h5xx_hal_exti.c **** #if defined (__ARM_FEATURE_CMSE) && (__ARM_FEATURE_CMSE == 3U)
 791:Drivers/STM32H5xx_HAL_Driver/Src/stm32h5xx_hal_exti.c **** 
 792:Drivers/STM32H5xx_HAL_Driver/Src/stm32h5xx_hal_exti.c ****   /* Get secure or non-secure attribute */
 793:Drivers/STM32H5xx_HAL_Driver/Src/stm32h5xx_hal_exti.c ****   regaddr = (__IO uint32_t *)(&EXTI->SECCFGR1 + (EXTI_SECCFGR_OFFSET * offset));
 794:Drivers/STM32H5xx_HAL_Driver/Src/stm32h5xx_hal_exti.c **** 
 795:Drivers/STM32H5xx_HAL_Driver/Src/stm32h5xx_hal_exti.c ****   if ((*regaddr & maskline) != 0U)
 796:Drivers/STM32H5xx_HAL_Driver/Src/stm32h5xx_hal_exti.c ****   {
 797:Drivers/STM32H5xx_HAL_Driver/Src/stm32h5xx_hal_exti.c ****     attributes |= EXTI_LINE_SEC;
 798:Drivers/STM32H5xx_HAL_Driver/Src/stm32h5xx_hal_exti.c ****   }
 799:Drivers/STM32H5xx_HAL_Driver/Src/stm32h5xx_hal_exti.c ****   else
 800:Drivers/STM32H5xx_HAL_Driver/Src/stm32h5xx_hal_exti.c ****   {
 801:Drivers/STM32H5xx_HAL_Driver/Src/stm32h5xx_hal_exti.c ****     attributes |= EXTI_LINE_NSEC;
 802:Drivers/STM32H5xx_HAL_Driver/Src/stm32h5xx_hal_exti.c ****   }
 803:Drivers/STM32H5xx_HAL_Driver/Src/stm32h5xx_hal_exti.c **** 
 804:Drivers/STM32H5xx_HAL_Driver/Src/stm32h5xx_hal_exti.c **** #endif /* __ARM_FEATURE_CMSE */
 805:Drivers/STM32H5xx_HAL_Driver/Src/stm32h5xx_hal_exti.c **** 
 806:Drivers/STM32H5xx_HAL_Driver/Src/stm32h5xx_hal_exti.c ****   /* return value */
 807:Drivers/STM32H5xx_HAL_Driver/Src/stm32h5xx_hal_exti.c ****   *pLineAttributes = attributes;
 1281              		.loc 1 807 3 is_stmt 1 view .LVU475
 1282              		.loc 1 807 20 is_stmt 0 view .LVU476
 1283 001e CCF80030 		str	r3, [ip]
 808:Drivers/STM32H5xx_HAL_Driver/Src/stm32h5xx_hal_exti.c **** 
 809:Drivers/STM32H5xx_HAL_Driver/Src/stm32h5xx_hal_exti.c ****   return HAL_OK;
 1284              		.loc 1 809 3 is_stmt 1 view .LVU477
 1285              		.loc 1 809 10 is_stmt 0 view .LVU478
 1286 0022 0020     		movs	r0, #0
 1287              	.LVL170:
 1288              		.loc 1 809 10 view .LVU479
 1289 0024 7047     		bx	lr
 1290              	.LVL171:
 1291              	.L89:
 787:Drivers/STM32H5xx_HAL_Driver/Src/stm32h5xx_hal_exti.c ****   }
 1292              		.loc 1 787 16 view .LVU480
 1293 0026 4FF40073 		mov	r3, #512
 1294              	.LVL172:
 787:Drivers/STM32H5xx_HAL_Driver/Src/stm32h5xx_hal_exti.c ****   }
 1295              		.loc 1 787 16 view .LVU481
ARM GAS  C:\Users\sapph\AppData\Local\Temp\ccpAXXPh.s 			page 39


 1296 002a F8E7     		b	.L87
 1297              	.LVL173:
 1298              	.L88:
 767:Drivers/STM32H5xx_HAL_Driver/Src/stm32h5xx_hal_exti.c ****   }
 1299              		.loc 1 767 12 view .LVU482
 1300 002c 0120     		movs	r0, #1
 1301              	.LVL174:
 810:Drivers/STM32H5xx_HAL_Driver/Src/stm32h5xx_hal_exti.c **** }
 1302              		.loc 1 810 1 view .LVU483
 1303 002e 7047     		bx	lr
 1304              	.L91:
 1305              		.align	2
 1306              	.L90:
 1307 0030 18200244 		.word	1140989976
 1308              		.cfi_endproc
 1309              	.LFE170:
 1311              		.text
 1312              	.Letext0:
 1313              		.file 2 "C:/Users/sapph/AppData/Roaming/Code/User/globalStorage/bmd.stm32-for-vscode/@xpack-dev-to
 1314              		.file 3 "C:/Users/sapph/AppData/Roaming/Code/User/globalStorage/bmd.stm32-for-vscode/@xpack-dev-to
 1315              		.file 4 "Drivers/CMSIS/Device/ST/STM32H5xx/Include/stm32h533xx.h"
 1316              		.file 5 "Drivers/STM32H5xx_HAL_Driver/Inc/stm32h5xx_hal_def.h"
 1317              		.file 6 "Drivers/STM32H5xx_HAL_Driver/Inc/stm32h5xx_hal_exti.h"
ARM GAS  C:\Users\sapph\AppData\Local\Temp\ccpAXXPh.s 			page 40

