ARM GAS  C:\Users\sapph\AppData\Local\Temp\ccmhtm3h.s 			page 1


   1              		.cpu cortex-m33
   2              		.arch armv8-m.main
   3              		.fpu fpv4-sp-d16
   4              		.arch_extension dsp
   5              		.eabi_attribute 27, 1
   6              		.eabi_attribute 28, 1
   7              		.eabi_attribute 20, 1
   8              		.eabi_attribute 21, 1
   9              		.eabi_attribute 23, 3
  10              		.eabi_attribute 24, 1
  11              		.eabi_attribute 25, 1
  12              		.eabi_attribute 26, 1
  13              		.eabi_attribute 30, 1
  14              		.eabi_attribute 34, 1
  15              		.eabi_attribute 18, 4
  16              		.file	"stm32h5xx_hal.c"
  17              		.text
  18              	.Ltext0:
  19              		.cfi_sections	.debug_frame
  20              		.file 1 "Drivers/STM32H5xx_HAL_Driver/Src/stm32h5xx_hal.c"
  21              		.section	.text.HAL_MspInit,"ax",%progbits
  22              		.align	1
  23              		.weak	HAL_MspInit
  24              		.syntax unified
  25              		.thumb
  26              		.thumb_func
  28              	HAL_MspInit:
  29              	.LFB162:
   1:Drivers/STM32H5xx_HAL_Driver/Src/stm32h5xx_hal.c **** /**
   2:Drivers/STM32H5xx_HAL_Driver/Src/stm32h5xx_hal.c ****   *************************************************************************************************
   3:Drivers/STM32H5xx_HAL_Driver/Src/stm32h5xx_hal.c ****   * @file    stm32h5xx_hal.c
   4:Drivers/STM32H5xx_HAL_Driver/Src/stm32h5xx_hal.c ****   * @author  MCD Application Team
   5:Drivers/STM32H5xx_HAL_Driver/Src/stm32h5xx_hal.c ****   * @brief   HAL module driver.
   6:Drivers/STM32H5xx_HAL_Driver/Src/stm32h5xx_hal.c ****   *          This is the common part of the HAL initialization
   7:Drivers/STM32H5xx_HAL_Driver/Src/stm32h5xx_hal.c ****   *
   8:Drivers/STM32H5xx_HAL_Driver/Src/stm32h5xx_hal.c ****   @verbatim
   9:Drivers/STM32H5xx_HAL_Driver/Src/stm32h5xx_hal.c ****   =================================================================================================
  10:Drivers/STM32H5xx_HAL_Driver/Src/stm32h5xx_hal.c ****                      ##### How to use this driver #####
  11:Drivers/STM32H5xx_HAL_Driver/Src/stm32h5xx_hal.c ****   =================================================================================================
  12:Drivers/STM32H5xx_HAL_Driver/Src/stm32h5xx_hal.c ****     [..]
  13:Drivers/STM32H5xx_HAL_Driver/Src/stm32h5xx_hal.c ****     The common HAL driver contains a set of generic and common APIs that can be
  14:Drivers/STM32H5xx_HAL_Driver/Src/stm32h5xx_hal.c ****     used by the PPP peripheral drivers and the user to start using the HAL.
  15:Drivers/STM32H5xx_HAL_Driver/Src/stm32h5xx_hal.c ****     [..]
  16:Drivers/STM32H5xx_HAL_Driver/Src/stm32h5xx_hal.c ****     The HAL contains two APIs' categories:
  17:Drivers/STM32H5xx_HAL_Driver/Src/stm32h5xx_hal.c ****          (+) Common HAL APIs
  18:Drivers/STM32H5xx_HAL_Driver/Src/stm32h5xx_hal.c ****          (+) Services HAL APIs
  19:Drivers/STM32H5xx_HAL_Driver/Src/stm32h5xx_hal.c **** 
  20:Drivers/STM32H5xx_HAL_Driver/Src/stm32h5xx_hal.c ****   @endverbatim
  21:Drivers/STM32H5xx_HAL_Driver/Src/stm32h5xx_hal.c ****   *************************************************************************************************
  22:Drivers/STM32H5xx_HAL_Driver/Src/stm32h5xx_hal.c ****   * @attention
  23:Drivers/STM32H5xx_HAL_Driver/Src/stm32h5xx_hal.c ****   *
  24:Drivers/STM32H5xx_HAL_Driver/Src/stm32h5xx_hal.c ****   * Copyright (c) 2023 STMicroelectronics.
  25:Drivers/STM32H5xx_HAL_Driver/Src/stm32h5xx_hal.c ****   * All rights reserved.
  26:Drivers/STM32H5xx_HAL_Driver/Src/stm32h5xx_hal.c ****   *
  27:Drivers/STM32H5xx_HAL_Driver/Src/stm32h5xx_hal.c ****   * This software is licensed under terms that can be found in the LICENSE file
  28:Drivers/STM32H5xx_HAL_Driver/Src/stm32h5xx_hal.c ****   * in the root directory of this software component.
  29:Drivers/STM32H5xx_HAL_Driver/Src/stm32h5xx_hal.c ****   * If no LICENSE file comes with this software, it is provided AS-IS.
ARM GAS  C:\Users\sapph\AppData\Local\Temp\ccmhtm3h.s 			page 2


  30:Drivers/STM32H5xx_HAL_Driver/Src/stm32h5xx_hal.c ****   *
  31:Drivers/STM32H5xx_HAL_Driver/Src/stm32h5xx_hal.c ****   *************************************************************************************************
  32:Drivers/STM32H5xx_HAL_Driver/Src/stm32h5xx_hal.c ****   */
  33:Drivers/STM32H5xx_HAL_Driver/Src/stm32h5xx_hal.c **** 
  34:Drivers/STM32H5xx_HAL_Driver/Src/stm32h5xx_hal.c **** /* Includes ---------------------------------------------------------------------------------------
  35:Drivers/STM32H5xx_HAL_Driver/Src/stm32h5xx_hal.c **** #include "stm32h5xx_hal.h"
  36:Drivers/STM32H5xx_HAL_Driver/Src/stm32h5xx_hal.c **** 
  37:Drivers/STM32H5xx_HAL_Driver/Src/stm32h5xx_hal.c **** /** @addtogroup STM32H5xx_HAL_Driver
  38:Drivers/STM32H5xx_HAL_Driver/Src/stm32h5xx_hal.c ****   * @{
  39:Drivers/STM32H5xx_HAL_Driver/Src/stm32h5xx_hal.c ****   */
  40:Drivers/STM32H5xx_HAL_Driver/Src/stm32h5xx_hal.c **** 
  41:Drivers/STM32H5xx_HAL_Driver/Src/stm32h5xx_hal.c **** /** @defgroup HAL HAL
  42:Drivers/STM32H5xx_HAL_Driver/Src/stm32h5xx_hal.c ****   * @brief HAL module driver
  43:Drivers/STM32H5xx_HAL_Driver/Src/stm32h5xx_hal.c ****   * @{
  44:Drivers/STM32H5xx_HAL_Driver/Src/stm32h5xx_hal.c ****   */
  45:Drivers/STM32H5xx_HAL_Driver/Src/stm32h5xx_hal.c **** 
  46:Drivers/STM32H5xx_HAL_Driver/Src/stm32h5xx_hal.c **** #ifdef HAL_MODULE_ENABLED
  47:Drivers/STM32H5xx_HAL_Driver/Src/stm32h5xx_hal.c **** 
  48:Drivers/STM32H5xx_HAL_Driver/Src/stm32h5xx_hal.c **** /* Private typedef --------------------------------------------------------------------------------
  49:Drivers/STM32H5xx_HAL_Driver/Src/stm32h5xx_hal.c **** /* Private define ---------------------------------------------------------------------------------
  50:Drivers/STM32H5xx_HAL_Driver/Src/stm32h5xx_hal.c **** /**
  51:Drivers/STM32H5xx_HAL_Driver/Src/stm32h5xx_hal.c ****   * @brief STM32H5xx HAL Driver version number 1.3.0
  52:Drivers/STM32H5xx_HAL_Driver/Src/stm32h5xx_hal.c ****    */
  53:Drivers/STM32H5xx_HAL_Driver/Src/stm32h5xx_hal.c **** #define __STM32H5XX_HAL_VERSION_MAIN   (0x01U) /*!< [31:24] main version */
  54:Drivers/STM32H5xx_HAL_Driver/Src/stm32h5xx_hal.c **** #define __STM32H5XX_HAL_VERSION_SUB1   (0x03U) /*!< [23:16] sub1 version */
  55:Drivers/STM32H5xx_HAL_Driver/Src/stm32h5xx_hal.c **** #define __STM32H5XX_HAL_VERSION_SUB2   (0x00U) /*!< [15:8]  sub2 version */
  56:Drivers/STM32H5xx_HAL_Driver/Src/stm32h5xx_hal.c **** #define __STM32H5XX_HAL_VERSION_RC     (0x00U) /*!< [7:0]  release candidate */
  57:Drivers/STM32H5xx_HAL_Driver/Src/stm32h5xx_hal.c **** #define __STM32H5XX_HAL_VERSION         ((__STM32H5XX_HAL_VERSION_MAIN << 24U)\
  58:Drivers/STM32H5xx_HAL_Driver/Src/stm32h5xx_hal.c ****                                          |(__STM32H5XX_HAL_VERSION_SUB1 << 16U)\
  59:Drivers/STM32H5xx_HAL_Driver/Src/stm32h5xx_hal.c ****                                          |(__STM32H5XX_HAL_VERSION_SUB2 << 8U )\
  60:Drivers/STM32H5xx_HAL_Driver/Src/stm32h5xx_hal.c ****                                          |(__STM32H5XX_HAL_VERSION_RC))
  61:Drivers/STM32H5xx_HAL_Driver/Src/stm32h5xx_hal.c **** 
  62:Drivers/STM32H5xx_HAL_Driver/Src/stm32h5xx_hal.c **** #if defined(VREFBUF)
  63:Drivers/STM32H5xx_HAL_Driver/Src/stm32h5xx_hal.c **** #define VREFBUF_TIMEOUT_VALUE           10U   /* 10 ms */
  64:Drivers/STM32H5xx_HAL_Driver/Src/stm32h5xx_hal.c **** #endif /* VREFBUF */
  65:Drivers/STM32H5xx_HAL_Driver/Src/stm32h5xx_hal.c **** 
  66:Drivers/STM32H5xx_HAL_Driver/Src/stm32h5xx_hal.c **** /* Value used to increment hide protection level */
  67:Drivers/STM32H5xx_HAL_Driver/Src/stm32h5xx_hal.c **** #define SBS_HDPL_INCREMENT_VALUE  (uint8_t)0x6A
  68:Drivers/STM32H5xx_HAL_Driver/Src/stm32h5xx_hal.c **** 
  69:Drivers/STM32H5xx_HAL_Driver/Src/stm32h5xx_hal.c **** /* Value used to lock/unlock debug functionalities */
  70:Drivers/STM32H5xx_HAL_Driver/Src/stm32h5xx_hal.c **** #define SBS_DEBUG_LOCK_VALUE      (uint8_t)0xC3
  71:Drivers/STM32H5xx_HAL_Driver/Src/stm32h5xx_hal.c **** #define SBS_DEBUG_UNLOCK_VALUE    (uint8_t)0xB4
  72:Drivers/STM32H5xx_HAL_Driver/Src/stm32h5xx_hal.c **** 
  73:Drivers/STM32H5xx_HAL_Driver/Src/stm32h5xx_hal.c **** /* Private macro ----------------------------------------------------------------------------------
  74:Drivers/STM32H5xx_HAL_Driver/Src/stm32h5xx_hal.c **** /* Private variables ------------------------------------------------------------------------------
  75:Drivers/STM32H5xx_HAL_Driver/Src/stm32h5xx_hal.c **** /* Exported variables -----------------------------------------------------------------------------
  76:Drivers/STM32H5xx_HAL_Driver/Src/stm32h5xx_hal.c **** 
  77:Drivers/STM32H5xx_HAL_Driver/Src/stm32h5xx_hal.c **** /** @defgroup HAL_Exported_Variables HAL Exported Variables
  78:Drivers/STM32H5xx_HAL_Driver/Src/stm32h5xx_hal.c ****   * @{
  79:Drivers/STM32H5xx_HAL_Driver/Src/stm32h5xx_hal.c ****   */
  80:Drivers/STM32H5xx_HAL_Driver/Src/stm32h5xx_hal.c **** __IO uint32_t uwTick;
  81:Drivers/STM32H5xx_HAL_Driver/Src/stm32h5xx_hal.c **** uint32_t uwTickPrio   = (1UL << __NVIC_PRIO_BITS); /* Invalid PRIO */
  82:Drivers/STM32H5xx_HAL_Driver/Src/stm32h5xx_hal.c **** HAL_TickFreqTypeDef uwTickFreq = HAL_TICK_FREQ_DEFAULT;  /* 1KHz */
  83:Drivers/STM32H5xx_HAL_Driver/Src/stm32h5xx_hal.c **** /**
  84:Drivers/STM32H5xx_HAL_Driver/Src/stm32h5xx_hal.c ****   * @}
  85:Drivers/STM32H5xx_HAL_Driver/Src/stm32h5xx_hal.c ****   */
  86:Drivers/STM32H5xx_HAL_Driver/Src/stm32h5xx_hal.c **** 
ARM GAS  C:\Users\sapph\AppData\Local\Temp\ccmhtm3h.s 			page 3


  87:Drivers/STM32H5xx_HAL_Driver/Src/stm32h5xx_hal.c **** /* Private function prototypes --------------------------------------------------------------------
  88:Drivers/STM32H5xx_HAL_Driver/Src/stm32h5xx_hal.c **** /* Exported functions -----------------------------------------------------------------------------
  89:Drivers/STM32H5xx_HAL_Driver/Src/stm32h5xx_hal.c **** 
  90:Drivers/STM32H5xx_HAL_Driver/Src/stm32h5xx_hal.c **** /** @defgroup HAL_Exported_Functions HAL Exported Functions
  91:Drivers/STM32H5xx_HAL_Driver/Src/stm32h5xx_hal.c ****   * @{
  92:Drivers/STM32H5xx_HAL_Driver/Src/stm32h5xx_hal.c ****   */
  93:Drivers/STM32H5xx_HAL_Driver/Src/stm32h5xx_hal.c **** 
  94:Drivers/STM32H5xx_HAL_Driver/Src/stm32h5xx_hal.c **** /** @defgroup HAL_Exported_Functions_Group1 Initialization and de-initialization Functions
  95:Drivers/STM32H5xx_HAL_Driver/Src/stm32h5xx_hal.c ****   *  @brief    Initialization and de-initialization functions
  96:Drivers/STM32H5xx_HAL_Driver/Src/stm32h5xx_hal.c ****   *
  97:Drivers/STM32H5xx_HAL_Driver/Src/stm32h5xx_hal.c **** @verbatim
  98:Drivers/STM32H5xx_HAL_Driver/Src/stm32h5xx_hal.c ****  ==================================================================================================
  99:Drivers/STM32H5xx_HAL_Driver/Src/stm32h5xx_hal.c ****               ##### Initialization and de-initialization functions #####
 100:Drivers/STM32H5xx_HAL_Driver/Src/stm32h5xx_hal.c ****  ==================================================================================================
 101:Drivers/STM32H5xx_HAL_Driver/Src/stm32h5xx_hal.c ****     [..]  This section provides functions allowing to:
 102:Drivers/STM32H5xx_HAL_Driver/Src/stm32h5xx_hal.c ****       (+) Initializes the Flash interface the NVIC allocation and initial clock
 103:Drivers/STM32H5xx_HAL_Driver/Src/stm32h5xx_hal.c ****           configuration. It initializes the systick also when timeout is needed
 104:Drivers/STM32H5xx_HAL_Driver/Src/stm32h5xx_hal.c ****           and the backup domain when enabled.
 105:Drivers/STM32H5xx_HAL_Driver/Src/stm32h5xx_hal.c ****       (+) De-Initializes common part of the HAL.
 106:Drivers/STM32H5xx_HAL_Driver/Src/stm32h5xx_hal.c ****       (+) Configure The time base source to have 1ms time base with a dedicated
 107:Drivers/STM32H5xx_HAL_Driver/Src/stm32h5xx_hal.c ****           Tick interrupt priority.
 108:Drivers/STM32H5xx_HAL_Driver/Src/stm32h5xx_hal.c ****         (++) SysTick timer is used by default as source of time base, but user
 109:Drivers/STM32H5xx_HAL_Driver/Src/stm32h5xx_hal.c ****              can eventually implement his proper time base source (a general purpose
 110:Drivers/STM32H5xx_HAL_Driver/Src/stm32h5xx_hal.c ****              timer for example or other time source), keeping in mind that Time base
 111:Drivers/STM32H5xx_HAL_Driver/Src/stm32h5xx_hal.c ****              duration should be kept 1ms since PPP_TIMEOUT_VALUEs are defined and
 112:Drivers/STM32H5xx_HAL_Driver/Src/stm32h5xx_hal.c ****              handled in milliseconds basis.
 113:Drivers/STM32H5xx_HAL_Driver/Src/stm32h5xx_hal.c ****         (++) Time base configuration function (HAL_InitTick ()) is called automatically
 114:Drivers/STM32H5xx_HAL_Driver/Src/stm32h5xx_hal.c ****              at the beginning of the program after reset by HAL_Init() or at any time
 115:Drivers/STM32H5xx_HAL_Driver/Src/stm32h5xx_hal.c ****              when clock is configured, by HAL_RCC_ClockConfig().
 116:Drivers/STM32H5xx_HAL_Driver/Src/stm32h5xx_hal.c ****         (++) Source of time base is configured  to generate interrupts at regular
 117:Drivers/STM32H5xx_HAL_Driver/Src/stm32h5xx_hal.c ****              time intervals. Care must be taken if HAL_Delay() is called from a
 118:Drivers/STM32H5xx_HAL_Driver/Src/stm32h5xx_hal.c ****              peripheral ISR process, the Tick interrupt line must have higher priority
 119:Drivers/STM32H5xx_HAL_Driver/Src/stm32h5xx_hal.c ****             (numerically lower) than the peripheral interrupt. Otherwise the caller
 120:Drivers/STM32H5xx_HAL_Driver/Src/stm32h5xx_hal.c ****             ISR process will be blocked.
 121:Drivers/STM32H5xx_HAL_Driver/Src/stm32h5xx_hal.c ****        (++) functions affecting time base configurations are declared as __weak
 122:Drivers/STM32H5xx_HAL_Driver/Src/stm32h5xx_hal.c ****              to make  override possible  in case of other  implementations in user file.
 123:Drivers/STM32H5xx_HAL_Driver/Src/stm32h5xx_hal.c **** @endverbatim
 124:Drivers/STM32H5xx_HAL_Driver/Src/stm32h5xx_hal.c ****   * @{
 125:Drivers/STM32H5xx_HAL_Driver/Src/stm32h5xx_hal.c ****   */
 126:Drivers/STM32H5xx_HAL_Driver/Src/stm32h5xx_hal.c **** 
 127:Drivers/STM32H5xx_HAL_Driver/Src/stm32h5xx_hal.c **** /**
 128:Drivers/STM32H5xx_HAL_Driver/Src/stm32h5xx_hal.c ****   * @brief  Configure the Flash prefetch, the time base source, NVIC and any required global low
 129:Drivers/STM32H5xx_HAL_Driver/Src/stm32h5xx_hal.c ****   *         level hardware by calling the HAL_MspInit() callback function to be optionally defined
 130:Drivers/STM32H5xx_HAL_Driver/Src/stm32h5xx_hal.c ****   *         in user file stm32h5xx_hal_msp.c.
 131:Drivers/STM32H5xx_HAL_Driver/Src/stm32h5xx_hal.c ****   *
 132:Drivers/STM32H5xx_HAL_Driver/Src/stm32h5xx_hal.c ****   * @note   HAL_Init() function is called at the beginning of program after reset and before
 133:Drivers/STM32H5xx_HAL_Driver/Src/stm32h5xx_hal.c ****   *         the clock configuration.
 134:Drivers/STM32H5xx_HAL_Driver/Src/stm32h5xx_hal.c ****   *
 135:Drivers/STM32H5xx_HAL_Driver/Src/stm32h5xx_hal.c ****   * @note   In the default implementation the System Timer (SysTick) is used as source of time base
 136:Drivers/STM32H5xx_HAL_Driver/Src/stm32h5xx_hal.c ****   *         The SysTick configuration is based on HSI clock, as HSI is the clock
 137:Drivers/STM32H5xx_HAL_Driver/Src/stm32h5xx_hal.c ****   *         used after a system Reset and the NVIC configuration is set to Priority group 4.
 138:Drivers/STM32H5xx_HAL_Driver/Src/stm32h5xx_hal.c ****   *         Once done, time base tick starts incrementing: the tick variable counter is incremented
 139:Drivers/STM32H5xx_HAL_Driver/Src/stm32h5xx_hal.c ****   *         each 1ms in the SysTick_Handler() interrupt handler.
 140:Drivers/STM32H5xx_HAL_Driver/Src/stm32h5xx_hal.c ****   *
 141:Drivers/STM32H5xx_HAL_Driver/Src/stm32h5xx_hal.c ****   * @retval HAL status
 142:Drivers/STM32H5xx_HAL_Driver/Src/stm32h5xx_hal.c ****   */
 143:Drivers/STM32H5xx_HAL_Driver/Src/stm32h5xx_hal.c **** HAL_StatusTypeDef HAL_Init(void)
ARM GAS  C:\Users\sapph\AppData\Local\Temp\ccmhtm3h.s 			page 4


 144:Drivers/STM32H5xx_HAL_Driver/Src/stm32h5xx_hal.c **** {
 145:Drivers/STM32H5xx_HAL_Driver/Src/stm32h5xx_hal.c ****   /* Configure Flash prefetch */
 146:Drivers/STM32H5xx_HAL_Driver/Src/stm32h5xx_hal.c **** #if (PREFETCH_ENABLE != 0U)
 147:Drivers/STM32H5xx_HAL_Driver/Src/stm32h5xx_hal.c ****   __HAL_FLASH_PREFETCH_BUFFER_ENABLE();
 148:Drivers/STM32H5xx_HAL_Driver/Src/stm32h5xx_hal.c **** #endif /* PREFETCH_ENABLE */
 149:Drivers/STM32H5xx_HAL_Driver/Src/stm32h5xx_hal.c **** 
 150:Drivers/STM32H5xx_HAL_Driver/Src/stm32h5xx_hal.c ****   /* Set Interrupt Group Priority */
 151:Drivers/STM32H5xx_HAL_Driver/Src/stm32h5xx_hal.c ****   HAL_NVIC_SetPriorityGrouping(NVIC_PRIORITYGROUP_4);
 152:Drivers/STM32H5xx_HAL_Driver/Src/stm32h5xx_hal.c **** 
 153:Drivers/STM32H5xx_HAL_Driver/Src/stm32h5xx_hal.c ****   /* Update the SystemCoreClock global variable */
 154:Drivers/STM32H5xx_HAL_Driver/Src/stm32h5xx_hal.c ****   SystemCoreClock = HAL_RCC_GetSysClockFreq() >> AHBPrescTable[(RCC->CFGR2 & RCC_CFGR2_HPRE) >> RCC
 155:Drivers/STM32H5xx_HAL_Driver/Src/stm32h5xx_hal.c **** 
 156:Drivers/STM32H5xx_HAL_Driver/Src/stm32h5xx_hal.c ****   /* Select HCLK as SysTick clock source */
 157:Drivers/STM32H5xx_HAL_Driver/Src/stm32h5xx_hal.c ****   HAL_SYSTICK_CLKSourceConfig(SYSTICK_CLKSOURCE_HCLK);
 158:Drivers/STM32H5xx_HAL_Driver/Src/stm32h5xx_hal.c **** 
 159:Drivers/STM32H5xx_HAL_Driver/Src/stm32h5xx_hal.c ****   /* Use systick as time base source and configure 1ms tick (default clock after Reset is HSI) */
 160:Drivers/STM32H5xx_HAL_Driver/Src/stm32h5xx_hal.c ****   if (HAL_InitTick(TICK_INT_PRIORITY) != HAL_OK)
 161:Drivers/STM32H5xx_HAL_Driver/Src/stm32h5xx_hal.c ****   {
 162:Drivers/STM32H5xx_HAL_Driver/Src/stm32h5xx_hal.c ****     return HAL_ERROR;
 163:Drivers/STM32H5xx_HAL_Driver/Src/stm32h5xx_hal.c ****   }
 164:Drivers/STM32H5xx_HAL_Driver/Src/stm32h5xx_hal.c **** 
 165:Drivers/STM32H5xx_HAL_Driver/Src/stm32h5xx_hal.c ****   /* Init the low level hardware */
 166:Drivers/STM32H5xx_HAL_Driver/Src/stm32h5xx_hal.c ****   HAL_MspInit();
 167:Drivers/STM32H5xx_HAL_Driver/Src/stm32h5xx_hal.c **** 
 168:Drivers/STM32H5xx_HAL_Driver/Src/stm32h5xx_hal.c ****   /* Return function status */
 169:Drivers/STM32H5xx_HAL_Driver/Src/stm32h5xx_hal.c ****   return HAL_OK;
 170:Drivers/STM32H5xx_HAL_Driver/Src/stm32h5xx_hal.c **** }
 171:Drivers/STM32H5xx_HAL_Driver/Src/stm32h5xx_hal.c **** 
 172:Drivers/STM32H5xx_HAL_Driver/Src/stm32h5xx_hal.c **** /**
 173:Drivers/STM32H5xx_HAL_Driver/Src/stm32h5xx_hal.c ****   * @brief  This function de-Initializes common part of the HAL and stops the systick.
 174:Drivers/STM32H5xx_HAL_Driver/Src/stm32h5xx_hal.c ****   *         This function is optional.
 175:Drivers/STM32H5xx_HAL_Driver/Src/stm32h5xx_hal.c ****   * @retval HAL status
 176:Drivers/STM32H5xx_HAL_Driver/Src/stm32h5xx_hal.c ****   */
 177:Drivers/STM32H5xx_HAL_Driver/Src/stm32h5xx_hal.c **** HAL_StatusTypeDef HAL_DeInit(void)
 178:Drivers/STM32H5xx_HAL_Driver/Src/stm32h5xx_hal.c **** {
 179:Drivers/STM32H5xx_HAL_Driver/Src/stm32h5xx_hal.c ****   /* Reset of all peripherals */
 180:Drivers/STM32H5xx_HAL_Driver/Src/stm32h5xx_hal.c ****   __HAL_RCC_APB1_FORCE_RESET();
 181:Drivers/STM32H5xx_HAL_Driver/Src/stm32h5xx_hal.c ****   __HAL_RCC_APB1_RELEASE_RESET();
 182:Drivers/STM32H5xx_HAL_Driver/Src/stm32h5xx_hal.c **** 
 183:Drivers/STM32H5xx_HAL_Driver/Src/stm32h5xx_hal.c ****   __HAL_RCC_APB2_FORCE_RESET();
 184:Drivers/STM32H5xx_HAL_Driver/Src/stm32h5xx_hal.c ****   __HAL_RCC_APB2_RELEASE_RESET();
 185:Drivers/STM32H5xx_HAL_Driver/Src/stm32h5xx_hal.c **** 
 186:Drivers/STM32H5xx_HAL_Driver/Src/stm32h5xx_hal.c ****   __HAL_RCC_APB3_FORCE_RESET();
 187:Drivers/STM32H5xx_HAL_Driver/Src/stm32h5xx_hal.c ****   __HAL_RCC_APB3_RELEASE_RESET();
 188:Drivers/STM32H5xx_HAL_Driver/Src/stm32h5xx_hal.c **** 
 189:Drivers/STM32H5xx_HAL_Driver/Src/stm32h5xx_hal.c ****   __HAL_RCC_AHB1_FORCE_RESET();
 190:Drivers/STM32H5xx_HAL_Driver/Src/stm32h5xx_hal.c ****   __HAL_RCC_AHB1_RELEASE_RESET();
 191:Drivers/STM32H5xx_HAL_Driver/Src/stm32h5xx_hal.c **** 
 192:Drivers/STM32H5xx_HAL_Driver/Src/stm32h5xx_hal.c ****   __HAL_RCC_AHB2_FORCE_RESET();
 193:Drivers/STM32H5xx_HAL_Driver/Src/stm32h5xx_hal.c ****   __HAL_RCC_AHB2_RELEASE_RESET();
 194:Drivers/STM32H5xx_HAL_Driver/Src/stm32h5xx_hal.c **** 
 195:Drivers/STM32H5xx_HAL_Driver/Src/stm32h5xx_hal.c **** #if defined(AHB4PERIPH_BASE)
 196:Drivers/STM32H5xx_HAL_Driver/Src/stm32h5xx_hal.c ****   __HAL_RCC_AHB4_FORCE_RESET();
 197:Drivers/STM32H5xx_HAL_Driver/Src/stm32h5xx_hal.c ****   __HAL_RCC_AHB4_RELEASE_RESET();
 198:Drivers/STM32H5xx_HAL_Driver/Src/stm32h5xx_hal.c **** #endif /* AHB4PERIPH_BASE */
 199:Drivers/STM32H5xx_HAL_Driver/Src/stm32h5xx_hal.c **** 
 200:Drivers/STM32H5xx_HAL_Driver/Src/stm32h5xx_hal.c ****   /* De-Init the low level hardware */
ARM GAS  C:\Users\sapph\AppData\Local\Temp\ccmhtm3h.s 			page 5


 201:Drivers/STM32H5xx_HAL_Driver/Src/stm32h5xx_hal.c ****   HAL_MspDeInit();
 202:Drivers/STM32H5xx_HAL_Driver/Src/stm32h5xx_hal.c **** 
 203:Drivers/STM32H5xx_HAL_Driver/Src/stm32h5xx_hal.c ****   /* Return function status */
 204:Drivers/STM32H5xx_HAL_Driver/Src/stm32h5xx_hal.c ****   return HAL_OK;
 205:Drivers/STM32H5xx_HAL_Driver/Src/stm32h5xx_hal.c **** }
 206:Drivers/STM32H5xx_HAL_Driver/Src/stm32h5xx_hal.c **** 
 207:Drivers/STM32H5xx_HAL_Driver/Src/stm32h5xx_hal.c **** /**
 208:Drivers/STM32H5xx_HAL_Driver/Src/stm32h5xx_hal.c ****   * @brief  Initializes the MSP.
 209:Drivers/STM32H5xx_HAL_Driver/Src/stm32h5xx_hal.c ****   * @retval None
 210:Drivers/STM32H5xx_HAL_Driver/Src/stm32h5xx_hal.c ****   */
 211:Drivers/STM32H5xx_HAL_Driver/Src/stm32h5xx_hal.c **** __weak void HAL_MspInit(void)
 212:Drivers/STM32H5xx_HAL_Driver/Src/stm32h5xx_hal.c **** {
  30              		.loc 1 212 1 view -0
  31              		.cfi_startproc
  32              		@ args = 0, pretend = 0, frame = 0
  33              		@ frame_needed = 0, uses_anonymous_args = 0
  34              		@ link register save eliminated.
 213:Drivers/STM32H5xx_HAL_Driver/Src/stm32h5xx_hal.c ****   /* NOTE : This function Should not be modified, when the callback is needed,
 214:Drivers/STM32H5xx_HAL_Driver/Src/stm32h5xx_hal.c ****             the HAL_MspInit could be implemented in the user file
 215:Drivers/STM32H5xx_HAL_Driver/Src/stm32h5xx_hal.c ****    */
 216:Drivers/STM32H5xx_HAL_Driver/Src/stm32h5xx_hal.c **** }
  35              		.loc 1 216 1 view .LVU1
  36 0000 7047     		bx	lr
  37              		.cfi_endproc
  38              	.LFE162:
  40              		.section	.text.HAL_MspDeInit,"ax",%progbits
  41              		.align	1
  42              		.weak	HAL_MspDeInit
  43              		.syntax unified
  44              		.thumb
  45              		.thumb_func
  47              	HAL_MspDeInit:
  48              	.LFB163:
 217:Drivers/STM32H5xx_HAL_Driver/Src/stm32h5xx_hal.c **** 
 218:Drivers/STM32H5xx_HAL_Driver/Src/stm32h5xx_hal.c **** /**
 219:Drivers/STM32H5xx_HAL_Driver/Src/stm32h5xx_hal.c ****   * @brief  DeInitializes the MSP.
 220:Drivers/STM32H5xx_HAL_Driver/Src/stm32h5xx_hal.c ****   * @retval None
 221:Drivers/STM32H5xx_HAL_Driver/Src/stm32h5xx_hal.c ****   */
 222:Drivers/STM32H5xx_HAL_Driver/Src/stm32h5xx_hal.c **** __weak void HAL_MspDeInit(void)
 223:Drivers/STM32H5xx_HAL_Driver/Src/stm32h5xx_hal.c **** {
  49              		.loc 1 223 1 view -0
  50              		.cfi_startproc
  51              		@ args = 0, pretend = 0, frame = 0
  52              		@ frame_needed = 0, uses_anonymous_args = 0
  53              		@ link register save eliminated.
 224:Drivers/STM32H5xx_HAL_Driver/Src/stm32h5xx_hal.c ****   /* NOTE : This function Should not be modified, when the callback is needed,
 225:Drivers/STM32H5xx_HAL_Driver/Src/stm32h5xx_hal.c ****             the HAL_MspDeInit could be implemented in the user file
 226:Drivers/STM32H5xx_HAL_Driver/Src/stm32h5xx_hal.c ****    */
 227:Drivers/STM32H5xx_HAL_Driver/Src/stm32h5xx_hal.c **** }
  54              		.loc 1 227 1 view .LVU3
  55 0000 7047     		bx	lr
  56              		.cfi_endproc
  57              	.LFE163:
  59              		.section	.text.HAL_DeInit,"ax",%progbits
  60              		.align	1
  61              		.global	HAL_DeInit
  62              		.syntax unified
ARM GAS  C:\Users\sapph\AppData\Local\Temp\ccmhtm3h.s 			page 6


  63              		.thumb
  64              		.thumb_func
  66              	HAL_DeInit:
  67              	.LFB161:
 178:Drivers/STM32H5xx_HAL_Driver/Src/stm32h5xx_hal.c ****   /* Reset of all peripherals */
  68              		.loc 1 178 1 view -0
  69              		.cfi_startproc
  70              		@ args = 0, pretend = 0, frame = 0
  71              		@ frame_needed = 0, uses_anonymous_args = 0
  72 0000 10B5     		push	{r4, lr}
  73              		.cfi_def_cfa_offset 8
  74              		.cfi_offset 4, -8
  75              		.cfi_offset 14, -4
 180:Drivers/STM32H5xx_HAL_Driver/Src/stm32h5xx_hal.c ****   __HAL_RCC_APB1_RELEASE_RESET();
  76              		.loc 1 180 3 view .LVU5
 180:Drivers/STM32H5xx_HAL_Driver/Src/stm32h5xx_hal.c ****   __HAL_RCC_APB1_RELEASE_RESET();
  77              		.loc 1 180 3 view .LVU6
  78 0002 0E4B     		ldr	r3, .L5
  79 0004 0E4A     		ldr	r2, .L5+4
  80 0006 5A67     		str	r2, [r3, #116]
 180:Drivers/STM32H5xx_HAL_Driver/Src/stm32h5xx_hal.c ****   __HAL_RCC_APB1_RELEASE_RESET();
  81              		.loc 1 180 3 view .LVU7
  82 0008 0E4A     		ldr	r2, .L5+8
  83 000a 9A67     		str	r2, [r3, #120]
 180:Drivers/STM32H5xx_HAL_Driver/Src/stm32h5xx_hal.c ****   __HAL_RCC_APB1_RELEASE_RESET();
  84              		.loc 1 180 3 view .LVU8
 181:Drivers/STM32H5xx_HAL_Driver/Src/stm32h5xx_hal.c **** 
  85              		.loc 1 181 3 view .LVU9
 181:Drivers/STM32H5xx_HAL_Driver/Src/stm32h5xx_hal.c **** 
  86              		.loc 1 181 3 view .LVU10
  87 000c 0024     		movs	r4, #0
  88 000e 5C67     		str	r4, [r3, #116]
 181:Drivers/STM32H5xx_HAL_Driver/Src/stm32h5xx_hal.c **** 
  89              		.loc 1 181 3 view .LVU11
  90 0010 9C67     		str	r4, [r3, #120]
 181:Drivers/STM32H5xx_HAL_Driver/Src/stm32h5xx_hal.c **** 
  91              		.loc 1 181 3 view .LVU12
 183:Drivers/STM32H5xx_HAL_Driver/Src/stm32h5xx_hal.c ****   __HAL_RCC_APB2_RELEASE_RESET();
  92              		.loc 1 183 3 view .LVU13
  93 0012 0D4A     		ldr	r2, .L5+12
  94 0014 DA67     		str	r2, [r3, #124]
 184:Drivers/STM32H5xx_HAL_Driver/Src/stm32h5xx_hal.c **** 
  95              		.loc 1 184 3 view .LVU14
  96 0016 DC67     		str	r4, [r3, #124]
 186:Drivers/STM32H5xx_HAL_Driver/Src/stm32h5xx_hal.c ****   __HAL_RCC_APB3_RELEASE_RESET();
  97              		.loc 1 186 3 view .LVU15
  98 0018 0C4A     		ldr	r2, .L5+16
  99 001a C3F88020 		str	r2, [r3, #128]
 187:Drivers/STM32H5xx_HAL_Driver/Src/stm32h5xx_hal.c **** 
 100              		.loc 1 187 3 view .LVU16
 101 001e C3F88040 		str	r4, [r3, #128]
 189:Drivers/STM32H5xx_HAL_Driver/Src/stm32h5xx_hal.c ****   __HAL_RCC_AHB1_RELEASE_RESET();
 102              		.loc 1 189 3 view .LVU17
 103 0022 0B4A     		ldr	r2, .L5+20
 104 0024 1A66     		str	r2, [r3, #96]
 190:Drivers/STM32H5xx_HAL_Driver/Src/stm32h5xx_hal.c **** 
 105              		.loc 1 190 3 view .LVU18
ARM GAS  C:\Users\sapph\AppData\Local\Temp\ccmhtm3h.s 			page 7


 106 0026 1C66     		str	r4, [r3, #96]
 192:Drivers/STM32H5xx_HAL_Driver/Src/stm32h5xx_hal.c ****   __HAL_RCC_AHB2_RELEASE_RESET();
 107              		.loc 1 192 3 view .LVU19
 108 0028 0A4A     		ldr	r2, .L5+24
 109 002a 5A66     		str	r2, [r3, #100]
 193:Drivers/STM32H5xx_HAL_Driver/Src/stm32h5xx_hal.c **** 
 110              		.loc 1 193 3 view .LVU20
 111 002c 5C66     		str	r4, [r3, #100]
 196:Drivers/STM32H5xx_HAL_Driver/Src/stm32h5xx_hal.c ****   __HAL_RCC_AHB4_RELEASE_RESET();
 112              		.loc 1 196 3 view .LVU21
 113 002e 0A4A     		ldr	r2, .L5+28
 114 0030 DA66     		str	r2, [r3, #108]
 197:Drivers/STM32H5xx_HAL_Driver/Src/stm32h5xx_hal.c **** #endif /* AHB4PERIPH_BASE */
 115              		.loc 1 197 3 view .LVU22
 116 0032 DC66     		str	r4, [r3, #108]
 201:Drivers/STM32H5xx_HAL_Driver/Src/stm32h5xx_hal.c **** 
 117              		.loc 1 201 3 view .LVU23
 118 0034 FFF7FEFF 		bl	HAL_MspDeInit
 119              	.LVL0:
 204:Drivers/STM32H5xx_HAL_Driver/Src/stm32h5xx_hal.c **** }
 120              		.loc 1 204 3 view .LVU24
 205:Drivers/STM32H5xx_HAL_Driver/Src/stm32h5xx_hal.c **** 
 121              		.loc 1 205 1 is_stmt 0 view .LVU25
 122 0038 2046     		mov	r0, r4
 123 003a 10BD     		pop	{r4, pc}
 124              	.L6:
 125              		.align	2
 126              	.L5:
 127 003c 000C0244 		.word	1140984832
 128 0040 FFC1FEDF 		.word	-536952321
 129 0044 2B068040 		.word	1082132011
 130 0048 00787F01 		.word	25131008
 131 004c E0081000 		.word	1050848
 132 0050 03D00A01 		.word	17485827
 133 0054 FF1D1F00 		.word	2039295
 134 0058 80181100 		.word	1120384
 135              		.cfi_endproc
 136              	.LFE161:
 138              		.section	.text.HAL_InitTick,"ax",%progbits
 139              		.align	1
 140              		.weak	HAL_InitTick
 141              		.syntax unified
 142              		.thumb
 143              		.thumb_func
 145              	HAL_InitTick:
 146              	.LVL1:
 147              	.LFB164:
 228:Drivers/STM32H5xx_HAL_Driver/Src/stm32h5xx_hal.c **** 
 229:Drivers/STM32H5xx_HAL_Driver/Src/stm32h5xx_hal.c **** /**
 230:Drivers/STM32H5xx_HAL_Driver/Src/stm32h5xx_hal.c ****   * @brief This function configures the source of the time base.
 231:Drivers/STM32H5xx_HAL_Driver/Src/stm32h5xx_hal.c ****   *        The time source is configured to have 1ms time base with a dedicated
 232:Drivers/STM32H5xx_HAL_Driver/Src/stm32h5xx_hal.c ****   *        Tick interrupt priority.
 233:Drivers/STM32H5xx_HAL_Driver/Src/stm32h5xx_hal.c ****   * @note This function is called  automatically at the beginning of program after
 234:Drivers/STM32H5xx_HAL_Driver/Src/stm32h5xx_hal.c ****   *       reset by HAL_Init() or at any time when clock is reconfigured  by HAL_RCC_ClockConfig().
 235:Drivers/STM32H5xx_HAL_Driver/Src/stm32h5xx_hal.c ****   * @note In the default implementation, SysTick timer is the source of time base.
 236:Drivers/STM32H5xx_HAL_Driver/Src/stm32h5xx_hal.c ****   *       It is used to generate interrupts at regular time intervals.
 237:Drivers/STM32H5xx_HAL_Driver/Src/stm32h5xx_hal.c ****   *       Care must be taken if HAL_Delay() is called from a peripheral ISR process,
ARM GAS  C:\Users\sapph\AppData\Local\Temp\ccmhtm3h.s 			page 8


 238:Drivers/STM32H5xx_HAL_Driver/Src/stm32h5xx_hal.c ****   *       The SysTick interrupt must have higher priority (numerically lower)
 239:Drivers/STM32H5xx_HAL_Driver/Src/stm32h5xx_hal.c ****   *       than the peripheral interrupt. Otherwise the caller ISR process will be blocked.
 240:Drivers/STM32H5xx_HAL_Driver/Src/stm32h5xx_hal.c ****   *       The function is declared as __weak  to be overwritten  in case of other
 241:Drivers/STM32H5xx_HAL_Driver/Src/stm32h5xx_hal.c ****   *       implementation  in user file.
 242:Drivers/STM32H5xx_HAL_Driver/Src/stm32h5xx_hal.c ****   * @param TickPriority: Tick interrupt priority.
 243:Drivers/STM32H5xx_HAL_Driver/Src/stm32h5xx_hal.c ****   * @retval HAL status
 244:Drivers/STM32H5xx_HAL_Driver/Src/stm32h5xx_hal.c ****   */
 245:Drivers/STM32H5xx_HAL_Driver/Src/stm32h5xx_hal.c **** __weak HAL_StatusTypeDef HAL_InitTick(uint32_t TickPriority)
 246:Drivers/STM32H5xx_HAL_Driver/Src/stm32h5xx_hal.c **** {
 148              		.loc 1 246 1 is_stmt 1 view -0
 149              		.cfi_startproc
 150              		@ args = 0, pretend = 0, frame = 0
 151              		@ frame_needed = 0, uses_anonymous_args = 0
 152              		.loc 1 246 1 is_stmt 0 view .LVU27
 153 0000 38B5     		push	{r3, r4, r5, lr}
 154              		.cfi_def_cfa_offset 16
 155              		.cfi_offset 3, -16
 156              		.cfi_offset 4, -12
 157              		.cfi_offset 5, -8
 158              		.cfi_offset 14, -4
 247:Drivers/STM32H5xx_HAL_Driver/Src/stm32h5xx_hal.c ****   uint32_t ticknumber = 0U;
 159              		.loc 1 247 3 is_stmt 1 view .LVU28
 160              	.LVL2:
 248:Drivers/STM32H5xx_HAL_Driver/Src/stm32h5xx_hal.c ****   uint32_t systicksel;
 161              		.loc 1 248 3 view .LVU29
 249:Drivers/STM32H5xx_HAL_Driver/Src/stm32h5xx_hal.c **** 
 250:Drivers/STM32H5xx_HAL_Driver/Src/stm32h5xx_hal.c ****   /* Check uwTickFreq for MisraC 2012 (even if uwTickFreq is a enum type that don't take the value 
 251:Drivers/STM32H5xx_HAL_Driver/Src/stm32h5xx_hal.c ****   if ((uint32_t)uwTickFreq == 0UL)
 162              		.loc 1 251 3 view .LVU30
 163              		.loc 1 251 28 is_stmt 0 view .LVU31
 164 0002 274B     		ldr	r3, .L17
 165 0004 1A78     		ldrb	r2, [r3]	@ zero_extendqisi2
 166              		.loc 1 251 6 view .LVU32
 167 0006 002A     		cmp	r2, #0
 168 0008 47D0     		beq	.L13
 169 000a 0546     		mov	r5, r0
 252:Drivers/STM32H5xx_HAL_Driver/Src/stm32h5xx_hal.c ****   {
 253:Drivers/STM32H5xx_HAL_Driver/Src/stm32h5xx_hal.c ****     return HAL_ERROR;
 254:Drivers/STM32H5xx_HAL_Driver/Src/stm32h5xx_hal.c ****   }
 255:Drivers/STM32H5xx_HAL_Driver/Src/stm32h5xx_hal.c **** 
 256:Drivers/STM32H5xx_HAL_Driver/Src/stm32h5xx_hal.c ****   /* Check Clock source to calculate the tickNumber */
 257:Drivers/STM32H5xx_HAL_Driver/Src/stm32h5xx_hal.c ****   if (READ_BIT(SysTick->CTRL, SysTick_CTRL_CLKSOURCE_Msk) == SysTick_CTRL_CLKSOURCE_Msk)
 170              		.loc 1 257 3 is_stmt 1 view .LVU33
 171              		.loc 1 257 7 is_stmt 0 view .LVU34
 172 000c 4FF0E023 		mov	r3, #-536813568
 173 0010 1C69     		ldr	r4, [r3, #16]
 174              		.loc 1 257 6 view .LVU35
 175 0012 14F00404 		ands	r4, r4, #4
 176 0016 0DD0     		beq	.L9
 258:Drivers/STM32H5xx_HAL_Driver/Src/stm32h5xx_hal.c ****   {
 259:Drivers/STM32H5xx_HAL_Driver/Src/stm32h5xx_hal.c ****     /* HCLK selected as SysTick clock source */
 260:Drivers/STM32H5xx_HAL_Driver/Src/stm32h5xx_hal.c ****     ticknumber = SystemCoreClock / (1000UL / (uint32_t)uwTickFreq);
 177              		.loc 1 260 5 is_stmt 1 view .LVU36
 178              		.loc 1 260 34 is_stmt 0 view .LVU37
 179 0018 224B     		ldr	r3, .L17+4
 180 001a 1C68     		ldr	r4, [r3]
 181              		.loc 1 260 44 view .LVU38
ARM GAS  C:\Users\sapph\AppData\Local\Temp\ccmhtm3h.s 			page 9


 182 001c 4FF47A71 		mov	r1, #1000
 183 0020 B1FBF2F2 		udiv	r2, r1, r2
 184              		.loc 1 260 16 view .LVU39
 185 0024 B4FBF2F4 		udiv	r4, r4, r2
 186              	.LVL3:
 187              	.L10:
 261:Drivers/STM32H5xx_HAL_Driver/Src/stm32h5xx_hal.c ****   }
 262:Drivers/STM32H5xx_HAL_Driver/Src/stm32h5xx_hal.c ****   else
 263:Drivers/STM32H5xx_HAL_Driver/Src/stm32h5xx_hal.c ****   {
 264:Drivers/STM32H5xx_HAL_Driver/Src/stm32h5xx_hal.c ****     systicksel = HAL_SYSTICK_GetCLKSourceConfig();
 265:Drivers/STM32H5xx_HAL_Driver/Src/stm32h5xx_hal.c ****     switch (systicksel)
 266:Drivers/STM32H5xx_HAL_Driver/Src/stm32h5xx_hal.c ****     {
 267:Drivers/STM32H5xx_HAL_Driver/Src/stm32h5xx_hal.c ****       /* HCLK_DIV8 selected as SysTick clock source */
 268:Drivers/STM32H5xx_HAL_Driver/Src/stm32h5xx_hal.c ****       case SYSTICK_CLKSOURCE_HCLK_DIV8:
 269:Drivers/STM32H5xx_HAL_Driver/Src/stm32h5xx_hal.c ****         /* Calculate tick value */
 270:Drivers/STM32H5xx_HAL_Driver/Src/stm32h5xx_hal.c ****         ticknumber = (SystemCoreClock / (8000UL / (uint32_t)uwTickFreq));
 271:Drivers/STM32H5xx_HAL_Driver/Src/stm32h5xx_hal.c ****         break;
 272:Drivers/STM32H5xx_HAL_Driver/Src/stm32h5xx_hal.c ****       /* LSI selected as SysTick clock source */
 273:Drivers/STM32H5xx_HAL_Driver/Src/stm32h5xx_hal.c ****       case SYSTICK_CLKSOURCE_LSI:
 274:Drivers/STM32H5xx_HAL_Driver/Src/stm32h5xx_hal.c ****         /* Calculate tick value */
 275:Drivers/STM32H5xx_HAL_Driver/Src/stm32h5xx_hal.c ****         ticknumber = (LSI_VALUE / (1000UL / (uint32_t)uwTickFreq));
 276:Drivers/STM32H5xx_HAL_Driver/Src/stm32h5xx_hal.c ****         break;
 277:Drivers/STM32H5xx_HAL_Driver/Src/stm32h5xx_hal.c ****       /* LSE selected as SysTick clock source */
 278:Drivers/STM32H5xx_HAL_Driver/Src/stm32h5xx_hal.c ****       case SYSTICK_CLKSOURCE_LSE:
 279:Drivers/STM32H5xx_HAL_Driver/Src/stm32h5xx_hal.c ****         /* Calculate tick value */
 280:Drivers/STM32H5xx_HAL_Driver/Src/stm32h5xx_hal.c ****         ticknumber = (LSE_VALUE / (1000UL / (uint32_t)uwTickFreq));
 281:Drivers/STM32H5xx_HAL_Driver/Src/stm32h5xx_hal.c ****         break;
 282:Drivers/STM32H5xx_HAL_Driver/Src/stm32h5xx_hal.c ****       default:
 283:Drivers/STM32H5xx_HAL_Driver/Src/stm32h5xx_hal.c ****         /* Nothing to do */
 284:Drivers/STM32H5xx_HAL_Driver/Src/stm32h5xx_hal.c ****         break;
 285:Drivers/STM32H5xx_HAL_Driver/Src/stm32h5xx_hal.c ****     }
 286:Drivers/STM32H5xx_HAL_Driver/Src/stm32h5xx_hal.c ****   }
 287:Drivers/STM32H5xx_HAL_Driver/Src/stm32h5xx_hal.c **** 
 288:Drivers/STM32H5xx_HAL_Driver/Src/stm32h5xx_hal.c ****   /* Configure the SysTick to have interrupt in 1ms time basis*/
 289:Drivers/STM32H5xx_HAL_Driver/Src/stm32h5xx_hal.c ****   if (HAL_SYSTICK_Config(ticknumber) > 0U)
 188              		.loc 1 289 3 is_stmt 1 view .LVU40
 189              		.loc 1 289 7 is_stmt 0 view .LVU41
 190 0028 2046     		mov	r0, r4
 191 002a FFF7FEFF 		bl	HAL_SYSTICK_Config
 192              	.LVL4:
 193              		.loc 1 289 6 discriminator 1 view .LVU42
 194 002e 50B3     		cbz	r0, .L16
 290:Drivers/STM32H5xx_HAL_Driver/Src/stm32h5xx_hal.c ****   {
 291:Drivers/STM32H5xx_HAL_Driver/Src/stm32h5xx_hal.c ****     return HAL_ERROR;
 195              		.loc 1 291 12 view .LVU43
 196 0030 0120     		movs	r0, #1
 197 0032 33E0     		b	.L8
 198              	.LVL5:
 199              	.L9:
 264:Drivers/STM32H5xx_HAL_Driver/Src/stm32h5xx_hal.c ****     switch (systicksel)
 200              		.loc 1 264 5 is_stmt 1 view .LVU44
 264:Drivers/STM32H5xx_HAL_Driver/Src/stm32h5xx_hal.c ****     switch (systicksel)
 201              		.loc 1 264 18 is_stmt 0 view .LVU45
 202 0034 FFF7FEFF 		bl	HAL_SYSTICK_GetCLKSourceConfig
 203              	.LVL6:
 265:Drivers/STM32H5xx_HAL_Driver/Src/stm32h5xx_hal.c ****     {
 204              		.loc 1 265 5 is_stmt 1 view .LVU46
ARM GAS  C:\Users\sapph\AppData\Local\Temp\ccmhtm3h.s 			page 10


 205 0038 0128     		cmp	r0, #1
 206 003a 0ED0     		beq	.L11
 207 003c 0228     		cmp	r0, #2
 208 003e 17D0     		beq	.L12
 209 0040 0028     		cmp	r0, #0
 210 0042 F1D1     		bne	.L10
 270:Drivers/STM32H5xx_HAL_Driver/Src/stm32h5xx_hal.c ****         break;
 211              		.loc 1 270 9 view .LVU47
 270:Drivers/STM32H5xx_HAL_Driver/Src/stm32h5xx_hal.c ****         break;
 212              		.loc 1 270 39 is_stmt 0 view .LVU48
 213 0044 174B     		ldr	r3, .L17+4
 214 0046 1C68     		ldr	r4, [r3]
 270:Drivers/STM32H5xx_HAL_Driver/Src/stm32h5xx_hal.c ****         break;
 215              		.loc 1 270 51 view .LVU49
 216 0048 154A     		ldr	r2, .L17
 217 004a 1178     		ldrb	r1, [r2]	@ zero_extendqisi2
 270:Drivers/STM32H5xx_HAL_Driver/Src/stm32h5xx_hal.c ****         break;
 218              		.loc 1 270 49 view .LVU50
 219 004c 4FF4FA52 		mov	r2, #8000
 220 0050 B2FBF1F2 		udiv	r2, r2, r1
 270:Drivers/STM32H5xx_HAL_Driver/Src/stm32h5xx_hal.c ****         break;
 221              		.loc 1 270 20 view .LVU51
 222 0054 B4FBF2F4 		udiv	r4, r4, r2
 223              	.LVL7:
 271:Drivers/STM32H5xx_HAL_Driver/Src/stm32h5xx_hal.c ****       /* LSI selected as SysTick clock source */
 224              		.loc 1 271 9 is_stmt 1 view .LVU52
 225 0058 E6E7     		b	.L10
 226              	.LVL8:
 227              	.L11:
 275:Drivers/STM32H5xx_HAL_Driver/Src/stm32h5xx_hal.c ****         break;
 228              		.loc 1 275 9 view .LVU53
 275:Drivers/STM32H5xx_HAL_Driver/Src/stm32h5xx_hal.c ****         break;
 229              		.loc 1 275 45 is_stmt 0 view .LVU54
 230 005a 114B     		ldr	r3, .L17
 231 005c 1B78     		ldrb	r3, [r3]	@ zero_extendqisi2
 275:Drivers/STM32H5xx_HAL_Driver/Src/stm32h5xx_hal.c ****         break;
 232              		.loc 1 275 43 view .LVU55
 233 005e 4FF47A72 		mov	r2, #1000
 234 0062 B2FBF3F2 		udiv	r2, r2, r3
 275:Drivers/STM32H5xx_HAL_Driver/Src/stm32h5xx_hal.c ****         break;
 235              		.loc 1 275 20 view .LVU56
 236 0066 4FF4FA43 		mov	r3, #32000
 237 006a B3FBF2F4 		udiv	r4, r3, r2
 238              	.LVL9:
 276:Drivers/STM32H5xx_HAL_Driver/Src/stm32h5xx_hal.c ****       /* LSE selected as SysTick clock source */
 239              		.loc 1 276 9 is_stmt 1 view .LVU57
 240 006e DBE7     		b	.L10
 241              	.LVL10:
 242              	.L12:
 280:Drivers/STM32H5xx_HAL_Driver/Src/stm32h5xx_hal.c ****         break;
 243              		.loc 1 280 9 view .LVU58
 280:Drivers/STM32H5xx_HAL_Driver/Src/stm32h5xx_hal.c ****         break;
 244              		.loc 1 280 45 is_stmt 0 view .LVU59
 245 0070 0B4B     		ldr	r3, .L17
 246 0072 1B78     		ldrb	r3, [r3]	@ zero_extendqisi2
 280:Drivers/STM32H5xx_HAL_Driver/Src/stm32h5xx_hal.c ****         break;
 247              		.loc 1 280 43 view .LVU60
ARM GAS  C:\Users\sapph\AppData\Local\Temp\ccmhtm3h.s 			page 11


 248 0074 4FF47A72 		mov	r2, #1000
 249 0078 B2FBF3F2 		udiv	r2, r2, r3
 280:Drivers/STM32H5xx_HAL_Driver/Src/stm32h5xx_hal.c ****         break;
 250              		.loc 1 280 20 view .LVU61
 251 007c 4FF40043 		mov	r3, #32768
 252 0080 B3FBF2F4 		udiv	r4, r3, r2
 253              	.LVL11:
 281:Drivers/STM32H5xx_HAL_Driver/Src/stm32h5xx_hal.c ****       default:
 254              		.loc 1 281 9 is_stmt 1 view .LVU62
 255 0084 D0E7     		b	.L10
 256              	.LVL12:
 257              	.L16:
 292:Drivers/STM32H5xx_HAL_Driver/Src/stm32h5xx_hal.c ****   }
 293:Drivers/STM32H5xx_HAL_Driver/Src/stm32h5xx_hal.c **** 
 294:Drivers/STM32H5xx_HAL_Driver/Src/stm32h5xx_hal.c ****   /* Configure the SysTick IRQ priority */
 295:Drivers/STM32H5xx_HAL_Driver/Src/stm32h5xx_hal.c ****   HAL_NVIC_SetPriority(SysTick_IRQn, TickPriority, 0U);
 258              		.loc 1 295 3 view .LVU63
 259 0086 0022     		movs	r2, #0
 260 0088 2946     		mov	r1, r5
 261 008a 4FF0FF30 		mov	r0, #-1
 262 008e FFF7FEFF 		bl	HAL_NVIC_SetPriority
 263              	.LVL13:
 296:Drivers/STM32H5xx_HAL_Driver/Src/stm32h5xx_hal.c ****   uwTickPrio = TickPriority;
 264              		.loc 1 296 3 view .LVU64
 265              		.loc 1 296 14 is_stmt 0 view .LVU65
 266 0092 054B     		ldr	r3, .L17+8
 267 0094 1D60     		str	r5, [r3]
 297:Drivers/STM32H5xx_HAL_Driver/Src/stm32h5xx_hal.c **** 
 298:Drivers/STM32H5xx_HAL_Driver/Src/stm32h5xx_hal.c ****   /* Return function status */
 299:Drivers/STM32H5xx_HAL_Driver/Src/stm32h5xx_hal.c ****   return HAL_OK;
 268              		.loc 1 299 3 is_stmt 1 view .LVU66
 269              		.loc 1 299 10 is_stmt 0 view .LVU67
 270 0096 0020     		movs	r0, #0
 271 0098 00E0     		b	.L8
 272              	.LVL14:
 273              	.L13:
 253:Drivers/STM32H5xx_HAL_Driver/Src/stm32h5xx_hal.c ****   }
 274              		.loc 1 253 12 view .LVU68
 275 009a 0120     		movs	r0, #1
 276              	.LVL15:
 277              	.L8:
 300:Drivers/STM32H5xx_HAL_Driver/Src/stm32h5xx_hal.c **** }
 278              		.loc 1 300 1 view .LVU69
 279 009c 38BD     		pop	{r3, r4, r5, pc}
 280              	.L18:
 281 009e 00BF     		.align	2
 282              	.L17:
 283 00a0 00000000 		.word	uwTickFreq
 284 00a4 00000000 		.word	SystemCoreClock
 285 00a8 00000000 		.word	uwTickPrio
 286              		.cfi_endproc
 287              	.LFE164:
 289              		.section	.text.HAL_Init,"ax",%progbits
 290              		.align	1
 291              		.global	HAL_Init
 292              		.syntax unified
 293              		.thumb
ARM GAS  C:\Users\sapph\AppData\Local\Temp\ccmhtm3h.s 			page 12


 294              		.thumb_func
 296              	HAL_Init:
 297              	.LFB160:
 144:Drivers/STM32H5xx_HAL_Driver/Src/stm32h5xx_hal.c ****   /* Configure Flash prefetch */
 298              		.loc 1 144 1 is_stmt 1 view -0
 299              		.cfi_startproc
 300              		@ args = 0, pretend = 0, frame = 0
 301              		@ frame_needed = 0, uses_anonymous_args = 0
 302 0000 10B5     		push	{r4, lr}
 303              		.cfi_def_cfa_offset 8
 304              		.cfi_offset 4, -8
 305              		.cfi_offset 14, -4
 151:Drivers/STM32H5xx_HAL_Driver/Src/stm32h5xx_hal.c **** 
 306              		.loc 1 151 3 view .LVU71
 307 0002 0320     		movs	r0, #3
 308 0004 FFF7FEFF 		bl	HAL_NVIC_SetPriorityGrouping
 309              	.LVL16:
 154:Drivers/STM32H5xx_HAL_Driver/Src/stm32h5xx_hal.c **** 
 310              		.loc 1 154 3 view .LVU72
 154:Drivers/STM32H5xx_HAL_Driver/Src/stm32h5xx_hal.c **** 
 311              		.loc 1 154 21 is_stmt 0 view .LVU73
 312 0008 FFF7FEFF 		bl	HAL_RCC_GetSysClockFreq
 313              	.LVL17:
 154:Drivers/STM32H5xx_HAL_Driver/Src/stm32h5xx_hal.c **** 
 314              		.loc 1 154 68 discriminator 1 view .LVU74
 315 000c 0B4B     		ldr	r3, .L24
 316 000e 1B6A     		ldr	r3, [r3, #32]
 154:Drivers/STM32H5xx_HAL_Driver/Src/stm32h5xx_hal.c **** 
 317              		.loc 1 154 94 discriminator 1 view .LVU75
 318 0010 03F00F03 		and	r3, r3, #15
 154:Drivers/STM32H5xx_HAL_Driver/Src/stm32h5xx_hal.c **** 
 319              		.loc 1 154 63 discriminator 1 view .LVU76
 320 0014 0A4A     		ldr	r2, .L24+4
 321 0016 D35C     		ldrb	r3, [r2, r3]	@ zero_extendqisi2
 154:Drivers/STM32H5xx_HAL_Driver/Src/stm32h5xx_hal.c **** 
 322              		.loc 1 154 47 discriminator 1 view .LVU77
 323 0018 D840     		lsrs	r0, r0, r3
 154:Drivers/STM32H5xx_HAL_Driver/Src/stm32h5xx_hal.c **** 
 324              		.loc 1 154 19 discriminator 1 view .LVU78
 325 001a 0A4B     		ldr	r3, .L24+8
 326 001c 1860     		str	r0, [r3]
 157:Drivers/STM32H5xx_HAL_Driver/Src/stm32h5xx_hal.c **** 
 327              		.loc 1 157 3 is_stmt 1 view .LVU79
 328 001e 0420     		movs	r0, #4
 329 0020 FFF7FEFF 		bl	HAL_SYSTICK_CLKSourceConfig
 330              	.LVL18:
 160:Drivers/STM32H5xx_HAL_Driver/Src/stm32h5xx_hal.c ****   {
 331              		.loc 1 160 3 view .LVU80
 160:Drivers/STM32H5xx_HAL_Driver/Src/stm32h5xx_hal.c ****   {
 332              		.loc 1 160 7 is_stmt 0 view .LVU81
 333 0024 0F20     		movs	r0, #15
 334 0026 FFF7FEFF 		bl	HAL_InitTick
 335              	.LVL19:
 160:Drivers/STM32H5xx_HAL_Driver/Src/stm32h5xx_hal.c ****   {
 336              		.loc 1 160 6 discriminator 1 view .LVU82
 337 002a 10B1     		cbz	r0, .L23
 162:Drivers/STM32H5xx_HAL_Driver/Src/stm32h5xx_hal.c ****   }
ARM GAS  C:\Users\sapph\AppData\Local\Temp\ccmhtm3h.s 			page 13


 338              		.loc 1 162 12 view .LVU83
 339 002c 0124     		movs	r4, #1
 340              	.L20:
 170:Drivers/STM32H5xx_HAL_Driver/Src/stm32h5xx_hal.c **** 
 341              		.loc 1 170 1 view .LVU84
 342 002e 2046     		mov	r0, r4
 343 0030 10BD     		pop	{r4, pc}
 344              	.L23:
 345 0032 0446     		mov	r4, r0
 166:Drivers/STM32H5xx_HAL_Driver/Src/stm32h5xx_hal.c **** 
 346              		.loc 1 166 3 is_stmt 1 view .LVU85
 347 0034 FFF7FEFF 		bl	HAL_MspInit
 348              	.LVL20:
 169:Drivers/STM32H5xx_HAL_Driver/Src/stm32h5xx_hal.c **** }
 349              		.loc 1 169 3 view .LVU86
 169:Drivers/STM32H5xx_HAL_Driver/Src/stm32h5xx_hal.c **** }
 350              		.loc 1 169 10 is_stmt 0 view .LVU87
 351 0038 F9E7     		b	.L20
 352              	.L25:
 353 003a 00BF     		.align	2
 354              	.L24:
 355 003c 000C0244 		.word	1140984832
 356 0040 00000000 		.word	AHBPrescTable
 357 0044 00000000 		.word	SystemCoreClock
 358              		.cfi_endproc
 359              	.LFE160:
 361              		.section	.text.HAL_IncTick,"ax",%progbits
 362              		.align	1
 363              		.weak	HAL_IncTick
 364              		.syntax unified
 365              		.thumb
 366              		.thumb_func
 368              	HAL_IncTick:
 369              	.LFB165:
 301:Drivers/STM32H5xx_HAL_Driver/Src/stm32h5xx_hal.c **** 
 302:Drivers/STM32H5xx_HAL_Driver/Src/stm32h5xx_hal.c **** /**
 303:Drivers/STM32H5xx_HAL_Driver/Src/stm32h5xx_hal.c ****   * @}
 304:Drivers/STM32H5xx_HAL_Driver/Src/stm32h5xx_hal.c ****   */
 305:Drivers/STM32H5xx_HAL_Driver/Src/stm32h5xx_hal.c **** 
 306:Drivers/STM32H5xx_HAL_Driver/Src/stm32h5xx_hal.c **** /** @defgroup HAL_Group2 HAL Control functions
 307:Drivers/STM32H5xx_HAL_Driver/Src/stm32h5xx_hal.c ****   *  @brief    HAL Control functions
 308:Drivers/STM32H5xx_HAL_Driver/Src/stm32h5xx_hal.c ****   *
 309:Drivers/STM32H5xx_HAL_Driver/Src/stm32h5xx_hal.c **** @verbatim
 310:Drivers/STM32H5xx_HAL_Driver/Src/stm32h5xx_hal.c ****  ==================================================================================================
 311:Drivers/STM32H5xx_HAL_Driver/Src/stm32h5xx_hal.c ****                                        ##### HAL Control functions #####
 312:Drivers/STM32H5xx_HAL_Driver/Src/stm32h5xx_hal.c ****  ==================================================================================================
 313:Drivers/STM32H5xx_HAL_Driver/Src/stm32h5xx_hal.c ****     [..]  This section provides functions allowing to:
 314:Drivers/STM32H5xx_HAL_Driver/Src/stm32h5xx_hal.c ****       (+) Provide a tick value in millisecond
 315:Drivers/STM32H5xx_HAL_Driver/Src/stm32h5xx_hal.c ****       (+) Provide a blocking delay in millisecond
 316:Drivers/STM32H5xx_HAL_Driver/Src/stm32h5xx_hal.c ****       (+) Suspend the time base source interrupt
 317:Drivers/STM32H5xx_HAL_Driver/Src/stm32h5xx_hal.c ****       (+) Resume the time base source interrupt
 318:Drivers/STM32H5xx_HAL_Driver/Src/stm32h5xx_hal.c ****       (+) Get the HAL API driver version
 319:Drivers/STM32H5xx_HAL_Driver/Src/stm32h5xx_hal.c ****       (+) Get the device identifier
 320:Drivers/STM32H5xx_HAL_Driver/Src/stm32h5xx_hal.c ****       (+) Get the device revision identifier
 321:Drivers/STM32H5xx_HAL_Driver/Src/stm32h5xx_hal.c **** 
 322:Drivers/STM32H5xx_HAL_Driver/Src/stm32h5xx_hal.c **** @endverbatim
 323:Drivers/STM32H5xx_HAL_Driver/Src/stm32h5xx_hal.c ****   * @{
ARM GAS  C:\Users\sapph\AppData\Local\Temp\ccmhtm3h.s 			page 14


 324:Drivers/STM32H5xx_HAL_Driver/Src/stm32h5xx_hal.c ****   */
 325:Drivers/STM32H5xx_HAL_Driver/Src/stm32h5xx_hal.c **** 
 326:Drivers/STM32H5xx_HAL_Driver/Src/stm32h5xx_hal.c **** /**
 327:Drivers/STM32H5xx_HAL_Driver/Src/stm32h5xx_hal.c ****   * @brief This function is called to increment a global variable "uwTick"
 328:Drivers/STM32H5xx_HAL_Driver/Src/stm32h5xx_hal.c ****   *        used as application time base.
 329:Drivers/STM32H5xx_HAL_Driver/Src/stm32h5xx_hal.c ****   * @note In the default implementation, this variable is incremented each 1ms
 330:Drivers/STM32H5xx_HAL_Driver/Src/stm32h5xx_hal.c ****   *       in SysTick ISR.
 331:Drivers/STM32H5xx_HAL_Driver/Src/stm32h5xx_hal.c ****   * @note This function is declared as __weak to be overwritten in case of other
 332:Drivers/STM32H5xx_HAL_Driver/Src/stm32h5xx_hal.c ****   *      implementations in user file.
 333:Drivers/STM32H5xx_HAL_Driver/Src/stm32h5xx_hal.c ****   * @retval None
 334:Drivers/STM32H5xx_HAL_Driver/Src/stm32h5xx_hal.c ****   */
 335:Drivers/STM32H5xx_HAL_Driver/Src/stm32h5xx_hal.c **** __weak void HAL_IncTick(void)
 336:Drivers/STM32H5xx_HAL_Driver/Src/stm32h5xx_hal.c **** {
 370              		.loc 1 336 1 is_stmt 1 view -0
 371              		.cfi_startproc
 372              		@ args = 0, pretend = 0, frame = 0
 373              		@ frame_needed = 0, uses_anonymous_args = 0
 374              		@ link register save eliminated.
 337:Drivers/STM32H5xx_HAL_Driver/Src/stm32h5xx_hal.c ****   uwTick += (uint32_t)uwTickFreq;
 375              		.loc 1 337 3 view .LVU89
 376              		.loc 1 337 13 is_stmt 0 view .LVU90
 377 0000 034B     		ldr	r3, .L27
 378 0002 1B78     		ldrb	r3, [r3]	@ zero_extendqisi2
 379              		.loc 1 337 10 view .LVU91
 380 0004 034A     		ldr	r2, .L27+4
 381 0006 1168     		ldr	r1, [r2]
 382 0008 0B44     		add	r3, r3, r1
 383 000a 1360     		str	r3, [r2]
 338:Drivers/STM32H5xx_HAL_Driver/Src/stm32h5xx_hal.c **** }
 384              		.loc 1 338 1 view .LVU92
 385 000c 7047     		bx	lr
 386              	.L28:
 387 000e 00BF     		.align	2
 388              	.L27:
 389 0010 00000000 		.word	uwTickFreq
 390 0014 00000000 		.word	uwTick
 391              		.cfi_endproc
 392              	.LFE165:
 394              		.section	.text.HAL_GetTick,"ax",%progbits
 395              		.align	1
 396              		.weak	HAL_GetTick
 397              		.syntax unified
 398              		.thumb
 399              		.thumb_func
 401              	HAL_GetTick:
 402              	.LFB166:
 339:Drivers/STM32H5xx_HAL_Driver/Src/stm32h5xx_hal.c **** 
 340:Drivers/STM32H5xx_HAL_Driver/Src/stm32h5xx_hal.c **** /**
 341:Drivers/STM32H5xx_HAL_Driver/Src/stm32h5xx_hal.c ****   * @brief Provides a tick value in millisecond.
 342:Drivers/STM32H5xx_HAL_Driver/Src/stm32h5xx_hal.c ****   * @note This function is declared as __weak to be overwritten in case of other
 343:Drivers/STM32H5xx_HAL_Driver/Src/stm32h5xx_hal.c ****   *       implementations in user file.
 344:Drivers/STM32H5xx_HAL_Driver/Src/stm32h5xx_hal.c ****   * @retval tick value
 345:Drivers/STM32H5xx_HAL_Driver/Src/stm32h5xx_hal.c ****   */
 346:Drivers/STM32H5xx_HAL_Driver/Src/stm32h5xx_hal.c **** __weak uint32_t HAL_GetTick(void)
 347:Drivers/STM32H5xx_HAL_Driver/Src/stm32h5xx_hal.c **** {
 403              		.loc 1 347 1 is_stmt 1 view -0
 404              		.cfi_startproc
ARM GAS  C:\Users\sapph\AppData\Local\Temp\ccmhtm3h.s 			page 15


 405              		@ args = 0, pretend = 0, frame = 0
 406              		@ frame_needed = 0, uses_anonymous_args = 0
 407              		@ link register save eliminated.
 348:Drivers/STM32H5xx_HAL_Driver/Src/stm32h5xx_hal.c ****   return uwTick;
 408              		.loc 1 348 3 view .LVU94
 409              		.loc 1 348 10 is_stmt 0 view .LVU95
 410 0000 014B     		ldr	r3, .L30
 411 0002 1868     		ldr	r0, [r3]
 349:Drivers/STM32H5xx_HAL_Driver/Src/stm32h5xx_hal.c **** }
 412              		.loc 1 349 1 view .LVU96
 413 0004 7047     		bx	lr
 414              	.L31:
 415 0006 00BF     		.align	2
 416              	.L30:
 417 0008 00000000 		.word	uwTick
 418              		.cfi_endproc
 419              	.LFE166:
 421              		.section	.text.HAL_GetTickPrio,"ax",%progbits
 422              		.align	1
 423              		.global	HAL_GetTickPrio
 424              		.syntax unified
 425              		.thumb
 426              		.thumb_func
 428              	HAL_GetTickPrio:
 429              	.LFB167:
 350:Drivers/STM32H5xx_HAL_Driver/Src/stm32h5xx_hal.c **** 
 351:Drivers/STM32H5xx_HAL_Driver/Src/stm32h5xx_hal.c **** /**
 352:Drivers/STM32H5xx_HAL_Driver/Src/stm32h5xx_hal.c ****   * @brief This function returns a tick priority.
 353:Drivers/STM32H5xx_HAL_Driver/Src/stm32h5xx_hal.c ****   * @retval tick priority
 354:Drivers/STM32H5xx_HAL_Driver/Src/stm32h5xx_hal.c ****   */
 355:Drivers/STM32H5xx_HAL_Driver/Src/stm32h5xx_hal.c **** uint32_t HAL_GetTickPrio(void)
 356:Drivers/STM32H5xx_HAL_Driver/Src/stm32h5xx_hal.c **** {
 430              		.loc 1 356 1 is_stmt 1 view -0
 431              		.cfi_startproc
 432              		@ args = 0, pretend = 0, frame = 0
 433              		@ frame_needed = 0, uses_anonymous_args = 0
 434              		@ link register save eliminated.
 357:Drivers/STM32H5xx_HAL_Driver/Src/stm32h5xx_hal.c ****   return uwTickPrio;
 435              		.loc 1 357 3 view .LVU98
 358:Drivers/STM32H5xx_HAL_Driver/Src/stm32h5xx_hal.c **** }
 436              		.loc 1 358 1 is_stmt 0 view .LVU99
 437 0000 014B     		ldr	r3, .L33
 438 0002 1868     		ldr	r0, [r3]
 439 0004 7047     		bx	lr
 440              	.L34:
 441 0006 00BF     		.align	2
 442              	.L33:
 443 0008 00000000 		.word	uwTickPrio
 444              		.cfi_endproc
 445              	.LFE167:
 447              		.section	.text.HAL_SetTickFreq,"ax",%progbits
 448              		.align	1
 449              		.global	HAL_SetTickFreq
 450              		.syntax unified
 451              		.thumb
 452              		.thumb_func
 454              	HAL_SetTickFreq:
ARM GAS  C:\Users\sapph\AppData\Local\Temp\ccmhtm3h.s 			page 16


 455              	.LVL21:
 456              	.LFB168:
 359:Drivers/STM32H5xx_HAL_Driver/Src/stm32h5xx_hal.c **** 
 360:Drivers/STM32H5xx_HAL_Driver/Src/stm32h5xx_hal.c **** /**
 361:Drivers/STM32H5xx_HAL_Driver/Src/stm32h5xx_hal.c ****   * @brief Set new tick Freq.
 362:Drivers/STM32H5xx_HAL_Driver/Src/stm32h5xx_hal.c ****   * @retval HAL status
 363:Drivers/STM32H5xx_HAL_Driver/Src/stm32h5xx_hal.c ****   */
 364:Drivers/STM32H5xx_HAL_Driver/Src/stm32h5xx_hal.c **** HAL_StatusTypeDef HAL_SetTickFreq(HAL_TickFreqTypeDef Freq)
 365:Drivers/STM32H5xx_HAL_Driver/Src/stm32h5xx_hal.c **** {
 457              		.loc 1 365 1 is_stmt 1 view -0
 458              		.cfi_startproc
 459              		@ args = 0, pretend = 0, frame = 0
 460              		@ frame_needed = 0, uses_anonymous_args = 0
 461              		.loc 1 365 1 is_stmt 0 view .LVU101
 462 0000 10B5     		push	{r4, lr}
 463              		.cfi_def_cfa_offset 8
 464              		.cfi_offset 4, -8
 465              		.cfi_offset 14, -4
 366:Drivers/STM32H5xx_HAL_Driver/Src/stm32h5xx_hal.c ****   HAL_StatusTypeDef status  = HAL_OK;
 466              		.loc 1 366 3 is_stmt 1 view .LVU102
 467              	.LVL22:
 367:Drivers/STM32H5xx_HAL_Driver/Src/stm32h5xx_hal.c ****   HAL_TickFreqTypeDef prevTickFreq;
 468              		.loc 1 367 3 view .LVU103
 368:Drivers/STM32H5xx_HAL_Driver/Src/stm32h5xx_hal.c **** 
 369:Drivers/STM32H5xx_HAL_Driver/Src/stm32h5xx_hal.c ****   assert_param(IS_TICKFREQ(Freq));
 469              		.loc 1 369 3 view .LVU104
 370:Drivers/STM32H5xx_HAL_Driver/Src/stm32h5xx_hal.c **** 
 371:Drivers/STM32H5xx_HAL_Driver/Src/stm32h5xx_hal.c ****   if (uwTickFreq != Freq)
 470              		.loc 1 371 3 view .LVU105
 471              		.loc 1 371 18 is_stmt 0 view .LVU106
 472 0002 084B     		ldr	r3, .L40
 473 0004 1C78     		ldrb	r4, [r3]	@ zero_extendqisi2
 474              		.loc 1 371 6 view .LVU107
 475 0006 8442     		cmp	r4, r0
 476 0008 01D1     		bne	.L39
 366:Drivers/STM32H5xx_HAL_Driver/Src/stm32h5xx_hal.c ****   HAL_TickFreqTypeDef prevTickFreq;
 477              		.loc 1 366 21 view .LVU108
 478 000a 0020     		movs	r0, #0
 479              	.LVL23:
 480              	.L36:
 372:Drivers/STM32H5xx_HAL_Driver/Src/stm32h5xx_hal.c ****   {
 373:Drivers/STM32H5xx_HAL_Driver/Src/stm32h5xx_hal.c **** 
 374:Drivers/STM32H5xx_HAL_Driver/Src/stm32h5xx_hal.c ****     /* Back up uwTickFreq frequency */
 375:Drivers/STM32H5xx_HAL_Driver/Src/stm32h5xx_hal.c ****     prevTickFreq = uwTickFreq;
 376:Drivers/STM32H5xx_HAL_Driver/Src/stm32h5xx_hal.c **** 
 377:Drivers/STM32H5xx_HAL_Driver/Src/stm32h5xx_hal.c ****     /* Update uwTickFreq global variable used by HAL_InitTick() */
 378:Drivers/STM32H5xx_HAL_Driver/Src/stm32h5xx_hal.c ****     uwTickFreq = Freq;
 379:Drivers/STM32H5xx_HAL_Driver/Src/stm32h5xx_hal.c **** 
 380:Drivers/STM32H5xx_HAL_Driver/Src/stm32h5xx_hal.c ****     /* Apply the new tick Freq  */
 381:Drivers/STM32H5xx_HAL_Driver/Src/stm32h5xx_hal.c ****     status = HAL_InitTick(uwTickPrio);
 382:Drivers/STM32H5xx_HAL_Driver/Src/stm32h5xx_hal.c ****     if (status != HAL_OK)
 383:Drivers/STM32H5xx_HAL_Driver/Src/stm32h5xx_hal.c ****     {
 384:Drivers/STM32H5xx_HAL_Driver/Src/stm32h5xx_hal.c ****       /* Restore previous tick frequency */
 385:Drivers/STM32H5xx_HAL_Driver/Src/stm32h5xx_hal.c ****       uwTickFreq = prevTickFreq;
 386:Drivers/STM32H5xx_HAL_Driver/Src/stm32h5xx_hal.c ****     }
 387:Drivers/STM32H5xx_HAL_Driver/Src/stm32h5xx_hal.c ****   }
 388:Drivers/STM32H5xx_HAL_Driver/Src/stm32h5xx_hal.c **** 
ARM GAS  C:\Users\sapph\AppData\Local\Temp\ccmhtm3h.s 			page 17


 389:Drivers/STM32H5xx_HAL_Driver/Src/stm32h5xx_hal.c ****   return status;
 481              		.loc 1 389 3 is_stmt 1 view .LVU109
 390:Drivers/STM32H5xx_HAL_Driver/Src/stm32h5xx_hal.c **** }
 482              		.loc 1 390 1 is_stmt 0 view .LVU110
 483 000c 10BD     		pop	{r4, pc}
 484              	.LVL24:
 485              	.L39:
 375:Drivers/STM32H5xx_HAL_Driver/Src/stm32h5xx_hal.c **** 
 486              		.loc 1 375 5 is_stmt 1 view .LVU111
 378:Drivers/STM32H5xx_HAL_Driver/Src/stm32h5xx_hal.c **** 
 487              		.loc 1 378 5 view .LVU112
 378:Drivers/STM32H5xx_HAL_Driver/Src/stm32h5xx_hal.c **** 
 488              		.loc 1 378 16 is_stmt 0 view .LVU113
 489 000e 1870     		strb	r0, [r3]
 381:Drivers/STM32H5xx_HAL_Driver/Src/stm32h5xx_hal.c ****     if (status != HAL_OK)
 490              		.loc 1 381 5 is_stmt 1 view .LVU114
 381:Drivers/STM32H5xx_HAL_Driver/Src/stm32h5xx_hal.c ****     if (status != HAL_OK)
 491              		.loc 1 381 14 is_stmt 0 view .LVU115
 492 0010 054B     		ldr	r3, .L40+4
 493 0012 1868     		ldr	r0, [r3]
 494              	.LVL25:
 381:Drivers/STM32H5xx_HAL_Driver/Src/stm32h5xx_hal.c ****     if (status != HAL_OK)
 495              		.loc 1 381 14 view .LVU116
 496 0014 FFF7FEFF 		bl	HAL_InitTick
 497              	.LVL26:
 382:Drivers/STM32H5xx_HAL_Driver/Src/stm32h5xx_hal.c ****     {
 498              		.loc 1 382 5 is_stmt 1 view .LVU117
 382:Drivers/STM32H5xx_HAL_Driver/Src/stm32h5xx_hal.c ****     {
 499              		.loc 1 382 8 is_stmt 0 view .LVU118
 500 0018 0028     		cmp	r0, #0
 501 001a F7D0     		beq	.L36
 385:Drivers/STM32H5xx_HAL_Driver/Src/stm32h5xx_hal.c ****     }
 502              		.loc 1 385 7 is_stmt 1 view .LVU119
 385:Drivers/STM32H5xx_HAL_Driver/Src/stm32h5xx_hal.c ****     }
 503              		.loc 1 385 18 is_stmt 0 view .LVU120
 504 001c 014B     		ldr	r3, .L40
 505 001e 1C70     		strb	r4, [r3]
 506 0020 F4E7     		b	.L36
 507              	.L41:
 508 0022 00BF     		.align	2
 509              	.L40:
 510 0024 00000000 		.word	uwTickFreq
 511 0028 00000000 		.word	uwTickPrio
 512              		.cfi_endproc
 513              	.LFE168:
 515              		.section	.text.HAL_GetTickFreq,"ax",%progbits
 516              		.align	1
 517              		.global	HAL_GetTickFreq
 518              		.syntax unified
 519              		.thumb
 520              		.thumb_func
 522              	HAL_GetTickFreq:
 523              	.LFB169:
 391:Drivers/STM32H5xx_HAL_Driver/Src/stm32h5xx_hal.c **** 
 392:Drivers/STM32H5xx_HAL_Driver/Src/stm32h5xx_hal.c **** /**
 393:Drivers/STM32H5xx_HAL_Driver/Src/stm32h5xx_hal.c ****   * @brief Return tick frequency.
 394:Drivers/STM32H5xx_HAL_Driver/Src/stm32h5xx_hal.c ****   * @retval Tick frequency.
ARM GAS  C:\Users\sapph\AppData\Local\Temp\ccmhtm3h.s 			page 18


 395:Drivers/STM32H5xx_HAL_Driver/Src/stm32h5xx_hal.c ****   *         Value of @ref HAL_TickFreqTypeDef.
 396:Drivers/STM32H5xx_HAL_Driver/Src/stm32h5xx_hal.c ****   */
 397:Drivers/STM32H5xx_HAL_Driver/Src/stm32h5xx_hal.c **** HAL_TickFreqTypeDef HAL_GetTickFreq(void)
 398:Drivers/STM32H5xx_HAL_Driver/Src/stm32h5xx_hal.c **** {
 524              		.loc 1 398 1 is_stmt 1 view -0
 525              		.cfi_startproc
 526              		@ args = 0, pretend = 0, frame = 0
 527              		@ frame_needed = 0, uses_anonymous_args = 0
 528              		@ link register save eliminated.
 399:Drivers/STM32H5xx_HAL_Driver/Src/stm32h5xx_hal.c ****   return uwTickFreq;
 529              		.loc 1 399 3 view .LVU122
 400:Drivers/STM32H5xx_HAL_Driver/Src/stm32h5xx_hal.c **** }
 530              		.loc 1 400 1 is_stmt 0 view .LVU123
 531 0000 014B     		ldr	r3, .L43
 532 0002 1878     		ldrb	r0, [r3]	@ zero_extendqisi2
 533 0004 7047     		bx	lr
 534              	.L44:
 535 0006 00BF     		.align	2
 536              	.L43:
 537 0008 00000000 		.word	uwTickFreq
 538              		.cfi_endproc
 539              	.LFE169:
 541              		.section	.text.HAL_Delay,"ax",%progbits
 542              		.align	1
 543              		.weak	HAL_Delay
 544              		.syntax unified
 545              		.thumb
 546              		.thumb_func
 548              	HAL_Delay:
 549              	.LVL27:
 550              	.LFB170:
 401:Drivers/STM32H5xx_HAL_Driver/Src/stm32h5xx_hal.c **** 
 402:Drivers/STM32H5xx_HAL_Driver/Src/stm32h5xx_hal.c **** /**
 403:Drivers/STM32H5xx_HAL_Driver/Src/stm32h5xx_hal.c ****   * @brief This function provides minimum delay (in milliseconds) based
 404:Drivers/STM32H5xx_HAL_Driver/Src/stm32h5xx_hal.c ****   *        on variable incremented.
 405:Drivers/STM32H5xx_HAL_Driver/Src/stm32h5xx_hal.c ****   * @note In the default implementation , SysTick timer is the source of time base.
 406:Drivers/STM32H5xx_HAL_Driver/Src/stm32h5xx_hal.c ****   *       It is used to generate interrupts at regular time intervals where uwTick
 407:Drivers/STM32H5xx_HAL_Driver/Src/stm32h5xx_hal.c ****   *       is incremented.
 408:Drivers/STM32H5xx_HAL_Driver/Src/stm32h5xx_hal.c ****   * @note This function is declared as __weak to be overwritten in case of other
 409:Drivers/STM32H5xx_HAL_Driver/Src/stm32h5xx_hal.c ****   *       implementations in user file.
 410:Drivers/STM32H5xx_HAL_Driver/Src/stm32h5xx_hal.c ****   * @param Delay  specifies the delay time length, in milliseconds.
 411:Drivers/STM32H5xx_HAL_Driver/Src/stm32h5xx_hal.c ****   * @retval None
 412:Drivers/STM32H5xx_HAL_Driver/Src/stm32h5xx_hal.c ****   */
 413:Drivers/STM32H5xx_HAL_Driver/Src/stm32h5xx_hal.c **** __weak void HAL_Delay(uint32_t Delay)
 414:Drivers/STM32H5xx_HAL_Driver/Src/stm32h5xx_hal.c **** {
 551              		.loc 1 414 1 is_stmt 1 view -0
 552              		.cfi_startproc
 553              		@ args = 0, pretend = 0, frame = 0
 554              		@ frame_needed = 0, uses_anonymous_args = 0
 555              		.loc 1 414 1 is_stmt 0 view .LVU125
 556 0000 38B5     		push	{r3, r4, r5, lr}
 557              		.cfi_def_cfa_offset 16
 558              		.cfi_offset 3, -16
 559              		.cfi_offset 4, -12
 560              		.cfi_offset 5, -8
 561              		.cfi_offset 14, -4
 562 0002 0446     		mov	r4, r0
ARM GAS  C:\Users\sapph\AppData\Local\Temp\ccmhtm3h.s 			page 19


 415:Drivers/STM32H5xx_HAL_Driver/Src/stm32h5xx_hal.c ****   uint32_t tickstart = HAL_GetTick();
 563              		.loc 1 415 3 is_stmt 1 view .LVU126
 564              		.loc 1 415 24 is_stmt 0 view .LVU127
 565 0004 FFF7FEFF 		bl	HAL_GetTick
 566              	.LVL28:
 567              		.loc 1 415 24 view .LVU128
 568 0008 0546     		mov	r5, r0
 569              	.LVL29:
 416:Drivers/STM32H5xx_HAL_Driver/Src/stm32h5xx_hal.c ****   uint32_t wait = Delay;
 570              		.loc 1 416 3 is_stmt 1 view .LVU129
 417:Drivers/STM32H5xx_HAL_Driver/Src/stm32h5xx_hal.c **** 
 418:Drivers/STM32H5xx_HAL_Driver/Src/stm32h5xx_hal.c ****   /* Add a freq to guarantee minimum wait */
 419:Drivers/STM32H5xx_HAL_Driver/Src/stm32h5xx_hal.c ****   if (wait < HAL_MAX_DELAY)
 571              		.loc 1 419 3 view .LVU130
 572              		.loc 1 419 6 is_stmt 0 view .LVU131
 573 000a B4F1FF3F 		cmp	r4, #-1
 574 000e 02D0     		beq	.L47
 420:Drivers/STM32H5xx_HAL_Driver/Src/stm32h5xx_hal.c ****   {
 421:Drivers/STM32H5xx_HAL_Driver/Src/stm32h5xx_hal.c ****     wait += (uint32_t)(uwTickFreq);
 575              		.loc 1 421 5 is_stmt 1 view .LVU132
 576              		.loc 1 421 13 is_stmt 0 view .LVU133
 577 0010 044B     		ldr	r3, .L49
 578 0012 1B78     		ldrb	r3, [r3]	@ zero_extendqisi2
 579              		.loc 1 421 10 view .LVU134
 580 0014 1C44     		add	r4, r4, r3
 581              	.LVL30:
 582              	.L47:
 422:Drivers/STM32H5xx_HAL_Driver/Src/stm32h5xx_hal.c ****   }
 423:Drivers/STM32H5xx_HAL_Driver/Src/stm32h5xx_hal.c **** 
 424:Drivers/STM32H5xx_HAL_Driver/Src/stm32h5xx_hal.c ****   while ((HAL_GetTick() - tickstart) < wait)
 425:Drivers/STM32H5xx_HAL_Driver/Src/stm32h5xx_hal.c ****   {
 426:Drivers/STM32H5xx_HAL_Driver/Src/stm32h5xx_hal.c ****   }
 583              		.loc 1 426 3 is_stmt 1 view .LVU135
 424:Drivers/STM32H5xx_HAL_Driver/Src/stm32h5xx_hal.c ****   {
 584              		.loc 1 424 38 discriminator 1 view .LVU136
 424:Drivers/STM32H5xx_HAL_Driver/Src/stm32h5xx_hal.c ****   {
 585              		.loc 1 424 11 is_stmt 0 discriminator 1 view .LVU137
 586 0016 FFF7FEFF 		bl	HAL_GetTick
 587              	.LVL31:
 424:Drivers/STM32H5xx_HAL_Driver/Src/stm32h5xx_hal.c ****   {
 588              		.loc 1 424 25 discriminator 1 view .LVU138
 589 001a 401B     		subs	r0, r0, r5
 424:Drivers/STM32H5xx_HAL_Driver/Src/stm32h5xx_hal.c ****   {
 590              		.loc 1 424 38 discriminator 1 view .LVU139
 591 001c A042     		cmp	r0, r4
 592 001e FAD3     		bcc	.L47
 427:Drivers/STM32H5xx_HAL_Driver/Src/stm32h5xx_hal.c **** }
 593              		.loc 1 427 1 view .LVU140
 594 0020 38BD     		pop	{r3, r4, r5, pc}
 595              	.LVL32:
 596              	.L50:
 597              		.loc 1 427 1 view .LVU141
 598 0022 00BF     		.align	2
 599              	.L49:
 600 0024 00000000 		.word	uwTickFreq
 601              		.cfi_endproc
 602              	.LFE170:
ARM GAS  C:\Users\sapph\AppData\Local\Temp\ccmhtm3h.s 			page 20


 604              		.section	.text.HAL_SuspendTick,"ax",%progbits
 605              		.align	1
 606              		.weak	HAL_SuspendTick
 607              		.syntax unified
 608              		.thumb
 609              		.thumb_func
 611              	HAL_SuspendTick:
 612              	.LFB171:
 428:Drivers/STM32H5xx_HAL_Driver/Src/stm32h5xx_hal.c **** 
 429:Drivers/STM32H5xx_HAL_Driver/Src/stm32h5xx_hal.c **** /**
 430:Drivers/STM32H5xx_HAL_Driver/Src/stm32h5xx_hal.c ****   * @brief Suspend Tick increment.
 431:Drivers/STM32H5xx_HAL_Driver/Src/stm32h5xx_hal.c ****   * @note In the default implementation , SysTick timer is the source of time base. It is
 432:Drivers/STM32H5xx_HAL_Driver/Src/stm32h5xx_hal.c ****   *       used to generate interrupts at regular time intervals. Once HAL_SuspendTick()
 433:Drivers/STM32H5xx_HAL_Driver/Src/stm32h5xx_hal.c ****   *       is called, the SysTick interrupt will be disabled and so Tick increment
 434:Drivers/STM32H5xx_HAL_Driver/Src/stm32h5xx_hal.c ****   *       is suspended.
 435:Drivers/STM32H5xx_HAL_Driver/Src/stm32h5xx_hal.c ****   * @note This function is declared as __weak to be overwritten in case of other
 436:Drivers/STM32H5xx_HAL_Driver/Src/stm32h5xx_hal.c ****   *       implementations in user file.
 437:Drivers/STM32H5xx_HAL_Driver/Src/stm32h5xx_hal.c ****   * @retval None
 438:Drivers/STM32H5xx_HAL_Driver/Src/stm32h5xx_hal.c ****   */
 439:Drivers/STM32H5xx_HAL_Driver/Src/stm32h5xx_hal.c **** __weak void HAL_SuspendTick(void)
 440:Drivers/STM32H5xx_HAL_Driver/Src/stm32h5xx_hal.c **** {
 613              		.loc 1 440 1 is_stmt 1 view -0
 614              		.cfi_startproc
 615              		@ args = 0, pretend = 0, frame = 0
 616              		@ frame_needed = 0, uses_anonymous_args = 0
 617              		@ link register save eliminated.
 441:Drivers/STM32H5xx_HAL_Driver/Src/stm32h5xx_hal.c ****   /* Disable SysTick Interrupt */
 442:Drivers/STM32H5xx_HAL_Driver/Src/stm32h5xx_hal.c ****   SysTick->CTRL &= ~SysTick_CTRL_TICKINT_Msk;
 618              		.loc 1 442 3 view .LVU143
 619              		.loc 1 442 10 is_stmt 0 view .LVU144
 620 0000 4FF0E022 		mov	r2, #-536813568
 621 0004 1369     		ldr	r3, [r2, #16]
 622              		.loc 1 442 17 view .LVU145
 623 0006 23F00203 		bic	r3, r3, #2
 624 000a 1361     		str	r3, [r2, #16]
 443:Drivers/STM32H5xx_HAL_Driver/Src/stm32h5xx_hal.c **** }
 625              		.loc 1 443 1 view .LVU146
 626 000c 7047     		bx	lr
 627              		.cfi_endproc
 628              	.LFE171:
 630              		.section	.text.HAL_ResumeTick,"ax",%progbits
 631              		.align	1
 632              		.weak	HAL_ResumeTick
 633              		.syntax unified
 634              		.thumb
 635              		.thumb_func
 637              	HAL_ResumeTick:
 638              	.LFB172:
 444:Drivers/STM32H5xx_HAL_Driver/Src/stm32h5xx_hal.c **** 
 445:Drivers/STM32H5xx_HAL_Driver/Src/stm32h5xx_hal.c **** /**
 446:Drivers/STM32H5xx_HAL_Driver/Src/stm32h5xx_hal.c ****   * @brief Resume Tick increment.
 447:Drivers/STM32H5xx_HAL_Driver/Src/stm32h5xx_hal.c ****   * @note In the default implementation , SysTick timer is the source of time base. It is
 448:Drivers/STM32H5xx_HAL_Driver/Src/stm32h5xx_hal.c ****   *       used to generate interrupts at regular time intervals. Once HAL_ResumeTick()
 449:Drivers/STM32H5xx_HAL_Driver/Src/stm32h5xx_hal.c ****   *       is called, the SysTick interrupt will be enabled and so Tick increment
 450:Drivers/STM32H5xx_HAL_Driver/Src/stm32h5xx_hal.c ****   *       is resumed.
 451:Drivers/STM32H5xx_HAL_Driver/Src/stm32h5xx_hal.c ****   * @note This function is declared as __weak to be overwritten in case of other
 452:Drivers/STM32H5xx_HAL_Driver/Src/stm32h5xx_hal.c ****   *       implementations in user file.
ARM GAS  C:\Users\sapph\AppData\Local\Temp\ccmhtm3h.s 			page 21


 453:Drivers/STM32H5xx_HAL_Driver/Src/stm32h5xx_hal.c ****   * @retval None
 454:Drivers/STM32H5xx_HAL_Driver/Src/stm32h5xx_hal.c ****   */
 455:Drivers/STM32H5xx_HAL_Driver/Src/stm32h5xx_hal.c **** __weak void HAL_ResumeTick(void)
 456:Drivers/STM32H5xx_HAL_Driver/Src/stm32h5xx_hal.c **** {
 639              		.loc 1 456 1 is_stmt 1 view -0
 640              		.cfi_startproc
 641              		@ args = 0, pretend = 0, frame = 0
 642              		@ frame_needed = 0, uses_anonymous_args = 0
 643              		@ link register save eliminated.
 457:Drivers/STM32H5xx_HAL_Driver/Src/stm32h5xx_hal.c ****   /* Enable SysTick Interrupt */
 458:Drivers/STM32H5xx_HAL_Driver/Src/stm32h5xx_hal.c ****   SysTick->CTRL  |= SysTick_CTRL_TICKINT_Msk;
 644              		.loc 1 458 3 view .LVU148
 645              		.loc 1 458 10 is_stmt 0 view .LVU149
 646 0000 4FF0E022 		mov	r2, #-536813568
 647 0004 1369     		ldr	r3, [r2, #16]
 648              		.loc 1 458 18 view .LVU150
 649 0006 43F00203 		orr	r3, r3, #2
 650 000a 1361     		str	r3, [r2, #16]
 459:Drivers/STM32H5xx_HAL_Driver/Src/stm32h5xx_hal.c **** }
 651              		.loc 1 459 1 view .LVU151
 652 000c 7047     		bx	lr
 653              		.cfi_endproc
 654              	.LFE172:
 656              		.section	.text.HAL_GetHalVersion,"ax",%progbits
 657              		.align	1
 658              		.global	HAL_GetHalVersion
 659              		.syntax unified
 660              		.thumb
 661              		.thumb_func
 663              	HAL_GetHalVersion:
 664              	.LFB173:
 460:Drivers/STM32H5xx_HAL_Driver/Src/stm32h5xx_hal.c **** 
 461:Drivers/STM32H5xx_HAL_Driver/Src/stm32h5xx_hal.c **** /**
 462:Drivers/STM32H5xx_HAL_Driver/Src/stm32h5xx_hal.c ****   * @brief  Returns the HAL revision
 463:Drivers/STM32H5xx_HAL_Driver/Src/stm32h5xx_hal.c ****   * @retval version : 0xXYZR (8bits for each decimal, R for RC)
 464:Drivers/STM32H5xx_HAL_Driver/Src/stm32h5xx_hal.c ****   */
 465:Drivers/STM32H5xx_HAL_Driver/Src/stm32h5xx_hal.c **** uint32_t HAL_GetHalVersion(void)
 466:Drivers/STM32H5xx_HAL_Driver/Src/stm32h5xx_hal.c **** {
 665              		.loc 1 466 1 is_stmt 1 view -0
 666              		.cfi_startproc
 667              		@ args = 0, pretend = 0, frame = 0
 668              		@ frame_needed = 0, uses_anonymous_args = 0
 669              		@ link register save eliminated.
 467:Drivers/STM32H5xx_HAL_Driver/Src/stm32h5xx_hal.c ****   return __STM32H5XX_HAL_VERSION;
 670              		.loc 1 467 3 view .LVU153
 468:Drivers/STM32H5xx_HAL_Driver/Src/stm32h5xx_hal.c **** }
 671              		.loc 1 468 1 is_stmt 0 view .LVU154
 672 0000 0048     		ldr	r0, .L54
 673 0002 7047     		bx	lr
 674              	.L55:
 675              		.align	2
 676              	.L54:
 677 0004 00000301 		.word	16973824
 678              		.cfi_endproc
 679              	.LFE173:
 681              		.section	.text.HAL_GetREVID,"ax",%progbits
 682              		.align	1
ARM GAS  C:\Users\sapph\AppData\Local\Temp\ccmhtm3h.s 			page 22


 683              		.global	HAL_GetREVID
 684              		.syntax unified
 685              		.thumb
 686              		.thumb_func
 688              	HAL_GetREVID:
 689              	.LFB174:
 469:Drivers/STM32H5xx_HAL_Driver/Src/stm32h5xx_hal.c **** 
 470:Drivers/STM32H5xx_HAL_Driver/Src/stm32h5xx_hal.c **** /**
 471:Drivers/STM32H5xx_HAL_Driver/Src/stm32h5xx_hal.c ****   * @brief  Returns the device revision identifier.
 472:Drivers/STM32H5xx_HAL_Driver/Src/stm32h5xx_hal.c ****   * @retval Device revision identifier
 473:Drivers/STM32H5xx_HAL_Driver/Src/stm32h5xx_hal.c ****   */
 474:Drivers/STM32H5xx_HAL_Driver/Src/stm32h5xx_hal.c **** uint32_t HAL_GetREVID(void)
 475:Drivers/STM32H5xx_HAL_Driver/Src/stm32h5xx_hal.c **** {
 690              		.loc 1 475 1 is_stmt 1 view -0
 691              		.cfi_startproc
 692              		@ args = 0, pretend = 0, frame = 0
 693              		@ frame_needed = 0, uses_anonymous_args = 0
 694              		@ link register save eliminated.
 476:Drivers/STM32H5xx_HAL_Driver/Src/stm32h5xx_hal.c ****   return ((DBGMCU->IDCODE & DBGMCU_IDCODE_REV_ID) >> 16);
 695              		.loc 1 476 3 view .LVU156
 696              		.loc 1 476 18 is_stmt 0 view .LVU157
 697 0000 014B     		ldr	r3, .L57
 698 0002 1868     		ldr	r0, [r3]
 477:Drivers/STM32H5xx_HAL_Driver/Src/stm32h5xx_hal.c **** }
 699              		.loc 1 477 1 view .LVU158
 700 0004 000C     		lsrs	r0, r0, #16
 701 0006 7047     		bx	lr
 702              	.L58:
 703              		.align	2
 704              	.L57:
 705 0008 00400244 		.word	1140998144
 706              		.cfi_endproc
 707              	.LFE174:
 709              		.section	.text.HAL_GetDEVID,"ax",%progbits
 710              		.align	1
 711              		.global	HAL_GetDEVID
 712              		.syntax unified
 713              		.thumb
 714              		.thumb_func
 716              	HAL_GetDEVID:
 717              	.LFB175:
 478:Drivers/STM32H5xx_HAL_Driver/Src/stm32h5xx_hal.c **** 
 479:Drivers/STM32H5xx_HAL_Driver/Src/stm32h5xx_hal.c **** /**
 480:Drivers/STM32H5xx_HAL_Driver/Src/stm32h5xx_hal.c ****   * @brief  Returns the device identifier.
 481:Drivers/STM32H5xx_HAL_Driver/Src/stm32h5xx_hal.c ****   * @retval Device identifier
 482:Drivers/STM32H5xx_HAL_Driver/Src/stm32h5xx_hal.c ****   */
 483:Drivers/STM32H5xx_HAL_Driver/Src/stm32h5xx_hal.c **** uint32_t HAL_GetDEVID(void)
 484:Drivers/STM32H5xx_HAL_Driver/Src/stm32h5xx_hal.c **** {
 718              		.loc 1 484 1 is_stmt 1 view -0
 719              		.cfi_startproc
 720              		@ args = 0, pretend = 0, frame = 0
 721              		@ frame_needed = 0, uses_anonymous_args = 0
 722              		@ link register save eliminated.
 485:Drivers/STM32H5xx_HAL_Driver/Src/stm32h5xx_hal.c ****   return (DBGMCU->IDCODE & DBGMCU_IDCODE_DEV_ID);
 723              		.loc 1 485 3 view .LVU160
 724              		.loc 1 485 17 is_stmt 0 view .LVU161
 725 0000 024B     		ldr	r3, .L60
ARM GAS  C:\Users\sapph\AppData\Local\Temp\ccmhtm3h.s 			page 23


 726 0002 1868     		ldr	r0, [r3]
 486:Drivers/STM32H5xx_HAL_Driver/Src/stm32h5xx_hal.c **** }
 727              		.loc 1 486 1 view .LVU162
 728 0004 C0F30B00 		ubfx	r0, r0, #0, #12
 729 0008 7047     		bx	lr
 730              	.L61:
 731 000a 00BF     		.align	2
 732              	.L60:
 733 000c 00400244 		.word	1140998144
 734              		.cfi_endproc
 735              	.LFE175:
 737              		.section	.text.HAL_GetUIDw0,"ax",%progbits
 738              		.align	1
 739              		.global	HAL_GetUIDw0
 740              		.syntax unified
 741              		.thumb
 742              		.thumb_func
 744              	HAL_GetUIDw0:
 745              	.LFB176:
 487:Drivers/STM32H5xx_HAL_Driver/Src/stm32h5xx_hal.c **** 
 488:Drivers/STM32H5xx_HAL_Driver/Src/stm32h5xx_hal.c **** /**
 489:Drivers/STM32H5xx_HAL_Driver/Src/stm32h5xx_hal.c ****   * @brief  Return the first word of the unique device identifier (UID based on 96 bits)
 490:Drivers/STM32H5xx_HAL_Driver/Src/stm32h5xx_hal.c ****   * @retval Device identifier
 491:Drivers/STM32H5xx_HAL_Driver/Src/stm32h5xx_hal.c ****   */
 492:Drivers/STM32H5xx_HAL_Driver/Src/stm32h5xx_hal.c **** uint32_t HAL_GetUIDw0(void)
 493:Drivers/STM32H5xx_HAL_Driver/Src/stm32h5xx_hal.c **** {
 746              		.loc 1 493 1 is_stmt 1 view -0
 747              		.cfi_startproc
 748              		@ args = 0, pretend = 0, frame = 0
 749              		@ frame_needed = 0, uses_anonymous_args = 0
 750              		@ link register save eliminated.
 494:Drivers/STM32H5xx_HAL_Driver/Src/stm32h5xx_hal.c ****   return (READ_REG(*((uint32_t *)UID_BASE)));
 751              		.loc 1 494 3 view .LVU164
 495:Drivers/STM32H5xx_HAL_Driver/Src/stm32h5xx_hal.c **** }
 752              		.loc 1 495 1 is_stmt 0 view .LVU165
 753 0000 014B     		ldr	r3, .L63
 754 0002 D3F80008 		ldr	r0, [r3, #2048]
 755 0006 7047     		bx	lr
 756              	.L64:
 757              		.align	2
 758              	.L63:
 759 0008 00F0FF08 		.word	150990848
 760              		.cfi_endproc
 761              	.LFE176:
 763              		.section	.text.HAL_GetUIDw1,"ax",%progbits
 764              		.align	1
 765              		.global	HAL_GetUIDw1
 766              		.syntax unified
 767              		.thumb
 768              		.thumb_func
 770              	HAL_GetUIDw1:
 771              	.LFB177:
 496:Drivers/STM32H5xx_HAL_Driver/Src/stm32h5xx_hal.c **** 
 497:Drivers/STM32H5xx_HAL_Driver/Src/stm32h5xx_hal.c **** /**
 498:Drivers/STM32H5xx_HAL_Driver/Src/stm32h5xx_hal.c ****   * @brief  Return the second word of the unique device identifier (UID based on 96 bits)
 499:Drivers/STM32H5xx_HAL_Driver/Src/stm32h5xx_hal.c ****   * @retval Device identifier
 500:Drivers/STM32H5xx_HAL_Driver/Src/stm32h5xx_hal.c ****   */
ARM GAS  C:\Users\sapph\AppData\Local\Temp\ccmhtm3h.s 			page 24


 501:Drivers/STM32H5xx_HAL_Driver/Src/stm32h5xx_hal.c **** uint32_t HAL_GetUIDw1(void)
 502:Drivers/STM32H5xx_HAL_Driver/Src/stm32h5xx_hal.c **** {
 772              		.loc 1 502 1 is_stmt 1 view -0
 773              		.cfi_startproc
 774              		@ args = 0, pretend = 0, frame = 0
 775              		@ frame_needed = 0, uses_anonymous_args = 0
 776              		@ link register save eliminated.
 503:Drivers/STM32H5xx_HAL_Driver/Src/stm32h5xx_hal.c ****   return (READ_REG(*((uint32_t *)(UID_BASE + 4U))));
 777              		.loc 1 503 3 view .LVU167
 504:Drivers/STM32H5xx_HAL_Driver/Src/stm32h5xx_hal.c **** }
 778              		.loc 1 504 1 is_stmt 0 view .LVU168
 779 0000 014B     		ldr	r3, .L66
 780 0002 D3F80408 		ldr	r0, [r3, #2052]
 781 0006 7047     		bx	lr
 782              	.L67:
 783              		.align	2
 784              	.L66:
 785 0008 00F0FF08 		.word	150990848
 786              		.cfi_endproc
 787              	.LFE177:
 789              		.section	.text.HAL_GetUIDw2,"ax",%progbits
 790              		.align	1
 791              		.global	HAL_GetUIDw2
 792              		.syntax unified
 793              		.thumb
 794              		.thumb_func
 796              	HAL_GetUIDw2:
 797              	.LFB178:
 505:Drivers/STM32H5xx_HAL_Driver/Src/stm32h5xx_hal.c **** 
 506:Drivers/STM32H5xx_HAL_Driver/Src/stm32h5xx_hal.c **** /**
 507:Drivers/STM32H5xx_HAL_Driver/Src/stm32h5xx_hal.c ****   * @brief  Return the third word of the unique device identifier (UID based on 96 bits)
 508:Drivers/STM32H5xx_HAL_Driver/Src/stm32h5xx_hal.c ****   * @retval Device identifier
 509:Drivers/STM32H5xx_HAL_Driver/Src/stm32h5xx_hal.c ****   */
 510:Drivers/STM32H5xx_HAL_Driver/Src/stm32h5xx_hal.c **** uint32_t HAL_GetUIDw2(void)
 511:Drivers/STM32H5xx_HAL_Driver/Src/stm32h5xx_hal.c **** {
 798              		.loc 1 511 1 is_stmt 1 view -0
 799              		.cfi_startproc
 800              		@ args = 0, pretend = 0, frame = 0
 801              		@ frame_needed = 0, uses_anonymous_args = 0
 802              		@ link register save eliminated.
 512:Drivers/STM32H5xx_HAL_Driver/Src/stm32h5xx_hal.c ****   return (READ_REG(*((uint32_t *)(UID_BASE + 8U))));
 803              		.loc 1 512 3 view .LVU170
 513:Drivers/STM32H5xx_HAL_Driver/Src/stm32h5xx_hal.c **** }
 804              		.loc 1 513 1 is_stmt 0 view .LVU171
 805 0000 014B     		ldr	r3, .L69
 806 0002 D3F80808 		ldr	r0, [r3, #2056]
 807 0006 7047     		bx	lr
 808              	.L70:
 809              		.align	2
 810              	.L69:
 811 0008 00F0FF08 		.word	150990848
 812              		.cfi_endproc
 813              	.LFE178:
 815              		.section	.text.HAL_DBGMCU_EnableDBGStopMode,"ax",%progbits
 816              		.align	1
 817              		.global	HAL_DBGMCU_EnableDBGStopMode
 818              		.syntax unified
ARM GAS  C:\Users\sapph\AppData\Local\Temp\ccmhtm3h.s 			page 25


 819              		.thumb
 820              		.thumb_func
 822              	HAL_DBGMCU_EnableDBGStopMode:
 823              	.LFB179:
 514:Drivers/STM32H5xx_HAL_Driver/Src/stm32h5xx_hal.c **** 
 515:Drivers/STM32H5xx_HAL_Driver/Src/stm32h5xx_hal.c **** /**
 516:Drivers/STM32H5xx_HAL_Driver/Src/stm32h5xx_hal.c ****   * @}
 517:Drivers/STM32H5xx_HAL_Driver/Src/stm32h5xx_hal.c ****   */
 518:Drivers/STM32H5xx_HAL_Driver/Src/stm32h5xx_hal.c **** 
 519:Drivers/STM32H5xx_HAL_Driver/Src/stm32h5xx_hal.c **** 
 520:Drivers/STM32H5xx_HAL_Driver/Src/stm32h5xx_hal.c **** /** @defgroup HAL_Exported_Functions_Group3 HAL Debug functions
 521:Drivers/STM32H5xx_HAL_Driver/Src/stm32h5xx_hal.c ****   *  @brief    HAL Debug functions
 522:Drivers/STM32H5xx_HAL_Driver/Src/stm32h5xx_hal.c ****   *
 523:Drivers/STM32H5xx_HAL_Driver/Src/stm32h5xx_hal.c **** @verbatim
 524:Drivers/STM32H5xx_HAL_Driver/Src/stm32h5xx_hal.c ****  ==================================================================================================
 525:Drivers/STM32H5xx_HAL_Driver/Src/stm32h5xx_hal.c ****                                        ##### HAL Debug functions #####
 526:Drivers/STM32H5xx_HAL_Driver/Src/stm32h5xx_hal.c ****  ==================================================================================================
 527:Drivers/STM32H5xx_HAL_Driver/Src/stm32h5xx_hal.c ****     [..]  This section provides functions allowing to:
 528:Drivers/STM32H5xx_HAL_Driver/Src/stm32h5xx_hal.c ****       (+) Enable/Disable Debug module during STOP mode
 529:Drivers/STM32H5xx_HAL_Driver/Src/stm32h5xx_hal.c ****       (+) Enable/Disable Debug module during STANDBY mode
 530:Drivers/STM32H5xx_HAL_Driver/Src/stm32h5xx_hal.c **** 
 531:Drivers/STM32H5xx_HAL_Driver/Src/stm32h5xx_hal.c **** @endverbatim
 532:Drivers/STM32H5xx_HAL_Driver/Src/stm32h5xx_hal.c ****   * @{
 533:Drivers/STM32H5xx_HAL_Driver/Src/stm32h5xx_hal.c ****   */
 534:Drivers/STM32H5xx_HAL_Driver/Src/stm32h5xx_hal.c **** 
 535:Drivers/STM32H5xx_HAL_Driver/Src/stm32h5xx_hal.c **** /**
 536:Drivers/STM32H5xx_HAL_Driver/Src/stm32h5xx_hal.c ****   * @brief  Enable the Debug Module during STOP mode.
 537:Drivers/STM32H5xx_HAL_Driver/Src/stm32h5xx_hal.c ****   * @retval None
 538:Drivers/STM32H5xx_HAL_Driver/Src/stm32h5xx_hal.c ****   */
 539:Drivers/STM32H5xx_HAL_Driver/Src/stm32h5xx_hal.c **** void HAL_DBGMCU_EnableDBGStopMode(void)
 540:Drivers/STM32H5xx_HAL_Driver/Src/stm32h5xx_hal.c **** {
 824              		.loc 1 540 1 is_stmt 1 view -0
 825              		.cfi_startproc
 826              		@ args = 0, pretend = 0, frame = 0
 827              		@ frame_needed = 0, uses_anonymous_args = 0
 828              		@ link register save eliminated.
 541:Drivers/STM32H5xx_HAL_Driver/Src/stm32h5xx_hal.c ****   SET_BIT(DBGMCU->CR, DBGMCU_CR_DBG_STOP);
 829              		.loc 1 541 3 view .LVU173
 830 0000 024A     		ldr	r2, .L72
 831 0002 5368     		ldr	r3, [r2, #4]
 832 0004 43F00203 		orr	r3, r3, #2
 833 0008 5360     		str	r3, [r2, #4]
 542:Drivers/STM32H5xx_HAL_Driver/Src/stm32h5xx_hal.c **** }
 834              		.loc 1 542 1 is_stmt 0 view .LVU174
 835 000a 7047     		bx	lr
 836              	.L73:
 837              		.align	2
 838              	.L72:
 839 000c 00400244 		.word	1140998144
 840              		.cfi_endproc
 841              	.LFE179:
 843              		.section	.text.HAL_DBGMCU_DisableDBGStopMode,"ax",%progbits
 844              		.align	1
 845              		.global	HAL_DBGMCU_DisableDBGStopMode
 846              		.syntax unified
 847              		.thumb
 848              		.thumb_func
ARM GAS  C:\Users\sapph\AppData\Local\Temp\ccmhtm3h.s 			page 26


 850              	HAL_DBGMCU_DisableDBGStopMode:
 851              	.LFB180:
 543:Drivers/STM32H5xx_HAL_Driver/Src/stm32h5xx_hal.c **** 
 544:Drivers/STM32H5xx_HAL_Driver/Src/stm32h5xx_hal.c **** /**
 545:Drivers/STM32H5xx_HAL_Driver/Src/stm32h5xx_hal.c ****   * @brief  Disable the Debug Module during STOP mode.
 546:Drivers/STM32H5xx_HAL_Driver/Src/stm32h5xx_hal.c ****   * @retval None
 547:Drivers/STM32H5xx_HAL_Driver/Src/stm32h5xx_hal.c ****   */
 548:Drivers/STM32H5xx_HAL_Driver/Src/stm32h5xx_hal.c **** void HAL_DBGMCU_DisableDBGStopMode(void)
 549:Drivers/STM32H5xx_HAL_Driver/Src/stm32h5xx_hal.c **** {
 852              		.loc 1 549 1 is_stmt 1 view -0
 853              		.cfi_startproc
 854              		@ args = 0, pretend = 0, frame = 0
 855              		@ frame_needed = 0, uses_anonymous_args = 0
 856              		@ link register save eliminated.
 550:Drivers/STM32H5xx_HAL_Driver/Src/stm32h5xx_hal.c ****   CLEAR_BIT(DBGMCU->CR, DBGMCU_CR_DBG_STOP);
 857              		.loc 1 550 3 view .LVU176
 858 0000 024A     		ldr	r2, .L75
 859 0002 5368     		ldr	r3, [r2, #4]
 860 0004 23F00203 		bic	r3, r3, #2
 861 0008 5360     		str	r3, [r2, #4]
 551:Drivers/STM32H5xx_HAL_Driver/Src/stm32h5xx_hal.c **** }
 862              		.loc 1 551 1 is_stmt 0 view .LVU177
 863 000a 7047     		bx	lr
 864              	.L76:
 865              		.align	2
 866              	.L75:
 867 000c 00400244 		.word	1140998144
 868              		.cfi_endproc
 869              	.LFE180:
 871              		.section	.text.HAL_DBGMCU_EnableDBGStandbyMode,"ax",%progbits
 872              		.align	1
 873              		.global	HAL_DBGMCU_EnableDBGStandbyMode
 874              		.syntax unified
 875              		.thumb
 876              		.thumb_func
 878              	HAL_DBGMCU_EnableDBGStandbyMode:
 879              	.LFB181:
 552:Drivers/STM32H5xx_HAL_Driver/Src/stm32h5xx_hal.c **** 
 553:Drivers/STM32H5xx_HAL_Driver/Src/stm32h5xx_hal.c **** /**
 554:Drivers/STM32H5xx_HAL_Driver/Src/stm32h5xx_hal.c ****   * @brief  Enable the Debug Module during STANDBY mode.
 555:Drivers/STM32H5xx_HAL_Driver/Src/stm32h5xx_hal.c ****   * @retval None
 556:Drivers/STM32H5xx_HAL_Driver/Src/stm32h5xx_hal.c ****   */
 557:Drivers/STM32H5xx_HAL_Driver/Src/stm32h5xx_hal.c **** void HAL_DBGMCU_EnableDBGStandbyMode(void)
 558:Drivers/STM32H5xx_HAL_Driver/Src/stm32h5xx_hal.c **** {
 880              		.loc 1 558 1 is_stmt 1 view -0
 881              		.cfi_startproc
 882              		@ args = 0, pretend = 0, frame = 0
 883              		@ frame_needed = 0, uses_anonymous_args = 0
 884              		@ link register save eliminated.
 559:Drivers/STM32H5xx_HAL_Driver/Src/stm32h5xx_hal.c ****   SET_BIT(DBGMCU->CR, DBGMCU_CR_DBG_STANDBY);
 885              		.loc 1 559 3 view .LVU179
 886 0000 024A     		ldr	r2, .L78
 887 0002 5368     		ldr	r3, [r2, #4]
 888 0004 43F00403 		orr	r3, r3, #4
 889 0008 5360     		str	r3, [r2, #4]
 560:Drivers/STM32H5xx_HAL_Driver/Src/stm32h5xx_hal.c **** }
 890              		.loc 1 560 1 is_stmt 0 view .LVU180
ARM GAS  C:\Users\sapph\AppData\Local\Temp\ccmhtm3h.s 			page 27


 891 000a 7047     		bx	lr
 892              	.L79:
 893              		.align	2
 894              	.L78:
 895 000c 00400244 		.word	1140998144
 896              		.cfi_endproc
 897              	.LFE181:
 899              		.section	.text.HAL_DBGMCU_DisableDBGStandbyMode,"ax",%progbits
 900              		.align	1
 901              		.global	HAL_DBGMCU_DisableDBGStandbyMode
 902              		.syntax unified
 903              		.thumb
 904              		.thumb_func
 906              	HAL_DBGMCU_DisableDBGStandbyMode:
 907              	.LFB182:
 561:Drivers/STM32H5xx_HAL_Driver/Src/stm32h5xx_hal.c **** 
 562:Drivers/STM32H5xx_HAL_Driver/Src/stm32h5xx_hal.c **** /**
 563:Drivers/STM32H5xx_HAL_Driver/Src/stm32h5xx_hal.c ****   * @brief  Disable the Debug Module during STANDBY mode.
 564:Drivers/STM32H5xx_HAL_Driver/Src/stm32h5xx_hal.c ****   * @retval None
 565:Drivers/STM32H5xx_HAL_Driver/Src/stm32h5xx_hal.c ****   */
 566:Drivers/STM32H5xx_HAL_Driver/Src/stm32h5xx_hal.c **** void HAL_DBGMCU_DisableDBGStandbyMode(void)
 567:Drivers/STM32H5xx_HAL_Driver/Src/stm32h5xx_hal.c **** {
 908              		.loc 1 567 1 is_stmt 1 view -0
 909              		.cfi_startproc
 910              		@ args = 0, pretend = 0, frame = 0
 911              		@ frame_needed = 0, uses_anonymous_args = 0
 912              		@ link register save eliminated.
 568:Drivers/STM32H5xx_HAL_Driver/Src/stm32h5xx_hal.c ****   CLEAR_BIT(DBGMCU->CR, DBGMCU_CR_DBG_STANDBY);
 913              		.loc 1 568 3 view .LVU182
 914 0000 024A     		ldr	r2, .L81
 915 0002 5368     		ldr	r3, [r2, #4]
 916 0004 23F00403 		bic	r3, r3, #4
 917 0008 5360     		str	r3, [r2, #4]
 569:Drivers/STM32H5xx_HAL_Driver/Src/stm32h5xx_hal.c **** }
 918              		.loc 1 569 1 is_stmt 0 view .LVU183
 919 000a 7047     		bx	lr
 920              	.L82:
 921              		.align	2
 922              	.L81:
 923 000c 00400244 		.word	1140998144
 924              		.cfi_endproc
 925              	.LFE182:
 927              		.section	.text.HAL_VREFBUF_VoltageScalingConfig,"ax",%progbits
 928              		.align	1
 929              		.global	HAL_VREFBUF_VoltageScalingConfig
 930              		.syntax unified
 931              		.thumb
 932              		.thumb_func
 934              	HAL_VREFBUF_VoltageScalingConfig:
 935              	.LVL33:
 936              	.LFB183:
 570:Drivers/STM32H5xx_HAL_Driver/Src/stm32h5xx_hal.c **** 
 571:Drivers/STM32H5xx_HAL_Driver/Src/stm32h5xx_hal.c **** /**
 572:Drivers/STM32H5xx_HAL_Driver/Src/stm32h5xx_hal.c ****   * @}
 573:Drivers/STM32H5xx_HAL_Driver/Src/stm32h5xx_hal.c ****   */
 574:Drivers/STM32H5xx_HAL_Driver/Src/stm32h5xx_hal.c **** 
 575:Drivers/STM32H5xx_HAL_Driver/Src/stm32h5xx_hal.c **** /** @defgroup HAL_Exported_Functions_Group4 HAL VREFBUF Control functions
ARM GAS  C:\Users\sapph\AppData\Local\Temp\ccmhtm3h.s 			page 28


 576:Drivers/STM32H5xx_HAL_Driver/Src/stm32h5xx_hal.c ****   *  @brief    HAL VREFBUF Control functions
 577:Drivers/STM32H5xx_HAL_Driver/Src/stm32h5xx_hal.c ****   *
 578:Drivers/STM32H5xx_HAL_Driver/Src/stm32h5xx_hal.c **** @verbatim
 579:Drivers/STM32H5xx_HAL_Driver/Src/stm32h5xx_hal.c ****  ==================================================================================================
 580:Drivers/STM32H5xx_HAL_Driver/Src/stm32h5xx_hal.c ****                                        ##### HAL VREFBUF Control functions #####
 581:Drivers/STM32H5xx_HAL_Driver/Src/stm32h5xx_hal.c ****  ==================================================================================================
 582:Drivers/STM32H5xx_HAL_Driver/Src/stm32h5xx_hal.c ****     [..]  This section provides functions allowing to:
 583:Drivers/STM32H5xx_HAL_Driver/Src/stm32h5xx_hal.c ****       (+) Configure the Voltage reference buffer
 584:Drivers/STM32H5xx_HAL_Driver/Src/stm32h5xx_hal.c ****       (+) Enable/Disable the Voltage reference buffer
 585:Drivers/STM32H5xx_HAL_Driver/Src/stm32h5xx_hal.c **** 
 586:Drivers/STM32H5xx_HAL_Driver/Src/stm32h5xx_hal.c **** @endverbatim
 587:Drivers/STM32H5xx_HAL_Driver/Src/stm32h5xx_hal.c ****   * @{
 588:Drivers/STM32H5xx_HAL_Driver/Src/stm32h5xx_hal.c ****   */
 589:Drivers/STM32H5xx_HAL_Driver/Src/stm32h5xx_hal.c **** 
 590:Drivers/STM32H5xx_HAL_Driver/Src/stm32h5xx_hal.c **** #if defined(VREFBUF)
 591:Drivers/STM32H5xx_HAL_Driver/Src/stm32h5xx_hal.c **** /**
 592:Drivers/STM32H5xx_HAL_Driver/Src/stm32h5xx_hal.c ****   * @brief Configure the internal voltage reference buffer voltage scale.
 593:Drivers/STM32H5xx_HAL_Driver/Src/stm32h5xx_hal.c ****   * @param  VoltageScaling: specifies the output voltage to achieve
 594:Drivers/STM32H5xx_HAL_Driver/Src/stm32h5xx_hal.c ****   *          This parameter can be one of the following values:
 595:Drivers/STM32H5xx_HAL_Driver/Src/stm32h5xx_hal.c ****   *            @arg VREFBUF_VOLTAGE_SCALE0: VREF_OUT1 around 2.5 V.
 596:Drivers/STM32H5xx_HAL_Driver/Src/stm32h5xx_hal.c ****   *                                                This requires VDDA equal to or higher than 2.8 V
 597:Drivers/STM32H5xx_HAL_Driver/Src/stm32h5xx_hal.c ****   *            @arg VREFBUF_VOLTAGE_SCALE1: VREF_OUT2 around 2.048 V.
 598:Drivers/STM32H5xx_HAL_Driver/Src/stm32h5xx_hal.c ****   *                                                This requires VDDA equal to or higher than 2.4 V
 599:Drivers/STM32H5xx_HAL_Driver/Src/stm32h5xx_hal.c ****   *            @arg VREFBUF_VOLTAGE_SCALE2: VREF_OUT3 around 1.8 V.
 600:Drivers/STM32H5xx_HAL_Driver/Src/stm32h5xx_hal.c ****   *                                                This requires VDDA equal to or higher than 2.1 V
 601:Drivers/STM32H5xx_HAL_Driver/Src/stm32h5xx_hal.c ****   *            @arg VREFBUF_VOLTAGE_SCALE3: VREF_OUT4 around 1.5 V.
 602:Drivers/STM32H5xx_HAL_Driver/Src/stm32h5xx_hal.c ****   *                                                This requires VDDA equal to or higher than 1.8 V
 603:Drivers/STM32H5xx_HAL_Driver/Src/stm32h5xx_hal.c ****   * @retval None
 604:Drivers/STM32H5xx_HAL_Driver/Src/stm32h5xx_hal.c ****   */
 605:Drivers/STM32H5xx_HAL_Driver/Src/stm32h5xx_hal.c **** void HAL_VREFBUF_VoltageScalingConfig(uint32_t VoltageScaling)
 606:Drivers/STM32H5xx_HAL_Driver/Src/stm32h5xx_hal.c **** {
 937              		.loc 1 606 1 is_stmt 1 view -0
 938              		.cfi_startproc
 939              		@ args = 0, pretend = 0, frame = 0
 940              		@ frame_needed = 0, uses_anonymous_args = 0
 941              		@ link register save eliminated.
 607:Drivers/STM32H5xx_HAL_Driver/Src/stm32h5xx_hal.c ****   /* Check the parameters */
 608:Drivers/STM32H5xx_HAL_Driver/Src/stm32h5xx_hal.c ****   assert_param(IS_VREFBUF_VOLTAGE_SCALE(VoltageScaling));
 942              		.loc 1 608 3 view .LVU185
 609:Drivers/STM32H5xx_HAL_Driver/Src/stm32h5xx_hal.c **** 
 610:Drivers/STM32H5xx_HAL_Driver/Src/stm32h5xx_hal.c ****   MODIFY_REG(VREFBUF->CSR, VREFBUF_CSR_VRS, VoltageScaling);
 943              		.loc 1 610 3 view .LVU186
 944 0000 034A     		ldr	r2, .L84
 945 0002 1368     		ldr	r3, [r2]
 946 0004 23F07003 		bic	r3, r3, #112
 947 0008 0343     		orrs	r3, r3, r0
 948 000a 1360     		str	r3, [r2]
 611:Drivers/STM32H5xx_HAL_Driver/Src/stm32h5xx_hal.c **** }
 949              		.loc 1 611 1 is_stmt 0 view .LVU187
 950 000c 7047     		bx	lr
 951              	.L85:
 952 000e 00BF     		.align	2
 953              	.L84:
 954 0010 00740044 		.word	1140880384
 955              		.cfi_endproc
 956              	.LFE183:
 958              		.section	.text.HAL_VREFBUF_HighImpedanceConfig,"ax",%progbits
ARM GAS  C:\Users\sapph\AppData\Local\Temp\ccmhtm3h.s 			page 29


 959              		.align	1
 960              		.global	HAL_VREFBUF_HighImpedanceConfig
 961              		.syntax unified
 962              		.thumb
 963              		.thumb_func
 965              	HAL_VREFBUF_HighImpedanceConfig:
 966              	.LVL34:
 967              	.LFB184:
 612:Drivers/STM32H5xx_HAL_Driver/Src/stm32h5xx_hal.c **** 
 613:Drivers/STM32H5xx_HAL_Driver/Src/stm32h5xx_hal.c **** /**
 614:Drivers/STM32H5xx_HAL_Driver/Src/stm32h5xx_hal.c ****   * @brief Configure the internal voltage reference buffer high impedance mode.
 615:Drivers/STM32H5xx_HAL_Driver/Src/stm32h5xx_hal.c ****   * @param  Mode: specifies the high impedance mode
 616:Drivers/STM32H5xx_HAL_Driver/Src/stm32h5xx_hal.c ****   *          This parameter can be one of the following values:
 617:Drivers/STM32H5xx_HAL_Driver/Src/stm32h5xx_hal.c ****   *            @arg VREFBUF_HIGH_IMPEDANCE_DISABLE: VREF+ pin is internally connect to VREFINT outp
 618:Drivers/STM32H5xx_HAL_Driver/Src/stm32h5xx_hal.c ****   *            @arg VREFBUF_HIGH_IMPEDANCE_ENABLE: VREF+ pin is high impedance.
 619:Drivers/STM32H5xx_HAL_Driver/Src/stm32h5xx_hal.c ****   * @retval None
 620:Drivers/STM32H5xx_HAL_Driver/Src/stm32h5xx_hal.c ****   */
 621:Drivers/STM32H5xx_HAL_Driver/Src/stm32h5xx_hal.c **** void HAL_VREFBUF_HighImpedanceConfig(uint32_t Mode)
 622:Drivers/STM32H5xx_HAL_Driver/Src/stm32h5xx_hal.c **** {
 968              		.loc 1 622 1 is_stmt 1 view -0
 969              		.cfi_startproc
 970              		@ args = 0, pretend = 0, frame = 0
 971              		@ frame_needed = 0, uses_anonymous_args = 0
 972              		@ link register save eliminated.
 623:Drivers/STM32H5xx_HAL_Driver/Src/stm32h5xx_hal.c ****   /* Check the parameters */
 624:Drivers/STM32H5xx_HAL_Driver/Src/stm32h5xx_hal.c ****   assert_param(IS_VREFBUF_HIGH_IMPEDANCE(Mode));
 973              		.loc 1 624 3 view .LVU189
 625:Drivers/STM32H5xx_HAL_Driver/Src/stm32h5xx_hal.c **** 
 626:Drivers/STM32H5xx_HAL_Driver/Src/stm32h5xx_hal.c ****   MODIFY_REG(VREFBUF->CSR, VREFBUF_CSR_HIZ, Mode);
 974              		.loc 1 626 3 view .LVU190
 975 0000 034A     		ldr	r2, .L87
 976 0002 1368     		ldr	r3, [r2]
 977 0004 23F00203 		bic	r3, r3, #2
 978 0008 0343     		orrs	r3, r3, r0
 979 000a 1360     		str	r3, [r2]
 627:Drivers/STM32H5xx_HAL_Driver/Src/stm32h5xx_hal.c **** }
 980              		.loc 1 627 1 is_stmt 0 view .LVU191
 981 000c 7047     		bx	lr
 982              	.L88:
 983 000e 00BF     		.align	2
 984              	.L87:
 985 0010 00740044 		.word	1140880384
 986              		.cfi_endproc
 987              	.LFE184:
 989              		.section	.text.HAL_VREFBUF_TrimmingConfig,"ax",%progbits
 990              		.align	1
 991              		.global	HAL_VREFBUF_TrimmingConfig
 992              		.syntax unified
 993              		.thumb
 994              		.thumb_func
 996              	HAL_VREFBUF_TrimmingConfig:
 997              	.LVL35:
 998              	.LFB185:
 628:Drivers/STM32H5xx_HAL_Driver/Src/stm32h5xx_hal.c **** 
 629:Drivers/STM32H5xx_HAL_Driver/Src/stm32h5xx_hal.c **** /**
 630:Drivers/STM32H5xx_HAL_Driver/Src/stm32h5xx_hal.c ****   * @brief  Tune the Internal Voltage Reference buffer (VREFBUF).
 631:Drivers/STM32H5xx_HAL_Driver/Src/stm32h5xx_hal.c ****   * @retval None
ARM GAS  C:\Users\sapph\AppData\Local\Temp\ccmhtm3h.s 			page 30


 632:Drivers/STM32H5xx_HAL_Driver/Src/stm32h5xx_hal.c ****   */
 633:Drivers/STM32H5xx_HAL_Driver/Src/stm32h5xx_hal.c **** void HAL_VREFBUF_TrimmingConfig(uint32_t TrimmingValue)
 634:Drivers/STM32H5xx_HAL_Driver/Src/stm32h5xx_hal.c **** {
 999              		.loc 1 634 1 is_stmt 1 view -0
 1000              		.cfi_startproc
 1001              		@ args = 0, pretend = 0, frame = 0
 1002              		@ frame_needed = 0, uses_anonymous_args = 0
 1003              		@ link register save eliminated.
 635:Drivers/STM32H5xx_HAL_Driver/Src/stm32h5xx_hal.c ****   /* Check the parameters */
 636:Drivers/STM32H5xx_HAL_Driver/Src/stm32h5xx_hal.c ****   assert_param(IS_VREFBUF_TRIMMING(TrimmingValue));
 1004              		.loc 1 636 3 view .LVU193
 637:Drivers/STM32H5xx_HAL_Driver/Src/stm32h5xx_hal.c **** 
 638:Drivers/STM32H5xx_HAL_Driver/Src/stm32h5xx_hal.c ****   MODIFY_REG(VREFBUF->CCR, VREFBUF_CCR_TRIM, TrimmingValue);
 1005              		.loc 1 638 3 view .LVU194
 1006 0000 034A     		ldr	r2, .L90
 1007 0002 5368     		ldr	r3, [r2, #4]
 1008 0004 23F03F03 		bic	r3, r3, #63
 1009 0008 0343     		orrs	r3, r3, r0
 1010 000a 5360     		str	r3, [r2, #4]
 639:Drivers/STM32H5xx_HAL_Driver/Src/stm32h5xx_hal.c **** }
 1011              		.loc 1 639 1 is_stmt 0 view .LVU195
 1012 000c 7047     		bx	lr
 1013              	.L91:
 1014 000e 00BF     		.align	2
 1015              	.L90:
 1016 0010 00740044 		.word	1140880384
 1017              		.cfi_endproc
 1018              	.LFE185:
 1020              		.section	.text.HAL_EnableVREFBUF,"ax",%progbits
 1021              		.align	1
 1022              		.global	HAL_EnableVREFBUF
 1023              		.syntax unified
 1024              		.thumb
 1025              		.thumb_func
 1027              	HAL_EnableVREFBUF:
 1028              	.LFB186:
 640:Drivers/STM32H5xx_HAL_Driver/Src/stm32h5xx_hal.c **** 
 641:Drivers/STM32H5xx_HAL_Driver/Src/stm32h5xx_hal.c **** /**
 642:Drivers/STM32H5xx_HAL_Driver/Src/stm32h5xx_hal.c ****   * @brief  Enable the Internal Voltage Reference buffer (VREFBUF).
 643:Drivers/STM32H5xx_HAL_Driver/Src/stm32h5xx_hal.c ****   * @retval HAL_OK/HAL_TIMEOUT
 644:Drivers/STM32H5xx_HAL_Driver/Src/stm32h5xx_hal.c ****   */
 645:Drivers/STM32H5xx_HAL_Driver/Src/stm32h5xx_hal.c **** HAL_StatusTypeDef HAL_EnableVREFBUF(void)
 646:Drivers/STM32H5xx_HAL_Driver/Src/stm32h5xx_hal.c **** {
 1029              		.loc 1 646 1 is_stmt 1 view -0
 1030              		.cfi_startproc
 1031              		@ args = 0, pretend = 0, frame = 0
 1032              		@ frame_needed = 0, uses_anonymous_args = 0
 1033 0000 10B5     		push	{r4, lr}
 1034              		.cfi_def_cfa_offset 8
 1035              		.cfi_offset 4, -8
 1036              		.cfi_offset 14, -4
 647:Drivers/STM32H5xx_HAL_Driver/Src/stm32h5xx_hal.c ****   uint32_t  tickstart;
 1037              		.loc 1 647 3 view .LVU197
 648:Drivers/STM32H5xx_HAL_Driver/Src/stm32h5xx_hal.c **** 
 649:Drivers/STM32H5xx_HAL_Driver/Src/stm32h5xx_hal.c ****   SET_BIT(VREFBUF->CSR, VREFBUF_CSR_ENVR);
 1038              		.loc 1 649 3 view .LVU198
 1039 0002 0B4A     		ldr	r2, .L99
ARM GAS  C:\Users\sapph\AppData\Local\Temp\ccmhtm3h.s 			page 31


 1040 0004 1368     		ldr	r3, [r2]
 1041 0006 43F00103 		orr	r3, r3, #1
 1042 000a 1360     		str	r3, [r2]
 650:Drivers/STM32H5xx_HAL_Driver/Src/stm32h5xx_hal.c **** 
 651:Drivers/STM32H5xx_HAL_Driver/Src/stm32h5xx_hal.c ****   /* Get Start Tick*/
 652:Drivers/STM32H5xx_HAL_Driver/Src/stm32h5xx_hal.c ****   tickstart = HAL_GetTick();
 1043              		.loc 1 652 3 view .LVU199
 1044              		.loc 1 652 15 is_stmt 0 view .LVU200
 1045 000c FFF7FEFF 		bl	HAL_GetTick
 1046              	.LVL36:
 1047 0010 0446     		mov	r4, r0
 1048              	.LVL37:
 653:Drivers/STM32H5xx_HAL_Driver/Src/stm32h5xx_hal.c **** 
 654:Drivers/STM32H5xx_HAL_Driver/Src/stm32h5xx_hal.c ****   /* Wait for VRR bit  */
 655:Drivers/STM32H5xx_HAL_Driver/Src/stm32h5xx_hal.c ****   while (READ_BIT(VREFBUF->CSR, VREFBUF_CSR_VRR) == 0UL)
 1049              		.loc 1 655 3 is_stmt 1 view .LVU201
 1050              	.L93:
 1051              		.loc 1 655 50 view .LVU202
 1052              		.loc 1 655 10 is_stmt 0 view .LVU203
 1053 0012 074B     		ldr	r3, .L99
 1054 0014 1B68     		ldr	r3, [r3]
 1055              		.loc 1 655 50 view .LVU204
 1056 0016 13F0080F 		tst	r3, #8
 1057 001a 06D1     		bne	.L98
 656:Drivers/STM32H5xx_HAL_Driver/Src/stm32h5xx_hal.c ****   {
 657:Drivers/STM32H5xx_HAL_Driver/Src/stm32h5xx_hal.c ****     if ((HAL_GetTick() - tickstart) > VREFBUF_TIMEOUT_VALUE)
 1058              		.loc 1 657 5 is_stmt 1 view .LVU205
 1059              		.loc 1 657 10 is_stmt 0 view .LVU206
 1060 001c FFF7FEFF 		bl	HAL_GetTick
 1061              	.LVL38:
 1062              		.loc 1 657 24 discriminator 1 view .LVU207
 1063 0020 001B     		subs	r0, r0, r4
 1064              		.loc 1 657 8 discriminator 1 view .LVU208
 1065 0022 0A28     		cmp	r0, #10
 1066 0024 F5D9     		bls	.L93
 658:Drivers/STM32H5xx_HAL_Driver/Src/stm32h5xx_hal.c ****     {
 659:Drivers/STM32H5xx_HAL_Driver/Src/stm32h5xx_hal.c ****       return HAL_TIMEOUT;
 1067              		.loc 1 659 14 view .LVU209
 1068 0026 0320     		movs	r0, #3
 1069 0028 00E0     		b	.L94
 1070              	.L98:
 660:Drivers/STM32H5xx_HAL_Driver/Src/stm32h5xx_hal.c ****     }
 661:Drivers/STM32H5xx_HAL_Driver/Src/stm32h5xx_hal.c ****   }
 662:Drivers/STM32H5xx_HAL_Driver/Src/stm32h5xx_hal.c **** 
 663:Drivers/STM32H5xx_HAL_Driver/Src/stm32h5xx_hal.c ****   return HAL_OK;
 1071              		.loc 1 663 10 view .LVU210
 1072 002a 0020     		movs	r0, #0
 1073              	.L94:
 664:Drivers/STM32H5xx_HAL_Driver/Src/stm32h5xx_hal.c **** }
 1074              		.loc 1 664 1 view .LVU211
 1075 002c 10BD     		pop	{r4, pc}
 1076              	.LVL39:
 1077              	.L100:
 1078              		.loc 1 664 1 view .LVU212
 1079 002e 00BF     		.align	2
 1080              	.L99:
 1081 0030 00740044 		.word	1140880384
ARM GAS  C:\Users\sapph\AppData\Local\Temp\ccmhtm3h.s 			page 32


 1082              		.cfi_endproc
 1083              	.LFE186:
 1085              		.section	.text.HAL_DisableVREFBUF,"ax",%progbits
 1086              		.align	1
 1087              		.global	HAL_DisableVREFBUF
 1088              		.syntax unified
 1089              		.thumb
 1090              		.thumb_func
 1092              	HAL_DisableVREFBUF:
 1093              	.LFB187:
 665:Drivers/STM32H5xx_HAL_Driver/Src/stm32h5xx_hal.c **** 
 666:Drivers/STM32H5xx_HAL_Driver/Src/stm32h5xx_hal.c **** /**
 667:Drivers/STM32H5xx_HAL_Driver/Src/stm32h5xx_hal.c ****   * @brief  Disable the Internal Voltage Reference buffer (VREFBUF).
 668:Drivers/STM32H5xx_HAL_Driver/Src/stm32h5xx_hal.c ****   *
 669:Drivers/STM32H5xx_HAL_Driver/Src/stm32h5xx_hal.c ****   * @retval None
 670:Drivers/STM32H5xx_HAL_Driver/Src/stm32h5xx_hal.c ****   */
 671:Drivers/STM32H5xx_HAL_Driver/Src/stm32h5xx_hal.c **** void HAL_DisableVREFBUF(void)
 672:Drivers/STM32H5xx_HAL_Driver/Src/stm32h5xx_hal.c **** {
 1094              		.loc 1 672 1 is_stmt 1 view -0
 1095              		.cfi_startproc
 1096              		@ args = 0, pretend = 0, frame = 0
 1097              		@ frame_needed = 0, uses_anonymous_args = 0
 1098              		@ link register save eliminated.
 673:Drivers/STM32H5xx_HAL_Driver/Src/stm32h5xx_hal.c ****   CLEAR_BIT(VREFBUF->CSR, VREFBUF_CSR_ENVR);
 1099              		.loc 1 673 3 view .LVU214
 1100 0000 024A     		ldr	r2, .L102
 1101 0002 1368     		ldr	r3, [r2]
 1102 0004 23F00103 		bic	r3, r3, #1
 1103 0008 1360     		str	r3, [r2]
 674:Drivers/STM32H5xx_HAL_Driver/Src/stm32h5xx_hal.c **** }
 1104              		.loc 1 674 1 is_stmt 0 view .LVU215
 1105 000a 7047     		bx	lr
 1106              	.L103:
 1107              		.align	2
 1108              	.L102:
 1109 000c 00740044 		.word	1140880384
 1110              		.cfi_endproc
 1111              	.LFE187:
 1113              		.section	.text.HAL_SBS_EnableVddIO1CompensationCell,"ax",%progbits
 1114              		.align	1
 1115              		.global	HAL_SBS_EnableVddIO1CompensationCell
 1116              		.syntax unified
 1117              		.thumb
 1118              		.thumb_func
 1120              	HAL_SBS_EnableVddIO1CompensationCell:
 1121              	.LFB188:
 675:Drivers/STM32H5xx_HAL_Driver/Src/stm32h5xx_hal.c **** #endif /* VREFBUF */
 676:Drivers/STM32H5xx_HAL_Driver/Src/stm32h5xx_hal.c **** 
 677:Drivers/STM32H5xx_HAL_Driver/Src/stm32h5xx_hal.c **** /**
 678:Drivers/STM32H5xx_HAL_Driver/Src/stm32h5xx_hal.c ****   * @}
 679:Drivers/STM32H5xx_HAL_Driver/Src/stm32h5xx_hal.c ****   */
 680:Drivers/STM32H5xx_HAL_Driver/Src/stm32h5xx_hal.c **** 
 681:Drivers/STM32H5xx_HAL_Driver/Src/stm32h5xx_hal.c **** /** @defgroup HAL_Exported_Functions_Group5 HAL SBS configuration functions
 682:Drivers/STM32H5xx_HAL_Driver/Src/stm32h5xx_hal.c ****   *  @brief    HAL SBS configuration functions
 683:Drivers/STM32H5xx_HAL_Driver/Src/stm32h5xx_hal.c ****   *
 684:Drivers/STM32H5xx_HAL_Driver/Src/stm32h5xx_hal.c **** @verbatim
 685:Drivers/STM32H5xx_HAL_Driver/Src/stm32h5xx_hal.c ****  ==================================================================================================
ARM GAS  C:\Users\sapph\AppData\Local\Temp\ccmhtm3h.s 			page 33


 686:Drivers/STM32H5xx_HAL_Driver/Src/stm32h5xx_hal.c ****                                        ##### HAL SBS configuration functions #####
 687:Drivers/STM32H5xx_HAL_Driver/Src/stm32h5xx_hal.c ****  ==================================================================================================
 688:Drivers/STM32H5xx_HAL_Driver/Src/stm32h5xx_hal.c ****     [..]  This section provides functions allowing to:
 689:Drivers/STM32H5xx_HAL_Driver/Src/stm32h5xx_hal.c ****       (+) Select the Ethernet PHY Interface
 690:Drivers/STM32H5xx_HAL_Driver/Src/stm32h5xx_hal.c ****       (+) Enable/Disable the VDD I/Os Compensation Cell
 691:Drivers/STM32H5xx_HAL_Driver/Src/stm32h5xx_hal.c ****       (+) Code selection/configuration for the VDD I/O Compensation cell
 692:Drivers/STM32H5xx_HAL_Driver/Src/stm32h5xx_hal.c ****       (+) Get ready flag status of VDD I/Os Compensation cell
 693:Drivers/STM32H5xx_HAL_Driver/Src/stm32h5xx_hal.c ****       (+) Get PMOS/NMOS compensation value of the I/Os supplied by VDD
 694:Drivers/STM32H5xx_HAL_Driver/Src/stm32h5xx_hal.c ****       (+) Enable/Disable the NMI in case of double ECC error in FLASH Interface
 695:Drivers/STM32H5xx_HAL_Driver/Src/stm32h5xx_hal.c **** 
 696:Drivers/STM32H5xx_HAL_Driver/Src/stm32h5xx_hal.c **** @endverbatim
 697:Drivers/STM32H5xx_HAL_Driver/Src/stm32h5xx_hal.c ****   * @{
 698:Drivers/STM32H5xx_HAL_Driver/Src/stm32h5xx_hal.c ****   */
 699:Drivers/STM32H5xx_HAL_Driver/Src/stm32h5xx_hal.c **** 
 700:Drivers/STM32H5xx_HAL_Driver/Src/stm32h5xx_hal.c **** #if defined(SBS_PMCR_ETH_SEL_PHY)
 701:Drivers/STM32H5xx_HAL_Driver/Src/stm32h5xx_hal.c **** /**
 702:Drivers/STM32H5xx_HAL_Driver/Src/stm32h5xx_hal.c ****   * @brief  Ethernet PHY Interface Selection either MII or RMII
 703:Drivers/STM32H5xx_HAL_Driver/Src/stm32h5xx_hal.c ****   * @param  SBS_ETHInterface: Selects the Ethernet PHY interface
 704:Drivers/STM32H5xx_HAL_Driver/Src/stm32h5xx_hal.c ****   *   This parameter can be one of the following values:
 705:Drivers/STM32H5xx_HAL_Driver/Src/stm32h5xx_hal.c ****   *   @arg SBS_ETH_MII : Select the Media Independent Interface
 706:Drivers/STM32H5xx_HAL_Driver/Src/stm32h5xx_hal.c ****   *   @arg SBS_ETH_RMII: Select the Reduced Media Independent Interface
 707:Drivers/STM32H5xx_HAL_Driver/Src/stm32h5xx_hal.c ****   * @retval None
 708:Drivers/STM32H5xx_HAL_Driver/Src/stm32h5xx_hal.c ****   */
 709:Drivers/STM32H5xx_HAL_Driver/Src/stm32h5xx_hal.c **** void HAL_SBS_ETHInterfaceSelect(uint32_t SBS_ETHInterface)
 710:Drivers/STM32H5xx_HAL_Driver/Src/stm32h5xx_hal.c **** {
 711:Drivers/STM32H5xx_HAL_Driver/Src/stm32h5xx_hal.c ****   /* Check the parameter */
 712:Drivers/STM32H5xx_HAL_Driver/Src/stm32h5xx_hal.c ****   assert_param(IS_SBS_ETHERNET_CONFIG(SBS_ETHInterface));
 713:Drivers/STM32H5xx_HAL_Driver/Src/stm32h5xx_hal.c **** 
 714:Drivers/STM32H5xx_HAL_Driver/Src/stm32h5xx_hal.c ****   MODIFY_REG(SBS->PMCR, SBS_PMCR_ETH_SEL_PHY, (uint32_t)(SBS_ETHInterface));
 715:Drivers/STM32H5xx_HAL_Driver/Src/stm32h5xx_hal.c **** }
 716:Drivers/STM32H5xx_HAL_Driver/Src/stm32h5xx_hal.c **** #endif /* SBS_PMCR_ETH_SEL_PHY */
 717:Drivers/STM32H5xx_HAL_Driver/Src/stm32h5xx_hal.c **** 
 718:Drivers/STM32H5xx_HAL_Driver/Src/stm32h5xx_hal.c **** /**
 719:Drivers/STM32H5xx_HAL_Driver/Src/stm32h5xx_hal.c ****   * @brief  Enables the VDD I/Os Compensation Cell.
 720:Drivers/STM32H5xx_HAL_Driver/Src/stm32h5xx_hal.c ****   * @note   The I/O compensation cell can be used only when the device supply
 721:Drivers/STM32H5xx_HAL_Driver/Src/stm32h5xx_hal.c ****   *         voltage ranges from 2.4 to 3.6 V.
 722:Drivers/STM32H5xx_HAL_Driver/Src/stm32h5xx_hal.c ****   * @retval None
 723:Drivers/STM32H5xx_HAL_Driver/Src/stm32h5xx_hal.c ****   */
 724:Drivers/STM32H5xx_HAL_Driver/Src/stm32h5xx_hal.c **** void HAL_SBS_EnableVddIO1CompensationCell(void)
 725:Drivers/STM32H5xx_HAL_Driver/Src/stm32h5xx_hal.c **** {
 1122              		.loc 1 725 1 is_stmt 1 view -0
 1123              		.cfi_startproc
 1124              		@ args = 0, pretend = 0, frame = 0
 1125              		@ frame_needed = 0, uses_anonymous_args = 0
 1126              		@ link register save eliminated.
 726:Drivers/STM32H5xx_HAL_Driver/Src/stm32h5xx_hal.c ****   SET_BIT(SBS->CCCSR, SBS_CCCSR_EN1) ;
 1127              		.loc 1 726 3 view .LVU217
 1128 0000 034A     		ldr	r2, .L105
 1129 0002 D2F81031 		ldr	r3, [r2, #272]
 1130 0006 43F00103 		orr	r3, r3, #1
 1131 000a C2F81031 		str	r3, [r2, #272]
 727:Drivers/STM32H5xx_HAL_Driver/Src/stm32h5xx_hal.c **** }
 1132              		.loc 1 727 1 is_stmt 0 view .LVU218
 1133 000e 7047     		bx	lr
 1134              	.L106:
 1135              		.align	2
 1136              	.L105:
ARM GAS  C:\Users\sapph\AppData\Local\Temp\ccmhtm3h.s 			page 34


 1137 0010 00040044 		.word	1140851712
 1138              		.cfi_endproc
 1139              	.LFE188:
 1141              		.section	.text.HAL_SBS_DisableVddIO1CompensationCell,"ax",%progbits
 1142              		.align	1
 1143              		.global	HAL_SBS_DisableVddIO1CompensationCell
 1144              		.syntax unified
 1145              		.thumb
 1146              		.thumb_func
 1148              	HAL_SBS_DisableVddIO1CompensationCell:
 1149              	.LFB189:
 728:Drivers/STM32H5xx_HAL_Driver/Src/stm32h5xx_hal.c **** 
 729:Drivers/STM32H5xx_HAL_Driver/Src/stm32h5xx_hal.c **** /**
 730:Drivers/STM32H5xx_HAL_Driver/Src/stm32h5xx_hal.c ****   * @brief  Power-down the VDD I/Os Compensation Cell.
 731:Drivers/STM32H5xx_HAL_Driver/Src/stm32h5xx_hal.c ****   * @note   The I/O compensation cell can be used only when the device supply
 732:Drivers/STM32H5xx_HAL_Driver/Src/stm32h5xx_hal.c ****   *         voltage ranges from 2.4 to 3.6 V.
 733:Drivers/STM32H5xx_HAL_Driver/Src/stm32h5xx_hal.c ****   * @retval None
 734:Drivers/STM32H5xx_HAL_Driver/Src/stm32h5xx_hal.c ****   */
 735:Drivers/STM32H5xx_HAL_Driver/Src/stm32h5xx_hal.c **** void HAL_SBS_DisableVddIO1CompensationCell(void)
 736:Drivers/STM32H5xx_HAL_Driver/Src/stm32h5xx_hal.c **** {
 1150              		.loc 1 736 1 is_stmt 1 view -0
 1151              		.cfi_startproc
 1152              		@ args = 0, pretend = 0, frame = 0
 1153              		@ frame_needed = 0, uses_anonymous_args = 0
 1154              		@ link register save eliminated.
 737:Drivers/STM32H5xx_HAL_Driver/Src/stm32h5xx_hal.c ****   CLEAR_BIT(SBS->CCCSR, SBS_CCCSR_EN1);
 1155              		.loc 1 737 3 view .LVU220
 1156 0000 034A     		ldr	r2, .L108
 1157 0002 D2F81031 		ldr	r3, [r2, #272]
 1158 0006 23F00103 		bic	r3, r3, #1
 1159 000a C2F81031 		str	r3, [r2, #272]
 738:Drivers/STM32H5xx_HAL_Driver/Src/stm32h5xx_hal.c **** }
 1160              		.loc 1 738 1 is_stmt 0 view .LVU221
 1161 000e 7047     		bx	lr
 1162              	.L109:
 1163              		.align	2
 1164              	.L108:
 1165 0010 00040044 		.word	1140851712
 1166              		.cfi_endproc
 1167              	.LFE189:
 1169              		.section	.text.HAL_SBS_EnableVddIO2CompensationCell,"ax",%progbits
 1170              		.align	1
 1171              		.global	HAL_SBS_EnableVddIO2CompensationCell
 1172              		.syntax unified
 1173              		.thumb
 1174              		.thumb_func
 1176              	HAL_SBS_EnableVddIO2CompensationCell:
 1177              	.LFB190:
 739:Drivers/STM32H5xx_HAL_Driver/Src/stm32h5xx_hal.c **** 
 740:Drivers/STM32H5xx_HAL_Driver/Src/stm32h5xx_hal.c **** /**
 741:Drivers/STM32H5xx_HAL_Driver/Src/stm32h5xx_hal.c ****   * @brief  Enables the VDDIO2 I/Os Compensation Cell.
 742:Drivers/STM32H5xx_HAL_Driver/Src/stm32h5xx_hal.c ****   * @note   The I/O compensation cell can be used only when the device supply
 743:Drivers/STM32H5xx_HAL_Driver/Src/stm32h5xx_hal.c ****   *         voltage ranges from 2.4 to 3.6 V.
 744:Drivers/STM32H5xx_HAL_Driver/Src/stm32h5xx_hal.c ****   * @retval None
 745:Drivers/STM32H5xx_HAL_Driver/Src/stm32h5xx_hal.c ****   */
 746:Drivers/STM32H5xx_HAL_Driver/Src/stm32h5xx_hal.c **** void HAL_SBS_EnableVddIO2CompensationCell(void)
 747:Drivers/STM32H5xx_HAL_Driver/Src/stm32h5xx_hal.c **** {
ARM GAS  C:\Users\sapph\AppData\Local\Temp\ccmhtm3h.s 			page 35


 1178              		.loc 1 747 1 is_stmt 1 view -0
 1179              		.cfi_startproc
 1180              		@ args = 0, pretend = 0, frame = 0
 1181              		@ frame_needed = 0, uses_anonymous_args = 0
 1182              		@ link register save eliminated.
 748:Drivers/STM32H5xx_HAL_Driver/Src/stm32h5xx_hal.c ****   SET_BIT(SBS->CCCSR, SBS_CCCSR_EN2) ;
 1183              		.loc 1 748 3 view .LVU223
 1184 0000 034A     		ldr	r2, .L111
 1185 0002 D2F81031 		ldr	r3, [r2, #272]
 1186 0006 43F00403 		orr	r3, r3, #4
 1187 000a C2F81031 		str	r3, [r2, #272]
 749:Drivers/STM32H5xx_HAL_Driver/Src/stm32h5xx_hal.c **** }
 1188              		.loc 1 749 1 is_stmt 0 view .LVU224
 1189 000e 7047     		bx	lr
 1190              	.L112:
 1191              		.align	2
 1192              	.L111:
 1193 0010 00040044 		.word	1140851712
 1194              		.cfi_endproc
 1195              	.LFE190:
 1197              		.section	.text.HAL_SBS_DisableVddIO2CompensationCell,"ax",%progbits
 1198              		.align	1
 1199              		.global	HAL_SBS_DisableVddIO2CompensationCell
 1200              		.syntax unified
 1201              		.thumb
 1202              		.thumb_func
 1204              	HAL_SBS_DisableVddIO2CompensationCell:
 1205              	.LFB191:
 750:Drivers/STM32H5xx_HAL_Driver/Src/stm32h5xx_hal.c **** 
 751:Drivers/STM32H5xx_HAL_Driver/Src/stm32h5xx_hal.c **** /**
 752:Drivers/STM32H5xx_HAL_Driver/Src/stm32h5xx_hal.c ****   * @brief  Power-down the VDDIO2 I/Os Compensation Cell.
 753:Drivers/STM32H5xx_HAL_Driver/Src/stm32h5xx_hal.c ****   * @note   The I/O compensation cell can be used only when the device supply
 754:Drivers/STM32H5xx_HAL_Driver/Src/stm32h5xx_hal.c ****   *         voltage ranges from 2.4 to 3.6 V.
 755:Drivers/STM32H5xx_HAL_Driver/Src/stm32h5xx_hal.c ****   * @retval None
 756:Drivers/STM32H5xx_HAL_Driver/Src/stm32h5xx_hal.c ****   */
 757:Drivers/STM32H5xx_HAL_Driver/Src/stm32h5xx_hal.c **** void HAL_SBS_DisableVddIO2CompensationCell(void)
 758:Drivers/STM32H5xx_HAL_Driver/Src/stm32h5xx_hal.c **** {
 1206              		.loc 1 758 1 is_stmt 1 view -0
 1207              		.cfi_startproc
 1208              		@ args = 0, pretend = 0, frame = 0
 1209              		@ frame_needed = 0, uses_anonymous_args = 0
 1210              		@ link register save eliminated.
 759:Drivers/STM32H5xx_HAL_Driver/Src/stm32h5xx_hal.c ****   CLEAR_BIT(SBS->CCCSR, SBS_CCCSR_EN2);
 1211              		.loc 1 759 3 view .LVU226
 1212 0000 034A     		ldr	r2, .L114
 1213 0002 D2F81031 		ldr	r3, [r2, #272]
 1214 0006 23F00403 		bic	r3, r3, #4
 1215 000a C2F81031 		str	r3, [r2, #272]
 760:Drivers/STM32H5xx_HAL_Driver/Src/stm32h5xx_hal.c **** }
 1216              		.loc 1 760 1 is_stmt 0 view .LVU227
 1217 000e 7047     		bx	lr
 1218              	.L115:
 1219              		.align	2
 1220              	.L114:
 1221 0010 00040044 		.word	1140851712
 1222              		.cfi_endproc
 1223              	.LFE191:
ARM GAS  C:\Users\sapph\AppData\Local\Temp\ccmhtm3h.s 			page 36


 1225              		.section	.text.HAL_SBS_VDDCompensationCodeSelect,"ax",%progbits
 1226              		.align	1
 1227              		.global	HAL_SBS_VDDCompensationCodeSelect
 1228              		.syntax unified
 1229              		.thumb
 1230              		.thumb_func
 1232              	HAL_SBS_VDDCompensationCodeSelect:
 1233              	.LVL40:
 1234              	.LFB192:
 761:Drivers/STM32H5xx_HAL_Driver/Src/stm32h5xx_hal.c **** 
 762:Drivers/STM32H5xx_HAL_Driver/Src/stm32h5xx_hal.c **** /**
 763:Drivers/STM32H5xx_HAL_Driver/Src/stm32h5xx_hal.c ****   * @brief  Code selection for the VDD I/O Compensation cell
 764:Drivers/STM32H5xx_HAL_Driver/Src/stm32h5xx_hal.c ****   * @param  SBS_CompCode: Selects the code to be applied for the I/O compensation cell
 765:Drivers/STM32H5xx_HAL_Driver/Src/stm32h5xx_hal.c ****   *         This parameter can be one of the following values:
 766:Drivers/STM32H5xx_HAL_Driver/Src/stm32h5xx_hal.c ****   *           @arg SBS_VDD_CELL_CODE : Select Code from the cell (available in the SBS_CCVALR)
 767:Drivers/STM32H5xx_HAL_Driver/Src/stm32h5xx_hal.c ****   *           @arg SBS_VDD_REGISTER_CODE: Select Code from the SBS compensation cell code register 
 768:Drivers/STM32H5xx_HAL_Driver/Src/stm32h5xx_hal.c ****   * @retval None
 769:Drivers/STM32H5xx_HAL_Driver/Src/stm32h5xx_hal.c ****   */
 770:Drivers/STM32H5xx_HAL_Driver/Src/stm32h5xx_hal.c **** void HAL_SBS_VDDCompensationCodeSelect(uint32_t SBS_CompCode)
 771:Drivers/STM32H5xx_HAL_Driver/Src/stm32h5xx_hal.c **** {
 1235              		.loc 1 771 1 is_stmt 1 view -0
 1236              		.cfi_startproc
 1237              		@ args = 0, pretend = 0, frame = 0
 1238              		@ frame_needed = 0, uses_anonymous_args = 0
 1239              		@ link register save eliminated.
 772:Drivers/STM32H5xx_HAL_Driver/Src/stm32h5xx_hal.c ****   /* Check the parameter */
 773:Drivers/STM32H5xx_HAL_Driver/Src/stm32h5xx_hal.c ****   assert_param(IS_SBS_VDD_CODE_SELECT(SBS_CompCode));
 1240              		.loc 1 773 3 view .LVU229
 774:Drivers/STM32H5xx_HAL_Driver/Src/stm32h5xx_hal.c ****   MODIFY_REG(SBS->CCCSR, SBS_CCCSR_CS1, (uint32_t)(SBS_CompCode));
 1241              		.loc 1 774 3 view .LVU230
 1242 0000 044A     		ldr	r2, .L117
 1243 0002 D2F81031 		ldr	r3, [r2, #272]
 1244 0006 23F00203 		bic	r3, r3, #2
 1245 000a 0343     		orrs	r3, r3, r0
 1246 000c C2F81031 		str	r3, [r2, #272]
 775:Drivers/STM32H5xx_HAL_Driver/Src/stm32h5xx_hal.c **** }
 1247              		.loc 1 775 1 is_stmt 0 view .LVU231
 1248 0010 7047     		bx	lr
 1249              	.L118:
 1250 0012 00BF     		.align	2
 1251              	.L117:
 1252 0014 00040044 		.word	1140851712
 1253              		.cfi_endproc
 1254              	.LFE192:
 1256              		.section	.text.HAL_SBS_VDDIOCompensationCodeSelect,"ax",%progbits
 1257              		.align	1
 1258              		.global	HAL_SBS_VDDIOCompensationCodeSelect
 1259              		.syntax unified
 1260              		.thumb
 1261              		.thumb_func
 1263              	HAL_SBS_VDDIOCompensationCodeSelect:
 1264              	.LVL41:
 1265              	.LFB193:
 776:Drivers/STM32H5xx_HAL_Driver/Src/stm32h5xx_hal.c **** 
 777:Drivers/STM32H5xx_HAL_Driver/Src/stm32h5xx_hal.c **** /**
 778:Drivers/STM32H5xx_HAL_Driver/Src/stm32h5xx_hal.c ****   * @brief  Code selection for the VDDIO I/O Compensation cell
 779:Drivers/STM32H5xx_HAL_Driver/Src/stm32h5xx_hal.c ****   * @param  SBS_CompCode: Selects the code to be applied for the I/O compensation cell
ARM GAS  C:\Users\sapph\AppData\Local\Temp\ccmhtm3h.s 			page 37


 780:Drivers/STM32H5xx_HAL_Driver/Src/stm32h5xx_hal.c ****   *         This parameter can be one of the following values:
 781:Drivers/STM32H5xx_HAL_Driver/Src/stm32h5xx_hal.c ****   *           @arg SBS_VDDIO_CELL_CODE : Select Code from the cell (available in the SBS_CCVALR)
 782:Drivers/STM32H5xx_HAL_Driver/Src/stm32h5xx_hal.c ****   *           @arg SBS_VDDIO_REGISTER_CODE: Select Code from the SBS compensation cell code registe
 783:Drivers/STM32H5xx_HAL_Driver/Src/stm32h5xx_hal.c ****   * @retval None
 784:Drivers/STM32H5xx_HAL_Driver/Src/stm32h5xx_hal.c ****   */
 785:Drivers/STM32H5xx_HAL_Driver/Src/stm32h5xx_hal.c **** void HAL_SBS_VDDIOCompensationCodeSelect(uint32_t SBS_CompCode)
 786:Drivers/STM32H5xx_HAL_Driver/Src/stm32h5xx_hal.c **** {
 1266              		.loc 1 786 1 is_stmt 1 view -0
 1267              		.cfi_startproc
 1268              		@ args = 0, pretend = 0, frame = 0
 1269              		@ frame_needed = 0, uses_anonymous_args = 0
 1270              		@ link register save eliminated.
 787:Drivers/STM32H5xx_HAL_Driver/Src/stm32h5xx_hal.c ****   /* Check the parameter */
 788:Drivers/STM32H5xx_HAL_Driver/Src/stm32h5xx_hal.c ****   assert_param(IS_SBS_VDDIO_CODE_SELECT(SBS_CompCode));
 1271              		.loc 1 788 3 view .LVU233
 789:Drivers/STM32H5xx_HAL_Driver/Src/stm32h5xx_hal.c ****   MODIFY_REG(SBS->CCCSR, SBS_CCCSR_CS2, (uint32_t)(SBS_CompCode));
 1272              		.loc 1 789 3 view .LVU234
 1273 0000 044A     		ldr	r2, .L120
 1274 0002 D2F81031 		ldr	r3, [r2, #272]
 1275 0006 23F00803 		bic	r3, r3, #8
 1276 000a 0343     		orrs	r3, r3, r0
 1277 000c C2F81031 		str	r3, [r2, #272]
 790:Drivers/STM32H5xx_HAL_Driver/Src/stm32h5xx_hal.c **** }
 1278              		.loc 1 790 1 is_stmt 0 view .LVU235
 1279 0010 7047     		bx	lr
 1280              	.L121:
 1281 0012 00BF     		.align	2
 1282              	.L120:
 1283 0014 00040044 		.word	1140851712
 1284              		.cfi_endproc
 1285              	.LFE193:
 1287              		.section	.text.HAL_SBS_GetVddIO1CompensationCellReadyFlag,"ax",%progbits
 1288              		.align	1
 1289              		.global	HAL_SBS_GetVddIO1CompensationCellReadyFlag
 1290              		.syntax unified
 1291              		.thumb
 1292              		.thumb_func
 1294              	HAL_SBS_GetVddIO1CompensationCellReadyFlag:
 1295              	.LFB194:
 791:Drivers/STM32H5xx_HAL_Driver/Src/stm32h5xx_hal.c **** 
 792:Drivers/STM32H5xx_HAL_Driver/Src/stm32h5xx_hal.c **** /**
 793:Drivers/STM32H5xx_HAL_Driver/Src/stm32h5xx_hal.c ****   * @brief  VDDIO1 I/O Compensation cell get ready flag status
 794:Drivers/STM32H5xx_HAL_Driver/Src/stm32h5xx_hal.c ****   * @retval State of bit (1 or 0).
 795:Drivers/STM32H5xx_HAL_Driver/Src/stm32h5xx_hal.c ****   */
 796:Drivers/STM32H5xx_HAL_Driver/Src/stm32h5xx_hal.c **** uint32_t HAL_SBS_GetVddIO1CompensationCellReadyFlag(void)
 797:Drivers/STM32H5xx_HAL_Driver/Src/stm32h5xx_hal.c **** {
 1296              		.loc 1 797 1 is_stmt 1 view -0
 1297              		.cfi_startproc
 1298              		@ args = 0, pretend = 0, frame = 0
 1299              		@ frame_needed = 0, uses_anonymous_args = 0
 1300              		@ link register save eliminated.
 798:Drivers/STM32H5xx_HAL_Driver/Src/stm32h5xx_hal.c ****   return ((READ_BIT(SBS->CCCSR, SBS_CCCSR_RDY1) == SBS_CCCSR_RDY1) ? 1UL : 0UL);
 1301              		.loc 1 798 3 view .LVU237
 1302              		.loc 1 798 12 is_stmt 0 view .LVU238
 1303 0000 034B     		ldr	r3, .L124
 1304 0002 D3F81001 		ldr	r0, [r3, #272]
 1305              		.loc 1 798 74 view .LVU239
ARM GAS  C:\Users\sapph\AppData\Local\Temp\ccmhtm3h.s 			page 38


 1306 0006 10F48070 		ands	r0, r0, #256
 1307 000a 00D0     		beq	.L122
 1308              		.loc 1 798 74 discriminator 1 view .LVU240
 1309 000c 0120     		movs	r0, #1
 1310              	.L122:
 799:Drivers/STM32H5xx_HAL_Driver/Src/stm32h5xx_hal.c **** }
 1311              		.loc 1 799 1 view .LVU241
 1312 000e 7047     		bx	lr
 1313              	.L125:
 1314              		.align	2
 1315              	.L124:
 1316 0010 00040044 		.word	1140851712
 1317              		.cfi_endproc
 1318              	.LFE194:
 1320              		.section	.text.HAL_SBS_GetVddIO2CompensationCellReadyFlag,"ax",%progbits
 1321              		.align	1
 1322              		.global	HAL_SBS_GetVddIO2CompensationCellReadyFlag
 1323              		.syntax unified
 1324              		.thumb
 1325              		.thumb_func
 1327              	HAL_SBS_GetVddIO2CompensationCellReadyFlag:
 1328              	.LFB195:
 800:Drivers/STM32H5xx_HAL_Driver/Src/stm32h5xx_hal.c **** 
 801:Drivers/STM32H5xx_HAL_Driver/Src/stm32h5xx_hal.c **** /**
 802:Drivers/STM32H5xx_HAL_Driver/Src/stm32h5xx_hal.c ****   * @brief  VDDIO2 I/O Compensation cell get ready flag status
 803:Drivers/STM32H5xx_HAL_Driver/Src/stm32h5xx_hal.c ****   * @retval State of bit (1 or 0).
 804:Drivers/STM32H5xx_HAL_Driver/Src/stm32h5xx_hal.c ****   */
 805:Drivers/STM32H5xx_HAL_Driver/Src/stm32h5xx_hal.c **** uint32_t HAL_SBS_GetVddIO2CompensationCellReadyFlag(void)
 806:Drivers/STM32H5xx_HAL_Driver/Src/stm32h5xx_hal.c **** {
 1329              		.loc 1 806 1 is_stmt 1 view -0
 1330              		.cfi_startproc
 1331              		@ args = 0, pretend = 0, frame = 0
 1332              		@ frame_needed = 0, uses_anonymous_args = 0
 1333              		@ link register save eliminated.
 807:Drivers/STM32H5xx_HAL_Driver/Src/stm32h5xx_hal.c ****   return ((READ_BIT(SBS->CCCSR, SBS_CCCSR_RDY2) == SBS_CCCSR_RDY2) ? 1UL : 0UL);
 1334              		.loc 1 807 3 view .LVU243
 1335              		.loc 1 807 12 is_stmt 0 view .LVU244
 1336 0000 034B     		ldr	r3, .L128
 1337 0002 D3F81001 		ldr	r0, [r3, #272]
 1338              		.loc 1 807 74 view .LVU245
 1339 0006 10F40070 		ands	r0, r0, #512
 1340 000a 00D0     		beq	.L126
 1341              		.loc 1 807 74 discriminator 1 view .LVU246
 1342 000c 0120     		movs	r0, #1
 1343              	.L126:
 808:Drivers/STM32H5xx_HAL_Driver/Src/stm32h5xx_hal.c **** }
 1344              		.loc 1 808 1 view .LVU247
 1345 000e 7047     		bx	lr
 1346              	.L129:
 1347              		.align	2
 1348              	.L128:
 1349 0010 00040044 		.word	1140851712
 1350              		.cfi_endproc
 1351              	.LFE195:
 1353              		.section	.text.HAL_SBS_VDDCompensationCodeConfig,"ax",%progbits
 1354              		.align	1
 1355              		.global	HAL_SBS_VDDCompensationCodeConfig
ARM GAS  C:\Users\sapph\AppData\Local\Temp\ccmhtm3h.s 			page 39


 1356              		.syntax unified
 1357              		.thumb
 1358              		.thumb_func
 1360              	HAL_SBS_VDDCompensationCodeConfig:
 1361              	.LVL42:
 1362              	.LFB196:
 809:Drivers/STM32H5xx_HAL_Driver/Src/stm32h5xx_hal.c **** 
 810:Drivers/STM32H5xx_HAL_Driver/Src/stm32h5xx_hal.c **** /**
 811:Drivers/STM32H5xx_HAL_Driver/Src/stm32h5xx_hal.c ****   * @brief  Code configuration for the VDD I/O Compensation cell
 812:Drivers/STM32H5xx_HAL_Driver/Src/stm32h5xx_hal.c ****   * @param  SBS_PMOSCode: PMOS compensation code
 813:Drivers/STM32H5xx_HAL_Driver/Src/stm32h5xx_hal.c ****   *         This code is applied to the VDD I/O compensation cell when the CS1 bit of the
 814:Drivers/STM32H5xx_HAL_Driver/Src/stm32h5xx_hal.c ****   *          SBS_CCSR is set
 815:Drivers/STM32H5xx_HAL_Driver/Src/stm32h5xx_hal.c ****   * @param  SBS_NMOSCode: NMOS compensation code
 816:Drivers/STM32H5xx_HAL_Driver/Src/stm32h5xx_hal.c ****   *         This code is applied to the VDD I/O compensation cell when the CS1 bit of the
 817:Drivers/STM32H5xx_HAL_Driver/Src/stm32h5xx_hal.c ****   *          SBS_CCSR is set
 818:Drivers/STM32H5xx_HAL_Driver/Src/stm32h5xx_hal.c ****   * @retval None
 819:Drivers/STM32H5xx_HAL_Driver/Src/stm32h5xx_hal.c ****   */
 820:Drivers/STM32H5xx_HAL_Driver/Src/stm32h5xx_hal.c **** void HAL_SBS_VDDCompensationCodeConfig(uint32_t SBS_PMOSCode, uint32_t SBS_NMOSCode)
 821:Drivers/STM32H5xx_HAL_Driver/Src/stm32h5xx_hal.c **** {
 1363              		.loc 1 821 1 is_stmt 1 view -0
 1364              		.cfi_startproc
 1365              		@ args = 0, pretend = 0, frame = 0
 1366              		@ frame_needed = 0, uses_anonymous_args = 0
 1367              		@ link register save eliminated.
 822:Drivers/STM32H5xx_HAL_Driver/Src/stm32h5xx_hal.c ****   /* Check the parameter */
 823:Drivers/STM32H5xx_HAL_Driver/Src/stm32h5xx_hal.c ****   assert_param(IS_SBS_CODE_CONFIG(SBS_PMOSCode));
 1368              		.loc 1 823 3 view .LVU249
 824:Drivers/STM32H5xx_HAL_Driver/Src/stm32h5xx_hal.c ****   assert_param(IS_SBS_CODE_CONFIG(SBS_NMOSCode));
 1369              		.loc 1 824 3 view .LVU250
 825:Drivers/STM32H5xx_HAL_Driver/Src/stm32h5xx_hal.c ****   MODIFY_REG(SBS->CCSWCR, SBS_CCSWCR_SW_ANSRC1 | SBS_CCSWCR_SW_APSRC1, (((uint32_t)(SBS_PMOSCode) <
 1370              		.loc 1 825 3 view .LVU251
 1371 0000 054A     		ldr	r2, .L131
 1372 0002 D2F81831 		ldr	r3, [r2, #280]
 1373 0006 23F0FF03 		bic	r3, r3, #255
 1374 000a 41EA0011 		orr	r1, r1, r0, lsl #4
 1375              	.LVL43:
 1376              		.loc 1 825 3 is_stmt 0 view .LVU252
 1377 000e 0B43     		orrs	r3, r3, r1
 1378 0010 C2F81831 		str	r3, [r2, #280]
 826:Drivers/STM32H5xx_HAL_Driver/Src/stm32h5xx_hal.c ****                                                                         (uint32_t)(SBS_NMOSCode)));
 827:Drivers/STM32H5xx_HAL_Driver/Src/stm32h5xx_hal.c **** }
 1379              		.loc 1 827 1 view .LVU253
 1380 0014 7047     		bx	lr
 1381              	.L132:
 1382 0016 00BF     		.align	2
 1383              	.L131:
 1384 0018 00040044 		.word	1140851712
 1385              		.cfi_endproc
 1386              	.LFE196:
 1388              		.section	.text.HAL_SBS_VDDIOCompensationCodeConfig,"ax",%progbits
 1389              		.align	1
 1390              		.global	HAL_SBS_VDDIOCompensationCodeConfig
 1391              		.syntax unified
 1392              		.thumb
 1393              		.thumb_func
 1395              	HAL_SBS_VDDIOCompensationCodeConfig:
 1396              	.LVL44:
ARM GAS  C:\Users\sapph\AppData\Local\Temp\ccmhtm3h.s 			page 40


 1397              	.LFB197:
 828:Drivers/STM32H5xx_HAL_Driver/Src/stm32h5xx_hal.c **** 
 829:Drivers/STM32H5xx_HAL_Driver/Src/stm32h5xx_hal.c **** /**
 830:Drivers/STM32H5xx_HAL_Driver/Src/stm32h5xx_hal.c ****   * @brief  Code configuration for the VDDIO I/O Compensation cell
 831:Drivers/STM32H5xx_HAL_Driver/Src/stm32h5xx_hal.c ****   * @param  SBS_PMOSCode: PMOS compensation code
 832:Drivers/STM32H5xx_HAL_Driver/Src/stm32h5xx_hal.c ****   *         This code is applied to the VDDIO I/O compensation cell when the CS2 bit of the
 833:Drivers/STM32H5xx_HAL_Driver/Src/stm32h5xx_hal.c ****   *          SBS_CCSR is set
 834:Drivers/STM32H5xx_HAL_Driver/Src/stm32h5xx_hal.c ****   * @param  SBS_NMOSCode: NMOS compensation code
 835:Drivers/STM32H5xx_HAL_Driver/Src/stm32h5xx_hal.c ****   *         This code is applied to the VDDIO I/O compensation cell when the CS2 bit of the
 836:Drivers/STM32H5xx_HAL_Driver/Src/stm32h5xx_hal.c ****   *          SBS_CCSR is set
 837:Drivers/STM32H5xx_HAL_Driver/Src/stm32h5xx_hal.c ****   * @retval None
 838:Drivers/STM32H5xx_HAL_Driver/Src/stm32h5xx_hal.c ****   */
 839:Drivers/STM32H5xx_HAL_Driver/Src/stm32h5xx_hal.c **** void HAL_SBS_VDDIOCompensationCodeConfig(uint32_t SBS_PMOSCode, uint32_t SBS_NMOSCode)
 840:Drivers/STM32H5xx_HAL_Driver/Src/stm32h5xx_hal.c **** {
 1398              		.loc 1 840 1 is_stmt 1 view -0
 1399              		.cfi_startproc
 1400              		@ args = 0, pretend = 0, frame = 0
 1401              		@ frame_needed = 0, uses_anonymous_args = 0
 1402              		@ link register save eliminated.
 841:Drivers/STM32H5xx_HAL_Driver/Src/stm32h5xx_hal.c ****   /* Check the parameter */
 842:Drivers/STM32H5xx_HAL_Driver/Src/stm32h5xx_hal.c ****   assert_param(IS_SBS_CODE_CONFIG(SBS_PMOSCode));
 1403              		.loc 1 842 3 view .LVU255
 843:Drivers/STM32H5xx_HAL_Driver/Src/stm32h5xx_hal.c ****   assert_param(IS_SBS_CODE_CONFIG(SBS_NMOSCode));
 1404              		.loc 1 843 3 view .LVU256
 844:Drivers/STM32H5xx_HAL_Driver/Src/stm32h5xx_hal.c ****   MODIFY_REG(SBS->CCSWCR, SBS_CCSWCR_SW_ANSRC2 | SBS_CCSWCR_SW_APSRC2, (((uint32_t)(SBS_PMOSCode) <
 1405              		.loc 1 844 3 view .LVU257
 1406 0000 054A     		ldr	r2, .L134
 1407 0002 D2F81831 		ldr	r3, [r2, #280]
 1408 0006 23F47F43 		bic	r3, r3, #65280
 1409 000a 0902     		lsls	r1, r1, #8
 1410              	.LVL45:
 1411              		.loc 1 844 3 is_stmt 0 view .LVU258
 1412 000c 41EA0031 		orr	r1, r1, r0, lsl #12
 1413 0010 0B43     		orrs	r3, r3, r1
 1414 0012 C2F81831 		str	r3, [r2, #280]
 845:Drivers/STM32H5xx_HAL_Driver/Src/stm32h5xx_hal.c ****                                                                         ((uint32_t)(SBS_NMOSCode) <
 846:Drivers/STM32H5xx_HAL_Driver/Src/stm32h5xx_hal.c **** }
 1415              		.loc 1 846 1 view .LVU259
 1416 0016 7047     		bx	lr
 1417              	.L135:
 1418              		.align	2
 1419              	.L134:
 1420 0018 00040044 		.word	1140851712
 1421              		.cfi_endproc
 1422              	.LFE197:
 1424              		.section	.text.HAL_SBS_GetNMOSVddCompensationValue,"ax",%progbits
 1425              		.align	1
 1426              		.global	HAL_SBS_GetNMOSVddCompensationValue
 1427              		.syntax unified
 1428              		.thumb
 1429              		.thumb_func
 1431              	HAL_SBS_GetNMOSVddCompensationValue:
 1432              	.LFB198:
 847:Drivers/STM32H5xx_HAL_Driver/Src/stm32h5xx_hal.c **** 
 848:Drivers/STM32H5xx_HAL_Driver/Src/stm32h5xx_hal.c **** /**
 849:Drivers/STM32H5xx_HAL_Driver/Src/stm32h5xx_hal.c ****   * @brief  Get NMOS compensation value of the I/Os supplied by VDD
 850:Drivers/STM32H5xx_HAL_Driver/Src/stm32h5xx_hal.c ****   * @retval None
ARM GAS  C:\Users\sapph\AppData\Local\Temp\ccmhtm3h.s 			page 41


 851:Drivers/STM32H5xx_HAL_Driver/Src/stm32h5xx_hal.c ****   */
 852:Drivers/STM32H5xx_HAL_Driver/Src/stm32h5xx_hal.c **** uint32_t HAL_SBS_GetNMOSVddCompensationValue(void)
 853:Drivers/STM32H5xx_HAL_Driver/Src/stm32h5xx_hal.c **** {
 1433              		.loc 1 853 1 is_stmt 1 view -0
 1434              		.cfi_startproc
 1435              		@ args = 0, pretend = 0, frame = 0
 1436              		@ frame_needed = 0, uses_anonymous_args = 0
 1437              		@ link register save eliminated.
 854:Drivers/STM32H5xx_HAL_Driver/Src/stm32h5xx_hal.c ****   return (uint32_t)(READ_BIT(SBS->CCVALR, SBS_CCVALR_ANSRC1));
 1438              		.loc 1 854 3 view .LVU261
 1439              		.loc 1 854 21 is_stmt 0 view .LVU262
 1440 0000 024B     		ldr	r3, .L137
 1441 0002 D3F81401 		ldr	r0, [r3, #276]
 855:Drivers/STM32H5xx_HAL_Driver/Src/stm32h5xx_hal.c **** }
 1442              		.loc 1 855 1 view .LVU263
 1443 0006 00F00F00 		and	r0, r0, #15
 1444 000a 7047     		bx	lr
 1445              	.L138:
 1446              		.align	2
 1447              	.L137:
 1448 000c 00040044 		.word	1140851712
 1449              		.cfi_endproc
 1450              	.LFE198:
 1452              		.section	.text.HAL_SBS_GetPMOSVddCompensationValue,"ax",%progbits
 1453              		.align	1
 1454              		.global	HAL_SBS_GetPMOSVddCompensationValue
 1455              		.syntax unified
 1456              		.thumb
 1457              		.thumb_func
 1459              	HAL_SBS_GetPMOSVddCompensationValue:
 1460              	.LFB199:
 856:Drivers/STM32H5xx_HAL_Driver/Src/stm32h5xx_hal.c **** 
 857:Drivers/STM32H5xx_HAL_Driver/Src/stm32h5xx_hal.c **** /**
 858:Drivers/STM32H5xx_HAL_Driver/Src/stm32h5xx_hal.c ****   * @brief  Get PMOS compensation value of the I/Os supplied by VDD
 859:Drivers/STM32H5xx_HAL_Driver/Src/stm32h5xx_hal.c ****   * @retval None
 860:Drivers/STM32H5xx_HAL_Driver/Src/stm32h5xx_hal.c ****   */
 861:Drivers/STM32H5xx_HAL_Driver/Src/stm32h5xx_hal.c **** uint32_t HAL_SBS_GetPMOSVddCompensationValue(void)
 862:Drivers/STM32H5xx_HAL_Driver/Src/stm32h5xx_hal.c **** {
 1461              		.loc 1 862 1 is_stmt 1 view -0
 1462              		.cfi_startproc
 1463              		@ args = 0, pretend = 0, frame = 0
 1464              		@ frame_needed = 0, uses_anonymous_args = 0
 1465              		@ link register save eliminated.
 863:Drivers/STM32H5xx_HAL_Driver/Src/stm32h5xx_hal.c ****   return (uint32_t)(READ_BIT(SBS->CCVALR, SBS_CCVALR_APSRC1) >>  SBS_CCVALR_APSRC1_Pos);
 1466              		.loc 1 863 3 view .LVU265
 1467              		.loc 1 863 21 is_stmt 0 view .LVU266
 1468 0000 024B     		ldr	r3, .L140
 1469 0002 D3F81401 		ldr	r0, [r3, #276]
 864:Drivers/STM32H5xx_HAL_Driver/Src/stm32h5xx_hal.c **** }
 1470              		.loc 1 864 1 view .LVU267
 1471 0006 C0F30310 		ubfx	r0, r0, #4, #4
 1472 000a 7047     		bx	lr
 1473              	.L141:
 1474              		.align	2
 1475              	.L140:
 1476 000c 00040044 		.word	1140851712
 1477              		.cfi_endproc
ARM GAS  C:\Users\sapph\AppData\Local\Temp\ccmhtm3h.s 			page 42


 1478              	.LFE199:
 1480              		.section	.text.HAL_SBS_GetNMOSVddIO2CompensationValue,"ax",%progbits
 1481              		.align	1
 1482              		.global	HAL_SBS_GetNMOSVddIO2CompensationValue
 1483              		.syntax unified
 1484              		.thumb
 1485              		.thumb_func
 1487              	HAL_SBS_GetNMOSVddIO2CompensationValue:
 1488              	.LFB200:
 865:Drivers/STM32H5xx_HAL_Driver/Src/stm32h5xx_hal.c **** 
 866:Drivers/STM32H5xx_HAL_Driver/Src/stm32h5xx_hal.c **** /**
 867:Drivers/STM32H5xx_HAL_Driver/Src/stm32h5xx_hal.c ****   * @brief  Get NMOS compensation value of the I/Os supplied by VDDIO2
 868:Drivers/STM32H5xx_HAL_Driver/Src/stm32h5xx_hal.c ****   * @retval None
 869:Drivers/STM32H5xx_HAL_Driver/Src/stm32h5xx_hal.c ****   */
 870:Drivers/STM32H5xx_HAL_Driver/Src/stm32h5xx_hal.c **** uint32_t HAL_SBS_GetNMOSVddIO2CompensationValue(void)
 871:Drivers/STM32H5xx_HAL_Driver/Src/stm32h5xx_hal.c **** {
 1489              		.loc 1 871 1 is_stmt 1 view -0
 1490              		.cfi_startproc
 1491              		@ args = 0, pretend = 0, frame = 0
 1492              		@ frame_needed = 0, uses_anonymous_args = 0
 1493              		@ link register save eliminated.
 872:Drivers/STM32H5xx_HAL_Driver/Src/stm32h5xx_hal.c ****   return (uint32_t)(READ_BIT(SBS->CCVALR, SBS_CCVALR_ANSRC2) >>  SBS_CCVALR_ANSRC2_Pos);
 1494              		.loc 1 872 3 view .LVU269
 1495              		.loc 1 872 21 is_stmt 0 view .LVU270
 1496 0000 024B     		ldr	r3, .L143
 1497 0002 D3F81401 		ldr	r0, [r3, #276]
 873:Drivers/STM32H5xx_HAL_Driver/Src/stm32h5xx_hal.c **** }
 1498              		.loc 1 873 1 view .LVU271
 1499 0006 C0F30320 		ubfx	r0, r0, #8, #4
 1500 000a 7047     		bx	lr
 1501              	.L144:
 1502              		.align	2
 1503              	.L143:
 1504 000c 00040044 		.word	1140851712
 1505              		.cfi_endproc
 1506              	.LFE200:
 1508              		.section	.text.HAL_SBS_GetPMOSVddIO2CompensationValue,"ax",%progbits
 1509              		.align	1
 1510              		.global	HAL_SBS_GetPMOSVddIO2CompensationValue
 1511              		.syntax unified
 1512              		.thumb
 1513              		.thumb_func
 1515              	HAL_SBS_GetPMOSVddIO2CompensationValue:
 1516              	.LFB201:
 874:Drivers/STM32H5xx_HAL_Driver/Src/stm32h5xx_hal.c **** 
 875:Drivers/STM32H5xx_HAL_Driver/Src/stm32h5xx_hal.c **** 
 876:Drivers/STM32H5xx_HAL_Driver/Src/stm32h5xx_hal.c **** /**
 877:Drivers/STM32H5xx_HAL_Driver/Src/stm32h5xx_hal.c ****   * @brief  Get PMOS compensation value of the I/Os supplied by VDDIO2
 878:Drivers/STM32H5xx_HAL_Driver/Src/stm32h5xx_hal.c ****   * @retval None
 879:Drivers/STM32H5xx_HAL_Driver/Src/stm32h5xx_hal.c ****   */
 880:Drivers/STM32H5xx_HAL_Driver/Src/stm32h5xx_hal.c **** uint32_t HAL_SBS_GetPMOSVddIO2CompensationValue(void)
 881:Drivers/STM32H5xx_HAL_Driver/Src/stm32h5xx_hal.c **** {
 1517              		.loc 1 881 1 is_stmt 1 view -0
 1518              		.cfi_startproc
 1519              		@ args = 0, pretend = 0, frame = 0
 1520              		@ frame_needed = 0, uses_anonymous_args = 0
 1521              		@ link register save eliminated.
ARM GAS  C:\Users\sapph\AppData\Local\Temp\ccmhtm3h.s 			page 43


 882:Drivers/STM32H5xx_HAL_Driver/Src/stm32h5xx_hal.c ****   return (uint32_t)(READ_BIT(SBS->CCVALR, SBS_CCVALR_APSRC2) >>  SBS_CCVALR_APSRC2_Pos);
 1522              		.loc 1 882 3 view .LVU273
 1523              		.loc 1 882 21 is_stmt 0 view .LVU274
 1524 0000 024B     		ldr	r3, .L146
 1525 0002 D3F81401 		ldr	r0, [r3, #276]
 883:Drivers/STM32H5xx_HAL_Driver/Src/stm32h5xx_hal.c **** }
 1526              		.loc 1 883 1 view .LVU275
 1527 0006 C0F30330 		ubfx	r0, r0, #12, #4
 1528 000a 7047     		bx	lr
 1529              	.L147:
 1530              		.align	2
 1531              	.L146:
 1532 000c 00040044 		.word	1140851712
 1533              		.cfi_endproc
 1534              	.LFE201:
 1536              		.section	.text.HAL_SBS_FLASH_DisableECCNMI,"ax",%progbits
 1537              		.align	1
 1538              		.global	HAL_SBS_FLASH_DisableECCNMI
 1539              		.syntax unified
 1540              		.thumb
 1541              		.thumb_func
 1543              	HAL_SBS_FLASH_DisableECCNMI:
 1544              	.LFB202:
 884:Drivers/STM32H5xx_HAL_Driver/Src/stm32h5xx_hal.c **** 
 885:Drivers/STM32H5xx_HAL_Driver/Src/stm32h5xx_hal.c **** /**
 886:Drivers/STM32H5xx_HAL_Driver/Src/stm32h5xx_hal.c ****   * @brief  Disable the NMI in case of double ECC error in FLASH Interface.
 887:Drivers/STM32H5xx_HAL_Driver/Src/stm32h5xx_hal.c ****   *
 888:Drivers/STM32H5xx_HAL_Driver/Src/stm32h5xx_hal.c ****   * @retval None
 889:Drivers/STM32H5xx_HAL_Driver/Src/stm32h5xx_hal.c ****   */
 890:Drivers/STM32H5xx_HAL_Driver/Src/stm32h5xx_hal.c **** void HAL_SBS_FLASH_DisableECCNMI(void)
 891:Drivers/STM32H5xx_HAL_Driver/Src/stm32h5xx_hal.c **** {
 1545              		.loc 1 891 1 is_stmt 1 view -0
 1546              		.cfi_startproc
 1547              		@ args = 0, pretend = 0, frame = 0
 1548              		@ frame_needed = 0, uses_anonymous_args = 0
 1549              		@ link register save eliminated.
 892:Drivers/STM32H5xx_HAL_Driver/Src/stm32h5xx_hal.c ****   SET_BIT(SBS->ECCNMIR, SBS_ECCNMIR_ECCNMI_MASK_EN);
 1550              		.loc 1 892 3 view .LVU277
 1551 0000 034A     		ldr	r2, .L149
 1552 0002 D2F84C31 		ldr	r3, [r2, #332]
 1553 0006 43F00103 		orr	r3, r3, #1
 1554 000a C2F84C31 		str	r3, [r2, #332]
 893:Drivers/STM32H5xx_HAL_Driver/Src/stm32h5xx_hal.c **** }
 1555              		.loc 1 893 1 is_stmt 0 view .LVU278
 1556 000e 7047     		bx	lr
 1557              	.L150:
 1558              		.align	2
 1559              	.L149:
 1560 0010 00040044 		.word	1140851712
 1561              		.cfi_endproc
 1562              	.LFE202:
 1564              		.section	.text.HAL_SBS_FLASH_EnableECCNMI,"ax",%progbits
 1565              		.align	1
 1566              		.global	HAL_SBS_FLASH_EnableECCNMI
 1567              		.syntax unified
 1568              		.thumb
 1569              		.thumb_func
ARM GAS  C:\Users\sapph\AppData\Local\Temp\ccmhtm3h.s 			page 44


 1571              	HAL_SBS_FLASH_EnableECCNMI:
 1572              	.LFB203:
 894:Drivers/STM32H5xx_HAL_Driver/Src/stm32h5xx_hal.c **** 
 895:Drivers/STM32H5xx_HAL_Driver/Src/stm32h5xx_hal.c **** /**
 896:Drivers/STM32H5xx_HAL_Driver/Src/stm32h5xx_hal.c ****   * @brief  Enable the NMI in case of double ECC error in FLASH Interface.
 897:Drivers/STM32H5xx_HAL_Driver/Src/stm32h5xx_hal.c ****   *
 898:Drivers/STM32H5xx_HAL_Driver/Src/stm32h5xx_hal.c ****   * @retval None
 899:Drivers/STM32H5xx_HAL_Driver/Src/stm32h5xx_hal.c ****   */
 900:Drivers/STM32H5xx_HAL_Driver/Src/stm32h5xx_hal.c **** void HAL_SBS_FLASH_EnableECCNMI(void)
 901:Drivers/STM32H5xx_HAL_Driver/Src/stm32h5xx_hal.c **** {
 1573              		.loc 1 901 1 is_stmt 1 view -0
 1574              		.cfi_startproc
 1575              		@ args = 0, pretend = 0, frame = 0
 1576              		@ frame_needed = 0, uses_anonymous_args = 0
 1577              		@ link register save eliminated.
 902:Drivers/STM32H5xx_HAL_Driver/Src/stm32h5xx_hal.c ****   CLEAR_BIT(SBS->ECCNMIR, SBS_ECCNMIR_ECCNMI_MASK_EN);
 1578              		.loc 1 902 3 view .LVU280
 1579 0000 034A     		ldr	r2, .L152
 1580 0002 D2F84C31 		ldr	r3, [r2, #332]
 1581 0006 23F00103 		bic	r3, r3, #1
 1582 000a C2F84C31 		str	r3, [r2, #332]
 903:Drivers/STM32H5xx_HAL_Driver/Src/stm32h5xx_hal.c **** }
 1583              		.loc 1 903 1 is_stmt 0 view .LVU281
 1584 000e 7047     		bx	lr
 1585              	.L153:
 1586              		.align	2
 1587              	.L152:
 1588 0010 00040044 		.word	1140851712
 1589              		.cfi_endproc
 1590              	.LFE203:
 1592              		.section	.text.HAL_SBS_FLASH_ECCNMI_IsDisabled,"ax",%progbits
 1593              		.align	1
 1594              		.global	HAL_SBS_FLASH_ECCNMI_IsDisabled
 1595              		.syntax unified
 1596              		.thumb
 1597              		.thumb_func
 1599              	HAL_SBS_FLASH_ECCNMI_IsDisabled:
 1600              	.LFB204:
 904:Drivers/STM32H5xx_HAL_Driver/Src/stm32h5xx_hal.c **** 
 905:Drivers/STM32H5xx_HAL_Driver/Src/stm32h5xx_hal.c **** /**
 906:Drivers/STM32H5xx_HAL_Driver/Src/stm32h5xx_hal.c ****   * @brief  Check if the NMI is Enabled in case of double ECC error in FLASH Interface.
 907:Drivers/STM32H5xx_HAL_Driver/Src/stm32h5xx_hal.c ****   *
 908:Drivers/STM32H5xx_HAL_Driver/Src/stm32h5xx_hal.c ****   * @retval State of bit (1 or 0).
 909:Drivers/STM32H5xx_HAL_Driver/Src/stm32h5xx_hal.c ****   */
 910:Drivers/STM32H5xx_HAL_Driver/Src/stm32h5xx_hal.c **** uint32_t HAL_SBS_FLASH_ECCNMI_IsDisabled(void)
 911:Drivers/STM32H5xx_HAL_Driver/Src/stm32h5xx_hal.c **** {
 1601              		.loc 1 911 1 is_stmt 1 view -0
 1602              		.cfi_startproc
 1603              		@ args = 0, pretend = 0, frame = 0
 1604              		@ frame_needed = 0, uses_anonymous_args = 0
 1605              		@ link register save eliminated.
 912:Drivers/STM32H5xx_HAL_Driver/Src/stm32h5xx_hal.c ****   return ((READ_BIT(SBS->ECCNMIR, SBS_ECCNMIR_ECCNMI_MASK_EN) == SBS_ECCNMIR_ECCNMI_MASK_EN) ? 1UL 
 1606              		.loc 1 912 3 view .LVU283
 1607              		.loc 1 912 12 is_stmt 0 view .LVU284
 1608 0000 034B     		ldr	r3, .L156
 1609 0002 D3F84C01 		ldr	r0, [r3, #332]
 1610              		.loc 1 912 100 view .LVU285
ARM GAS  C:\Users\sapph\AppData\Local\Temp\ccmhtm3h.s 			page 45


 1611 0006 10F00100 		ands	r0, r0, #1
 1612 000a 00D0     		beq	.L154
 1613              		.loc 1 912 100 discriminator 1 view .LVU286
 1614 000c 0120     		movs	r0, #1
 1615              	.L154:
 913:Drivers/STM32H5xx_HAL_Driver/Src/stm32h5xx_hal.c **** }
 1616              		.loc 1 913 1 view .LVU287
 1617 000e 7047     		bx	lr
 1618              	.L157:
 1619              		.align	2
 1620              	.L156:
 1621 0010 00040044 		.word	1140851712
 1622              		.cfi_endproc
 1623              	.LFE204:
 1625              		.section	.text.HAL_SBS_IncrementHDPLValue,"ax",%progbits
 1626              		.align	1
 1627              		.global	HAL_SBS_IncrementHDPLValue
 1628              		.syntax unified
 1629              		.thumb
 1630              		.thumb_func
 1632              	HAL_SBS_IncrementHDPLValue:
 1633              	.LFB205:
 914:Drivers/STM32H5xx_HAL_Driver/Src/stm32h5xx_hal.c **** 
 915:Drivers/STM32H5xx_HAL_Driver/Src/stm32h5xx_hal.c **** /**
 916:Drivers/STM32H5xx_HAL_Driver/Src/stm32h5xx_hal.c ****   * @}
 917:Drivers/STM32H5xx_HAL_Driver/Src/stm32h5xx_hal.c ****   */
 918:Drivers/STM32H5xx_HAL_Driver/Src/stm32h5xx_hal.c **** 
 919:Drivers/STM32H5xx_HAL_Driver/Src/stm32h5xx_hal.c **** /** @defgroup HAL_Exported_Functions_Group6 HAL SBS Boot control functions
 920:Drivers/STM32H5xx_HAL_Driver/Src/stm32h5xx_hal.c ****   *  @brief    HAL SBS Boot functions
 921:Drivers/STM32H5xx_HAL_Driver/Src/stm32h5xx_hal.c ****   *
 922:Drivers/STM32H5xx_HAL_Driver/Src/stm32h5xx_hal.c **** @verbatim
 923:Drivers/STM32H5xx_HAL_Driver/Src/stm32h5xx_hal.c ****  ==================================================================================================
 924:Drivers/STM32H5xx_HAL_Driver/Src/stm32h5xx_hal.c ****                                        ##### HAL SBS Boot control functions #####
 925:Drivers/STM32H5xx_HAL_Driver/Src/stm32h5xx_hal.c ****  ==================================================================================================
 926:Drivers/STM32H5xx_HAL_Driver/Src/stm32h5xx_hal.c ****     [..]  This section provides functions allowing to:
 927:Drivers/STM32H5xx_HAL_Driver/Src/stm32h5xx_hal.c ****       (+) Increment the HDPL value
 928:Drivers/STM32H5xx_HAL_Driver/Src/stm32h5xx_hal.c ****       (+) Get the HDPL value
 929:Drivers/STM32H5xx_HAL_Driver/Src/stm32h5xx_hal.c **** 
 930:Drivers/STM32H5xx_HAL_Driver/Src/stm32h5xx_hal.c **** @endverbatim
 931:Drivers/STM32H5xx_HAL_Driver/Src/stm32h5xx_hal.c ****   * @{
 932:Drivers/STM32H5xx_HAL_Driver/Src/stm32h5xx_hal.c ****   */
 933:Drivers/STM32H5xx_HAL_Driver/Src/stm32h5xx_hal.c **** 
 934:Drivers/STM32H5xx_HAL_Driver/Src/stm32h5xx_hal.c **** /**
 935:Drivers/STM32H5xx_HAL_Driver/Src/stm32h5xx_hal.c ****   * @brief  Increment by 1 the HDPL value
 936:Drivers/STM32H5xx_HAL_Driver/Src/stm32h5xx_hal.c ****   * @retval None
 937:Drivers/STM32H5xx_HAL_Driver/Src/stm32h5xx_hal.c ****   */
 938:Drivers/STM32H5xx_HAL_Driver/Src/stm32h5xx_hal.c **** void HAL_SBS_IncrementHDPLValue(void)
 939:Drivers/STM32H5xx_HAL_Driver/Src/stm32h5xx_hal.c **** {
 1634              		.loc 1 939 1 is_stmt 1 view -0
 1635              		.cfi_startproc
 1636              		@ args = 0, pretend = 0, frame = 0
 1637              		@ frame_needed = 0, uses_anonymous_args = 0
 1638              		@ link register save eliminated.
 940:Drivers/STM32H5xx_HAL_Driver/Src/stm32h5xx_hal.c ****   MODIFY_REG(SBS->HDPLCR, SBS_HDPLCR_INCR_HDPL, SBS_HDPL_INCREMENT_VALUE);
 1639              		.loc 1 940 3 view .LVU289
 1640 0000 034A     		ldr	r2, .L159
 1641 0002 1369     		ldr	r3, [r2, #16]
ARM GAS  C:\Users\sapph\AppData\Local\Temp\ccmhtm3h.s 			page 46


 1642 0004 23F0FF03 		bic	r3, r3, #255
 1643 0008 43F06A03 		orr	r3, r3, #106
 1644 000c 1361     		str	r3, [r2, #16]
 941:Drivers/STM32H5xx_HAL_Driver/Src/stm32h5xx_hal.c **** }
 1645              		.loc 1 941 1 is_stmt 0 view .LVU290
 1646 000e 7047     		bx	lr
 1647              	.L160:
 1648              		.align	2
 1649              	.L159:
 1650 0010 00040044 		.word	1140851712
 1651              		.cfi_endproc
 1652              	.LFE205:
 1654              		.section	.text.HAL_SBS_GetHDPLValue,"ax",%progbits
 1655              		.align	1
 1656              		.global	HAL_SBS_GetHDPLValue
 1657              		.syntax unified
 1658              		.thumb
 1659              		.thumb_func
 1661              	HAL_SBS_GetHDPLValue:
 1662              	.LFB206:
 942:Drivers/STM32H5xx_HAL_Driver/Src/stm32h5xx_hal.c **** 
 943:Drivers/STM32H5xx_HAL_Driver/Src/stm32h5xx_hal.c **** /**
 944:Drivers/STM32H5xx_HAL_Driver/Src/stm32h5xx_hal.c ****   * @brief  Get the HDPL Value.
 945:Drivers/STM32H5xx_HAL_Driver/Src/stm32h5xx_hal.c ****   *
 946:Drivers/STM32H5xx_HAL_Driver/Src/stm32h5xx_hal.c ****   * @retval  Returns the HDPL value
 947:Drivers/STM32H5xx_HAL_Driver/Src/stm32h5xx_hal.c ****   *          This return value can be one of the following values:
 948:Drivers/STM32H5xx_HAL_Driver/Src/stm32h5xx_hal.c ****   *            @arg SBS_HDPL_VALUE_0: HDPL0
 949:Drivers/STM32H5xx_HAL_Driver/Src/stm32h5xx_hal.c ****   *            @arg SBS_HDPL_VALUE_1: HDPL1
 950:Drivers/STM32H5xx_HAL_Driver/Src/stm32h5xx_hal.c ****   *            @arg SBS_HDPL_VALUE_2: HDPL2
 951:Drivers/STM32H5xx_HAL_Driver/Src/stm32h5xx_hal.c ****   *            @arg SBS_HDPL_VALUE_3: HDPL3
 952:Drivers/STM32H5xx_HAL_Driver/Src/stm32h5xx_hal.c ****   */
 953:Drivers/STM32H5xx_HAL_Driver/Src/stm32h5xx_hal.c **** uint32_t HAL_SBS_GetHDPLValue(void)
 954:Drivers/STM32H5xx_HAL_Driver/Src/stm32h5xx_hal.c **** {
 1663              		.loc 1 954 1 is_stmt 1 view -0
 1664              		.cfi_startproc
 1665              		@ args = 0, pretend = 0, frame = 0
 1666              		@ frame_needed = 0, uses_anonymous_args = 0
 1667              		@ link register save eliminated.
 955:Drivers/STM32H5xx_HAL_Driver/Src/stm32h5xx_hal.c ****   return (uint32_t)(READ_BIT(SBS->HDPLSR, SBS_HDPLSR_HDPL));
 1668              		.loc 1 955 3 view .LVU292
 1669              		.loc 1 955 21 is_stmt 0 view .LVU293
 1670 0000 014B     		ldr	r3, .L162
 1671 0002 5869     		ldr	r0, [r3, #20]
 956:Drivers/STM32H5xx_HAL_Driver/Src/stm32h5xx_hal.c **** }
 1672              		.loc 1 956 1 view .LVU294
 1673 0004 C0B2     		uxtb	r0, r0
 1674 0006 7047     		bx	lr
 1675              	.L163:
 1676              		.align	2
 1677              	.L162:
 1678 0008 00040044 		.word	1140851712
 1679              		.cfi_endproc
 1680              	.LFE206:
 1682              		.section	.text.HAL_SBS_EPOCHSelection,"ax",%progbits
 1683              		.align	1
 1684              		.global	HAL_SBS_EPOCHSelection
 1685              		.syntax unified
ARM GAS  C:\Users\sapph\AppData\Local\Temp\ccmhtm3h.s 			page 47


 1686              		.thumb
 1687              		.thumb_func
 1689              	HAL_SBS_EPOCHSelection:
 1690              	.LVL46:
 1691              	.LFB207:
 957:Drivers/STM32H5xx_HAL_Driver/Src/stm32h5xx_hal.c **** 
 958:Drivers/STM32H5xx_HAL_Driver/Src/stm32h5xx_hal.c **** /**
 959:Drivers/STM32H5xx_HAL_Driver/Src/stm32h5xx_hal.c ****   * @}
 960:Drivers/STM32H5xx_HAL_Driver/Src/stm32h5xx_hal.c ****   */
 961:Drivers/STM32H5xx_HAL_Driver/Src/stm32h5xx_hal.c **** 
 962:Drivers/STM32H5xx_HAL_Driver/Src/stm32h5xx_hal.c **** /** @defgroup HAL_Exported_Functions_Group7 HAL SBS Hardware secure storage control functions
 963:Drivers/STM32H5xx_HAL_Driver/Src/stm32h5xx_hal.c ****   *  @brief    HAL SBS Hardware secure storage functions
 964:Drivers/STM32H5xx_HAL_Driver/Src/stm32h5xx_hal.c ****   *
 965:Drivers/STM32H5xx_HAL_Driver/Src/stm32h5xx_hal.c **** @verbatim
 966:Drivers/STM32H5xx_HAL_Driver/Src/stm32h5xx_hal.c ****  ==================================================================================================
 967:Drivers/STM32H5xx_HAL_Driver/Src/stm32h5xx_hal.c ****                                        ##### HAL SBS Hardware secure storage control functions ####
 968:Drivers/STM32H5xx_HAL_Driver/Src/stm32h5xx_hal.c ****  ==================================================================================================
 969:Drivers/STM32H5xx_HAL_Driver/Src/stm32h5xx_hal.c ****     [..]  This section provides functions allowing to:
 970:Drivers/STM32H5xx_HAL_Driver/Src/stm32h5xx_hal.c ****       (+) Select EPOCH security sent to SAES IP
 971:Drivers/STM32H5xx_HAL_Driver/Src/stm32h5xx_hal.c ****       (+) Set/Get EPOCH security selection
 972:Drivers/STM32H5xx_HAL_Driver/Src/stm32h5xx_hal.c ****       (+) Set/Get the OBK-HDPL Value
 973:Drivers/STM32H5xx_HAL_Driver/Src/stm32h5xx_hal.c **** 
 974:Drivers/STM32H5xx_HAL_Driver/Src/stm32h5xx_hal.c **** @endverbatim
 975:Drivers/STM32H5xx_HAL_Driver/Src/stm32h5xx_hal.c ****   * @{
 976:Drivers/STM32H5xx_HAL_Driver/Src/stm32h5xx_hal.c ****   */
 977:Drivers/STM32H5xx_HAL_Driver/Src/stm32h5xx_hal.c **** 
 978:Drivers/STM32H5xx_HAL_Driver/Src/stm32h5xx_hal.c **** #if defined(SBS_EPOCHSELCR_EPOCH_SEL)
 979:Drivers/STM32H5xx_HAL_Driver/Src/stm32h5xx_hal.c **** /**
 980:Drivers/STM32H5xx_HAL_Driver/Src/stm32h5xx_hal.c ****   * @brief  Select EPOCH security sent to SAES IP to encrypt/decrypt keys
 981:Drivers/STM32H5xx_HAL_Driver/Src/stm32h5xx_hal.c ****   * @param  Epoch_Selection: Select EPOCH security
 982:Drivers/STM32H5xx_HAL_Driver/Src/stm32h5xx_hal.c ****   *         This parameter can be one of the following values:
 983:Drivers/STM32H5xx_HAL_Driver/Src/stm32h5xx_hal.c ****   *           @arg SBS_EPOCH_SEL_SECURE    : EPOCH secure selected.
 984:Drivers/STM32H5xx_HAL_Driver/Src/stm32h5xx_hal.c ****   *           @arg SBS_EPOCH_SEL_NONSECURE : EPOCH non secure selected.
 985:Drivers/STM32H5xx_HAL_Driver/Src/stm32h5xx_hal.c ****   *           @arg SBS_EPOCH_SEL_PUFCHECK  : EPOCH all zeros for PUF integrity check.
 986:Drivers/STM32H5xx_HAL_Driver/Src/stm32h5xx_hal.c ****   * @retval None
 987:Drivers/STM32H5xx_HAL_Driver/Src/stm32h5xx_hal.c ****   */
 988:Drivers/STM32H5xx_HAL_Driver/Src/stm32h5xx_hal.c **** void HAL_SBS_EPOCHSelection(uint32_t Epoch_Selection)
 989:Drivers/STM32H5xx_HAL_Driver/Src/stm32h5xx_hal.c **** {
 1692              		.loc 1 989 1 is_stmt 1 view -0
 1693              		.cfi_startproc
 1694              		@ args = 0, pretend = 0, frame = 0
 1695              		@ frame_needed = 0, uses_anonymous_args = 0
 1696              		@ link register save eliminated.
 990:Drivers/STM32H5xx_HAL_Driver/Src/stm32h5xx_hal.c ****   /* Check the parameter */
 991:Drivers/STM32H5xx_HAL_Driver/Src/stm32h5xx_hal.c ****   assert_param(IS_SBS_EPOCH_SELECTION(Epoch_Selection));
 1697              		.loc 1 991 3 view .LVU296
 992:Drivers/STM32H5xx_HAL_Driver/Src/stm32h5xx_hal.c **** 
 993:Drivers/STM32H5xx_HAL_Driver/Src/stm32h5xx_hal.c ****   MODIFY_REG(SBS->EPOCHSELCR, SBS_EPOCHSELCR_EPOCH_SEL, (uint32_t)(Epoch_Selection));
 1698              		.loc 1 993 3 view .LVU297
 1699 0000 044A     		ldr	r2, .L165
 1700 0002 D2F8A030 		ldr	r3, [r2, #160]
 1701 0006 23F00303 		bic	r3, r3, #3
 1702 000a 0343     		orrs	r3, r3, r0
 1703 000c C2F8A030 		str	r3, [r2, #160]
 994:Drivers/STM32H5xx_HAL_Driver/Src/stm32h5xx_hal.c **** }
 1704              		.loc 1 994 1 is_stmt 0 view .LVU298
 1705 0010 7047     		bx	lr
ARM GAS  C:\Users\sapph\AppData\Local\Temp\ccmhtm3h.s 			page 48


 1706              	.L166:
 1707 0012 00BF     		.align	2
 1708              	.L165:
 1709 0014 00040044 		.word	1140851712
 1710              		.cfi_endproc
 1711              	.LFE207:
 1713              		.section	.text.HAL_SBS_GetEPOCHSelection,"ax",%progbits
 1714              		.align	1
 1715              		.global	HAL_SBS_GetEPOCHSelection
 1716              		.syntax unified
 1717              		.thumb
 1718              		.thumb_func
 1720              	HAL_SBS_GetEPOCHSelection:
 1721              	.LFB208:
 995:Drivers/STM32H5xx_HAL_Driver/Src/stm32h5xx_hal.c **** 
 996:Drivers/STM32H5xx_HAL_Driver/Src/stm32h5xx_hal.c **** /**
 997:Drivers/STM32H5xx_HAL_Driver/Src/stm32h5xx_hal.c ****   * @brief  Get EPOCH security selection
 998:Drivers/STM32H5xx_HAL_Driver/Src/stm32h5xx_hal.c ****   * @retval Returned value can be one of the following values:
 999:Drivers/STM32H5xx_HAL_Driver/Src/stm32h5xx_hal.c ****   *           @arg SBS_EPOCH_SEL_SECURE    : EPOCH secure selected.
1000:Drivers/STM32H5xx_HAL_Driver/Src/stm32h5xx_hal.c ****   *           @arg SBS_EPOCH_SEL_NONSECURE : EPOCH non secure selected.
1001:Drivers/STM32H5xx_HAL_Driver/Src/stm32h5xx_hal.c ****   *           @arg SBS_EPOCH_SEL_PUFCHECK  : EPOCH all zeros for PUF integrity check.
1002:Drivers/STM32H5xx_HAL_Driver/Src/stm32h5xx_hal.c ****   */
1003:Drivers/STM32H5xx_HAL_Driver/Src/stm32h5xx_hal.c **** uint32_t HAL_SBS_GetEPOCHSelection(void)
1004:Drivers/STM32H5xx_HAL_Driver/Src/stm32h5xx_hal.c **** {
 1722              		.loc 1 1004 1 is_stmt 1 view -0
 1723              		.cfi_startproc
 1724              		@ args = 0, pretend = 0, frame = 0
 1725              		@ frame_needed = 0, uses_anonymous_args = 0
 1726              		@ link register save eliminated.
1005:Drivers/STM32H5xx_HAL_Driver/Src/stm32h5xx_hal.c ****   return (uint32_t)(READ_BIT(SBS->EPOCHSELCR, SBS_EPOCHSELCR_EPOCH_SEL));
 1727              		.loc 1 1005 3 view .LVU300
 1728              		.loc 1 1005 21 is_stmt 0 view .LVU301
 1729 0000 024B     		ldr	r3, .L168
 1730 0002 D3F8A000 		ldr	r0, [r3, #160]
1006:Drivers/STM32H5xx_HAL_Driver/Src/stm32h5xx_hal.c **** }
 1731              		.loc 1 1006 1 view .LVU302
 1732 0006 00F00300 		and	r0, r0, #3
 1733 000a 7047     		bx	lr
 1734              	.L169:
 1735              		.align	2
 1736              	.L168:
 1737 000c 00040044 		.word	1140851712
 1738              		.cfi_endproc
 1739              	.LFE208:
 1741              		.section	.text.HAL_SBS_SetOBKHDPL,"ax",%progbits
 1742              		.align	1
 1743              		.global	HAL_SBS_SetOBKHDPL
 1744              		.syntax unified
 1745              		.thumb
 1746              		.thumb_func
 1748              	HAL_SBS_SetOBKHDPL:
 1749              	.LVL47:
 1750              	.LFB209:
1007:Drivers/STM32H5xx_HAL_Driver/Src/stm32h5xx_hal.c **** #endif /* SBS_EPOCHSELCR_EPOCH_SEL */
1008:Drivers/STM32H5xx_HAL_Driver/Src/stm32h5xx_hal.c **** 
1009:Drivers/STM32H5xx_HAL_Driver/Src/stm32h5xx_hal.c **** #if defined(SBS_NEXTHDPLCR_NEXTHDPL)
1010:Drivers/STM32H5xx_HAL_Driver/Src/stm32h5xx_hal.c **** /**
ARM GAS  C:\Users\sapph\AppData\Local\Temp\ccmhtm3h.s 			page 49


1011:Drivers/STM32H5xx_HAL_Driver/Src/stm32h5xx_hal.c ****   * @brief  Set the OBK-HDPL Value.
1012:Drivers/STM32H5xx_HAL_Driver/Src/stm32h5xx_hal.c ****   * @param  OBKHDPL_Value Value of the increment to add to HDPL value to generate the OBK-HDPL.
1013:Drivers/STM32H5xx_HAL_Driver/Src/stm32h5xx_hal.c ****   *         This parameter can be one of the following values:
1014:Drivers/STM32H5xx_HAL_Driver/Src/stm32h5xx_hal.c ****   *           @arg SBS_OBKHDPL_INCR_0 : HDPL
1015:Drivers/STM32H5xx_HAL_Driver/Src/stm32h5xx_hal.c ****   *           @arg SBS_OBKHDPL_INCR_1 : HDPL + 1
1016:Drivers/STM32H5xx_HAL_Driver/Src/stm32h5xx_hal.c ****   *           @arg SBS_OBKHDPL_INCR_2 : HDPL + 2
1017:Drivers/STM32H5xx_HAL_Driver/Src/stm32h5xx_hal.c ****   *           @arg SBS_OBKHDPL_INCR_3 : HDPL + 3
1018:Drivers/STM32H5xx_HAL_Driver/Src/stm32h5xx_hal.c ****   * @retval None
1019:Drivers/STM32H5xx_HAL_Driver/Src/stm32h5xx_hal.c ****   */
1020:Drivers/STM32H5xx_HAL_Driver/Src/stm32h5xx_hal.c **** void HAL_SBS_SetOBKHDPL(uint32_t OBKHDPL_Value)
1021:Drivers/STM32H5xx_HAL_Driver/Src/stm32h5xx_hal.c **** {
 1751              		.loc 1 1021 1 is_stmt 1 view -0
 1752              		.cfi_startproc
 1753              		@ args = 0, pretend = 0, frame = 0
 1754              		@ frame_needed = 0, uses_anonymous_args = 0
 1755              		@ link register save eliminated.
1022:Drivers/STM32H5xx_HAL_Driver/Src/stm32h5xx_hal.c ****   /* Check the parameter */
1023:Drivers/STM32H5xx_HAL_Driver/Src/stm32h5xx_hal.c ****   assert_param(IS_SBS_OBKHDPL_SELECTION(OBKHDPL_Value));
 1756              		.loc 1 1023 3 view .LVU304
1024:Drivers/STM32H5xx_HAL_Driver/Src/stm32h5xx_hal.c **** 
1025:Drivers/STM32H5xx_HAL_Driver/Src/stm32h5xx_hal.c ****   MODIFY_REG(SBS->NEXTHDPLCR, SBS_NEXTHDPLCR_NEXTHDPL, (uint32_t)(OBKHDPL_Value));
 1757              		.loc 1 1025 3 view .LVU305
 1758 0000 034A     		ldr	r2, .L171
 1759 0002 9369     		ldr	r3, [r2, #24]
 1760 0004 23F00303 		bic	r3, r3, #3
 1761 0008 0343     		orrs	r3, r3, r0
 1762 000a 9361     		str	r3, [r2, #24]
1026:Drivers/STM32H5xx_HAL_Driver/Src/stm32h5xx_hal.c **** }
 1763              		.loc 1 1026 1 is_stmt 0 view .LVU306
 1764 000c 7047     		bx	lr
 1765              	.L172:
 1766 000e 00BF     		.align	2
 1767              	.L171:
 1768 0010 00040044 		.word	1140851712
 1769              		.cfi_endproc
 1770              	.LFE209:
 1772              		.section	.text.HAL_SBS_GetOBKHDPL,"ax",%progbits
 1773              		.align	1
 1774              		.global	HAL_SBS_GetOBKHDPL
 1775              		.syntax unified
 1776              		.thumb
 1777              		.thumb_func
 1779              	HAL_SBS_GetOBKHDPL:
 1780              	.LFB210:
1027:Drivers/STM32H5xx_HAL_Driver/Src/stm32h5xx_hal.c **** 
1028:Drivers/STM32H5xx_HAL_Driver/Src/stm32h5xx_hal.c **** /**
1029:Drivers/STM32H5xx_HAL_Driver/Src/stm32h5xx_hal.c ****   * @brief  Get the OBK-HDPL Value.
1030:Drivers/STM32H5xx_HAL_Driver/Src/stm32h5xx_hal.c ****   * @retval  Returns the incremement to add to HDPL value to generate OBK-HDPL
1031:Drivers/STM32H5xx_HAL_Driver/Src/stm32h5xx_hal.c ****   *          This return value can be one of the following values:
1032:Drivers/STM32H5xx_HAL_Driver/Src/stm32h5xx_hal.c ****   *            @arg SBS_OBKHDPL_INCR_0: HDPL
1033:Drivers/STM32H5xx_HAL_Driver/Src/stm32h5xx_hal.c ****   *            @arg SBS_OBKHDPL_INCR_1: HDPL + 1
1034:Drivers/STM32H5xx_HAL_Driver/Src/stm32h5xx_hal.c ****   *            @arg SBS_OBKHDPL_INCR_2: HDPL + 2
1035:Drivers/STM32H5xx_HAL_Driver/Src/stm32h5xx_hal.c ****   *            @arg SBS_OBKHDPL_INCR_3: HDPL + 3
1036:Drivers/STM32H5xx_HAL_Driver/Src/stm32h5xx_hal.c ****   */
1037:Drivers/STM32H5xx_HAL_Driver/Src/stm32h5xx_hal.c **** uint32_t HAL_SBS_GetOBKHDPL(void)
1038:Drivers/STM32H5xx_HAL_Driver/Src/stm32h5xx_hal.c **** {
 1781              		.loc 1 1038 1 is_stmt 1 view -0
ARM GAS  C:\Users\sapph\AppData\Local\Temp\ccmhtm3h.s 			page 50


 1782              		.cfi_startproc
 1783              		@ args = 0, pretend = 0, frame = 0
 1784              		@ frame_needed = 0, uses_anonymous_args = 0
 1785              		@ link register save eliminated.
1039:Drivers/STM32H5xx_HAL_Driver/Src/stm32h5xx_hal.c ****   return (uint32_t)(READ_BIT(SBS->NEXTHDPLCR, SBS_NEXTHDPLCR_NEXTHDPL));
 1786              		.loc 1 1039 3 view .LVU308
 1787              		.loc 1 1039 21 is_stmt 0 view .LVU309
 1788 0000 024B     		ldr	r3, .L174
 1789 0002 9869     		ldr	r0, [r3, #24]
1040:Drivers/STM32H5xx_HAL_Driver/Src/stm32h5xx_hal.c **** }
 1790              		.loc 1 1040 1 view .LVU310
 1791 0004 00F00300 		and	r0, r0, #3
 1792 0008 7047     		bx	lr
 1793              	.L175:
 1794 000a 00BF     		.align	2
 1795              	.L174:
 1796 000c 00040044 		.word	1140851712
 1797              		.cfi_endproc
 1798              	.LFE210:
 1800              		.section	.text.HAL_SBS_OpenAccessPort,"ax",%progbits
 1801              		.align	1
 1802              		.global	HAL_SBS_OpenAccessPort
 1803              		.syntax unified
 1804              		.thumb
 1805              		.thumb_func
 1807              	HAL_SBS_OpenAccessPort:
 1808              	.LFB211:
1041:Drivers/STM32H5xx_HAL_Driver/Src/stm32h5xx_hal.c **** #endif /* SBS_NEXTHDPLCR_NEXTHDPL */
1042:Drivers/STM32H5xx_HAL_Driver/Src/stm32h5xx_hal.c **** 
1043:Drivers/STM32H5xx_HAL_Driver/Src/stm32h5xx_hal.c **** /**
1044:Drivers/STM32H5xx_HAL_Driver/Src/stm32h5xx_hal.c ****   * @}
1045:Drivers/STM32H5xx_HAL_Driver/Src/stm32h5xx_hal.c ****   */
1046:Drivers/STM32H5xx_HAL_Driver/Src/stm32h5xx_hal.c **** 
1047:Drivers/STM32H5xx_HAL_Driver/Src/stm32h5xx_hal.c **** /** @defgroup HAL_Exported_Functions_Group8 HAL SBS Debug control functions
1048:Drivers/STM32H5xx_HAL_Driver/Src/stm32h5xx_hal.c ****   *  @brief    HAL SBS Debug functions
1049:Drivers/STM32H5xx_HAL_Driver/Src/stm32h5xx_hal.c ****   *
1050:Drivers/STM32H5xx_HAL_Driver/Src/stm32h5xx_hal.c **** @verbatim
1051:Drivers/STM32H5xx_HAL_Driver/Src/stm32h5xx_hal.c ****  ==================================================================================================
1052:Drivers/STM32H5xx_HAL_Driver/Src/stm32h5xx_hal.c ****                                        ##### SBS Debug control functions #####
1053:Drivers/STM32H5xx_HAL_Driver/Src/stm32h5xx_hal.c ****  ==================================================================================================
1054:Drivers/STM32H5xx_HAL_Driver/Src/stm32h5xx_hal.c ****     [..]  This section provides functions allowing to:
1055:Drivers/STM32H5xx_HAL_Driver/Src/stm32h5xx_hal.c ****       (+) Open the device access port
1056:Drivers/STM32H5xx_HAL_Driver/Src/stm32h5xx_hal.c ****       (+) Open the debug
1057:Drivers/STM32H5xx_HAL_Driver/Src/stm32h5xx_hal.c ****       (+) Configure the authenticated debug HDPL
1058:Drivers/STM32H5xx_HAL_Driver/Src/stm32h5xx_hal.c ****       (+) Get the current value of the hide protection level
1059:Drivers/STM32H5xx_HAL_Driver/Src/stm32h5xx_hal.c ****       (+) Lock the access to the debug control register
1060:Drivers/STM32H5xx_HAL_Driver/Src/stm32h5xx_hal.c ****       (+) Configure/Get the authenticated debug security access
1061:Drivers/STM32H5xx_HAL_Driver/Src/stm32h5xx_hal.c **** 
1062:Drivers/STM32H5xx_HAL_Driver/Src/stm32h5xx_hal.c **** @endverbatim
1063:Drivers/STM32H5xx_HAL_Driver/Src/stm32h5xx_hal.c ****   * @{
1064:Drivers/STM32H5xx_HAL_Driver/Src/stm32h5xx_hal.c ****   */
1065:Drivers/STM32H5xx_HAL_Driver/Src/stm32h5xx_hal.c **** 
1066:Drivers/STM32H5xx_HAL_Driver/Src/stm32h5xx_hal.c **** /**
1067:Drivers/STM32H5xx_HAL_Driver/Src/stm32h5xx_hal.c ****   * @brief  Open the device access port.
1068:Drivers/STM32H5xx_HAL_Driver/Src/stm32h5xx_hal.c ****   * @note   This function can be only used when device state is Closed.
1069:Drivers/STM32H5xx_HAL_Driver/Src/stm32h5xx_hal.c ****   * @retval None
1070:Drivers/STM32H5xx_HAL_Driver/Src/stm32h5xx_hal.c ****   */
ARM GAS  C:\Users\sapph\AppData\Local\Temp\ccmhtm3h.s 			page 51


1071:Drivers/STM32H5xx_HAL_Driver/Src/stm32h5xx_hal.c **** void HAL_SBS_OpenAccessPort(void)
1072:Drivers/STM32H5xx_HAL_Driver/Src/stm32h5xx_hal.c **** {
 1809              		.loc 1 1072 1 is_stmt 1 view -0
 1810              		.cfi_startproc
 1811              		@ args = 0, pretend = 0, frame = 0
 1812              		@ frame_needed = 0, uses_anonymous_args = 0
 1813              		@ link register save eliminated.
1073:Drivers/STM32H5xx_HAL_Driver/Src/stm32h5xx_hal.c ****   MODIFY_REG(SBS->DBGCR, SBS_DBGCR_AP_UNLOCK, SBS_DEBUG_UNLOCK_VALUE);
 1814              		.loc 1 1073 3 view .LVU312
 1815 0000 034A     		ldr	r2, .L177
 1816 0002 136A     		ldr	r3, [r2, #32]
 1817 0004 23F0FF03 		bic	r3, r3, #255
 1818 0008 43F0B403 		orr	r3, r3, #180
 1819 000c 1362     		str	r3, [r2, #32]
1074:Drivers/STM32H5xx_HAL_Driver/Src/stm32h5xx_hal.c **** }
 1820              		.loc 1 1074 1 is_stmt 0 view .LVU313
 1821 000e 7047     		bx	lr
 1822              	.L178:
 1823              		.align	2
 1824              	.L177:
 1825 0010 00040044 		.word	1140851712
 1826              		.cfi_endproc
 1827              	.LFE211:
 1829              		.section	.text.HAL_SBS_OpenDebug,"ax",%progbits
 1830              		.align	1
 1831              		.global	HAL_SBS_OpenDebug
 1832              		.syntax unified
 1833              		.thumb
 1834              		.thumb_func
 1836              	HAL_SBS_OpenDebug:
 1837              	.LFB212:
1075:Drivers/STM32H5xx_HAL_Driver/Src/stm32h5xx_hal.c **** 
1076:Drivers/STM32H5xx_HAL_Driver/Src/stm32h5xx_hal.c **** /**
1077:Drivers/STM32H5xx_HAL_Driver/Src/stm32h5xx_hal.c ****   * @brief  Open the debug when the hide protection level is authorized.
1078:Drivers/STM32H5xx_HAL_Driver/Src/stm32h5xx_hal.c ****   * @note   This function can be only used when device state is Closed.
1079:Drivers/STM32H5xx_HAL_Driver/Src/stm32h5xx_hal.c ****   * @retval None
1080:Drivers/STM32H5xx_HAL_Driver/Src/stm32h5xx_hal.c ****   */
1081:Drivers/STM32H5xx_HAL_Driver/Src/stm32h5xx_hal.c **** void HAL_SBS_OpenDebug(void)
1082:Drivers/STM32H5xx_HAL_Driver/Src/stm32h5xx_hal.c **** {
 1838              		.loc 1 1082 1 is_stmt 1 view -0
 1839              		.cfi_startproc
 1840              		@ args = 0, pretend = 0, frame = 0
 1841              		@ frame_needed = 0, uses_anonymous_args = 0
 1842              		@ link register save eliminated.
1083:Drivers/STM32H5xx_HAL_Driver/Src/stm32h5xx_hal.c ****   MODIFY_REG(SBS->DBGCR, SBS_DBGCR_DBG_UNLOCK, (SBS_DEBUG_UNLOCK_VALUE << SBS_DBGCR_DBG_UNLOCK_Pos)
 1843              		.loc 1 1083 3 view .LVU315
 1844 0000 034A     		ldr	r2, .L180
 1845 0002 136A     		ldr	r3, [r2, #32]
 1846 0004 23F47F43 		bic	r3, r3, #65280
 1847 0008 43F43443 		orr	r3, r3, #46080
 1848 000c 1362     		str	r3, [r2, #32]
1084:Drivers/STM32H5xx_HAL_Driver/Src/stm32h5xx_hal.c **** }
 1849              		.loc 1 1084 1 is_stmt 0 view .LVU316
 1850 000e 7047     		bx	lr
 1851              	.L181:
 1852              		.align	2
 1853              	.L180:
ARM GAS  C:\Users\sapph\AppData\Local\Temp\ccmhtm3h.s 			page 52


 1854 0010 00040044 		.word	1140851712
 1855              		.cfi_endproc
 1856              	.LFE212:
 1858              		.section	.text.HAL_SBS_ConfigDebugLevel,"ax",%progbits
 1859              		.align	1
 1860              		.global	HAL_SBS_ConfigDebugLevel
 1861              		.syntax unified
 1862              		.thumb
 1863              		.thumb_func
 1865              	HAL_SBS_ConfigDebugLevel:
 1866              	.LVL48:
 1867              	.LFB213:
1085:Drivers/STM32H5xx_HAL_Driver/Src/stm32h5xx_hal.c **** 
1086:Drivers/STM32H5xx_HAL_Driver/Src/stm32h5xx_hal.c **** /**
1087:Drivers/STM32H5xx_HAL_Driver/Src/stm32h5xx_hal.c ****   * @brief  Configure the authenticated debug hide protection level.
1088:Drivers/STM32H5xx_HAL_Driver/Src/stm32h5xx_hal.c ****   * @note   This function can be only used when device state is Closed.
1089:Drivers/STM32H5xx_HAL_Driver/Src/stm32h5xx_hal.c ****   * @param  Level Hide protection level where the authenticated debug opens
1090:Drivers/STM32H5xx_HAL_Driver/Src/stm32h5xx_hal.c ****   *            This value is one of @ref SBS_HDPL_Value (except SBS_HDPL_VALUE_0)
1091:Drivers/STM32H5xx_HAL_Driver/Src/stm32h5xx_hal.c ****   * @retval HAL_OK if parameter is correct
1092:Drivers/STM32H5xx_HAL_Driver/Src/stm32h5xx_hal.c ****   *         HAL_ERROR otherwise
1093:Drivers/STM32H5xx_HAL_Driver/Src/stm32h5xx_hal.c ****   */
1094:Drivers/STM32H5xx_HAL_Driver/Src/stm32h5xx_hal.c **** HAL_StatusTypeDef HAL_SBS_ConfigDebugLevel(uint32_t Level)
1095:Drivers/STM32H5xx_HAL_Driver/Src/stm32h5xx_hal.c **** {
 1868              		.loc 1 1095 1 is_stmt 1 view -0
 1869              		.cfi_startproc
 1870              		@ args = 0, pretend = 0, frame = 0
 1871              		@ frame_needed = 0, uses_anonymous_args = 0
 1872              		@ link register save eliminated.
1096:Drivers/STM32H5xx_HAL_Driver/Src/stm32h5xx_hal.c ****   /* Check the parameter */
1097:Drivers/STM32H5xx_HAL_Driver/Src/stm32h5xx_hal.c ****   assert_param(IS_SBS_HDPL(Level));
 1873              		.loc 1 1097 3 view .LVU318
1098:Drivers/STM32H5xx_HAL_Driver/Src/stm32h5xx_hal.c **** 
1099:Drivers/STM32H5xx_HAL_Driver/Src/stm32h5xx_hal.c ****   if (Level != SBS_HDPL_VALUE_0)
 1874              		.loc 1 1099 3 view .LVU319
 1875              		.loc 1 1099 6 is_stmt 0 view .LVU320
 1876 0000 B428     		cmp	r0, #180
 1877 0002 08D0     		beq	.L184
1100:Drivers/STM32H5xx_HAL_Driver/Src/stm32h5xx_hal.c ****   {
1101:Drivers/STM32H5xx_HAL_Driver/Src/stm32h5xx_hal.c ****     MODIFY_REG(SBS->DBGCR, SBS_DBGCR_DBG_AUTH_HDPL, (Level << SBS_DBGCR_DBG_AUTH_HDPL_Pos));
 1878              		.loc 1 1101 5 is_stmt 1 view .LVU321
 1879 0004 054A     		ldr	r2, .L185
 1880 0006 136A     		ldr	r3, [r2, #32]
 1881 0008 23F47F03 		bic	r3, r3, #16711680
 1882 000c 43EA0043 		orr	r3, r3, r0, lsl #16
 1883 0010 1362     		str	r3, [r2, #32]
1102:Drivers/STM32H5xx_HAL_Driver/Src/stm32h5xx_hal.c ****     return HAL_OK;
 1884              		.loc 1 1102 5 view .LVU322
 1885              		.loc 1 1102 12 is_stmt 0 view .LVU323
 1886 0012 0020     		movs	r0, #0
 1887              	.LVL49:
 1888              		.loc 1 1102 12 view .LVU324
 1889 0014 7047     		bx	lr
 1890              	.LVL50:
 1891              	.L184:
1103:Drivers/STM32H5xx_HAL_Driver/Src/stm32h5xx_hal.c ****   }
1104:Drivers/STM32H5xx_HAL_Driver/Src/stm32h5xx_hal.c ****   else
1105:Drivers/STM32H5xx_HAL_Driver/Src/stm32h5xx_hal.c ****   {
ARM GAS  C:\Users\sapph\AppData\Local\Temp\ccmhtm3h.s 			page 53


1106:Drivers/STM32H5xx_HAL_Driver/Src/stm32h5xx_hal.c ****     return HAL_ERROR;
 1892              		.loc 1 1106 12 view .LVU325
 1893 0016 0120     		movs	r0, #1
 1894              	.LVL51:
1107:Drivers/STM32H5xx_HAL_Driver/Src/stm32h5xx_hal.c ****   }
1108:Drivers/STM32H5xx_HAL_Driver/Src/stm32h5xx_hal.c **** }
 1895              		.loc 1 1108 1 view .LVU326
 1896 0018 7047     		bx	lr
 1897              	.L186:
 1898 001a 00BF     		.align	2
 1899              	.L185:
 1900 001c 00040044 		.word	1140851712
 1901              		.cfi_endproc
 1902              	.LFE213:
 1904              		.section	.text.HAL_SBS_GetDebugLevel,"ax",%progbits
 1905              		.align	1
 1906              		.global	HAL_SBS_GetDebugLevel
 1907              		.syntax unified
 1908              		.thumb
 1909              		.thumb_func
 1911              	HAL_SBS_GetDebugLevel:
 1912              	.LFB214:
1109:Drivers/STM32H5xx_HAL_Driver/Src/stm32h5xx_hal.c **** 
1110:Drivers/STM32H5xx_HAL_Driver/Src/stm32h5xx_hal.c **** /**
1111:Drivers/STM32H5xx_HAL_Driver/Src/stm32h5xx_hal.c ****   * @brief  Get the current value of the hide protection level.
1112:Drivers/STM32H5xx_HAL_Driver/Src/stm32h5xx_hal.c ****   * @note   This function can be only used when device state is Closed.
1113:Drivers/STM32H5xx_HAL_Driver/Src/stm32h5xx_hal.c ****   * @retval Current hide protection level
1114:Drivers/STM32H5xx_HAL_Driver/Src/stm32h5xx_hal.c ****   *            This value is one of @ref SBS_HDPL_Value
1115:Drivers/STM32H5xx_HAL_Driver/Src/stm32h5xx_hal.c ****   */
1116:Drivers/STM32H5xx_HAL_Driver/Src/stm32h5xx_hal.c **** uint32_t HAL_SBS_GetDebugLevel(void)
1117:Drivers/STM32H5xx_HAL_Driver/Src/stm32h5xx_hal.c **** {
 1913              		.loc 1 1117 1 is_stmt 1 view -0
 1914              		.cfi_startproc
 1915              		@ args = 0, pretend = 0, frame = 0
 1916              		@ frame_needed = 0, uses_anonymous_args = 0
 1917              		@ link register save eliminated.
1118:Drivers/STM32H5xx_HAL_Driver/Src/stm32h5xx_hal.c ****   return ((SBS->DBGCR & SBS_DBGCR_DBG_AUTH_HDPL) >> SBS_DBGCR_DBG_AUTH_HDPL_Pos);
 1918              		.loc 1 1118 3 view .LVU328
 1919              		.loc 1 1118 15 is_stmt 0 view .LVU329
 1920 0000 024B     		ldr	r3, .L188
 1921 0002 186A     		ldr	r0, [r3, #32]
1119:Drivers/STM32H5xx_HAL_Driver/Src/stm32h5xx_hal.c **** }
 1922              		.loc 1 1119 1 view .LVU330
 1923 0004 C0F30740 		ubfx	r0, r0, #16, #8
 1924 0008 7047     		bx	lr
 1925              	.L189:
 1926 000a 00BF     		.align	2
 1927              	.L188:
 1928 000c 00040044 		.word	1140851712
 1929              		.cfi_endproc
 1930              	.LFE214:
 1932              		.section	.text.HAL_SBS_LockDebugConfig,"ax",%progbits
 1933              		.align	1
 1934              		.global	HAL_SBS_LockDebugConfig
 1935              		.syntax unified
 1936              		.thumb
 1937              		.thumb_func
ARM GAS  C:\Users\sapph\AppData\Local\Temp\ccmhtm3h.s 			page 54


 1939              	HAL_SBS_LockDebugConfig:
 1940              	.LFB215:
1120:Drivers/STM32H5xx_HAL_Driver/Src/stm32h5xx_hal.c **** 
1121:Drivers/STM32H5xx_HAL_Driver/Src/stm32h5xx_hal.c **** /**
1122:Drivers/STM32H5xx_HAL_Driver/Src/stm32h5xx_hal.c ****   * @brief  Lock the access to the debug control register.
1123:Drivers/STM32H5xx_HAL_Driver/Src/stm32h5xx_hal.c ****   * @note   This function can be only used when device state is Closed.
1124:Drivers/STM32H5xx_HAL_Driver/Src/stm32h5xx_hal.c ****   * @note   locking the current debug configuration is released only by a reset.
1125:Drivers/STM32H5xx_HAL_Driver/Src/stm32h5xx_hal.c ****   * @retval None
1126:Drivers/STM32H5xx_HAL_Driver/Src/stm32h5xx_hal.c ****   */
1127:Drivers/STM32H5xx_HAL_Driver/Src/stm32h5xx_hal.c **** void HAL_SBS_LockDebugConfig(void)
1128:Drivers/STM32H5xx_HAL_Driver/Src/stm32h5xx_hal.c **** {
 1941              		.loc 1 1128 1 is_stmt 1 view -0
 1942              		.cfi_startproc
 1943              		@ args = 0, pretend = 0, frame = 0
 1944              		@ frame_needed = 0, uses_anonymous_args = 0
 1945              		@ link register save eliminated.
1129:Drivers/STM32H5xx_HAL_Driver/Src/stm32h5xx_hal.c ****   MODIFY_REG(SBS->DBGLOCKR, SBS_DBGLOCKR_DBGCFG_LOCK, SBS_DEBUG_LOCK_VALUE);
 1946              		.loc 1 1129 3 view .LVU332
 1947 0000 034A     		ldr	r2, .L191
 1948 0002 536A     		ldr	r3, [r2, #36]
 1949 0004 23F0FF03 		bic	r3, r3, #255
 1950 0008 43F0C303 		orr	r3, r3, #195
 1951 000c 5362     		str	r3, [r2, #36]
1130:Drivers/STM32H5xx_HAL_Driver/Src/stm32h5xx_hal.c **** }
 1952              		.loc 1 1130 1 is_stmt 0 view .LVU333
 1953 000e 7047     		bx	lr
 1954              	.L192:
 1955              		.align	2
 1956              	.L191:
 1957 0010 00040044 		.word	1140851712
 1958              		.cfi_endproc
 1959              	.LFE215:
 1961              		.section	.text.HAL_SBS_ConfigDebugSecurity,"ax",%progbits
 1962              		.align	1
 1963              		.global	HAL_SBS_ConfigDebugSecurity
 1964              		.syntax unified
 1965              		.thumb
 1966              		.thumb_func
 1968              	HAL_SBS_ConfigDebugSecurity:
 1969              	.LVL52:
 1970              	.LFB216:
1131:Drivers/STM32H5xx_HAL_Driver/Src/stm32h5xx_hal.c **** 
1132:Drivers/STM32H5xx_HAL_Driver/Src/stm32h5xx_hal.c **** #if defined(SBS_DBGCR_DBG_AUTH_SEC)
1133:Drivers/STM32H5xx_HAL_Driver/Src/stm32h5xx_hal.c **** /**
1134:Drivers/STM32H5xx_HAL_Driver/Src/stm32h5xx_hal.c ****   * @brief  Configure the authenticated debug security access.
1135:Drivers/STM32H5xx_HAL_Driver/Src/stm32h5xx_hal.c ****   * @param  Control debug opening secure/non-secure or non-secure only
1136:Drivers/STM32H5xx_HAL_Driver/Src/stm32h5xx_hal.c ****   *         This parameter can be one of the following values:
1137:Drivers/STM32H5xx_HAL_Driver/Src/stm32h5xx_hal.c ****   *            @arg SBS_DEBUG_SEC_NSEC: debug opening for secure and non-secure.
1138:Drivers/STM32H5xx_HAL_Driver/Src/stm32h5xx_hal.c ****   *            @arg SBS_DEBUG_NSEC: debug opening for non-secure only.
1139:Drivers/STM32H5xx_HAL_Driver/Src/stm32h5xx_hal.c ****   * @retval None
1140:Drivers/STM32H5xx_HAL_Driver/Src/stm32h5xx_hal.c ****   */
1141:Drivers/STM32H5xx_HAL_Driver/Src/stm32h5xx_hal.c **** void HAL_SBS_ConfigDebugSecurity(uint32_t Security)
1142:Drivers/STM32H5xx_HAL_Driver/Src/stm32h5xx_hal.c **** {
 1971              		.loc 1 1142 1 is_stmt 1 view -0
 1972              		.cfi_startproc
 1973              		@ args = 0, pretend = 0, frame = 0
 1974              		@ frame_needed = 0, uses_anonymous_args = 0
ARM GAS  C:\Users\sapph\AppData\Local\Temp\ccmhtm3h.s 			page 55


 1975              		@ link register save eliminated.
1143:Drivers/STM32H5xx_HAL_Driver/Src/stm32h5xx_hal.c ****   MODIFY_REG(SBS->DBGCR, SBS_DBGCR_DBG_AUTH_SEC, (Security << SBS_DBGCR_DBG_AUTH_SEC_Pos));
 1976              		.loc 1 1143 3 view .LVU335
 1977 0000 034A     		ldr	r2, .L194
 1978 0002 136A     		ldr	r3, [r2, #32]
 1979 0004 23F07F43 		bic	r3, r3, #-16777216
 1980 0008 43EA0063 		orr	r3, r3, r0, lsl #24
 1981 000c 1362     		str	r3, [r2, #32]
1144:Drivers/STM32H5xx_HAL_Driver/Src/stm32h5xx_hal.c **** }
 1982              		.loc 1 1144 1 is_stmt 0 view .LVU336
 1983 000e 7047     		bx	lr
 1984              	.L195:
 1985              		.align	2
 1986              	.L194:
 1987 0010 00040044 		.word	1140851712
 1988              		.cfi_endproc
 1989              	.LFE216:
 1991              		.section	.text.HAL_SBS_GetDebugSecurity,"ax",%progbits
 1992              		.align	1
 1993              		.global	HAL_SBS_GetDebugSecurity
 1994              		.syntax unified
 1995              		.thumb
 1996              		.thumb_func
 1998              	HAL_SBS_GetDebugSecurity:
 1999              	.LFB217:
1145:Drivers/STM32H5xx_HAL_Driver/Src/stm32h5xx_hal.c **** 
1146:Drivers/STM32H5xx_HAL_Driver/Src/stm32h5xx_hal.c **** /**
1147:Drivers/STM32H5xx_HAL_Driver/Src/stm32h5xx_hal.c ****   * @brief  Get the current value of the hide protection level.
1148:Drivers/STM32H5xx_HAL_Driver/Src/stm32h5xx_hal.c ****   * @note   This function can be only used when device state is Closed.
1149:Drivers/STM32H5xx_HAL_Driver/Src/stm32h5xx_hal.c ****   * @retval Returned value can be one of the following values:
1150:Drivers/STM32H5xx_HAL_Driver/Src/stm32h5xx_hal.c ****   *            @arg SBS_DEBUG_SEC_NSEC: debug opening for secure and non-secure.
1151:Drivers/STM32H5xx_HAL_Driver/Src/stm32h5xx_hal.c ****   *            @arg SBS_DEBUG_NSEC: debug opening for non-secure only.
1152:Drivers/STM32H5xx_HAL_Driver/Src/stm32h5xx_hal.c ****   */
1153:Drivers/STM32H5xx_HAL_Driver/Src/stm32h5xx_hal.c **** uint32_t HAL_SBS_GetDebugSecurity(void)
1154:Drivers/STM32H5xx_HAL_Driver/Src/stm32h5xx_hal.c **** {
 2000              		.loc 1 1154 1 is_stmt 1 view -0
 2001              		.cfi_startproc
 2002              		@ args = 0, pretend = 0, frame = 0
 2003              		@ frame_needed = 0, uses_anonymous_args = 0
 2004              		@ link register save eliminated.
1155:Drivers/STM32H5xx_HAL_Driver/Src/stm32h5xx_hal.c ****   return ((SBS->DBGCR & SBS_DBGCR_DBG_AUTH_SEC) >> SBS_DBGCR_DBG_AUTH_SEC_Pos);
 2005              		.loc 1 1155 3 view .LVU338
 2006              		.loc 1 1155 15 is_stmt 0 view .LVU339
 2007 0000 014B     		ldr	r3, .L197
 2008 0002 186A     		ldr	r0, [r3, #32]
1156:Drivers/STM32H5xx_HAL_Driver/Src/stm32h5xx_hal.c **** }
 2009              		.loc 1 1156 1 view .LVU340
 2010 0004 000E     		lsrs	r0, r0, #24
 2011 0006 7047     		bx	lr
 2012              	.L198:
 2013              		.align	2
 2014              	.L197:
 2015 0008 00040044 		.word	1140851712
 2016              		.cfi_endproc
 2017              	.LFE217:
 2019              		.section	.text.HAL_SBS_Lock,"ax",%progbits
 2020              		.align	1
ARM GAS  C:\Users\sapph\AppData\Local\Temp\ccmhtm3h.s 			page 56


 2021              		.global	HAL_SBS_Lock
 2022              		.syntax unified
 2023              		.thumb
 2024              		.thumb_func
 2026              	HAL_SBS_Lock:
 2027              	.LVL53:
 2028              	.LFB218:
1157:Drivers/STM32H5xx_HAL_Driver/Src/stm32h5xx_hal.c **** #endif /* SBS_DBGCR_DBG_AUTH_SEC */
1158:Drivers/STM32H5xx_HAL_Driver/Src/stm32h5xx_hal.c **** 
1159:Drivers/STM32H5xx_HAL_Driver/Src/stm32h5xx_hal.c **** /**
1160:Drivers/STM32H5xx_HAL_Driver/Src/stm32h5xx_hal.c ****   * @}
1161:Drivers/STM32H5xx_HAL_Driver/Src/stm32h5xx_hal.c ****   */
1162:Drivers/STM32H5xx_HAL_Driver/Src/stm32h5xx_hal.c **** 
1163:Drivers/STM32H5xx_HAL_Driver/Src/stm32h5xx_hal.c **** /** @defgroup HAL_Exported_Functions_Group9 HAL SBS lock management functions
1164:Drivers/STM32H5xx_HAL_Driver/Src/stm32h5xx_hal.c ****   *  @brief SBS lock management functions.
1165:Drivers/STM32H5xx_HAL_Driver/Src/stm32h5xx_hal.c ****   *
1166:Drivers/STM32H5xx_HAL_Driver/Src/stm32h5xx_hal.c **** @verbatim
1167:Drivers/STM32H5xx_HAL_Driver/Src/stm32h5xx_hal.c ****  ==================================================================================================
1168:Drivers/STM32H5xx_HAL_Driver/Src/stm32h5xx_hal.c ****                                         ##### SBS lock functions #####
1169:Drivers/STM32H5xx_HAL_Driver/Src/stm32h5xx_hal.c ****  ==================================================================================================
1170:Drivers/STM32H5xx_HAL_Driver/Src/stm32h5xx_hal.c **** 
1171:Drivers/STM32H5xx_HAL_Driver/Src/stm32h5xx_hal.c **** @endverbatim
1172:Drivers/STM32H5xx_HAL_Driver/Src/stm32h5xx_hal.c ****   * @{
1173:Drivers/STM32H5xx_HAL_Driver/Src/stm32h5xx_hal.c ****   */
1174:Drivers/STM32H5xx_HAL_Driver/Src/stm32h5xx_hal.c **** 
1175:Drivers/STM32H5xx_HAL_Driver/Src/stm32h5xx_hal.c **** /**
1176:Drivers/STM32H5xx_HAL_Driver/Src/stm32h5xx_hal.c ****   * @brief  Lock the SBS item(s).
1177:Drivers/STM32H5xx_HAL_Driver/Src/stm32h5xx_hal.c ****   * @note   Setting lock(s) depends on privilege mode in secure/non-secure code
1178:Drivers/STM32H5xx_HAL_Driver/Src/stm32h5xx_hal.c ****   *         Lock(s) cleared only at system reset
1179:Drivers/STM32H5xx_HAL_Driver/Src/stm32h5xx_hal.c ****   * @param  Item Item(s) to set lock on.
1180:Drivers/STM32H5xx_HAL_Driver/Src/stm32h5xx_hal.c ****   *         This parameter can be a combination of @ref SBS_Lock_items
1181:Drivers/STM32H5xx_HAL_Driver/Src/stm32h5xx_hal.c ****   * @retval None
1182:Drivers/STM32H5xx_HAL_Driver/Src/stm32h5xx_hal.c ****   */
1183:Drivers/STM32H5xx_HAL_Driver/Src/stm32h5xx_hal.c **** void HAL_SBS_Lock(uint32_t Item)
1184:Drivers/STM32H5xx_HAL_Driver/Src/stm32h5xx_hal.c **** {
 2029              		.loc 1 1184 1 is_stmt 1 view -0
 2030              		.cfi_startproc
 2031              		@ args = 0, pretend = 0, frame = 0
 2032              		@ frame_needed = 0, uses_anonymous_args = 0
 2033              		@ link register save eliminated.
1185:Drivers/STM32H5xx_HAL_Driver/Src/stm32h5xx_hal.c ****   /* Check the parameters */
1186:Drivers/STM32H5xx_HAL_Driver/Src/stm32h5xx_hal.c ****   assert_param(IS_SBS_LOCK_ITEMS(Item));
 2034              		.loc 1 1186 3 view .LVU342
1187:Drivers/STM32H5xx_HAL_Driver/Src/stm32h5xx_hal.c **** 
1188:Drivers/STM32H5xx_HAL_Driver/Src/stm32h5xx_hal.c ****   /* Privilege secure/non-secure locks */
1189:Drivers/STM32H5xx_HAL_Driver/Src/stm32h5xx_hal.c ****   SBS->CNSLCKR = (0xFFFFU & Item);  /* non-secure lock item in 16 lowest bits */
 2035              		.loc 1 1189 3 view .LVU343
 2036              		.loc 1 1189 27 is_stmt 0 view .LVU344
 2037 0000 80B2     		uxth	r0, r0
 2038              	.LVL54:
 2039              		.loc 1 1189 16 view .LVU345
 2040 0002 024B     		ldr	r3, .L200
 2041 0004 C3F84401 		str	r0, [r3, #324]
1190:Drivers/STM32H5xx_HAL_Driver/Src/stm32h5xx_hal.c **** 
1191:Drivers/STM32H5xx_HAL_Driver/Src/stm32h5xx_hal.c **** #if defined (__ARM_FEATURE_CMSE) && (__ARM_FEATURE_CMSE == 3U)
1192:Drivers/STM32H5xx_HAL_Driver/Src/stm32h5xx_hal.c ****   /* Privilege secure only locks */
1193:Drivers/STM32H5xx_HAL_Driver/Src/stm32h5xx_hal.c ****   SBS->CSLCKR = ((0xFFFF0000U & Item) >> 16U);  /* Secure-only lock item in 16 highest bits */
ARM GAS  C:\Users\sapph\AppData\Local\Temp\ccmhtm3h.s 			page 57


1194:Drivers/STM32H5xx_HAL_Driver/Src/stm32h5xx_hal.c **** #endif /* __ARM_FEATURE_CMSE */
1195:Drivers/STM32H5xx_HAL_Driver/Src/stm32h5xx_hal.c **** }
 2042              		.loc 1 1195 1 view .LVU346
 2043 0008 7047     		bx	lr
 2044              	.L201:
 2045 000a 00BF     		.align	2
 2046              	.L200:
 2047 000c 00040044 		.word	1140851712
 2048              		.cfi_endproc
 2049              	.LFE218:
 2051              		.section	.text.HAL_SBS_GetLock,"ax",%progbits
 2052              		.align	1
 2053              		.global	HAL_SBS_GetLock
 2054              		.syntax unified
 2055              		.thumb
 2056              		.thumb_func
 2058              	HAL_SBS_GetLock:
 2059              	.LVL55:
 2060              	.LFB219:
1196:Drivers/STM32H5xx_HAL_Driver/Src/stm32h5xx_hal.c **** 
1197:Drivers/STM32H5xx_HAL_Driver/Src/stm32h5xx_hal.c **** /**
1198:Drivers/STM32H5xx_HAL_Driver/Src/stm32h5xx_hal.c ****   * @brief  Get the lock state of SBS items.
1199:Drivers/STM32H5xx_HAL_Driver/Src/stm32h5xx_hal.c ****   * @note   Getting lock(s) depends on privilege mode in secure/non-secure code
1200:Drivers/STM32H5xx_HAL_Driver/Src/stm32h5xx_hal.c ****   * @param  pItem pointer to return locked items
1201:Drivers/STM32H5xx_HAL_Driver/Src/stm32h5xx_hal.c ****   *         the return value can be a combination of @ref SBS_Lock_items
1202:Drivers/STM32H5xx_HAL_Driver/Src/stm32h5xx_hal.c ****   * @retval HAL status
1203:Drivers/STM32H5xx_HAL_Driver/Src/stm32h5xx_hal.c ****   */
1204:Drivers/STM32H5xx_HAL_Driver/Src/stm32h5xx_hal.c **** HAL_StatusTypeDef HAL_SBS_GetLock(uint32_t *pItem)
1205:Drivers/STM32H5xx_HAL_Driver/Src/stm32h5xx_hal.c **** {
 2061              		.loc 1 1205 1 is_stmt 1 view -0
 2062              		.cfi_startproc
 2063              		@ args = 0, pretend = 0, frame = 0
 2064              		@ frame_needed = 0, uses_anonymous_args = 0
 2065              		@ link register save eliminated.
1206:Drivers/STM32H5xx_HAL_Driver/Src/stm32h5xx_hal.c ****   uint32_t tmp_lock;
 2066              		.loc 1 1206 3 view .LVU348
1207:Drivers/STM32H5xx_HAL_Driver/Src/stm32h5xx_hal.c **** 
1208:Drivers/STM32H5xx_HAL_Driver/Src/stm32h5xx_hal.c ****   /* Check null pointer */
1209:Drivers/STM32H5xx_HAL_Driver/Src/stm32h5xx_hal.c ****   if (pItem == NULL)
 2067              		.loc 1 1209 3 view .LVU349
 2068              		.loc 1 1209 6 is_stmt 0 view .LVU350
 2069 0000 28B1     		cbz	r0, .L204
1210:Drivers/STM32H5xx_HAL_Driver/Src/stm32h5xx_hal.c ****   {
1211:Drivers/STM32H5xx_HAL_Driver/Src/stm32h5xx_hal.c ****     return HAL_ERROR;
1212:Drivers/STM32H5xx_HAL_Driver/Src/stm32h5xx_hal.c ****   }
1213:Drivers/STM32H5xx_HAL_Driver/Src/stm32h5xx_hal.c **** 
1214:Drivers/STM32H5xx_HAL_Driver/Src/stm32h5xx_hal.c ****   /* Get the non-secure lock state */
1215:Drivers/STM32H5xx_HAL_Driver/Src/stm32h5xx_hal.c ****   tmp_lock = SBS->CNSLCKR;
 2070              		.loc 1 1215 3 is_stmt 1 view .LVU351
 2071              		.loc 1 1215 12 is_stmt 0 view .LVU352
 2072 0002 044A     		ldr	r2, .L205
 2073 0004 D2F84421 		ldr	r2, [r2, #324]
 2074              	.LVL56:
1216:Drivers/STM32H5xx_HAL_Driver/Src/stm32h5xx_hal.c **** 
1217:Drivers/STM32H5xx_HAL_Driver/Src/stm32h5xx_hal.c ****   /* Get the secure lock state in secure code */
1218:Drivers/STM32H5xx_HAL_Driver/Src/stm32h5xx_hal.c **** #if defined (__ARM_FEATURE_CMSE) && (__ARM_FEATURE_CMSE == 3U)
1219:Drivers/STM32H5xx_HAL_Driver/Src/stm32h5xx_hal.c ****   tmp_lock |= (SBS->CSLCKR << 16U);
ARM GAS  C:\Users\sapph\AppData\Local\Temp\ccmhtm3h.s 			page 58


1220:Drivers/STM32H5xx_HAL_Driver/Src/stm32h5xx_hal.c **** #endif /* __ARM_FEATURE_CMSE */
1221:Drivers/STM32H5xx_HAL_Driver/Src/stm32h5xx_hal.c **** 
1222:Drivers/STM32H5xx_HAL_Driver/Src/stm32h5xx_hal.c ****   /* Return overall lock status */
1223:Drivers/STM32H5xx_HAL_Driver/Src/stm32h5xx_hal.c ****   *pItem = tmp_lock;
 2075              		.loc 1 1223 3 is_stmt 1 view .LVU353
 2076              		.loc 1 1223 10 is_stmt 0 view .LVU354
 2077 0008 0260     		str	r2, [r0]
1224:Drivers/STM32H5xx_HAL_Driver/Src/stm32h5xx_hal.c **** 
1225:Drivers/STM32H5xx_HAL_Driver/Src/stm32h5xx_hal.c ****   return HAL_OK;
 2078              		.loc 1 1225 3 is_stmt 1 view .LVU355
 2079              		.loc 1 1225 10 is_stmt 0 view .LVU356
 2080 000a 0020     		movs	r0, #0
 2081              	.LVL57:
 2082              		.loc 1 1225 10 view .LVU357
 2083 000c 7047     		bx	lr
 2084              	.LVL58:
 2085              	.L204:
1211:Drivers/STM32H5xx_HAL_Driver/Src/stm32h5xx_hal.c ****   }
 2086              		.loc 1 1211 12 view .LVU358
 2087 000e 0120     		movs	r0, #1
 2088              	.LVL59:
1226:Drivers/STM32H5xx_HAL_Driver/Src/stm32h5xx_hal.c **** }
 2089              		.loc 1 1226 1 view .LVU359
 2090 0010 7047     		bx	lr
 2091              	.L206:
 2092 0012 00BF     		.align	2
 2093              	.L205:
 2094 0014 00040044 		.word	1140851712
 2095              		.cfi_endproc
 2096              	.LFE219:
 2098              		.global	uwTickFreq
 2099              		.section	.data.uwTickFreq,"aw"
 2102              	uwTickFreq:
 2103 0000 01       		.byte	1
 2104              		.global	uwTickPrio
 2105              		.section	.data.uwTickPrio,"aw"
 2106              		.align	2
 2109              	uwTickPrio:
 2110 0000 10000000 		.word	16
 2111              		.global	uwTick
 2112              		.section	.bss.uwTick,"aw",%nobits
 2113              		.align	2
 2116              	uwTick:
 2117 0000 00000000 		.space	4
 2118              		.text
 2119              	.Letext0:
 2120              		.file 2 "C:/Users/sapph/AppData/Roaming/Code/User/globalStorage/bmd.stm32-for-vscode/@xpack-dev-to
 2121              		.file 3 "Drivers/CMSIS/Device/ST/STM32H5xx/Include/stm32h533xx.h"
 2122              		.file 4 "C:/Users/sapph/AppData/Roaming/Code/User/globalStorage/bmd.stm32-for-vscode/@xpack-dev-to
 2123              		.file 5 "Drivers/CMSIS/Include/core_cm33.h"
 2124              		.file 6 "Drivers/CMSIS/Device/ST/STM32H5xx/Include/system_stm32h5xx.h"
 2125              		.file 7 "Drivers/STM32H5xx_HAL_Driver/Inc/stm32h5xx_hal_def.h"
 2126              		.file 8 "Drivers/STM32H5xx_HAL_Driver/Inc/stm32h5xx_hal.h"
 2127              		.file 9 "Drivers/STM32H5xx_HAL_Driver/Inc/stm32h5xx_hal_cortex.h"
 2128              		.file 10 "Drivers/STM32H5xx_HAL_Driver/Inc/stm32h5xx_hal_rcc.h"
ARM GAS  C:\Users\sapph\AppData\Local\Temp\ccmhtm3h.s 			page 59

