ARM GAS  C:\Users\sapph\AppData\Local\Temp\ccTfCvBa.s 			page 1


   1              		.cpu cortex-m33
   2              		.arch armv8-m.main
   3              		.fpu fpv4-sp-d16
   4              		.arch_extension dsp
   5              		.eabi_attribute 27, 1
   6              		.eabi_attribute 28, 1
   7              		.eabi_attribute 20, 1
   8              		.eabi_attribute 21, 1
   9              		.eabi_attribute 23, 3
  10              		.eabi_attribute 24, 1
  11              		.eabi_attribute 25, 1
  12              		.eabi_attribute 26, 1
  13              		.eabi_attribute 30, 1
  14              		.eabi_attribute 34, 1
  15              		.eabi_attribute 18, 4
  16              		.file	"stm32h5xx_hal_dma.c"
  17              		.text
  18              	.Ltext0:
  19              		.cfi_sections	.debug_frame
  20              		.file 1 "Drivers/STM32H5xx_HAL_Driver/Src/stm32h5xx_hal_dma.c"
  21              		.section	.text.DMA_SetConfig,"ax",%progbits
  22              		.align	1
  23              		.syntax unified
  24              		.thumb
  25              		.thumb_func
  27              	DMA_SetConfig:
  28              	.LVL0:
  29              	.LFB175:
   1:Drivers/STM32H5xx_HAL_Driver/Src/stm32h5xx_hal_dma.c **** /**
   2:Drivers/STM32H5xx_HAL_Driver/Src/stm32h5xx_hal_dma.c ****   *************************************************************************************************
   3:Drivers/STM32H5xx_HAL_Driver/Src/stm32h5xx_hal_dma.c ****   * @file    stm32h5xx_hal_dma.c
   4:Drivers/STM32H5xx_HAL_Driver/Src/stm32h5xx_hal_dma.c ****   * @author  MCD Application Team
   5:Drivers/STM32H5xx_HAL_Driver/Src/stm32h5xx_hal_dma.c ****   * @brief   This file provides firmware functions to manage the following functionalities of the D
   6:Drivers/STM32H5xx_HAL_Driver/Src/stm32h5xx_hal_dma.c ****   *          (DMA) peripheral:
   7:Drivers/STM32H5xx_HAL_Driver/Src/stm32h5xx_hal_dma.c ****   *            + Initialization/De-Initialization Functions
   8:Drivers/STM32H5xx_HAL_Driver/Src/stm32h5xx_hal_dma.c ****   *            + I/O Operation Functions
   9:Drivers/STM32H5xx_HAL_Driver/Src/stm32h5xx_hal_dma.c ****   *            + State and Errors Functions
  10:Drivers/STM32H5xx_HAL_Driver/Src/stm32h5xx_hal_dma.c ****   *            + DMA Attributes Functions
  11:Drivers/STM32H5xx_HAL_Driver/Src/stm32h5xx_hal_dma.c ****   *
  12:Drivers/STM32H5xx_HAL_Driver/Src/stm32h5xx_hal_dma.c ****   *************************************************************************************************
  13:Drivers/STM32H5xx_HAL_Driver/Src/stm32h5xx_hal_dma.c ****   * @attention
  14:Drivers/STM32H5xx_HAL_Driver/Src/stm32h5xx_hal_dma.c ****   *
  15:Drivers/STM32H5xx_HAL_Driver/Src/stm32h5xx_hal_dma.c ****   * Copyright (c) 2023 STMicroelectronics.
  16:Drivers/STM32H5xx_HAL_Driver/Src/stm32h5xx_hal_dma.c ****   * All rights reserved.
  17:Drivers/STM32H5xx_HAL_Driver/Src/stm32h5xx_hal_dma.c ****   *
  18:Drivers/STM32H5xx_HAL_Driver/Src/stm32h5xx_hal_dma.c ****   * This software is licensed under terms that can be found in the LICENSE file
  19:Drivers/STM32H5xx_HAL_Driver/Src/stm32h5xx_hal_dma.c ****   * in the root directory of this software component.
  20:Drivers/STM32H5xx_HAL_Driver/Src/stm32h5xx_hal_dma.c ****   * If no LICENSE file comes with this software, it is provided AS-IS.
  21:Drivers/STM32H5xx_HAL_Driver/Src/stm32h5xx_hal_dma.c ****   *
  22:Drivers/STM32H5xx_HAL_Driver/Src/stm32h5xx_hal_dma.c ****   *************************************************************************************************
  23:Drivers/STM32H5xx_HAL_Driver/Src/stm32h5xx_hal_dma.c ****   @verbatim
  24:Drivers/STM32H5xx_HAL_Driver/Src/stm32h5xx_hal_dma.c ****   =================================================================================================
  25:Drivers/STM32H5xx_HAL_Driver/Src/stm32h5xx_hal_dma.c ****                        ##### How to use this driver #####
  26:Drivers/STM32H5xx_HAL_Driver/Src/stm32h5xx_hal_dma.c ****   =================================================================================================
  27:Drivers/STM32H5xx_HAL_Driver/Src/stm32h5xx_hal_dma.c **** 
  28:Drivers/STM32H5xx_HAL_Driver/Src/stm32h5xx_hal_dma.c **** 
  29:Drivers/STM32H5xx_HAL_Driver/Src/stm32h5xx_hal_dma.c ****     [..]
ARM GAS  C:\Users\sapph\AppData\Local\Temp\ccTfCvBa.s 			page 2


  30:Drivers/STM32H5xx_HAL_Driver/Src/stm32h5xx_hal_dma.c ****       DMA transfer modes are divided to 2 major categories :
  31:Drivers/STM32H5xx_HAL_Driver/Src/stm32h5xx_hal_dma.c ****           (+) Normal transfers (legacy)
  32:Drivers/STM32H5xx_HAL_Driver/Src/stm32h5xx_hal_dma.c ****           (+) Linked-list transfers
  33:Drivers/STM32H5xx_HAL_Driver/Src/stm32h5xx_hal_dma.c **** 
  34:Drivers/STM32H5xx_HAL_Driver/Src/stm32h5xx_hal_dma.c ****     [..]
  35:Drivers/STM32H5xx_HAL_Driver/Src/stm32h5xx_hal_dma.c ****       Normal transfers mode is initialized via the standard module and linked-list mode is configur
  36:Drivers/STM32H5xx_HAL_Driver/Src/stm32h5xx_hal_dma.c ****       module.
  37:Drivers/STM32H5xx_HAL_Driver/Src/stm32h5xx_hal_dma.c **** 
  38:Drivers/STM32H5xx_HAL_Driver/Src/stm32h5xx_hal_dma.c ****     [..]
  39:Drivers/STM32H5xx_HAL_Driver/Src/stm32h5xx_hal_dma.c ****       Additionally to linked-list capability, all advanced DMA features are managed and configured 
  40:Drivers/STM32H5xx_HAL_Driver/Src/stm32h5xx_hal_dma.c ****       module as extensions to normal mode.
  41:Drivers/STM32H5xx_HAL_Driver/Src/stm32h5xx_hal_dma.c ****       Advanced features are :
  42:Drivers/STM32H5xx_HAL_Driver/Src/stm32h5xx_hal_dma.c ****           (+) Repeated block feature.
  43:Drivers/STM32H5xx_HAL_Driver/Src/stm32h5xx_hal_dma.c ****           (+) Trigger feature.
  44:Drivers/STM32H5xx_HAL_Driver/Src/stm32h5xx_hal_dma.c ****           (+) Data handling feature.
  45:Drivers/STM32H5xx_HAL_Driver/Src/stm32h5xx_hal_dma.c **** 
  46:Drivers/STM32H5xx_HAL_Driver/Src/stm32h5xx_hal_dma.c ****     [..]
  47:Drivers/STM32H5xx_HAL_Driver/Src/stm32h5xx_hal_dma.c ****       DMA Legacy circular transfer, is replaced by circular linked-list configuration.
  48:Drivers/STM32H5xx_HAL_Driver/Src/stm32h5xx_hal_dma.c **** 
  49:Drivers/STM32H5xx_HAL_Driver/Src/stm32h5xx_hal_dma.c **** 
  50:Drivers/STM32H5xx_HAL_Driver/Src/stm32h5xx_hal_dma.c ****     *** Initialization and De-Initialization ***
  51:Drivers/STM32H5xx_HAL_Driver/Src/stm32h5xx_hal_dma.c ****     ============================================
  52:Drivers/STM32H5xx_HAL_Driver/Src/stm32h5xx_hal_dma.c ****     [..]
  53:Drivers/STM32H5xx_HAL_Driver/Src/stm32h5xx_hal_dma.c ****       For a given channel, enable and configure the peripheral to be connected to the DMA Channel (
  54:Drivers/STM32H5xx_HAL_Driver/Src/stm32h5xx_hal_dma.c ****       SRAM/FLASH memories: no initialization is necessary) please refer to Reference manual for con
  55:Drivers/STM32H5xx_HAL_Driver/Src/stm32h5xx_hal_dma.c ****       peripherals and DMA requests.
  56:Drivers/STM32H5xx_HAL_Driver/Src/stm32h5xx_hal_dma.c **** 
  57:Drivers/STM32H5xx_HAL_Driver/Src/stm32h5xx_hal_dma.c ****     [..]
  58:Drivers/STM32H5xx_HAL_Driver/Src/stm32h5xx_hal_dma.c ****       For a given channel, use HAL_DMA_Init function to program the required configuration for norm
  59:Drivers/STM32H5xx_HAL_Driver/Src/stm32h5xx_hal_dma.c ****       the following parameters:
  60:Drivers/STM32H5xx_HAL_Driver/Src/stm32h5xx_hal_dma.c **** 
  61:Drivers/STM32H5xx_HAL_Driver/Src/stm32h5xx_hal_dma.c ****           (+) Request               : Specifies the DMA channel request
  62:Drivers/STM32H5xx_HAL_Driver/Src/stm32h5xx_hal_dma.c ****               Request parameters    :
  63:Drivers/STM32H5xx_HAL_Driver/Src/stm32h5xx_hal_dma.c ****               (++) can be a value of DMA_Request_Selection
  64:Drivers/STM32H5xx_HAL_Driver/Src/stm32h5xx_hal_dma.c **** 
  65:Drivers/STM32H5xx_HAL_Driver/Src/stm32h5xx_hal_dma.c ****           (+) BlkHWRequest          : Specifies the Block hardware request mode for DMA channel
  66:Drivers/STM32H5xx_HAL_Driver/Src/stm32h5xx_hal_dma.c ****               (++) can be a value of DMA_Block_Request
  67:Drivers/STM32H5xx_HAL_Driver/Src/stm32h5xx_hal_dma.c **** 
  68:Drivers/STM32H5xx_HAL_Driver/Src/stm32h5xx_hal_dma.c ****           (+) Direction             : Specifies the transfer direction for DMA channel
  69:Drivers/STM32H5xx_HAL_Driver/Src/stm32h5xx_hal_dma.c ****               (++) can be a value of DMA_Transfer_Direction
  70:Drivers/STM32H5xx_HAL_Driver/Src/stm32h5xx_hal_dma.c **** 
  71:Drivers/STM32H5xx_HAL_Driver/Src/stm32h5xx_hal_dma.c ****           (+) SrcInc                : Specifies the source increment mode for the DMA channel
  72:Drivers/STM32H5xx_HAL_Driver/Src/stm32h5xx_hal_dma.c ****               (++) can be a value of DMA_Source_Increment_Mode
  73:Drivers/STM32H5xx_HAL_Driver/Src/stm32h5xx_hal_dma.c **** 
  74:Drivers/STM32H5xx_HAL_Driver/Src/stm32h5xx_hal_dma.c ****           (+) DestInc               : Specifies the destination increment mode for the DMA channel
  75:Drivers/STM32H5xx_HAL_Driver/Src/stm32h5xx_hal_dma.c ****               (++) can be a value of DMA_Destination_Increment_Mode
  76:Drivers/STM32H5xx_HAL_Driver/Src/stm32h5xx_hal_dma.c **** 
  77:Drivers/STM32H5xx_HAL_Driver/Src/stm32h5xx_hal_dma.c ****           (+) SrcDataWidth          : Specifies the source data width for the DMA channel
  78:Drivers/STM32H5xx_HAL_Driver/Src/stm32h5xx_hal_dma.c ****               (++) can be a value of DMA_Source_Data_Width
  79:Drivers/STM32H5xx_HAL_Driver/Src/stm32h5xx_hal_dma.c **** 
  80:Drivers/STM32H5xx_HAL_Driver/Src/stm32h5xx_hal_dma.c ****           (+) DestDataWidth         : Specifies the destination data width for the DMA channel
  81:Drivers/STM32H5xx_HAL_Driver/Src/stm32h5xx_hal_dma.c ****               (++) can be a value of DMA_Destination_Data_Width
  82:Drivers/STM32H5xx_HAL_Driver/Src/stm32h5xx_hal_dma.c **** 
  83:Drivers/STM32H5xx_HAL_Driver/Src/stm32h5xx_hal_dma.c ****           (+) Priority              : Specifies the priority for the DMA channel
  84:Drivers/STM32H5xx_HAL_Driver/Src/stm32h5xx_hal_dma.c ****               (++) can be a value of DMA_Priority_Level
  85:Drivers/STM32H5xx_HAL_Driver/Src/stm32h5xx_hal_dma.c **** 
  86:Drivers/STM32H5xx_HAL_Driver/Src/stm32h5xx_hal_dma.c ****           (+) SrcBurstLength        : Specifies the source burst length (number of beats) for the D
ARM GAS  C:\Users\sapph\AppData\Local\Temp\ccTfCvBa.s 			page 3


  87:Drivers/STM32H5xx_HAL_Driver/Src/stm32h5xx_hal_dma.c ****               (++) can be a value of between 1 and 64
  88:Drivers/STM32H5xx_HAL_Driver/Src/stm32h5xx_hal_dma.c **** 
  89:Drivers/STM32H5xx_HAL_Driver/Src/stm32h5xx_hal_dma.c ****           (+) DestBurstLength       : Specifies the destination burst length (number of beats) for 
  90:Drivers/STM32H5xx_HAL_Driver/Src/stm32h5xx_hal_dma.c ****               (++) can be a value of between 1 and 64
  91:Drivers/STM32H5xx_HAL_Driver/Src/stm32h5xx_hal_dma.c **** 
  92:Drivers/STM32H5xx_HAL_Driver/Src/stm32h5xx_hal_dma.c ****           (+) TransferAllocatedPort : Specifies the source and destination allocated ports
  93:Drivers/STM32H5xx_HAL_Driver/Src/stm32h5xx_hal_dma.c ****               (++) can be a value of DMA_Transfer_Allocated_Port
  94:Drivers/STM32H5xx_HAL_Driver/Src/stm32h5xx_hal_dma.c **** 
  95:Drivers/STM32H5xx_HAL_Driver/Src/stm32h5xx_hal_dma.c ****           (+) TransferEventMode     : Specifies the transfer event mode for the DMA channel
  96:Drivers/STM32H5xx_HAL_Driver/Src/stm32h5xx_hal_dma.c ****               (++) can be a value of DMA_Transfer_Event_Mode
  97:Drivers/STM32H5xx_HAL_Driver/Src/stm32h5xx_hal_dma.c **** 
  98:Drivers/STM32H5xx_HAL_Driver/Src/stm32h5xx_hal_dma.c ****           (+) Mode                  : Specifies the transfer mode for the DMA channel
  99:Drivers/STM32H5xx_HAL_Driver/Src/stm32h5xx_hal_dma.c ****               (++) can be one of the following modes :
 100:Drivers/STM32H5xx_HAL_Driver/Src/stm32h5xx_hal_dma.c ****                   (+++) DMA_NORMAL : Normal Mode
 101:Drivers/STM32H5xx_HAL_Driver/Src/stm32h5xx_hal_dma.c ****                   (+++) DMA_PFCTRL : Peripheral Flow Control (peripheral early termination) Mode
 102:Drivers/STM32H5xx_HAL_Driver/Src/stm32h5xx_hal_dma.c **** 
 103:Drivers/STM32H5xx_HAL_Driver/Src/stm32h5xx_hal_dma.c ****     *** Polling mode IO operation ***
 104:Drivers/STM32H5xx_HAL_Driver/Src/stm32h5xx_hal_dma.c ****     =================================
 105:Drivers/STM32H5xx_HAL_Driver/Src/stm32h5xx_hal_dma.c ****     [..]
 106:Drivers/STM32H5xx_HAL_Driver/Src/stm32h5xx_hal_dma.c ****           (+) Use HAL_DMA_Start() to start a DMA normal transfer after the configuration of source 
 107:Drivers/STM32H5xx_HAL_Driver/Src/stm32h5xx_hal_dma.c ****               address and the size of data to be transferred.
 108:Drivers/STM32H5xx_HAL_Driver/Src/stm32h5xx_hal_dma.c **** 
 109:Drivers/STM32H5xx_HAL_Driver/Src/stm32h5xx_hal_dma.c ****           (+) Use HAL_DMA_PollForTransfer() to poll for selected transfer level. In this case a fix
 110:Drivers/STM32H5xx_HAL_Driver/Src/stm32h5xx_hal_dma.c ****               configured by User depending on his application.
 111:Drivers/STM32H5xx_HAL_Driver/Src/stm32h5xx_hal_dma.c ****               Transfer level can be :
 112:Drivers/STM32H5xx_HAL_Driver/Src/stm32h5xx_hal_dma.c ****               (++) HAL_DMA_HALF_TRANSFER
 113:Drivers/STM32H5xx_HAL_Driver/Src/stm32h5xx_hal_dma.c ****               (++) HAL_DMA_FULL_TRANSFER
 114:Drivers/STM32H5xx_HAL_Driver/Src/stm32h5xx_hal_dma.c ****               For circular transfer, this API returns an HAL_ERROR with HAL_DMA_ERROR_NOT_SUPPORTED
 115:Drivers/STM32H5xx_HAL_Driver/Src/stm32h5xx_hal_dma.c **** 
 116:Drivers/STM32H5xx_HAL_Driver/Src/stm32h5xx_hal_dma.c ****           (+) Use HAL_DMA_Abort() function to abort any ongoing DMA transfer in blocking mode.
 117:Drivers/STM32H5xx_HAL_Driver/Src/stm32h5xx_hal_dma.c ****               This API returns HAL_ERROR when there is no ongoing transfer or timeout is reached wh
 118:Drivers/STM32H5xx_HAL_Driver/Src/stm32h5xx_hal_dma.c ****               channel. (This API should not be called from an interrupt service routine)
 119:Drivers/STM32H5xx_HAL_Driver/Src/stm32h5xx_hal_dma.c **** 
 120:Drivers/STM32H5xx_HAL_Driver/Src/stm32h5xx_hal_dma.c **** 
 121:Drivers/STM32H5xx_HAL_Driver/Src/stm32h5xx_hal_dma.c ****     *** Interrupt mode IO operation ***
 122:Drivers/STM32H5xx_HAL_Driver/Src/stm32h5xx_hal_dma.c ****     ===================================
 123:Drivers/STM32H5xx_HAL_Driver/Src/stm32h5xx_hal_dma.c ****     [..]
 124:Drivers/STM32H5xx_HAL_Driver/Src/stm32h5xx_hal_dma.c ****           (+) Configure the DMA interrupt priority using HAL_NVIC_SetPriority()
 125:Drivers/STM32H5xx_HAL_Driver/Src/stm32h5xx_hal_dma.c **** 
 126:Drivers/STM32H5xx_HAL_Driver/Src/stm32h5xx_hal_dma.c ****           (+) Enable the DMA IRQ handler using HAL_NVIC_EnableIRQ()
 127:Drivers/STM32H5xx_HAL_Driver/Src/stm32h5xx_hal_dma.c **** 
 128:Drivers/STM32H5xx_HAL_Driver/Src/stm32h5xx_hal_dma.c ****           (+) Use HAL_DMA_RegisterCallback() function to register user callbacks from the following
 129:Drivers/STM32H5xx_HAL_Driver/Src/stm32h5xx_hal_dma.c ****               (++) XferCpltCallback     : transfer complete callback.
 130:Drivers/STM32H5xx_HAL_Driver/Src/stm32h5xx_hal_dma.c ****               (++) XferHalfCpltCallback : half transfer complete callback.
 131:Drivers/STM32H5xx_HAL_Driver/Src/stm32h5xx_hal_dma.c ****               (++) XferErrorCallback    : transfer error callback.
 132:Drivers/STM32H5xx_HAL_Driver/Src/stm32h5xx_hal_dma.c ****               (++) XferAbortCallback    : transfer abort complete callback.
 133:Drivers/STM32H5xx_HAL_Driver/Src/stm32h5xx_hal_dma.c ****               (++) XferSuspendCallback  : transfer suspend complete callback.
 134:Drivers/STM32H5xx_HAL_Driver/Src/stm32h5xx_hal_dma.c **** 
 135:Drivers/STM32H5xx_HAL_Driver/Src/stm32h5xx_hal_dma.c ****           (+) Use HAL_DMA_Start_IT() to start the DMA transfer after the enable of DMA interrupts a
 136:Drivers/STM32H5xx_HAL_Driver/Src/stm32h5xx_hal_dma.c ****               of source address,destination address and the size of data to be transferred.
 137:Drivers/STM32H5xx_HAL_Driver/Src/stm32h5xx_hal_dma.c **** 
 138:Drivers/STM32H5xx_HAL_Driver/Src/stm32h5xx_hal_dma.c ****           (+) Use HAL_DMA_IRQHandler() called under DMA_IRQHandler() interrupt subroutine to handle
 139:Drivers/STM32H5xx_HAL_Driver/Src/stm32h5xx_hal_dma.c **** 
 140:Drivers/STM32H5xx_HAL_Driver/Src/stm32h5xx_hal_dma.c ****           (+) Use HAL_DMA_Abort_IT() function to abort any on-going DMA transfer in non-blocking mo
 141:Drivers/STM32H5xx_HAL_Driver/Src/stm32h5xx_hal_dma.c ****               This API will suspend immediately the DMA channel execution. When the transfer is eff
 142:Drivers/STM32H5xx_HAL_Driver/Src/stm32h5xx_hal_dma.c ****               an interrupt is generated and HAL_DMA_IRQHandler() will reset the channel and execute
 143:Drivers/STM32H5xx_HAL_Driver/Src/stm32h5xx_hal_dma.c ****               XferAbortCallback. (This API could be called from an interrupt service routine)
ARM GAS  C:\Users\sapph\AppData\Local\Temp\ccTfCvBa.s 			page 4


 144:Drivers/STM32H5xx_HAL_Driver/Src/stm32h5xx_hal_dma.c **** 
 145:Drivers/STM32H5xx_HAL_Driver/Src/stm32h5xx_hal_dma.c **** 
 146:Drivers/STM32H5xx_HAL_Driver/Src/stm32h5xx_hal_dma.c ****     *** State and errors ***
 147:Drivers/STM32H5xx_HAL_Driver/Src/stm32h5xx_hal_dma.c ****     ========================
 148:Drivers/STM32H5xx_HAL_Driver/Src/stm32h5xx_hal_dma.c ****     [..]
 149:Drivers/STM32H5xx_HAL_Driver/Src/stm32h5xx_hal_dma.c ****           (+) Use HAL_DMA_GetState() function to get the DMA state.
 150:Drivers/STM32H5xx_HAL_Driver/Src/stm32h5xx_hal_dma.c ****           (+) Use HAL_DMA_GetError() function to get the DMA error code.
 151:Drivers/STM32H5xx_HAL_Driver/Src/stm32h5xx_hal_dma.c **** 
 152:Drivers/STM32H5xx_HAL_Driver/Src/stm32h5xx_hal_dma.c **** 
 153:Drivers/STM32H5xx_HAL_Driver/Src/stm32h5xx_hal_dma.c ****     *** Security and privilege attributes ***
 154:Drivers/STM32H5xx_HAL_Driver/Src/stm32h5xx_hal_dma.c ****     =========================================
 155:Drivers/STM32H5xx_HAL_Driver/Src/stm32h5xx_hal_dma.c ****     [..]
 156:Drivers/STM32H5xx_HAL_Driver/Src/stm32h5xx_hal_dma.c ****           (+) Use HAL_DMA_ConfigChannelAttributes() function to configure DMA channel security and 
 157:Drivers/STM32H5xx_HAL_Driver/Src/stm32h5xx_hal_dma.c ****               (++) Security  : at channel level, at source level and at destination level.
 158:Drivers/STM32H5xx_HAL_Driver/Src/stm32h5xx_hal_dma.c ****               (++) Privilege : at channel level.
 159:Drivers/STM32H5xx_HAL_Driver/Src/stm32h5xx_hal_dma.c ****           (+) Use HAL_DMA_GetConfigChannelAttributes() function to get the DMA channel attributes.
 160:Drivers/STM32H5xx_HAL_Driver/Src/stm32h5xx_hal_dma.c ****           (+) Use HAL_DMA_LockChannelAttributes() function to lock the DMA channel security and pri
 161:Drivers/STM32H5xx_HAL_Driver/Src/stm32h5xx_hal_dma.c ****               configuration. This API can be called once after each system boot.
 162:Drivers/STM32H5xx_HAL_Driver/Src/stm32h5xx_hal_dma.c ****               If called again, HAL_DMA_ConfigChannelAttributes() API has no effect.
 163:Drivers/STM32H5xx_HAL_Driver/Src/stm32h5xx_hal_dma.c ****               Unlock is done either by a system boot or a by an RCC reset.
 164:Drivers/STM32H5xx_HAL_Driver/Src/stm32h5xx_hal_dma.c ****           (+) Use HAL_DMA_GetLockChannelAttributes() function to get the attributes lock status.
 165:Drivers/STM32H5xx_HAL_Driver/Src/stm32h5xx_hal_dma.c **** 
 166:Drivers/STM32H5xx_HAL_Driver/Src/stm32h5xx_hal_dma.c **** 
 167:Drivers/STM32H5xx_HAL_Driver/Src/stm32h5xx_hal_dma.c ****     *** DMA HAL driver macros list ***
 168:Drivers/STM32H5xx_HAL_Driver/Src/stm32h5xx_hal_dma.c ****     ==================================
 169:Drivers/STM32H5xx_HAL_Driver/Src/stm32h5xx_hal_dma.c ****     [..]
 170:Drivers/STM32H5xx_HAL_Driver/Src/stm32h5xx_hal_dma.c ****       Below the list of most used macros in DMA HAL driver.
 171:Drivers/STM32H5xx_HAL_Driver/Src/stm32h5xx_hal_dma.c **** 
 172:Drivers/STM32H5xx_HAL_Driver/Src/stm32h5xx_hal_dma.c ****           (+) __HAL_DMA_ENABLE        : Enable the specified DMA Channel.
 173:Drivers/STM32H5xx_HAL_Driver/Src/stm32h5xx_hal_dma.c ****           (+) __HAL_DMA_DISABLE       : Disable the specified DMA Channel.
 174:Drivers/STM32H5xx_HAL_Driver/Src/stm32h5xx_hal_dma.c ****           (+) __HAL_DMA_GET_FLAG      : Get the DMA Channel pending flags.
 175:Drivers/STM32H5xx_HAL_Driver/Src/stm32h5xx_hal_dma.c ****           (+) __HAL_DMA_CLEAR_FLAG    : Clear the DMA Channel pending flags.
 176:Drivers/STM32H5xx_HAL_Driver/Src/stm32h5xx_hal_dma.c ****           (+) __HAL_DMA_ENABLE_IT     : Enable the specified DMA Channel interrupts.
 177:Drivers/STM32H5xx_HAL_Driver/Src/stm32h5xx_hal_dma.c ****           (+) __HAL_DMA_DISABLE_IT    : Disable the specified DMA Channel interrupts.
 178:Drivers/STM32H5xx_HAL_Driver/Src/stm32h5xx_hal_dma.c ****           (+) __HAL_DMA_GET_IT_SOURCE : Check whether the specified DMA Channel interrupt has occur
 179:Drivers/STM32H5xx_HAL_Driver/Src/stm32h5xx_hal_dma.c **** 
 180:Drivers/STM32H5xx_HAL_Driver/Src/stm32h5xx_hal_dma.c ****     [..]
 181:Drivers/STM32H5xx_HAL_Driver/Src/stm32h5xx_hal_dma.c ****      (@) You can refer to the header file of the DMA HAL driver for more useful macros.
 182:Drivers/STM32H5xx_HAL_Driver/Src/stm32h5xx_hal_dma.c **** 
 183:Drivers/STM32H5xx_HAL_Driver/Src/stm32h5xx_hal_dma.c ****     @endverbatim
 184:Drivers/STM32H5xx_HAL_Driver/Src/stm32h5xx_hal_dma.c ****   *************************************************************************************************
 185:Drivers/STM32H5xx_HAL_Driver/Src/stm32h5xx_hal_dma.c ****   */
 186:Drivers/STM32H5xx_HAL_Driver/Src/stm32h5xx_hal_dma.c **** 
 187:Drivers/STM32H5xx_HAL_Driver/Src/stm32h5xx_hal_dma.c **** /* Includes ---------------------------------------------------------------------------------------
 188:Drivers/STM32H5xx_HAL_Driver/Src/stm32h5xx_hal_dma.c **** #include "stm32h5xx_hal.h"
 189:Drivers/STM32H5xx_HAL_Driver/Src/stm32h5xx_hal_dma.c **** 
 190:Drivers/STM32H5xx_HAL_Driver/Src/stm32h5xx_hal_dma.c **** /** @addtogroup STM32H5xx_HAL_Driver
 191:Drivers/STM32H5xx_HAL_Driver/Src/stm32h5xx_hal_dma.c ****   * @{
 192:Drivers/STM32H5xx_HAL_Driver/Src/stm32h5xx_hal_dma.c ****   */
 193:Drivers/STM32H5xx_HAL_Driver/Src/stm32h5xx_hal_dma.c **** 
 194:Drivers/STM32H5xx_HAL_Driver/Src/stm32h5xx_hal_dma.c **** /** @defgroup DMA DMA
 195:Drivers/STM32H5xx_HAL_Driver/Src/stm32h5xx_hal_dma.c ****   * @brief DMA HAL module driver
 196:Drivers/STM32H5xx_HAL_Driver/Src/stm32h5xx_hal_dma.c ****   * @{
 197:Drivers/STM32H5xx_HAL_Driver/Src/stm32h5xx_hal_dma.c ****   */
 198:Drivers/STM32H5xx_HAL_Driver/Src/stm32h5xx_hal_dma.c **** 
 199:Drivers/STM32H5xx_HAL_Driver/Src/stm32h5xx_hal_dma.c **** #ifdef HAL_DMA_MODULE_ENABLED
 200:Drivers/STM32H5xx_HAL_Driver/Src/stm32h5xx_hal_dma.c **** 
ARM GAS  C:\Users\sapph\AppData\Local\Temp\ccTfCvBa.s 			page 5


 201:Drivers/STM32H5xx_HAL_Driver/Src/stm32h5xx_hal_dma.c **** /* Private typedef --------------------------------------------------------------------------------
 202:Drivers/STM32H5xx_HAL_Driver/Src/stm32h5xx_hal_dma.c **** /* Private constants ------------------------------------------------------------------------------
 203:Drivers/STM32H5xx_HAL_Driver/Src/stm32h5xx_hal_dma.c **** /* Private macro ----------------------------------------------------------------------------------
 204:Drivers/STM32H5xx_HAL_Driver/Src/stm32h5xx_hal_dma.c **** /* Private variables ------------------------------------------------------------------------------
 205:Drivers/STM32H5xx_HAL_Driver/Src/stm32h5xx_hal_dma.c **** /* Private function prototypes --------------------------------------------------------------------
 206:Drivers/STM32H5xx_HAL_Driver/Src/stm32h5xx_hal_dma.c **** static void DMA_SetConfig(DMA_HandleTypeDef const *const hdma,
 207:Drivers/STM32H5xx_HAL_Driver/Src/stm32h5xx_hal_dma.c ****                           uint32_t SrcAddress,
 208:Drivers/STM32H5xx_HAL_Driver/Src/stm32h5xx_hal_dma.c ****                           uint32_t DstAddress,
 209:Drivers/STM32H5xx_HAL_Driver/Src/stm32h5xx_hal_dma.c ****                           uint32_t SrcDataSize);
 210:Drivers/STM32H5xx_HAL_Driver/Src/stm32h5xx_hal_dma.c **** static void DMA_Init(DMA_HandleTypeDef const *const hdma);
 211:Drivers/STM32H5xx_HAL_Driver/Src/stm32h5xx_hal_dma.c **** 
 212:Drivers/STM32H5xx_HAL_Driver/Src/stm32h5xx_hal_dma.c **** /* Exported functions -----------------------------------------------------------------------------
 213:Drivers/STM32H5xx_HAL_Driver/Src/stm32h5xx_hal_dma.c **** 
 214:Drivers/STM32H5xx_HAL_Driver/Src/stm32h5xx_hal_dma.c **** /** @addtogroup DMA_Exported_Functions DMA Exported Functions
 215:Drivers/STM32H5xx_HAL_Driver/Src/stm32h5xx_hal_dma.c ****   * @{
 216:Drivers/STM32H5xx_HAL_Driver/Src/stm32h5xx_hal_dma.c ****   */
 217:Drivers/STM32H5xx_HAL_Driver/Src/stm32h5xx_hal_dma.c **** 
 218:Drivers/STM32H5xx_HAL_Driver/Src/stm32h5xx_hal_dma.c **** /** @addtogroup DMA_Exported_Functions_Group1
 219:Drivers/STM32H5xx_HAL_Driver/Src/stm32h5xx_hal_dma.c ****   *
 220:Drivers/STM32H5xx_HAL_Driver/Src/stm32h5xx_hal_dma.c **** @verbatim
 221:Drivers/STM32H5xx_HAL_Driver/Src/stm32h5xx_hal_dma.c ****   =================================================================================================
 222:Drivers/STM32H5xx_HAL_Driver/Src/stm32h5xx_hal_dma.c ****                        ##### Initialization and de-initialization functions #####
 223:Drivers/STM32H5xx_HAL_Driver/Src/stm32h5xx_hal_dma.c ****   =================================================================================================
 224:Drivers/STM32H5xx_HAL_Driver/Src/stm32h5xx_hal_dma.c ****     [..]
 225:Drivers/STM32H5xx_HAL_Driver/Src/stm32h5xx_hal_dma.c ****       This section provides functions allowing to initialize and de-initialize the DMA channel in n
 226:Drivers/STM32H5xx_HAL_Driver/Src/stm32h5xx_hal_dma.c **** 
 227:Drivers/STM32H5xx_HAL_Driver/Src/stm32h5xx_hal_dma.c ****     [..]
 228:Drivers/STM32H5xx_HAL_Driver/Src/stm32h5xx_hal_dma.c ****       (+) The HAL_DMA_Init() function follows the DMA channel configuration procedures as described
 229:Drivers/STM32H5xx_HAL_Driver/Src/stm32h5xx_hal_dma.c ****       (+) The HAL_DMA_DeInit() function allows to de-initialize the DMA channel.
 230:Drivers/STM32H5xx_HAL_Driver/Src/stm32h5xx_hal_dma.c **** 
 231:Drivers/STM32H5xx_HAL_Driver/Src/stm32h5xx_hal_dma.c **** @endverbatim
 232:Drivers/STM32H5xx_HAL_Driver/Src/stm32h5xx_hal_dma.c ****   * @{
 233:Drivers/STM32H5xx_HAL_Driver/Src/stm32h5xx_hal_dma.c ****   */
 234:Drivers/STM32H5xx_HAL_Driver/Src/stm32h5xx_hal_dma.c **** 
 235:Drivers/STM32H5xx_HAL_Driver/Src/stm32h5xx_hal_dma.c **** /**
 236:Drivers/STM32H5xx_HAL_Driver/Src/stm32h5xx_hal_dma.c ****   * @brief  Initialize the DMA channel in normal mode according to the specified parameters in the 
 237:Drivers/STM32H5xx_HAL_Driver/Src/stm32h5xx_hal_dma.c ****   *         create the associated handle.
 238:Drivers/STM32H5xx_HAL_Driver/Src/stm32h5xx_hal_dma.c ****   * @param  hdma : Pointer to a DMA_HandleTypeDef structure that contains the configuration informa
 239:Drivers/STM32H5xx_HAL_Driver/Src/stm32h5xx_hal_dma.c ****   *                specified DMA Channel.
 240:Drivers/STM32H5xx_HAL_Driver/Src/stm32h5xx_hal_dma.c ****   * @retval HAL status.
 241:Drivers/STM32H5xx_HAL_Driver/Src/stm32h5xx_hal_dma.c ****   */
 242:Drivers/STM32H5xx_HAL_Driver/Src/stm32h5xx_hal_dma.c **** HAL_StatusTypeDef HAL_DMA_Init(DMA_HandleTypeDef *const hdma)
 243:Drivers/STM32H5xx_HAL_Driver/Src/stm32h5xx_hal_dma.c **** {
 244:Drivers/STM32H5xx_HAL_Driver/Src/stm32h5xx_hal_dma.c ****   /* Get tick number */
 245:Drivers/STM32H5xx_HAL_Driver/Src/stm32h5xx_hal_dma.c ****   uint32_t tickstart = HAL_GetTick();
 246:Drivers/STM32H5xx_HAL_Driver/Src/stm32h5xx_hal_dma.c **** 
 247:Drivers/STM32H5xx_HAL_Driver/Src/stm32h5xx_hal_dma.c ****   /* Check the DMA peripheral handle parameter */
 248:Drivers/STM32H5xx_HAL_Driver/Src/stm32h5xx_hal_dma.c ****   if (hdma == NULL)
 249:Drivers/STM32H5xx_HAL_Driver/Src/stm32h5xx_hal_dma.c ****   {
 250:Drivers/STM32H5xx_HAL_Driver/Src/stm32h5xx_hal_dma.c ****     return HAL_ERROR;
 251:Drivers/STM32H5xx_HAL_Driver/Src/stm32h5xx_hal_dma.c ****   }
 252:Drivers/STM32H5xx_HAL_Driver/Src/stm32h5xx_hal_dma.c **** 
 253:Drivers/STM32H5xx_HAL_Driver/Src/stm32h5xx_hal_dma.c ****   /* Check the parameters */
 254:Drivers/STM32H5xx_HAL_Driver/Src/stm32h5xx_hal_dma.c ****   assert_param(IS_DMA_ALL_INSTANCE(hdma->Instance));
 255:Drivers/STM32H5xx_HAL_Driver/Src/stm32h5xx_hal_dma.c ****   assert_param(IS_DMA_DIRECTION(hdma->Init.Direction));
 256:Drivers/STM32H5xx_HAL_Driver/Src/stm32h5xx_hal_dma.c ****   if (hdma->Init.Direction != DMA_MEMORY_TO_MEMORY)
 257:Drivers/STM32H5xx_HAL_Driver/Src/stm32h5xx_hal_dma.c ****   {
ARM GAS  C:\Users\sapph\AppData\Local\Temp\ccTfCvBa.s 			page 6


 258:Drivers/STM32H5xx_HAL_Driver/Src/stm32h5xx_hal_dma.c ****     assert_param(IS_DMA_REQUEST(hdma->Init.Request));
 259:Drivers/STM32H5xx_HAL_Driver/Src/stm32h5xx_hal_dma.c ****   }
 260:Drivers/STM32H5xx_HAL_Driver/Src/stm32h5xx_hal_dma.c ****   assert_param(IS_DMA_BLOCK_HW_REQUEST(hdma->Init.BlkHWRequest));
 261:Drivers/STM32H5xx_HAL_Driver/Src/stm32h5xx_hal_dma.c ****   assert_param(IS_DMA_SOURCE_INC(hdma->Init.SrcInc));
 262:Drivers/STM32H5xx_HAL_Driver/Src/stm32h5xx_hal_dma.c ****   assert_param(IS_DMA_DESTINATION_INC(hdma->Init.DestInc));
 263:Drivers/STM32H5xx_HAL_Driver/Src/stm32h5xx_hal_dma.c ****   assert_param(IS_DMA_SOURCE_DATA_WIDTH(hdma->Init.SrcDataWidth));
 264:Drivers/STM32H5xx_HAL_Driver/Src/stm32h5xx_hal_dma.c ****   assert_param(IS_DMA_DESTINATION_DATA_WIDTH(hdma->Init.DestDataWidth));
 265:Drivers/STM32H5xx_HAL_Driver/Src/stm32h5xx_hal_dma.c ****   assert_param(IS_DMA_PRIORITY(hdma->Init.Priority));
 266:Drivers/STM32H5xx_HAL_Driver/Src/stm32h5xx_hal_dma.c ****   assert_param(IS_DMA_TCEM_EVENT_MODE(hdma->Init.TransferEventMode));
 267:Drivers/STM32H5xx_HAL_Driver/Src/stm32h5xx_hal_dma.c ****   assert_param(IS_DMA_MODE(hdma->Init.Mode));
 268:Drivers/STM32H5xx_HAL_Driver/Src/stm32h5xx_hal_dma.c ****   if (hdma->Init.Mode == DMA_PFCTRL)
 269:Drivers/STM32H5xx_HAL_Driver/Src/stm32h5xx_hal_dma.c ****   {
 270:Drivers/STM32H5xx_HAL_Driver/Src/stm32h5xx_hal_dma.c ****     assert_param(IS_DMA_PFREQ_INSTANCE(hdma->Instance));
 271:Drivers/STM32H5xx_HAL_Driver/Src/stm32h5xx_hal_dma.c ****   }
 272:Drivers/STM32H5xx_HAL_Driver/Src/stm32h5xx_hal_dma.c ****   /* Check DMA channel instance */
 273:Drivers/STM32H5xx_HAL_Driver/Src/stm32h5xx_hal_dma.c ****   if (IS_GPDMA_INSTANCE(hdma->Instance) != 0U)
 274:Drivers/STM32H5xx_HAL_Driver/Src/stm32h5xx_hal_dma.c ****   {
 275:Drivers/STM32H5xx_HAL_Driver/Src/stm32h5xx_hal_dma.c ****     assert_param(IS_DMA_BURST_LENGTH(hdma->Init.SrcBurstLength));
 276:Drivers/STM32H5xx_HAL_Driver/Src/stm32h5xx_hal_dma.c ****     assert_param(IS_DMA_BURST_LENGTH(hdma->Init.DestBurstLength));
 277:Drivers/STM32H5xx_HAL_Driver/Src/stm32h5xx_hal_dma.c ****     assert_param(IS_DMA_TRANSFER_ALLOCATED_PORT(hdma->Init.TransferAllocatedPort));
 278:Drivers/STM32H5xx_HAL_Driver/Src/stm32h5xx_hal_dma.c ****   }
 279:Drivers/STM32H5xx_HAL_Driver/Src/stm32h5xx_hal_dma.c **** 
 280:Drivers/STM32H5xx_HAL_Driver/Src/stm32h5xx_hal_dma.c ****   /* Allocate lock resource */
 281:Drivers/STM32H5xx_HAL_Driver/Src/stm32h5xx_hal_dma.c ****   __HAL_UNLOCK(hdma);
 282:Drivers/STM32H5xx_HAL_Driver/Src/stm32h5xx_hal_dma.c **** 
 283:Drivers/STM32H5xx_HAL_Driver/Src/stm32h5xx_hal_dma.c ****   /* Update the DMA channel state */
 284:Drivers/STM32H5xx_HAL_Driver/Src/stm32h5xx_hal_dma.c ****   hdma->State = HAL_DMA_STATE_BUSY;
 285:Drivers/STM32H5xx_HAL_Driver/Src/stm32h5xx_hal_dma.c **** 
 286:Drivers/STM32H5xx_HAL_Driver/Src/stm32h5xx_hal_dma.c ****   /* Disable the DMA channel */
 287:Drivers/STM32H5xx_HAL_Driver/Src/stm32h5xx_hal_dma.c ****   __HAL_DMA_DISABLE(hdma);
 288:Drivers/STM32H5xx_HAL_Driver/Src/stm32h5xx_hal_dma.c **** 
 289:Drivers/STM32H5xx_HAL_Driver/Src/stm32h5xx_hal_dma.c ****   /* Check if the DMA channel is effectively disabled */
 290:Drivers/STM32H5xx_HAL_Driver/Src/stm32h5xx_hal_dma.c ****   while ((hdma->Instance->CCR & DMA_CCR_EN) != 0U)
 291:Drivers/STM32H5xx_HAL_Driver/Src/stm32h5xx_hal_dma.c ****   {
 292:Drivers/STM32H5xx_HAL_Driver/Src/stm32h5xx_hal_dma.c ****     /* Check for the Timeout */
 293:Drivers/STM32H5xx_HAL_Driver/Src/stm32h5xx_hal_dma.c ****     if ((HAL_GetTick() - tickstart) > HAL_TIMEOUT_DMA_ABORT)
 294:Drivers/STM32H5xx_HAL_Driver/Src/stm32h5xx_hal_dma.c ****     {
 295:Drivers/STM32H5xx_HAL_Driver/Src/stm32h5xx_hal_dma.c ****       /* Update the DMA channel error code */
 296:Drivers/STM32H5xx_HAL_Driver/Src/stm32h5xx_hal_dma.c ****       hdma->ErrorCode = HAL_DMA_ERROR_TIMEOUT;
 297:Drivers/STM32H5xx_HAL_Driver/Src/stm32h5xx_hal_dma.c **** 
 298:Drivers/STM32H5xx_HAL_Driver/Src/stm32h5xx_hal_dma.c ****       /* Update the DMA channel state */
 299:Drivers/STM32H5xx_HAL_Driver/Src/stm32h5xx_hal_dma.c ****       hdma->State = HAL_DMA_STATE_ERROR;
 300:Drivers/STM32H5xx_HAL_Driver/Src/stm32h5xx_hal_dma.c **** 
 301:Drivers/STM32H5xx_HAL_Driver/Src/stm32h5xx_hal_dma.c ****       return HAL_ERROR;
 302:Drivers/STM32H5xx_HAL_Driver/Src/stm32h5xx_hal_dma.c ****     }
 303:Drivers/STM32H5xx_HAL_Driver/Src/stm32h5xx_hal_dma.c ****   }
 304:Drivers/STM32H5xx_HAL_Driver/Src/stm32h5xx_hal_dma.c **** 
 305:Drivers/STM32H5xx_HAL_Driver/Src/stm32h5xx_hal_dma.c ****   /* Initialize the DMA channel registers */
 306:Drivers/STM32H5xx_HAL_Driver/Src/stm32h5xx_hal_dma.c ****   DMA_Init(hdma);
 307:Drivers/STM32H5xx_HAL_Driver/Src/stm32h5xx_hal_dma.c **** 
 308:Drivers/STM32H5xx_HAL_Driver/Src/stm32h5xx_hal_dma.c ****   /* Update DMA channel operation mode */
 309:Drivers/STM32H5xx_HAL_Driver/Src/stm32h5xx_hal_dma.c ****   hdma->Mode = hdma->Init.Mode;
 310:Drivers/STM32H5xx_HAL_Driver/Src/stm32h5xx_hal_dma.c **** 
 311:Drivers/STM32H5xx_HAL_Driver/Src/stm32h5xx_hal_dma.c ****   /* Update the DMA channel error code */
 312:Drivers/STM32H5xx_HAL_Driver/Src/stm32h5xx_hal_dma.c ****   hdma->ErrorCode = HAL_DMA_ERROR_NONE;
 313:Drivers/STM32H5xx_HAL_Driver/Src/stm32h5xx_hal_dma.c **** 
 314:Drivers/STM32H5xx_HAL_Driver/Src/stm32h5xx_hal_dma.c ****   /* Update the DMA channel state */
ARM GAS  C:\Users\sapph\AppData\Local\Temp\ccTfCvBa.s 			page 7


 315:Drivers/STM32H5xx_HAL_Driver/Src/stm32h5xx_hal_dma.c ****   hdma->State = HAL_DMA_STATE_READY;
 316:Drivers/STM32H5xx_HAL_Driver/Src/stm32h5xx_hal_dma.c **** 
 317:Drivers/STM32H5xx_HAL_Driver/Src/stm32h5xx_hal_dma.c ****   return HAL_OK;
 318:Drivers/STM32H5xx_HAL_Driver/Src/stm32h5xx_hal_dma.c **** }
 319:Drivers/STM32H5xx_HAL_Driver/Src/stm32h5xx_hal_dma.c **** 
 320:Drivers/STM32H5xx_HAL_Driver/Src/stm32h5xx_hal_dma.c **** /**
 321:Drivers/STM32H5xx_HAL_Driver/Src/stm32h5xx_hal_dma.c ****   * @brief  DeInitialize the DMA channel when it is configured in normal mode.
 322:Drivers/STM32H5xx_HAL_Driver/Src/stm32h5xx_hal_dma.c ****   * @param  hdma : Pointer to a DMA_HandleTypeDef structure that contains the configuration informa
 323:Drivers/STM32H5xx_HAL_Driver/Src/stm32h5xx_hal_dma.c ****   *                specified DMA Channel.
 324:Drivers/STM32H5xx_HAL_Driver/Src/stm32h5xx_hal_dma.c ****   * @retval HAL status.
 325:Drivers/STM32H5xx_HAL_Driver/Src/stm32h5xx_hal_dma.c ****   */
 326:Drivers/STM32H5xx_HAL_Driver/Src/stm32h5xx_hal_dma.c **** HAL_StatusTypeDef HAL_DMA_DeInit(DMA_HandleTypeDef *const hdma)
 327:Drivers/STM32H5xx_HAL_Driver/Src/stm32h5xx_hal_dma.c **** {
 328:Drivers/STM32H5xx_HAL_Driver/Src/stm32h5xx_hal_dma.c **** 
 329:Drivers/STM32H5xx_HAL_Driver/Src/stm32h5xx_hal_dma.c ****   DMA_TypeDef *p_dma_instance;
 330:Drivers/STM32H5xx_HAL_Driver/Src/stm32h5xx_hal_dma.c **** 
 331:Drivers/STM32H5xx_HAL_Driver/Src/stm32h5xx_hal_dma.c ****   uint32_t tickstart = HAL_GetTick();
 332:Drivers/STM32H5xx_HAL_Driver/Src/stm32h5xx_hal_dma.c **** 
 333:Drivers/STM32H5xx_HAL_Driver/Src/stm32h5xx_hal_dma.c ****   /* Check the DMA peripheral handle parameter */
 334:Drivers/STM32H5xx_HAL_Driver/Src/stm32h5xx_hal_dma.c ****   if (hdma == NULL)
 335:Drivers/STM32H5xx_HAL_Driver/Src/stm32h5xx_hal_dma.c ****   {
 336:Drivers/STM32H5xx_HAL_Driver/Src/stm32h5xx_hal_dma.c ****     return HAL_ERROR;
 337:Drivers/STM32H5xx_HAL_Driver/Src/stm32h5xx_hal_dma.c ****   }
 338:Drivers/STM32H5xx_HAL_Driver/Src/stm32h5xx_hal_dma.c **** 
 339:Drivers/STM32H5xx_HAL_Driver/Src/stm32h5xx_hal_dma.c ****   /* Check the parameters */
 340:Drivers/STM32H5xx_HAL_Driver/Src/stm32h5xx_hal_dma.c ****   assert_param(IS_DMA_ALL_INSTANCE(hdma->Instance));
 341:Drivers/STM32H5xx_HAL_Driver/Src/stm32h5xx_hal_dma.c **** 
 342:Drivers/STM32H5xx_HAL_Driver/Src/stm32h5xx_hal_dma.c ****   /* Get DMA instance */
 343:Drivers/STM32H5xx_HAL_Driver/Src/stm32h5xx_hal_dma.c ****   p_dma_instance = GET_DMA_INSTANCE(hdma);
 344:Drivers/STM32H5xx_HAL_Driver/Src/stm32h5xx_hal_dma.c **** 
 345:Drivers/STM32H5xx_HAL_Driver/Src/stm32h5xx_hal_dma.c ****   /* Disable the selected DMA Channel */
 346:Drivers/STM32H5xx_HAL_Driver/Src/stm32h5xx_hal_dma.c ****   __HAL_DMA_DISABLE(hdma);
 347:Drivers/STM32H5xx_HAL_Driver/Src/stm32h5xx_hal_dma.c **** 
 348:Drivers/STM32H5xx_HAL_Driver/Src/stm32h5xx_hal_dma.c ****   /* Check if the DMA channel is effectively disabled */
 349:Drivers/STM32H5xx_HAL_Driver/Src/stm32h5xx_hal_dma.c ****   while ((hdma->Instance->CCR & DMA_CCR_EN) != 0U)
 350:Drivers/STM32H5xx_HAL_Driver/Src/stm32h5xx_hal_dma.c ****   {
 351:Drivers/STM32H5xx_HAL_Driver/Src/stm32h5xx_hal_dma.c ****     /* Check for the Timeout */
 352:Drivers/STM32H5xx_HAL_Driver/Src/stm32h5xx_hal_dma.c ****     if ((HAL_GetTick() - tickstart) > HAL_TIMEOUT_DMA_ABORT)
 353:Drivers/STM32H5xx_HAL_Driver/Src/stm32h5xx_hal_dma.c ****     {
 354:Drivers/STM32H5xx_HAL_Driver/Src/stm32h5xx_hal_dma.c ****       /* Update the DMA channel error code */
 355:Drivers/STM32H5xx_HAL_Driver/Src/stm32h5xx_hal_dma.c ****       hdma->ErrorCode = HAL_DMA_ERROR_TIMEOUT;
 356:Drivers/STM32H5xx_HAL_Driver/Src/stm32h5xx_hal_dma.c **** 
 357:Drivers/STM32H5xx_HAL_Driver/Src/stm32h5xx_hal_dma.c ****       /* Update the DMA channel state */
 358:Drivers/STM32H5xx_HAL_Driver/Src/stm32h5xx_hal_dma.c ****       hdma->State = HAL_DMA_STATE_ERROR;
 359:Drivers/STM32H5xx_HAL_Driver/Src/stm32h5xx_hal_dma.c **** 
 360:Drivers/STM32H5xx_HAL_Driver/Src/stm32h5xx_hal_dma.c ****       return HAL_ERROR;
 361:Drivers/STM32H5xx_HAL_Driver/Src/stm32h5xx_hal_dma.c ****     }
 362:Drivers/STM32H5xx_HAL_Driver/Src/stm32h5xx_hal_dma.c ****   }
 363:Drivers/STM32H5xx_HAL_Driver/Src/stm32h5xx_hal_dma.c **** 
 364:Drivers/STM32H5xx_HAL_Driver/Src/stm32h5xx_hal_dma.c ****   /* Reset DMA Channel registers */
 365:Drivers/STM32H5xx_HAL_Driver/Src/stm32h5xx_hal_dma.c ****   hdma->Instance->CLBAR = 0U;
 366:Drivers/STM32H5xx_HAL_Driver/Src/stm32h5xx_hal_dma.c ****   hdma->Instance->CCR   = 0U;
 367:Drivers/STM32H5xx_HAL_Driver/Src/stm32h5xx_hal_dma.c ****   hdma->Instance->CTR1  = 0U;
 368:Drivers/STM32H5xx_HAL_Driver/Src/stm32h5xx_hal_dma.c ****   hdma->Instance->CTR2  = 0U;
 369:Drivers/STM32H5xx_HAL_Driver/Src/stm32h5xx_hal_dma.c ****   hdma->Instance->CBR1  = 0U;
 370:Drivers/STM32H5xx_HAL_Driver/Src/stm32h5xx_hal_dma.c ****   hdma->Instance->CSAR  = 0U;
 371:Drivers/STM32H5xx_HAL_Driver/Src/stm32h5xx_hal_dma.c ****   hdma->Instance->CDAR  = 0U;
ARM GAS  C:\Users\sapph\AppData\Local\Temp\ccTfCvBa.s 			page 8


 372:Drivers/STM32H5xx_HAL_Driver/Src/stm32h5xx_hal_dma.c ****   hdma->Instance->CLLR  = 0U;
 373:Drivers/STM32H5xx_HAL_Driver/Src/stm32h5xx_hal_dma.c **** 
 374:Drivers/STM32H5xx_HAL_Driver/Src/stm32h5xx_hal_dma.c ****   /* Reset 2D Addressing registers */
 375:Drivers/STM32H5xx_HAL_Driver/Src/stm32h5xx_hal_dma.c ****   if (IS_DMA_2D_ADDRESSING_INSTANCE(hdma->Instance) != 0U)
 376:Drivers/STM32H5xx_HAL_Driver/Src/stm32h5xx_hal_dma.c ****   {
 377:Drivers/STM32H5xx_HAL_Driver/Src/stm32h5xx_hal_dma.c ****     hdma->Instance->CTR3 = 0U;
 378:Drivers/STM32H5xx_HAL_Driver/Src/stm32h5xx_hal_dma.c ****     hdma->Instance->CBR2 = 0U;
 379:Drivers/STM32H5xx_HAL_Driver/Src/stm32h5xx_hal_dma.c ****   }
 380:Drivers/STM32H5xx_HAL_Driver/Src/stm32h5xx_hal_dma.c **** 
 381:Drivers/STM32H5xx_HAL_Driver/Src/stm32h5xx_hal_dma.c ****   /* Clear privilege attribute */
 382:Drivers/STM32H5xx_HAL_Driver/Src/stm32h5xx_hal_dma.c ****   CLEAR_BIT(p_dma_instance->PRIVCFGR, (1UL << (GET_DMA_CHANNEL(hdma) & 0x1FU)));
 383:Drivers/STM32H5xx_HAL_Driver/Src/stm32h5xx_hal_dma.c **** 
 384:Drivers/STM32H5xx_HAL_Driver/Src/stm32h5xx_hal_dma.c **** #if defined (__ARM_FEATURE_CMSE) && (__ARM_FEATURE_CMSE == 3U)
 385:Drivers/STM32H5xx_HAL_Driver/Src/stm32h5xx_hal_dma.c ****   /* Clear secure attribute */
 386:Drivers/STM32H5xx_HAL_Driver/Src/stm32h5xx_hal_dma.c ****   CLEAR_BIT(p_dma_instance->SECCFGR, (1UL << (GET_DMA_CHANNEL(hdma) & 0x1FU)));
 387:Drivers/STM32H5xx_HAL_Driver/Src/stm32h5xx_hal_dma.c **** #endif /* (__ARM_FEATURE_CMSE) && (__ARM_FEATURE_CMSE == 3U) */
 388:Drivers/STM32H5xx_HAL_Driver/Src/stm32h5xx_hal_dma.c **** 
 389:Drivers/STM32H5xx_HAL_Driver/Src/stm32h5xx_hal_dma.c ****   /* Clear all flags */
 390:Drivers/STM32H5xx_HAL_Driver/Src/stm32h5xx_hal_dma.c ****   __HAL_DMA_CLEAR_FLAG(hdma, (DMA_FLAG_TC | DMA_FLAG_HT | DMA_FLAG_DTE | DMA_FLAG_ULE | DMA_FLAG_US
 391:Drivers/STM32H5xx_HAL_Driver/Src/stm32h5xx_hal_dma.c ****                               DMA_FLAG_TO));
 392:Drivers/STM32H5xx_HAL_Driver/Src/stm32h5xx_hal_dma.c **** 
 393:Drivers/STM32H5xx_HAL_Driver/Src/stm32h5xx_hal_dma.c ****   /* Clean all callbacks */
 394:Drivers/STM32H5xx_HAL_Driver/Src/stm32h5xx_hal_dma.c ****   hdma->XferCpltCallback     = NULL;
 395:Drivers/STM32H5xx_HAL_Driver/Src/stm32h5xx_hal_dma.c ****   hdma->XferHalfCpltCallback = NULL;
 396:Drivers/STM32H5xx_HAL_Driver/Src/stm32h5xx_hal_dma.c ****   hdma->XferErrorCallback    = NULL;
 397:Drivers/STM32H5xx_HAL_Driver/Src/stm32h5xx_hal_dma.c ****   hdma->XferAbortCallback    = NULL;
 398:Drivers/STM32H5xx_HAL_Driver/Src/stm32h5xx_hal_dma.c ****   hdma->XferSuspendCallback  = NULL;
 399:Drivers/STM32H5xx_HAL_Driver/Src/stm32h5xx_hal_dma.c **** 
 400:Drivers/STM32H5xx_HAL_Driver/Src/stm32h5xx_hal_dma.c ****   /* Clean DMA queue */
 401:Drivers/STM32H5xx_HAL_Driver/Src/stm32h5xx_hal_dma.c ****   hdma->LinkedListQueue = NULL;
 402:Drivers/STM32H5xx_HAL_Driver/Src/stm32h5xx_hal_dma.c **** 
 403:Drivers/STM32H5xx_HAL_Driver/Src/stm32h5xx_hal_dma.c ****   /* Clean DMA parent */
 404:Drivers/STM32H5xx_HAL_Driver/Src/stm32h5xx_hal_dma.c ****   if (hdma->Parent != NULL)
 405:Drivers/STM32H5xx_HAL_Driver/Src/stm32h5xx_hal_dma.c ****   {
 406:Drivers/STM32H5xx_HAL_Driver/Src/stm32h5xx_hal_dma.c ****     hdma->Parent = NULL;
 407:Drivers/STM32H5xx_HAL_Driver/Src/stm32h5xx_hal_dma.c ****   }
 408:Drivers/STM32H5xx_HAL_Driver/Src/stm32h5xx_hal_dma.c **** 
 409:Drivers/STM32H5xx_HAL_Driver/Src/stm32h5xx_hal_dma.c ****   /* Update DMA channel operation mode */
 410:Drivers/STM32H5xx_HAL_Driver/Src/stm32h5xx_hal_dma.c ****   hdma->Mode = DMA_NORMAL;
 411:Drivers/STM32H5xx_HAL_Driver/Src/stm32h5xx_hal_dma.c **** 
 412:Drivers/STM32H5xx_HAL_Driver/Src/stm32h5xx_hal_dma.c ****   /* Update the DMA channel error code */
 413:Drivers/STM32H5xx_HAL_Driver/Src/stm32h5xx_hal_dma.c ****   hdma->ErrorCode = HAL_DMA_ERROR_NONE;
 414:Drivers/STM32H5xx_HAL_Driver/Src/stm32h5xx_hal_dma.c **** 
 415:Drivers/STM32H5xx_HAL_Driver/Src/stm32h5xx_hal_dma.c ****   /* Update the DMA channel state */
 416:Drivers/STM32H5xx_HAL_Driver/Src/stm32h5xx_hal_dma.c ****   hdma->State = HAL_DMA_STATE_RESET;
 417:Drivers/STM32H5xx_HAL_Driver/Src/stm32h5xx_hal_dma.c **** 
 418:Drivers/STM32H5xx_HAL_Driver/Src/stm32h5xx_hal_dma.c ****   /* Release Lock */
 419:Drivers/STM32H5xx_HAL_Driver/Src/stm32h5xx_hal_dma.c ****   __HAL_UNLOCK(hdma);
 420:Drivers/STM32H5xx_HAL_Driver/Src/stm32h5xx_hal_dma.c **** 
 421:Drivers/STM32H5xx_HAL_Driver/Src/stm32h5xx_hal_dma.c ****   return HAL_OK;
 422:Drivers/STM32H5xx_HAL_Driver/Src/stm32h5xx_hal_dma.c **** }
 423:Drivers/STM32H5xx_HAL_Driver/Src/stm32h5xx_hal_dma.c **** /**
 424:Drivers/STM32H5xx_HAL_Driver/Src/stm32h5xx_hal_dma.c ****   * @}
 425:Drivers/STM32H5xx_HAL_Driver/Src/stm32h5xx_hal_dma.c ****   */
 426:Drivers/STM32H5xx_HAL_Driver/Src/stm32h5xx_hal_dma.c **** 
 427:Drivers/STM32H5xx_HAL_Driver/Src/stm32h5xx_hal_dma.c **** /** @addtogroup DMA_Exported_Functions_Group2
 428:Drivers/STM32H5xx_HAL_Driver/Src/stm32h5xx_hal_dma.c ****   *
ARM GAS  C:\Users\sapph\AppData\Local\Temp\ccTfCvBa.s 			page 9


 429:Drivers/STM32H5xx_HAL_Driver/Src/stm32h5xx_hal_dma.c **** @verbatim
 430:Drivers/STM32H5xx_HAL_Driver/Src/stm32h5xx_hal_dma.c ****   =================================================================================================
 431:Drivers/STM32H5xx_HAL_Driver/Src/stm32h5xx_hal_dma.c ****                                 ##### IO operation functions #####
 432:Drivers/STM32H5xx_HAL_Driver/Src/stm32h5xx_hal_dma.c ****   =================================================================================================
 433:Drivers/STM32H5xx_HAL_Driver/Src/stm32h5xx_hal_dma.c ****     [..]
 434:Drivers/STM32H5xx_HAL_Driver/Src/stm32h5xx_hal_dma.c ****       This section provides functions allowing to :
 435:Drivers/STM32H5xx_HAL_Driver/Src/stm32h5xx_hal_dma.c ****       (+) Configure the source, destination address and data size and Start DMA transfer in normal 
 436:Drivers/STM32H5xx_HAL_Driver/Src/stm32h5xx_hal_dma.c ****       (+) Abort DMA transfer
 437:Drivers/STM32H5xx_HAL_Driver/Src/stm32h5xx_hal_dma.c ****       (+) Poll for transfer complete
 438:Drivers/STM32H5xx_HAL_Driver/Src/stm32h5xx_hal_dma.c ****       (+) Handle DMA interrupt request
 439:Drivers/STM32H5xx_HAL_Driver/Src/stm32h5xx_hal_dma.c ****       (+) Register and Unregister DMA callbacks
 440:Drivers/STM32H5xx_HAL_Driver/Src/stm32h5xx_hal_dma.c **** 
 441:Drivers/STM32H5xx_HAL_Driver/Src/stm32h5xx_hal_dma.c ****     [..]
 442:Drivers/STM32H5xx_HAL_Driver/Src/stm32h5xx_hal_dma.c ****       (+) The HAL_DMA_Start() function allows to start the DMA channel transfer in normal mode (Blo
 443:Drivers/STM32H5xx_HAL_Driver/Src/stm32h5xx_hal_dma.c ****       (+) The HAL_DMA_Start_IT() function allows to start the DMA channel transfer in normal mode (
 444:Drivers/STM32H5xx_HAL_Driver/Src/stm32h5xx_hal_dma.c ****       (+) The HAL_DMA_Abort() function allows to abort any on-going transfer (Blocking mode).
 445:Drivers/STM32H5xx_HAL_Driver/Src/stm32h5xx_hal_dma.c ****       (+) The HAL_DMA_Abort_IT() function allows to abort any on-going transfer (Non-blocking mode)
 446:Drivers/STM32H5xx_HAL_Driver/Src/stm32h5xx_hal_dma.c ****       (+) The HAL_DMA_PollForTransfer() function allows to poll on half transfer and transfer compl
 447:Drivers/STM32H5xx_HAL_Driver/Src/stm32h5xx_hal_dma.c ****           This API cannot be used for circular transfers.
 448:Drivers/STM32H5xx_HAL_Driver/Src/stm32h5xx_hal_dma.c ****       (+) The HAL_DMA_IRQHandler() function allows to handle any DMA channel interrupt (Non-blockin
 449:Drivers/STM32H5xx_HAL_Driver/Src/stm32h5xx_hal_dma.c ****       (+) The HAL_DMA_RegisterCallback() and HAL_DMA_UnRegisterCallback() functions allow respectiv
 450:Drivers/STM32H5xx_HAL_Driver/Src/stm32h5xx_hal_dma.c ****           unregister user customized callbacks.
 451:Drivers/STM32H5xx_HAL_Driver/Src/stm32h5xx_hal_dma.c ****           User callbacks are called under HAL_DMA_IRQHandler().
 452:Drivers/STM32H5xx_HAL_Driver/Src/stm32h5xx_hal_dma.c **** 
 453:Drivers/STM32H5xx_HAL_Driver/Src/stm32h5xx_hal_dma.c **** @endverbatim
 454:Drivers/STM32H5xx_HAL_Driver/Src/stm32h5xx_hal_dma.c ****   * @{
 455:Drivers/STM32H5xx_HAL_Driver/Src/stm32h5xx_hal_dma.c ****   */
 456:Drivers/STM32H5xx_HAL_Driver/Src/stm32h5xx_hal_dma.c **** 
 457:Drivers/STM32H5xx_HAL_Driver/Src/stm32h5xx_hal_dma.c **** /**
 458:Drivers/STM32H5xx_HAL_Driver/Src/stm32h5xx_hal_dma.c ****   * @brief  Start the DMA channel transfer in normal mode (Blocking mode).
 459:Drivers/STM32H5xx_HAL_Driver/Src/stm32h5xx_hal_dma.c ****   * @param  hdma        : Pointer to a DMA_HandleTypeDef structure that contains the configuration 
 460:Drivers/STM32H5xx_HAL_Driver/Src/stm32h5xx_hal_dma.c ****   *                       the specified DMA Channel.
 461:Drivers/STM32H5xx_HAL_Driver/Src/stm32h5xx_hal_dma.c ****   * @param  SrcAddress  : The source data address.
 462:Drivers/STM32H5xx_HAL_Driver/Src/stm32h5xx_hal_dma.c ****   * @param  DstAddress  : The destination data address.
 463:Drivers/STM32H5xx_HAL_Driver/Src/stm32h5xx_hal_dma.c ****   * @param  SrcDataSize : The length of data to be transferred from source to destination in bytes.
 464:Drivers/STM32H5xx_HAL_Driver/Src/stm32h5xx_hal_dma.c ****   * @retval HAL status.
 465:Drivers/STM32H5xx_HAL_Driver/Src/stm32h5xx_hal_dma.c ****   */
 466:Drivers/STM32H5xx_HAL_Driver/Src/stm32h5xx_hal_dma.c **** HAL_StatusTypeDef HAL_DMA_Start(DMA_HandleTypeDef *const hdma,
 467:Drivers/STM32H5xx_HAL_Driver/Src/stm32h5xx_hal_dma.c ****                                 uint32_t SrcAddress,
 468:Drivers/STM32H5xx_HAL_Driver/Src/stm32h5xx_hal_dma.c ****                                 uint32_t DstAddress,
 469:Drivers/STM32H5xx_HAL_Driver/Src/stm32h5xx_hal_dma.c ****                                 uint32_t SrcDataSize)
 470:Drivers/STM32H5xx_HAL_Driver/Src/stm32h5xx_hal_dma.c **** {
 471:Drivers/STM32H5xx_HAL_Driver/Src/stm32h5xx_hal_dma.c ****   /* Check the DMA peripheral handle parameter */
 472:Drivers/STM32H5xx_HAL_Driver/Src/stm32h5xx_hal_dma.c ****   if (hdma == NULL)
 473:Drivers/STM32H5xx_HAL_Driver/Src/stm32h5xx_hal_dma.c ****   {
 474:Drivers/STM32H5xx_HAL_Driver/Src/stm32h5xx_hal_dma.c ****     return HAL_ERROR;
 475:Drivers/STM32H5xx_HAL_Driver/Src/stm32h5xx_hal_dma.c ****   }
 476:Drivers/STM32H5xx_HAL_Driver/Src/stm32h5xx_hal_dma.c **** 
 477:Drivers/STM32H5xx_HAL_Driver/Src/stm32h5xx_hal_dma.c ****   /* Check the parameters */
 478:Drivers/STM32H5xx_HAL_Driver/Src/stm32h5xx_hal_dma.c ****   assert_param(IS_DMA_BLOCK_SIZE(SrcDataSize));
 479:Drivers/STM32H5xx_HAL_Driver/Src/stm32h5xx_hal_dma.c **** 
 480:Drivers/STM32H5xx_HAL_Driver/Src/stm32h5xx_hal_dma.c ****   /* Process locked */
 481:Drivers/STM32H5xx_HAL_Driver/Src/stm32h5xx_hal_dma.c ****   __HAL_LOCK(hdma);
 482:Drivers/STM32H5xx_HAL_Driver/Src/stm32h5xx_hal_dma.c **** 
 483:Drivers/STM32H5xx_HAL_Driver/Src/stm32h5xx_hal_dma.c ****   /* Check DMA channel state */
 484:Drivers/STM32H5xx_HAL_Driver/Src/stm32h5xx_hal_dma.c ****   if (hdma->State == HAL_DMA_STATE_READY)
 485:Drivers/STM32H5xx_HAL_Driver/Src/stm32h5xx_hal_dma.c ****   {
ARM GAS  C:\Users\sapph\AppData\Local\Temp\ccTfCvBa.s 			page 10


 486:Drivers/STM32H5xx_HAL_Driver/Src/stm32h5xx_hal_dma.c ****     /* Update the DMA channel state */
 487:Drivers/STM32H5xx_HAL_Driver/Src/stm32h5xx_hal_dma.c ****     hdma->State = HAL_DMA_STATE_BUSY;
 488:Drivers/STM32H5xx_HAL_Driver/Src/stm32h5xx_hal_dma.c **** 
 489:Drivers/STM32H5xx_HAL_Driver/Src/stm32h5xx_hal_dma.c ****     /* Update the DMA channel error code */
 490:Drivers/STM32H5xx_HAL_Driver/Src/stm32h5xx_hal_dma.c ****     hdma->ErrorCode = HAL_DMA_ERROR_NONE;
 491:Drivers/STM32H5xx_HAL_Driver/Src/stm32h5xx_hal_dma.c **** 
 492:Drivers/STM32H5xx_HAL_Driver/Src/stm32h5xx_hal_dma.c ****     /* Configure the source address, destination address, the data size and clear flags */
 493:Drivers/STM32H5xx_HAL_Driver/Src/stm32h5xx_hal_dma.c ****     DMA_SetConfig(hdma, SrcAddress, DstAddress, SrcDataSize);
 494:Drivers/STM32H5xx_HAL_Driver/Src/stm32h5xx_hal_dma.c **** 
 495:Drivers/STM32H5xx_HAL_Driver/Src/stm32h5xx_hal_dma.c ****     /* Enable DMA channel */
 496:Drivers/STM32H5xx_HAL_Driver/Src/stm32h5xx_hal_dma.c ****     __HAL_DMA_ENABLE(hdma);
 497:Drivers/STM32H5xx_HAL_Driver/Src/stm32h5xx_hal_dma.c ****   }
 498:Drivers/STM32H5xx_HAL_Driver/Src/stm32h5xx_hal_dma.c ****   else
 499:Drivers/STM32H5xx_HAL_Driver/Src/stm32h5xx_hal_dma.c ****   {
 500:Drivers/STM32H5xx_HAL_Driver/Src/stm32h5xx_hal_dma.c ****     /* Update the DMA channel error code */
 501:Drivers/STM32H5xx_HAL_Driver/Src/stm32h5xx_hal_dma.c ****     hdma->ErrorCode = HAL_DMA_ERROR_BUSY;
 502:Drivers/STM32H5xx_HAL_Driver/Src/stm32h5xx_hal_dma.c **** 
 503:Drivers/STM32H5xx_HAL_Driver/Src/stm32h5xx_hal_dma.c ****     /* Process unlocked */
 504:Drivers/STM32H5xx_HAL_Driver/Src/stm32h5xx_hal_dma.c ****     __HAL_UNLOCK(hdma);
 505:Drivers/STM32H5xx_HAL_Driver/Src/stm32h5xx_hal_dma.c **** 
 506:Drivers/STM32H5xx_HAL_Driver/Src/stm32h5xx_hal_dma.c ****     return HAL_ERROR;
 507:Drivers/STM32H5xx_HAL_Driver/Src/stm32h5xx_hal_dma.c ****   }
 508:Drivers/STM32H5xx_HAL_Driver/Src/stm32h5xx_hal_dma.c **** 
 509:Drivers/STM32H5xx_HAL_Driver/Src/stm32h5xx_hal_dma.c ****   return HAL_OK;
 510:Drivers/STM32H5xx_HAL_Driver/Src/stm32h5xx_hal_dma.c **** }
 511:Drivers/STM32H5xx_HAL_Driver/Src/stm32h5xx_hal_dma.c **** 
 512:Drivers/STM32H5xx_HAL_Driver/Src/stm32h5xx_hal_dma.c **** /**
 513:Drivers/STM32H5xx_HAL_Driver/Src/stm32h5xx_hal_dma.c ****   * @brief  Starts the DMA channel transfer in normal mode with interrupts enabled (Non-blocking mo
 514:Drivers/STM32H5xx_HAL_Driver/Src/stm32h5xx_hal_dma.c ****   * @param  hdma         : Pointer to a DMA_HandleTypeDef structure that contains the configuration
 515:Drivers/STM32H5xx_HAL_Driver/Src/stm32h5xx_hal_dma.c ****   *                        specified DMA Channel.
 516:Drivers/STM32H5xx_HAL_Driver/Src/stm32h5xx_hal_dma.c ****   * @param  SrcAddress   : The source data address.
 517:Drivers/STM32H5xx_HAL_Driver/Src/stm32h5xx_hal_dma.c ****   * @param  DstAddress   : The destination data address.
 518:Drivers/STM32H5xx_HAL_Driver/Src/stm32h5xx_hal_dma.c ****   * @param  SrcDataSize  : The length of data to be transferred from source to destination in bytes
 519:Drivers/STM32H5xx_HAL_Driver/Src/stm32h5xx_hal_dma.c ****   * @retval HAL status.
 520:Drivers/STM32H5xx_HAL_Driver/Src/stm32h5xx_hal_dma.c ****   */
 521:Drivers/STM32H5xx_HAL_Driver/Src/stm32h5xx_hal_dma.c **** HAL_StatusTypeDef HAL_DMA_Start_IT(DMA_HandleTypeDef *const hdma,
 522:Drivers/STM32H5xx_HAL_Driver/Src/stm32h5xx_hal_dma.c ****                                    uint32_t SrcAddress,
 523:Drivers/STM32H5xx_HAL_Driver/Src/stm32h5xx_hal_dma.c ****                                    uint32_t DstAddress,
 524:Drivers/STM32H5xx_HAL_Driver/Src/stm32h5xx_hal_dma.c ****                                    uint32_t SrcDataSize)
 525:Drivers/STM32H5xx_HAL_Driver/Src/stm32h5xx_hal_dma.c **** {
 526:Drivers/STM32H5xx_HAL_Driver/Src/stm32h5xx_hal_dma.c ****   /* Check the DMA peripheral handle parameter */
 527:Drivers/STM32H5xx_HAL_Driver/Src/stm32h5xx_hal_dma.c ****   if (hdma == NULL)
 528:Drivers/STM32H5xx_HAL_Driver/Src/stm32h5xx_hal_dma.c ****   {
 529:Drivers/STM32H5xx_HAL_Driver/Src/stm32h5xx_hal_dma.c ****     return HAL_ERROR;
 530:Drivers/STM32H5xx_HAL_Driver/Src/stm32h5xx_hal_dma.c ****   }
 531:Drivers/STM32H5xx_HAL_Driver/Src/stm32h5xx_hal_dma.c **** 
 532:Drivers/STM32H5xx_HAL_Driver/Src/stm32h5xx_hal_dma.c ****   /* Check the parameters */
 533:Drivers/STM32H5xx_HAL_Driver/Src/stm32h5xx_hal_dma.c ****   assert_param(IS_DMA_BLOCK_SIZE(SrcDataSize));
 534:Drivers/STM32H5xx_HAL_Driver/Src/stm32h5xx_hal_dma.c **** 
 535:Drivers/STM32H5xx_HAL_Driver/Src/stm32h5xx_hal_dma.c ****   /* Process locked */
 536:Drivers/STM32H5xx_HAL_Driver/Src/stm32h5xx_hal_dma.c ****   __HAL_LOCK(hdma);
 537:Drivers/STM32H5xx_HAL_Driver/Src/stm32h5xx_hal_dma.c **** 
 538:Drivers/STM32H5xx_HAL_Driver/Src/stm32h5xx_hal_dma.c ****   /* Check DMA channel state */
 539:Drivers/STM32H5xx_HAL_Driver/Src/stm32h5xx_hal_dma.c ****   if (hdma->State == HAL_DMA_STATE_READY)
 540:Drivers/STM32H5xx_HAL_Driver/Src/stm32h5xx_hal_dma.c ****   {
 541:Drivers/STM32H5xx_HAL_Driver/Src/stm32h5xx_hal_dma.c ****     /* Update the DMA channel state */
 542:Drivers/STM32H5xx_HAL_Driver/Src/stm32h5xx_hal_dma.c ****     hdma->State = HAL_DMA_STATE_BUSY;
ARM GAS  C:\Users\sapph\AppData\Local\Temp\ccTfCvBa.s 			page 11


 543:Drivers/STM32H5xx_HAL_Driver/Src/stm32h5xx_hal_dma.c **** 
 544:Drivers/STM32H5xx_HAL_Driver/Src/stm32h5xx_hal_dma.c ****     /* Update the DMA channel error code */
 545:Drivers/STM32H5xx_HAL_Driver/Src/stm32h5xx_hal_dma.c ****     hdma->ErrorCode = HAL_DMA_ERROR_NONE;
 546:Drivers/STM32H5xx_HAL_Driver/Src/stm32h5xx_hal_dma.c **** 
 547:Drivers/STM32H5xx_HAL_Driver/Src/stm32h5xx_hal_dma.c ****     /* Configure the source address, destination address, the data size and clear flags */
 548:Drivers/STM32H5xx_HAL_Driver/Src/stm32h5xx_hal_dma.c ****     DMA_SetConfig(hdma, SrcAddress, DstAddress, SrcDataSize);
 549:Drivers/STM32H5xx_HAL_Driver/Src/stm32h5xx_hal_dma.c **** 
 550:Drivers/STM32H5xx_HAL_Driver/Src/stm32h5xx_hal_dma.c ****     /* Enable common interrupts: Transfer Complete and Transfer Errors ITs */
 551:Drivers/STM32H5xx_HAL_Driver/Src/stm32h5xx_hal_dma.c ****     __HAL_DMA_ENABLE_IT(hdma, (DMA_IT_TC | DMA_IT_DTE | DMA_IT_ULE | DMA_IT_USE | DMA_IT_TO));
 552:Drivers/STM32H5xx_HAL_Driver/Src/stm32h5xx_hal_dma.c **** 
 553:Drivers/STM32H5xx_HAL_Driver/Src/stm32h5xx_hal_dma.c ****     /* Check half transfer complete callback */
 554:Drivers/STM32H5xx_HAL_Driver/Src/stm32h5xx_hal_dma.c ****     if (hdma->XferHalfCpltCallback != NULL)
 555:Drivers/STM32H5xx_HAL_Driver/Src/stm32h5xx_hal_dma.c ****     {
 556:Drivers/STM32H5xx_HAL_Driver/Src/stm32h5xx_hal_dma.c ****       /* If Half Transfer complete callback is set, enable the corresponding IT */
 557:Drivers/STM32H5xx_HAL_Driver/Src/stm32h5xx_hal_dma.c ****       __HAL_DMA_ENABLE_IT(hdma, DMA_IT_HT);
 558:Drivers/STM32H5xx_HAL_Driver/Src/stm32h5xx_hal_dma.c ****     }
 559:Drivers/STM32H5xx_HAL_Driver/Src/stm32h5xx_hal_dma.c **** 
 560:Drivers/STM32H5xx_HAL_Driver/Src/stm32h5xx_hal_dma.c ****     /* Check Half suspend callback */
 561:Drivers/STM32H5xx_HAL_Driver/Src/stm32h5xx_hal_dma.c ****     if (hdma->XferSuspendCallback != NULL)
 562:Drivers/STM32H5xx_HAL_Driver/Src/stm32h5xx_hal_dma.c ****     {
 563:Drivers/STM32H5xx_HAL_Driver/Src/stm32h5xx_hal_dma.c ****       /* If Transfer suspend callback is set, enable the corresponding IT */
 564:Drivers/STM32H5xx_HAL_Driver/Src/stm32h5xx_hal_dma.c ****       __HAL_DMA_ENABLE_IT(hdma, DMA_IT_SUSP);
 565:Drivers/STM32H5xx_HAL_Driver/Src/stm32h5xx_hal_dma.c ****     }
 566:Drivers/STM32H5xx_HAL_Driver/Src/stm32h5xx_hal_dma.c **** 
 567:Drivers/STM32H5xx_HAL_Driver/Src/stm32h5xx_hal_dma.c ****     /* Enable DMA channel */
 568:Drivers/STM32H5xx_HAL_Driver/Src/stm32h5xx_hal_dma.c ****     __HAL_DMA_ENABLE(hdma);
 569:Drivers/STM32H5xx_HAL_Driver/Src/stm32h5xx_hal_dma.c ****   }
 570:Drivers/STM32H5xx_HAL_Driver/Src/stm32h5xx_hal_dma.c ****   else
 571:Drivers/STM32H5xx_HAL_Driver/Src/stm32h5xx_hal_dma.c ****   {
 572:Drivers/STM32H5xx_HAL_Driver/Src/stm32h5xx_hal_dma.c ****     /* Update the DMA channel error code */
 573:Drivers/STM32H5xx_HAL_Driver/Src/stm32h5xx_hal_dma.c ****     hdma->ErrorCode = HAL_DMA_ERROR_BUSY;
 574:Drivers/STM32H5xx_HAL_Driver/Src/stm32h5xx_hal_dma.c **** 
 575:Drivers/STM32H5xx_HAL_Driver/Src/stm32h5xx_hal_dma.c ****     /* Process unlocked */
 576:Drivers/STM32H5xx_HAL_Driver/Src/stm32h5xx_hal_dma.c ****     __HAL_UNLOCK(hdma);
 577:Drivers/STM32H5xx_HAL_Driver/Src/stm32h5xx_hal_dma.c **** 
 578:Drivers/STM32H5xx_HAL_Driver/Src/stm32h5xx_hal_dma.c ****     return HAL_ERROR;
 579:Drivers/STM32H5xx_HAL_Driver/Src/stm32h5xx_hal_dma.c ****   }
 580:Drivers/STM32H5xx_HAL_Driver/Src/stm32h5xx_hal_dma.c **** 
 581:Drivers/STM32H5xx_HAL_Driver/Src/stm32h5xx_hal_dma.c ****   return HAL_OK;
 582:Drivers/STM32H5xx_HAL_Driver/Src/stm32h5xx_hal_dma.c **** }
 583:Drivers/STM32H5xx_HAL_Driver/Src/stm32h5xx_hal_dma.c **** 
 584:Drivers/STM32H5xx_HAL_Driver/Src/stm32h5xx_hal_dma.c **** /**
 585:Drivers/STM32H5xx_HAL_Driver/Src/stm32h5xx_hal_dma.c ****   * @brief  Abort any on-going DMA channel transfer (Blocking mode).
 586:Drivers/STM32H5xx_HAL_Driver/Src/stm32h5xx_hal_dma.c ****   * @param  hdma : Pointer to a DMA_HandleTypeDef structure that contains the configuration informa
 587:Drivers/STM32H5xx_HAL_Driver/Src/stm32h5xx_hal_dma.c ****   *                specified DMA Channel.
 588:Drivers/STM32H5xx_HAL_Driver/Src/stm32h5xx_hal_dma.c ****   * @note   After suspending a DMA channel, a wait until the DMA channel is effectively stopped is 
 589:Drivers/STM32H5xx_HAL_Driver/Src/stm32h5xx_hal_dma.c ****   *         is suspended while a data transfer is on-going, the current data will be transferred an
 590:Drivers/STM32H5xx_HAL_Driver/Src/stm32h5xx_hal_dma.c ****   *         effectively suspended only after the transfer of any on-going data is finished.
 591:Drivers/STM32H5xx_HAL_Driver/Src/stm32h5xx_hal_dma.c ****   * @retval HAL status.
 592:Drivers/STM32H5xx_HAL_Driver/Src/stm32h5xx_hal_dma.c ****   */
 593:Drivers/STM32H5xx_HAL_Driver/Src/stm32h5xx_hal_dma.c **** HAL_StatusTypeDef HAL_DMA_Abort(DMA_HandleTypeDef *const hdma)
 594:Drivers/STM32H5xx_HAL_Driver/Src/stm32h5xx_hal_dma.c **** {
 595:Drivers/STM32H5xx_HAL_Driver/Src/stm32h5xx_hal_dma.c ****   /* Get tick number */
 596:Drivers/STM32H5xx_HAL_Driver/Src/stm32h5xx_hal_dma.c ****   uint32_t tickstart =  HAL_GetTick();
 597:Drivers/STM32H5xx_HAL_Driver/Src/stm32h5xx_hal_dma.c **** 
 598:Drivers/STM32H5xx_HAL_Driver/Src/stm32h5xx_hal_dma.c ****   /* Check the DMA peripheral handle parameter */
 599:Drivers/STM32H5xx_HAL_Driver/Src/stm32h5xx_hal_dma.c ****   if (hdma == NULL)
ARM GAS  C:\Users\sapph\AppData\Local\Temp\ccTfCvBa.s 			page 12


 600:Drivers/STM32H5xx_HAL_Driver/Src/stm32h5xx_hal_dma.c ****   {
 601:Drivers/STM32H5xx_HAL_Driver/Src/stm32h5xx_hal_dma.c ****     return HAL_ERROR;
 602:Drivers/STM32H5xx_HAL_Driver/Src/stm32h5xx_hal_dma.c ****   }
 603:Drivers/STM32H5xx_HAL_Driver/Src/stm32h5xx_hal_dma.c **** 
 604:Drivers/STM32H5xx_HAL_Driver/Src/stm32h5xx_hal_dma.c ****   /* Check DMA channel state */
 605:Drivers/STM32H5xx_HAL_Driver/Src/stm32h5xx_hal_dma.c ****   if (hdma->State != HAL_DMA_STATE_BUSY)
 606:Drivers/STM32H5xx_HAL_Driver/Src/stm32h5xx_hal_dma.c ****   {
 607:Drivers/STM32H5xx_HAL_Driver/Src/stm32h5xx_hal_dma.c ****     /* Update the DMA channel error code */
 608:Drivers/STM32H5xx_HAL_Driver/Src/stm32h5xx_hal_dma.c ****     hdma->ErrorCode = HAL_DMA_ERROR_NO_XFER;
 609:Drivers/STM32H5xx_HAL_Driver/Src/stm32h5xx_hal_dma.c **** 
 610:Drivers/STM32H5xx_HAL_Driver/Src/stm32h5xx_hal_dma.c ****     /* Process Unlocked */
 611:Drivers/STM32H5xx_HAL_Driver/Src/stm32h5xx_hal_dma.c ****     __HAL_UNLOCK(hdma);
 612:Drivers/STM32H5xx_HAL_Driver/Src/stm32h5xx_hal_dma.c **** 
 613:Drivers/STM32H5xx_HAL_Driver/Src/stm32h5xx_hal_dma.c ****     return HAL_ERROR;
 614:Drivers/STM32H5xx_HAL_Driver/Src/stm32h5xx_hal_dma.c ****   }
 615:Drivers/STM32H5xx_HAL_Driver/Src/stm32h5xx_hal_dma.c ****   else
 616:Drivers/STM32H5xx_HAL_Driver/Src/stm32h5xx_hal_dma.c ****   {
 617:Drivers/STM32H5xx_HAL_Driver/Src/stm32h5xx_hal_dma.c ****     /* Suspend the channel */
 618:Drivers/STM32H5xx_HAL_Driver/Src/stm32h5xx_hal_dma.c ****     hdma->Instance->CCR |= DMA_CCR_SUSP;
 619:Drivers/STM32H5xx_HAL_Driver/Src/stm32h5xx_hal_dma.c **** 
 620:Drivers/STM32H5xx_HAL_Driver/Src/stm32h5xx_hal_dma.c ****     /* Update the DMA channel state */
 621:Drivers/STM32H5xx_HAL_Driver/Src/stm32h5xx_hal_dma.c ****     hdma->State = HAL_DMA_STATE_SUSPEND;
 622:Drivers/STM32H5xx_HAL_Driver/Src/stm32h5xx_hal_dma.c **** 
 623:Drivers/STM32H5xx_HAL_Driver/Src/stm32h5xx_hal_dma.c ****     /* Check if the DMA Channel is suspended */
 624:Drivers/STM32H5xx_HAL_Driver/Src/stm32h5xx_hal_dma.c ****     while ((hdma->Instance->CSR & DMA_CSR_SUSPF) == 0U)
 625:Drivers/STM32H5xx_HAL_Driver/Src/stm32h5xx_hal_dma.c ****     {
 626:Drivers/STM32H5xx_HAL_Driver/Src/stm32h5xx_hal_dma.c ****       /* Check for the Timeout */
 627:Drivers/STM32H5xx_HAL_Driver/Src/stm32h5xx_hal_dma.c ****       if ((HAL_GetTick() - tickstart) > HAL_TIMEOUT_DMA_ABORT)
 628:Drivers/STM32H5xx_HAL_Driver/Src/stm32h5xx_hal_dma.c ****       {
 629:Drivers/STM32H5xx_HAL_Driver/Src/stm32h5xx_hal_dma.c ****         /* Update the DMA channel error code */
 630:Drivers/STM32H5xx_HAL_Driver/Src/stm32h5xx_hal_dma.c ****         hdma->ErrorCode |= HAL_DMA_ERROR_TIMEOUT;
 631:Drivers/STM32H5xx_HAL_Driver/Src/stm32h5xx_hal_dma.c **** 
 632:Drivers/STM32H5xx_HAL_Driver/Src/stm32h5xx_hal_dma.c ****         /* Update the DMA channel state */
 633:Drivers/STM32H5xx_HAL_Driver/Src/stm32h5xx_hal_dma.c ****         hdma->State = HAL_DMA_STATE_ERROR;
 634:Drivers/STM32H5xx_HAL_Driver/Src/stm32h5xx_hal_dma.c **** 
 635:Drivers/STM32H5xx_HAL_Driver/Src/stm32h5xx_hal_dma.c ****         /* Check DMA channel transfer mode */
 636:Drivers/STM32H5xx_HAL_Driver/Src/stm32h5xx_hal_dma.c ****         if ((hdma->Mode & DMA_LINKEDLIST) == DMA_LINKEDLIST)
 637:Drivers/STM32H5xx_HAL_Driver/Src/stm32h5xx_hal_dma.c ****         {
 638:Drivers/STM32H5xx_HAL_Driver/Src/stm32h5xx_hal_dma.c ****           /* Update the linked-list queue state */
 639:Drivers/STM32H5xx_HAL_Driver/Src/stm32h5xx_hal_dma.c ****           hdma->LinkedListQueue->State = HAL_DMA_QUEUE_STATE_READY;
 640:Drivers/STM32H5xx_HAL_Driver/Src/stm32h5xx_hal_dma.c ****         }
 641:Drivers/STM32H5xx_HAL_Driver/Src/stm32h5xx_hal_dma.c **** 
 642:Drivers/STM32H5xx_HAL_Driver/Src/stm32h5xx_hal_dma.c ****         /* Process Unlocked */
 643:Drivers/STM32H5xx_HAL_Driver/Src/stm32h5xx_hal_dma.c ****         __HAL_UNLOCK(hdma);
 644:Drivers/STM32H5xx_HAL_Driver/Src/stm32h5xx_hal_dma.c **** 
 645:Drivers/STM32H5xx_HAL_Driver/Src/stm32h5xx_hal_dma.c ****         return HAL_ERROR;
 646:Drivers/STM32H5xx_HAL_Driver/Src/stm32h5xx_hal_dma.c ****       }
 647:Drivers/STM32H5xx_HAL_Driver/Src/stm32h5xx_hal_dma.c ****     }
 648:Drivers/STM32H5xx_HAL_Driver/Src/stm32h5xx_hal_dma.c **** 
 649:Drivers/STM32H5xx_HAL_Driver/Src/stm32h5xx_hal_dma.c ****     /* Reset the channel */
 650:Drivers/STM32H5xx_HAL_Driver/Src/stm32h5xx_hal_dma.c ****     hdma->Instance->CCR |= DMA_CCR_RESET;
 651:Drivers/STM32H5xx_HAL_Driver/Src/stm32h5xx_hal_dma.c **** 
 652:Drivers/STM32H5xx_HAL_Driver/Src/stm32h5xx_hal_dma.c ****     /* Update the DMA channel state */
 653:Drivers/STM32H5xx_HAL_Driver/Src/stm32h5xx_hal_dma.c ****     hdma->State = HAL_DMA_STATE_ABORT;
 654:Drivers/STM32H5xx_HAL_Driver/Src/stm32h5xx_hal_dma.c **** 
 655:Drivers/STM32H5xx_HAL_Driver/Src/stm32h5xx_hal_dma.c ****     /* Clear all status flags */
 656:Drivers/STM32H5xx_HAL_Driver/Src/stm32h5xx_hal_dma.c ****     __HAL_DMA_CLEAR_FLAG(hdma, (DMA_FLAG_TC | DMA_FLAG_HT | DMA_FLAG_DTE | DMA_FLAG_ULE | DMA_FLAG_
ARM GAS  C:\Users\sapph\AppData\Local\Temp\ccTfCvBa.s 			page 13


 657:Drivers/STM32H5xx_HAL_Driver/Src/stm32h5xx_hal_dma.c ****                                 DMA_FLAG_TO));
 658:Drivers/STM32H5xx_HAL_Driver/Src/stm32h5xx_hal_dma.c **** 
 659:Drivers/STM32H5xx_HAL_Driver/Src/stm32h5xx_hal_dma.c ****     /* Update the DMA channel state */
 660:Drivers/STM32H5xx_HAL_Driver/Src/stm32h5xx_hal_dma.c ****     hdma->State = HAL_DMA_STATE_READY;
 661:Drivers/STM32H5xx_HAL_Driver/Src/stm32h5xx_hal_dma.c **** 
 662:Drivers/STM32H5xx_HAL_Driver/Src/stm32h5xx_hal_dma.c ****     /* Check DMA channel transfer mode */
 663:Drivers/STM32H5xx_HAL_Driver/Src/stm32h5xx_hal_dma.c ****     if ((hdma->Mode & DMA_LINKEDLIST) == DMA_LINKEDLIST)
 664:Drivers/STM32H5xx_HAL_Driver/Src/stm32h5xx_hal_dma.c ****     {
 665:Drivers/STM32H5xx_HAL_Driver/Src/stm32h5xx_hal_dma.c ****       /* Update the linked-list queue state */
 666:Drivers/STM32H5xx_HAL_Driver/Src/stm32h5xx_hal_dma.c ****       hdma->LinkedListQueue->State = HAL_DMA_QUEUE_STATE_READY;
 667:Drivers/STM32H5xx_HAL_Driver/Src/stm32h5xx_hal_dma.c **** 
 668:Drivers/STM32H5xx_HAL_Driver/Src/stm32h5xx_hal_dma.c ****       /* Clear remaining data size to ensure loading linked-list from memory next start */
 669:Drivers/STM32H5xx_HAL_Driver/Src/stm32h5xx_hal_dma.c ****       hdma->Instance->CBR1 = 0U;
 670:Drivers/STM32H5xx_HAL_Driver/Src/stm32h5xx_hal_dma.c ****     }
 671:Drivers/STM32H5xx_HAL_Driver/Src/stm32h5xx_hal_dma.c **** 
 672:Drivers/STM32H5xx_HAL_Driver/Src/stm32h5xx_hal_dma.c ****     /* Process Unlocked */
 673:Drivers/STM32H5xx_HAL_Driver/Src/stm32h5xx_hal_dma.c ****     __HAL_UNLOCK(hdma);
 674:Drivers/STM32H5xx_HAL_Driver/Src/stm32h5xx_hal_dma.c ****   }
 675:Drivers/STM32H5xx_HAL_Driver/Src/stm32h5xx_hal_dma.c **** 
 676:Drivers/STM32H5xx_HAL_Driver/Src/stm32h5xx_hal_dma.c ****   return HAL_OK;
 677:Drivers/STM32H5xx_HAL_Driver/Src/stm32h5xx_hal_dma.c **** }
 678:Drivers/STM32H5xx_HAL_Driver/Src/stm32h5xx_hal_dma.c **** 
 679:Drivers/STM32H5xx_HAL_Driver/Src/stm32h5xx_hal_dma.c **** /**
 680:Drivers/STM32H5xx_HAL_Driver/Src/stm32h5xx_hal_dma.c ****   * @brief  Abort any on-going DMA channel transfer in interrupt mode (Non-blocking mode).
 681:Drivers/STM32H5xx_HAL_Driver/Src/stm32h5xx_hal_dma.c ****   * @param  hdma : Pointer to a DMA_HandleTypeDef structure that contains the configuration informa
 682:Drivers/STM32H5xx_HAL_Driver/Src/stm32h5xx_hal_dma.c ****   *                specified DMA Channel.
 683:Drivers/STM32H5xx_HAL_Driver/Src/stm32h5xx_hal_dma.c ****   * @retval HAL status.
 684:Drivers/STM32H5xx_HAL_Driver/Src/stm32h5xx_hal_dma.c ****   */
 685:Drivers/STM32H5xx_HAL_Driver/Src/stm32h5xx_hal_dma.c **** HAL_StatusTypeDef HAL_DMA_Abort_IT(DMA_HandleTypeDef *const hdma)
 686:Drivers/STM32H5xx_HAL_Driver/Src/stm32h5xx_hal_dma.c **** {
 687:Drivers/STM32H5xx_HAL_Driver/Src/stm32h5xx_hal_dma.c ****   /* Check the DMA peripheral handle parameter */
 688:Drivers/STM32H5xx_HAL_Driver/Src/stm32h5xx_hal_dma.c ****   if (hdma == NULL)
 689:Drivers/STM32H5xx_HAL_Driver/Src/stm32h5xx_hal_dma.c ****   {
 690:Drivers/STM32H5xx_HAL_Driver/Src/stm32h5xx_hal_dma.c ****     return HAL_ERROR;
 691:Drivers/STM32H5xx_HAL_Driver/Src/stm32h5xx_hal_dma.c ****   }
 692:Drivers/STM32H5xx_HAL_Driver/Src/stm32h5xx_hal_dma.c **** 
 693:Drivers/STM32H5xx_HAL_Driver/Src/stm32h5xx_hal_dma.c ****   /* Check DMA channel state */
 694:Drivers/STM32H5xx_HAL_Driver/Src/stm32h5xx_hal_dma.c ****   if (hdma->State != HAL_DMA_STATE_BUSY)
 695:Drivers/STM32H5xx_HAL_Driver/Src/stm32h5xx_hal_dma.c ****   {
 696:Drivers/STM32H5xx_HAL_Driver/Src/stm32h5xx_hal_dma.c ****     /* Update the DMA channel error code */
 697:Drivers/STM32H5xx_HAL_Driver/Src/stm32h5xx_hal_dma.c ****     hdma->ErrorCode = HAL_DMA_ERROR_NO_XFER;
 698:Drivers/STM32H5xx_HAL_Driver/Src/stm32h5xx_hal_dma.c **** 
 699:Drivers/STM32H5xx_HAL_Driver/Src/stm32h5xx_hal_dma.c ****     return HAL_ERROR;
 700:Drivers/STM32H5xx_HAL_Driver/Src/stm32h5xx_hal_dma.c ****   }
 701:Drivers/STM32H5xx_HAL_Driver/Src/stm32h5xx_hal_dma.c ****   else
 702:Drivers/STM32H5xx_HAL_Driver/Src/stm32h5xx_hal_dma.c ****   {
 703:Drivers/STM32H5xx_HAL_Driver/Src/stm32h5xx_hal_dma.c ****     /* Update the DMA channel state */
 704:Drivers/STM32H5xx_HAL_Driver/Src/stm32h5xx_hal_dma.c ****     hdma->State = HAL_DMA_STATE_ABORT;
 705:Drivers/STM32H5xx_HAL_Driver/Src/stm32h5xx_hal_dma.c **** 
 706:Drivers/STM32H5xx_HAL_Driver/Src/stm32h5xx_hal_dma.c ****     /* Suspend the channel and activate suspend interrupt */
 707:Drivers/STM32H5xx_HAL_Driver/Src/stm32h5xx_hal_dma.c ****     hdma->Instance->CCR |= (DMA_CCR_SUSP | DMA_CCR_SUSPIE);
 708:Drivers/STM32H5xx_HAL_Driver/Src/stm32h5xx_hal_dma.c ****   }
 709:Drivers/STM32H5xx_HAL_Driver/Src/stm32h5xx_hal_dma.c **** 
 710:Drivers/STM32H5xx_HAL_Driver/Src/stm32h5xx_hal_dma.c ****   return HAL_OK;
 711:Drivers/STM32H5xx_HAL_Driver/Src/stm32h5xx_hal_dma.c **** }
 712:Drivers/STM32H5xx_HAL_Driver/Src/stm32h5xx_hal_dma.c **** 
 713:Drivers/STM32H5xx_HAL_Driver/Src/stm32h5xx_hal_dma.c **** /**
ARM GAS  C:\Users\sapph\AppData\Local\Temp\ccTfCvBa.s 			page 14


 714:Drivers/STM32H5xx_HAL_Driver/Src/stm32h5xx_hal_dma.c ****   * @brief  Polling for transfer status (Blocking mode).
 715:Drivers/STM32H5xx_HAL_Driver/Src/stm32h5xx_hal_dma.c ****   * @param  hdma          : Pointer to a DMA_HandleTypeDef structure that contains the configuratio
 716:Drivers/STM32H5xx_HAL_Driver/Src/stm32h5xx_hal_dma.c ****   *                         specified DMA Channel.
 717:Drivers/STM32H5xx_HAL_Driver/Src/stm32h5xx_hal_dma.c ****   * @param  CompleteLevel : Specifies the DMA level complete.
 718:Drivers/STM32H5xx_HAL_Driver/Src/stm32h5xx_hal_dma.c ****   * @param  Timeout       : Timeout duration.
 719:Drivers/STM32H5xx_HAL_Driver/Src/stm32h5xx_hal_dma.c ****   * @retval HAL status
 720:Drivers/STM32H5xx_HAL_Driver/Src/stm32h5xx_hal_dma.c ****   */
 721:Drivers/STM32H5xx_HAL_Driver/Src/stm32h5xx_hal_dma.c **** HAL_StatusTypeDef HAL_DMA_PollForTransfer(DMA_HandleTypeDef *const hdma,
 722:Drivers/STM32H5xx_HAL_Driver/Src/stm32h5xx_hal_dma.c ****                                           HAL_DMA_LevelCompleteTypeDef CompleteLevel,
 723:Drivers/STM32H5xx_HAL_Driver/Src/stm32h5xx_hal_dma.c ****                                           uint32_t Timeout)
 724:Drivers/STM32H5xx_HAL_Driver/Src/stm32h5xx_hal_dma.c **** {
 725:Drivers/STM32H5xx_HAL_Driver/Src/stm32h5xx_hal_dma.c ****   /* Get tick number */
 726:Drivers/STM32H5xx_HAL_Driver/Src/stm32h5xx_hal_dma.c ****   uint32_t tickstart = HAL_GetTick();
 727:Drivers/STM32H5xx_HAL_Driver/Src/stm32h5xx_hal_dma.c ****   uint32_t level_flag;
 728:Drivers/STM32H5xx_HAL_Driver/Src/stm32h5xx_hal_dma.c ****   uint32_t tmp_csr;
 729:Drivers/STM32H5xx_HAL_Driver/Src/stm32h5xx_hal_dma.c **** 
 730:Drivers/STM32H5xx_HAL_Driver/Src/stm32h5xx_hal_dma.c ****   /* Check the DMA peripheral handle parameter */
 731:Drivers/STM32H5xx_HAL_Driver/Src/stm32h5xx_hal_dma.c ****   if (hdma == NULL)
 732:Drivers/STM32H5xx_HAL_Driver/Src/stm32h5xx_hal_dma.c ****   {
 733:Drivers/STM32H5xx_HAL_Driver/Src/stm32h5xx_hal_dma.c ****     return HAL_ERROR;
 734:Drivers/STM32H5xx_HAL_Driver/Src/stm32h5xx_hal_dma.c ****   }
 735:Drivers/STM32H5xx_HAL_Driver/Src/stm32h5xx_hal_dma.c **** 
 736:Drivers/STM32H5xx_HAL_Driver/Src/stm32h5xx_hal_dma.c ****   /* Check the parameters */
 737:Drivers/STM32H5xx_HAL_Driver/Src/stm32h5xx_hal_dma.c ****   assert_param(IS_DMA_LEVEL_COMPLETE(CompleteLevel));
 738:Drivers/STM32H5xx_HAL_Driver/Src/stm32h5xx_hal_dma.c **** 
 739:Drivers/STM32H5xx_HAL_Driver/Src/stm32h5xx_hal_dma.c ****   /* Check DMA channel state */
 740:Drivers/STM32H5xx_HAL_Driver/Src/stm32h5xx_hal_dma.c ****   if (hdma->State != HAL_DMA_STATE_BUSY)
 741:Drivers/STM32H5xx_HAL_Driver/Src/stm32h5xx_hal_dma.c ****   {
 742:Drivers/STM32H5xx_HAL_Driver/Src/stm32h5xx_hal_dma.c ****     /* Update the DMA channel error code */
 743:Drivers/STM32H5xx_HAL_Driver/Src/stm32h5xx_hal_dma.c ****     hdma->ErrorCode = HAL_DMA_ERROR_NO_XFER;
 744:Drivers/STM32H5xx_HAL_Driver/Src/stm32h5xx_hal_dma.c **** 
 745:Drivers/STM32H5xx_HAL_Driver/Src/stm32h5xx_hal_dma.c ****     /* Process Unlocked */
 746:Drivers/STM32H5xx_HAL_Driver/Src/stm32h5xx_hal_dma.c ****     __HAL_UNLOCK(hdma);
 747:Drivers/STM32H5xx_HAL_Driver/Src/stm32h5xx_hal_dma.c **** 
 748:Drivers/STM32H5xx_HAL_Driver/Src/stm32h5xx_hal_dma.c ****     return HAL_ERROR;
 749:Drivers/STM32H5xx_HAL_Driver/Src/stm32h5xx_hal_dma.c ****   }
 750:Drivers/STM32H5xx_HAL_Driver/Src/stm32h5xx_hal_dma.c **** 
 751:Drivers/STM32H5xx_HAL_Driver/Src/stm32h5xx_hal_dma.c ****   /* Polling mode is not supported in circular mode */
 752:Drivers/STM32H5xx_HAL_Driver/Src/stm32h5xx_hal_dma.c ****   if ((hdma->Mode & DMA_LINKEDLIST_CIRCULAR) == DMA_LINKEDLIST_CIRCULAR)
 753:Drivers/STM32H5xx_HAL_Driver/Src/stm32h5xx_hal_dma.c ****   {
 754:Drivers/STM32H5xx_HAL_Driver/Src/stm32h5xx_hal_dma.c ****     /* Update the DMA channel error code */
 755:Drivers/STM32H5xx_HAL_Driver/Src/stm32h5xx_hal_dma.c ****     hdma->ErrorCode = HAL_DMA_ERROR_NOT_SUPPORTED;
 756:Drivers/STM32H5xx_HAL_Driver/Src/stm32h5xx_hal_dma.c **** 
 757:Drivers/STM32H5xx_HAL_Driver/Src/stm32h5xx_hal_dma.c ****     return HAL_ERROR;
 758:Drivers/STM32H5xx_HAL_Driver/Src/stm32h5xx_hal_dma.c ****   }
 759:Drivers/STM32H5xx_HAL_Driver/Src/stm32h5xx_hal_dma.c **** 
 760:Drivers/STM32H5xx_HAL_Driver/Src/stm32h5xx_hal_dma.c ****   /* Get the level transfer complete flag */
 761:Drivers/STM32H5xx_HAL_Driver/Src/stm32h5xx_hal_dma.c ****   level_flag = ((CompleteLevel == HAL_DMA_FULL_TRANSFER) ? DMA_FLAG_IDLE : DMA_FLAG_HT);
 762:Drivers/STM32H5xx_HAL_Driver/Src/stm32h5xx_hal_dma.c **** 
 763:Drivers/STM32H5xx_HAL_Driver/Src/stm32h5xx_hal_dma.c ****   /* Get DMA channel status */
 764:Drivers/STM32H5xx_HAL_Driver/Src/stm32h5xx_hal_dma.c ****   tmp_csr = hdma->Instance->CSR;
 765:Drivers/STM32H5xx_HAL_Driver/Src/stm32h5xx_hal_dma.c **** 
 766:Drivers/STM32H5xx_HAL_Driver/Src/stm32h5xx_hal_dma.c ****   while ((tmp_csr & level_flag) == 0U)
 767:Drivers/STM32H5xx_HAL_Driver/Src/stm32h5xx_hal_dma.c ****   {
 768:Drivers/STM32H5xx_HAL_Driver/Src/stm32h5xx_hal_dma.c ****     /* Check for the timeout */
 769:Drivers/STM32H5xx_HAL_Driver/Src/stm32h5xx_hal_dma.c ****     if (Timeout != HAL_MAX_DELAY)
 770:Drivers/STM32H5xx_HAL_Driver/Src/stm32h5xx_hal_dma.c ****     {
ARM GAS  C:\Users\sapph\AppData\Local\Temp\ccTfCvBa.s 			page 15


 771:Drivers/STM32H5xx_HAL_Driver/Src/stm32h5xx_hal_dma.c ****       if (((HAL_GetTick() - tickstart) > Timeout) || (Timeout == 0U))
 772:Drivers/STM32H5xx_HAL_Driver/Src/stm32h5xx_hal_dma.c ****       {
 773:Drivers/STM32H5xx_HAL_Driver/Src/stm32h5xx_hal_dma.c ****         /* Update the DMA channel error code */
 774:Drivers/STM32H5xx_HAL_Driver/Src/stm32h5xx_hal_dma.c ****         hdma->ErrorCode |= HAL_DMA_ERROR_TIMEOUT;
 775:Drivers/STM32H5xx_HAL_Driver/Src/stm32h5xx_hal_dma.c **** 
 776:Drivers/STM32H5xx_HAL_Driver/Src/stm32h5xx_hal_dma.c ****         /*
 777:Drivers/STM32H5xx_HAL_Driver/Src/stm32h5xx_hal_dma.c ****           If timeout, abort the current transfer.
 778:Drivers/STM32H5xx_HAL_Driver/Src/stm32h5xx_hal_dma.c ****           Note that the Abort function will
 779:Drivers/STM32H5xx_HAL_Driver/Src/stm32h5xx_hal_dma.c ****           - Clear all transfer flags.
 780:Drivers/STM32H5xx_HAL_Driver/Src/stm32h5xx_hal_dma.c ****           - Unlock.
 781:Drivers/STM32H5xx_HAL_Driver/Src/stm32h5xx_hal_dma.c ****           - Set the State.
 782:Drivers/STM32H5xx_HAL_Driver/Src/stm32h5xx_hal_dma.c ****         */
 783:Drivers/STM32H5xx_HAL_Driver/Src/stm32h5xx_hal_dma.c ****         (void)HAL_DMA_Abort(hdma);
 784:Drivers/STM32H5xx_HAL_Driver/Src/stm32h5xx_hal_dma.c **** 
 785:Drivers/STM32H5xx_HAL_Driver/Src/stm32h5xx_hal_dma.c ****         return HAL_ERROR;
 786:Drivers/STM32H5xx_HAL_Driver/Src/stm32h5xx_hal_dma.c ****       }
 787:Drivers/STM32H5xx_HAL_Driver/Src/stm32h5xx_hal_dma.c ****     }
 788:Drivers/STM32H5xx_HAL_Driver/Src/stm32h5xx_hal_dma.c **** 
 789:Drivers/STM32H5xx_HAL_Driver/Src/stm32h5xx_hal_dma.c ****     /* Get a newer CSR register value */
 790:Drivers/STM32H5xx_HAL_Driver/Src/stm32h5xx_hal_dma.c ****     tmp_csr = hdma->Instance->CSR;
 791:Drivers/STM32H5xx_HAL_Driver/Src/stm32h5xx_hal_dma.c ****   }
 792:Drivers/STM32H5xx_HAL_Driver/Src/stm32h5xx_hal_dma.c **** 
 793:Drivers/STM32H5xx_HAL_Driver/Src/stm32h5xx_hal_dma.c ****   /* Check trigger overrun flag */
 794:Drivers/STM32H5xx_HAL_Driver/Src/stm32h5xx_hal_dma.c ****   if ((tmp_csr & DMA_FLAG_TO) != 0U)
 795:Drivers/STM32H5xx_HAL_Driver/Src/stm32h5xx_hal_dma.c ****   {
 796:Drivers/STM32H5xx_HAL_Driver/Src/stm32h5xx_hal_dma.c ****     /* Update the DMA channel error code */
 797:Drivers/STM32H5xx_HAL_Driver/Src/stm32h5xx_hal_dma.c ****     hdma->ErrorCode |= HAL_DMA_ERROR_TO;
 798:Drivers/STM32H5xx_HAL_Driver/Src/stm32h5xx_hal_dma.c **** 
 799:Drivers/STM32H5xx_HAL_Driver/Src/stm32h5xx_hal_dma.c ****     /* Clear the error flag */
 800:Drivers/STM32H5xx_HAL_Driver/Src/stm32h5xx_hal_dma.c ****     __HAL_DMA_CLEAR_FLAG(hdma, DMA_FLAG_TO);
 801:Drivers/STM32H5xx_HAL_Driver/Src/stm32h5xx_hal_dma.c ****   }
 802:Drivers/STM32H5xx_HAL_Driver/Src/stm32h5xx_hal_dma.c **** 
 803:Drivers/STM32H5xx_HAL_Driver/Src/stm32h5xx_hal_dma.c ****   /* Check error flags */
 804:Drivers/STM32H5xx_HAL_Driver/Src/stm32h5xx_hal_dma.c ****   if ((tmp_csr & (DMA_FLAG_DTE | DMA_FLAG_ULE | DMA_FLAG_USE)) != 0U)
 805:Drivers/STM32H5xx_HAL_Driver/Src/stm32h5xx_hal_dma.c ****   {
 806:Drivers/STM32H5xx_HAL_Driver/Src/stm32h5xx_hal_dma.c ****     /* Check the data transfer error flag */
 807:Drivers/STM32H5xx_HAL_Driver/Src/stm32h5xx_hal_dma.c ****     if ((tmp_csr & DMA_FLAG_DTE) != 0U)
 808:Drivers/STM32H5xx_HAL_Driver/Src/stm32h5xx_hal_dma.c ****     {
 809:Drivers/STM32H5xx_HAL_Driver/Src/stm32h5xx_hal_dma.c ****       /* Update the DMA channel error code */
 810:Drivers/STM32H5xx_HAL_Driver/Src/stm32h5xx_hal_dma.c ****       hdma->ErrorCode |= HAL_DMA_ERROR_DTE;
 811:Drivers/STM32H5xx_HAL_Driver/Src/stm32h5xx_hal_dma.c **** 
 812:Drivers/STM32H5xx_HAL_Driver/Src/stm32h5xx_hal_dma.c ****       /* Clear the error flag */
 813:Drivers/STM32H5xx_HAL_Driver/Src/stm32h5xx_hal_dma.c ****       __HAL_DMA_CLEAR_FLAG(hdma, DMA_FLAG_DTE);
 814:Drivers/STM32H5xx_HAL_Driver/Src/stm32h5xx_hal_dma.c ****     }
 815:Drivers/STM32H5xx_HAL_Driver/Src/stm32h5xx_hal_dma.c **** 
 816:Drivers/STM32H5xx_HAL_Driver/Src/stm32h5xx_hal_dma.c ****     /* Check the update link error flag */
 817:Drivers/STM32H5xx_HAL_Driver/Src/stm32h5xx_hal_dma.c ****     if ((tmp_csr & DMA_FLAG_ULE) != 0U)
 818:Drivers/STM32H5xx_HAL_Driver/Src/stm32h5xx_hal_dma.c ****     {
 819:Drivers/STM32H5xx_HAL_Driver/Src/stm32h5xx_hal_dma.c ****       /* Update the DMA channel error code */
 820:Drivers/STM32H5xx_HAL_Driver/Src/stm32h5xx_hal_dma.c ****       hdma->ErrorCode |= HAL_DMA_ERROR_ULE;
 821:Drivers/STM32H5xx_HAL_Driver/Src/stm32h5xx_hal_dma.c **** 
 822:Drivers/STM32H5xx_HAL_Driver/Src/stm32h5xx_hal_dma.c ****       /* Clear the error flag */
 823:Drivers/STM32H5xx_HAL_Driver/Src/stm32h5xx_hal_dma.c ****       __HAL_DMA_CLEAR_FLAG(hdma, DMA_FLAG_ULE);
 824:Drivers/STM32H5xx_HAL_Driver/Src/stm32h5xx_hal_dma.c ****     }
 825:Drivers/STM32H5xx_HAL_Driver/Src/stm32h5xx_hal_dma.c **** 
 826:Drivers/STM32H5xx_HAL_Driver/Src/stm32h5xx_hal_dma.c ****     /* Check the user setting error flag */
 827:Drivers/STM32H5xx_HAL_Driver/Src/stm32h5xx_hal_dma.c ****     if ((tmp_csr & DMA_FLAG_USE) != 0U)
ARM GAS  C:\Users\sapph\AppData\Local\Temp\ccTfCvBa.s 			page 16


 828:Drivers/STM32H5xx_HAL_Driver/Src/stm32h5xx_hal_dma.c ****     {
 829:Drivers/STM32H5xx_HAL_Driver/Src/stm32h5xx_hal_dma.c ****       /* Update the DMA channel error code */
 830:Drivers/STM32H5xx_HAL_Driver/Src/stm32h5xx_hal_dma.c ****       hdma->ErrorCode |= HAL_DMA_ERROR_USE;
 831:Drivers/STM32H5xx_HAL_Driver/Src/stm32h5xx_hal_dma.c **** 
 832:Drivers/STM32H5xx_HAL_Driver/Src/stm32h5xx_hal_dma.c ****       /* Clear the error flag */
 833:Drivers/STM32H5xx_HAL_Driver/Src/stm32h5xx_hal_dma.c ****       __HAL_DMA_CLEAR_FLAG(hdma, DMA_FLAG_USE);
 834:Drivers/STM32H5xx_HAL_Driver/Src/stm32h5xx_hal_dma.c ****     }
 835:Drivers/STM32H5xx_HAL_Driver/Src/stm32h5xx_hal_dma.c **** 
 836:Drivers/STM32H5xx_HAL_Driver/Src/stm32h5xx_hal_dma.c ****     /* Reset the channel */
 837:Drivers/STM32H5xx_HAL_Driver/Src/stm32h5xx_hal_dma.c ****     hdma->Instance->CCR |= DMA_CCR_RESET;
 838:Drivers/STM32H5xx_HAL_Driver/Src/stm32h5xx_hal_dma.c **** 
 839:Drivers/STM32H5xx_HAL_Driver/Src/stm32h5xx_hal_dma.c ****     /* Update the DMA channel state */
 840:Drivers/STM32H5xx_HAL_Driver/Src/stm32h5xx_hal_dma.c ****     hdma->State = HAL_DMA_STATE_READY;
 841:Drivers/STM32H5xx_HAL_Driver/Src/stm32h5xx_hal_dma.c **** 
 842:Drivers/STM32H5xx_HAL_Driver/Src/stm32h5xx_hal_dma.c ****     /* Check DMA channel transfer mode */
 843:Drivers/STM32H5xx_HAL_Driver/Src/stm32h5xx_hal_dma.c ****     if ((hdma->Mode & DMA_LINKEDLIST) == DMA_LINKEDLIST)
 844:Drivers/STM32H5xx_HAL_Driver/Src/stm32h5xx_hal_dma.c ****     {
 845:Drivers/STM32H5xx_HAL_Driver/Src/stm32h5xx_hal_dma.c ****       /* Update the linked-list queue state */
 846:Drivers/STM32H5xx_HAL_Driver/Src/stm32h5xx_hal_dma.c ****       hdma->LinkedListQueue->State = HAL_DMA_QUEUE_STATE_READY;
 847:Drivers/STM32H5xx_HAL_Driver/Src/stm32h5xx_hal_dma.c ****     }
 848:Drivers/STM32H5xx_HAL_Driver/Src/stm32h5xx_hal_dma.c **** 
 849:Drivers/STM32H5xx_HAL_Driver/Src/stm32h5xx_hal_dma.c ****     /* Process Unlocked */
 850:Drivers/STM32H5xx_HAL_Driver/Src/stm32h5xx_hal_dma.c ****     __HAL_UNLOCK(hdma);
 851:Drivers/STM32H5xx_HAL_Driver/Src/stm32h5xx_hal_dma.c **** 
 852:Drivers/STM32H5xx_HAL_Driver/Src/stm32h5xx_hal_dma.c ****     return HAL_ERROR;
 853:Drivers/STM32H5xx_HAL_Driver/Src/stm32h5xx_hal_dma.c ****   }
 854:Drivers/STM32H5xx_HAL_Driver/Src/stm32h5xx_hal_dma.c **** 
 855:Drivers/STM32H5xx_HAL_Driver/Src/stm32h5xx_hal_dma.c ****   /* Clear the transfer level flag */
 856:Drivers/STM32H5xx_HAL_Driver/Src/stm32h5xx_hal_dma.c ****   if (CompleteLevel == HAL_DMA_HALF_TRANSFER)
 857:Drivers/STM32H5xx_HAL_Driver/Src/stm32h5xx_hal_dma.c ****   {
 858:Drivers/STM32H5xx_HAL_Driver/Src/stm32h5xx_hal_dma.c ****     /* Clear the Half Transfer flag */
 859:Drivers/STM32H5xx_HAL_Driver/Src/stm32h5xx_hal_dma.c ****     __HAL_DMA_CLEAR_FLAG(hdma, DMA_FLAG_HT);
 860:Drivers/STM32H5xx_HAL_Driver/Src/stm32h5xx_hal_dma.c ****   }
 861:Drivers/STM32H5xx_HAL_Driver/Src/stm32h5xx_hal_dma.c ****   else if (CompleteLevel == HAL_DMA_FULL_TRANSFER)
 862:Drivers/STM32H5xx_HAL_Driver/Src/stm32h5xx_hal_dma.c ****   {
 863:Drivers/STM32H5xx_HAL_Driver/Src/stm32h5xx_hal_dma.c ****     /* Clear the transfer flags */
 864:Drivers/STM32H5xx_HAL_Driver/Src/stm32h5xx_hal_dma.c ****     __HAL_DMA_CLEAR_FLAG(hdma, (DMA_FLAG_TC | DMA_FLAG_HT));
 865:Drivers/STM32H5xx_HAL_Driver/Src/stm32h5xx_hal_dma.c **** 
 866:Drivers/STM32H5xx_HAL_Driver/Src/stm32h5xx_hal_dma.c ****     /* Update the DMA channel state */
 867:Drivers/STM32H5xx_HAL_Driver/Src/stm32h5xx_hal_dma.c ****     hdma->State = HAL_DMA_STATE_READY;
 868:Drivers/STM32H5xx_HAL_Driver/Src/stm32h5xx_hal_dma.c **** 
 869:Drivers/STM32H5xx_HAL_Driver/Src/stm32h5xx_hal_dma.c ****     /* Check DMA channel transfer mode */
 870:Drivers/STM32H5xx_HAL_Driver/Src/stm32h5xx_hal_dma.c ****     if ((hdma->Mode & DMA_LINKEDLIST) == DMA_LINKEDLIST)
 871:Drivers/STM32H5xx_HAL_Driver/Src/stm32h5xx_hal_dma.c ****     {
 872:Drivers/STM32H5xx_HAL_Driver/Src/stm32h5xx_hal_dma.c ****       /* Update the linked-list queue state */
 873:Drivers/STM32H5xx_HAL_Driver/Src/stm32h5xx_hal_dma.c ****       hdma->LinkedListQueue->State = HAL_DMA_QUEUE_STATE_READY;
 874:Drivers/STM32H5xx_HAL_Driver/Src/stm32h5xx_hal_dma.c ****     }
 875:Drivers/STM32H5xx_HAL_Driver/Src/stm32h5xx_hal_dma.c **** 
 876:Drivers/STM32H5xx_HAL_Driver/Src/stm32h5xx_hal_dma.c ****     /* Process unlocked */
 877:Drivers/STM32H5xx_HAL_Driver/Src/stm32h5xx_hal_dma.c ****     __HAL_UNLOCK(hdma);
 878:Drivers/STM32H5xx_HAL_Driver/Src/stm32h5xx_hal_dma.c ****   }
 879:Drivers/STM32H5xx_HAL_Driver/Src/stm32h5xx_hal_dma.c ****   else
 880:Drivers/STM32H5xx_HAL_Driver/Src/stm32h5xx_hal_dma.c ****   {
 881:Drivers/STM32H5xx_HAL_Driver/Src/stm32h5xx_hal_dma.c ****     return HAL_ERROR;
 882:Drivers/STM32H5xx_HAL_Driver/Src/stm32h5xx_hal_dma.c ****   }
 883:Drivers/STM32H5xx_HAL_Driver/Src/stm32h5xx_hal_dma.c **** 
 884:Drivers/STM32H5xx_HAL_Driver/Src/stm32h5xx_hal_dma.c ****   return HAL_OK;
ARM GAS  C:\Users\sapph\AppData\Local\Temp\ccTfCvBa.s 			page 17


 885:Drivers/STM32H5xx_HAL_Driver/Src/stm32h5xx_hal_dma.c **** }
 886:Drivers/STM32H5xx_HAL_Driver/Src/stm32h5xx_hal_dma.c **** 
 887:Drivers/STM32H5xx_HAL_Driver/Src/stm32h5xx_hal_dma.c **** /**
 888:Drivers/STM32H5xx_HAL_Driver/Src/stm32h5xx_hal_dma.c ****   * @brief  Handle DMA interrupt request (Non-blocking mode).
 889:Drivers/STM32H5xx_HAL_Driver/Src/stm32h5xx_hal_dma.c ****   * @param  hdma : Pointer to a DMA_HandleTypeDef structure that contains the configuration informa
 890:Drivers/STM32H5xx_HAL_Driver/Src/stm32h5xx_hal_dma.c ****   *                specified DMA Channel.
 891:Drivers/STM32H5xx_HAL_Driver/Src/stm32h5xx_hal_dma.c ****   * @retval None.
 892:Drivers/STM32H5xx_HAL_Driver/Src/stm32h5xx_hal_dma.c ****   */
 893:Drivers/STM32H5xx_HAL_Driver/Src/stm32h5xx_hal_dma.c **** void HAL_DMA_IRQHandler(DMA_HandleTypeDef *const hdma)
 894:Drivers/STM32H5xx_HAL_Driver/Src/stm32h5xx_hal_dma.c **** {
 895:Drivers/STM32H5xx_HAL_Driver/Src/stm32h5xx_hal_dma.c ****   const DMA_TypeDef *p_dma_instance = GET_DMA_INSTANCE(hdma);
 896:Drivers/STM32H5xx_HAL_Driver/Src/stm32h5xx_hal_dma.c ****   uint32_t global_it_flag =  1UL << (GET_DMA_CHANNEL(hdma) & 0x1FU);
 897:Drivers/STM32H5xx_HAL_Driver/Src/stm32h5xx_hal_dma.c ****   uint32_t global_active_flag_ns = IS_DMA_GLOBAL_ACTIVE_FLAG_NS(p_dma_instance, global_it_flag);
 898:Drivers/STM32H5xx_HAL_Driver/Src/stm32h5xx_hal_dma.c **** #if defined (__ARM_FEATURE_CMSE) && (__ARM_FEATURE_CMSE == 3U)
 899:Drivers/STM32H5xx_HAL_Driver/Src/stm32h5xx_hal_dma.c ****   uint32_t global_active_flag_s = IS_DMA_GLOBAL_ACTIVE_FLAG_S(p_dma_instance, global_it_flag);
 900:Drivers/STM32H5xx_HAL_Driver/Src/stm32h5xx_hal_dma.c **** #endif /* (__ARM_FEATURE_CMSE) && (__ARM_FEATURE_CMSE == 3U) */
 901:Drivers/STM32H5xx_HAL_Driver/Src/stm32h5xx_hal_dma.c **** 
 902:Drivers/STM32H5xx_HAL_Driver/Src/stm32h5xx_hal_dma.c ****   /* Global Interrupt Flag management *************************************************************
 903:Drivers/STM32H5xx_HAL_Driver/Src/stm32h5xx_hal_dma.c **** #if defined (__ARM_FEATURE_CMSE) && (__ARM_FEATURE_CMSE == 3U)
 904:Drivers/STM32H5xx_HAL_Driver/Src/stm32h5xx_hal_dma.c ****   if ((global_active_flag_s == 0U) && (global_active_flag_ns == 0U))
 905:Drivers/STM32H5xx_HAL_Driver/Src/stm32h5xx_hal_dma.c **** #else
 906:Drivers/STM32H5xx_HAL_Driver/Src/stm32h5xx_hal_dma.c ****   if (global_active_flag_ns == 0U)
 907:Drivers/STM32H5xx_HAL_Driver/Src/stm32h5xx_hal_dma.c **** #endif /* (__ARM_FEATURE_CMSE) && (__ARM_FEATURE_CMSE == 3U) */
 908:Drivers/STM32H5xx_HAL_Driver/Src/stm32h5xx_hal_dma.c ****   {
 909:Drivers/STM32H5xx_HAL_Driver/Src/stm32h5xx_hal_dma.c ****     return; /* the global interrupt flag for the current channel is down , nothing to do */
 910:Drivers/STM32H5xx_HAL_Driver/Src/stm32h5xx_hal_dma.c ****   }
 911:Drivers/STM32H5xx_HAL_Driver/Src/stm32h5xx_hal_dma.c **** 
 912:Drivers/STM32H5xx_HAL_Driver/Src/stm32h5xx_hal_dma.c ****   /* Data Transfer Error Interrupt management *****************************************************
 913:Drivers/STM32H5xx_HAL_Driver/Src/stm32h5xx_hal_dma.c ****   if ((__HAL_DMA_GET_FLAG(hdma, DMA_FLAG_DTE) != 0U))
 914:Drivers/STM32H5xx_HAL_Driver/Src/stm32h5xx_hal_dma.c ****   {
 915:Drivers/STM32H5xx_HAL_Driver/Src/stm32h5xx_hal_dma.c ****     /* Check if interrupt source is enabled */
 916:Drivers/STM32H5xx_HAL_Driver/Src/stm32h5xx_hal_dma.c ****     if (__HAL_DMA_GET_IT_SOURCE(hdma, DMA_IT_DTE) != 0U)
 917:Drivers/STM32H5xx_HAL_Driver/Src/stm32h5xx_hal_dma.c ****     {
 918:Drivers/STM32H5xx_HAL_Driver/Src/stm32h5xx_hal_dma.c ****       /* Clear the transfer error flag */
 919:Drivers/STM32H5xx_HAL_Driver/Src/stm32h5xx_hal_dma.c ****       __HAL_DMA_CLEAR_FLAG(hdma, DMA_FLAG_DTE);
 920:Drivers/STM32H5xx_HAL_Driver/Src/stm32h5xx_hal_dma.c **** 
 921:Drivers/STM32H5xx_HAL_Driver/Src/stm32h5xx_hal_dma.c ****       /* Update the DMA channel error code */
 922:Drivers/STM32H5xx_HAL_Driver/Src/stm32h5xx_hal_dma.c ****       hdma->ErrorCode |= HAL_DMA_ERROR_DTE;
 923:Drivers/STM32H5xx_HAL_Driver/Src/stm32h5xx_hal_dma.c ****     }
 924:Drivers/STM32H5xx_HAL_Driver/Src/stm32h5xx_hal_dma.c ****   }
 925:Drivers/STM32H5xx_HAL_Driver/Src/stm32h5xx_hal_dma.c **** 
 926:Drivers/STM32H5xx_HAL_Driver/Src/stm32h5xx_hal_dma.c ****   /* Update Linked-list Error Interrupt management ************************************************
 927:Drivers/STM32H5xx_HAL_Driver/Src/stm32h5xx_hal_dma.c ****   if ((__HAL_DMA_GET_FLAG(hdma, DMA_FLAG_ULE) != 0U))
 928:Drivers/STM32H5xx_HAL_Driver/Src/stm32h5xx_hal_dma.c ****   {
 929:Drivers/STM32H5xx_HAL_Driver/Src/stm32h5xx_hal_dma.c ****     /* Check if interrupt source is enabled */
 930:Drivers/STM32H5xx_HAL_Driver/Src/stm32h5xx_hal_dma.c ****     if (__HAL_DMA_GET_IT_SOURCE(hdma, DMA_IT_ULE) != 0U)
 931:Drivers/STM32H5xx_HAL_Driver/Src/stm32h5xx_hal_dma.c ****     {
 932:Drivers/STM32H5xx_HAL_Driver/Src/stm32h5xx_hal_dma.c ****       /* Clear the update linked-list error flag */
 933:Drivers/STM32H5xx_HAL_Driver/Src/stm32h5xx_hal_dma.c ****       __HAL_DMA_CLEAR_FLAG(hdma, DMA_FLAG_ULE);
 934:Drivers/STM32H5xx_HAL_Driver/Src/stm32h5xx_hal_dma.c **** 
 935:Drivers/STM32H5xx_HAL_Driver/Src/stm32h5xx_hal_dma.c ****       /* Update the DMA channel error code */
 936:Drivers/STM32H5xx_HAL_Driver/Src/stm32h5xx_hal_dma.c ****       hdma->ErrorCode |= HAL_DMA_ERROR_ULE;
 937:Drivers/STM32H5xx_HAL_Driver/Src/stm32h5xx_hal_dma.c ****     }
 938:Drivers/STM32H5xx_HAL_Driver/Src/stm32h5xx_hal_dma.c ****   }
 939:Drivers/STM32H5xx_HAL_Driver/Src/stm32h5xx_hal_dma.c **** 
 940:Drivers/STM32H5xx_HAL_Driver/Src/stm32h5xx_hal_dma.c ****   /* User Setting Error Interrupt management ******************************************************
 941:Drivers/STM32H5xx_HAL_Driver/Src/stm32h5xx_hal_dma.c ****   if ((__HAL_DMA_GET_FLAG(hdma, DMA_FLAG_USE) != 0U))
ARM GAS  C:\Users\sapph\AppData\Local\Temp\ccTfCvBa.s 			page 18


 942:Drivers/STM32H5xx_HAL_Driver/Src/stm32h5xx_hal_dma.c ****   {
 943:Drivers/STM32H5xx_HAL_Driver/Src/stm32h5xx_hal_dma.c ****     /* Check if interrupt source is enabled */
 944:Drivers/STM32H5xx_HAL_Driver/Src/stm32h5xx_hal_dma.c ****     if (__HAL_DMA_GET_IT_SOURCE(hdma, DMA_IT_USE) != 0U)
 945:Drivers/STM32H5xx_HAL_Driver/Src/stm32h5xx_hal_dma.c ****     {
 946:Drivers/STM32H5xx_HAL_Driver/Src/stm32h5xx_hal_dma.c ****       /* Clear the user setting error flag */
 947:Drivers/STM32H5xx_HAL_Driver/Src/stm32h5xx_hal_dma.c ****       __HAL_DMA_CLEAR_FLAG(hdma, DMA_FLAG_USE);
 948:Drivers/STM32H5xx_HAL_Driver/Src/stm32h5xx_hal_dma.c **** 
 949:Drivers/STM32H5xx_HAL_Driver/Src/stm32h5xx_hal_dma.c ****       /* Update the DMA channel error code */
 950:Drivers/STM32H5xx_HAL_Driver/Src/stm32h5xx_hal_dma.c ****       hdma->ErrorCode |= HAL_DMA_ERROR_USE;
 951:Drivers/STM32H5xx_HAL_Driver/Src/stm32h5xx_hal_dma.c ****     }
 952:Drivers/STM32H5xx_HAL_Driver/Src/stm32h5xx_hal_dma.c ****   }
 953:Drivers/STM32H5xx_HAL_Driver/Src/stm32h5xx_hal_dma.c **** 
 954:Drivers/STM32H5xx_HAL_Driver/Src/stm32h5xx_hal_dma.c ****   /* Trigger Overrun Interrupt management *********************************************************
 955:Drivers/STM32H5xx_HAL_Driver/Src/stm32h5xx_hal_dma.c ****   if ((__HAL_DMA_GET_FLAG(hdma, DMA_FLAG_TO) != 0U))
 956:Drivers/STM32H5xx_HAL_Driver/Src/stm32h5xx_hal_dma.c ****   {
 957:Drivers/STM32H5xx_HAL_Driver/Src/stm32h5xx_hal_dma.c ****     /* Check if interrupt source is enabled */
 958:Drivers/STM32H5xx_HAL_Driver/Src/stm32h5xx_hal_dma.c ****     if (__HAL_DMA_GET_IT_SOURCE(hdma, DMA_IT_TO) != 0U)
 959:Drivers/STM32H5xx_HAL_Driver/Src/stm32h5xx_hal_dma.c ****     {
 960:Drivers/STM32H5xx_HAL_Driver/Src/stm32h5xx_hal_dma.c ****       /* Clear the trigger overrun flag */
 961:Drivers/STM32H5xx_HAL_Driver/Src/stm32h5xx_hal_dma.c ****       __HAL_DMA_CLEAR_FLAG(hdma, DMA_FLAG_TO);
 962:Drivers/STM32H5xx_HAL_Driver/Src/stm32h5xx_hal_dma.c **** 
 963:Drivers/STM32H5xx_HAL_Driver/Src/stm32h5xx_hal_dma.c ****       /* Update the DMA channel error code */
 964:Drivers/STM32H5xx_HAL_Driver/Src/stm32h5xx_hal_dma.c ****       hdma->ErrorCode |= HAL_DMA_ERROR_TO;
 965:Drivers/STM32H5xx_HAL_Driver/Src/stm32h5xx_hal_dma.c ****     }
 966:Drivers/STM32H5xx_HAL_Driver/Src/stm32h5xx_hal_dma.c ****   }
 967:Drivers/STM32H5xx_HAL_Driver/Src/stm32h5xx_hal_dma.c **** 
 968:Drivers/STM32H5xx_HAL_Driver/Src/stm32h5xx_hal_dma.c ****   /* Half Transfer Complete Interrupt management **************************************************
 969:Drivers/STM32H5xx_HAL_Driver/Src/stm32h5xx_hal_dma.c ****   if ((__HAL_DMA_GET_FLAG(hdma, DMA_FLAG_HT) != 0U))
 970:Drivers/STM32H5xx_HAL_Driver/Src/stm32h5xx_hal_dma.c ****   {
 971:Drivers/STM32H5xx_HAL_Driver/Src/stm32h5xx_hal_dma.c ****     /* Check if interrupt source is enabled */
 972:Drivers/STM32H5xx_HAL_Driver/Src/stm32h5xx_hal_dma.c ****     if (__HAL_DMA_GET_IT_SOURCE(hdma, DMA_IT_HT) != 0U)
 973:Drivers/STM32H5xx_HAL_Driver/Src/stm32h5xx_hal_dma.c ****     {
 974:Drivers/STM32H5xx_HAL_Driver/Src/stm32h5xx_hal_dma.c ****       /* Clear the half transfer flag */
 975:Drivers/STM32H5xx_HAL_Driver/Src/stm32h5xx_hal_dma.c ****       __HAL_DMA_CLEAR_FLAG(hdma, DMA_FLAG_HT);
 976:Drivers/STM32H5xx_HAL_Driver/Src/stm32h5xx_hal_dma.c **** 
 977:Drivers/STM32H5xx_HAL_Driver/Src/stm32h5xx_hal_dma.c ****       /* Check half transfer complete callback */
 978:Drivers/STM32H5xx_HAL_Driver/Src/stm32h5xx_hal_dma.c ****       if (hdma->XferHalfCpltCallback != NULL)
 979:Drivers/STM32H5xx_HAL_Driver/Src/stm32h5xx_hal_dma.c ****       {
 980:Drivers/STM32H5xx_HAL_Driver/Src/stm32h5xx_hal_dma.c ****         /* Half transfer callback */
 981:Drivers/STM32H5xx_HAL_Driver/Src/stm32h5xx_hal_dma.c ****         hdma->XferHalfCpltCallback(hdma);
 982:Drivers/STM32H5xx_HAL_Driver/Src/stm32h5xx_hal_dma.c ****       }
 983:Drivers/STM32H5xx_HAL_Driver/Src/stm32h5xx_hal_dma.c ****     }
 984:Drivers/STM32H5xx_HAL_Driver/Src/stm32h5xx_hal_dma.c ****   }
 985:Drivers/STM32H5xx_HAL_Driver/Src/stm32h5xx_hal_dma.c **** 
 986:Drivers/STM32H5xx_HAL_Driver/Src/stm32h5xx_hal_dma.c ****   /* Suspend Transfer Interrupt management ********************************************************
 987:Drivers/STM32H5xx_HAL_Driver/Src/stm32h5xx_hal_dma.c ****   if ((__HAL_DMA_GET_FLAG(hdma, DMA_FLAG_SUSP) != 0U))
 988:Drivers/STM32H5xx_HAL_Driver/Src/stm32h5xx_hal_dma.c ****   {
 989:Drivers/STM32H5xx_HAL_Driver/Src/stm32h5xx_hal_dma.c ****     /* Check if interrupt source is enabled */
 990:Drivers/STM32H5xx_HAL_Driver/Src/stm32h5xx_hal_dma.c ****     if (__HAL_DMA_GET_IT_SOURCE(hdma, DMA_IT_SUSP) != 0U)
 991:Drivers/STM32H5xx_HAL_Driver/Src/stm32h5xx_hal_dma.c ****     {
 992:Drivers/STM32H5xx_HAL_Driver/Src/stm32h5xx_hal_dma.c ****       /* Clear the block transfer complete flag */
 993:Drivers/STM32H5xx_HAL_Driver/Src/stm32h5xx_hal_dma.c ****       __HAL_DMA_CLEAR_FLAG(hdma, DMA_FLAG_SUSP);
 994:Drivers/STM32H5xx_HAL_Driver/Src/stm32h5xx_hal_dma.c **** 
 995:Drivers/STM32H5xx_HAL_Driver/Src/stm32h5xx_hal_dma.c ****       /* Check DMA channel state */
 996:Drivers/STM32H5xx_HAL_Driver/Src/stm32h5xx_hal_dma.c ****       if (hdma->State == HAL_DMA_STATE_ABORT)
 997:Drivers/STM32H5xx_HAL_Driver/Src/stm32h5xx_hal_dma.c ****       {
 998:Drivers/STM32H5xx_HAL_Driver/Src/stm32h5xx_hal_dma.c ****         /* Disable the suspend transfer interrupt */
ARM GAS  C:\Users\sapph\AppData\Local\Temp\ccTfCvBa.s 			page 19


 999:Drivers/STM32H5xx_HAL_Driver/Src/stm32h5xx_hal_dma.c ****         __HAL_DMA_DISABLE_IT(hdma, DMA_IT_SUSP);
1000:Drivers/STM32H5xx_HAL_Driver/Src/stm32h5xx_hal_dma.c **** 
1001:Drivers/STM32H5xx_HAL_Driver/Src/stm32h5xx_hal_dma.c ****         /* Reset the channel internal state and reset the FIFO */
1002:Drivers/STM32H5xx_HAL_Driver/Src/stm32h5xx_hal_dma.c ****         hdma->Instance->CCR |= DMA_CCR_RESET;
1003:Drivers/STM32H5xx_HAL_Driver/Src/stm32h5xx_hal_dma.c **** 
1004:Drivers/STM32H5xx_HAL_Driver/Src/stm32h5xx_hal_dma.c ****         /* Update the DMA channel state */
1005:Drivers/STM32H5xx_HAL_Driver/Src/stm32h5xx_hal_dma.c ****         hdma->State = HAL_DMA_STATE_READY;
1006:Drivers/STM32H5xx_HAL_Driver/Src/stm32h5xx_hal_dma.c **** 
1007:Drivers/STM32H5xx_HAL_Driver/Src/stm32h5xx_hal_dma.c ****         /* Check DMA channel transfer mode */
1008:Drivers/STM32H5xx_HAL_Driver/Src/stm32h5xx_hal_dma.c ****         if ((hdma->Mode & DMA_LINKEDLIST) == DMA_LINKEDLIST)
1009:Drivers/STM32H5xx_HAL_Driver/Src/stm32h5xx_hal_dma.c ****         {
1010:Drivers/STM32H5xx_HAL_Driver/Src/stm32h5xx_hal_dma.c ****           /* Update the linked-list queue state */
1011:Drivers/STM32H5xx_HAL_Driver/Src/stm32h5xx_hal_dma.c ****           hdma->LinkedListQueue->State = HAL_DMA_QUEUE_STATE_READY;
1012:Drivers/STM32H5xx_HAL_Driver/Src/stm32h5xx_hal_dma.c **** 
1013:Drivers/STM32H5xx_HAL_Driver/Src/stm32h5xx_hal_dma.c ****           /* Clear remaining data size to ensure loading linked-list from memory next start */
1014:Drivers/STM32H5xx_HAL_Driver/Src/stm32h5xx_hal_dma.c ****           hdma->Instance->CBR1 = 0U;
1015:Drivers/STM32H5xx_HAL_Driver/Src/stm32h5xx_hal_dma.c ****         }
1016:Drivers/STM32H5xx_HAL_Driver/Src/stm32h5xx_hal_dma.c **** 
1017:Drivers/STM32H5xx_HAL_Driver/Src/stm32h5xx_hal_dma.c ****         /* Process Unlocked */
1018:Drivers/STM32H5xx_HAL_Driver/Src/stm32h5xx_hal_dma.c ****         __HAL_UNLOCK(hdma);
1019:Drivers/STM32H5xx_HAL_Driver/Src/stm32h5xx_hal_dma.c **** 
1020:Drivers/STM32H5xx_HAL_Driver/Src/stm32h5xx_hal_dma.c ****         /* Check transfer abort callback */
1021:Drivers/STM32H5xx_HAL_Driver/Src/stm32h5xx_hal_dma.c ****         if (hdma->XferAbortCallback != NULL)
1022:Drivers/STM32H5xx_HAL_Driver/Src/stm32h5xx_hal_dma.c ****         {
1023:Drivers/STM32H5xx_HAL_Driver/Src/stm32h5xx_hal_dma.c ****           /* Transfer abort callback */
1024:Drivers/STM32H5xx_HAL_Driver/Src/stm32h5xx_hal_dma.c ****           hdma->XferAbortCallback(hdma);
1025:Drivers/STM32H5xx_HAL_Driver/Src/stm32h5xx_hal_dma.c ****         }
1026:Drivers/STM32H5xx_HAL_Driver/Src/stm32h5xx_hal_dma.c **** 
1027:Drivers/STM32H5xx_HAL_Driver/Src/stm32h5xx_hal_dma.c ****         return;
1028:Drivers/STM32H5xx_HAL_Driver/Src/stm32h5xx_hal_dma.c ****       }
1029:Drivers/STM32H5xx_HAL_Driver/Src/stm32h5xx_hal_dma.c ****       else
1030:Drivers/STM32H5xx_HAL_Driver/Src/stm32h5xx_hal_dma.c ****       {
1031:Drivers/STM32H5xx_HAL_Driver/Src/stm32h5xx_hal_dma.c ****         /* Update the DMA channel state */
1032:Drivers/STM32H5xx_HAL_Driver/Src/stm32h5xx_hal_dma.c ****         hdma->State = HAL_DMA_STATE_SUSPEND;
1033:Drivers/STM32H5xx_HAL_Driver/Src/stm32h5xx_hal_dma.c **** 
1034:Drivers/STM32H5xx_HAL_Driver/Src/stm32h5xx_hal_dma.c ****         /* Check transfer suspend callback */
1035:Drivers/STM32H5xx_HAL_Driver/Src/stm32h5xx_hal_dma.c ****         if (hdma->XferSuspendCallback != NULL)
1036:Drivers/STM32H5xx_HAL_Driver/Src/stm32h5xx_hal_dma.c ****         {
1037:Drivers/STM32H5xx_HAL_Driver/Src/stm32h5xx_hal_dma.c ****           /* Transfer suspend callback */
1038:Drivers/STM32H5xx_HAL_Driver/Src/stm32h5xx_hal_dma.c ****           hdma->XferSuspendCallback(hdma);
1039:Drivers/STM32H5xx_HAL_Driver/Src/stm32h5xx_hal_dma.c ****         }
1040:Drivers/STM32H5xx_HAL_Driver/Src/stm32h5xx_hal_dma.c ****       }
1041:Drivers/STM32H5xx_HAL_Driver/Src/stm32h5xx_hal_dma.c ****     }
1042:Drivers/STM32H5xx_HAL_Driver/Src/stm32h5xx_hal_dma.c ****   }
1043:Drivers/STM32H5xx_HAL_Driver/Src/stm32h5xx_hal_dma.c **** 
1044:Drivers/STM32H5xx_HAL_Driver/Src/stm32h5xx_hal_dma.c ****   /* Transfer Complete Interrupt management *******************************************************
1045:Drivers/STM32H5xx_HAL_Driver/Src/stm32h5xx_hal_dma.c ****   if ((__HAL_DMA_GET_FLAG(hdma, DMA_FLAG_TC) != 0U))
1046:Drivers/STM32H5xx_HAL_Driver/Src/stm32h5xx_hal_dma.c ****   {
1047:Drivers/STM32H5xx_HAL_Driver/Src/stm32h5xx_hal_dma.c ****     /* Check if interrupt source is enabled */
1048:Drivers/STM32H5xx_HAL_Driver/Src/stm32h5xx_hal_dma.c ****     if (__HAL_DMA_GET_IT_SOURCE(hdma, DMA_IT_TC) != 0U)
1049:Drivers/STM32H5xx_HAL_Driver/Src/stm32h5xx_hal_dma.c ****     {
1050:Drivers/STM32H5xx_HAL_Driver/Src/stm32h5xx_hal_dma.c ****       /* Check DMA channel transfer mode */
1051:Drivers/STM32H5xx_HAL_Driver/Src/stm32h5xx_hal_dma.c ****       if ((hdma->Mode & DMA_LINKEDLIST) == DMA_LINKEDLIST)
1052:Drivers/STM32H5xx_HAL_Driver/Src/stm32h5xx_hal_dma.c ****       {
1053:Drivers/STM32H5xx_HAL_Driver/Src/stm32h5xx_hal_dma.c ****         /* If linked-list transfer */
1054:Drivers/STM32H5xx_HAL_Driver/Src/stm32h5xx_hal_dma.c ****         if (hdma->Instance->CLLR == 0U)
1055:Drivers/STM32H5xx_HAL_Driver/Src/stm32h5xx_hal_dma.c ****         {
ARM GAS  C:\Users\sapph\AppData\Local\Temp\ccTfCvBa.s 			page 20


1056:Drivers/STM32H5xx_HAL_Driver/Src/stm32h5xx_hal_dma.c ****           if (hdma->Instance->CBR1 == 0U)
1057:Drivers/STM32H5xx_HAL_Driver/Src/stm32h5xx_hal_dma.c ****           {
1058:Drivers/STM32H5xx_HAL_Driver/Src/stm32h5xx_hal_dma.c ****             /* Update the DMA channel state */
1059:Drivers/STM32H5xx_HAL_Driver/Src/stm32h5xx_hal_dma.c ****             hdma->State = HAL_DMA_STATE_READY;
1060:Drivers/STM32H5xx_HAL_Driver/Src/stm32h5xx_hal_dma.c **** 
1061:Drivers/STM32H5xx_HAL_Driver/Src/stm32h5xx_hal_dma.c ****             /* Update the linked-list queue state */
1062:Drivers/STM32H5xx_HAL_Driver/Src/stm32h5xx_hal_dma.c ****             hdma->LinkedListQueue->State = HAL_DMA_QUEUE_STATE_READY;
1063:Drivers/STM32H5xx_HAL_Driver/Src/stm32h5xx_hal_dma.c ****           }
1064:Drivers/STM32H5xx_HAL_Driver/Src/stm32h5xx_hal_dma.c ****         }
1065:Drivers/STM32H5xx_HAL_Driver/Src/stm32h5xx_hal_dma.c ****       }
1066:Drivers/STM32H5xx_HAL_Driver/Src/stm32h5xx_hal_dma.c ****       else
1067:Drivers/STM32H5xx_HAL_Driver/Src/stm32h5xx_hal_dma.c ****       {
1068:Drivers/STM32H5xx_HAL_Driver/Src/stm32h5xx_hal_dma.c ****         /* If normal transfer */
1069:Drivers/STM32H5xx_HAL_Driver/Src/stm32h5xx_hal_dma.c ****         if (hdma->Instance->CBR1 == 0U)
1070:Drivers/STM32H5xx_HAL_Driver/Src/stm32h5xx_hal_dma.c ****         {
1071:Drivers/STM32H5xx_HAL_Driver/Src/stm32h5xx_hal_dma.c ****           /* Update the DMA channel state */
1072:Drivers/STM32H5xx_HAL_Driver/Src/stm32h5xx_hal_dma.c ****           hdma->State = HAL_DMA_STATE_READY;
1073:Drivers/STM32H5xx_HAL_Driver/Src/stm32h5xx_hal_dma.c ****         }
1074:Drivers/STM32H5xx_HAL_Driver/Src/stm32h5xx_hal_dma.c ****       }
1075:Drivers/STM32H5xx_HAL_Driver/Src/stm32h5xx_hal_dma.c **** 
1076:Drivers/STM32H5xx_HAL_Driver/Src/stm32h5xx_hal_dma.c ****       /* Clear TC and HT transfer flags */
1077:Drivers/STM32H5xx_HAL_Driver/Src/stm32h5xx_hal_dma.c ****       __HAL_DMA_CLEAR_FLAG(hdma, (DMA_FLAG_TC | DMA_FLAG_HT));
1078:Drivers/STM32H5xx_HAL_Driver/Src/stm32h5xx_hal_dma.c **** 
1079:Drivers/STM32H5xx_HAL_Driver/Src/stm32h5xx_hal_dma.c ****       /* Process Unlocked */
1080:Drivers/STM32H5xx_HAL_Driver/Src/stm32h5xx_hal_dma.c ****       __HAL_UNLOCK(hdma);
1081:Drivers/STM32H5xx_HAL_Driver/Src/stm32h5xx_hal_dma.c **** 
1082:Drivers/STM32H5xx_HAL_Driver/Src/stm32h5xx_hal_dma.c ****       /* Check transfer complete callback */
1083:Drivers/STM32H5xx_HAL_Driver/Src/stm32h5xx_hal_dma.c ****       if (hdma->XferCpltCallback != NULL)
1084:Drivers/STM32H5xx_HAL_Driver/Src/stm32h5xx_hal_dma.c ****       {
1085:Drivers/STM32H5xx_HAL_Driver/Src/stm32h5xx_hal_dma.c ****         /* Channel Transfer Complete callback */
1086:Drivers/STM32H5xx_HAL_Driver/Src/stm32h5xx_hal_dma.c ****         hdma->XferCpltCallback(hdma);
1087:Drivers/STM32H5xx_HAL_Driver/Src/stm32h5xx_hal_dma.c ****       }
1088:Drivers/STM32H5xx_HAL_Driver/Src/stm32h5xx_hal_dma.c ****     }
1089:Drivers/STM32H5xx_HAL_Driver/Src/stm32h5xx_hal_dma.c ****   }
1090:Drivers/STM32H5xx_HAL_Driver/Src/stm32h5xx_hal_dma.c **** 
1091:Drivers/STM32H5xx_HAL_Driver/Src/stm32h5xx_hal_dma.c ****   /* Manage error case ****************************************************************************
1092:Drivers/STM32H5xx_HAL_Driver/Src/stm32h5xx_hal_dma.c ****   if (hdma->ErrorCode != HAL_DMA_ERROR_NONE)
1093:Drivers/STM32H5xx_HAL_Driver/Src/stm32h5xx_hal_dma.c ****   {
1094:Drivers/STM32H5xx_HAL_Driver/Src/stm32h5xx_hal_dma.c ****     /* Reset the channel internal state and reset the FIFO */
1095:Drivers/STM32H5xx_HAL_Driver/Src/stm32h5xx_hal_dma.c ****     hdma->Instance->CCR |= DMA_CCR_RESET;
1096:Drivers/STM32H5xx_HAL_Driver/Src/stm32h5xx_hal_dma.c **** 
1097:Drivers/STM32H5xx_HAL_Driver/Src/stm32h5xx_hal_dma.c ****     /* Update the DMA channel state */
1098:Drivers/STM32H5xx_HAL_Driver/Src/stm32h5xx_hal_dma.c ****     hdma->State = HAL_DMA_STATE_READY;
1099:Drivers/STM32H5xx_HAL_Driver/Src/stm32h5xx_hal_dma.c **** 
1100:Drivers/STM32H5xx_HAL_Driver/Src/stm32h5xx_hal_dma.c ****     /* Check DMA channel transfer mode */
1101:Drivers/STM32H5xx_HAL_Driver/Src/stm32h5xx_hal_dma.c ****     if ((hdma->Mode & DMA_LINKEDLIST) == DMA_LINKEDLIST)
1102:Drivers/STM32H5xx_HAL_Driver/Src/stm32h5xx_hal_dma.c ****     {
1103:Drivers/STM32H5xx_HAL_Driver/Src/stm32h5xx_hal_dma.c ****       /* Update the linked-list queue state */
1104:Drivers/STM32H5xx_HAL_Driver/Src/stm32h5xx_hal_dma.c ****       hdma->LinkedListQueue->State = HAL_DMA_QUEUE_STATE_READY;
1105:Drivers/STM32H5xx_HAL_Driver/Src/stm32h5xx_hal_dma.c ****     }
1106:Drivers/STM32H5xx_HAL_Driver/Src/stm32h5xx_hal_dma.c **** 
1107:Drivers/STM32H5xx_HAL_Driver/Src/stm32h5xx_hal_dma.c ****     /* Process Unlocked */
1108:Drivers/STM32H5xx_HAL_Driver/Src/stm32h5xx_hal_dma.c ****     __HAL_UNLOCK(hdma);
1109:Drivers/STM32H5xx_HAL_Driver/Src/stm32h5xx_hal_dma.c **** 
1110:Drivers/STM32H5xx_HAL_Driver/Src/stm32h5xx_hal_dma.c ****     /* Check transfer error callback */
1111:Drivers/STM32H5xx_HAL_Driver/Src/stm32h5xx_hal_dma.c ****     if (hdma->XferErrorCallback != NULL)
1112:Drivers/STM32H5xx_HAL_Driver/Src/stm32h5xx_hal_dma.c ****     {
ARM GAS  C:\Users\sapph\AppData\Local\Temp\ccTfCvBa.s 			page 21


1113:Drivers/STM32H5xx_HAL_Driver/Src/stm32h5xx_hal_dma.c ****       /* Transfer error callback */
1114:Drivers/STM32H5xx_HAL_Driver/Src/stm32h5xx_hal_dma.c ****       hdma->XferErrorCallback(hdma);
1115:Drivers/STM32H5xx_HAL_Driver/Src/stm32h5xx_hal_dma.c ****     }
1116:Drivers/STM32H5xx_HAL_Driver/Src/stm32h5xx_hal_dma.c ****   }
1117:Drivers/STM32H5xx_HAL_Driver/Src/stm32h5xx_hal_dma.c **** }
1118:Drivers/STM32H5xx_HAL_Driver/Src/stm32h5xx_hal_dma.c **** 
1119:Drivers/STM32H5xx_HAL_Driver/Src/stm32h5xx_hal_dma.c **** /**
1120:Drivers/STM32H5xx_HAL_Driver/Src/stm32h5xx_hal_dma.c ****   * @brief  Register callback according to specified ID.
1121:Drivers/STM32H5xx_HAL_Driver/Src/stm32h5xx_hal_dma.c ****   * @note   The HAL_DMA_RegisterCallback() may be called before HAL_DMA_Init() in HAL_DMA_STATE_RES
1122:Drivers/STM32H5xx_HAL_Driver/Src/stm32h5xx_hal_dma.c ****   *         to register callbacks for HAL_DMA_MSPINIT_CB_ID and HAL_DMA_MSPDEINIT_CB_ID.
1123:Drivers/STM32H5xx_HAL_Driver/Src/stm32h5xx_hal_dma.c ****   * @param  hdma       : Pointer to a DMA_HandleTypeDef structure that contains the configuration i
1124:Drivers/STM32H5xx_HAL_Driver/Src/stm32h5xx_hal_dma.c ****   *                      specified DMA Channel.
1125:Drivers/STM32H5xx_HAL_Driver/Src/stm32h5xx_hal_dma.c ****   * @param  CallbackID : User Callback identifier which could be a value of HAL_DMA_CallbackIDTypeD
1126:Drivers/STM32H5xx_HAL_Driver/Src/stm32h5xx_hal_dma.c ****   * @param  pCallback  : Pointer to private callback function.
1127:Drivers/STM32H5xx_HAL_Driver/Src/stm32h5xx_hal_dma.c ****   * @retval HAL status.
1128:Drivers/STM32H5xx_HAL_Driver/Src/stm32h5xx_hal_dma.c ****   */
1129:Drivers/STM32H5xx_HAL_Driver/Src/stm32h5xx_hal_dma.c **** HAL_StatusTypeDef HAL_DMA_RegisterCallback(DMA_HandleTypeDef *const hdma,
1130:Drivers/STM32H5xx_HAL_Driver/Src/stm32h5xx_hal_dma.c ****                                            HAL_DMA_CallbackIDTypeDef CallbackID,
1131:Drivers/STM32H5xx_HAL_Driver/Src/stm32h5xx_hal_dma.c ****                                            void (*const pCallback)(DMA_HandleTypeDef *const _hdma))
1132:Drivers/STM32H5xx_HAL_Driver/Src/stm32h5xx_hal_dma.c **** {
1133:Drivers/STM32H5xx_HAL_Driver/Src/stm32h5xx_hal_dma.c ****   HAL_StatusTypeDef status = HAL_OK;
1134:Drivers/STM32H5xx_HAL_Driver/Src/stm32h5xx_hal_dma.c **** 
1135:Drivers/STM32H5xx_HAL_Driver/Src/stm32h5xx_hal_dma.c ****   /* Check the DMA peripheral handle parameter */
1136:Drivers/STM32H5xx_HAL_Driver/Src/stm32h5xx_hal_dma.c ****   if (hdma == NULL)
1137:Drivers/STM32H5xx_HAL_Driver/Src/stm32h5xx_hal_dma.c ****   {
1138:Drivers/STM32H5xx_HAL_Driver/Src/stm32h5xx_hal_dma.c ****     return HAL_ERROR;
1139:Drivers/STM32H5xx_HAL_Driver/Src/stm32h5xx_hal_dma.c ****   }
1140:Drivers/STM32H5xx_HAL_Driver/Src/stm32h5xx_hal_dma.c **** 
1141:Drivers/STM32H5xx_HAL_Driver/Src/stm32h5xx_hal_dma.c ****   /* Check DMA channel state */
1142:Drivers/STM32H5xx_HAL_Driver/Src/stm32h5xx_hal_dma.c ****   if (hdma->State == HAL_DMA_STATE_READY)
1143:Drivers/STM32H5xx_HAL_Driver/Src/stm32h5xx_hal_dma.c ****   {
1144:Drivers/STM32H5xx_HAL_Driver/Src/stm32h5xx_hal_dma.c ****     /* Check callback ID */
1145:Drivers/STM32H5xx_HAL_Driver/Src/stm32h5xx_hal_dma.c ****     switch (CallbackID)
1146:Drivers/STM32H5xx_HAL_Driver/Src/stm32h5xx_hal_dma.c ****     {
1147:Drivers/STM32H5xx_HAL_Driver/Src/stm32h5xx_hal_dma.c ****       case HAL_DMA_XFER_CPLT_CB_ID:
1148:Drivers/STM32H5xx_HAL_Driver/Src/stm32h5xx_hal_dma.c ****       {
1149:Drivers/STM32H5xx_HAL_Driver/Src/stm32h5xx_hal_dma.c ****         /* Register transfer complete callback */
1150:Drivers/STM32H5xx_HAL_Driver/Src/stm32h5xx_hal_dma.c ****         hdma->XferCpltCallback = pCallback;
1151:Drivers/STM32H5xx_HAL_Driver/Src/stm32h5xx_hal_dma.c ****         break;
1152:Drivers/STM32H5xx_HAL_Driver/Src/stm32h5xx_hal_dma.c ****       }
1153:Drivers/STM32H5xx_HAL_Driver/Src/stm32h5xx_hal_dma.c **** 
1154:Drivers/STM32H5xx_HAL_Driver/Src/stm32h5xx_hal_dma.c ****       case HAL_DMA_XFER_HALFCPLT_CB_ID:
1155:Drivers/STM32H5xx_HAL_Driver/Src/stm32h5xx_hal_dma.c ****       {
1156:Drivers/STM32H5xx_HAL_Driver/Src/stm32h5xx_hal_dma.c ****         /* Register half transfer callback */
1157:Drivers/STM32H5xx_HAL_Driver/Src/stm32h5xx_hal_dma.c ****         hdma->XferHalfCpltCallback = pCallback;
1158:Drivers/STM32H5xx_HAL_Driver/Src/stm32h5xx_hal_dma.c ****         break;
1159:Drivers/STM32H5xx_HAL_Driver/Src/stm32h5xx_hal_dma.c ****       }
1160:Drivers/STM32H5xx_HAL_Driver/Src/stm32h5xx_hal_dma.c **** 
1161:Drivers/STM32H5xx_HAL_Driver/Src/stm32h5xx_hal_dma.c ****       case HAL_DMA_XFER_ERROR_CB_ID:
1162:Drivers/STM32H5xx_HAL_Driver/Src/stm32h5xx_hal_dma.c ****       {
1163:Drivers/STM32H5xx_HAL_Driver/Src/stm32h5xx_hal_dma.c ****         /* Register transfer error callback */
1164:Drivers/STM32H5xx_HAL_Driver/Src/stm32h5xx_hal_dma.c ****         hdma->XferErrorCallback = pCallback;
1165:Drivers/STM32H5xx_HAL_Driver/Src/stm32h5xx_hal_dma.c ****         break;
1166:Drivers/STM32H5xx_HAL_Driver/Src/stm32h5xx_hal_dma.c ****       }
1167:Drivers/STM32H5xx_HAL_Driver/Src/stm32h5xx_hal_dma.c **** 
1168:Drivers/STM32H5xx_HAL_Driver/Src/stm32h5xx_hal_dma.c ****       case HAL_DMA_XFER_ABORT_CB_ID:
1169:Drivers/STM32H5xx_HAL_Driver/Src/stm32h5xx_hal_dma.c ****       {
ARM GAS  C:\Users\sapph\AppData\Local\Temp\ccTfCvBa.s 			page 22


1170:Drivers/STM32H5xx_HAL_Driver/Src/stm32h5xx_hal_dma.c ****         /* Register abort callback */
1171:Drivers/STM32H5xx_HAL_Driver/Src/stm32h5xx_hal_dma.c ****         hdma->XferAbortCallback = pCallback;
1172:Drivers/STM32H5xx_HAL_Driver/Src/stm32h5xx_hal_dma.c ****         break;
1173:Drivers/STM32H5xx_HAL_Driver/Src/stm32h5xx_hal_dma.c ****       }
1174:Drivers/STM32H5xx_HAL_Driver/Src/stm32h5xx_hal_dma.c **** 
1175:Drivers/STM32H5xx_HAL_Driver/Src/stm32h5xx_hal_dma.c ****       case HAL_DMA_XFER_SUSPEND_CB_ID:
1176:Drivers/STM32H5xx_HAL_Driver/Src/stm32h5xx_hal_dma.c ****       {
1177:Drivers/STM32H5xx_HAL_Driver/Src/stm32h5xx_hal_dma.c ****         /* Register suspend callback */
1178:Drivers/STM32H5xx_HAL_Driver/Src/stm32h5xx_hal_dma.c ****         hdma->XferSuspendCallback = pCallback;
1179:Drivers/STM32H5xx_HAL_Driver/Src/stm32h5xx_hal_dma.c ****         break;
1180:Drivers/STM32H5xx_HAL_Driver/Src/stm32h5xx_hal_dma.c ****       }
1181:Drivers/STM32H5xx_HAL_Driver/Src/stm32h5xx_hal_dma.c **** 
1182:Drivers/STM32H5xx_HAL_Driver/Src/stm32h5xx_hal_dma.c ****       default:
1183:Drivers/STM32H5xx_HAL_Driver/Src/stm32h5xx_hal_dma.c ****       {
1184:Drivers/STM32H5xx_HAL_Driver/Src/stm32h5xx_hal_dma.c ****         /* Update error status */
1185:Drivers/STM32H5xx_HAL_Driver/Src/stm32h5xx_hal_dma.c ****         status = HAL_ERROR;
1186:Drivers/STM32H5xx_HAL_Driver/Src/stm32h5xx_hal_dma.c ****         break;
1187:Drivers/STM32H5xx_HAL_Driver/Src/stm32h5xx_hal_dma.c ****       }
1188:Drivers/STM32H5xx_HAL_Driver/Src/stm32h5xx_hal_dma.c ****     }
1189:Drivers/STM32H5xx_HAL_Driver/Src/stm32h5xx_hal_dma.c ****   }
1190:Drivers/STM32H5xx_HAL_Driver/Src/stm32h5xx_hal_dma.c ****   else
1191:Drivers/STM32H5xx_HAL_Driver/Src/stm32h5xx_hal_dma.c ****   {
1192:Drivers/STM32H5xx_HAL_Driver/Src/stm32h5xx_hal_dma.c ****     /* Update error status */
1193:Drivers/STM32H5xx_HAL_Driver/Src/stm32h5xx_hal_dma.c ****     status =  HAL_ERROR;
1194:Drivers/STM32H5xx_HAL_Driver/Src/stm32h5xx_hal_dma.c ****   }
1195:Drivers/STM32H5xx_HAL_Driver/Src/stm32h5xx_hal_dma.c **** 
1196:Drivers/STM32H5xx_HAL_Driver/Src/stm32h5xx_hal_dma.c ****   return status;
1197:Drivers/STM32H5xx_HAL_Driver/Src/stm32h5xx_hal_dma.c **** }
1198:Drivers/STM32H5xx_HAL_Driver/Src/stm32h5xx_hal_dma.c **** 
1199:Drivers/STM32H5xx_HAL_Driver/Src/stm32h5xx_hal_dma.c **** /**
1200:Drivers/STM32H5xx_HAL_Driver/Src/stm32h5xx_hal_dma.c ****   * @brief  Unregister callback according to specified ID.
1201:Drivers/STM32H5xx_HAL_Driver/Src/stm32h5xx_hal_dma.c ****   * @note   The HAL_DMA_UnRegisterCallback() may be called before HAL_DMA_Init() in HAL_DMA_STATE_R
1202:Drivers/STM32H5xx_HAL_Driver/Src/stm32h5xx_hal_dma.c ****   *         to un-register callbacks for HAL_DMA_MSPINIT_CB_ID and HAL_DMA_MSPDEINIT_CB_ID.
1203:Drivers/STM32H5xx_HAL_Driver/Src/stm32h5xx_hal_dma.c ****   * @param  hdma       : Pointer to a DMA_HandleTypeDef structure that contains the configuration i
1204:Drivers/STM32H5xx_HAL_Driver/Src/stm32h5xx_hal_dma.c ****   *                      specified DMA Channel.
1205:Drivers/STM32H5xx_HAL_Driver/Src/stm32h5xx_hal_dma.c ****   * @param  CallbackID : User Callback identifier which could be a value of HAL_DMA_CallbackIDTypeD
1206:Drivers/STM32H5xx_HAL_Driver/Src/stm32h5xx_hal_dma.c ****   * @retval HAL status.
1207:Drivers/STM32H5xx_HAL_Driver/Src/stm32h5xx_hal_dma.c ****   */
1208:Drivers/STM32H5xx_HAL_Driver/Src/stm32h5xx_hal_dma.c **** HAL_StatusTypeDef HAL_DMA_UnRegisterCallback(DMA_HandleTypeDef *const hdma,
1209:Drivers/STM32H5xx_HAL_Driver/Src/stm32h5xx_hal_dma.c ****                                              HAL_DMA_CallbackIDTypeDef CallbackID)
1210:Drivers/STM32H5xx_HAL_Driver/Src/stm32h5xx_hal_dma.c **** {
1211:Drivers/STM32H5xx_HAL_Driver/Src/stm32h5xx_hal_dma.c ****   HAL_StatusTypeDef status = HAL_OK;
1212:Drivers/STM32H5xx_HAL_Driver/Src/stm32h5xx_hal_dma.c **** 
1213:Drivers/STM32H5xx_HAL_Driver/Src/stm32h5xx_hal_dma.c ****   /* Check the DMA peripheral handle parameter */
1214:Drivers/STM32H5xx_HAL_Driver/Src/stm32h5xx_hal_dma.c ****   if (hdma == NULL)
1215:Drivers/STM32H5xx_HAL_Driver/Src/stm32h5xx_hal_dma.c ****   {
1216:Drivers/STM32H5xx_HAL_Driver/Src/stm32h5xx_hal_dma.c ****     return HAL_ERROR;
1217:Drivers/STM32H5xx_HAL_Driver/Src/stm32h5xx_hal_dma.c ****   }
1218:Drivers/STM32H5xx_HAL_Driver/Src/stm32h5xx_hal_dma.c **** 
1219:Drivers/STM32H5xx_HAL_Driver/Src/stm32h5xx_hal_dma.c ****   /* Check DMA channel state */
1220:Drivers/STM32H5xx_HAL_Driver/Src/stm32h5xx_hal_dma.c ****   if (hdma->State == HAL_DMA_STATE_READY)
1221:Drivers/STM32H5xx_HAL_Driver/Src/stm32h5xx_hal_dma.c ****   {
1222:Drivers/STM32H5xx_HAL_Driver/Src/stm32h5xx_hal_dma.c ****     /* Check callback ID */
1223:Drivers/STM32H5xx_HAL_Driver/Src/stm32h5xx_hal_dma.c ****     switch (CallbackID)
1224:Drivers/STM32H5xx_HAL_Driver/Src/stm32h5xx_hal_dma.c ****     {
1225:Drivers/STM32H5xx_HAL_Driver/Src/stm32h5xx_hal_dma.c ****       case HAL_DMA_XFER_CPLT_CB_ID:
1226:Drivers/STM32H5xx_HAL_Driver/Src/stm32h5xx_hal_dma.c ****       {
ARM GAS  C:\Users\sapph\AppData\Local\Temp\ccTfCvBa.s 			page 23


1227:Drivers/STM32H5xx_HAL_Driver/Src/stm32h5xx_hal_dma.c ****         /* UnRegister transfer complete callback */
1228:Drivers/STM32H5xx_HAL_Driver/Src/stm32h5xx_hal_dma.c ****         hdma->XferCpltCallback = NULL;
1229:Drivers/STM32H5xx_HAL_Driver/Src/stm32h5xx_hal_dma.c ****         break;
1230:Drivers/STM32H5xx_HAL_Driver/Src/stm32h5xx_hal_dma.c ****       }
1231:Drivers/STM32H5xx_HAL_Driver/Src/stm32h5xx_hal_dma.c **** 
1232:Drivers/STM32H5xx_HAL_Driver/Src/stm32h5xx_hal_dma.c ****       case HAL_DMA_XFER_HALFCPLT_CB_ID:
1233:Drivers/STM32H5xx_HAL_Driver/Src/stm32h5xx_hal_dma.c ****       {
1234:Drivers/STM32H5xx_HAL_Driver/Src/stm32h5xx_hal_dma.c ****         /* UnRegister half transfer callback */
1235:Drivers/STM32H5xx_HAL_Driver/Src/stm32h5xx_hal_dma.c ****         hdma->XferHalfCpltCallback = NULL;
1236:Drivers/STM32H5xx_HAL_Driver/Src/stm32h5xx_hal_dma.c ****         break;
1237:Drivers/STM32H5xx_HAL_Driver/Src/stm32h5xx_hal_dma.c ****       }
1238:Drivers/STM32H5xx_HAL_Driver/Src/stm32h5xx_hal_dma.c **** 
1239:Drivers/STM32H5xx_HAL_Driver/Src/stm32h5xx_hal_dma.c ****       case HAL_DMA_XFER_ERROR_CB_ID:
1240:Drivers/STM32H5xx_HAL_Driver/Src/stm32h5xx_hal_dma.c ****       {
1241:Drivers/STM32H5xx_HAL_Driver/Src/stm32h5xx_hal_dma.c ****         /* UnRegister transfer error callback */
1242:Drivers/STM32H5xx_HAL_Driver/Src/stm32h5xx_hal_dma.c ****         hdma->XferErrorCallback = NULL;
1243:Drivers/STM32H5xx_HAL_Driver/Src/stm32h5xx_hal_dma.c ****         break;
1244:Drivers/STM32H5xx_HAL_Driver/Src/stm32h5xx_hal_dma.c ****       }
1245:Drivers/STM32H5xx_HAL_Driver/Src/stm32h5xx_hal_dma.c **** 
1246:Drivers/STM32H5xx_HAL_Driver/Src/stm32h5xx_hal_dma.c ****       case HAL_DMA_XFER_ABORT_CB_ID:
1247:Drivers/STM32H5xx_HAL_Driver/Src/stm32h5xx_hal_dma.c ****       {
1248:Drivers/STM32H5xx_HAL_Driver/Src/stm32h5xx_hal_dma.c ****         /* UnRegister abort callback */
1249:Drivers/STM32H5xx_HAL_Driver/Src/stm32h5xx_hal_dma.c ****         hdma->XferAbortCallback = NULL;
1250:Drivers/STM32H5xx_HAL_Driver/Src/stm32h5xx_hal_dma.c ****         break;
1251:Drivers/STM32H5xx_HAL_Driver/Src/stm32h5xx_hal_dma.c ****       }
1252:Drivers/STM32H5xx_HAL_Driver/Src/stm32h5xx_hal_dma.c **** 
1253:Drivers/STM32H5xx_HAL_Driver/Src/stm32h5xx_hal_dma.c ****       case HAL_DMA_XFER_SUSPEND_CB_ID:
1254:Drivers/STM32H5xx_HAL_Driver/Src/stm32h5xx_hal_dma.c ****       {
1255:Drivers/STM32H5xx_HAL_Driver/Src/stm32h5xx_hal_dma.c ****         /* UnRegister suspend callback */
1256:Drivers/STM32H5xx_HAL_Driver/Src/stm32h5xx_hal_dma.c ****         hdma->XferSuspendCallback = NULL;
1257:Drivers/STM32H5xx_HAL_Driver/Src/stm32h5xx_hal_dma.c ****         break;
1258:Drivers/STM32H5xx_HAL_Driver/Src/stm32h5xx_hal_dma.c ****       }
1259:Drivers/STM32H5xx_HAL_Driver/Src/stm32h5xx_hal_dma.c **** 
1260:Drivers/STM32H5xx_HAL_Driver/Src/stm32h5xx_hal_dma.c ****       case HAL_DMA_XFER_ALL_CB_ID:
1261:Drivers/STM32H5xx_HAL_Driver/Src/stm32h5xx_hal_dma.c ****       {
1262:Drivers/STM32H5xx_HAL_Driver/Src/stm32h5xx_hal_dma.c ****         /* UnRegister all available callbacks */
1263:Drivers/STM32H5xx_HAL_Driver/Src/stm32h5xx_hal_dma.c ****         hdma->XferCpltCallback     = NULL;
1264:Drivers/STM32H5xx_HAL_Driver/Src/stm32h5xx_hal_dma.c ****         hdma->XferHalfCpltCallback = NULL;
1265:Drivers/STM32H5xx_HAL_Driver/Src/stm32h5xx_hal_dma.c ****         hdma->XferErrorCallback    = NULL;
1266:Drivers/STM32H5xx_HAL_Driver/Src/stm32h5xx_hal_dma.c ****         hdma->XferAbortCallback    = NULL;
1267:Drivers/STM32H5xx_HAL_Driver/Src/stm32h5xx_hal_dma.c ****         hdma->XferSuspendCallback  = NULL;
1268:Drivers/STM32H5xx_HAL_Driver/Src/stm32h5xx_hal_dma.c ****         break;
1269:Drivers/STM32H5xx_HAL_Driver/Src/stm32h5xx_hal_dma.c ****       }
1270:Drivers/STM32H5xx_HAL_Driver/Src/stm32h5xx_hal_dma.c **** 
1271:Drivers/STM32H5xx_HAL_Driver/Src/stm32h5xx_hal_dma.c ****       default:
1272:Drivers/STM32H5xx_HAL_Driver/Src/stm32h5xx_hal_dma.c ****       {
1273:Drivers/STM32H5xx_HAL_Driver/Src/stm32h5xx_hal_dma.c ****         /* Update error status */
1274:Drivers/STM32H5xx_HAL_Driver/Src/stm32h5xx_hal_dma.c ****         status = HAL_ERROR;
1275:Drivers/STM32H5xx_HAL_Driver/Src/stm32h5xx_hal_dma.c ****         break;
1276:Drivers/STM32H5xx_HAL_Driver/Src/stm32h5xx_hal_dma.c ****       }
1277:Drivers/STM32H5xx_HAL_Driver/Src/stm32h5xx_hal_dma.c ****     }
1278:Drivers/STM32H5xx_HAL_Driver/Src/stm32h5xx_hal_dma.c ****   }
1279:Drivers/STM32H5xx_HAL_Driver/Src/stm32h5xx_hal_dma.c ****   else
1280:Drivers/STM32H5xx_HAL_Driver/Src/stm32h5xx_hal_dma.c ****   {
1281:Drivers/STM32H5xx_HAL_Driver/Src/stm32h5xx_hal_dma.c ****     /* Update error status */
1282:Drivers/STM32H5xx_HAL_Driver/Src/stm32h5xx_hal_dma.c ****     status = HAL_ERROR;
1283:Drivers/STM32H5xx_HAL_Driver/Src/stm32h5xx_hal_dma.c ****   }
ARM GAS  C:\Users\sapph\AppData\Local\Temp\ccTfCvBa.s 			page 24


1284:Drivers/STM32H5xx_HAL_Driver/Src/stm32h5xx_hal_dma.c **** 
1285:Drivers/STM32H5xx_HAL_Driver/Src/stm32h5xx_hal_dma.c ****   return status;
1286:Drivers/STM32H5xx_HAL_Driver/Src/stm32h5xx_hal_dma.c **** }
1287:Drivers/STM32H5xx_HAL_Driver/Src/stm32h5xx_hal_dma.c **** /**
1288:Drivers/STM32H5xx_HAL_Driver/Src/stm32h5xx_hal_dma.c ****   * @}
1289:Drivers/STM32H5xx_HAL_Driver/Src/stm32h5xx_hal_dma.c ****   */
1290:Drivers/STM32H5xx_HAL_Driver/Src/stm32h5xx_hal_dma.c **** 
1291:Drivers/STM32H5xx_HAL_Driver/Src/stm32h5xx_hal_dma.c **** /** @addtogroup DMA_Exported_Functions_Group3
1292:Drivers/STM32H5xx_HAL_Driver/Src/stm32h5xx_hal_dma.c ****   *
1293:Drivers/STM32H5xx_HAL_Driver/Src/stm32h5xx_hal_dma.c **** @verbatim
1294:Drivers/STM32H5xx_HAL_Driver/Src/stm32h5xx_hal_dma.c ****   =================================================================================================
1295:Drivers/STM32H5xx_HAL_Driver/Src/stm32h5xx_hal_dma.c ****                               ##### State and Errors functions #####
1296:Drivers/STM32H5xx_HAL_Driver/Src/stm32h5xx_hal_dma.c ****   =================================================================================================
1297:Drivers/STM32H5xx_HAL_Driver/Src/stm32h5xx_hal_dma.c ****     [..]
1298:Drivers/STM32H5xx_HAL_Driver/Src/stm32h5xx_hal_dma.c ****       This section provides functions allowing to :
1299:Drivers/STM32H5xx_HAL_Driver/Src/stm32h5xx_hal_dma.c ****       (+) Check the DMA state
1300:Drivers/STM32H5xx_HAL_Driver/Src/stm32h5xx_hal_dma.c ****       (+) Get error code
1301:Drivers/STM32H5xx_HAL_Driver/Src/stm32h5xx_hal_dma.c **** 
1302:Drivers/STM32H5xx_HAL_Driver/Src/stm32h5xx_hal_dma.c ****     [..]
1303:Drivers/STM32H5xx_HAL_Driver/Src/stm32h5xx_hal_dma.c ****       (+) The HAL_DMA_GetState() function allows to get the DMA channel state.
1304:Drivers/STM32H5xx_HAL_Driver/Src/stm32h5xx_hal_dma.c ****       (+) The HAL_DMA_DeInit() function allows to get the DMA channel error code.
1305:Drivers/STM32H5xx_HAL_Driver/Src/stm32h5xx_hal_dma.c **** 
1306:Drivers/STM32H5xx_HAL_Driver/Src/stm32h5xx_hal_dma.c **** @endverbatim
1307:Drivers/STM32H5xx_HAL_Driver/Src/stm32h5xx_hal_dma.c ****   * @{
1308:Drivers/STM32H5xx_HAL_Driver/Src/stm32h5xx_hal_dma.c ****   */
1309:Drivers/STM32H5xx_HAL_Driver/Src/stm32h5xx_hal_dma.c **** 
1310:Drivers/STM32H5xx_HAL_Driver/Src/stm32h5xx_hal_dma.c **** /**
1311:Drivers/STM32H5xx_HAL_Driver/Src/stm32h5xx_hal_dma.c ****   * @brief  Returns the DMA channel state.
1312:Drivers/STM32H5xx_HAL_Driver/Src/stm32h5xx_hal_dma.c ****   * @param  hdma : Pointer to a DMA_HandleTypeDef structure that contains the configuration informa
1313:Drivers/STM32H5xx_HAL_Driver/Src/stm32h5xx_hal_dma.c ****   *                specified DMA Channel.
1314:Drivers/STM32H5xx_HAL_Driver/Src/stm32h5xx_hal_dma.c ****   * @retval DMA state.
1315:Drivers/STM32H5xx_HAL_Driver/Src/stm32h5xx_hal_dma.c ****   */
1316:Drivers/STM32H5xx_HAL_Driver/Src/stm32h5xx_hal_dma.c **** HAL_DMA_StateTypeDef HAL_DMA_GetState(DMA_HandleTypeDef const *const hdma)
1317:Drivers/STM32H5xx_HAL_Driver/Src/stm32h5xx_hal_dma.c **** {
1318:Drivers/STM32H5xx_HAL_Driver/Src/stm32h5xx_hal_dma.c ****   /* Return the DMA channel state */
1319:Drivers/STM32H5xx_HAL_Driver/Src/stm32h5xx_hal_dma.c ****   return hdma->State;
1320:Drivers/STM32H5xx_HAL_Driver/Src/stm32h5xx_hal_dma.c **** }
1321:Drivers/STM32H5xx_HAL_Driver/Src/stm32h5xx_hal_dma.c **** 
1322:Drivers/STM32H5xx_HAL_Driver/Src/stm32h5xx_hal_dma.c **** /**
1323:Drivers/STM32H5xx_HAL_Driver/Src/stm32h5xx_hal_dma.c ****   * @brief  Return the DMA channel error code.
1324:Drivers/STM32H5xx_HAL_Driver/Src/stm32h5xx_hal_dma.c ****   * @param  hdma : Pointer to a DMA_HandleTypeDef structure that contains the configuration informa
1325:Drivers/STM32H5xx_HAL_Driver/Src/stm32h5xx_hal_dma.c ****   *                specified DMA Channel.
1326:Drivers/STM32H5xx_HAL_Driver/Src/stm32h5xx_hal_dma.c ****   * @retval DMA Error Code.
1327:Drivers/STM32H5xx_HAL_Driver/Src/stm32h5xx_hal_dma.c ****   */
1328:Drivers/STM32H5xx_HAL_Driver/Src/stm32h5xx_hal_dma.c **** uint32_t HAL_DMA_GetError(DMA_HandleTypeDef const *const hdma)
1329:Drivers/STM32H5xx_HAL_Driver/Src/stm32h5xx_hal_dma.c **** {
1330:Drivers/STM32H5xx_HAL_Driver/Src/stm32h5xx_hal_dma.c ****   /* Return the DMA channel error code */
1331:Drivers/STM32H5xx_HAL_Driver/Src/stm32h5xx_hal_dma.c ****   return hdma->ErrorCode;
1332:Drivers/STM32H5xx_HAL_Driver/Src/stm32h5xx_hal_dma.c **** }
1333:Drivers/STM32H5xx_HAL_Driver/Src/stm32h5xx_hal_dma.c **** /**
1334:Drivers/STM32H5xx_HAL_Driver/Src/stm32h5xx_hal_dma.c ****   * @}
1335:Drivers/STM32H5xx_HAL_Driver/Src/stm32h5xx_hal_dma.c ****   */
1336:Drivers/STM32H5xx_HAL_Driver/Src/stm32h5xx_hal_dma.c **** 
1337:Drivers/STM32H5xx_HAL_Driver/Src/stm32h5xx_hal_dma.c **** /** @addtogroup DMA_Exported_Functions_Group4
1338:Drivers/STM32H5xx_HAL_Driver/Src/stm32h5xx_hal_dma.c ****   *
1339:Drivers/STM32H5xx_HAL_Driver/Src/stm32h5xx_hal_dma.c **** @verbatim
1340:Drivers/STM32H5xx_HAL_Driver/Src/stm32h5xx_hal_dma.c ****   =================================================================================================
ARM GAS  C:\Users\sapph\AppData\Local\Temp\ccTfCvBa.s 			page 25


1341:Drivers/STM32H5xx_HAL_Driver/Src/stm32h5xx_hal_dma.c ****                            ##### DMA Attributes functions #####
1342:Drivers/STM32H5xx_HAL_Driver/Src/stm32h5xx_hal_dma.c ****   =================================================================================================
1343:Drivers/STM32H5xx_HAL_Driver/Src/stm32h5xx_hal_dma.c ****     [..]
1344:Drivers/STM32H5xx_HAL_Driver/Src/stm32h5xx_hal_dma.c ****       This section provides functions allowing to :
1345:Drivers/STM32H5xx_HAL_Driver/Src/stm32h5xx_hal_dma.c ****       (+) Configure DMA channel secure and privilege attributes.
1346:Drivers/STM32H5xx_HAL_Driver/Src/stm32h5xx_hal_dma.c ****       (+) Get DMA channel secure and privilege attributes.
1347:Drivers/STM32H5xx_HAL_Driver/Src/stm32h5xx_hal_dma.c ****       (+) Lock DMA channel secure and privilege attributes configuration.
1348:Drivers/STM32H5xx_HAL_Driver/Src/stm32h5xx_hal_dma.c ****       (+) Check whether DMA channel secure and privilege attributes configuration is locked or not.
1349:Drivers/STM32H5xx_HAL_Driver/Src/stm32h5xx_hal_dma.c **** 
1350:Drivers/STM32H5xx_HAL_Driver/Src/stm32h5xx_hal_dma.c ****     [..]
1351:Drivers/STM32H5xx_HAL_Driver/Src/stm32h5xx_hal_dma.c ****       (+) The HAL_DMA_ConfigChannelAttributes() function allows to configure DMA channel security a
1352:Drivers/STM32H5xx_HAL_Driver/Src/stm32h5xx_hal_dma.c ****           attributes.
1353:Drivers/STM32H5xx_HAL_Driver/Src/stm32h5xx_hal_dma.c ****       (+) The HAL_DMA_GetConfigChannelAttributes() function allows to get DMA channel security and 
1354:Drivers/STM32H5xx_HAL_Driver/Src/stm32h5xx_hal_dma.c ****           configuration.
1355:Drivers/STM32H5xx_HAL_Driver/Src/stm32h5xx_hal_dma.c ****       (+) The HAL_DMA_LockChannelAttributes() function allows to lock the DMA channel security and 
1356:Drivers/STM32H5xx_HAL_Driver/Src/stm32h5xx_hal_dma.c ****       (+) The HAL_DMA_GetLockChannelAttributes() function allows to get the DMA channel security an
1357:Drivers/STM32H5xx_HAL_Driver/Src/stm32h5xx_hal_dma.c ****           attributes lock status.
1358:Drivers/STM32H5xx_HAL_Driver/Src/stm32h5xx_hal_dma.c **** 
1359:Drivers/STM32H5xx_HAL_Driver/Src/stm32h5xx_hal_dma.c **** @endverbatim
1360:Drivers/STM32H5xx_HAL_Driver/Src/stm32h5xx_hal_dma.c ****   * @{
1361:Drivers/STM32H5xx_HAL_Driver/Src/stm32h5xx_hal_dma.c ****   */
1362:Drivers/STM32H5xx_HAL_Driver/Src/stm32h5xx_hal_dma.c **** 
1363:Drivers/STM32H5xx_HAL_Driver/Src/stm32h5xx_hal_dma.c **** /**
1364:Drivers/STM32H5xx_HAL_Driver/Src/stm32h5xx_hal_dma.c ****   * @brief  Configure the DMA channel security and privilege attribute(s).
1365:Drivers/STM32H5xx_HAL_Driver/Src/stm32h5xx_hal_dma.c ****   * @note   These attributes cannot be modified when the corresponding lock state is enabled.
1366:Drivers/STM32H5xx_HAL_Driver/Src/stm32h5xx_hal_dma.c ****   * @param  hdma              : Pointer to a DMA_HandleTypeDef structure that contains the configur
1367:Drivers/STM32H5xx_HAL_Driver/Src/stm32h5xx_hal_dma.c ****   *                             the specified DMA Channel.
1368:Drivers/STM32H5xx_HAL_Driver/Src/stm32h5xx_hal_dma.c ****   * @param  ChannelAttributes : Specifies the DMA channel secure/privilege attributes.
1369:Drivers/STM32H5xx_HAL_Driver/Src/stm32h5xx_hal_dma.c ****   *                             This parameter can be a one or a combination of @ref DMA_Channel_At
1370:Drivers/STM32H5xx_HAL_Driver/Src/stm32h5xx_hal_dma.c ****   * @retval HAL Status.
1371:Drivers/STM32H5xx_HAL_Driver/Src/stm32h5xx_hal_dma.c ****   */
1372:Drivers/STM32H5xx_HAL_Driver/Src/stm32h5xx_hal_dma.c **** HAL_StatusTypeDef HAL_DMA_ConfigChannelAttributes(DMA_HandleTypeDef *const hdma, uint32_t ChannelAt
1373:Drivers/STM32H5xx_HAL_Driver/Src/stm32h5xx_hal_dma.c **** {
1374:Drivers/STM32H5xx_HAL_Driver/Src/stm32h5xx_hal_dma.c ****   DMA_TypeDef *p_dma_instance;
1375:Drivers/STM32H5xx_HAL_Driver/Src/stm32h5xx_hal_dma.c ****   uint32_t channel_idx;
1376:Drivers/STM32H5xx_HAL_Driver/Src/stm32h5xx_hal_dma.c **** 
1377:Drivers/STM32H5xx_HAL_Driver/Src/stm32h5xx_hal_dma.c ****   /* Check the DMA peripheral handle parameter */
1378:Drivers/STM32H5xx_HAL_Driver/Src/stm32h5xx_hal_dma.c ****   if (hdma == NULL)
1379:Drivers/STM32H5xx_HAL_Driver/Src/stm32h5xx_hal_dma.c ****   {
1380:Drivers/STM32H5xx_HAL_Driver/Src/stm32h5xx_hal_dma.c ****     return HAL_ERROR;
1381:Drivers/STM32H5xx_HAL_Driver/Src/stm32h5xx_hal_dma.c ****   }
1382:Drivers/STM32H5xx_HAL_Driver/Src/stm32h5xx_hal_dma.c **** 
1383:Drivers/STM32H5xx_HAL_Driver/Src/stm32h5xx_hal_dma.c ****   /* Check the parameters */
1384:Drivers/STM32H5xx_HAL_Driver/Src/stm32h5xx_hal_dma.c ****   assert_param(IS_DMA_ATTRIBUTES(ChannelAttributes));
1385:Drivers/STM32H5xx_HAL_Driver/Src/stm32h5xx_hal_dma.c **** 
1386:Drivers/STM32H5xx_HAL_Driver/Src/stm32h5xx_hal_dma.c ****   /* Get DMA instance */
1387:Drivers/STM32H5xx_HAL_Driver/Src/stm32h5xx_hal_dma.c ****   p_dma_instance = GET_DMA_INSTANCE(hdma);
1388:Drivers/STM32H5xx_HAL_Driver/Src/stm32h5xx_hal_dma.c **** 
1389:Drivers/STM32H5xx_HAL_Driver/Src/stm32h5xx_hal_dma.c ****   /* Get channel index */
1390:Drivers/STM32H5xx_HAL_Driver/Src/stm32h5xx_hal_dma.c ****   channel_idx = 1UL << (GET_DMA_CHANNEL(hdma) & 0x1FU);
1391:Drivers/STM32H5xx_HAL_Driver/Src/stm32h5xx_hal_dma.c **** 
1392:Drivers/STM32H5xx_HAL_Driver/Src/stm32h5xx_hal_dma.c ****   /* Check DMA channel privilege attribute management */
1393:Drivers/STM32H5xx_HAL_Driver/Src/stm32h5xx_hal_dma.c ****   if ((ChannelAttributes & DMA_CHANNEL_ATTR_PRIV_MASK) == DMA_CHANNEL_ATTR_PRIV_MASK)
1394:Drivers/STM32H5xx_HAL_Driver/Src/stm32h5xx_hal_dma.c ****   {
1395:Drivers/STM32H5xx_HAL_Driver/Src/stm32h5xx_hal_dma.c ****     /* Configure DMA channel privilege attribute */
1396:Drivers/STM32H5xx_HAL_Driver/Src/stm32h5xx_hal_dma.c ****     if ((ChannelAttributes & DMA_CHANNEL_PRIV) == DMA_CHANNEL_PRIV)
1397:Drivers/STM32H5xx_HAL_Driver/Src/stm32h5xx_hal_dma.c ****     {
ARM GAS  C:\Users\sapph\AppData\Local\Temp\ccTfCvBa.s 			page 26


1398:Drivers/STM32H5xx_HAL_Driver/Src/stm32h5xx_hal_dma.c ****       p_dma_instance->PRIVCFGR |= channel_idx;
1399:Drivers/STM32H5xx_HAL_Driver/Src/stm32h5xx_hal_dma.c ****     }
1400:Drivers/STM32H5xx_HAL_Driver/Src/stm32h5xx_hal_dma.c ****     else
1401:Drivers/STM32H5xx_HAL_Driver/Src/stm32h5xx_hal_dma.c ****     {
1402:Drivers/STM32H5xx_HAL_Driver/Src/stm32h5xx_hal_dma.c ****       p_dma_instance->PRIVCFGR &= (~channel_idx);
1403:Drivers/STM32H5xx_HAL_Driver/Src/stm32h5xx_hal_dma.c ****     }
1404:Drivers/STM32H5xx_HAL_Driver/Src/stm32h5xx_hal_dma.c ****   }
1405:Drivers/STM32H5xx_HAL_Driver/Src/stm32h5xx_hal_dma.c **** 
1406:Drivers/STM32H5xx_HAL_Driver/Src/stm32h5xx_hal_dma.c **** #if defined (__ARM_FEATURE_CMSE) && (__ARM_FEATURE_CMSE == 3U)
1407:Drivers/STM32H5xx_HAL_Driver/Src/stm32h5xx_hal_dma.c ****   /* Check DMA channel security attribute management */
1408:Drivers/STM32H5xx_HAL_Driver/Src/stm32h5xx_hal_dma.c ****   if ((ChannelAttributes & DMA_CHANNEL_ATTR_SEC_MASK) == DMA_CHANNEL_ATTR_SEC_MASK)
1409:Drivers/STM32H5xx_HAL_Driver/Src/stm32h5xx_hal_dma.c ****   {
1410:Drivers/STM32H5xx_HAL_Driver/Src/stm32h5xx_hal_dma.c ****     /* Configure DMA channel security attribute */
1411:Drivers/STM32H5xx_HAL_Driver/Src/stm32h5xx_hal_dma.c ****     if ((ChannelAttributes & DMA_CHANNEL_SEC) == DMA_CHANNEL_SEC)
1412:Drivers/STM32H5xx_HAL_Driver/Src/stm32h5xx_hal_dma.c ****     {
1413:Drivers/STM32H5xx_HAL_Driver/Src/stm32h5xx_hal_dma.c ****       p_dma_instance->SECCFGR |= channel_idx;
1414:Drivers/STM32H5xx_HAL_Driver/Src/stm32h5xx_hal_dma.c ****     }
1415:Drivers/STM32H5xx_HAL_Driver/Src/stm32h5xx_hal_dma.c ****     else
1416:Drivers/STM32H5xx_HAL_Driver/Src/stm32h5xx_hal_dma.c ****     {
1417:Drivers/STM32H5xx_HAL_Driver/Src/stm32h5xx_hal_dma.c ****       p_dma_instance->SECCFGR &= (~channel_idx);
1418:Drivers/STM32H5xx_HAL_Driver/Src/stm32h5xx_hal_dma.c ****     }
1419:Drivers/STM32H5xx_HAL_Driver/Src/stm32h5xx_hal_dma.c ****   }
1420:Drivers/STM32H5xx_HAL_Driver/Src/stm32h5xx_hal_dma.c **** 
1421:Drivers/STM32H5xx_HAL_Driver/Src/stm32h5xx_hal_dma.c ****   /* Channel source security attribute management */
1422:Drivers/STM32H5xx_HAL_Driver/Src/stm32h5xx_hal_dma.c ****   if ((ChannelAttributes & DMA_CHANNEL_ATTR_SEC_SRC_MASK) == DMA_CHANNEL_ATTR_SEC_SRC_MASK)
1423:Drivers/STM32H5xx_HAL_Driver/Src/stm32h5xx_hal_dma.c ****   {
1424:Drivers/STM32H5xx_HAL_Driver/Src/stm32h5xx_hal_dma.c ****     /* Configure DMA channel source security attribute */
1425:Drivers/STM32H5xx_HAL_Driver/Src/stm32h5xx_hal_dma.c ****     if ((ChannelAttributes & DMA_CHANNEL_SRC_SEC) == DMA_CHANNEL_SRC_SEC)
1426:Drivers/STM32H5xx_HAL_Driver/Src/stm32h5xx_hal_dma.c ****     {
1427:Drivers/STM32H5xx_HAL_Driver/Src/stm32h5xx_hal_dma.c ****       hdma->Instance->CTR1 |= DMA_CTR1_SSEC;
1428:Drivers/STM32H5xx_HAL_Driver/Src/stm32h5xx_hal_dma.c ****     }
1429:Drivers/STM32H5xx_HAL_Driver/Src/stm32h5xx_hal_dma.c ****     else
1430:Drivers/STM32H5xx_HAL_Driver/Src/stm32h5xx_hal_dma.c ****     {
1431:Drivers/STM32H5xx_HAL_Driver/Src/stm32h5xx_hal_dma.c ****       hdma->Instance->CTR1 &= (~DMA_CTR1_SSEC);
1432:Drivers/STM32H5xx_HAL_Driver/Src/stm32h5xx_hal_dma.c ****     }
1433:Drivers/STM32H5xx_HAL_Driver/Src/stm32h5xx_hal_dma.c ****   }
1434:Drivers/STM32H5xx_HAL_Driver/Src/stm32h5xx_hal_dma.c **** 
1435:Drivers/STM32H5xx_HAL_Driver/Src/stm32h5xx_hal_dma.c ****   /* Channel destination security attribute management */
1436:Drivers/STM32H5xx_HAL_Driver/Src/stm32h5xx_hal_dma.c ****   if ((ChannelAttributes & DMA_CHANNEL_ATTR_SEC_DEST_MASK) == DMA_CHANNEL_ATTR_SEC_DEST_MASK)
1437:Drivers/STM32H5xx_HAL_Driver/Src/stm32h5xx_hal_dma.c ****   {
1438:Drivers/STM32H5xx_HAL_Driver/Src/stm32h5xx_hal_dma.c ****     /* Configure DMA channel destination security attribute */
1439:Drivers/STM32H5xx_HAL_Driver/Src/stm32h5xx_hal_dma.c ****     if ((ChannelAttributes & DMA_CHANNEL_DEST_SEC) == DMA_CHANNEL_DEST_SEC)
1440:Drivers/STM32H5xx_HAL_Driver/Src/stm32h5xx_hal_dma.c ****     {
1441:Drivers/STM32H5xx_HAL_Driver/Src/stm32h5xx_hal_dma.c ****       hdma->Instance->CTR1 |= DMA_CTR1_DSEC;
1442:Drivers/STM32H5xx_HAL_Driver/Src/stm32h5xx_hal_dma.c ****     }
1443:Drivers/STM32H5xx_HAL_Driver/Src/stm32h5xx_hal_dma.c ****     else
1444:Drivers/STM32H5xx_HAL_Driver/Src/stm32h5xx_hal_dma.c ****     {
1445:Drivers/STM32H5xx_HAL_Driver/Src/stm32h5xx_hal_dma.c ****       hdma->Instance->CTR1 &= (~DMA_CTR1_DSEC);
1446:Drivers/STM32H5xx_HAL_Driver/Src/stm32h5xx_hal_dma.c ****     }
1447:Drivers/STM32H5xx_HAL_Driver/Src/stm32h5xx_hal_dma.c ****   }
1448:Drivers/STM32H5xx_HAL_Driver/Src/stm32h5xx_hal_dma.c **** #endif /* (__ARM_FEATURE_CMSE) && (__ARM_FEATURE_CMSE == 3U) */
1449:Drivers/STM32H5xx_HAL_Driver/Src/stm32h5xx_hal_dma.c **** 
1450:Drivers/STM32H5xx_HAL_Driver/Src/stm32h5xx_hal_dma.c ****   return HAL_OK;
1451:Drivers/STM32H5xx_HAL_Driver/Src/stm32h5xx_hal_dma.c **** }
1452:Drivers/STM32H5xx_HAL_Driver/Src/stm32h5xx_hal_dma.c **** 
1453:Drivers/STM32H5xx_HAL_Driver/Src/stm32h5xx_hal_dma.c **** /**
1454:Drivers/STM32H5xx_HAL_Driver/Src/stm32h5xx_hal_dma.c ****   * @brief  Get the DMA channel security and privilege attributes.
ARM GAS  C:\Users\sapph\AppData\Local\Temp\ccTfCvBa.s 			page 27


1455:Drivers/STM32H5xx_HAL_Driver/Src/stm32h5xx_hal_dma.c ****   * @param  hdma               : Pointer to a DMA_HandleTypeDef structure that contains the configu
1456:Drivers/STM32H5xx_HAL_Driver/Src/stm32h5xx_hal_dma.c ****   *                              for the specified DMA Channel.
1457:Drivers/STM32H5xx_HAL_Driver/Src/stm32h5xx_hal_dma.c ****   * @param  pChannelAttributes : Pointer to the returned attributes.
1458:Drivers/STM32H5xx_HAL_Driver/Src/stm32h5xx_hal_dma.c ****   * @retval HAL Status.
1459:Drivers/STM32H5xx_HAL_Driver/Src/stm32h5xx_hal_dma.c ****   */
1460:Drivers/STM32H5xx_HAL_Driver/Src/stm32h5xx_hal_dma.c **** HAL_StatusTypeDef HAL_DMA_GetConfigChannelAttributes(DMA_HandleTypeDef const *const hdma,
1461:Drivers/STM32H5xx_HAL_Driver/Src/stm32h5xx_hal_dma.c ****                                                      uint32_t *const pChannelAttributes)
1462:Drivers/STM32H5xx_HAL_Driver/Src/stm32h5xx_hal_dma.c **** {
1463:Drivers/STM32H5xx_HAL_Driver/Src/stm32h5xx_hal_dma.c ****   const DMA_TypeDef *p_dma_instance;
1464:Drivers/STM32H5xx_HAL_Driver/Src/stm32h5xx_hal_dma.c ****   uint32_t attributes;
1465:Drivers/STM32H5xx_HAL_Driver/Src/stm32h5xx_hal_dma.c ****   uint32_t channel_idx;
1466:Drivers/STM32H5xx_HAL_Driver/Src/stm32h5xx_hal_dma.c **** 
1467:Drivers/STM32H5xx_HAL_Driver/Src/stm32h5xx_hal_dma.c ****   /* Check the DMA peripheral handle and channel attributes parameters */
1468:Drivers/STM32H5xx_HAL_Driver/Src/stm32h5xx_hal_dma.c ****   if ((hdma == NULL) || (pChannelAttributes == NULL))
1469:Drivers/STM32H5xx_HAL_Driver/Src/stm32h5xx_hal_dma.c ****   {
1470:Drivers/STM32H5xx_HAL_Driver/Src/stm32h5xx_hal_dma.c ****     return HAL_ERROR;
1471:Drivers/STM32H5xx_HAL_Driver/Src/stm32h5xx_hal_dma.c ****   }
1472:Drivers/STM32H5xx_HAL_Driver/Src/stm32h5xx_hal_dma.c **** 
1473:Drivers/STM32H5xx_HAL_Driver/Src/stm32h5xx_hal_dma.c ****   /* Get DMA instance */
1474:Drivers/STM32H5xx_HAL_Driver/Src/stm32h5xx_hal_dma.c ****   p_dma_instance = GET_DMA_INSTANCE(hdma);
1475:Drivers/STM32H5xx_HAL_Driver/Src/stm32h5xx_hal_dma.c **** 
1476:Drivers/STM32H5xx_HAL_Driver/Src/stm32h5xx_hal_dma.c ****   /* Get channel index */
1477:Drivers/STM32H5xx_HAL_Driver/Src/stm32h5xx_hal_dma.c ****   channel_idx = 1UL << (GET_DMA_CHANNEL(hdma) & 0x1FU);
1478:Drivers/STM32H5xx_HAL_Driver/Src/stm32h5xx_hal_dma.c **** 
1479:Drivers/STM32H5xx_HAL_Driver/Src/stm32h5xx_hal_dma.c ****   /* Get DMA channel privilege attribute */
1480:Drivers/STM32H5xx_HAL_Driver/Src/stm32h5xx_hal_dma.c ****   attributes = ((p_dma_instance->PRIVCFGR & channel_idx) == 0U) ? DMA_CHANNEL_NPRIV : DMA_CHANNEL_P
1481:Drivers/STM32H5xx_HAL_Driver/Src/stm32h5xx_hal_dma.c **** 
1482:Drivers/STM32H5xx_HAL_Driver/Src/stm32h5xx_hal_dma.c **** #if defined (DMA_SECCFGR_SEC0)
1483:Drivers/STM32H5xx_HAL_Driver/Src/stm32h5xx_hal_dma.c ****   /* Get DMA channel security attribute */
1484:Drivers/STM32H5xx_HAL_Driver/Src/stm32h5xx_hal_dma.c ****   attributes |= ((p_dma_instance->SECCFGR & channel_idx) == 0U) ? DMA_CHANNEL_NSEC : DMA_CHANNEL_SE
1485:Drivers/STM32H5xx_HAL_Driver/Src/stm32h5xx_hal_dma.c **** 
1486:Drivers/STM32H5xx_HAL_Driver/Src/stm32h5xx_hal_dma.c ****   /* Get DMA channel source security attribute */
1487:Drivers/STM32H5xx_HAL_Driver/Src/stm32h5xx_hal_dma.c ****   attributes |= ((hdma->Instance->CTR1 & DMA_CTR1_SSEC) == 0U) ? DMA_CHANNEL_SRC_NSEC : DMA_CHANNEL
1488:Drivers/STM32H5xx_HAL_Driver/Src/stm32h5xx_hal_dma.c **** 
1489:Drivers/STM32H5xx_HAL_Driver/Src/stm32h5xx_hal_dma.c ****   /* Get DMA channel destination security attribute */
1490:Drivers/STM32H5xx_HAL_Driver/Src/stm32h5xx_hal_dma.c ****   attributes |= ((hdma->Instance->CTR1 & DMA_CTR1_DSEC) == 0U) ? DMA_CHANNEL_DEST_NSEC : DMA_CHANNE
1491:Drivers/STM32H5xx_HAL_Driver/Src/stm32h5xx_hal_dma.c **** #endif /* DMA_SECCFGR_SEC0 */
1492:Drivers/STM32H5xx_HAL_Driver/Src/stm32h5xx_hal_dma.c **** 
1493:Drivers/STM32H5xx_HAL_Driver/Src/stm32h5xx_hal_dma.c ****   /* return value */
1494:Drivers/STM32H5xx_HAL_Driver/Src/stm32h5xx_hal_dma.c ****   *pChannelAttributes = attributes;
1495:Drivers/STM32H5xx_HAL_Driver/Src/stm32h5xx_hal_dma.c **** 
1496:Drivers/STM32H5xx_HAL_Driver/Src/stm32h5xx_hal_dma.c ****   return HAL_OK;
1497:Drivers/STM32H5xx_HAL_Driver/Src/stm32h5xx_hal_dma.c **** }
1498:Drivers/STM32H5xx_HAL_Driver/Src/stm32h5xx_hal_dma.c **** 
1499:Drivers/STM32H5xx_HAL_Driver/Src/stm32h5xx_hal_dma.c **** 
1500:Drivers/STM32H5xx_HAL_Driver/Src/stm32h5xx_hal_dma.c **** #if defined (DMA_RCFGLOCKR_LOCK0)
1501:Drivers/STM32H5xx_HAL_Driver/Src/stm32h5xx_hal_dma.c **** #if defined (__ARM_FEATURE_CMSE) && (__ARM_FEATURE_CMSE == 3U)
1502:Drivers/STM32H5xx_HAL_Driver/Src/stm32h5xx_hal_dma.c **** /**
1503:Drivers/STM32H5xx_HAL_Driver/Src/stm32h5xx_hal_dma.c ****   * @brief  Lock the DMA channel security and privilege attribute(s).
1504:Drivers/STM32H5xx_HAL_Driver/Src/stm32h5xx_hal_dma.c ****   * @param  hdma : Pointer to a DMA_HandleTypeDef structure that contains the configuration informa
1505:Drivers/STM32H5xx_HAL_Driver/Src/stm32h5xx_hal_dma.c ****   *                specified DMA Channel.
1506:Drivers/STM32H5xx_HAL_Driver/Src/stm32h5xx_hal_dma.c ****   * @retval HAL Status.
1507:Drivers/STM32H5xx_HAL_Driver/Src/stm32h5xx_hal_dma.c ****   */
1508:Drivers/STM32H5xx_HAL_Driver/Src/stm32h5xx_hal_dma.c **** HAL_StatusTypeDef HAL_DMA_LockChannelAttributes(DMA_HandleTypeDef const *const hdma)
1509:Drivers/STM32H5xx_HAL_Driver/Src/stm32h5xx_hal_dma.c **** {
1510:Drivers/STM32H5xx_HAL_Driver/Src/stm32h5xx_hal_dma.c ****   DMA_TypeDef *p_dma_instance;
1511:Drivers/STM32H5xx_HAL_Driver/Src/stm32h5xx_hal_dma.c ****   uint32_t channel_idx;
ARM GAS  C:\Users\sapph\AppData\Local\Temp\ccTfCvBa.s 			page 28


1512:Drivers/STM32H5xx_HAL_Driver/Src/stm32h5xx_hal_dma.c **** 
1513:Drivers/STM32H5xx_HAL_Driver/Src/stm32h5xx_hal_dma.c ****   /* Check the DMA peripheral handle parameter */
1514:Drivers/STM32H5xx_HAL_Driver/Src/stm32h5xx_hal_dma.c ****   if (hdma == NULL)
1515:Drivers/STM32H5xx_HAL_Driver/Src/stm32h5xx_hal_dma.c ****   {
1516:Drivers/STM32H5xx_HAL_Driver/Src/stm32h5xx_hal_dma.c ****     return HAL_ERROR;
1517:Drivers/STM32H5xx_HAL_Driver/Src/stm32h5xx_hal_dma.c ****   }
1518:Drivers/STM32H5xx_HAL_Driver/Src/stm32h5xx_hal_dma.c **** 
1519:Drivers/STM32H5xx_HAL_Driver/Src/stm32h5xx_hal_dma.c ****   /* Get DMA instance */
1520:Drivers/STM32H5xx_HAL_Driver/Src/stm32h5xx_hal_dma.c ****   p_dma_instance = GET_DMA_INSTANCE(hdma);
1521:Drivers/STM32H5xx_HAL_Driver/Src/stm32h5xx_hal_dma.c **** 
1522:Drivers/STM32H5xx_HAL_Driver/Src/stm32h5xx_hal_dma.c ****   /* Get channel index */
1523:Drivers/STM32H5xx_HAL_Driver/Src/stm32h5xx_hal_dma.c ****   channel_idx = 1UL << (GET_DMA_CHANNEL(hdma) & 0x1FU);
1524:Drivers/STM32H5xx_HAL_Driver/Src/stm32h5xx_hal_dma.c **** 
1525:Drivers/STM32H5xx_HAL_Driver/Src/stm32h5xx_hal_dma.c ****   /* Lock the DMA channel privilege and security attributes */
1526:Drivers/STM32H5xx_HAL_Driver/Src/stm32h5xx_hal_dma.c ****   p_dma_instance->RCFGLOCKR |= channel_idx;
1527:Drivers/STM32H5xx_HAL_Driver/Src/stm32h5xx_hal_dma.c **** 
1528:Drivers/STM32H5xx_HAL_Driver/Src/stm32h5xx_hal_dma.c ****   return HAL_OK;
1529:Drivers/STM32H5xx_HAL_Driver/Src/stm32h5xx_hal_dma.c **** }
1530:Drivers/STM32H5xx_HAL_Driver/Src/stm32h5xx_hal_dma.c **** #endif /* (__ARM_FEATURE_CMSE) && (__ARM_FEATURE_CMSE == 3U) */
1531:Drivers/STM32H5xx_HAL_Driver/Src/stm32h5xx_hal_dma.c **** 
1532:Drivers/STM32H5xx_HAL_Driver/Src/stm32h5xx_hal_dma.c **** /**
1533:Drivers/STM32H5xx_HAL_Driver/Src/stm32h5xx_hal_dma.c ****   * @brief  Get the security and privilege attribute lock state of a DMA channel.
1534:Drivers/STM32H5xx_HAL_Driver/Src/stm32h5xx_hal_dma.c ****   * @param  hdma       : Pointer to a DMA_HandleTypeDef structure that contains the configuration i
1535:Drivers/STM32H5xx_HAL_Driver/Src/stm32h5xx_hal_dma.c ****   *                      specified DMA Channel.
1536:Drivers/STM32H5xx_HAL_Driver/Src/stm32h5xx_hal_dma.c ****   * @param  pLockState : Pointer to lock state (returned value can be DMA_CHANNEL_ATTRIBUTE_UNLOCKE
1537:Drivers/STM32H5xx_HAL_Driver/Src/stm32h5xx_hal_dma.c ****   *                      DMA_CHANNEL_ATTRIBUTE_LOCKED).
1538:Drivers/STM32H5xx_HAL_Driver/Src/stm32h5xx_hal_dma.c ****   * @retval HAL status.
1539:Drivers/STM32H5xx_HAL_Driver/Src/stm32h5xx_hal_dma.c ****   */
1540:Drivers/STM32H5xx_HAL_Driver/Src/stm32h5xx_hal_dma.c **** HAL_StatusTypeDef HAL_DMA_GetLockChannelAttributes(DMA_HandleTypeDef const *const hdma, uint32_t *c
1541:Drivers/STM32H5xx_HAL_Driver/Src/stm32h5xx_hal_dma.c **** {
1542:Drivers/STM32H5xx_HAL_Driver/Src/stm32h5xx_hal_dma.c ****   DMA_TypeDef *p_dma_instance;
1543:Drivers/STM32H5xx_HAL_Driver/Src/stm32h5xx_hal_dma.c ****   uint32_t channel_idx;
1544:Drivers/STM32H5xx_HAL_Driver/Src/stm32h5xx_hal_dma.c **** 
1545:Drivers/STM32H5xx_HAL_Driver/Src/stm32h5xx_hal_dma.c ****   /* Check the DMA peripheral handle and lock state parameters */
1546:Drivers/STM32H5xx_HAL_Driver/Src/stm32h5xx_hal_dma.c ****   if ((hdma == NULL) || (pLockState == NULL))
1547:Drivers/STM32H5xx_HAL_Driver/Src/stm32h5xx_hal_dma.c ****   {
1548:Drivers/STM32H5xx_HAL_Driver/Src/stm32h5xx_hal_dma.c ****     return HAL_ERROR;
1549:Drivers/STM32H5xx_HAL_Driver/Src/stm32h5xx_hal_dma.c ****   }
1550:Drivers/STM32H5xx_HAL_Driver/Src/stm32h5xx_hal_dma.c **** 
1551:Drivers/STM32H5xx_HAL_Driver/Src/stm32h5xx_hal_dma.c ****   /* Get DMA instance */
1552:Drivers/STM32H5xx_HAL_Driver/Src/stm32h5xx_hal_dma.c ****   p_dma_instance = GET_DMA_INSTANCE(hdma);
1553:Drivers/STM32H5xx_HAL_Driver/Src/stm32h5xx_hal_dma.c **** 
1554:Drivers/STM32H5xx_HAL_Driver/Src/stm32h5xx_hal_dma.c ****   /* Get channel index */
1555:Drivers/STM32H5xx_HAL_Driver/Src/stm32h5xx_hal_dma.c ****   channel_idx = 1UL << (GET_DMA_CHANNEL(hdma) & 0x1FU);
1556:Drivers/STM32H5xx_HAL_Driver/Src/stm32h5xx_hal_dma.c **** 
1557:Drivers/STM32H5xx_HAL_Driver/Src/stm32h5xx_hal_dma.c ****   /* Get channel lock attribute state */
1558:Drivers/STM32H5xx_HAL_Driver/Src/stm32h5xx_hal_dma.c ****   *pLockState = ((p_dma_instance->RCFGLOCKR & channel_idx) == 0U) ? DMA_CHANNEL_ATTRIBUTE_UNLOCKED 
1559:Drivers/STM32H5xx_HAL_Driver/Src/stm32h5xx_hal_dma.c ****                 DMA_CHANNEL_ATTRIBUTE_LOCKED;
1560:Drivers/STM32H5xx_HAL_Driver/Src/stm32h5xx_hal_dma.c **** 
1561:Drivers/STM32H5xx_HAL_Driver/Src/stm32h5xx_hal_dma.c ****   return HAL_OK;
1562:Drivers/STM32H5xx_HAL_Driver/Src/stm32h5xx_hal_dma.c **** }
1563:Drivers/STM32H5xx_HAL_Driver/Src/stm32h5xx_hal_dma.c **** #endif /* DMA_RCFGLOCKR_LOCK0 */
1564:Drivers/STM32H5xx_HAL_Driver/Src/stm32h5xx_hal_dma.c **** /**
1565:Drivers/STM32H5xx_HAL_Driver/Src/stm32h5xx_hal_dma.c ****   * @}
1566:Drivers/STM32H5xx_HAL_Driver/Src/stm32h5xx_hal_dma.c ****   */
1567:Drivers/STM32H5xx_HAL_Driver/Src/stm32h5xx_hal_dma.c **** 
1568:Drivers/STM32H5xx_HAL_Driver/Src/stm32h5xx_hal_dma.c **** /**
ARM GAS  C:\Users\sapph\AppData\Local\Temp\ccTfCvBa.s 			page 29


1569:Drivers/STM32H5xx_HAL_Driver/Src/stm32h5xx_hal_dma.c ****   * @}
1570:Drivers/STM32H5xx_HAL_Driver/Src/stm32h5xx_hal_dma.c ****   */
1571:Drivers/STM32H5xx_HAL_Driver/Src/stm32h5xx_hal_dma.c **** 
1572:Drivers/STM32H5xx_HAL_Driver/Src/stm32h5xx_hal_dma.c **** 
1573:Drivers/STM32H5xx_HAL_Driver/Src/stm32h5xx_hal_dma.c **** /* Private functions ------------------------------------------------------------------------------
1574:Drivers/STM32H5xx_HAL_Driver/Src/stm32h5xx_hal_dma.c **** /** @defgroup DMA_Private_Functions DMA Private Functions
1575:Drivers/STM32H5xx_HAL_Driver/Src/stm32h5xx_hal_dma.c ****   * @brief    DMA Private Functions
1576:Drivers/STM32H5xx_HAL_Driver/Src/stm32h5xx_hal_dma.c ****   * @{
1577:Drivers/STM32H5xx_HAL_Driver/Src/stm32h5xx_hal_dma.c ****   */
1578:Drivers/STM32H5xx_HAL_Driver/Src/stm32h5xx_hal_dma.c **** 
1579:Drivers/STM32H5xx_HAL_Driver/Src/stm32h5xx_hal_dma.c **** /**
1580:Drivers/STM32H5xx_HAL_Driver/Src/stm32h5xx_hal_dma.c ****   * @brief  Set the DMA channel normal transfer parameters.
1581:Drivers/STM32H5xx_HAL_Driver/Src/stm32h5xx_hal_dma.c ****   * @param  hdma        : Pointer to a DMA_HandleTypeDef structure that contains the configuration 
1582:Drivers/STM32H5xx_HAL_Driver/Src/stm32h5xx_hal_dma.c ****   *                       specified DMA Channel.
1583:Drivers/STM32H5xx_HAL_Driver/Src/stm32h5xx_hal_dma.c ****   * @param  SrcAddress  : The source data address.
1584:Drivers/STM32H5xx_HAL_Driver/Src/stm32h5xx_hal_dma.c ****   * @param  DstAddress  : The destination data address.
1585:Drivers/STM32H5xx_HAL_Driver/Src/stm32h5xx_hal_dma.c ****   * @param  SrcDataSize : The length of data to be transferred from source to destination in bytes.
1586:Drivers/STM32H5xx_HAL_Driver/Src/stm32h5xx_hal_dma.c ****   * @retval None.
1587:Drivers/STM32H5xx_HAL_Driver/Src/stm32h5xx_hal_dma.c ****   */
1588:Drivers/STM32H5xx_HAL_Driver/Src/stm32h5xx_hal_dma.c **** static void DMA_SetConfig(DMA_HandleTypeDef const *const hdma,
1589:Drivers/STM32H5xx_HAL_Driver/Src/stm32h5xx_hal_dma.c ****                           uint32_t SrcAddress,
1590:Drivers/STM32H5xx_HAL_Driver/Src/stm32h5xx_hal_dma.c ****                           uint32_t DstAddress,
1591:Drivers/STM32H5xx_HAL_Driver/Src/stm32h5xx_hal_dma.c ****                           uint32_t SrcDataSize)
1592:Drivers/STM32H5xx_HAL_Driver/Src/stm32h5xx_hal_dma.c **** {
  30              		.loc 1 1592 1 view -0
  31              		.cfi_startproc
  32              		@ args = 0, pretend = 0, frame = 0
  33              		@ frame_needed = 0, uses_anonymous_args = 0
  34              		@ link register save eliminated.
  35              		.loc 1 1592 1 is_stmt 0 view .LVU1
  36 0000 30B4     		push	{r4, r5}
  37              		.cfi_def_cfa_offset 8
  38              		.cfi_offset 4, -8
  39              		.cfi_offset 5, -4
1593:Drivers/STM32H5xx_HAL_Driver/Src/stm32h5xx_hal_dma.c ****   /* Configure the DMA channel data size */
1594:Drivers/STM32H5xx_HAL_Driver/Src/stm32h5xx_hal_dma.c ****   MODIFY_REG(hdma->Instance->CBR1, DMA_CBR1_BNDT, (SrcDataSize & DMA_CBR1_BNDT));
  40              		.loc 1 1594 3 is_stmt 1 view .LVU2
  41 0002 0568     		ldr	r5, [r0]
  42 0004 AC6C     		ldr	r4, [r5, #72]
  43 0006 4FEA144C 		lsr	ip, r4, #16
  44 000a 4FEA0C4C 		lsl	ip, ip, #16
  45 000e 9BB2     		uxth	r3, r3
  46              	.LVL1:
  47              		.loc 1 1594 3 is_stmt 0 view .LVU3
  48 0010 4CEA0303 		orr	r3, ip, r3
  49 0014 AB64     		str	r3, [r5, #72]
1595:Drivers/STM32H5xx_HAL_Driver/Src/stm32h5xx_hal_dma.c **** 
1596:Drivers/STM32H5xx_HAL_Driver/Src/stm32h5xx_hal_dma.c ****   /* Clear all interrupt flags */
1597:Drivers/STM32H5xx_HAL_Driver/Src/stm32h5xx_hal_dma.c ****   __HAL_DMA_CLEAR_FLAG(hdma, DMA_FLAG_TC | DMA_FLAG_HT | DMA_FLAG_DTE | DMA_FLAG_ULE | DMA_FLAG_USE
  50              		.loc 1 1597 3 is_stmt 1 view .LVU4
  51 0016 0368     		ldr	r3, [r0]
  52 0018 4FF4FE44 		mov	r4, #32512
  53 001c DC60     		str	r4, [r3, #12]
1598:Drivers/STM32H5xx_HAL_Driver/Src/stm32h5xx_hal_dma.c ****                        DMA_FLAG_TO);
1599:Drivers/STM32H5xx_HAL_Driver/Src/stm32h5xx_hal_dma.c **** 
1600:Drivers/STM32H5xx_HAL_Driver/Src/stm32h5xx_hal_dma.c ****   /* Configure DMA channel source address */
1601:Drivers/STM32H5xx_HAL_Driver/Src/stm32h5xx_hal_dma.c ****   hdma->Instance->CSAR = SrcAddress;
ARM GAS  C:\Users\sapph\AppData\Local\Temp\ccTfCvBa.s 			page 30


  54              		.loc 1 1601 3 view .LVU5
  55              		.loc 1 1601 7 is_stmt 0 view .LVU6
  56 001e 0368     		ldr	r3, [r0]
  57              		.loc 1 1601 24 view .LVU7
  58 0020 D964     		str	r1, [r3, #76]
1602:Drivers/STM32H5xx_HAL_Driver/Src/stm32h5xx_hal_dma.c **** 
1603:Drivers/STM32H5xx_HAL_Driver/Src/stm32h5xx_hal_dma.c ****   /* Configure DMA channel destination address */
1604:Drivers/STM32H5xx_HAL_Driver/Src/stm32h5xx_hal_dma.c ****   hdma->Instance->CDAR = DstAddress;
  59              		.loc 1 1604 3 is_stmt 1 view .LVU8
  60              		.loc 1 1604 7 is_stmt 0 view .LVU9
  61 0022 0368     		ldr	r3, [r0]
  62              		.loc 1 1604 24 view .LVU10
  63 0024 1A65     		str	r2, [r3, #80]
1605:Drivers/STM32H5xx_HAL_Driver/Src/stm32h5xx_hal_dma.c **** }
  64              		.loc 1 1605 1 view .LVU11
  65 0026 30BC     		pop	{r4, r5}
  66              		.cfi_restore 5
  67              		.cfi_restore 4
  68              		.cfi_def_cfa_offset 0
  69 0028 7047     		bx	lr
  70              		.cfi_endproc
  71              	.LFE175:
  73              		.section	.text.DMA_Init,"ax",%progbits
  74              		.align	1
  75              		.syntax unified
  76              		.thumb
  77              		.thumb_func
  79              	DMA_Init:
  80              	.LVL2:
  81              	.LFB176:
1606:Drivers/STM32H5xx_HAL_Driver/Src/stm32h5xx_hal_dma.c **** 
1607:Drivers/STM32H5xx_HAL_Driver/Src/stm32h5xx_hal_dma.c **** /**
1608:Drivers/STM32H5xx_HAL_Driver/Src/stm32h5xx_hal_dma.c ****   * @brief  Initialize the DMA channel in normal mode according to the specified parameters in the 
1609:Drivers/STM32H5xx_HAL_Driver/Src/stm32h5xx_hal_dma.c ****   * @param  hdma : pointer to a DMA_HandleTypeDef structure that contains the configuration informa
1610:Drivers/STM32H5xx_HAL_Driver/Src/stm32h5xx_hal_dma.c ****   *                specified DMA Channel.
1611:Drivers/STM32H5xx_HAL_Driver/Src/stm32h5xx_hal_dma.c ****   * @retval None.
1612:Drivers/STM32H5xx_HAL_Driver/Src/stm32h5xx_hal_dma.c ****   */
1613:Drivers/STM32H5xx_HAL_Driver/Src/stm32h5xx_hal_dma.c **** static void DMA_Init(DMA_HandleTypeDef const *const hdma)
1614:Drivers/STM32H5xx_HAL_Driver/Src/stm32h5xx_hal_dma.c **** {
  82              		.loc 1 1614 1 is_stmt 1 view -0
  83              		.cfi_startproc
  84              		@ args = 0, pretend = 0, frame = 0
  85              		@ frame_needed = 0, uses_anonymous_args = 0
  86              		@ link register save eliminated.
  87              		.loc 1 1614 1 is_stmt 0 view .LVU13
  88 0000 10B4     		push	{r4}
  89              		.cfi_def_cfa_offset 4
  90              		.cfi_offset 4, -4
1615:Drivers/STM32H5xx_HAL_Driver/Src/stm32h5xx_hal_dma.c ****   uint32_t tmpreg;
  91              		.loc 1 1615 3 is_stmt 1 view .LVU14
1616:Drivers/STM32H5xx_HAL_Driver/Src/stm32h5xx_hal_dma.c **** 
1617:Drivers/STM32H5xx_HAL_Driver/Src/stm32h5xx_hal_dma.c ****   /* Prepare DMA Channel Control Register (CCR) value *********************************************
1618:Drivers/STM32H5xx_HAL_Driver/Src/stm32h5xx_hal_dma.c ****   tmpreg = hdma->Init.Priority;
  92              		.loc 1 1618 3 view .LVU15
  93              		.loc 1 1618 10 is_stmt 0 view .LVU16
  94 0002 016A     		ldr	r1, [r0, #32]
  95              	.LVL3:
ARM GAS  C:\Users\sapph\AppData\Local\Temp\ccTfCvBa.s 			page 31


1619:Drivers/STM32H5xx_HAL_Driver/Src/stm32h5xx_hal_dma.c **** 
1620:Drivers/STM32H5xx_HAL_Driver/Src/stm32h5xx_hal_dma.c ****   /* Write DMA Channel Control Register (CCR) */
1621:Drivers/STM32H5xx_HAL_Driver/Src/stm32h5xx_hal_dma.c ****   MODIFY_REG(hdma->Instance->CCR, DMA_CCR_PRIO | DMA_CCR_LAP | DMA_CCR_LSM, tmpreg);
  96              		.loc 1 1621 3 is_stmt 1 view .LVU17
  97 0004 0268     		ldr	r2, [r0]
  98 0006 5369     		ldr	r3, [r2, #20]
  99 0008 23F44303 		bic	r3, r3, #12779520
 100 000c 0B43     		orrs	r3, r3, r1
 101 000e 5361     		str	r3, [r2, #20]
1622:Drivers/STM32H5xx_HAL_Driver/Src/stm32h5xx_hal_dma.c **** 
1623:Drivers/STM32H5xx_HAL_Driver/Src/stm32h5xx_hal_dma.c ****   /* Prepare DMA Channel Transfer Register (CTR1) value *******************************************
1624:Drivers/STM32H5xx_HAL_Driver/Src/stm32h5xx_hal_dma.c ****   tmpreg = hdma->Init.DestInc | hdma->Init.DestDataWidth | hdma->Init.SrcInc | hdma->Init.SrcDataWi
 102              		.loc 1 1624 3 view .LVU18
 103              		.loc 1 1624 22 is_stmt 0 view .LVU19
 104 0010 4369     		ldr	r3, [r0, #20]
 105              		.loc 1 1624 43 view .LVU20
 106 0012 C269     		ldr	r2, [r0, #28]
 107              		.loc 1 1624 31 view .LVU21
 108 0014 1343     		orrs	r3, r3, r2
 109              		.loc 1 1624 70 view .LVU22
 110 0016 0269     		ldr	r2, [r0, #16]
 111              		.loc 1 1624 58 view .LVU23
 112 0018 1343     		orrs	r3, r3, r2
 113              		.loc 1 1624 90 view .LVU24
 114 001a 8269     		ldr	r2, [r0, #24]
 115              		.loc 1 1624 10 view .LVU25
 116 001c 1343     		orrs	r3, r3, r2
 117              	.LVL4:
1625:Drivers/STM32H5xx_HAL_Driver/Src/stm32h5xx_hal_dma.c **** 
1626:Drivers/STM32H5xx_HAL_Driver/Src/stm32h5xx_hal_dma.c ****   /* Add parameters specific to GPDMA */
1627:Drivers/STM32H5xx_HAL_Driver/Src/stm32h5xx_hal_dma.c ****   if (IS_GPDMA_INSTANCE(hdma->Instance) != 0U)
 118              		.loc 1 1627 3 is_stmt 1 view .LVU26
 119              		.loc 1 1627 7 is_stmt 0 view .LVU27
 120 001e 0168     		ldr	r1, [r0]
 121 0020 794A     		ldr	r2, .L14
 122 0022 9142     		cmp	r1, r2
 123 0024 00F08E80 		beq	.L4
 124              		.loc 1 1627 7 discriminator 2 view .LVU28
 125 0028 02F18052 		add	r2, r2, #268435456
 126 002c 9142     		cmp	r1, r2
 127 002e 00F08980 		beq	.L4
 128              		.loc 1 1627 7 discriminator 4 view .LVU29
 129 0032 02F17042 		add	r2, r2, #-268435456
 130 0036 8032     		adds	r2, r2, #128
 131 0038 9142     		cmp	r1, r2
 132 003a 00F08380 		beq	.L4
 133              		.loc 1 1627 7 discriminator 6 view .LVU30
 134 003e 02F18052 		add	r2, r2, #268435456
 135 0042 9142     		cmp	r1, r2
 136 0044 7ED0     		beq	.L4
 137              		.loc 1 1627 7 discriminator 8 view .LVU31
 138 0046 02F17042 		add	r2, r2, #-268435456
 139 004a 8032     		adds	r2, r2, #128
 140 004c 9142     		cmp	r1, r2
 141 004e 79D0     		beq	.L4
 142              		.loc 1 1627 7 discriminator 10 view .LVU32
 143 0050 02F18052 		add	r2, r2, #268435456
ARM GAS  C:\Users\sapph\AppData\Local\Temp\ccTfCvBa.s 			page 32


 144 0054 9142     		cmp	r1, r2
 145 0056 75D0     		beq	.L4
 146              		.loc 1 1627 7 discriminator 12 view .LVU33
 147 0058 02F17042 		add	r2, r2, #-268435456
 148 005c 8032     		adds	r2, r2, #128
 149 005e 9142     		cmp	r1, r2
 150 0060 70D0     		beq	.L4
 151              		.loc 1 1627 7 discriminator 14 view .LVU34
 152 0062 02F18052 		add	r2, r2, #268435456
 153 0066 9142     		cmp	r1, r2
 154 0068 6CD0     		beq	.L4
 155              		.loc 1 1627 7 discriminator 16 view .LVU35
 156 006a 02F17042 		add	r2, r2, #-268435456
 157 006e 8032     		adds	r2, r2, #128
 158 0070 9142     		cmp	r1, r2
 159 0072 67D0     		beq	.L4
 160              		.loc 1 1627 7 discriminator 18 view .LVU36
 161 0074 02F18052 		add	r2, r2, #268435456
 162 0078 9142     		cmp	r1, r2
 163 007a 63D0     		beq	.L4
 164              		.loc 1 1627 7 discriminator 20 view .LVU37
 165 007c 02F17042 		add	r2, r2, #-268435456
 166 0080 8032     		adds	r2, r2, #128
 167 0082 9142     		cmp	r1, r2
 168 0084 5ED0     		beq	.L4
 169              		.loc 1 1627 7 discriminator 22 view .LVU38
 170 0086 02F18052 		add	r2, r2, #268435456
 171 008a 9142     		cmp	r1, r2
 172 008c 5AD0     		beq	.L4
 173              		.loc 1 1627 7 discriminator 24 view .LVU39
 174 008e 02F17042 		add	r2, r2, #-268435456
 175 0092 8032     		adds	r2, r2, #128
 176 0094 9142     		cmp	r1, r2
 177 0096 55D0     		beq	.L4
 178              		.loc 1 1627 7 discriminator 26 view .LVU40
 179 0098 02F18052 		add	r2, r2, #268435456
 180 009c 9142     		cmp	r1, r2
 181 009e 51D0     		beq	.L4
 182              		.loc 1 1627 7 discriminator 28 view .LVU41
 183 00a0 02F17042 		add	r2, r2, #-268435456
 184 00a4 8032     		adds	r2, r2, #128
 185 00a6 9142     		cmp	r1, r2
 186 00a8 4CD0     		beq	.L4
 187              		.loc 1 1627 7 discriminator 30 view .LVU42
 188 00aa 02F18052 		add	r2, r2, #268435456
 189 00ae 9142     		cmp	r1, r2
 190 00b0 48D0     		beq	.L4
 191              		.loc 1 1627 7 discriminator 32 view .LVU43
 192 00b2 02F17042 		add	r2, r2, #-268435456
 193 00b6 02F54862 		add	r2, r2, #3200
 194 00ba 9142     		cmp	r1, r2
 195 00bc 42D0     		beq	.L4
 196              		.loc 1 1627 7 discriminator 34 view .LVU44
 197 00be 02F18052 		add	r2, r2, #268435456
 198 00c2 9142     		cmp	r1, r2
 199 00c4 3ED0     		beq	.L4
 200              		.loc 1 1627 7 discriminator 36 view .LVU45
ARM GAS  C:\Users\sapph\AppData\Local\Temp\ccTfCvBa.s 			page 33


 201 00c6 02F17042 		add	r2, r2, #-268435456
 202 00ca 8032     		adds	r2, r2, #128
 203 00cc 9142     		cmp	r1, r2
 204 00ce 39D0     		beq	.L4
 205              		.loc 1 1627 7 discriminator 38 view .LVU46
 206 00d0 02F18052 		add	r2, r2, #268435456
 207 00d4 9142     		cmp	r1, r2
 208 00d6 35D0     		beq	.L4
 209              		.loc 1 1627 7 discriminator 40 view .LVU47
 210 00d8 02F17042 		add	r2, r2, #-268435456
 211 00dc 8032     		adds	r2, r2, #128
 212 00de 9142     		cmp	r1, r2
 213 00e0 30D0     		beq	.L4
 214              		.loc 1 1627 7 discriminator 42 view .LVU48
 215 00e2 02F18052 		add	r2, r2, #268435456
 216 00e6 9142     		cmp	r1, r2
 217 00e8 2CD0     		beq	.L4
 218              		.loc 1 1627 7 discriminator 44 view .LVU49
 219 00ea 02F17042 		add	r2, r2, #-268435456
 220 00ee 8032     		adds	r2, r2, #128
 221 00f0 9142     		cmp	r1, r2
 222 00f2 27D0     		beq	.L4
 223              		.loc 1 1627 7 discriminator 46 view .LVU50
 224 00f4 02F18052 		add	r2, r2, #268435456
 225 00f8 9142     		cmp	r1, r2
 226 00fa 23D0     		beq	.L4
 227              		.loc 1 1627 7 discriminator 48 view .LVU51
 228 00fc 02F17042 		add	r2, r2, #-268435456
 229 0100 8032     		adds	r2, r2, #128
 230 0102 9142     		cmp	r1, r2
 231 0104 1ED0     		beq	.L4
 232              		.loc 1 1627 7 discriminator 50 view .LVU52
 233 0106 02F18052 		add	r2, r2, #268435456
 234 010a 9142     		cmp	r1, r2
 235 010c 1AD0     		beq	.L4
 236              		.loc 1 1627 7 discriminator 52 view .LVU53
 237 010e 02F17042 		add	r2, r2, #-268435456
 238 0112 8032     		adds	r2, r2, #128
 239 0114 9142     		cmp	r1, r2
 240 0116 15D0     		beq	.L4
 241              		.loc 1 1627 7 discriminator 54 view .LVU54
 242 0118 02F18052 		add	r2, r2, #268435456
 243 011c 9142     		cmp	r1, r2
 244 011e 11D0     		beq	.L4
 245              		.loc 1 1627 7 discriminator 56 view .LVU55
 246 0120 02F17042 		add	r2, r2, #-268435456
 247 0124 8032     		adds	r2, r2, #128
 248 0126 9142     		cmp	r1, r2
 249 0128 0CD0     		beq	.L4
 250              		.loc 1 1627 7 discriminator 58 view .LVU56
 251 012a 02F18052 		add	r2, r2, #268435456
 252 012e 9142     		cmp	r1, r2
 253 0130 08D0     		beq	.L4
 254              		.loc 1 1627 7 discriminator 60 view .LVU57
 255 0132 02F17042 		add	r2, r2, #-268435456
 256 0136 8032     		adds	r2, r2, #128
 257 0138 9142     		cmp	r1, r2
ARM GAS  C:\Users\sapph\AppData\Local\Temp\ccTfCvBa.s 			page 34


 258 013a 03D0     		beq	.L4
 259              		.loc 1 1627 7 discriminator 62 view .LVU58
 260 013c 02F18052 		add	r2, r2, #268435456
 261 0140 9142     		cmp	r1, r2
 262 0142 0FD1     		bne	.L5
 263              	.L4:
1628:Drivers/STM32H5xx_HAL_Driver/Src/stm32h5xx_hal_dma.c ****   {
1629:Drivers/STM32H5xx_HAL_Driver/Src/stm32h5xx_hal_dma.c ****     tmpreg |= (hdma->Init.TransferAllocatedPort                                             |
 264              		.loc 1 1629 5 is_stmt 1 view .LVU59
1630:Drivers/STM32H5xx_HAL_Driver/Src/stm32h5xx_hal_dma.c ****                (((hdma->Init.DestBurstLength - 1U) << DMA_CTR1_DBL_1_Pos) & DMA_CTR1_DBL_1) |
 265              		.loc 1 1630 29 is_stmt 0 view .LVU60
 266 0144 826A     		ldr	r2, [r0, #40]
 267              		.loc 1 1630 46 view .LVU61
 268 0146 013A     		subs	r2, r2, #1
 269              		.loc 1 1630 52 view .LVU62
 270 0148 1205     		lsls	r2, r2, #20
 271              		.loc 1 1630 75 view .LVU63
 272 014a 02F07C72 		and	r2, r2, #66060288
1629:Drivers/STM32H5xx_HAL_Driver/Src/stm32h5xx_hal_dma.c ****                (((hdma->Init.DestBurstLength - 1U) << DMA_CTR1_DBL_1_Pos) & DMA_CTR1_DBL_1) |
 273              		.loc 1 1629 93 view .LVU64
 274 014e C46A     		ldr	r4, [r0, #44]
 275 0150 44EA020C 		orr	ip, r4, r2
1631:Drivers/STM32H5xx_HAL_Driver/Src/stm32h5xx_hal_dma.c ****                (((hdma->Init.SrcBurstLength - 1U) << DMA_CTR1_SBL_1_Pos) & DMA_CTR1_SBL_1));
 276              		.loc 1 1631 29 view .LVU65
 277 0154 426A     		ldr	r2, [r0, #36]
 278              		.loc 1 1631 45 view .LVU66
 279 0156 013A     		subs	r2, r2, #1
 280              		.loc 1 1631 51 view .LVU67
 281 0158 1201     		lsls	r2, r2, #4
 282              		.loc 1 1631 74 view .LVU68
 283 015a 02F47C72 		and	r2, r2, #1008
1630:Drivers/STM32H5xx_HAL_Driver/Src/stm32h5xx_hal_dma.c ****                (((hdma->Init.DestBurstLength - 1U) << DMA_CTR1_DBL_1_Pos) & DMA_CTR1_DBL_1) |
 284              		.loc 1 1630 93 view .LVU69
 285 015e 4CEA0202 		orr	r2, ip, r2
1629:Drivers/STM32H5xx_HAL_Driver/Src/stm32h5xx_hal_dma.c ****                (((hdma->Init.DestBurstLength - 1U) << DMA_CTR1_DBL_1_Pos) & DMA_CTR1_DBL_1) |
 286              		.loc 1 1629 12 view .LVU70
 287 0162 1343     		orrs	r3, r3, r2
 288              	.LVL5:
 289              	.L5:
1632:Drivers/STM32H5xx_HAL_Driver/Src/stm32h5xx_hal_dma.c ****   }
1633:Drivers/STM32H5xx_HAL_Driver/Src/stm32h5xx_hal_dma.c **** 
1634:Drivers/STM32H5xx_HAL_Driver/Src/stm32h5xx_hal_dma.c ****   /* Write DMA Channel Transfer Register 1 (CTR1) */
1635:Drivers/STM32H5xx_HAL_Driver/Src/stm32h5xx_hal_dma.c **** #if defined (DMA_CTR1_SSEC)
1636:Drivers/STM32H5xx_HAL_Driver/Src/stm32h5xx_hal_dma.c ****   MODIFY_REG(hdma->Instance->CTR1, ~(DMA_CTR1_SSEC | DMA_CTR1_DSEC), tmpreg);
 290              		.loc 1 1636 3 is_stmt 1 view .LVU71
 291 0164 0A6C     		ldr	r2, [r1, #64]
 292 0166 02F08022 		and	r2, r2, #-2147450880
 293 016a 1343     		orrs	r3, r3, r2
 294              	.LVL6:
 295              		.loc 1 1636 3 is_stmt 0 view .LVU72
 296 016c 0B64     		str	r3, [r1, #64]
1637:Drivers/STM32H5xx_HAL_Driver/Src/stm32h5xx_hal_dma.c **** #else
1638:Drivers/STM32H5xx_HAL_Driver/Src/stm32h5xx_hal_dma.c ****   WRITE_REG(hdma->Instance->CTR1, tmpreg);
1639:Drivers/STM32H5xx_HAL_Driver/Src/stm32h5xx_hal_dma.c **** #endif /* DMA_CTR1_SSEC */
1640:Drivers/STM32H5xx_HAL_Driver/Src/stm32h5xx_hal_dma.c **** 
1641:Drivers/STM32H5xx_HAL_Driver/Src/stm32h5xx_hal_dma.c ****   /* Prepare DMA Channel Transfer Register 2 (CTR2) value *****************************************
1642:Drivers/STM32H5xx_HAL_Driver/Src/stm32h5xx_hal_dma.c ****   tmpreg = hdma->Init.BlkHWRequest | (hdma->Init.Request & DMA_CTR2_REQSEL) | hdma->Init.TransferEv
ARM GAS  C:\Users\sapph\AppData\Local\Temp\ccTfCvBa.s 			page 35


 297              		.loc 1 1642 3 is_stmt 1 view .LVU73
 298              		.loc 1 1642 22 is_stmt 0 view .LVU74
 299 016e 8368     		ldr	r3, [r0, #8]
 300              		.loc 1 1642 58 view .LVU75
 301 0170 0279     		ldrb	r2, [r0, #4]	@ zero_extendqisi2
 302              		.loc 1 1642 36 view .LVU76
 303 0172 1343     		orrs	r3, r3, r2
 304              		.loc 1 1642 89 view .LVU77
 305 0174 026B     		ldr	r2, [r0, #48]
 306              		.loc 1 1642 10 view .LVU78
 307 0176 1343     		orrs	r3, r3, r2
 308              	.LVL7:
1643:Drivers/STM32H5xx_HAL_Driver/Src/stm32h5xx_hal_dma.c **** 
1644:Drivers/STM32H5xx_HAL_Driver/Src/stm32h5xx_hal_dma.c ****   /* Memory to Peripheral Transfer */
1645:Drivers/STM32H5xx_HAL_Driver/Src/stm32h5xx_hal_dma.c ****   if ((hdma->Init.Direction) == DMA_MEMORY_TO_PERIPH)
 309              		.loc 1 1645 3 is_stmt 1 view .LVU79
 310              		.loc 1 1645 18 is_stmt 0 view .LVU80
 311 0178 C268     		ldr	r2, [r0, #12]
 312              		.loc 1 1645 6 view .LVU81
 313 017a B2F5806F 		cmp	r2, #1024
 314 017e 47D0     		beq	.L12
1646:Drivers/STM32H5xx_HAL_Driver/Src/stm32h5xx_hal_dma.c ****   {
1647:Drivers/STM32H5xx_HAL_Driver/Src/stm32h5xx_hal_dma.c ****     if (IS_GPDMA_INSTANCE(hdma->Instance) != 0U)
1648:Drivers/STM32H5xx_HAL_Driver/Src/stm32h5xx_hal_dma.c ****     {
1649:Drivers/STM32H5xx_HAL_Driver/Src/stm32h5xx_hal_dma.c ****       tmpreg |= DMA_CTR2_DREQ;
1650:Drivers/STM32H5xx_HAL_Driver/Src/stm32h5xx_hal_dma.c ****     }
1651:Drivers/STM32H5xx_HAL_Driver/Src/stm32h5xx_hal_dma.c ****   }
1652:Drivers/STM32H5xx_HAL_Driver/Src/stm32h5xx_hal_dma.c ****   /* Memory to Memory Transfer */
1653:Drivers/STM32H5xx_HAL_Driver/Src/stm32h5xx_hal_dma.c ****   else if ((hdma->Init.Direction) == DMA_MEMORY_TO_MEMORY)
 315              		.loc 1 1653 8 is_stmt 1 view .LVU82
 316              		.loc 1 1653 11 is_stmt 0 view .LVU83
 317 0180 B2F5007F 		cmp	r2, #512
 318 0184 00F0DB80 		beq	.L13
 319              	.L8:
1654:Drivers/STM32H5xx_HAL_Driver/Src/stm32h5xx_hal_dma.c ****   {
1655:Drivers/STM32H5xx_HAL_Driver/Src/stm32h5xx_hal_dma.c ****     tmpreg |= DMA_CTR2_SWREQ;
1656:Drivers/STM32H5xx_HAL_Driver/Src/stm32h5xx_hal_dma.c ****   }
1657:Drivers/STM32H5xx_HAL_Driver/Src/stm32h5xx_hal_dma.c ****   else
1658:Drivers/STM32H5xx_HAL_Driver/Src/stm32h5xx_hal_dma.c ****   {
1659:Drivers/STM32H5xx_HAL_Driver/Src/stm32h5xx_hal_dma.c ****     /* Nothing to do */
1660:Drivers/STM32H5xx_HAL_Driver/Src/stm32h5xx_hal_dma.c ****   }
 320              		.loc 1 1660 3 is_stmt 1 view .LVU84
1661:Drivers/STM32H5xx_HAL_Driver/Src/stm32h5xx_hal_dma.c **** 
1662:Drivers/STM32H5xx_HAL_Driver/Src/stm32h5xx_hal_dma.c ****   /* Set DMA channel operation mode */
1663:Drivers/STM32H5xx_HAL_Driver/Src/stm32h5xx_hal_dma.c ****   tmpreg |= hdma->Init.Mode;
 321              		.loc 1 1663 3 view .LVU85
 322              		.loc 1 1663 23 is_stmt 0 view .LVU86
 323 0188 426B     		ldr	r2, [r0, #52]
 324              		.loc 1 1663 10 view .LVU87
 325 018a 1A43     		orrs	r2, r2, r3
 326              	.LVL8:
1664:Drivers/STM32H5xx_HAL_Driver/Src/stm32h5xx_hal_dma.c **** 
1665:Drivers/STM32H5xx_HAL_Driver/Src/stm32h5xx_hal_dma.c ****   /* Write DMA Channel Transfer Register 2 (CTR2) */
1666:Drivers/STM32H5xx_HAL_Driver/Src/stm32h5xx_hal_dma.c ****   MODIFY_REG(hdma->Instance->CTR2, (DMA_CTR2_TCEM  | DMA_CTR2_TRIGPOL | DMA_CTR2_TRIGSEL | DMA_CTR2
 327              		.loc 1 1666 3 is_stmt 1 view .LVU88
 328 018c 0168     		ldr	r1, [r0]
 329 018e 4B6C     		ldr	r3, [r1, #68]
ARM GAS  C:\Users\sapph\AppData\Local\Temp\ccTfCvBa.s 			page 36


 330 0190 23F04343 		bic	r3, r3, #-1023410176
 331 0194 23F47F13 		bic	r3, r3, #4177920
 332 0198 23F4F753 		bic	r3, r3, #7904
 333 019c 23F01F03 		bic	r3, r3, #31
 334 01a0 1343     		orrs	r3, r3, r2
 335 01a2 4B64     		str	r3, [r1, #68]
1667:Drivers/STM32H5xx_HAL_Driver/Src/stm32h5xx_hal_dma.c ****                                     DMA_CTR2_PFREQ | DMA_CTR2_BREQ  | DMA_CTR2_DREQ    | DMA_CTR2_S
1668:Drivers/STM32H5xx_HAL_Driver/Src/stm32h5xx_hal_dma.c ****                                     DMA_CTR2_REQSEL), tmpreg);
1669:Drivers/STM32H5xx_HAL_Driver/Src/stm32h5xx_hal_dma.c **** 
1670:Drivers/STM32H5xx_HAL_Driver/Src/stm32h5xx_hal_dma.c **** 
1671:Drivers/STM32H5xx_HAL_Driver/Src/stm32h5xx_hal_dma.c ****   /* Write DMA Channel Block Register 1 (CBR1) ****************************************************
1672:Drivers/STM32H5xx_HAL_Driver/Src/stm32h5xx_hal_dma.c ****   WRITE_REG(hdma->Instance->CBR1, 0U);
 336              		.loc 1 1672 3 view .LVU89
 337 01a4 0368     		ldr	r3, [r0]
 338 01a6 0022     		movs	r2, #0
 339              	.LVL9:
 340              		.loc 1 1672 3 is_stmt 0 view .LVU90
 341 01a8 9A64     		str	r2, [r3, #72]
1673:Drivers/STM32H5xx_HAL_Driver/Src/stm32h5xx_hal_dma.c **** 
1674:Drivers/STM32H5xx_HAL_Driver/Src/stm32h5xx_hal_dma.c ****   /* If 2D Addressing is supported by current channel */
1675:Drivers/STM32H5xx_HAL_Driver/Src/stm32h5xx_hal_dma.c ****   if (IS_DMA_2D_ADDRESSING_INSTANCE(hdma->Instance) != 0U)
 342              		.loc 1 1675 3 is_stmt 1 view .LVU91
 343              		.loc 1 1675 7 is_stmt 0 view .LVU92
 344 01aa 0368     		ldr	r3, [r0]
 345 01ac 174A     		ldr	r2, .L14+4
 346 01ae 9342     		cmp	r3, r2
 347 01b0 1FD0     		beq	.L9
 348              		.loc 1 1675 7 discriminator 2 view .LVU93
 349 01b2 02F18052 		add	r2, r2, #268435456
 350 01b6 9342     		cmp	r3, r2
 351 01b8 1BD0     		beq	.L9
 352              		.loc 1 1675 7 discriminator 4 view .LVU94
 353 01ba 02F17042 		add	r2, r2, #-268435456
 354 01be 8032     		adds	r2, r2, #128
 355 01c0 9342     		cmp	r3, r2
 356 01c2 16D0     		beq	.L9
 357              		.loc 1 1675 7 discriminator 6 view .LVU95
 358 01c4 02F18052 		add	r2, r2, #268435456
 359 01c8 9342     		cmp	r3, r2
 360 01ca 12D0     		beq	.L9
 361              		.loc 1 1675 7 discriminator 8 view .LVU96
 362 01cc 02F17042 		add	r2, r2, #-268435456
 363 01d0 02F57862 		add	r2, r2, #3968
 364 01d4 9342     		cmp	r3, r2
 365 01d6 0CD0     		beq	.L9
 366              		.loc 1 1675 7 discriminator 10 view .LVU97
 367 01d8 02F18052 		add	r2, r2, #268435456
 368 01dc 9342     		cmp	r3, r2
 369 01de 08D0     		beq	.L9
 370              		.loc 1 1675 7 discriminator 12 view .LVU98
 371 01e0 02F17042 		add	r2, r2, #-268435456
 372 01e4 8032     		adds	r2, r2, #128
 373 01e6 9342     		cmp	r3, r2
 374 01e8 03D0     		beq	.L9
 375              		.loc 1 1675 7 discriminator 14 view .LVU99
 376 01ea 02F18052 		add	r2, r2, #268435456
 377 01ee 9342     		cmp	r3, r2
ARM GAS  C:\Users\sapph\AppData\Local\Temp\ccTfCvBa.s 			page 37


 378 01f0 03D1     		bne	.L10
 379              	.L9:
1676:Drivers/STM32H5xx_HAL_Driver/Src/stm32h5xx_hal_dma.c ****   {
1677:Drivers/STM32H5xx_HAL_Driver/Src/stm32h5xx_hal_dma.c ****     /* Write DMA Channel Transfer Register 3 (CTR3) ***********************************************
1678:Drivers/STM32H5xx_HAL_Driver/Src/stm32h5xx_hal_dma.c ****     WRITE_REG(hdma->Instance->CTR3, 0U);
 380              		.loc 1 1678 5 is_stmt 1 view .LVU100
 381 01f2 0022     		movs	r2, #0
 382 01f4 5A65     		str	r2, [r3, #84]
1679:Drivers/STM32H5xx_HAL_Driver/Src/stm32h5xx_hal_dma.c **** 
1680:Drivers/STM32H5xx_HAL_Driver/Src/stm32h5xx_hal_dma.c ****     /* Write DMA Channel Block Register 2 (CBR2) **************************************************
1681:Drivers/STM32H5xx_HAL_Driver/Src/stm32h5xx_hal_dma.c ****     WRITE_REG(hdma->Instance->CBR2, 0U);
 383              		.loc 1 1681 5 view .LVU101
 384 01f6 0368     		ldr	r3, [r0]
 385 01f8 9A65     		str	r2, [r3, #88]
 386              	.L10:
1682:Drivers/STM32H5xx_HAL_Driver/Src/stm32h5xx_hal_dma.c ****   }
1683:Drivers/STM32H5xx_HAL_Driver/Src/stm32h5xx_hal_dma.c **** 
1684:Drivers/STM32H5xx_HAL_Driver/Src/stm32h5xx_hal_dma.c ****   /* Write DMA Channel linked-list address register (CLLR) ****************************************
1685:Drivers/STM32H5xx_HAL_Driver/Src/stm32h5xx_hal_dma.c ****   WRITE_REG(hdma->Instance->CLLR, 0U);
 387              		.loc 1 1685 3 view .LVU102
 388 01fa 0368     		ldr	r3, [r0]
 389 01fc 0022     		movs	r2, #0
 390 01fe DA67     		str	r2, [r3, #124]
1686:Drivers/STM32H5xx_HAL_Driver/Src/stm32h5xx_hal_dma.c **** }
 391              		.loc 1 1686 1 is_stmt 0 view .LVU103
 392 0200 5DF8044B 		ldr	r4, [sp], #4
 393              		.cfi_remember_state
 394              		.cfi_restore 4
 395              		.cfi_def_cfa_offset 0
 396 0204 7047     		bx	lr
 397              	.L15:
 398 0206 00BF     		.align	2
 399              	.L14:
 400 0208 50000240 		.word	1073872976
 401 020c 50030240 		.word	1073873744
 402              	.LVL10:
 403              	.L12:
 404              		.cfi_restore_state
1647:Drivers/STM32H5xx_HAL_Driver/Src/stm32h5xx_hal_dma.c ****     {
 405              		.loc 1 1647 5 is_stmt 1 view .LVU104
1647:Drivers/STM32H5xx_HAL_Driver/Src/stm32h5xx_hal_dma.c ****     {
 406              		.loc 1 1647 9 is_stmt 0 view .LVU105
 407 0210 0268     		ldr	r2, [r0]
 408 0212 4C49     		ldr	r1, .L16
 409 0214 8A42     		cmp	r2, r1
 410 0216 00F08F80 		beq	.L7
1647:Drivers/STM32H5xx_HAL_Driver/Src/stm32h5xx_hal_dma.c ****     {
 411              		.loc 1 1647 9 discriminator 2 view .LVU106
 412 021a 01F18051 		add	r1, r1, #268435456
 413 021e 8A42     		cmp	r2, r1
 414 0220 00F08A80 		beq	.L7
1647:Drivers/STM32H5xx_HAL_Driver/Src/stm32h5xx_hal_dma.c ****     {
 415              		.loc 1 1647 9 discriminator 4 view .LVU107
 416 0224 01F17041 		add	r1, r1, #-268435456
 417 0228 8031     		adds	r1, r1, #128
 418 022a 8A42     		cmp	r2, r1
 419 022c 00F08480 		beq	.L7
ARM GAS  C:\Users\sapph\AppData\Local\Temp\ccTfCvBa.s 			page 38


1647:Drivers/STM32H5xx_HAL_Driver/Src/stm32h5xx_hal_dma.c ****     {
 420              		.loc 1 1647 9 discriminator 6 view .LVU108
 421 0230 01F18051 		add	r1, r1, #268435456
 422 0234 8A42     		cmp	r2, r1
 423 0236 7FD0     		beq	.L7
1647:Drivers/STM32H5xx_HAL_Driver/Src/stm32h5xx_hal_dma.c ****     {
 424              		.loc 1 1647 9 discriminator 8 view .LVU109
 425 0238 01F17041 		add	r1, r1, #-268435456
 426 023c 8031     		adds	r1, r1, #128
 427 023e 8A42     		cmp	r2, r1
 428 0240 7AD0     		beq	.L7
1647:Drivers/STM32H5xx_HAL_Driver/Src/stm32h5xx_hal_dma.c ****     {
 429              		.loc 1 1647 9 discriminator 10 view .LVU110
 430 0242 01F18051 		add	r1, r1, #268435456
 431 0246 8A42     		cmp	r2, r1
 432 0248 76D0     		beq	.L7
1647:Drivers/STM32H5xx_HAL_Driver/Src/stm32h5xx_hal_dma.c ****     {
 433              		.loc 1 1647 9 discriminator 12 view .LVU111
 434 024a 01F17041 		add	r1, r1, #-268435456
 435 024e 8031     		adds	r1, r1, #128
 436 0250 8A42     		cmp	r2, r1
 437 0252 71D0     		beq	.L7
1647:Drivers/STM32H5xx_HAL_Driver/Src/stm32h5xx_hal_dma.c ****     {
 438              		.loc 1 1647 9 discriminator 14 view .LVU112
 439 0254 01F18051 		add	r1, r1, #268435456
 440 0258 8A42     		cmp	r2, r1
 441 025a 6DD0     		beq	.L7
1647:Drivers/STM32H5xx_HAL_Driver/Src/stm32h5xx_hal_dma.c ****     {
 442              		.loc 1 1647 9 discriminator 16 view .LVU113
 443 025c 01F17041 		add	r1, r1, #-268435456
 444 0260 8031     		adds	r1, r1, #128
 445 0262 8A42     		cmp	r2, r1
 446 0264 68D0     		beq	.L7
1647:Drivers/STM32H5xx_HAL_Driver/Src/stm32h5xx_hal_dma.c ****     {
 447              		.loc 1 1647 9 discriminator 18 view .LVU114
 448 0266 01F18051 		add	r1, r1, #268435456
 449 026a 8A42     		cmp	r2, r1
 450 026c 64D0     		beq	.L7
1647:Drivers/STM32H5xx_HAL_Driver/Src/stm32h5xx_hal_dma.c ****     {
 451              		.loc 1 1647 9 discriminator 20 view .LVU115
 452 026e 01F17041 		add	r1, r1, #-268435456
 453 0272 8031     		adds	r1, r1, #128
 454 0274 8A42     		cmp	r2, r1
 455 0276 5FD0     		beq	.L7
1647:Drivers/STM32H5xx_HAL_Driver/Src/stm32h5xx_hal_dma.c ****     {
 456              		.loc 1 1647 9 discriminator 22 view .LVU116
 457 0278 01F18051 		add	r1, r1, #268435456
 458 027c 8A42     		cmp	r2, r1
 459 027e 5BD0     		beq	.L7
1647:Drivers/STM32H5xx_HAL_Driver/Src/stm32h5xx_hal_dma.c ****     {
 460              		.loc 1 1647 9 discriminator 24 view .LVU117
 461 0280 01F17041 		add	r1, r1, #-268435456
 462 0284 8031     		adds	r1, r1, #128
 463 0286 8A42     		cmp	r2, r1
 464 0288 56D0     		beq	.L7
1647:Drivers/STM32H5xx_HAL_Driver/Src/stm32h5xx_hal_dma.c ****     {
 465              		.loc 1 1647 9 discriminator 26 view .LVU118
ARM GAS  C:\Users\sapph\AppData\Local\Temp\ccTfCvBa.s 			page 39


 466 028a 01F18051 		add	r1, r1, #268435456
 467 028e 8A42     		cmp	r2, r1
 468 0290 52D0     		beq	.L7
1647:Drivers/STM32H5xx_HAL_Driver/Src/stm32h5xx_hal_dma.c ****     {
 469              		.loc 1 1647 9 discriminator 28 view .LVU119
 470 0292 01F17041 		add	r1, r1, #-268435456
 471 0296 8031     		adds	r1, r1, #128
 472 0298 8A42     		cmp	r2, r1
 473 029a 4DD0     		beq	.L7
1647:Drivers/STM32H5xx_HAL_Driver/Src/stm32h5xx_hal_dma.c ****     {
 474              		.loc 1 1647 9 discriminator 30 view .LVU120
 475 029c 01F18051 		add	r1, r1, #268435456
 476 02a0 8A42     		cmp	r2, r1
 477 02a2 49D0     		beq	.L7
1647:Drivers/STM32H5xx_HAL_Driver/Src/stm32h5xx_hal_dma.c ****     {
 478              		.loc 1 1647 9 discriminator 32 view .LVU121
 479 02a4 01F17041 		add	r1, r1, #-268435456
 480 02a8 01F54861 		add	r1, r1, #3200
 481 02ac 8A42     		cmp	r2, r1
 482 02ae 43D0     		beq	.L7
1647:Drivers/STM32H5xx_HAL_Driver/Src/stm32h5xx_hal_dma.c ****     {
 483              		.loc 1 1647 9 discriminator 34 view .LVU122
 484 02b0 01F18051 		add	r1, r1, #268435456
 485 02b4 8A42     		cmp	r2, r1
 486 02b6 3FD0     		beq	.L7
1647:Drivers/STM32H5xx_HAL_Driver/Src/stm32h5xx_hal_dma.c ****     {
 487              		.loc 1 1647 9 discriminator 36 view .LVU123
 488 02b8 01F17041 		add	r1, r1, #-268435456
 489 02bc 8031     		adds	r1, r1, #128
 490 02be 8A42     		cmp	r2, r1
 491 02c0 3AD0     		beq	.L7
1647:Drivers/STM32H5xx_HAL_Driver/Src/stm32h5xx_hal_dma.c ****     {
 492              		.loc 1 1647 9 discriminator 38 view .LVU124
 493 02c2 01F18051 		add	r1, r1, #268435456
 494 02c6 8A42     		cmp	r2, r1
 495 02c8 36D0     		beq	.L7
1647:Drivers/STM32H5xx_HAL_Driver/Src/stm32h5xx_hal_dma.c ****     {
 496              		.loc 1 1647 9 discriminator 40 view .LVU125
 497 02ca 01F17041 		add	r1, r1, #-268435456
 498 02ce 8031     		adds	r1, r1, #128
 499 02d0 8A42     		cmp	r2, r1
 500 02d2 31D0     		beq	.L7
1647:Drivers/STM32H5xx_HAL_Driver/Src/stm32h5xx_hal_dma.c ****     {
 501              		.loc 1 1647 9 discriminator 42 view .LVU126
 502 02d4 01F18051 		add	r1, r1, #268435456
 503 02d8 8A42     		cmp	r2, r1
 504 02da 2DD0     		beq	.L7
1647:Drivers/STM32H5xx_HAL_Driver/Src/stm32h5xx_hal_dma.c ****     {
 505              		.loc 1 1647 9 discriminator 44 view .LVU127
 506 02dc 01F17041 		add	r1, r1, #-268435456
 507 02e0 8031     		adds	r1, r1, #128
 508 02e2 8A42     		cmp	r2, r1
 509 02e4 28D0     		beq	.L7
1647:Drivers/STM32H5xx_HAL_Driver/Src/stm32h5xx_hal_dma.c ****     {
 510              		.loc 1 1647 9 discriminator 46 view .LVU128
 511 02e6 01F18051 		add	r1, r1, #268435456
 512 02ea 8A42     		cmp	r2, r1
ARM GAS  C:\Users\sapph\AppData\Local\Temp\ccTfCvBa.s 			page 40


 513 02ec 24D0     		beq	.L7
1647:Drivers/STM32H5xx_HAL_Driver/Src/stm32h5xx_hal_dma.c ****     {
 514              		.loc 1 1647 9 discriminator 48 view .LVU129
 515 02ee 01F17041 		add	r1, r1, #-268435456
 516 02f2 8031     		adds	r1, r1, #128
 517 02f4 8A42     		cmp	r2, r1
 518 02f6 1FD0     		beq	.L7
1647:Drivers/STM32H5xx_HAL_Driver/Src/stm32h5xx_hal_dma.c ****     {
 519              		.loc 1 1647 9 discriminator 50 view .LVU130
 520 02f8 01F18051 		add	r1, r1, #268435456
 521 02fc 8A42     		cmp	r2, r1
 522 02fe 1BD0     		beq	.L7
1647:Drivers/STM32H5xx_HAL_Driver/Src/stm32h5xx_hal_dma.c ****     {
 523              		.loc 1 1647 9 discriminator 52 view .LVU131
 524 0300 01F17041 		add	r1, r1, #-268435456
 525 0304 8031     		adds	r1, r1, #128
 526 0306 8A42     		cmp	r2, r1
 527 0308 16D0     		beq	.L7
1647:Drivers/STM32H5xx_HAL_Driver/Src/stm32h5xx_hal_dma.c ****     {
 528              		.loc 1 1647 9 discriminator 54 view .LVU132
 529 030a 01F18051 		add	r1, r1, #268435456
 530 030e 8A42     		cmp	r2, r1
 531 0310 12D0     		beq	.L7
1647:Drivers/STM32H5xx_HAL_Driver/Src/stm32h5xx_hal_dma.c ****     {
 532              		.loc 1 1647 9 discriminator 56 view .LVU133
 533 0312 01F17041 		add	r1, r1, #-268435456
 534 0316 8031     		adds	r1, r1, #128
 535 0318 8A42     		cmp	r2, r1
 536 031a 0DD0     		beq	.L7
1647:Drivers/STM32H5xx_HAL_Driver/Src/stm32h5xx_hal_dma.c ****     {
 537              		.loc 1 1647 9 discriminator 58 view .LVU134
 538 031c 01F18051 		add	r1, r1, #268435456
 539 0320 8A42     		cmp	r2, r1
 540 0322 09D0     		beq	.L7
1647:Drivers/STM32H5xx_HAL_Driver/Src/stm32h5xx_hal_dma.c ****     {
 541              		.loc 1 1647 9 discriminator 60 view .LVU135
 542 0324 01F17041 		add	r1, r1, #-268435456
 543 0328 8031     		adds	r1, r1, #128
 544 032a 8A42     		cmp	r2, r1
 545 032c 04D0     		beq	.L7
1647:Drivers/STM32H5xx_HAL_Driver/Src/stm32h5xx_hal_dma.c ****     {
 546              		.loc 1 1647 9 discriminator 62 view .LVU136
 547 032e 01F18051 		add	r1, r1, #268435456
 548 0332 8A42     		cmp	r2, r1
 549 0334 7FF428AF 		bne	.L8
 550              	.L7:
1649:Drivers/STM32H5xx_HAL_Driver/Src/stm32h5xx_hal_dma.c ****     }
 551              		.loc 1 1649 7 is_stmt 1 view .LVU137
1649:Drivers/STM32H5xx_HAL_Driver/Src/stm32h5xx_hal_dma.c ****     }
 552              		.loc 1 1649 14 is_stmt 0 view .LVU138
 553 0338 43F48063 		orr	r3, r3, #1024
 554              	.LVL11:
1649:Drivers/STM32H5xx_HAL_Driver/Src/stm32h5xx_hal_dma.c ****     }
 555              		.loc 1 1649 14 view .LVU139
 556 033c 24E7     		b	.L8
 557              	.L13:
1655:Drivers/STM32H5xx_HAL_Driver/Src/stm32h5xx_hal_dma.c ****   }
ARM GAS  C:\Users\sapph\AppData\Local\Temp\ccTfCvBa.s 			page 41


 558              		.loc 1 1655 5 is_stmt 1 view .LVU140
1655:Drivers/STM32H5xx_HAL_Driver/Src/stm32h5xx_hal_dma.c ****   }
 559              		.loc 1 1655 12 is_stmt 0 view .LVU141
 560 033e 43F40073 		orr	r3, r3, #512
 561              	.LVL12:
1655:Drivers/STM32H5xx_HAL_Driver/Src/stm32h5xx_hal_dma.c ****   }
 562              		.loc 1 1655 12 view .LVU142
 563 0342 21E7     		b	.L8
 564              	.L17:
 565              		.align	2
 566              	.L16:
 567 0344 50000240 		.word	1073872976
 568              		.cfi_endproc
 569              	.LFE176:
 571              		.section	.text.HAL_DMA_Init,"ax",%progbits
 572              		.align	1
 573              		.global	HAL_DMA_Init
 574              		.syntax unified
 575              		.thumb
 576              		.thumb_func
 578              	HAL_DMA_Init:
 579              	.LVL13:
 580              	.LFB160:
 243:Drivers/STM32H5xx_HAL_Driver/Src/stm32h5xx_hal_dma.c ****   /* Get tick number */
 581              		.loc 1 243 1 is_stmt 1 view -0
 582              		.cfi_startproc
 583              		@ args = 0, pretend = 0, frame = 0
 584              		@ frame_needed = 0, uses_anonymous_args = 0
 243:Drivers/STM32H5xx_HAL_Driver/Src/stm32h5xx_hal_dma.c ****   /* Get tick number */
 585              		.loc 1 243 1 is_stmt 0 view .LVU144
 586 0000 38B5     		push	{r3, r4, r5, lr}
 587              		.cfi_def_cfa_offset 16
 588              		.cfi_offset 3, -16
 589              		.cfi_offset 4, -12
 590              		.cfi_offset 5, -8
 591              		.cfi_offset 14, -4
 592 0002 0446     		mov	r4, r0
 245:Drivers/STM32H5xx_HAL_Driver/Src/stm32h5xx_hal_dma.c **** 
 593              		.loc 1 245 3 is_stmt 1 view .LVU145
 245:Drivers/STM32H5xx_HAL_Driver/Src/stm32h5xx_hal_dma.c **** 
 594              		.loc 1 245 24 is_stmt 0 view .LVU146
 595 0004 FFF7FEFF 		bl	HAL_GetTick
 596              	.LVL14:
 248:Drivers/STM32H5xx_HAL_Driver/Src/stm32h5xx_hal_dma.c ****   {
 597              		.loc 1 248 3 is_stmt 1 view .LVU147
 248:Drivers/STM32H5xx_HAL_Driver/Src/stm32h5xx_hal_dma.c ****   {
 598              		.loc 1 248 6 is_stmt 0 view .LVU148
 599 0008 3CB3     		cbz	r4, .L22
 600 000a 0546     		mov	r5, r0
 254:Drivers/STM32H5xx_HAL_Driver/Src/stm32h5xx_hal_dma.c ****   assert_param(IS_DMA_DIRECTION(hdma->Init.Direction));
 601              		.loc 1 254 3 is_stmt 1 view .LVU149
 255:Drivers/STM32H5xx_HAL_Driver/Src/stm32h5xx_hal_dma.c ****   if (hdma->Init.Direction != DMA_MEMORY_TO_MEMORY)
 602              		.loc 1 255 3 view .LVU150
 256:Drivers/STM32H5xx_HAL_Driver/Src/stm32h5xx_hal_dma.c ****   {
 603              		.loc 1 256 3 view .LVU151
 258:Drivers/STM32H5xx_HAL_Driver/Src/stm32h5xx_hal_dma.c ****   }
 604              		.loc 1 258 5 view .LVU152
ARM GAS  C:\Users\sapph\AppData\Local\Temp\ccTfCvBa.s 			page 42


 260:Drivers/STM32H5xx_HAL_Driver/Src/stm32h5xx_hal_dma.c ****   assert_param(IS_DMA_SOURCE_INC(hdma->Init.SrcInc));
 605              		.loc 1 260 3 view .LVU153
 261:Drivers/STM32H5xx_HAL_Driver/Src/stm32h5xx_hal_dma.c ****   assert_param(IS_DMA_DESTINATION_INC(hdma->Init.DestInc));
 606              		.loc 1 261 3 view .LVU154
 262:Drivers/STM32H5xx_HAL_Driver/Src/stm32h5xx_hal_dma.c ****   assert_param(IS_DMA_SOURCE_DATA_WIDTH(hdma->Init.SrcDataWidth));
 607              		.loc 1 262 3 view .LVU155
 263:Drivers/STM32H5xx_HAL_Driver/Src/stm32h5xx_hal_dma.c ****   assert_param(IS_DMA_DESTINATION_DATA_WIDTH(hdma->Init.DestDataWidth));
 608              		.loc 1 263 3 view .LVU156
 264:Drivers/STM32H5xx_HAL_Driver/Src/stm32h5xx_hal_dma.c ****   assert_param(IS_DMA_PRIORITY(hdma->Init.Priority));
 609              		.loc 1 264 3 view .LVU157
 265:Drivers/STM32H5xx_HAL_Driver/Src/stm32h5xx_hal_dma.c ****   assert_param(IS_DMA_TCEM_EVENT_MODE(hdma->Init.TransferEventMode));
 610              		.loc 1 265 3 view .LVU158
 266:Drivers/STM32H5xx_HAL_Driver/Src/stm32h5xx_hal_dma.c ****   assert_param(IS_DMA_MODE(hdma->Init.Mode));
 611              		.loc 1 266 3 view .LVU159
 267:Drivers/STM32H5xx_HAL_Driver/Src/stm32h5xx_hal_dma.c ****   if (hdma->Init.Mode == DMA_PFCTRL)
 612              		.loc 1 267 3 view .LVU160
 268:Drivers/STM32H5xx_HAL_Driver/Src/stm32h5xx_hal_dma.c ****   {
 613              		.loc 1 268 3 view .LVU161
 270:Drivers/STM32H5xx_HAL_Driver/Src/stm32h5xx_hal_dma.c ****   }
 614              		.loc 1 270 5 view .LVU162
 273:Drivers/STM32H5xx_HAL_Driver/Src/stm32h5xx_hal_dma.c ****   {
 615              		.loc 1 273 3 view .LVU163
 273:Drivers/STM32H5xx_HAL_Driver/Src/stm32h5xx_hal_dma.c ****   {
 616              		.loc 1 273 7 is_stmt 0 view .LVU164
 617 000c 2268     		ldr	r2, [r4]
 275:Drivers/STM32H5xx_HAL_Driver/Src/stm32h5xx_hal_dma.c ****     assert_param(IS_DMA_BURST_LENGTH(hdma->Init.DestBurstLength));
 618              		.loc 1 275 5 is_stmt 1 view .LVU165
 276:Drivers/STM32H5xx_HAL_Driver/Src/stm32h5xx_hal_dma.c ****     assert_param(IS_DMA_TRANSFER_ALLOCATED_PORT(hdma->Init.TransferAllocatedPort));
 619              		.loc 1 276 5 view .LVU166
 277:Drivers/STM32H5xx_HAL_Driver/Src/stm32h5xx_hal_dma.c ****   }
 620              		.loc 1 277 5 view .LVU167
 281:Drivers/STM32H5xx_HAL_Driver/Src/stm32h5xx_hal_dma.c **** 
 621              		.loc 1 281 3 view .LVU168
 281:Drivers/STM32H5xx_HAL_Driver/Src/stm32h5xx_hal_dma.c **** 
 622              		.loc 1 281 3 view .LVU169
 623 000e 0023     		movs	r3, #0
 624 0010 84F84C30 		strb	r3, [r4, #76]
 281:Drivers/STM32H5xx_HAL_Driver/Src/stm32h5xx_hal_dma.c **** 
 625              		.loc 1 281 3 view .LVU170
 284:Drivers/STM32H5xx_HAL_Driver/Src/stm32h5xx_hal_dma.c **** 
 626              		.loc 1 284 3 view .LVU171
 284:Drivers/STM32H5xx_HAL_Driver/Src/stm32h5xx_hal_dma.c **** 
 627              		.loc 1 284 15 is_stmt 0 view .LVU172
 628 0014 0223     		movs	r3, #2
 629 0016 84F85430 		strb	r3, [r4, #84]
 287:Drivers/STM32H5xx_HAL_Driver/Src/stm32h5xx_hal_dma.c **** 
 630              		.loc 1 287 3 is_stmt 1 view .LVU173
 631 001a 5369     		ldr	r3, [r2, #20]
 632 001c 43F00603 		orr	r3, r3, #6
 633 0020 5361     		str	r3, [r2, #20]
 290:Drivers/STM32H5xx_HAL_Driver/Src/stm32h5xx_hal_dma.c ****   {
 634              		.loc 1 290 3 view .LVU174
 635              	.LVL15:
 636              	.L20:
 290:Drivers/STM32H5xx_HAL_Driver/Src/stm32h5xx_hal_dma.c ****   {
 637              		.loc 1 290 45 view .LVU175
 290:Drivers/STM32H5xx_HAL_Driver/Src/stm32h5xx_hal_dma.c ****   {
ARM GAS  C:\Users\sapph\AppData\Local\Temp\ccTfCvBa.s 			page 43


 638              		.loc 1 290 15 is_stmt 0 view .LVU176
 639 0022 2368     		ldr	r3, [r4]
 290:Drivers/STM32H5xx_HAL_Driver/Src/stm32h5xx_hal_dma.c ****   {
 640              		.loc 1 290 25 view .LVU177
 641 0024 5B69     		ldr	r3, [r3, #20]
 290:Drivers/STM32H5xx_HAL_Driver/Src/stm32h5xx_hal_dma.c ****   {
 642              		.loc 1 290 45 view .LVU178
 643 0026 13F0010F 		tst	r3, #1
 644 002a 0BD0     		beq	.L24
 293:Drivers/STM32H5xx_HAL_Driver/Src/stm32h5xx_hal_dma.c ****     {
 645              		.loc 1 293 5 is_stmt 1 view .LVU179
 293:Drivers/STM32H5xx_HAL_Driver/Src/stm32h5xx_hal_dma.c ****     {
 646              		.loc 1 293 10 is_stmt 0 view .LVU180
 647 002c FFF7FEFF 		bl	HAL_GetTick
 648              	.LVL16:
 293:Drivers/STM32H5xx_HAL_Driver/Src/stm32h5xx_hal_dma.c ****     {
 649              		.loc 1 293 24 discriminator 1 view .LVU181
 650 0030 431B     		subs	r3, r0, r5
 293:Drivers/STM32H5xx_HAL_Driver/Src/stm32h5xx_hal_dma.c ****     {
 651              		.loc 1 293 8 discriminator 1 view .LVU182
 652 0032 052B     		cmp	r3, #5
 653 0034 F5D9     		bls	.L20
 296:Drivers/STM32H5xx_HAL_Driver/Src/stm32h5xx_hal_dma.c **** 
 654              		.loc 1 296 7 is_stmt 1 view .LVU183
 296:Drivers/STM32H5xx_HAL_Driver/Src/stm32h5xx_hal_dma.c **** 
 655              		.loc 1 296 23 is_stmt 0 view .LVU184
 656 0036 1023     		movs	r3, #16
 657 0038 A365     		str	r3, [r4, #88]
 299:Drivers/STM32H5xx_HAL_Driver/Src/stm32h5xx_hal_dma.c **** 
 658              		.loc 1 299 7 is_stmt 1 view .LVU185
 299:Drivers/STM32H5xx_HAL_Driver/Src/stm32h5xx_hal_dma.c **** 
 659              		.loc 1 299 19 is_stmt 0 view .LVU186
 660 003a 0323     		movs	r3, #3
 661 003c 84F85430 		strb	r3, [r4, #84]
 301:Drivers/STM32H5xx_HAL_Driver/Src/stm32h5xx_hal_dma.c ****     }
 662              		.loc 1 301 7 is_stmt 1 view .LVU187
 301:Drivers/STM32H5xx_HAL_Driver/Src/stm32h5xx_hal_dma.c ****     }
 663              		.loc 1 301 14 is_stmt 0 view .LVU188
 664 0040 0120     		movs	r0, #1
 665 0042 09E0     		b	.L19
 666              	.L24:
 306:Drivers/STM32H5xx_HAL_Driver/Src/stm32h5xx_hal_dma.c **** 
 667              		.loc 1 306 3 is_stmt 1 view .LVU189
 668 0044 2046     		mov	r0, r4
 669 0046 FFF7FEFF 		bl	DMA_Init
 670              	.LVL17:
 309:Drivers/STM32H5xx_HAL_Driver/Src/stm32h5xx_hal_dma.c **** 
 671              		.loc 1 309 3 view .LVU190
 309:Drivers/STM32H5xx_HAL_Driver/Src/stm32h5xx_hal_dma.c **** 
 672              		.loc 1 309 26 is_stmt 0 view .LVU191
 673 004a 636B     		ldr	r3, [r4, #52]
 309:Drivers/STM32H5xx_HAL_Driver/Src/stm32h5xx_hal_dma.c **** 
 674              		.loc 1 309 14 view .LVU192
 675 004c 2365     		str	r3, [r4, #80]
 312:Drivers/STM32H5xx_HAL_Driver/Src/stm32h5xx_hal_dma.c **** 
 676              		.loc 1 312 3 is_stmt 1 view .LVU193
 312:Drivers/STM32H5xx_HAL_Driver/Src/stm32h5xx_hal_dma.c **** 
ARM GAS  C:\Users\sapph\AppData\Local\Temp\ccTfCvBa.s 			page 44


 677              		.loc 1 312 19 is_stmt 0 view .LVU194
 678 004e 0020     		movs	r0, #0
 679 0050 A065     		str	r0, [r4, #88]
 315:Drivers/STM32H5xx_HAL_Driver/Src/stm32h5xx_hal_dma.c **** 
 680              		.loc 1 315 3 is_stmt 1 view .LVU195
 315:Drivers/STM32H5xx_HAL_Driver/Src/stm32h5xx_hal_dma.c **** 
 681              		.loc 1 315 15 is_stmt 0 view .LVU196
 682 0052 0123     		movs	r3, #1
 683 0054 84F85430 		strb	r3, [r4, #84]
 317:Drivers/STM32H5xx_HAL_Driver/Src/stm32h5xx_hal_dma.c **** }
 684              		.loc 1 317 3 is_stmt 1 view .LVU197
 685              	.LVL18:
 686              	.L19:
 318:Drivers/STM32H5xx_HAL_Driver/Src/stm32h5xx_hal_dma.c **** 
 687              		.loc 1 318 1 is_stmt 0 view .LVU198
 688 0058 38BD     		pop	{r3, r4, r5, pc}
 689              	.LVL19:
 690              	.L22:
 250:Drivers/STM32H5xx_HAL_Driver/Src/stm32h5xx_hal_dma.c ****   }
 691              		.loc 1 250 12 view .LVU199
 692 005a 0120     		movs	r0, #1
 693              	.LVL20:
 250:Drivers/STM32H5xx_HAL_Driver/Src/stm32h5xx_hal_dma.c ****   }
 694              		.loc 1 250 12 view .LVU200
 695 005c FCE7     		b	.L19
 696              		.cfi_endproc
 697              	.LFE160:
 699              		.section	.text.HAL_DMA_DeInit,"ax",%progbits
 700              		.align	1
 701              		.global	HAL_DMA_DeInit
 702              		.syntax unified
 703              		.thumb
 704              		.thumb_func
 706              	HAL_DMA_DeInit:
 707              	.LVL21:
 708              	.LFB161:
 327:Drivers/STM32H5xx_HAL_Driver/Src/stm32h5xx_hal_dma.c **** 
 709              		.loc 1 327 1 is_stmt 1 view -0
 710              		.cfi_startproc
 711              		@ args = 0, pretend = 0, frame = 0
 712              		@ frame_needed = 0, uses_anonymous_args = 0
 327:Drivers/STM32H5xx_HAL_Driver/Src/stm32h5xx_hal_dma.c **** 
 713              		.loc 1 327 1 is_stmt 0 view .LVU202
 714 0000 70B5     		push	{r4, r5, r6, lr}
 715              		.cfi_def_cfa_offset 16
 716              		.cfi_offset 4, -16
 717              		.cfi_offset 5, -12
 718              		.cfi_offset 6, -8
 719              		.cfi_offset 14, -4
 720 0002 0446     		mov	r4, r0
 329:Drivers/STM32H5xx_HAL_Driver/Src/stm32h5xx_hal_dma.c **** 
 721              		.loc 1 329 3 is_stmt 1 view .LVU203
 331:Drivers/STM32H5xx_HAL_Driver/Src/stm32h5xx_hal_dma.c **** 
 722              		.loc 1 331 3 view .LVU204
 331:Drivers/STM32H5xx_HAL_Driver/Src/stm32h5xx_hal_dma.c **** 
 723              		.loc 1 331 24 is_stmt 0 view .LVU205
 724 0004 FFF7FEFF 		bl	HAL_GetTick
ARM GAS  C:\Users\sapph\AppData\Local\Temp\ccTfCvBa.s 			page 45


 725              	.LVL22:
 334:Drivers/STM32H5xx_HAL_Driver/Src/stm32h5xx_hal_dma.c ****   {
 726              		.loc 1 334 3 is_stmt 1 view .LVU206
 334:Drivers/STM32H5xx_HAL_Driver/Src/stm32h5xx_hal_dma.c ****   {
 727              		.loc 1 334 6 is_stmt 0 view .LVU207
 728 0008 002C     		cmp	r4, #0
 729 000a 76D0     		beq	.L32
 730 000c 0546     		mov	r5, r0
 340:Drivers/STM32H5xx_HAL_Driver/Src/stm32h5xx_hal_dma.c **** 
 731              		.loc 1 340 3 is_stmt 1 view .LVU208
 343:Drivers/STM32H5xx_HAL_Driver/Src/stm32h5xx_hal_dma.c **** 
 732              		.loc 1 343 3 view .LVU209
 343:Drivers/STM32H5xx_HAL_Driver/Src/stm32h5xx_hal_dma.c **** 
 733              		.loc 1 343 20 is_stmt 0 view .LVU210
 734 000e 2368     		ldr	r3, [r4]
 735 0010 23F47F66 		bic	r6, r3, #4080
 736 0014 26F00F06 		bic	r6, r6, #15
 737              	.LVL23:
 346:Drivers/STM32H5xx_HAL_Driver/Src/stm32h5xx_hal_dma.c **** 
 738              		.loc 1 346 3 is_stmt 1 view .LVU211
 739 0018 5A69     		ldr	r2, [r3, #20]
 740 001a 42F00602 		orr	r2, r2, #6
 741 001e 5A61     		str	r2, [r3, #20]
 349:Drivers/STM32H5xx_HAL_Driver/Src/stm32h5xx_hal_dma.c ****   {
 742              		.loc 1 349 3 view .LVU212
 743              	.LVL24:
 744              	.L27:
 349:Drivers/STM32H5xx_HAL_Driver/Src/stm32h5xx_hal_dma.c ****   {
 745              		.loc 1 349 45 view .LVU213
 349:Drivers/STM32H5xx_HAL_Driver/Src/stm32h5xx_hal_dma.c ****   {
 746              		.loc 1 349 15 is_stmt 0 view .LVU214
 747 0020 2368     		ldr	r3, [r4]
 349:Drivers/STM32H5xx_HAL_Driver/Src/stm32h5xx_hal_dma.c ****   {
 748              		.loc 1 349 25 view .LVU215
 749 0022 5A69     		ldr	r2, [r3, #20]
 349:Drivers/STM32H5xx_HAL_Driver/Src/stm32h5xx_hal_dma.c ****   {
 750              		.loc 1 349 45 view .LVU216
 751 0024 12F0010F 		tst	r2, #1
 752 0028 0BD0     		beq	.L34
 352:Drivers/STM32H5xx_HAL_Driver/Src/stm32h5xx_hal_dma.c ****     {
 753              		.loc 1 352 5 is_stmt 1 view .LVU217
 352:Drivers/STM32H5xx_HAL_Driver/Src/stm32h5xx_hal_dma.c ****     {
 754              		.loc 1 352 10 is_stmt 0 view .LVU218
 755 002a FFF7FEFF 		bl	HAL_GetTick
 756              	.LVL25:
 352:Drivers/STM32H5xx_HAL_Driver/Src/stm32h5xx_hal_dma.c ****     {
 757              		.loc 1 352 24 discriminator 1 view .LVU219
 758 002e 431B     		subs	r3, r0, r5
 352:Drivers/STM32H5xx_HAL_Driver/Src/stm32h5xx_hal_dma.c ****     {
 759              		.loc 1 352 8 discriminator 1 view .LVU220
 760 0030 052B     		cmp	r3, #5
 761 0032 F5D9     		bls	.L27
 355:Drivers/STM32H5xx_HAL_Driver/Src/stm32h5xx_hal_dma.c **** 
 762              		.loc 1 355 7 is_stmt 1 view .LVU221
 355:Drivers/STM32H5xx_HAL_Driver/Src/stm32h5xx_hal_dma.c **** 
 763              		.loc 1 355 23 is_stmt 0 view .LVU222
 764 0034 1023     		movs	r3, #16
ARM GAS  C:\Users\sapph\AppData\Local\Temp\ccTfCvBa.s 			page 46


 765 0036 A365     		str	r3, [r4, #88]
 358:Drivers/STM32H5xx_HAL_Driver/Src/stm32h5xx_hal_dma.c **** 
 766              		.loc 1 358 7 is_stmt 1 view .LVU223
 358:Drivers/STM32H5xx_HAL_Driver/Src/stm32h5xx_hal_dma.c **** 
 767              		.loc 1 358 19 is_stmt 0 view .LVU224
 768 0038 0323     		movs	r3, #3
 769 003a 84F85430 		strb	r3, [r4, #84]
 360:Drivers/STM32H5xx_HAL_Driver/Src/stm32h5xx_hal_dma.c ****     }
 770              		.loc 1 360 7 is_stmt 1 view .LVU225
 360:Drivers/STM32H5xx_HAL_Driver/Src/stm32h5xx_hal_dma.c ****     }
 771              		.loc 1 360 14 is_stmt 0 view .LVU226
 772 003e 0120     		movs	r0, #1
 773 0040 5AE0     		b	.L26
 774              	.L34:
 365:Drivers/STM32H5xx_HAL_Driver/Src/stm32h5xx_hal_dma.c ****   hdma->Instance->CCR   = 0U;
 775              		.loc 1 365 3 is_stmt 1 view .LVU227
 365:Drivers/STM32H5xx_HAL_Driver/Src/stm32h5xx_hal_dma.c ****   hdma->Instance->CCR   = 0U;
 776              		.loc 1 365 25 is_stmt 0 view .LVU228
 777 0042 0022     		movs	r2, #0
 778 0044 1A60     		str	r2, [r3]
 366:Drivers/STM32H5xx_HAL_Driver/Src/stm32h5xx_hal_dma.c ****   hdma->Instance->CTR1  = 0U;
 779              		.loc 1 366 3 is_stmt 1 view .LVU229
 366:Drivers/STM32H5xx_HAL_Driver/Src/stm32h5xx_hal_dma.c ****   hdma->Instance->CTR1  = 0U;
 780              		.loc 1 366 7 is_stmt 0 view .LVU230
 781 0046 2368     		ldr	r3, [r4]
 366:Drivers/STM32H5xx_HAL_Driver/Src/stm32h5xx_hal_dma.c ****   hdma->Instance->CTR1  = 0U;
 782              		.loc 1 366 25 view .LVU231
 783 0048 5A61     		str	r2, [r3, #20]
 367:Drivers/STM32H5xx_HAL_Driver/Src/stm32h5xx_hal_dma.c ****   hdma->Instance->CTR2  = 0U;
 784              		.loc 1 367 3 is_stmt 1 view .LVU232
 367:Drivers/STM32H5xx_HAL_Driver/Src/stm32h5xx_hal_dma.c ****   hdma->Instance->CTR2  = 0U;
 785              		.loc 1 367 7 is_stmt 0 view .LVU233
 786 004a 2368     		ldr	r3, [r4]
 367:Drivers/STM32H5xx_HAL_Driver/Src/stm32h5xx_hal_dma.c ****   hdma->Instance->CTR2  = 0U;
 787              		.loc 1 367 25 view .LVU234
 788 004c 1A64     		str	r2, [r3, #64]
 368:Drivers/STM32H5xx_HAL_Driver/Src/stm32h5xx_hal_dma.c ****   hdma->Instance->CBR1  = 0U;
 789              		.loc 1 368 3 is_stmt 1 view .LVU235
 368:Drivers/STM32H5xx_HAL_Driver/Src/stm32h5xx_hal_dma.c ****   hdma->Instance->CBR1  = 0U;
 790              		.loc 1 368 7 is_stmt 0 view .LVU236
 791 004e 2368     		ldr	r3, [r4]
 368:Drivers/STM32H5xx_HAL_Driver/Src/stm32h5xx_hal_dma.c ****   hdma->Instance->CBR1  = 0U;
 792              		.loc 1 368 25 view .LVU237
 793 0050 5A64     		str	r2, [r3, #68]
 369:Drivers/STM32H5xx_HAL_Driver/Src/stm32h5xx_hal_dma.c ****   hdma->Instance->CSAR  = 0U;
 794              		.loc 1 369 3 is_stmt 1 view .LVU238
 369:Drivers/STM32H5xx_HAL_Driver/Src/stm32h5xx_hal_dma.c ****   hdma->Instance->CSAR  = 0U;
 795              		.loc 1 369 7 is_stmt 0 view .LVU239
 796 0052 2368     		ldr	r3, [r4]
 369:Drivers/STM32H5xx_HAL_Driver/Src/stm32h5xx_hal_dma.c ****   hdma->Instance->CSAR  = 0U;
 797              		.loc 1 369 25 view .LVU240
 798 0054 9A64     		str	r2, [r3, #72]
 370:Drivers/STM32H5xx_HAL_Driver/Src/stm32h5xx_hal_dma.c ****   hdma->Instance->CDAR  = 0U;
 799              		.loc 1 370 3 is_stmt 1 view .LVU241
 370:Drivers/STM32H5xx_HAL_Driver/Src/stm32h5xx_hal_dma.c ****   hdma->Instance->CDAR  = 0U;
 800              		.loc 1 370 7 is_stmt 0 view .LVU242
 801 0056 2368     		ldr	r3, [r4]
ARM GAS  C:\Users\sapph\AppData\Local\Temp\ccTfCvBa.s 			page 47


 370:Drivers/STM32H5xx_HAL_Driver/Src/stm32h5xx_hal_dma.c ****   hdma->Instance->CDAR  = 0U;
 802              		.loc 1 370 25 view .LVU243
 803 0058 DA64     		str	r2, [r3, #76]
 371:Drivers/STM32H5xx_HAL_Driver/Src/stm32h5xx_hal_dma.c ****   hdma->Instance->CLLR  = 0U;
 804              		.loc 1 371 3 is_stmt 1 view .LVU244
 371:Drivers/STM32H5xx_HAL_Driver/Src/stm32h5xx_hal_dma.c ****   hdma->Instance->CLLR  = 0U;
 805              		.loc 1 371 7 is_stmt 0 view .LVU245
 806 005a 2368     		ldr	r3, [r4]
 371:Drivers/STM32H5xx_HAL_Driver/Src/stm32h5xx_hal_dma.c ****   hdma->Instance->CLLR  = 0U;
 807              		.loc 1 371 25 view .LVU246
 808 005c 1A65     		str	r2, [r3, #80]
 372:Drivers/STM32H5xx_HAL_Driver/Src/stm32h5xx_hal_dma.c **** 
 809              		.loc 1 372 3 is_stmt 1 view .LVU247
 372:Drivers/STM32H5xx_HAL_Driver/Src/stm32h5xx_hal_dma.c **** 
 810              		.loc 1 372 7 is_stmt 0 view .LVU248
 811 005e 2368     		ldr	r3, [r4]
 372:Drivers/STM32H5xx_HAL_Driver/Src/stm32h5xx_hal_dma.c **** 
 812              		.loc 1 372 25 view .LVU249
 813 0060 DA67     		str	r2, [r3, #124]
 375:Drivers/STM32H5xx_HAL_Driver/Src/stm32h5xx_hal_dma.c ****   {
 814              		.loc 1 375 3 is_stmt 1 view .LVU250
 375:Drivers/STM32H5xx_HAL_Driver/Src/stm32h5xx_hal_dma.c ****   {
 815              		.loc 1 375 7 is_stmt 0 view .LVU251
 816 0062 2368     		ldr	r3, [r4]
 817 0064 264A     		ldr	r2, .L35
 818 0066 9342     		cmp	r3, r2
 819 0068 1FD0     		beq	.L29
 375:Drivers/STM32H5xx_HAL_Driver/Src/stm32h5xx_hal_dma.c ****   {
 820              		.loc 1 375 7 discriminator 2 view .LVU252
 821 006a 02F18052 		add	r2, r2, #268435456
 822 006e 9342     		cmp	r3, r2
 823 0070 1BD0     		beq	.L29
 375:Drivers/STM32H5xx_HAL_Driver/Src/stm32h5xx_hal_dma.c ****   {
 824              		.loc 1 375 7 discriminator 4 view .LVU253
 825 0072 02F17042 		add	r2, r2, #-268435456
 826 0076 8032     		adds	r2, r2, #128
 827 0078 9342     		cmp	r3, r2
 828 007a 16D0     		beq	.L29
 375:Drivers/STM32H5xx_HAL_Driver/Src/stm32h5xx_hal_dma.c ****   {
 829              		.loc 1 375 7 discriminator 6 view .LVU254
 830 007c 02F18052 		add	r2, r2, #268435456
 831 0080 9342     		cmp	r3, r2
 832 0082 12D0     		beq	.L29
 375:Drivers/STM32H5xx_HAL_Driver/Src/stm32h5xx_hal_dma.c ****   {
 833              		.loc 1 375 7 discriminator 8 view .LVU255
 834 0084 02F17042 		add	r2, r2, #-268435456
 835 0088 02F57862 		add	r2, r2, #3968
 836 008c 9342     		cmp	r3, r2
 837 008e 0CD0     		beq	.L29
 375:Drivers/STM32H5xx_HAL_Driver/Src/stm32h5xx_hal_dma.c ****   {
 838              		.loc 1 375 7 discriminator 10 view .LVU256
 839 0090 02F18052 		add	r2, r2, #268435456
 840 0094 9342     		cmp	r3, r2
 841 0096 08D0     		beq	.L29
 375:Drivers/STM32H5xx_HAL_Driver/Src/stm32h5xx_hal_dma.c ****   {
 842              		.loc 1 375 7 discriminator 12 view .LVU257
 843 0098 02F17042 		add	r2, r2, #-268435456
ARM GAS  C:\Users\sapph\AppData\Local\Temp\ccTfCvBa.s 			page 48


 844 009c 8032     		adds	r2, r2, #128
 845 009e 9342     		cmp	r3, r2
 846 00a0 03D0     		beq	.L29
 375:Drivers/STM32H5xx_HAL_Driver/Src/stm32h5xx_hal_dma.c ****   {
 847              		.loc 1 375 7 discriminator 14 view .LVU258
 848 00a2 02F18052 		add	r2, r2, #268435456
 849 00a6 9342     		cmp	r3, r2
 850 00a8 03D1     		bne	.L30
 851              	.L29:
 377:Drivers/STM32H5xx_HAL_Driver/Src/stm32h5xx_hal_dma.c ****     hdma->Instance->CBR2 = 0U;
 852              		.loc 1 377 5 is_stmt 1 view .LVU259
 377:Drivers/STM32H5xx_HAL_Driver/Src/stm32h5xx_hal_dma.c ****     hdma->Instance->CBR2 = 0U;
 853              		.loc 1 377 26 is_stmt 0 view .LVU260
 854 00aa 0022     		movs	r2, #0
 855 00ac 5A65     		str	r2, [r3, #84]
 378:Drivers/STM32H5xx_HAL_Driver/Src/stm32h5xx_hal_dma.c ****   }
 856              		.loc 1 378 5 is_stmt 1 view .LVU261
 378:Drivers/STM32H5xx_HAL_Driver/Src/stm32h5xx_hal_dma.c ****   }
 857              		.loc 1 378 9 is_stmt 0 view .LVU262
 858 00ae 2368     		ldr	r3, [r4]
 378:Drivers/STM32H5xx_HAL_Driver/Src/stm32h5xx_hal_dma.c ****   }
 859              		.loc 1 378 26 view .LVU263
 860 00b0 9A65     		str	r2, [r3, #88]
 861              	.L30:
 382:Drivers/STM32H5xx_HAL_Driver/Src/stm32h5xx_hal_dma.c **** 
 862              		.loc 1 382 3 is_stmt 1 view .LVU264
 863 00b2 7268     		ldr	r2, [r6, #4]
 864 00b4 2368     		ldr	r3, [r4]
 865 00b6 C3F30B03 		ubfx	r3, r3, #0, #12
 866 00ba 503B     		subs	r3, r3, #80
 867 00bc C3F3C413 		ubfx	r3, r3, #7, #5
 868 00c0 0121     		movs	r1, #1
 869 00c2 01FA03F3 		lsl	r3, r1, r3
 870 00c6 22EA0303 		bic	r3, r2, r3
 871 00ca 7360     		str	r3, [r6, #4]
 390:Drivers/STM32H5xx_HAL_Driver/Src/stm32h5xx_hal_dma.c ****                               DMA_FLAG_TO));
 872              		.loc 1 390 3 view .LVU265
 873 00cc 2368     		ldr	r3, [r4]
 874 00ce 4FF4FE42 		mov	r2, #32512
 875 00d2 DA60     		str	r2, [r3, #12]
 394:Drivers/STM32H5xx_HAL_Driver/Src/stm32h5xx_hal_dma.c ****   hdma->XferHalfCpltCallback = NULL;
 876              		.loc 1 394 3 view .LVU266
 394:Drivers/STM32H5xx_HAL_Driver/Src/stm32h5xx_hal_dma.c ****   hdma->XferHalfCpltCallback = NULL;
 877              		.loc 1 394 30 is_stmt 0 view .LVU267
 878 00d4 0023     		movs	r3, #0
 879 00d6 2366     		str	r3, [r4, #96]
 395:Drivers/STM32H5xx_HAL_Driver/Src/stm32h5xx_hal_dma.c ****   hdma->XferErrorCallback    = NULL;
 880              		.loc 1 395 3 is_stmt 1 view .LVU268
 395:Drivers/STM32H5xx_HAL_Driver/Src/stm32h5xx_hal_dma.c ****   hdma->XferErrorCallback    = NULL;
 881              		.loc 1 395 30 is_stmt 0 view .LVU269
 882 00d8 6366     		str	r3, [r4, #100]
 396:Drivers/STM32H5xx_HAL_Driver/Src/stm32h5xx_hal_dma.c ****   hdma->XferAbortCallback    = NULL;
 883              		.loc 1 396 3 is_stmt 1 view .LVU270
 396:Drivers/STM32H5xx_HAL_Driver/Src/stm32h5xx_hal_dma.c ****   hdma->XferAbortCallback    = NULL;
 884              		.loc 1 396 30 is_stmt 0 view .LVU271
 885 00da A366     		str	r3, [r4, #104]
 397:Drivers/STM32H5xx_HAL_Driver/Src/stm32h5xx_hal_dma.c ****   hdma->XferSuspendCallback  = NULL;
ARM GAS  C:\Users\sapph\AppData\Local\Temp\ccTfCvBa.s 			page 49


 886              		.loc 1 397 3 is_stmt 1 view .LVU272
 397:Drivers/STM32H5xx_HAL_Driver/Src/stm32h5xx_hal_dma.c ****   hdma->XferSuspendCallback  = NULL;
 887              		.loc 1 397 30 is_stmt 0 view .LVU273
 888 00dc E366     		str	r3, [r4, #108]
 398:Drivers/STM32H5xx_HAL_Driver/Src/stm32h5xx_hal_dma.c **** 
 889              		.loc 1 398 3 is_stmt 1 view .LVU274
 398:Drivers/STM32H5xx_HAL_Driver/Src/stm32h5xx_hal_dma.c **** 
 890              		.loc 1 398 30 is_stmt 0 view .LVU275
 891 00de 2367     		str	r3, [r4, #112]
 401:Drivers/STM32H5xx_HAL_Driver/Src/stm32h5xx_hal_dma.c **** 
 892              		.loc 1 401 3 is_stmt 1 view .LVU276
 401:Drivers/STM32H5xx_HAL_Driver/Src/stm32h5xx_hal_dma.c **** 
 893              		.loc 1 401 25 is_stmt 0 view .LVU277
 894 00e0 6367     		str	r3, [r4, #116]
 404:Drivers/STM32H5xx_HAL_Driver/Src/stm32h5xx_hal_dma.c ****   {
 895              		.loc 1 404 3 is_stmt 1 view .LVU278
 404:Drivers/STM32H5xx_HAL_Driver/Src/stm32h5xx_hal_dma.c ****   {
 896              		.loc 1 404 11 is_stmt 0 view .LVU279
 897 00e2 E36D     		ldr	r3, [r4, #92]
 404:Drivers/STM32H5xx_HAL_Driver/Src/stm32h5xx_hal_dma.c ****   {
 898              		.loc 1 404 6 view .LVU280
 899 00e4 0BB1     		cbz	r3, .L31
 406:Drivers/STM32H5xx_HAL_Driver/Src/stm32h5xx_hal_dma.c ****   }
 900              		.loc 1 406 5 is_stmt 1 view .LVU281
 406:Drivers/STM32H5xx_HAL_Driver/Src/stm32h5xx_hal_dma.c ****   }
 901              		.loc 1 406 18 is_stmt 0 view .LVU282
 902 00e6 0023     		movs	r3, #0
 903 00e8 E365     		str	r3, [r4, #92]
 904              	.L31:
 410:Drivers/STM32H5xx_HAL_Driver/Src/stm32h5xx_hal_dma.c **** 
 905              		.loc 1 410 3 is_stmt 1 view .LVU283
 410:Drivers/STM32H5xx_HAL_Driver/Src/stm32h5xx_hal_dma.c **** 
 906              		.loc 1 410 14 is_stmt 0 view .LVU284
 907 00ea 0020     		movs	r0, #0
 908 00ec 2065     		str	r0, [r4, #80]
 413:Drivers/STM32H5xx_HAL_Driver/Src/stm32h5xx_hal_dma.c **** 
 909              		.loc 1 413 3 is_stmt 1 view .LVU285
 413:Drivers/STM32H5xx_HAL_Driver/Src/stm32h5xx_hal_dma.c **** 
 910              		.loc 1 413 19 is_stmt 0 view .LVU286
 911 00ee A065     		str	r0, [r4, #88]
 416:Drivers/STM32H5xx_HAL_Driver/Src/stm32h5xx_hal_dma.c **** 
 912              		.loc 1 416 3 is_stmt 1 view .LVU287
 416:Drivers/STM32H5xx_HAL_Driver/Src/stm32h5xx_hal_dma.c **** 
 913              		.loc 1 416 15 is_stmt 0 view .LVU288
 914 00f0 84F85400 		strb	r0, [r4, #84]
 419:Drivers/STM32H5xx_HAL_Driver/Src/stm32h5xx_hal_dma.c **** 
 915              		.loc 1 419 3 is_stmt 1 view .LVU289
 419:Drivers/STM32H5xx_HAL_Driver/Src/stm32h5xx_hal_dma.c **** 
 916              		.loc 1 419 3 view .LVU290
 917 00f4 84F84C00 		strb	r0, [r4, #76]
 419:Drivers/STM32H5xx_HAL_Driver/Src/stm32h5xx_hal_dma.c **** 
 918              		.loc 1 419 3 view .LVU291
 421:Drivers/STM32H5xx_HAL_Driver/Src/stm32h5xx_hal_dma.c **** }
 919              		.loc 1 421 3 view .LVU292
 920              	.LVL26:
 921              	.L26:
 422:Drivers/STM32H5xx_HAL_Driver/Src/stm32h5xx_hal_dma.c **** /**
ARM GAS  C:\Users\sapph\AppData\Local\Temp\ccTfCvBa.s 			page 50


 922              		.loc 1 422 1 is_stmt 0 view .LVU293
 923 00f8 70BD     		pop	{r4, r5, r6, pc}
 924              	.LVL27:
 925              	.L32:
 336:Drivers/STM32H5xx_HAL_Driver/Src/stm32h5xx_hal_dma.c ****   }
 926              		.loc 1 336 12 view .LVU294
 927 00fa 0120     		movs	r0, #1
 928              	.LVL28:
 336:Drivers/STM32H5xx_HAL_Driver/Src/stm32h5xx_hal_dma.c ****   }
 929              		.loc 1 336 12 view .LVU295
 930 00fc FCE7     		b	.L26
 931              	.L36:
 932 00fe 00BF     		.align	2
 933              	.L35:
 934 0100 50030240 		.word	1073873744
 935              		.cfi_endproc
 936              	.LFE161:
 938              		.section	.text.HAL_DMA_Start,"ax",%progbits
 939              		.align	1
 940              		.global	HAL_DMA_Start
 941              		.syntax unified
 942              		.thumb
 943              		.thumb_func
 945              	HAL_DMA_Start:
 946              	.LVL29:
 947              	.LFB162:
 470:Drivers/STM32H5xx_HAL_Driver/Src/stm32h5xx_hal_dma.c ****   /* Check the DMA peripheral handle parameter */
 948              		.loc 1 470 1 is_stmt 1 view -0
 949              		.cfi_startproc
 950              		@ args = 0, pretend = 0, frame = 0
 951              		@ frame_needed = 0, uses_anonymous_args = 0
 472:Drivers/STM32H5xx_HAL_Driver/Src/stm32h5xx_hal_dma.c ****   {
 952              		.loc 1 472 3 view .LVU297
 472:Drivers/STM32H5xx_HAL_Driver/Src/stm32h5xx_hal_dma.c ****   {
 953              		.loc 1 472 6 is_stmt 0 view .LVU298
 954 0000 18B3     		cbz	r0, .L40
 470:Drivers/STM32H5xx_HAL_Driver/Src/stm32h5xx_hal_dma.c ****   /* Check the DMA peripheral handle parameter */
 955              		.loc 1 470 1 view .LVU299
 956 0002 38B5     		push	{r3, r4, r5, lr}
 957              		.cfi_def_cfa_offset 16
 958              		.cfi_offset 3, -16
 959              		.cfi_offset 4, -12
 960              		.cfi_offset 5, -8
 961              		.cfi_offset 14, -4
 962 0004 0446     		mov	r4, r0
 478:Drivers/STM32H5xx_HAL_Driver/Src/stm32h5xx_hal_dma.c **** 
 963              		.loc 1 478 3 is_stmt 1 view .LVU300
 481:Drivers/STM32H5xx_HAL_Driver/Src/stm32h5xx_hal_dma.c **** 
 964              		.loc 1 481 3 view .LVU301
 481:Drivers/STM32H5xx_HAL_Driver/Src/stm32h5xx_hal_dma.c **** 
 965              		.loc 1 481 3 view .LVU302
 966 0006 90F84C00 		ldrb	r0, [r0, #76]	@ zero_extendqisi2
 967              	.LVL30:
 481:Drivers/STM32H5xx_HAL_Driver/Src/stm32h5xx_hal_dma.c **** 
 968              		.loc 1 481 3 is_stmt 0 view .LVU303
 969 000a 0128     		cmp	r0, #1
 970 000c 1FD0     		beq	.L41
ARM GAS  C:\Users\sapph\AppData\Local\Temp\ccTfCvBa.s 			page 51


 481:Drivers/STM32H5xx_HAL_Driver/Src/stm32h5xx_hal_dma.c **** 
 971              		.loc 1 481 3 is_stmt 1 discriminator 2 view .LVU304
 972 000e 0120     		movs	r0, #1
 973 0010 84F84C00 		strb	r0, [r4, #76]
 481:Drivers/STM32H5xx_HAL_Driver/Src/stm32h5xx_hal_dma.c **** 
 974              		.loc 1 481 3 discriminator 2 view .LVU305
 484:Drivers/STM32H5xx_HAL_Driver/Src/stm32h5xx_hal_dma.c ****   {
 975              		.loc 1 484 3 view .LVU306
 484:Drivers/STM32H5xx_HAL_Driver/Src/stm32h5xx_hal_dma.c ****   {
 976              		.loc 1 484 11 is_stmt 0 view .LVU307
 977 0014 94F85400 		ldrb	r0, [r4, #84]	@ zero_extendqisi2
 978 0018 C0B2     		uxtb	r0, r0
 484:Drivers/STM32H5xx_HAL_Driver/Src/stm32h5xx_hal_dma.c ****   {
 979              		.loc 1 484 6 view .LVU308
 980 001a 0128     		cmp	r0, #1
 981 001c 06D0     		beq	.L46
 501:Drivers/STM32H5xx_HAL_Driver/Src/stm32h5xx_hal_dma.c **** 
 982              		.loc 1 501 5 is_stmt 1 view .LVU309
 501:Drivers/STM32H5xx_HAL_Driver/Src/stm32h5xx_hal_dma.c **** 
 983              		.loc 1 501 21 is_stmt 0 view .LVU310
 984 001e 4023     		movs	r3, #64
 985              	.LVL31:
 501:Drivers/STM32H5xx_HAL_Driver/Src/stm32h5xx_hal_dma.c **** 
 986              		.loc 1 501 21 view .LVU311
 987 0020 A365     		str	r3, [r4, #88]
 504:Drivers/STM32H5xx_HAL_Driver/Src/stm32h5xx_hal_dma.c **** 
 988              		.loc 1 504 5 is_stmt 1 view .LVU312
 504:Drivers/STM32H5xx_HAL_Driver/Src/stm32h5xx_hal_dma.c **** 
 989              		.loc 1 504 5 view .LVU313
 990 0022 0023     		movs	r3, #0
 991 0024 84F84C30 		strb	r3, [r4, #76]
 504:Drivers/STM32H5xx_HAL_Driver/Src/stm32h5xx_hal_dma.c **** 
 992              		.loc 1 504 5 view .LVU314
 506:Drivers/STM32H5xx_HAL_Driver/Src/stm32h5xx_hal_dma.c ****   }
 993              		.loc 1 506 5 view .LVU315
 506:Drivers/STM32H5xx_HAL_Driver/Src/stm32h5xx_hal_dma.c ****   }
 994              		.loc 1 506 12 is_stmt 0 view .LVU316
 995 0028 0120     		movs	r0, #1
 996              	.LVL32:
 997              	.L38:
 510:Drivers/STM32H5xx_HAL_Driver/Src/stm32h5xx_hal_dma.c **** 
 998              		.loc 1 510 1 view .LVU317
 999 002a 38BD     		pop	{r3, r4, r5, pc}
 1000              	.LVL33:
 1001              	.L46:
 487:Drivers/STM32H5xx_HAL_Driver/Src/stm32h5xx_hal_dma.c **** 
 1002              		.loc 1 487 5 is_stmt 1 view .LVU318
 487:Drivers/STM32H5xx_HAL_Driver/Src/stm32h5xx_hal_dma.c **** 
 1003              		.loc 1 487 17 is_stmt 0 view .LVU319
 1004 002c 0220     		movs	r0, #2
 1005 002e 84F85400 		strb	r0, [r4, #84]
 490:Drivers/STM32H5xx_HAL_Driver/Src/stm32h5xx_hal_dma.c **** 
 1006              		.loc 1 490 5 is_stmt 1 view .LVU320
 490:Drivers/STM32H5xx_HAL_Driver/Src/stm32h5xx_hal_dma.c **** 
 1007              		.loc 1 490 21 is_stmt 0 view .LVU321
 1008 0032 0025     		movs	r5, #0
 1009 0034 A565     		str	r5, [r4, #88]
ARM GAS  C:\Users\sapph\AppData\Local\Temp\ccTfCvBa.s 			page 52


 493:Drivers/STM32H5xx_HAL_Driver/Src/stm32h5xx_hal_dma.c **** 
 1010              		.loc 1 493 5 is_stmt 1 view .LVU322
 1011 0036 2046     		mov	r0, r4
 1012 0038 FFF7FEFF 		bl	DMA_SetConfig
 1013              	.LVL34:
 496:Drivers/STM32H5xx_HAL_Driver/Src/stm32h5xx_hal_dma.c ****   }
 1014              		.loc 1 496 5 view .LVU323
 1015 003c 2268     		ldr	r2, [r4]
 1016 003e 5369     		ldr	r3, [r2, #20]
 1017 0040 43F00103 		orr	r3, r3, #1
 1018 0044 5361     		str	r3, [r2, #20]
 509:Drivers/STM32H5xx_HAL_Driver/Src/stm32h5xx_hal_dma.c **** }
 1019              		.loc 1 509 3 view .LVU324
 509:Drivers/STM32H5xx_HAL_Driver/Src/stm32h5xx_hal_dma.c **** }
 1020              		.loc 1 509 10 is_stmt 0 view .LVU325
 1021 0046 2846     		mov	r0, r5
 1022 0048 EFE7     		b	.L38
 1023              	.LVL35:
 1024              	.L40:
 1025              		.cfi_def_cfa_offset 0
 1026              		.cfi_restore 3
 1027              		.cfi_restore 4
 1028              		.cfi_restore 5
 1029              		.cfi_restore 14
 474:Drivers/STM32H5xx_HAL_Driver/Src/stm32h5xx_hal_dma.c ****   }
 1030              		.loc 1 474 12 view .LVU326
 1031 004a 0120     		movs	r0, #1
 1032              	.LVL36:
 510:Drivers/STM32H5xx_HAL_Driver/Src/stm32h5xx_hal_dma.c **** 
 1033              		.loc 1 510 1 view .LVU327
 1034 004c 7047     		bx	lr
 1035              	.LVL37:
 1036              	.L41:
 1037              		.cfi_def_cfa_offset 16
 1038              		.cfi_offset 3, -16
 1039              		.cfi_offset 4, -12
 1040              		.cfi_offset 5, -8
 1041              		.cfi_offset 14, -4
 481:Drivers/STM32H5xx_HAL_Driver/Src/stm32h5xx_hal_dma.c **** 
 1042              		.loc 1 481 3 discriminator 1 view .LVU328
 1043 004e 0220     		movs	r0, #2
 1044 0050 EBE7     		b	.L38
 1045              		.cfi_endproc
 1046              	.LFE162:
 1048              		.section	.text.HAL_DMA_Start_IT,"ax",%progbits
 1049              		.align	1
 1050              		.global	HAL_DMA_Start_IT
 1051              		.syntax unified
 1052              		.thumb
 1053              		.thumb_func
 1055              	HAL_DMA_Start_IT:
 1056              	.LVL38:
 1057              	.LFB163:
 525:Drivers/STM32H5xx_HAL_Driver/Src/stm32h5xx_hal_dma.c ****   /* Check the DMA peripheral handle parameter */
 1058              		.loc 1 525 1 is_stmt 1 view -0
 1059              		.cfi_startproc
 1060              		@ args = 0, pretend = 0, frame = 0
ARM GAS  C:\Users\sapph\AppData\Local\Temp\ccTfCvBa.s 			page 53


 1061              		@ frame_needed = 0, uses_anonymous_args = 0
 527:Drivers/STM32H5xx_HAL_Driver/Src/stm32h5xx_hal_dma.c ****   {
 1062              		.loc 1 527 3 view .LVU330
 527:Drivers/STM32H5xx_HAL_Driver/Src/stm32h5xx_hal_dma.c ****   {
 1063              		.loc 1 527 6 is_stmt 0 view .LVU331
 1064 0000 0028     		cmp	r0, #0
 1065 0002 36D0     		beq	.L52
 525:Drivers/STM32H5xx_HAL_Driver/Src/stm32h5xx_hal_dma.c ****   /* Check the DMA peripheral handle parameter */
 1066              		.loc 1 525 1 view .LVU332
 1067 0004 10B5     		push	{r4, lr}
 1068              		.cfi_def_cfa_offset 8
 1069              		.cfi_offset 4, -8
 1070              		.cfi_offset 14, -4
 1071 0006 0446     		mov	r4, r0
 533:Drivers/STM32H5xx_HAL_Driver/Src/stm32h5xx_hal_dma.c **** 
 1072              		.loc 1 533 3 is_stmt 1 view .LVU333
 536:Drivers/STM32H5xx_HAL_Driver/Src/stm32h5xx_hal_dma.c **** 
 1073              		.loc 1 536 3 view .LVU334
 536:Drivers/STM32H5xx_HAL_Driver/Src/stm32h5xx_hal_dma.c **** 
 1074              		.loc 1 536 3 view .LVU335
 1075 0008 90F84C00 		ldrb	r0, [r0, #76]	@ zero_extendqisi2
 1076              	.LVL39:
 536:Drivers/STM32H5xx_HAL_Driver/Src/stm32h5xx_hal_dma.c **** 
 1077              		.loc 1 536 3 is_stmt 0 view .LVU336
 1078 000c 0128     		cmp	r0, #1
 1079 000e 32D0     		beq	.L53
 536:Drivers/STM32H5xx_HAL_Driver/Src/stm32h5xx_hal_dma.c **** 
 1080              		.loc 1 536 3 is_stmt 1 discriminator 2 view .LVU337
 1081 0010 0120     		movs	r0, #1
 1082 0012 84F84C00 		strb	r0, [r4, #76]
 536:Drivers/STM32H5xx_HAL_Driver/Src/stm32h5xx_hal_dma.c **** 
 1083              		.loc 1 536 3 discriminator 2 view .LVU338
 539:Drivers/STM32H5xx_HAL_Driver/Src/stm32h5xx_hal_dma.c ****   {
 1084              		.loc 1 539 3 view .LVU339
 539:Drivers/STM32H5xx_HAL_Driver/Src/stm32h5xx_hal_dma.c ****   {
 1085              		.loc 1 539 11 is_stmt 0 view .LVU340
 1086 0016 94F85400 		ldrb	r0, [r4, #84]	@ zero_extendqisi2
 1087 001a C0B2     		uxtb	r0, r0
 539:Drivers/STM32H5xx_HAL_Driver/Src/stm32h5xx_hal_dma.c ****   {
 1088              		.loc 1 539 6 view .LVU341
 1089 001c 0128     		cmp	r0, #1
 1090 001e 06D0     		beq	.L58
 573:Drivers/STM32H5xx_HAL_Driver/Src/stm32h5xx_hal_dma.c **** 
 1091              		.loc 1 573 5 is_stmt 1 view .LVU342
 573:Drivers/STM32H5xx_HAL_Driver/Src/stm32h5xx_hal_dma.c **** 
 1092              		.loc 1 573 21 is_stmt 0 view .LVU343
 1093 0020 4023     		movs	r3, #64
 1094              	.LVL40:
 573:Drivers/STM32H5xx_HAL_Driver/Src/stm32h5xx_hal_dma.c **** 
 1095              		.loc 1 573 21 view .LVU344
 1096 0022 A365     		str	r3, [r4, #88]
 576:Drivers/STM32H5xx_HAL_Driver/Src/stm32h5xx_hal_dma.c **** 
 1097              		.loc 1 576 5 is_stmt 1 view .LVU345
 576:Drivers/STM32H5xx_HAL_Driver/Src/stm32h5xx_hal_dma.c **** 
 1098              		.loc 1 576 5 view .LVU346
 1099 0024 0023     		movs	r3, #0
 1100 0026 84F84C30 		strb	r3, [r4, #76]
ARM GAS  C:\Users\sapph\AppData\Local\Temp\ccTfCvBa.s 			page 54


 576:Drivers/STM32H5xx_HAL_Driver/Src/stm32h5xx_hal_dma.c **** 
 1101              		.loc 1 576 5 view .LVU347
 578:Drivers/STM32H5xx_HAL_Driver/Src/stm32h5xx_hal_dma.c ****   }
 1102              		.loc 1 578 5 view .LVU348
 578:Drivers/STM32H5xx_HAL_Driver/Src/stm32h5xx_hal_dma.c ****   }
 1103              		.loc 1 578 12 is_stmt 0 view .LVU349
 1104 002a 0120     		movs	r0, #1
 1105              	.LVL41:
 1106              	.L48:
 582:Drivers/STM32H5xx_HAL_Driver/Src/stm32h5xx_hal_dma.c **** 
 1107              		.loc 1 582 1 view .LVU350
 1108 002c 10BD     		pop	{r4, pc}
 1109              	.LVL42:
 1110              	.L58:
 542:Drivers/STM32H5xx_HAL_Driver/Src/stm32h5xx_hal_dma.c **** 
 1111              		.loc 1 542 5 is_stmt 1 view .LVU351
 542:Drivers/STM32H5xx_HAL_Driver/Src/stm32h5xx_hal_dma.c **** 
 1112              		.loc 1 542 17 is_stmt 0 view .LVU352
 1113 002e 0220     		movs	r0, #2
 1114 0030 84F85400 		strb	r0, [r4, #84]
 545:Drivers/STM32H5xx_HAL_Driver/Src/stm32h5xx_hal_dma.c **** 
 1115              		.loc 1 545 5 is_stmt 1 view .LVU353
 545:Drivers/STM32H5xx_HAL_Driver/Src/stm32h5xx_hal_dma.c **** 
 1116              		.loc 1 545 21 is_stmt 0 view .LVU354
 1117 0034 0020     		movs	r0, #0
 1118 0036 A065     		str	r0, [r4, #88]
 548:Drivers/STM32H5xx_HAL_Driver/Src/stm32h5xx_hal_dma.c **** 
 1119              		.loc 1 548 5 is_stmt 1 view .LVU355
 1120 0038 2046     		mov	r0, r4
 1121 003a FFF7FEFF 		bl	DMA_SetConfig
 1122              	.LVL43:
 551:Drivers/STM32H5xx_HAL_Driver/Src/stm32h5xx_hal_dma.c **** 
 1123              		.loc 1 551 5 view .LVU356
 1124 003e 2268     		ldr	r2, [r4]
 1125 0040 5369     		ldr	r3, [r2, #20]
 1126 0042 43F4BA43 		orr	r3, r3, #23808
 1127 0046 5361     		str	r3, [r2, #20]
 554:Drivers/STM32H5xx_HAL_Driver/Src/stm32h5xx_hal_dma.c ****     {
 1128              		.loc 1 554 5 view .LVU357
 554:Drivers/STM32H5xx_HAL_Driver/Src/stm32h5xx_hal_dma.c ****     {
 1129              		.loc 1 554 13 is_stmt 0 view .LVU358
 1130 0048 636E     		ldr	r3, [r4, #100]
 554:Drivers/STM32H5xx_HAL_Driver/Src/stm32h5xx_hal_dma.c ****     {
 1131              		.loc 1 554 8 view .LVU359
 1132 004a 23B1     		cbz	r3, .L50
 557:Drivers/STM32H5xx_HAL_Driver/Src/stm32h5xx_hal_dma.c ****     }
 1133              		.loc 1 557 7 is_stmt 1 view .LVU360
 1134 004c 2268     		ldr	r2, [r4]
 1135 004e 5369     		ldr	r3, [r2, #20]
 1136 0050 43F40073 		orr	r3, r3, #512
 1137 0054 5361     		str	r3, [r2, #20]
 1138              	.L50:
 561:Drivers/STM32H5xx_HAL_Driver/Src/stm32h5xx_hal_dma.c ****     {
 1139              		.loc 1 561 5 view .LVU361
 561:Drivers/STM32H5xx_HAL_Driver/Src/stm32h5xx_hal_dma.c ****     {
 1140              		.loc 1 561 13 is_stmt 0 view .LVU362
 1141 0056 236F     		ldr	r3, [r4, #112]
ARM GAS  C:\Users\sapph\AppData\Local\Temp\ccTfCvBa.s 			page 55


 561:Drivers/STM32H5xx_HAL_Driver/Src/stm32h5xx_hal_dma.c ****     {
 1142              		.loc 1 561 8 view .LVU363
 1143 0058 23B1     		cbz	r3, .L51
 564:Drivers/STM32H5xx_HAL_Driver/Src/stm32h5xx_hal_dma.c ****     }
 1144              		.loc 1 564 7 is_stmt 1 view .LVU364
 1145 005a 2268     		ldr	r2, [r4]
 1146 005c 5369     		ldr	r3, [r2, #20]
 1147 005e 43F40053 		orr	r3, r3, #8192
 1148 0062 5361     		str	r3, [r2, #20]
 1149              	.L51:
 568:Drivers/STM32H5xx_HAL_Driver/Src/stm32h5xx_hal_dma.c ****   }
 1150              		.loc 1 568 5 view .LVU365
 1151 0064 2268     		ldr	r2, [r4]
 1152 0066 5369     		ldr	r3, [r2, #20]
 1153 0068 43F00103 		orr	r3, r3, #1
 1154 006c 5361     		str	r3, [r2, #20]
 581:Drivers/STM32H5xx_HAL_Driver/Src/stm32h5xx_hal_dma.c **** }
 1155              		.loc 1 581 3 view .LVU366
 581:Drivers/STM32H5xx_HAL_Driver/Src/stm32h5xx_hal_dma.c **** }
 1156              		.loc 1 581 10 is_stmt 0 view .LVU367
 1157 006e 0020     		movs	r0, #0
 1158 0070 DCE7     		b	.L48
 1159              	.LVL44:
 1160              	.L52:
 1161              		.cfi_def_cfa_offset 0
 1162              		.cfi_restore 4
 1163              		.cfi_restore 14
 529:Drivers/STM32H5xx_HAL_Driver/Src/stm32h5xx_hal_dma.c ****   }
 1164              		.loc 1 529 12 view .LVU368
 1165 0072 0120     		movs	r0, #1
 1166              	.LVL45:
 582:Drivers/STM32H5xx_HAL_Driver/Src/stm32h5xx_hal_dma.c **** 
 1167              		.loc 1 582 1 view .LVU369
 1168 0074 7047     		bx	lr
 1169              	.LVL46:
 1170              	.L53:
 1171              		.cfi_def_cfa_offset 8
 1172              		.cfi_offset 4, -8
 1173              		.cfi_offset 14, -4
 536:Drivers/STM32H5xx_HAL_Driver/Src/stm32h5xx_hal_dma.c **** 
 1174              		.loc 1 536 3 discriminator 1 view .LVU370
 1175 0076 0220     		movs	r0, #2
 1176 0078 D8E7     		b	.L48
 1177              		.cfi_endproc
 1178              	.LFE163:
 1180              		.section	.text.HAL_DMA_Abort,"ax",%progbits
 1181              		.align	1
 1182              		.global	HAL_DMA_Abort
 1183              		.syntax unified
 1184              		.thumb
 1185              		.thumb_func
 1187              	HAL_DMA_Abort:
 1188              	.LVL47:
 1189              	.LFB164:
 594:Drivers/STM32H5xx_HAL_Driver/Src/stm32h5xx_hal_dma.c ****   /* Get tick number */
 1190              		.loc 1 594 1 is_stmt 1 view -0
 1191              		.cfi_startproc
ARM GAS  C:\Users\sapph\AppData\Local\Temp\ccTfCvBa.s 			page 56


 1192              		@ args = 0, pretend = 0, frame = 0
 1193              		@ frame_needed = 0, uses_anonymous_args = 0
 594:Drivers/STM32H5xx_HAL_Driver/Src/stm32h5xx_hal_dma.c ****   /* Get tick number */
 1194              		.loc 1 594 1 is_stmt 0 view .LVU372
 1195 0000 38B5     		push	{r3, r4, r5, lr}
 1196              		.cfi_def_cfa_offset 16
 1197              		.cfi_offset 3, -16
 1198              		.cfi_offset 4, -12
 1199              		.cfi_offset 5, -8
 1200              		.cfi_offset 14, -4
 1201 0002 0446     		mov	r4, r0
 596:Drivers/STM32H5xx_HAL_Driver/Src/stm32h5xx_hal_dma.c **** 
 1202              		.loc 1 596 3 is_stmt 1 view .LVU373
 596:Drivers/STM32H5xx_HAL_Driver/Src/stm32h5xx_hal_dma.c **** 
 1203              		.loc 1 596 25 is_stmt 0 view .LVU374
 1204 0004 FFF7FEFF 		bl	HAL_GetTick
 1205              	.LVL48:
 599:Drivers/STM32H5xx_HAL_Driver/Src/stm32h5xx_hal_dma.c ****   {
 1206              		.loc 1 599 3 is_stmt 1 view .LVU375
 599:Drivers/STM32H5xx_HAL_Driver/Src/stm32h5xx_hal_dma.c ****   {
 1207              		.loc 1 599 6 is_stmt 0 view .LVU376
 1208 0008 002C     		cmp	r4, #0
 1209 000a 4DD0     		beq	.L66
 1210 000c 0546     		mov	r5, r0
 605:Drivers/STM32H5xx_HAL_Driver/Src/stm32h5xx_hal_dma.c ****   {
 1211              		.loc 1 605 3 is_stmt 1 view .LVU377
 605:Drivers/STM32H5xx_HAL_Driver/Src/stm32h5xx_hal_dma.c ****   {
 1212              		.loc 1 605 11 is_stmt 0 view .LVU378
 1213 000e 94F85430 		ldrb	r3, [r4, #84]	@ zero_extendqisi2
 1214 0012 DBB2     		uxtb	r3, r3
 605:Drivers/STM32H5xx_HAL_Driver/Src/stm32h5xx_hal_dma.c ****   {
 1215              		.loc 1 605 6 view .LVU379
 1216 0014 022B     		cmp	r3, #2
 1217 0016 06D0     		beq	.L61
 608:Drivers/STM32H5xx_HAL_Driver/Src/stm32h5xx_hal_dma.c **** 
 1218              		.loc 1 608 5 is_stmt 1 view .LVU380
 608:Drivers/STM32H5xx_HAL_Driver/Src/stm32h5xx_hal_dma.c **** 
 1219              		.loc 1 608 21 is_stmt 0 view .LVU381
 1220 0018 2023     		movs	r3, #32
 1221 001a A365     		str	r3, [r4, #88]
 611:Drivers/STM32H5xx_HAL_Driver/Src/stm32h5xx_hal_dma.c **** 
 1222              		.loc 1 611 5 is_stmt 1 view .LVU382
 611:Drivers/STM32H5xx_HAL_Driver/Src/stm32h5xx_hal_dma.c **** 
 1223              		.loc 1 611 5 view .LVU383
 1224 001c 0023     		movs	r3, #0
 1225 001e 84F84C30 		strb	r3, [r4, #76]
 611:Drivers/STM32H5xx_HAL_Driver/Src/stm32h5xx_hal_dma.c **** 
 1226              		.loc 1 611 5 view .LVU384
 613:Drivers/STM32H5xx_HAL_Driver/Src/stm32h5xx_hal_dma.c ****   }
 1227              		.loc 1 613 5 view .LVU385
 613:Drivers/STM32H5xx_HAL_Driver/Src/stm32h5xx_hal_dma.c ****   }
 1228              		.loc 1 613 12 is_stmt 0 view .LVU386
 1229 0022 0120     		movs	r0, #1
 1230              	.LVL49:
 1231              	.L60:
 677:Drivers/STM32H5xx_HAL_Driver/Src/stm32h5xx_hal_dma.c **** 
 1232              		.loc 1 677 1 view .LVU387
ARM GAS  C:\Users\sapph\AppData\Local\Temp\ccTfCvBa.s 			page 57


 1233 0024 38BD     		pop	{r3, r4, r5, pc}
 1234              	.LVL50:
 1235              	.L61:
 618:Drivers/STM32H5xx_HAL_Driver/Src/stm32h5xx_hal_dma.c **** 
 1236              		.loc 1 618 5 is_stmt 1 view .LVU388
 618:Drivers/STM32H5xx_HAL_Driver/Src/stm32h5xx_hal_dma.c **** 
 1237              		.loc 1 618 9 is_stmt 0 view .LVU389
 1238 0026 2268     		ldr	r2, [r4]
 618:Drivers/STM32H5xx_HAL_Driver/Src/stm32h5xx_hal_dma.c **** 
 1239              		.loc 1 618 19 view .LVU390
 1240 0028 5369     		ldr	r3, [r2, #20]
 618:Drivers/STM32H5xx_HAL_Driver/Src/stm32h5xx_hal_dma.c **** 
 1241              		.loc 1 618 25 view .LVU391
 1242 002a 43F00403 		orr	r3, r3, #4
 1243 002e 5361     		str	r3, [r2, #20]
 621:Drivers/STM32H5xx_HAL_Driver/Src/stm32h5xx_hal_dma.c **** 
 1244              		.loc 1 621 5 is_stmt 1 view .LVU392
 621:Drivers/STM32H5xx_HAL_Driver/Src/stm32h5xx_hal_dma.c **** 
 1245              		.loc 1 621 17 is_stmt 0 view .LVU393
 1246 0030 0523     		movs	r3, #5
 1247 0032 84F85430 		strb	r3, [r4, #84]
 624:Drivers/STM32H5xx_HAL_Driver/Src/stm32h5xx_hal_dma.c ****     {
 1248              		.loc 1 624 5 is_stmt 1 view .LVU394
 1249              	.LVL51:
 1250              	.L62:
 624:Drivers/STM32H5xx_HAL_Driver/Src/stm32h5xx_hal_dma.c ****     {
 1251              		.loc 1 624 50 view .LVU395
 624:Drivers/STM32H5xx_HAL_Driver/Src/stm32h5xx_hal_dma.c ****     {
 1252              		.loc 1 624 17 is_stmt 0 view .LVU396
 1253 0036 2368     		ldr	r3, [r4]
 624:Drivers/STM32H5xx_HAL_Driver/Src/stm32h5xx_hal_dma.c ****     {
 1254              		.loc 1 624 27 view .LVU397
 1255 0038 1A69     		ldr	r2, [r3, #16]
 624:Drivers/STM32H5xx_HAL_Driver/Src/stm32h5xx_hal_dma.c ****     {
 1256              		.loc 1 624 50 view .LVU398
 1257 003a 12F4005F 		tst	r2, #8192
 1258 003e 17D1     		bne	.L68
 627:Drivers/STM32H5xx_HAL_Driver/Src/stm32h5xx_hal_dma.c ****       {
 1259              		.loc 1 627 7 is_stmt 1 view .LVU399
 627:Drivers/STM32H5xx_HAL_Driver/Src/stm32h5xx_hal_dma.c ****       {
 1260              		.loc 1 627 12 is_stmt 0 view .LVU400
 1261 0040 FFF7FEFF 		bl	HAL_GetTick
 1262              	.LVL52:
 627:Drivers/STM32H5xx_HAL_Driver/Src/stm32h5xx_hal_dma.c ****       {
 1263              		.loc 1 627 26 discriminator 1 view .LVU401
 1264 0044 431B     		subs	r3, r0, r5
 627:Drivers/STM32H5xx_HAL_Driver/Src/stm32h5xx_hal_dma.c ****       {
 1265              		.loc 1 627 10 discriminator 1 view .LVU402
 1266 0046 052B     		cmp	r3, #5
 1267 0048 F5D9     		bls	.L62
 630:Drivers/STM32H5xx_HAL_Driver/Src/stm32h5xx_hal_dma.c **** 
 1268              		.loc 1 630 9 is_stmt 1 view .LVU403
 630:Drivers/STM32H5xx_HAL_Driver/Src/stm32h5xx_hal_dma.c **** 
 1269              		.loc 1 630 13 is_stmt 0 view .LVU404
 1270 004a A36D     		ldr	r3, [r4, #88]
 630:Drivers/STM32H5xx_HAL_Driver/Src/stm32h5xx_hal_dma.c **** 
 1271              		.loc 1 630 25 view .LVU405
ARM GAS  C:\Users\sapph\AppData\Local\Temp\ccTfCvBa.s 			page 58


 1272 004c 43F01003 		orr	r3, r3, #16
 1273 0050 A365     		str	r3, [r4, #88]
 633:Drivers/STM32H5xx_HAL_Driver/Src/stm32h5xx_hal_dma.c **** 
 1274              		.loc 1 633 9 is_stmt 1 view .LVU406
 633:Drivers/STM32H5xx_HAL_Driver/Src/stm32h5xx_hal_dma.c **** 
 1275              		.loc 1 633 21 is_stmt 0 view .LVU407
 1276 0052 0323     		movs	r3, #3
 1277 0054 84F85430 		strb	r3, [r4, #84]
 636:Drivers/STM32H5xx_HAL_Driver/Src/stm32h5xx_hal_dma.c ****         {
 1278              		.loc 1 636 9 is_stmt 1 view .LVU408
 636:Drivers/STM32H5xx_HAL_Driver/Src/stm32h5xx_hal_dma.c ****         {
 1279              		.loc 1 636 18 is_stmt 0 view .LVU409
 1280 0058 236D     		ldr	r3, [r4, #80]
 636:Drivers/STM32H5xx_HAL_Driver/Src/stm32h5xx_hal_dma.c ****         {
 1281              		.loc 1 636 12 view .LVU410
 1282 005a 13F0800F 		tst	r3, #128
 1283 005e 02D0     		beq	.L63
 639:Drivers/STM32H5xx_HAL_Driver/Src/stm32h5xx_hal_dma.c ****         }
 1284              		.loc 1 639 11 is_stmt 1 view .LVU411
 639:Drivers/STM32H5xx_HAL_Driver/Src/stm32h5xx_hal_dma.c ****         }
 1285              		.loc 1 639 15 is_stmt 0 view .LVU412
 1286 0060 636F     		ldr	r3, [r4, #116]
 639:Drivers/STM32H5xx_HAL_Driver/Src/stm32h5xx_hal_dma.c ****         }
 1287              		.loc 1 639 40 view .LVU413
 1288 0062 0122     		movs	r2, #1
 1289 0064 1A73     		strb	r2, [r3, #12]
 1290              	.L63:
 643:Drivers/STM32H5xx_HAL_Driver/Src/stm32h5xx_hal_dma.c **** 
 1291              		.loc 1 643 9 is_stmt 1 view .LVU414
 643:Drivers/STM32H5xx_HAL_Driver/Src/stm32h5xx_hal_dma.c **** 
 1292              		.loc 1 643 9 view .LVU415
 1293 0066 0023     		movs	r3, #0
 1294 0068 84F84C30 		strb	r3, [r4, #76]
 643:Drivers/STM32H5xx_HAL_Driver/Src/stm32h5xx_hal_dma.c **** 
 1295              		.loc 1 643 9 view .LVU416
 645:Drivers/STM32H5xx_HAL_Driver/Src/stm32h5xx_hal_dma.c ****       }
 1296              		.loc 1 645 9 view .LVU417
 645:Drivers/STM32H5xx_HAL_Driver/Src/stm32h5xx_hal_dma.c ****       }
 1297              		.loc 1 645 16 is_stmt 0 view .LVU418
 1298 006c 0120     		movs	r0, #1
 1299 006e D9E7     		b	.L60
 1300              	.L68:
 650:Drivers/STM32H5xx_HAL_Driver/Src/stm32h5xx_hal_dma.c **** 
 1301              		.loc 1 650 5 is_stmt 1 view .LVU419
 650:Drivers/STM32H5xx_HAL_Driver/Src/stm32h5xx_hal_dma.c **** 
 1302              		.loc 1 650 19 is_stmt 0 view .LVU420
 1303 0070 5A69     		ldr	r2, [r3, #20]
 650:Drivers/STM32H5xx_HAL_Driver/Src/stm32h5xx_hal_dma.c **** 
 1304              		.loc 1 650 25 view .LVU421
 1305 0072 42F00202 		orr	r2, r2, #2
 1306 0076 5A61     		str	r2, [r3, #20]
 653:Drivers/STM32H5xx_HAL_Driver/Src/stm32h5xx_hal_dma.c **** 
 1307              		.loc 1 653 5 is_stmt 1 view .LVU422
 653:Drivers/STM32H5xx_HAL_Driver/Src/stm32h5xx_hal_dma.c **** 
 1308              		.loc 1 653 17 is_stmt 0 view .LVU423
 1309 0078 0423     		movs	r3, #4
 1310 007a 84F85430 		strb	r3, [r4, #84]
ARM GAS  C:\Users\sapph\AppData\Local\Temp\ccTfCvBa.s 			page 59


 656:Drivers/STM32H5xx_HAL_Driver/Src/stm32h5xx_hal_dma.c ****                                 DMA_FLAG_TO));
 1311              		.loc 1 656 5 is_stmt 1 view .LVU424
 1312 007e 2368     		ldr	r3, [r4]
 1313 0080 4FF4FE42 		mov	r2, #32512
 1314 0084 DA60     		str	r2, [r3, #12]
 660:Drivers/STM32H5xx_HAL_Driver/Src/stm32h5xx_hal_dma.c **** 
 1315              		.loc 1 660 5 view .LVU425
 660:Drivers/STM32H5xx_HAL_Driver/Src/stm32h5xx_hal_dma.c **** 
 1316              		.loc 1 660 17 is_stmt 0 view .LVU426
 1317 0086 0123     		movs	r3, #1
 1318 0088 84F85430 		strb	r3, [r4, #84]
 663:Drivers/STM32H5xx_HAL_Driver/Src/stm32h5xx_hal_dma.c ****     {
 1319              		.loc 1 663 5 is_stmt 1 view .LVU427
 663:Drivers/STM32H5xx_HAL_Driver/Src/stm32h5xx_hal_dma.c ****     {
 1320              		.loc 1 663 14 is_stmt 0 view .LVU428
 1321 008c 236D     		ldr	r3, [r4, #80]
 663:Drivers/STM32H5xx_HAL_Driver/Src/stm32h5xx_hal_dma.c ****     {
 1322              		.loc 1 663 8 view .LVU429
 1323 008e 13F0800F 		tst	r3, #128
 1324 0092 05D0     		beq	.L65
 666:Drivers/STM32H5xx_HAL_Driver/Src/stm32h5xx_hal_dma.c **** 
 1325              		.loc 1 666 7 is_stmt 1 view .LVU430
 666:Drivers/STM32H5xx_HAL_Driver/Src/stm32h5xx_hal_dma.c **** 
 1326              		.loc 1 666 11 is_stmt 0 view .LVU431
 1327 0094 636F     		ldr	r3, [r4, #116]
 666:Drivers/STM32H5xx_HAL_Driver/Src/stm32h5xx_hal_dma.c **** 
 1328              		.loc 1 666 36 view .LVU432
 1329 0096 0122     		movs	r2, #1
 1330 0098 1A73     		strb	r2, [r3, #12]
 669:Drivers/STM32H5xx_HAL_Driver/Src/stm32h5xx_hal_dma.c ****     }
 1331              		.loc 1 669 7 is_stmt 1 view .LVU433
 669:Drivers/STM32H5xx_HAL_Driver/Src/stm32h5xx_hal_dma.c ****     }
 1332              		.loc 1 669 11 is_stmt 0 view .LVU434
 1333 009a 2368     		ldr	r3, [r4]
 669:Drivers/STM32H5xx_HAL_Driver/Src/stm32h5xx_hal_dma.c ****     }
 1334              		.loc 1 669 28 view .LVU435
 1335 009c 0022     		movs	r2, #0
 1336 009e 9A64     		str	r2, [r3, #72]
 1337              	.L65:
 673:Drivers/STM32H5xx_HAL_Driver/Src/stm32h5xx_hal_dma.c ****   }
 1338              		.loc 1 673 5 is_stmt 1 view .LVU436
 673:Drivers/STM32H5xx_HAL_Driver/Src/stm32h5xx_hal_dma.c ****   }
 1339              		.loc 1 673 5 view .LVU437
 1340 00a0 0020     		movs	r0, #0
 1341 00a2 84F84C00 		strb	r0, [r4, #76]
 673:Drivers/STM32H5xx_HAL_Driver/Src/stm32h5xx_hal_dma.c ****   }
 1342              		.loc 1 673 5 view .LVU438
 676:Drivers/STM32H5xx_HAL_Driver/Src/stm32h5xx_hal_dma.c **** }
 1343              		.loc 1 676 3 view .LVU439
 676:Drivers/STM32H5xx_HAL_Driver/Src/stm32h5xx_hal_dma.c **** }
 1344              		.loc 1 676 10 is_stmt 0 view .LVU440
 1345 00a6 BDE7     		b	.L60
 1346              	.LVL53:
 1347              	.L66:
 601:Drivers/STM32H5xx_HAL_Driver/Src/stm32h5xx_hal_dma.c ****   }
 1348              		.loc 1 601 12 view .LVU441
 1349 00a8 0120     		movs	r0, #1
ARM GAS  C:\Users\sapph\AppData\Local\Temp\ccTfCvBa.s 			page 60


 1350              	.LVL54:
 601:Drivers/STM32H5xx_HAL_Driver/Src/stm32h5xx_hal_dma.c ****   }
 1351              		.loc 1 601 12 view .LVU442
 1352 00aa BBE7     		b	.L60
 1353              		.cfi_endproc
 1354              	.LFE164:
 1356              		.section	.text.HAL_DMA_Abort_IT,"ax",%progbits
 1357              		.align	1
 1358              		.global	HAL_DMA_Abort_IT
 1359              		.syntax unified
 1360              		.thumb
 1361              		.thumb_func
 1363              	HAL_DMA_Abort_IT:
 1364              	.LVL55:
 1365              	.LFB165:
 686:Drivers/STM32H5xx_HAL_Driver/Src/stm32h5xx_hal_dma.c ****   /* Check the DMA peripheral handle parameter */
 1366              		.loc 1 686 1 is_stmt 1 view -0
 1367              		.cfi_startproc
 1368              		@ args = 0, pretend = 0, frame = 0
 1369              		@ frame_needed = 0, uses_anonymous_args = 0
 1370              		@ link register save eliminated.
 688:Drivers/STM32H5xx_HAL_Driver/Src/stm32h5xx_hal_dma.c ****   {
 1371              		.loc 1 688 3 view .LVU444
 688:Drivers/STM32H5xx_HAL_Driver/Src/stm32h5xx_hal_dma.c ****   {
 1372              		.loc 1 688 6 is_stmt 0 view .LVU445
 1373 0000 A0B1     		cbz	r0, .L72
 694:Drivers/STM32H5xx_HAL_Driver/Src/stm32h5xx_hal_dma.c ****   {
 1374              		.loc 1 694 3 is_stmt 1 view .LVU446
 694:Drivers/STM32H5xx_HAL_Driver/Src/stm32h5xx_hal_dma.c ****   {
 1375              		.loc 1 694 11 is_stmt 0 view .LVU447
 1376 0002 90F85430 		ldrb	r3, [r0, #84]	@ zero_extendqisi2
 1377 0006 DBB2     		uxtb	r3, r3
 694:Drivers/STM32H5xx_HAL_Driver/Src/stm32h5xx_hal_dma.c ****   {
 1378              		.loc 1 694 6 view .LVU448
 1379 0008 022B     		cmp	r3, #2
 1380 000a 03D0     		beq	.L71
 697:Drivers/STM32H5xx_HAL_Driver/Src/stm32h5xx_hal_dma.c **** 
 1381              		.loc 1 697 5 is_stmt 1 view .LVU449
 697:Drivers/STM32H5xx_HAL_Driver/Src/stm32h5xx_hal_dma.c **** 
 1382              		.loc 1 697 21 is_stmt 0 view .LVU450
 1383 000c 2023     		movs	r3, #32
 1384 000e 8365     		str	r3, [r0, #88]
 699:Drivers/STM32H5xx_HAL_Driver/Src/stm32h5xx_hal_dma.c ****   }
 1385              		.loc 1 699 5 is_stmt 1 view .LVU451
 699:Drivers/STM32H5xx_HAL_Driver/Src/stm32h5xx_hal_dma.c ****   }
 1386              		.loc 1 699 12 is_stmt 0 view .LVU452
 1387 0010 0120     		movs	r0, #1
 1388              	.LVL56:
 699:Drivers/STM32H5xx_HAL_Driver/Src/stm32h5xx_hal_dma.c ****   }
 1389              		.loc 1 699 12 view .LVU453
 1390 0012 7047     		bx	lr
 1391              	.LVL57:
 1392              	.L71:
 704:Drivers/STM32H5xx_HAL_Driver/Src/stm32h5xx_hal_dma.c **** 
 1393              		.loc 1 704 5 is_stmt 1 view .LVU454
 704:Drivers/STM32H5xx_HAL_Driver/Src/stm32h5xx_hal_dma.c **** 
 1394              		.loc 1 704 17 is_stmt 0 view .LVU455
ARM GAS  C:\Users\sapph\AppData\Local\Temp\ccTfCvBa.s 			page 61


 1395 0014 0423     		movs	r3, #4
 1396 0016 80F85430 		strb	r3, [r0, #84]
 707:Drivers/STM32H5xx_HAL_Driver/Src/stm32h5xx_hal_dma.c ****   }
 1397              		.loc 1 707 5 is_stmt 1 view .LVU456
 707:Drivers/STM32H5xx_HAL_Driver/Src/stm32h5xx_hal_dma.c ****   }
 1398              		.loc 1 707 9 is_stmt 0 view .LVU457
 1399 001a 0268     		ldr	r2, [r0]
 707:Drivers/STM32H5xx_HAL_Driver/Src/stm32h5xx_hal_dma.c ****   }
 1400              		.loc 1 707 19 view .LVU458
 1401 001c 5369     		ldr	r3, [r2, #20]
 707:Drivers/STM32H5xx_HAL_Driver/Src/stm32h5xx_hal_dma.c ****   }
 1402              		.loc 1 707 25 view .LVU459
 1403 001e 43F40053 		orr	r3, r3, #8192
 1404 0022 43F00403 		orr	r3, r3, #4
 1405 0026 5361     		str	r3, [r2, #20]
 710:Drivers/STM32H5xx_HAL_Driver/Src/stm32h5xx_hal_dma.c **** }
 1406              		.loc 1 710 3 is_stmt 1 view .LVU460
 710:Drivers/STM32H5xx_HAL_Driver/Src/stm32h5xx_hal_dma.c **** }
 1407              		.loc 1 710 10 is_stmt 0 view .LVU461
 1408 0028 0020     		movs	r0, #0
 1409              	.LVL58:
 710:Drivers/STM32H5xx_HAL_Driver/Src/stm32h5xx_hal_dma.c **** }
 1410              		.loc 1 710 10 view .LVU462
 1411 002a 7047     		bx	lr
 1412              	.LVL59:
 1413              	.L72:
 690:Drivers/STM32H5xx_HAL_Driver/Src/stm32h5xx_hal_dma.c ****   }
 1414              		.loc 1 690 12 view .LVU463
 1415 002c 0120     		movs	r0, #1
 1416              	.LVL60:
 711:Drivers/STM32H5xx_HAL_Driver/Src/stm32h5xx_hal_dma.c **** 
 1417              		.loc 1 711 1 view .LVU464
 1418 002e 7047     		bx	lr
 1419              		.cfi_endproc
 1420              	.LFE165:
 1422              		.section	.text.HAL_DMA_PollForTransfer,"ax",%progbits
 1423              		.align	1
 1424              		.global	HAL_DMA_PollForTransfer
 1425              		.syntax unified
 1426              		.thumb
 1427              		.thumb_func
 1429              	HAL_DMA_PollForTransfer:
 1430              	.LVL61:
 1431              	.LFB166:
 724:Drivers/STM32H5xx_HAL_Driver/Src/stm32h5xx_hal_dma.c ****   /* Get tick number */
 1432              		.loc 1 724 1 is_stmt 1 view -0
 1433              		.cfi_startproc
 1434              		@ args = 0, pretend = 0, frame = 0
 1435              		@ frame_needed = 0, uses_anonymous_args = 0
 724:Drivers/STM32H5xx_HAL_Driver/Src/stm32h5xx_hal_dma.c ****   /* Get tick number */
 1436              		.loc 1 724 1 is_stmt 0 view .LVU466
 1437 0000 2DE9F041 		push	{r4, r5, r6, r7, r8, lr}
 1438              		.cfi_def_cfa_offset 24
 1439              		.cfi_offset 4, -24
 1440              		.cfi_offset 5, -20
 1441              		.cfi_offset 6, -16
 1442              		.cfi_offset 7, -12
ARM GAS  C:\Users\sapph\AppData\Local\Temp\ccTfCvBa.s 			page 62


 1443              		.cfi_offset 8, -8
 1444              		.cfi_offset 14, -4
 1445 0004 0446     		mov	r4, r0
 1446 0006 0E46     		mov	r6, r1
 1447 0008 1546     		mov	r5, r2
 726:Drivers/STM32H5xx_HAL_Driver/Src/stm32h5xx_hal_dma.c ****   uint32_t level_flag;
 1448              		.loc 1 726 3 is_stmt 1 view .LVU467
 726:Drivers/STM32H5xx_HAL_Driver/Src/stm32h5xx_hal_dma.c ****   uint32_t level_flag;
 1449              		.loc 1 726 24 is_stmt 0 view .LVU468
 1450 000a FFF7FEFF 		bl	HAL_GetTick
 1451              	.LVL62:
 727:Drivers/STM32H5xx_HAL_Driver/Src/stm32h5xx_hal_dma.c ****   uint32_t tmp_csr;
 1452              		.loc 1 727 3 is_stmt 1 view .LVU469
 728:Drivers/STM32H5xx_HAL_Driver/Src/stm32h5xx_hal_dma.c **** 
 1453              		.loc 1 728 3 view .LVU470
 731:Drivers/STM32H5xx_HAL_Driver/Src/stm32h5xx_hal_dma.c ****   {
 1454              		.loc 1 731 3 view .LVU471
 731:Drivers/STM32H5xx_HAL_Driver/Src/stm32h5xx_hal_dma.c ****   {
 1455              		.loc 1 731 6 is_stmt 0 view .LVU472
 1456 000e 002C     		cmp	r4, #0
 1457 0010 00F09980 		beq	.L90
 1458 0014 0746     		mov	r7, r0
 737:Drivers/STM32H5xx_HAL_Driver/Src/stm32h5xx_hal_dma.c **** 
 1459              		.loc 1 737 3 is_stmt 1 view .LVU473
 740:Drivers/STM32H5xx_HAL_Driver/Src/stm32h5xx_hal_dma.c ****   {
 1460              		.loc 1 740 3 view .LVU474
 740:Drivers/STM32H5xx_HAL_Driver/Src/stm32h5xx_hal_dma.c ****   {
 1461              		.loc 1 740 11 is_stmt 0 view .LVU475
 1462 0016 94F85430 		ldrb	r3, [r4, #84]	@ zero_extendqisi2
 1463 001a DBB2     		uxtb	r3, r3
 740:Drivers/STM32H5xx_HAL_Driver/Src/stm32h5xx_hal_dma.c ****   {
 1464              		.loc 1 740 6 view .LVU476
 1465 001c 022B     		cmp	r3, #2
 1466 001e 07D0     		beq	.L75
 743:Drivers/STM32H5xx_HAL_Driver/Src/stm32h5xx_hal_dma.c **** 
 1467              		.loc 1 743 5 is_stmt 1 view .LVU477
 743:Drivers/STM32H5xx_HAL_Driver/Src/stm32h5xx_hal_dma.c **** 
 1468              		.loc 1 743 21 is_stmt 0 view .LVU478
 1469 0020 2023     		movs	r3, #32
 1470 0022 A365     		str	r3, [r4, #88]
 746:Drivers/STM32H5xx_HAL_Driver/Src/stm32h5xx_hal_dma.c **** 
 1471              		.loc 1 746 5 is_stmt 1 view .LVU479
 746:Drivers/STM32H5xx_HAL_Driver/Src/stm32h5xx_hal_dma.c **** 
 1472              		.loc 1 746 5 view .LVU480
 1473 0024 0023     		movs	r3, #0
 1474 0026 84F84C30 		strb	r3, [r4, #76]
 746:Drivers/STM32H5xx_HAL_Driver/Src/stm32h5xx_hal_dma.c **** 
 1475              		.loc 1 746 5 view .LVU481
 748:Drivers/STM32H5xx_HAL_Driver/Src/stm32h5xx_hal_dma.c ****   }
 1476              		.loc 1 748 5 view .LVU482
 748:Drivers/STM32H5xx_HAL_Driver/Src/stm32h5xx_hal_dma.c ****   }
 1477              		.loc 1 748 12 is_stmt 0 view .LVU483
 1478 002a 0120     		movs	r0, #1
 1479              	.LVL63:
 1480              	.L74:
 885:Drivers/STM32H5xx_HAL_Driver/Src/stm32h5xx_hal_dma.c **** 
 1481              		.loc 1 885 1 view .LVU484
ARM GAS  C:\Users\sapph\AppData\Local\Temp\ccTfCvBa.s 			page 63


 1482 002c BDE8F081 		pop	{r4, r5, r6, r7, r8, pc}
 1483              	.LVL64:
 1484              	.L75:
 752:Drivers/STM32H5xx_HAL_Driver/Src/stm32h5xx_hal_dma.c ****   {
 1485              		.loc 1 752 3 is_stmt 1 view .LVU485
 752:Drivers/STM32H5xx_HAL_Driver/Src/stm32h5xx_hal_dma.c ****   {
 1486              		.loc 1 752 12 is_stmt 0 view .LVU486
 1487 0030 236D     		ldr	r3, [r4, #80]
 752:Drivers/STM32H5xx_HAL_Driver/Src/stm32h5xx_hal_dma.c ****   {
 1488              		.loc 1 752 19 view .LVU487
 1489 0032 03F08103 		and	r3, r3, #129
 752:Drivers/STM32H5xx_HAL_Driver/Src/stm32h5xx_hal_dma.c ****   {
 1490              		.loc 1 752 6 view .LVU488
 1491 0036 812B     		cmp	r3, #129
 1492 0038 05D0     		beq	.L94
 761:Drivers/STM32H5xx_HAL_Driver/Src/stm32h5xx_hal_dma.c **** 
 1493              		.loc 1 761 3 is_stmt 1 view .LVU489
 761:Drivers/STM32H5xx_HAL_Driver/Src/stm32h5xx_hal_dma.c **** 
 1494              		.loc 1 761 74 is_stmt 0 view .LVU490
 1495 003a 4EB9     		cbnz	r6, .L91
 761:Drivers/STM32H5xx_HAL_Driver/Src/stm32h5xx_hal_dma.c **** 
 1496              		.loc 1 761 74 discriminator 1 view .LVU491
 1497 003c 4FF00108 		mov	r8, #1
 1498              	.L77:
 1499              	.LVL65:
 764:Drivers/STM32H5xx_HAL_Driver/Src/stm32h5xx_hal_dma.c **** 
 1500              		.loc 1 764 3 is_stmt 1 view .LVU492
 764:Drivers/STM32H5xx_HAL_Driver/Src/stm32h5xx_hal_dma.c **** 
 1501              		.loc 1 764 17 is_stmt 0 view .LVU493
 1502 0040 2368     		ldr	r3, [r4]
 764:Drivers/STM32H5xx_HAL_Driver/Src/stm32h5xx_hal_dma.c **** 
 1503              		.loc 1 764 11 view .LVU494
 1504 0042 1B69     		ldr	r3, [r3, #16]
 1505              	.LVL66:
 766:Drivers/STM32H5xx_HAL_Driver/Src/stm32h5xx_hal_dma.c ****   {
 1506              		.loc 1 766 3 is_stmt 1 view .LVU495
 766:Drivers/STM32H5xx_HAL_Driver/Src/stm32h5xx_hal_dma.c ****   {
 1507              		.loc 1 766 9 is_stmt 0 view .LVU496
 1508 0044 09E0     		b	.L78
 1509              	.LVL67:
 1510              	.L94:
 755:Drivers/STM32H5xx_HAL_Driver/Src/stm32h5xx_hal_dma.c **** 
 1511              		.loc 1 755 5 is_stmt 1 view .LVU497
 755:Drivers/STM32H5xx_HAL_Driver/Src/stm32h5xx_hal_dma.c **** 
 1512              		.loc 1 755 21 is_stmt 0 view .LVU498
 1513 0046 4FF48073 		mov	r3, #256
 1514 004a A365     		str	r3, [r4, #88]
 757:Drivers/STM32H5xx_HAL_Driver/Src/stm32h5xx_hal_dma.c ****   }
 1515              		.loc 1 757 5 is_stmt 1 view .LVU499
 757:Drivers/STM32H5xx_HAL_Driver/Src/stm32h5xx_hal_dma.c ****   }
 1516              		.loc 1 757 12 is_stmt 0 view .LVU500
 1517 004c 0120     		movs	r0, #1
 1518              	.LVL68:
 757:Drivers/STM32H5xx_HAL_Driver/Src/stm32h5xx_hal_dma.c ****   }
 1519              		.loc 1 757 12 view .LVU501
 1520 004e EDE7     		b	.L74
 1521              	.LVL69:
ARM GAS  C:\Users\sapph\AppData\Local\Temp\ccTfCvBa.s 			page 64


 1522              	.L91:
 761:Drivers/STM32H5xx_HAL_Driver/Src/stm32h5xx_hal_dma.c **** 
 1523              		.loc 1 761 74 discriminator 2 view .LVU502
 1524 0050 4FF40078 		mov	r8, #512
 1525 0054 F4E7     		b	.L77
 1526              	.LVL70:
 1527              	.L79:
 790:Drivers/STM32H5xx_HAL_Driver/Src/stm32h5xx_hal_dma.c ****   }
 1528              		.loc 1 790 5 is_stmt 1 view .LVU503
 790:Drivers/STM32H5xx_HAL_Driver/Src/stm32h5xx_hal_dma.c ****   }
 1529              		.loc 1 790 19 is_stmt 0 view .LVU504
 1530 0056 2368     		ldr	r3, [r4]
 790:Drivers/STM32H5xx_HAL_Driver/Src/stm32h5xx_hal_dma.c ****   }
 1531              		.loc 1 790 13 view .LVU505
 1532 0058 1B69     		ldr	r3, [r3, #16]
 1533              	.LVL71:
 1534              	.L78:
 766:Drivers/STM32H5xx_HAL_Driver/Src/stm32h5xx_hal_dma.c ****   {
 1535              		.loc 1 766 33 is_stmt 1 view .LVU506
 1536 005a 13EA080F 		tst	r3, r8
 1537 005e 12D1     		bne	.L95
 769:Drivers/STM32H5xx_HAL_Driver/Src/stm32h5xx_hal_dma.c ****     {
 1538              		.loc 1 769 5 view .LVU507
 769:Drivers/STM32H5xx_HAL_Driver/Src/stm32h5xx_hal_dma.c ****     {
 1539              		.loc 1 769 8 is_stmt 0 view .LVU508
 1540 0060 B5F1FF3F 		cmp	r5, #-1
 1541 0064 F7D0     		beq	.L79
 771:Drivers/STM32H5xx_HAL_Driver/Src/stm32h5xx_hal_dma.c ****       {
 1542              		.loc 1 771 7 is_stmt 1 view .LVU509
 771:Drivers/STM32H5xx_HAL_Driver/Src/stm32h5xx_hal_dma.c ****       {
 1543              		.loc 1 771 13 is_stmt 0 view .LVU510
 1544 0066 FFF7FEFF 		bl	HAL_GetTick
 1545              	.LVL72:
 771:Drivers/STM32H5xx_HAL_Driver/Src/stm32h5xx_hal_dma.c ****       {
 1546              		.loc 1 771 27 discriminator 1 view .LVU511
 1547 006a C31B     		subs	r3, r0, r7
 771:Drivers/STM32H5xx_HAL_Driver/Src/stm32h5xx_hal_dma.c ****       {
 1548              		.loc 1 771 10 discriminator 1 view .LVU512
 1549 006c AB42     		cmp	r3, r5
 1550 006e 01D8     		bhi	.L80
 771:Drivers/STM32H5xx_HAL_Driver/Src/stm32h5xx_hal_dma.c ****       {
 1551              		.loc 1 771 51 discriminator 1 view .LVU513
 1552 0070 002D     		cmp	r5, #0
 1553 0072 F0D1     		bne	.L79
 1554              	.L80:
 774:Drivers/STM32H5xx_HAL_Driver/Src/stm32h5xx_hal_dma.c **** 
 1555              		.loc 1 774 9 is_stmt 1 view .LVU514
 774:Drivers/STM32H5xx_HAL_Driver/Src/stm32h5xx_hal_dma.c **** 
 1556              		.loc 1 774 13 is_stmt 0 view .LVU515
 1557 0074 A36D     		ldr	r3, [r4, #88]
 774:Drivers/STM32H5xx_HAL_Driver/Src/stm32h5xx_hal_dma.c **** 
 1558              		.loc 1 774 25 view .LVU516
 1559 0076 43F01003 		orr	r3, r3, #16
 1560 007a A365     		str	r3, [r4, #88]
 783:Drivers/STM32H5xx_HAL_Driver/Src/stm32h5xx_hal_dma.c **** 
 1561              		.loc 1 783 9 is_stmt 1 view .LVU517
 783:Drivers/STM32H5xx_HAL_Driver/Src/stm32h5xx_hal_dma.c **** 
ARM GAS  C:\Users\sapph\AppData\Local\Temp\ccTfCvBa.s 			page 65


 1562              		.loc 1 783 15 is_stmt 0 view .LVU518
 1563 007c 2046     		mov	r0, r4
 1564 007e FFF7FEFF 		bl	HAL_DMA_Abort
 1565              	.LVL73:
 785:Drivers/STM32H5xx_HAL_Driver/Src/stm32h5xx_hal_dma.c ****       }
 1566              		.loc 1 785 9 is_stmt 1 view .LVU519
 785:Drivers/STM32H5xx_HAL_Driver/Src/stm32h5xx_hal_dma.c ****       }
 1567              		.loc 1 785 16 is_stmt 0 view .LVU520
 1568 0082 0120     		movs	r0, #1
 1569 0084 D2E7     		b	.L74
 1570              	.LVL74:
 1571              	.L95:
 794:Drivers/STM32H5xx_HAL_Driver/Src/stm32h5xx_hal_dma.c ****   {
 1572              		.loc 1 794 3 is_stmt 1 view .LVU521
 794:Drivers/STM32H5xx_HAL_Driver/Src/stm32h5xx_hal_dma.c ****   {
 1573              		.loc 1 794 6 is_stmt 0 view .LVU522
 1574 0086 13F4804F 		tst	r3, #16384
 1575 008a 07D0     		beq	.L82
 797:Drivers/STM32H5xx_HAL_Driver/Src/stm32h5xx_hal_dma.c **** 
 1576              		.loc 1 797 5 is_stmt 1 view .LVU523
 797:Drivers/STM32H5xx_HAL_Driver/Src/stm32h5xx_hal_dma.c **** 
 1577              		.loc 1 797 9 is_stmt 0 view .LVU524
 1578 008c A26D     		ldr	r2, [r4, #88]
 797:Drivers/STM32H5xx_HAL_Driver/Src/stm32h5xx_hal_dma.c **** 
 1579              		.loc 1 797 21 view .LVU525
 1580 008e 42F00802 		orr	r2, r2, #8
 1581 0092 A265     		str	r2, [r4, #88]
 800:Drivers/STM32H5xx_HAL_Driver/Src/stm32h5xx_hal_dma.c ****   }
 1582              		.loc 1 800 5 is_stmt 1 view .LVU526
 1583 0094 2268     		ldr	r2, [r4]
 1584 0096 4FF48041 		mov	r1, #16384
 1585 009a D160     		str	r1, [r2, #12]
 1586              	.L82:
 804:Drivers/STM32H5xx_HAL_Driver/Src/stm32h5xx_hal_dma.c ****   {
 1587              		.loc 1 804 3 view .LVU527
 804:Drivers/STM32H5xx_HAL_Driver/Src/stm32h5xx_hal_dma.c ****   {
 1588              		.loc 1 804 6 is_stmt 0 view .LVU528
 1589 009c 13F4E05F 		tst	r3, #7168
 1590 00a0 16D1     		bne	.L96
 856:Drivers/STM32H5xx_HAL_Driver/Src/stm32h5xx_hal_dma.c ****   {
 1591              		.loc 1 856 3 is_stmt 1 view .LVU529
 856:Drivers/STM32H5xx_HAL_Driver/Src/stm32h5xx_hal_dma.c ****   {
 1592              		.loc 1 856 6 is_stmt 0 view .LVU530
 1593 00a2 012E     		cmp	r6, #1
 1594 00a4 49D0     		beq	.L97
 861:Drivers/STM32H5xx_HAL_Driver/Src/stm32h5xx_hal_dma.c ****   {
 1595              		.loc 1 861 8 is_stmt 1 view .LVU531
 861:Drivers/STM32H5xx_HAL_Driver/Src/stm32h5xx_hal_dma.c ****   {
 1596              		.loc 1 861 11 is_stmt 0 view .LVU532
 1597 00a6 002E     		cmp	r6, #0
 1598 00a8 4FD1     		bne	.L92
 864:Drivers/STM32H5xx_HAL_Driver/Src/stm32h5xx_hal_dma.c **** 
 1599              		.loc 1 864 5 is_stmt 1 view .LVU533
 1600 00aa 2368     		ldr	r3, [r4]
 1601              	.LVL75:
 864:Drivers/STM32H5xx_HAL_Driver/Src/stm32h5xx_hal_dma.c **** 
 1602              		.loc 1 864 5 is_stmt 0 view .LVU534
ARM GAS  C:\Users\sapph\AppData\Local\Temp\ccTfCvBa.s 			page 66


 1603 00ac 4FF44072 		mov	r2, #768
 1604 00b0 DA60     		str	r2, [r3, #12]
 867:Drivers/STM32H5xx_HAL_Driver/Src/stm32h5xx_hal_dma.c **** 
 1605              		.loc 1 867 5 is_stmt 1 view .LVU535
 867:Drivers/STM32H5xx_HAL_Driver/Src/stm32h5xx_hal_dma.c **** 
 1606              		.loc 1 867 17 is_stmt 0 view .LVU536
 1607 00b2 0123     		movs	r3, #1
 1608 00b4 84F85430 		strb	r3, [r4, #84]
 870:Drivers/STM32H5xx_HAL_Driver/Src/stm32h5xx_hal_dma.c ****     {
 1609              		.loc 1 870 5 is_stmt 1 view .LVU537
 870:Drivers/STM32H5xx_HAL_Driver/Src/stm32h5xx_hal_dma.c ****     {
 1610              		.loc 1 870 14 is_stmt 0 view .LVU538
 1611 00b8 236D     		ldr	r3, [r4, #80]
 870:Drivers/STM32H5xx_HAL_Driver/Src/stm32h5xx_hal_dma.c ****     {
 1612              		.loc 1 870 8 view .LVU539
 1613 00ba 13F0800F 		tst	r3, #128
 1614 00be 02D0     		beq	.L89
 873:Drivers/STM32H5xx_HAL_Driver/Src/stm32h5xx_hal_dma.c ****     }
 1615              		.loc 1 873 7 is_stmt 1 view .LVU540
 873:Drivers/STM32H5xx_HAL_Driver/Src/stm32h5xx_hal_dma.c ****     }
 1616              		.loc 1 873 11 is_stmt 0 view .LVU541
 1617 00c0 636F     		ldr	r3, [r4, #116]
 873:Drivers/STM32H5xx_HAL_Driver/Src/stm32h5xx_hal_dma.c ****     }
 1618              		.loc 1 873 36 view .LVU542
 1619 00c2 0122     		movs	r2, #1
 1620 00c4 1A73     		strb	r2, [r3, #12]
 1621              	.L89:
 877:Drivers/STM32H5xx_HAL_Driver/Src/stm32h5xx_hal_dma.c ****   }
 1622              		.loc 1 877 5 is_stmt 1 view .LVU543
 877:Drivers/STM32H5xx_HAL_Driver/Src/stm32h5xx_hal_dma.c ****   }
 1623              		.loc 1 877 5 view .LVU544
 1624 00c6 0023     		movs	r3, #0
 1625 00c8 84F84C30 		strb	r3, [r4, #76]
 877:Drivers/STM32H5xx_HAL_Driver/Src/stm32h5xx_hal_dma.c ****   }
 1626              		.loc 1 877 5 view .LVU545
 884:Drivers/STM32H5xx_HAL_Driver/Src/stm32h5xx_hal_dma.c **** }
 1627              		.loc 1 884 10 is_stmt 0 view .LVU546
 1628 00cc 3046     		mov	r0, r6
 1629 00ce ADE7     		b	.L74
 1630              	.LVL76:
 1631              	.L96:
 807:Drivers/STM32H5xx_HAL_Driver/Src/stm32h5xx_hal_dma.c ****     {
 1632              		.loc 1 807 5 is_stmt 1 view .LVU547
 807:Drivers/STM32H5xx_HAL_Driver/Src/stm32h5xx_hal_dma.c ****     {
 1633              		.loc 1 807 8 is_stmt 0 view .LVU548
 1634 00d0 13F4806F 		tst	r3, #1024
 1635 00d4 07D0     		beq	.L84
 810:Drivers/STM32H5xx_HAL_Driver/Src/stm32h5xx_hal_dma.c **** 
 1636              		.loc 1 810 7 is_stmt 1 view .LVU549
 810:Drivers/STM32H5xx_HAL_Driver/Src/stm32h5xx_hal_dma.c **** 
 1637              		.loc 1 810 11 is_stmt 0 view .LVU550
 1638 00d6 A26D     		ldr	r2, [r4, #88]
 810:Drivers/STM32H5xx_HAL_Driver/Src/stm32h5xx_hal_dma.c **** 
 1639              		.loc 1 810 23 view .LVU551
 1640 00d8 42F00102 		orr	r2, r2, #1
 1641 00dc A265     		str	r2, [r4, #88]
 813:Drivers/STM32H5xx_HAL_Driver/Src/stm32h5xx_hal_dma.c ****     }
ARM GAS  C:\Users\sapph\AppData\Local\Temp\ccTfCvBa.s 			page 67


 1642              		.loc 1 813 7 is_stmt 1 view .LVU552
 1643 00de 2268     		ldr	r2, [r4]
 1644 00e0 4FF48061 		mov	r1, #1024
 1645 00e4 D160     		str	r1, [r2, #12]
 1646              	.L84:
 817:Drivers/STM32H5xx_HAL_Driver/Src/stm32h5xx_hal_dma.c ****     {
 1647              		.loc 1 817 5 view .LVU553
 817:Drivers/STM32H5xx_HAL_Driver/Src/stm32h5xx_hal_dma.c ****     {
 1648              		.loc 1 817 8 is_stmt 0 view .LVU554
 1649 00e6 13F4006F 		tst	r3, #2048
 1650 00ea 07D0     		beq	.L85
 820:Drivers/STM32H5xx_HAL_Driver/Src/stm32h5xx_hal_dma.c **** 
 1651              		.loc 1 820 7 is_stmt 1 view .LVU555
 820:Drivers/STM32H5xx_HAL_Driver/Src/stm32h5xx_hal_dma.c **** 
 1652              		.loc 1 820 11 is_stmt 0 view .LVU556
 1653 00ec A26D     		ldr	r2, [r4, #88]
 820:Drivers/STM32H5xx_HAL_Driver/Src/stm32h5xx_hal_dma.c **** 
 1654              		.loc 1 820 23 view .LVU557
 1655 00ee 42F00202 		orr	r2, r2, #2
 1656 00f2 A265     		str	r2, [r4, #88]
 823:Drivers/STM32H5xx_HAL_Driver/Src/stm32h5xx_hal_dma.c ****     }
 1657              		.loc 1 823 7 is_stmt 1 view .LVU558
 1658 00f4 2268     		ldr	r2, [r4]
 1659 00f6 4FF40061 		mov	r1, #2048
 1660 00fa D160     		str	r1, [r2, #12]
 1661              	.L85:
 827:Drivers/STM32H5xx_HAL_Driver/Src/stm32h5xx_hal_dma.c ****     {
 1662              		.loc 1 827 5 view .LVU559
 827:Drivers/STM32H5xx_HAL_Driver/Src/stm32h5xx_hal_dma.c ****     {
 1663              		.loc 1 827 8 is_stmt 0 view .LVU560
 1664 00fc 13F4805F 		tst	r3, #4096
 1665 0100 07D0     		beq	.L86
 830:Drivers/STM32H5xx_HAL_Driver/Src/stm32h5xx_hal_dma.c **** 
 1666              		.loc 1 830 7 is_stmt 1 view .LVU561
 830:Drivers/STM32H5xx_HAL_Driver/Src/stm32h5xx_hal_dma.c **** 
 1667              		.loc 1 830 11 is_stmt 0 view .LVU562
 1668 0102 A36D     		ldr	r3, [r4, #88]
 1669              	.LVL77:
 830:Drivers/STM32H5xx_HAL_Driver/Src/stm32h5xx_hal_dma.c **** 
 1670              		.loc 1 830 23 view .LVU563
 1671 0104 43F00403 		orr	r3, r3, #4
 1672 0108 A365     		str	r3, [r4, #88]
 833:Drivers/STM32H5xx_HAL_Driver/Src/stm32h5xx_hal_dma.c ****     }
 1673              		.loc 1 833 7 is_stmt 1 view .LVU564
 1674 010a 2368     		ldr	r3, [r4]
 1675 010c 4FF48052 		mov	r2, #4096
 1676 0110 DA60     		str	r2, [r3, #12]
 1677              	.L86:
 837:Drivers/STM32H5xx_HAL_Driver/Src/stm32h5xx_hal_dma.c **** 
 1678              		.loc 1 837 5 view .LVU565
 837:Drivers/STM32H5xx_HAL_Driver/Src/stm32h5xx_hal_dma.c **** 
 1679              		.loc 1 837 9 is_stmt 0 view .LVU566
 1680 0112 2268     		ldr	r2, [r4]
 837:Drivers/STM32H5xx_HAL_Driver/Src/stm32h5xx_hal_dma.c **** 
 1681              		.loc 1 837 19 view .LVU567
 1682 0114 5369     		ldr	r3, [r2, #20]
 837:Drivers/STM32H5xx_HAL_Driver/Src/stm32h5xx_hal_dma.c **** 
ARM GAS  C:\Users\sapph\AppData\Local\Temp\ccTfCvBa.s 			page 68


 1683              		.loc 1 837 25 view .LVU568
 1684 0116 43F00203 		orr	r3, r3, #2
 1685 011a 5361     		str	r3, [r2, #20]
 840:Drivers/STM32H5xx_HAL_Driver/Src/stm32h5xx_hal_dma.c **** 
 1686              		.loc 1 840 5 is_stmt 1 view .LVU569
 840:Drivers/STM32H5xx_HAL_Driver/Src/stm32h5xx_hal_dma.c **** 
 1687              		.loc 1 840 17 is_stmt 0 view .LVU570
 1688 011c 0123     		movs	r3, #1
 1689 011e 84F85430 		strb	r3, [r4, #84]
 843:Drivers/STM32H5xx_HAL_Driver/Src/stm32h5xx_hal_dma.c ****     {
 1690              		.loc 1 843 5 is_stmt 1 view .LVU571
 843:Drivers/STM32H5xx_HAL_Driver/Src/stm32h5xx_hal_dma.c ****     {
 1691              		.loc 1 843 14 is_stmt 0 view .LVU572
 1692 0122 236D     		ldr	r3, [r4, #80]
 843:Drivers/STM32H5xx_HAL_Driver/Src/stm32h5xx_hal_dma.c ****     {
 1693              		.loc 1 843 8 view .LVU573
 1694 0124 13F0800F 		tst	r3, #128
 1695 0128 02D0     		beq	.L87
 846:Drivers/STM32H5xx_HAL_Driver/Src/stm32h5xx_hal_dma.c ****     }
 1696              		.loc 1 846 7 is_stmt 1 view .LVU574
 846:Drivers/STM32H5xx_HAL_Driver/Src/stm32h5xx_hal_dma.c ****     }
 1697              		.loc 1 846 11 is_stmt 0 view .LVU575
 1698 012a 636F     		ldr	r3, [r4, #116]
 846:Drivers/STM32H5xx_HAL_Driver/Src/stm32h5xx_hal_dma.c ****     }
 1699              		.loc 1 846 36 view .LVU576
 1700 012c 0122     		movs	r2, #1
 1701 012e 1A73     		strb	r2, [r3, #12]
 1702              	.L87:
 850:Drivers/STM32H5xx_HAL_Driver/Src/stm32h5xx_hal_dma.c **** 
 1703              		.loc 1 850 5 is_stmt 1 view .LVU577
 850:Drivers/STM32H5xx_HAL_Driver/Src/stm32h5xx_hal_dma.c **** 
 1704              		.loc 1 850 5 view .LVU578
 1705 0130 0023     		movs	r3, #0
 1706 0132 84F84C30 		strb	r3, [r4, #76]
 850:Drivers/STM32H5xx_HAL_Driver/Src/stm32h5xx_hal_dma.c **** 
 1707              		.loc 1 850 5 view .LVU579
 852:Drivers/STM32H5xx_HAL_Driver/Src/stm32h5xx_hal_dma.c ****   }
 1708              		.loc 1 852 5 view .LVU580
 852:Drivers/STM32H5xx_HAL_Driver/Src/stm32h5xx_hal_dma.c ****   }
 1709              		.loc 1 852 12 is_stmt 0 view .LVU581
 1710 0136 0120     		movs	r0, #1
 1711 0138 78E7     		b	.L74
 1712              	.LVL78:
 1713              	.L97:
 859:Drivers/STM32H5xx_HAL_Driver/Src/stm32h5xx_hal_dma.c ****   }
 1714              		.loc 1 859 5 is_stmt 1 view .LVU582
 1715 013a 2368     		ldr	r3, [r4]
 1716              	.LVL79:
 859:Drivers/STM32H5xx_HAL_Driver/Src/stm32h5xx_hal_dma.c ****   }
 1717              		.loc 1 859 5 is_stmt 0 view .LVU583
 1718 013c 4FF40072 		mov	r2, #512
 1719 0140 DA60     		str	r2, [r3, #12]
 884:Drivers/STM32H5xx_HAL_Driver/Src/stm32h5xx_hal_dma.c **** }
 1720              		.loc 1 884 10 view .LVU584
 1721 0142 0020     		movs	r0, #0
 1722 0144 72E7     		b	.L74
 1723              	.LVL80:
ARM GAS  C:\Users\sapph\AppData\Local\Temp\ccTfCvBa.s 			page 69


 1724              	.L90:
 733:Drivers/STM32H5xx_HAL_Driver/Src/stm32h5xx_hal_dma.c ****   }
 1725              		.loc 1 733 12 view .LVU585
 1726 0146 0120     		movs	r0, #1
 1727              	.LVL81:
 733:Drivers/STM32H5xx_HAL_Driver/Src/stm32h5xx_hal_dma.c ****   }
 1728              		.loc 1 733 12 view .LVU586
 1729 0148 70E7     		b	.L74
 1730              	.LVL82:
 1731              	.L92:
 881:Drivers/STM32H5xx_HAL_Driver/Src/stm32h5xx_hal_dma.c ****   }
 1732              		.loc 1 881 12 view .LVU587
 1733 014a 0120     		movs	r0, #1
 1734 014c 6EE7     		b	.L74
 1735              		.cfi_endproc
 1736              	.LFE166:
 1738              		.section	.text.HAL_DMA_IRQHandler,"ax",%progbits
 1739              		.align	1
 1740              		.global	HAL_DMA_IRQHandler
 1741              		.syntax unified
 1742              		.thumb
 1743              		.thumb_func
 1745              	HAL_DMA_IRQHandler:
 1746              	.LVL83:
 1747              	.LFB167:
 894:Drivers/STM32H5xx_HAL_Driver/Src/stm32h5xx_hal_dma.c ****   const DMA_TypeDef *p_dma_instance = GET_DMA_INSTANCE(hdma);
 1748              		.loc 1 894 1 is_stmt 1 view -0
 1749              		.cfi_startproc
 1750              		@ args = 0, pretend = 0, frame = 0
 1751              		@ frame_needed = 0, uses_anonymous_args = 0
 894:Drivers/STM32H5xx_HAL_Driver/Src/stm32h5xx_hal_dma.c ****   const DMA_TypeDef *p_dma_instance = GET_DMA_INSTANCE(hdma);
 1752              		.loc 1 894 1 is_stmt 0 view .LVU589
 1753 0000 10B5     		push	{r4, lr}
 1754              		.cfi_def_cfa_offset 8
 1755              		.cfi_offset 4, -8
 1756              		.cfi_offset 14, -4
 1757 0002 0446     		mov	r4, r0
 895:Drivers/STM32H5xx_HAL_Driver/Src/stm32h5xx_hal_dma.c ****   uint32_t global_it_flag =  1UL << (GET_DMA_CHANNEL(hdma) & 0x1FU);
 1758              		.loc 1 895 3 is_stmt 1 view .LVU590
 895:Drivers/STM32H5xx_HAL_Driver/Src/stm32h5xx_hal_dma.c ****   uint32_t global_it_flag =  1UL << (GET_DMA_CHANNEL(hdma) & 0x1FU);
 1759              		.loc 1 895 39 is_stmt 0 view .LVU591
 1760 0004 0268     		ldr	r2, [r0]
 1761 0006 22F47F60 		bic	r0, r2, #4080
 1762              	.LVL84:
 895:Drivers/STM32H5xx_HAL_Driver/Src/stm32h5xx_hal_dma.c ****   uint32_t global_it_flag =  1UL << (GET_DMA_CHANNEL(hdma) & 0x1FU);
 1763              		.loc 1 895 39 view .LVU592
 1764 000a 20F00F00 		bic	r0, r0, #15
 1765              	.LVL85:
 896:Drivers/STM32H5xx_HAL_Driver/Src/stm32h5xx_hal_dma.c ****   uint32_t global_active_flag_ns = IS_DMA_GLOBAL_ACTIVE_FLAG_NS(p_dma_instance, global_it_flag);
 1766              		.loc 1 896 3 is_stmt 1 view .LVU593
 896:Drivers/STM32H5xx_HAL_Driver/Src/stm32h5xx_hal_dma.c ****   uint32_t global_active_flag_ns = IS_DMA_GLOBAL_ACTIVE_FLAG_NS(p_dma_instance, global_it_flag);
 1767              		.loc 1 896 38 is_stmt 0 view .LVU594
 1768 000e C2F30B03 		ubfx	r3, r2, #0, #12
 1769 0012 503B     		subs	r3, r3, #80
 896:Drivers/STM32H5xx_HAL_Driver/Src/stm32h5xx_hal_dma.c ****   uint32_t global_active_flag_ns = IS_DMA_GLOBAL_ACTIVE_FLAG_NS(p_dma_instance, global_it_flag);
 1770              		.loc 1 896 60 view .LVU595
 1771 0014 C3F3C413 		ubfx	r3, r3, #7, #5
ARM GAS  C:\Users\sapph\AppData\Local\Temp\ccTfCvBa.s 			page 70


 896:Drivers/STM32H5xx_HAL_Driver/Src/stm32h5xx_hal_dma.c ****   uint32_t global_active_flag_ns = IS_DMA_GLOBAL_ACTIVE_FLAG_NS(p_dma_instance, global_it_flag);
 1772              		.loc 1 896 12 view .LVU596
 1773 0018 0121     		movs	r1, #1
 1774 001a 01FA03F3 		lsl	r3, r1, r3
 1775              	.LVL86:
 897:Drivers/STM32H5xx_HAL_Driver/Src/stm32h5xx_hal_dma.c **** #if defined (__ARM_FEATURE_CMSE) && (__ARM_FEATURE_CMSE == 3U)
 1776              		.loc 1 897 3 is_stmt 1 view .LVU597
 897:Drivers/STM32H5xx_HAL_Driver/Src/stm32h5xx_hal_dma.c **** #if defined (__ARM_FEATURE_CMSE) && (__ARM_FEATURE_CMSE == 3U)
 1777              		.loc 1 897 36 is_stmt 0 view .LVU598
 1778 001e C168     		ldr	r1, [r0, #12]
 1779              	.LVL87:
 906:Drivers/STM32H5xx_HAL_Driver/Src/stm32h5xx_hal_dma.c **** #endif /* (__ARM_FEATURE_CMSE) && (__ARM_FEATURE_CMSE == 3U) */
 1780              		.loc 1 906 3 is_stmt 1 view .LVU599
 906:Drivers/STM32H5xx_HAL_Driver/Src/stm32h5xx_hal_dma.c **** #endif /* (__ARM_FEATURE_CMSE) && (__ARM_FEATURE_CMSE == 3U) */
 1781              		.loc 1 906 6 is_stmt 0 view .LVU600
 1782 0020 1942     		tst	r1, r3
 1783 0022 00F0C580 		beq	.L98
 913:Drivers/STM32H5xx_HAL_Driver/Src/stm32h5xx_hal_dma.c ****   {
 1784              		.loc 1 913 3 is_stmt 1 view .LVU601
 913:Drivers/STM32H5xx_HAL_Driver/Src/stm32h5xx_hal_dma.c ****   {
 1785              		.loc 1 913 8 is_stmt 0 view .LVU602
 1786 0026 1369     		ldr	r3, [r2, #16]
 1787              	.LVL88:
 913:Drivers/STM32H5xx_HAL_Driver/Src/stm32h5xx_hal_dma.c ****   {
 1788              		.loc 1 913 6 view .LVU603
 1789 0028 13F4806F 		tst	r3, #1024
 1790 002c 0AD0     		beq	.L100
 916:Drivers/STM32H5xx_HAL_Driver/Src/stm32h5xx_hal_dma.c ****     {
 1791              		.loc 1 916 5 is_stmt 1 view .LVU604
 916:Drivers/STM32H5xx_HAL_Driver/Src/stm32h5xx_hal_dma.c ****     {
 1792              		.loc 1 916 9 is_stmt 0 view .LVU605
 1793 002e 5369     		ldr	r3, [r2, #20]
 916:Drivers/STM32H5xx_HAL_Driver/Src/stm32h5xx_hal_dma.c ****     {
 1794              		.loc 1 916 8 view .LVU606
 1795 0030 13F4806F 		tst	r3, #1024
 1796 0034 06D0     		beq	.L100
 919:Drivers/STM32H5xx_HAL_Driver/Src/stm32h5xx_hal_dma.c **** 
 1797              		.loc 1 919 7 is_stmt 1 view .LVU607
 1798 0036 4FF48063 		mov	r3, #1024
 1799 003a D360     		str	r3, [r2, #12]
 922:Drivers/STM32H5xx_HAL_Driver/Src/stm32h5xx_hal_dma.c ****     }
 1800              		.loc 1 922 7 view .LVU608
 922:Drivers/STM32H5xx_HAL_Driver/Src/stm32h5xx_hal_dma.c ****     }
 1801              		.loc 1 922 11 is_stmt 0 view .LVU609
 1802 003c A36D     		ldr	r3, [r4, #88]
 922:Drivers/STM32H5xx_HAL_Driver/Src/stm32h5xx_hal_dma.c ****     }
 1803              		.loc 1 922 23 view .LVU610
 1804 003e 43F00103 		orr	r3, r3, #1
 1805 0042 A365     		str	r3, [r4, #88]
 1806              	.L100:
 927:Drivers/STM32H5xx_HAL_Driver/Src/stm32h5xx_hal_dma.c ****   {
 1807              		.loc 1 927 3 is_stmt 1 view .LVU611
 927:Drivers/STM32H5xx_HAL_Driver/Src/stm32h5xx_hal_dma.c ****   {
 1808              		.loc 1 927 8 is_stmt 0 view .LVU612
 1809 0044 2368     		ldr	r3, [r4]
 1810 0046 1A69     		ldr	r2, [r3, #16]
 1811              	.LVL89:
ARM GAS  C:\Users\sapph\AppData\Local\Temp\ccTfCvBa.s 			page 71


 927:Drivers/STM32H5xx_HAL_Driver/Src/stm32h5xx_hal_dma.c ****   {
 1812              		.loc 1 927 6 view .LVU613
 1813 0048 12F4006F 		tst	r2, #2048
 1814 004c 0AD0     		beq	.L101
 930:Drivers/STM32H5xx_HAL_Driver/Src/stm32h5xx_hal_dma.c ****     {
 1815              		.loc 1 930 5 is_stmt 1 view .LVU614
 930:Drivers/STM32H5xx_HAL_Driver/Src/stm32h5xx_hal_dma.c ****     {
 1816              		.loc 1 930 9 is_stmt 0 view .LVU615
 1817 004e 5A69     		ldr	r2, [r3, #20]
 930:Drivers/STM32H5xx_HAL_Driver/Src/stm32h5xx_hal_dma.c ****     {
 1818              		.loc 1 930 8 view .LVU616
 1819 0050 12F4006F 		tst	r2, #2048
 1820 0054 06D0     		beq	.L101
 933:Drivers/STM32H5xx_HAL_Driver/Src/stm32h5xx_hal_dma.c **** 
 1821              		.loc 1 933 7 is_stmt 1 view .LVU617
 1822 0056 4FF40062 		mov	r2, #2048
 1823 005a DA60     		str	r2, [r3, #12]
 936:Drivers/STM32H5xx_HAL_Driver/Src/stm32h5xx_hal_dma.c ****     }
 1824              		.loc 1 936 7 view .LVU618
 936:Drivers/STM32H5xx_HAL_Driver/Src/stm32h5xx_hal_dma.c ****     }
 1825              		.loc 1 936 11 is_stmt 0 view .LVU619
 1826 005c A36D     		ldr	r3, [r4, #88]
 936:Drivers/STM32H5xx_HAL_Driver/Src/stm32h5xx_hal_dma.c ****     }
 1827              		.loc 1 936 23 view .LVU620
 1828 005e 43F00203 		orr	r3, r3, #2
 1829 0062 A365     		str	r3, [r4, #88]
 1830              	.L101:
 941:Drivers/STM32H5xx_HAL_Driver/Src/stm32h5xx_hal_dma.c ****   {
 1831              		.loc 1 941 3 is_stmt 1 view .LVU621
 941:Drivers/STM32H5xx_HAL_Driver/Src/stm32h5xx_hal_dma.c ****   {
 1832              		.loc 1 941 8 is_stmt 0 view .LVU622
 1833 0064 2368     		ldr	r3, [r4]
 1834 0066 1A69     		ldr	r2, [r3, #16]
 941:Drivers/STM32H5xx_HAL_Driver/Src/stm32h5xx_hal_dma.c ****   {
 1835              		.loc 1 941 6 view .LVU623
 1836 0068 12F4805F 		tst	r2, #4096
 1837 006c 0AD0     		beq	.L102
 944:Drivers/STM32H5xx_HAL_Driver/Src/stm32h5xx_hal_dma.c ****     {
 1838              		.loc 1 944 5 is_stmt 1 view .LVU624
 944:Drivers/STM32H5xx_HAL_Driver/Src/stm32h5xx_hal_dma.c ****     {
 1839              		.loc 1 944 9 is_stmt 0 view .LVU625
 1840 006e 5A69     		ldr	r2, [r3, #20]
 944:Drivers/STM32H5xx_HAL_Driver/Src/stm32h5xx_hal_dma.c ****     {
 1841              		.loc 1 944 8 view .LVU626
 1842 0070 12F4805F 		tst	r2, #4096
 1843 0074 06D0     		beq	.L102
 947:Drivers/STM32H5xx_HAL_Driver/Src/stm32h5xx_hal_dma.c **** 
 1844              		.loc 1 947 7 is_stmt 1 view .LVU627
 1845 0076 4FF48052 		mov	r2, #4096
 1846 007a DA60     		str	r2, [r3, #12]
 950:Drivers/STM32H5xx_HAL_Driver/Src/stm32h5xx_hal_dma.c ****     }
 1847              		.loc 1 950 7 view .LVU628
 950:Drivers/STM32H5xx_HAL_Driver/Src/stm32h5xx_hal_dma.c ****     }
 1848              		.loc 1 950 11 is_stmt 0 view .LVU629
 1849 007c A36D     		ldr	r3, [r4, #88]
 950:Drivers/STM32H5xx_HAL_Driver/Src/stm32h5xx_hal_dma.c ****     }
 1850              		.loc 1 950 23 view .LVU630
ARM GAS  C:\Users\sapph\AppData\Local\Temp\ccTfCvBa.s 			page 72


 1851 007e 43F00403 		orr	r3, r3, #4
 1852 0082 A365     		str	r3, [r4, #88]
 1853              	.L102:
 955:Drivers/STM32H5xx_HAL_Driver/Src/stm32h5xx_hal_dma.c ****   {
 1854              		.loc 1 955 3 is_stmt 1 view .LVU631
 955:Drivers/STM32H5xx_HAL_Driver/Src/stm32h5xx_hal_dma.c ****   {
 1855              		.loc 1 955 8 is_stmt 0 view .LVU632
 1856 0084 2368     		ldr	r3, [r4]
 1857 0086 1A69     		ldr	r2, [r3, #16]
 955:Drivers/STM32H5xx_HAL_Driver/Src/stm32h5xx_hal_dma.c ****   {
 1858              		.loc 1 955 6 view .LVU633
 1859 0088 12F4804F 		tst	r2, #16384
 1860 008c 0AD0     		beq	.L103
 958:Drivers/STM32H5xx_HAL_Driver/Src/stm32h5xx_hal_dma.c ****     {
 1861              		.loc 1 958 5 is_stmt 1 view .LVU634
 958:Drivers/STM32H5xx_HAL_Driver/Src/stm32h5xx_hal_dma.c ****     {
 1862              		.loc 1 958 9 is_stmt 0 view .LVU635
 1863 008e 5A69     		ldr	r2, [r3, #20]
 958:Drivers/STM32H5xx_HAL_Driver/Src/stm32h5xx_hal_dma.c ****     {
 1864              		.loc 1 958 8 view .LVU636
 1865 0090 12F4804F 		tst	r2, #16384
 1866 0094 06D0     		beq	.L103
 961:Drivers/STM32H5xx_HAL_Driver/Src/stm32h5xx_hal_dma.c **** 
 1867              		.loc 1 961 7 is_stmt 1 view .LVU637
 1868 0096 4FF48042 		mov	r2, #16384
 1869 009a DA60     		str	r2, [r3, #12]
 964:Drivers/STM32H5xx_HAL_Driver/Src/stm32h5xx_hal_dma.c ****     }
 1870              		.loc 1 964 7 view .LVU638
 964:Drivers/STM32H5xx_HAL_Driver/Src/stm32h5xx_hal_dma.c ****     }
 1871              		.loc 1 964 11 is_stmt 0 view .LVU639
 1872 009c A36D     		ldr	r3, [r4, #88]
 964:Drivers/STM32H5xx_HAL_Driver/Src/stm32h5xx_hal_dma.c ****     }
 1873              		.loc 1 964 23 view .LVU640
 1874 009e 43F00803 		orr	r3, r3, #8
 1875 00a2 A365     		str	r3, [r4, #88]
 1876              	.L103:
 969:Drivers/STM32H5xx_HAL_Driver/Src/stm32h5xx_hal_dma.c ****   {
 1877              		.loc 1 969 3 is_stmt 1 view .LVU641
 969:Drivers/STM32H5xx_HAL_Driver/Src/stm32h5xx_hal_dma.c ****   {
 1878              		.loc 1 969 8 is_stmt 0 view .LVU642
 1879 00a4 2368     		ldr	r3, [r4]
 1880 00a6 1A69     		ldr	r2, [r3, #16]
 969:Drivers/STM32H5xx_HAL_Driver/Src/stm32h5xx_hal_dma.c ****   {
 1881              		.loc 1 969 6 view .LVU643
 1882 00a8 12F4007F 		tst	r2, #512
 1883 00ac 0AD0     		beq	.L104
 972:Drivers/STM32H5xx_HAL_Driver/Src/stm32h5xx_hal_dma.c ****     {
 1884              		.loc 1 972 5 is_stmt 1 view .LVU644
 972:Drivers/STM32H5xx_HAL_Driver/Src/stm32h5xx_hal_dma.c ****     {
 1885              		.loc 1 972 9 is_stmt 0 view .LVU645
 1886 00ae 5A69     		ldr	r2, [r3, #20]
 972:Drivers/STM32H5xx_HAL_Driver/Src/stm32h5xx_hal_dma.c ****     {
 1887              		.loc 1 972 8 view .LVU646
 1888 00b0 12F4007F 		tst	r2, #512
 1889 00b4 06D0     		beq	.L104
 975:Drivers/STM32H5xx_HAL_Driver/Src/stm32h5xx_hal_dma.c **** 
 1890              		.loc 1 975 7 is_stmt 1 view .LVU647
ARM GAS  C:\Users\sapph\AppData\Local\Temp\ccTfCvBa.s 			page 73


 1891 00b6 4FF40072 		mov	r2, #512
 1892 00ba DA60     		str	r2, [r3, #12]
 978:Drivers/STM32H5xx_HAL_Driver/Src/stm32h5xx_hal_dma.c ****       {
 1893              		.loc 1 978 7 view .LVU648
 978:Drivers/STM32H5xx_HAL_Driver/Src/stm32h5xx_hal_dma.c ****       {
 1894              		.loc 1 978 15 is_stmt 0 view .LVU649
 1895 00bc 636E     		ldr	r3, [r4, #100]
 978:Drivers/STM32H5xx_HAL_Driver/Src/stm32h5xx_hal_dma.c ****       {
 1896              		.loc 1 978 10 view .LVU650
 1897 00be 0BB1     		cbz	r3, .L104
 981:Drivers/STM32H5xx_HAL_Driver/Src/stm32h5xx_hal_dma.c ****       }
 1898              		.loc 1 981 9 is_stmt 1 view .LVU651
 1899 00c0 2046     		mov	r0, r4
 1900              	.LVL90:
 981:Drivers/STM32H5xx_HAL_Driver/Src/stm32h5xx_hal_dma.c ****       }
 1901              		.loc 1 981 9 is_stmt 0 view .LVU652
 1902 00c2 9847     		blx	r3
 1903              	.LVL91:
 1904              	.L104:
 987:Drivers/STM32H5xx_HAL_Driver/Src/stm32h5xx_hal_dma.c ****   {
 1905              		.loc 1 987 3 is_stmt 1 view .LVU653
 987:Drivers/STM32H5xx_HAL_Driver/Src/stm32h5xx_hal_dma.c ****   {
 1906              		.loc 1 987 8 is_stmt 0 view .LVU654
 1907 00c4 2368     		ldr	r3, [r4]
 1908 00c6 1A69     		ldr	r2, [r3, #16]
 987:Drivers/STM32H5xx_HAL_Driver/Src/stm32h5xx_hal_dma.c ****   {
 1909              		.loc 1 987 6 view .LVU655
 1910 00c8 12F4005F 		tst	r2, #8192
 1911 00cc 12D0     		beq	.L105
 990:Drivers/STM32H5xx_HAL_Driver/Src/stm32h5xx_hal_dma.c ****     {
 1912              		.loc 1 990 5 is_stmt 1 view .LVU656
 990:Drivers/STM32H5xx_HAL_Driver/Src/stm32h5xx_hal_dma.c ****     {
 1913              		.loc 1 990 9 is_stmt 0 view .LVU657
 1914 00ce 5A69     		ldr	r2, [r3, #20]
 990:Drivers/STM32H5xx_HAL_Driver/Src/stm32h5xx_hal_dma.c ****     {
 1915              		.loc 1 990 8 view .LVU658
 1916 00d0 12F4005F 		tst	r2, #8192
 1917 00d4 0ED0     		beq	.L105
 993:Drivers/STM32H5xx_HAL_Driver/Src/stm32h5xx_hal_dma.c **** 
 1918              		.loc 1 993 7 is_stmt 1 view .LVU659
 1919 00d6 4FF40052 		mov	r2, #8192
 1920 00da DA60     		str	r2, [r3, #12]
 996:Drivers/STM32H5xx_HAL_Driver/Src/stm32h5xx_hal_dma.c ****       {
 1921              		.loc 1 996 7 view .LVU660
 996:Drivers/STM32H5xx_HAL_Driver/Src/stm32h5xx_hal_dma.c ****       {
 1922              		.loc 1 996 15 is_stmt 0 view .LVU661
 1923 00dc 94F85430 		ldrb	r3, [r4, #84]	@ zero_extendqisi2
 1924 00e0 DBB2     		uxtb	r3, r3
 996:Drivers/STM32H5xx_HAL_Driver/Src/stm32h5xx_hal_dma.c ****       {
 1925              		.loc 1 996 10 view .LVU662
 1926 00e2 042B     		cmp	r3, #4
 1927 00e4 1DD0     		beq	.L114
1032:Drivers/STM32H5xx_HAL_Driver/Src/stm32h5xx_hal_dma.c **** 
 1928              		.loc 1 1032 9 is_stmt 1 view .LVU663
1032:Drivers/STM32H5xx_HAL_Driver/Src/stm32h5xx_hal_dma.c **** 
 1929              		.loc 1 1032 21 is_stmt 0 view .LVU664
 1930 00e6 0523     		movs	r3, #5
ARM GAS  C:\Users\sapph\AppData\Local\Temp\ccTfCvBa.s 			page 74


 1931 00e8 84F85430 		strb	r3, [r4, #84]
1035:Drivers/STM32H5xx_HAL_Driver/Src/stm32h5xx_hal_dma.c ****         {
 1932              		.loc 1 1035 9 is_stmt 1 view .LVU665
1035:Drivers/STM32H5xx_HAL_Driver/Src/stm32h5xx_hal_dma.c ****         {
 1933              		.loc 1 1035 17 is_stmt 0 view .LVU666
 1934 00ec 236F     		ldr	r3, [r4, #112]
1035:Drivers/STM32H5xx_HAL_Driver/Src/stm32h5xx_hal_dma.c ****         {
 1935              		.loc 1 1035 12 view .LVU667
 1936 00ee 0BB1     		cbz	r3, .L105
1038:Drivers/STM32H5xx_HAL_Driver/Src/stm32h5xx_hal_dma.c ****         }
 1937              		.loc 1 1038 11 is_stmt 1 view .LVU668
 1938 00f0 2046     		mov	r0, r4
 1939 00f2 9847     		blx	r3
 1940              	.LVL92:
 1941              	.L105:
1045:Drivers/STM32H5xx_HAL_Driver/Src/stm32h5xx_hal_dma.c ****   {
 1942              		.loc 1 1045 3 view .LVU669
1045:Drivers/STM32H5xx_HAL_Driver/Src/stm32h5xx_hal_dma.c ****   {
 1943              		.loc 1 1045 8 is_stmt 0 view .LVU670
 1944 00f4 2368     		ldr	r3, [r4]
 1945 00f6 1A69     		ldr	r2, [r3, #16]
1045:Drivers/STM32H5xx_HAL_Driver/Src/stm32h5xx_hal_dma.c ****   {
 1946              		.loc 1 1045 6 view .LVU671
 1947 00f8 12F4807F 		tst	r2, #256
 1948 00fc 40D0     		beq	.L109
1048:Drivers/STM32H5xx_HAL_Driver/Src/stm32h5xx_hal_dma.c ****     {
 1949              		.loc 1 1048 5 is_stmt 1 view .LVU672
1048:Drivers/STM32H5xx_HAL_Driver/Src/stm32h5xx_hal_dma.c ****     {
 1950              		.loc 1 1048 9 is_stmt 0 view .LVU673
 1951 00fe 5A69     		ldr	r2, [r3, #20]
1048:Drivers/STM32H5xx_HAL_Driver/Src/stm32h5xx_hal_dma.c ****     {
 1952              		.loc 1 1048 8 view .LVU674
 1953 0100 12F4807F 		tst	r2, #256
 1954 0104 3CD0     		beq	.L109
1051:Drivers/STM32H5xx_HAL_Driver/Src/stm32h5xx_hal_dma.c ****       {
 1955              		.loc 1 1051 7 is_stmt 1 view .LVU675
1051:Drivers/STM32H5xx_HAL_Driver/Src/stm32h5xx_hal_dma.c ****       {
 1956              		.loc 1 1051 16 is_stmt 0 view .LVU676
 1957 0106 226D     		ldr	r2, [r4, #80]
1051:Drivers/STM32H5xx_HAL_Driver/Src/stm32h5xx_hal_dma.c ****       {
 1958              		.loc 1 1051 10 view .LVU677
 1959 0108 12F0800F 		tst	r2, #128
 1960 010c 28D0     		beq	.L110
1054:Drivers/STM32H5xx_HAL_Driver/Src/stm32h5xx_hal_dma.c ****         {
 1961              		.loc 1 1054 9 is_stmt 1 view .LVU678
1054:Drivers/STM32H5xx_HAL_Driver/Src/stm32h5xx_hal_dma.c ****         {
 1962              		.loc 1 1054 27 is_stmt 0 view .LVU679
 1963 010e DA6F     		ldr	r2, [r3, #124]
1054:Drivers/STM32H5xx_HAL_Driver/Src/stm32h5xx_hal_dma.c ****         {
 1964              		.loc 1 1054 12 view .LVU680
 1965 0110 5ABB     		cbnz	r2, .L111
1056:Drivers/STM32H5xx_HAL_Driver/Src/stm32h5xx_hal_dma.c ****           {
 1966              		.loc 1 1056 11 is_stmt 1 view .LVU681
1056:Drivers/STM32H5xx_HAL_Driver/Src/stm32h5xx_hal_dma.c ****           {
 1967              		.loc 1 1056 29 is_stmt 0 view .LVU682
 1968 0112 9B6C     		ldr	r3, [r3, #72]
1056:Drivers/STM32H5xx_HAL_Driver/Src/stm32h5xx_hal_dma.c ****           {
ARM GAS  C:\Users\sapph\AppData\Local\Temp\ccTfCvBa.s 			page 75


 1969              		.loc 1 1056 14 view .LVU683
 1970 0114 4BBB     		cbnz	r3, .L111
1059:Drivers/STM32H5xx_HAL_Driver/Src/stm32h5xx_hal_dma.c **** 
 1971              		.loc 1 1059 13 is_stmt 1 view .LVU684
1059:Drivers/STM32H5xx_HAL_Driver/Src/stm32h5xx_hal_dma.c **** 
 1972              		.loc 1 1059 25 is_stmt 0 view .LVU685
 1973 0116 0123     		movs	r3, #1
1059:Drivers/STM32H5xx_HAL_Driver/Src/stm32h5xx_hal_dma.c **** 
 1974              		.loc 1 1059 25 view .LVU686
 1975 0118 84F85430 		strb	r3, [r4, #84]
1062:Drivers/STM32H5xx_HAL_Driver/Src/stm32h5xx_hal_dma.c ****           }
 1976              		.loc 1 1062 13 is_stmt 1 view .LVU687
1062:Drivers/STM32H5xx_HAL_Driver/Src/stm32h5xx_hal_dma.c ****           }
 1977              		.loc 1 1062 17 is_stmt 0 view .LVU688
 1978 011c 626F     		ldr	r2, [r4, #116]
1062:Drivers/STM32H5xx_HAL_Driver/Src/stm32h5xx_hal_dma.c ****           }
 1979              		.loc 1 1062 42 view .LVU689
 1980 011e 1373     		strb	r3, [r2, #12]
 1981 0120 23E0     		b	.L111
 1982              	.L114:
 999:Drivers/STM32H5xx_HAL_Driver/Src/stm32h5xx_hal_dma.c **** 
 1983              		.loc 1 999 9 is_stmt 1 view .LVU690
 1984 0122 2268     		ldr	r2, [r4]
 1985 0124 5369     		ldr	r3, [r2, #20]
 1986 0126 23F40053 		bic	r3, r3, #8192
 1987 012a 5361     		str	r3, [r2, #20]
1002:Drivers/STM32H5xx_HAL_Driver/Src/stm32h5xx_hal_dma.c **** 
 1988              		.loc 1 1002 9 view .LVU691
1002:Drivers/STM32H5xx_HAL_Driver/Src/stm32h5xx_hal_dma.c **** 
 1989              		.loc 1 1002 13 is_stmt 0 view .LVU692
 1990 012c 2268     		ldr	r2, [r4]
1002:Drivers/STM32H5xx_HAL_Driver/Src/stm32h5xx_hal_dma.c **** 
 1991              		.loc 1 1002 23 view .LVU693
 1992 012e 5369     		ldr	r3, [r2, #20]
1002:Drivers/STM32H5xx_HAL_Driver/Src/stm32h5xx_hal_dma.c **** 
 1993              		.loc 1 1002 29 view .LVU694
 1994 0130 43F00203 		orr	r3, r3, #2
 1995 0134 5361     		str	r3, [r2, #20]
1005:Drivers/STM32H5xx_HAL_Driver/Src/stm32h5xx_hal_dma.c **** 
 1996              		.loc 1 1005 9 is_stmt 1 view .LVU695
1005:Drivers/STM32H5xx_HAL_Driver/Src/stm32h5xx_hal_dma.c **** 
 1997              		.loc 1 1005 21 is_stmt 0 view .LVU696
 1998 0136 0123     		movs	r3, #1
1005:Drivers/STM32H5xx_HAL_Driver/Src/stm32h5xx_hal_dma.c **** 
 1999              		.loc 1 1005 21 view .LVU697
 2000 0138 84F85430 		strb	r3, [r4, #84]
1008:Drivers/STM32H5xx_HAL_Driver/Src/stm32h5xx_hal_dma.c ****         {
 2001              		.loc 1 1008 9 is_stmt 1 view .LVU698
1008:Drivers/STM32H5xx_HAL_Driver/Src/stm32h5xx_hal_dma.c ****         {
 2002              		.loc 1 1008 18 is_stmt 0 view .LVU699
 2003 013c 236D     		ldr	r3, [r4, #80]
1008:Drivers/STM32H5xx_HAL_Driver/Src/stm32h5xx_hal_dma.c ****         {
 2004              		.loc 1 1008 12 view .LVU700
 2005 013e 13F0800F 		tst	r3, #128
 2006 0142 05D0     		beq	.L107
1011:Drivers/STM32H5xx_HAL_Driver/Src/stm32h5xx_hal_dma.c **** 
 2007              		.loc 1 1011 11 is_stmt 1 view .LVU701
ARM GAS  C:\Users\sapph\AppData\Local\Temp\ccTfCvBa.s 			page 76


1011:Drivers/STM32H5xx_HAL_Driver/Src/stm32h5xx_hal_dma.c **** 
 2008              		.loc 1 1011 15 is_stmt 0 view .LVU702
 2009 0144 636F     		ldr	r3, [r4, #116]
1011:Drivers/STM32H5xx_HAL_Driver/Src/stm32h5xx_hal_dma.c **** 
 2010              		.loc 1 1011 40 view .LVU703
 2011 0146 0122     		movs	r2, #1
1011:Drivers/STM32H5xx_HAL_Driver/Src/stm32h5xx_hal_dma.c **** 
 2012              		.loc 1 1011 40 view .LVU704
 2013 0148 1A73     		strb	r2, [r3, #12]
1014:Drivers/STM32H5xx_HAL_Driver/Src/stm32h5xx_hal_dma.c ****         }
 2014              		.loc 1 1014 11 is_stmt 1 view .LVU705
1014:Drivers/STM32H5xx_HAL_Driver/Src/stm32h5xx_hal_dma.c ****         }
 2015              		.loc 1 1014 15 is_stmt 0 view .LVU706
 2016 014a 2368     		ldr	r3, [r4]
1014:Drivers/STM32H5xx_HAL_Driver/Src/stm32h5xx_hal_dma.c ****         }
 2017              		.loc 1 1014 32 view .LVU707
 2018 014c 0022     		movs	r2, #0
1014:Drivers/STM32H5xx_HAL_Driver/Src/stm32h5xx_hal_dma.c ****         }
 2019              		.loc 1 1014 32 view .LVU708
 2020 014e 9A64     		str	r2, [r3, #72]
 2021              	.L107:
1018:Drivers/STM32H5xx_HAL_Driver/Src/stm32h5xx_hal_dma.c **** 
 2022              		.loc 1 1018 9 is_stmt 1 view .LVU709
1018:Drivers/STM32H5xx_HAL_Driver/Src/stm32h5xx_hal_dma.c **** 
 2023              		.loc 1 1018 9 view .LVU710
 2024 0150 0023     		movs	r3, #0
 2025 0152 84F84C30 		strb	r3, [r4, #76]
1018:Drivers/STM32H5xx_HAL_Driver/Src/stm32h5xx_hal_dma.c **** 
 2026              		.loc 1 1018 9 view .LVU711
1021:Drivers/STM32H5xx_HAL_Driver/Src/stm32h5xx_hal_dma.c ****         {
 2027              		.loc 1 1021 9 view .LVU712
1021:Drivers/STM32H5xx_HAL_Driver/Src/stm32h5xx_hal_dma.c ****         {
 2028              		.loc 1 1021 17 is_stmt 0 view .LVU713
 2029 0156 E36E     		ldr	r3, [r4, #108]
1021:Drivers/STM32H5xx_HAL_Driver/Src/stm32h5xx_hal_dma.c ****         {
 2030              		.loc 1 1021 12 view .LVU714
 2031 0158 53B3     		cbz	r3, .L98
1024:Drivers/STM32H5xx_HAL_Driver/Src/stm32h5xx_hal_dma.c ****         }
 2032              		.loc 1 1024 11 is_stmt 1 view .LVU715
 2033 015a 2046     		mov	r0, r4
 2034 015c 9847     		blx	r3
 2035              	.LVL93:
1027:Drivers/STM32H5xx_HAL_Driver/Src/stm32h5xx_hal_dma.c ****       }
 2036              		.loc 1 1027 9 view .LVU716
 2037 015e 27E0     		b	.L98
 2038              	.L110:
1069:Drivers/STM32H5xx_HAL_Driver/Src/stm32h5xx_hal_dma.c ****         {
 2039              		.loc 1 1069 9 view .LVU717
1069:Drivers/STM32H5xx_HAL_Driver/Src/stm32h5xx_hal_dma.c ****         {
 2040              		.loc 1 1069 27 is_stmt 0 view .LVU718
 2041 0160 9B6C     		ldr	r3, [r3, #72]
1069:Drivers/STM32H5xx_HAL_Driver/Src/stm32h5xx_hal_dma.c ****         {
 2042              		.loc 1 1069 12 view .LVU719
 2043 0162 13B9     		cbnz	r3, .L111
1072:Drivers/STM32H5xx_HAL_Driver/Src/stm32h5xx_hal_dma.c ****         }
 2044              		.loc 1 1072 11 is_stmt 1 view .LVU720
1072:Drivers/STM32H5xx_HAL_Driver/Src/stm32h5xx_hal_dma.c ****         }
ARM GAS  C:\Users\sapph\AppData\Local\Temp\ccTfCvBa.s 			page 77


 2045              		.loc 1 1072 23 is_stmt 0 view .LVU721
 2046 0164 0123     		movs	r3, #1
1072:Drivers/STM32H5xx_HAL_Driver/Src/stm32h5xx_hal_dma.c ****         }
 2047              		.loc 1 1072 23 view .LVU722
 2048 0166 84F85430 		strb	r3, [r4, #84]
 2049              	.L111:
1077:Drivers/STM32H5xx_HAL_Driver/Src/stm32h5xx_hal_dma.c **** 
 2050              		.loc 1 1077 7 is_stmt 1 view .LVU723
 2051 016a 2368     		ldr	r3, [r4]
 2052 016c 4FF44072 		mov	r2, #768
 2053 0170 DA60     		str	r2, [r3, #12]
1080:Drivers/STM32H5xx_HAL_Driver/Src/stm32h5xx_hal_dma.c **** 
 2054              		.loc 1 1080 7 view .LVU724
1080:Drivers/STM32H5xx_HAL_Driver/Src/stm32h5xx_hal_dma.c **** 
 2055              		.loc 1 1080 7 view .LVU725
 2056 0172 0023     		movs	r3, #0
 2057 0174 84F84C30 		strb	r3, [r4, #76]
1080:Drivers/STM32H5xx_HAL_Driver/Src/stm32h5xx_hal_dma.c **** 
 2058              		.loc 1 1080 7 view .LVU726
1083:Drivers/STM32H5xx_HAL_Driver/Src/stm32h5xx_hal_dma.c ****       {
 2059              		.loc 1 1083 7 view .LVU727
1083:Drivers/STM32H5xx_HAL_Driver/Src/stm32h5xx_hal_dma.c ****       {
 2060              		.loc 1 1083 15 is_stmt 0 view .LVU728
 2061 0178 236E     		ldr	r3, [r4, #96]
1083:Drivers/STM32H5xx_HAL_Driver/Src/stm32h5xx_hal_dma.c ****       {
 2062              		.loc 1 1083 10 view .LVU729
 2063 017a 0BB1     		cbz	r3, .L109
1086:Drivers/STM32H5xx_HAL_Driver/Src/stm32h5xx_hal_dma.c ****       }
 2064              		.loc 1 1086 9 is_stmt 1 view .LVU730
 2065 017c 2046     		mov	r0, r4
 2066 017e 9847     		blx	r3
 2067              	.LVL94:
 2068              	.L109:
1092:Drivers/STM32H5xx_HAL_Driver/Src/stm32h5xx_hal_dma.c ****   {
 2069              		.loc 1 1092 3 view .LVU731
1092:Drivers/STM32H5xx_HAL_Driver/Src/stm32h5xx_hal_dma.c ****   {
 2070              		.loc 1 1092 11 is_stmt 0 view .LVU732
 2071 0180 A36D     		ldr	r3, [r4, #88]
1092:Drivers/STM32H5xx_HAL_Driver/Src/stm32h5xx_hal_dma.c ****   {
 2072              		.loc 1 1092 6 view .LVU733
 2073 0182 ABB1     		cbz	r3, .L98
1095:Drivers/STM32H5xx_HAL_Driver/Src/stm32h5xx_hal_dma.c **** 
 2074              		.loc 1 1095 5 is_stmt 1 view .LVU734
1095:Drivers/STM32H5xx_HAL_Driver/Src/stm32h5xx_hal_dma.c **** 
 2075              		.loc 1 1095 9 is_stmt 0 view .LVU735
 2076 0184 2268     		ldr	r2, [r4]
1095:Drivers/STM32H5xx_HAL_Driver/Src/stm32h5xx_hal_dma.c **** 
 2077              		.loc 1 1095 19 view .LVU736
 2078 0186 5369     		ldr	r3, [r2, #20]
1095:Drivers/STM32H5xx_HAL_Driver/Src/stm32h5xx_hal_dma.c **** 
 2079              		.loc 1 1095 25 view .LVU737
 2080 0188 43F00203 		orr	r3, r3, #2
 2081 018c 5361     		str	r3, [r2, #20]
1098:Drivers/STM32H5xx_HAL_Driver/Src/stm32h5xx_hal_dma.c **** 
 2082              		.loc 1 1098 5 is_stmt 1 view .LVU738
1098:Drivers/STM32H5xx_HAL_Driver/Src/stm32h5xx_hal_dma.c **** 
 2083              		.loc 1 1098 17 is_stmt 0 view .LVU739
ARM GAS  C:\Users\sapph\AppData\Local\Temp\ccTfCvBa.s 			page 78


 2084 018e 0123     		movs	r3, #1
1098:Drivers/STM32H5xx_HAL_Driver/Src/stm32h5xx_hal_dma.c **** 
 2085              		.loc 1 1098 17 view .LVU740
 2086 0190 84F85430 		strb	r3, [r4, #84]
1101:Drivers/STM32H5xx_HAL_Driver/Src/stm32h5xx_hal_dma.c ****     {
 2087              		.loc 1 1101 5 is_stmt 1 view .LVU741
1101:Drivers/STM32H5xx_HAL_Driver/Src/stm32h5xx_hal_dma.c ****     {
 2088              		.loc 1 1101 14 is_stmt 0 view .LVU742
 2089 0194 236D     		ldr	r3, [r4, #80]
1101:Drivers/STM32H5xx_HAL_Driver/Src/stm32h5xx_hal_dma.c ****     {
 2090              		.loc 1 1101 8 view .LVU743
 2091 0196 13F0800F 		tst	r3, #128
 2092 019a 02D0     		beq	.L112
1104:Drivers/STM32H5xx_HAL_Driver/Src/stm32h5xx_hal_dma.c ****     }
 2093              		.loc 1 1104 7 is_stmt 1 view .LVU744
1104:Drivers/STM32H5xx_HAL_Driver/Src/stm32h5xx_hal_dma.c ****     }
 2094              		.loc 1 1104 11 is_stmt 0 view .LVU745
 2095 019c 636F     		ldr	r3, [r4, #116]
1104:Drivers/STM32H5xx_HAL_Driver/Src/stm32h5xx_hal_dma.c ****     }
 2096              		.loc 1 1104 36 view .LVU746
 2097 019e 0122     		movs	r2, #1
1104:Drivers/STM32H5xx_HAL_Driver/Src/stm32h5xx_hal_dma.c ****     }
 2098              		.loc 1 1104 36 view .LVU747
 2099 01a0 1A73     		strb	r2, [r3, #12]
 2100              	.L112:
1108:Drivers/STM32H5xx_HAL_Driver/Src/stm32h5xx_hal_dma.c **** 
 2101              		.loc 1 1108 5 is_stmt 1 view .LVU748
1108:Drivers/STM32H5xx_HAL_Driver/Src/stm32h5xx_hal_dma.c **** 
 2102              		.loc 1 1108 5 view .LVU749
 2103 01a2 0023     		movs	r3, #0
 2104 01a4 84F84C30 		strb	r3, [r4, #76]
1108:Drivers/STM32H5xx_HAL_Driver/Src/stm32h5xx_hal_dma.c **** 
 2105              		.loc 1 1108 5 view .LVU750
1111:Drivers/STM32H5xx_HAL_Driver/Src/stm32h5xx_hal_dma.c ****     {
 2106              		.loc 1 1111 5 view .LVU751
1111:Drivers/STM32H5xx_HAL_Driver/Src/stm32h5xx_hal_dma.c ****     {
 2107              		.loc 1 1111 13 is_stmt 0 view .LVU752
 2108 01a8 A36E     		ldr	r3, [r4, #104]
1111:Drivers/STM32H5xx_HAL_Driver/Src/stm32h5xx_hal_dma.c ****     {
 2109              		.loc 1 1111 8 view .LVU753
 2110 01aa 0BB1     		cbz	r3, .L98
1114:Drivers/STM32H5xx_HAL_Driver/Src/stm32h5xx_hal_dma.c ****     }
 2111              		.loc 1 1114 7 is_stmt 1 view .LVU754
 2112 01ac 2046     		mov	r0, r4
 2113 01ae 9847     		blx	r3
 2114              	.LVL95:
 2115              	.L98:
1117:Drivers/STM32H5xx_HAL_Driver/Src/stm32h5xx_hal_dma.c **** 
 2116              		.loc 1 1117 1 is_stmt 0 view .LVU755
 2117 01b0 10BD     		pop	{r4, pc}
1117:Drivers/STM32H5xx_HAL_Driver/Src/stm32h5xx_hal_dma.c **** 
 2118              		.loc 1 1117 1 view .LVU756
 2119              		.cfi_endproc
 2120              	.LFE167:
 2122              		.section	.text.HAL_DMA_RegisterCallback,"ax",%progbits
 2123              		.align	1
 2124              		.global	HAL_DMA_RegisterCallback
ARM GAS  C:\Users\sapph\AppData\Local\Temp\ccTfCvBa.s 			page 79


 2125              		.syntax unified
 2126              		.thumb
 2127              		.thumb_func
 2129              	HAL_DMA_RegisterCallback:
 2130              	.LVL96:
 2131              	.LFB168:
1132:Drivers/STM32H5xx_HAL_Driver/Src/stm32h5xx_hal_dma.c ****   HAL_StatusTypeDef status = HAL_OK;
 2132              		.loc 1 1132 1 is_stmt 1 view -0
 2133              		.cfi_startproc
 2134              		@ args = 0, pretend = 0, frame = 0
 2135              		@ frame_needed = 0, uses_anonymous_args = 0
 2136              		@ link register save eliminated.
1133:Drivers/STM32H5xx_HAL_Driver/Src/stm32h5xx_hal_dma.c **** 
 2137              		.loc 1 1133 3 view .LVU758
1136:Drivers/STM32H5xx_HAL_Driver/Src/stm32h5xx_hal_dma.c ****   {
 2138              		.loc 1 1136 3 view .LVU759
1136:Drivers/STM32H5xx_HAL_Driver/Src/stm32h5xx_hal_dma.c ****   {
 2139              		.loc 1 1136 6 is_stmt 0 view .LVU760
 2140 0000 0346     		mov	r3, r0
 2141 0002 E0B1     		cbz	r0, .L123
1142:Drivers/STM32H5xx_HAL_Driver/Src/stm32h5xx_hal_dma.c ****   {
 2142              		.loc 1 1142 3 is_stmt 1 view .LVU761
1142:Drivers/STM32H5xx_HAL_Driver/Src/stm32h5xx_hal_dma.c ****   {
 2143              		.loc 1 1142 11 is_stmt 0 view .LVU762
 2144 0004 90F85400 		ldrb	r0, [r0, #84]	@ zero_extendqisi2
 2145              	.LVL97:
1142:Drivers/STM32H5xx_HAL_Driver/Src/stm32h5xx_hal_dma.c ****   {
 2146              		.loc 1 1142 11 view .LVU763
 2147 0008 C0B2     		uxtb	r0, r0
1142:Drivers/STM32H5xx_HAL_Driver/Src/stm32h5xx_hal_dma.c ****   {
 2148              		.loc 1 1142 6 view .LVU764
 2149 000a 0128     		cmp	r0, #1
 2150 000c 01D0     		beq	.L126
1193:Drivers/STM32H5xx_HAL_Driver/Src/stm32h5xx_hal_dma.c ****   }
 2151              		.loc 1 1193 12 view .LVU765
 2152 000e 0120     		movs	r0, #1
 2153              	.L116:
 2154              	.LVL98:
1197:Drivers/STM32H5xx_HAL_Driver/Src/stm32h5xx_hal_dma.c **** 
 2155              		.loc 1 1197 1 view .LVU766
 2156 0010 7047     		bx	lr
 2157              	.LVL99:
 2158              	.L126:
1145:Drivers/STM32H5xx_HAL_Driver/Src/stm32h5xx_hal_dma.c ****     {
 2159              		.loc 1 1145 5 is_stmt 1 view .LVU767
 2160 0012 0429     		cmp	r1, #4
 2161 0014 FCD8     		bhi	.L116
 2162 0016 DFE801F0 		tbb	[pc, r1]
 2163              	.L118:
 2164 001a 03       		.byte	(.L122-.L118)/2
 2165 001b 06       		.byte	(.L121-.L118)/2
 2166 001c 09       		.byte	(.L120-.L118)/2
 2167 001d 0C       		.byte	(.L119-.L118)/2
 2168 001e 0F       		.byte	(.L117-.L118)/2
 2169 001f 00       		.p2align 1
 2170              	.L122:
1150:Drivers/STM32H5xx_HAL_Driver/Src/stm32h5xx_hal_dma.c ****         break;
ARM GAS  C:\Users\sapph\AppData\Local\Temp\ccTfCvBa.s 			page 80


 2171              		.loc 1 1150 9 view .LVU768
1150:Drivers/STM32H5xx_HAL_Driver/Src/stm32h5xx_hal_dma.c ****         break;
 2172              		.loc 1 1150 32 is_stmt 0 view .LVU769
 2173 0020 1A66     		str	r2, [r3, #96]
1151:Drivers/STM32H5xx_HAL_Driver/Src/stm32h5xx_hal_dma.c ****       }
 2174              		.loc 1 1151 9 is_stmt 1 view .LVU770
1133:Drivers/STM32H5xx_HAL_Driver/Src/stm32h5xx_hal_dma.c **** 
 2175              		.loc 1 1133 21 is_stmt 0 view .LVU771
 2176 0022 0846     		mov	r0, r1
1151:Drivers/STM32H5xx_HAL_Driver/Src/stm32h5xx_hal_dma.c ****       }
 2177              		.loc 1 1151 9 view .LVU772
 2178 0024 7047     		bx	lr
 2179              	.L121:
1157:Drivers/STM32H5xx_HAL_Driver/Src/stm32h5xx_hal_dma.c ****         break;
 2180              		.loc 1 1157 9 is_stmt 1 view .LVU773
1157:Drivers/STM32H5xx_HAL_Driver/Src/stm32h5xx_hal_dma.c ****         break;
 2181              		.loc 1 1157 36 is_stmt 0 view .LVU774
 2182 0026 5A66     		str	r2, [r3, #100]
1158:Drivers/STM32H5xx_HAL_Driver/Src/stm32h5xx_hal_dma.c ****       }
 2183              		.loc 1 1158 9 is_stmt 1 view .LVU775
1133:Drivers/STM32H5xx_HAL_Driver/Src/stm32h5xx_hal_dma.c **** 
 2184              		.loc 1 1133 21 is_stmt 0 view .LVU776
 2185 0028 0020     		movs	r0, #0
1158:Drivers/STM32H5xx_HAL_Driver/Src/stm32h5xx_hal_dma.c ****       }
 2186              		.loc 1 1158 9 view .LVU777
 2187 002a 7047     		bx	lr
 2188              	.L120:
1164:Drivers/STM32H5xx_HAL_Driver/Src/stm32h5xx_hal_dma.c ****         break;
 2189              		.loc 1 1164 9 is_stmt 1 view .LVU778
1164:Drivers/STM32H5xx_HAL_Driver/Src/stm32h5xx_hal_dma.c ****         break;
 2190              		.loc 1 1164 33 is_stmt 0 view .LVU779
 2191 002c 9A66     		str	r2, [r3, #104]
1165:Drivers/STM32H5xx_HAL_Driver/Src/stm32h5xx_hal_dma.c ****       }
 2192              		.loc 1 1165 9 is_stmt 1 view .LVU780
1133:Drivers/STM32H5xx_HAL_Driver/Src/stm32h5xx_hal_dma.c **** 
 2193              		.loc 1 1133 21 is_stmt 0 view .LVU781
 2194 002e 0020     		movs	r0, #0
1165:Drivers/STM32H5xx_HAL_Driver/Src/stm32h5xx_hal_dma.c ****       }
 2195              		.loc 1 1165 9 view .LVU782
 2196 0030 7047     		bx	lr
 2197              	.L119:
1171:Drivers/STM32H5xx_HAL_Driver/Src/stm32h5xx_hal_dma.c ****         break;
 2198              		.loc 1 1171 9 is_stmt 1 view .LVU783
1171:Drivers/STM32H5xx_HAL_Driver/Src/stm32h5xx_hal_dma.c ****         break;
 2199              		.loc 1 1171 33 is_stmt 0 view .LVU784
 2200 0032 DA66     		str	r2, [r3, #108]
1172:Drivers/STM32H5xx_HAL_Driver/Src/stm32h5xx_hal_dma.c ****       }
 2201              		.loc 1 1172 9 is_stmt 1 view .LVU785
1133:Drivers/STM32H5xx_HAL_Driver/Src/stm32h5xx_hal_dma.c **** 
 2202              		.loc 1 1133 21 is_stmt 0 view .LVU786
 2203 0034 0020     		movs	r0, #0
1172:Drivers/STM32H5xx_HAL_Driver/Src/stm32h5xx_hal_dma.c ****       }
 2204              		.loc 1 1172 9 view .LVU787
 2205 0036 7047     		bx	lr
 2206              	.L117:
1178:Drivers/STM32H5xx_HAL_Driver/Src/stm32h5xx_hal_dma.c ****         break;
 2207              		.loc 1 1178 9 is_stmt 1 view .LVU788
ARM GAS  C:\Users\sapph\AppData\Local\Temp\ccTfCvBa.s 			page 81


1178:Drivers/STM32H5xx_HAL_Driver/Src/stm32h5xx_hal_dma.c ****         break;
 2208              		.loc 1 1178 35 is_stmt 0 view .LVU789
 2209 0038 1A67     		str	r2, [r3, #112]
1179:Drivers/STM32H5xx_HAL_Driver/Src/stm32h5xx_hal_dma.c ****       }
 2210              		.loc 1 1179 9 is_stmt 1 view .LVU790
1133:Drivers/STM32H5xx_HAL_Driver/Src/stm32h5xx_hal_dma.c **** 
 2211              		.loc 1 1133 21 is_stmt 0 view .LVU791
 2212 003a 0020     		movs	r0, #0
1179:Drivers/STM32H5xx_HAL_Driver/Src/stm32h5xx_hal_dma.c ****       }
 2213              		.loc 1 1179 9 view .LVU792
 2214 003c 7047     		bx	lr
 2215              	.LVL100:
 2216              	.L123:
1138:Drivers/STM32H5xx_HAL_Driver/Src/stm32h5xx_hal_dma.c ****   }
 2217              		.loc 1 1138 12 view .LVU793
 2218 003e 0120     		movs	r0, #1
 2219              	.LVL101:
1138:Drivers/STM32H5xx_HAL_Driver/Src/stm32h5xx_hal_dma.c ****   }
 2220              		.loc 1 1138 12 view .LVU794
 2221 0040 7047     		bx	lr
 2222              		.cfi_endproc
 2223              	.LFE168:
 2225              		.section	.text.HAL_DMA_UnRegisterCallback,"ax",%progbits
 2226              		.align	1
 2227              		.global	HAL_DMA_UnRegisterCallback
 2228              		.syntax unified
 2229              		.thumb
 2230              		.thumb_func
 2232              	HAL_DMA_UnRegisterCallback:
 2233              	.LVL102:
 2234              	.LFB169:
1210:Drivers/STM32H5xx_HAL_Driver/Src/stm32h5xx_hal_dma.c ****   HAL_StatusTypeDef status = HAL_OK;
 2235              		.loc 1 1210 1 is_stmt 1 view -0
 2236              		.cfi_startproc
 2237              		@ args = 0, pretend = 0, frame = 0
 2238              		@ frame_needed = 0, uses_anonymous_args = 0
 2239              		@ link register save eliminated.
1211:Drivers/STM32H5xx_HAL_Driver/Src/stm32h5xx_hal_dma.c **** 
 2240              		.loc 1 1211 3 view .LVU796
1214:Drivers/STM32H5xx_HAL_Driver/Src/stm32h5xx_hal_dma.c ****   {
 2241              		.loc 1 1214 3 view .LVU797
1214:Drivers/STM32H5xx_HAL_Driver/Src/stm32h5xx_hal_dma.c ****   {
 2242              		.loc 1 1214 6 is_stmt 0 view .LVU798
 2243 0000 0346     		mov	r3, r0
 2244 0002 20B3     		cbz	r0, .L136
1220:Drivers/STM32H5xx_HAL_Driver/Src/stm32h5xx_hal_dma.c ****   {
 2245              		.loc 1 1220 3 is_stmt 1 view .LVU799
1220:Drivers/STM32H5xx_HAL_Driver/Src/stm32h5xx_hal_dma.c ****   {
 2246              		.loc 1 1220 11 is_stmt 0 view .LVU800
 2247 0004 90F85400 		ldrb	r0, [r0, #84]	@ zero_extendqisi2
 2248              	.LVL103:
1220:Drivers/STM32H5xx_HAL_Driver/Src/stm32h5xx_hal_dma.c ****   {
 2249              		.loc 1 1220 11 view .LVU801
 2250 0008 C0B2     		uxtb	r0, r0
1220:Drivers/STM32H5xx_HAL_Driver/Src/stm32h5xx_hal_dma.c ****   {
 2251              		.loc 1 1220 6 view .LVU802
 2252 000a 0128     		cmp	r0, #1
ARM GAS  C:\Users\sapph\AppData\Local\Temp\ccTfCvBa.s 			page 82


 2253 000c 01D0     		beq	.L139
1282:Drivers/STM32H5xx_HAL_Driver/Src/stm32h5xx_hal_dma.c ****   }
 2254              		.loc 1 1282 12 view .LVU803
 2255 000e 0120     		movs	r0, #1
 2256              	.L128:
 2257              	.LVL104:
1286:Drivers/STM32H5xx_HAL_Driver/Src/stm32h5xx_hal_dma.c **** /**
 2258              		.loc 1 1286 1 view .LVU804
 2259 0010 7047     		bx	lr
 2260              	.LVL105:
 2261              	.L139:
1223:Drivers/STM32H5xx_HAL_Driver/Src/stm32h5xx_hal_dma.c ****     {
 2262              		.loc 1 1223 5 is_stmt 1 view .LVU805
 2263 0012 0529     		cmp	r1, #5
 2264 0014 FCD8     		bhi	.L128
 2265 0016 DFE801F0 		tbb	[pc, r1]
 2266              	.L130:
 2267 001a 03       		.byte	(.L135-.L130)/2
 2268 001b 07       		.byte	(.L134-.L130)/2
 2269 001c 0A       		.byte	(.L133-.L130)/2
 2270 001d 0D       		.byte	(.L132-.L130)/2
 2271 001e 10       		.byte	(.L131-.L130)/2
 2272 001f 13       		.byte	(.L129-.L130)/2
 2273              		.p2align 1
 2274              	.L135:
1228:Drivers/STM32H5xx_HAL_Driver/Src/stm32h5xx_hal_dma.c ****         break;
 2275              		.loc 1 1228 9 view .LVU806
1228:Drivers/STM32H5xx_HAL_Driver/Src/stm32h5xx_hal_dma.c ****         break;
 2276              		.loc 1 1228 32 is_stmt 0 view .LVU807
 2277 0020 0022     		movs	r2, #0
 2278 0022 1A66     		str	r2, [r3, #96]
1229:Drivers/STM32H5xx_HAL_Driver/Src/stm32h5xx_hal_dma.c ****       }
 2279              		.loc 1 1229 9 is_stmt 1 view .LVU808
1211:Drivers/STM32H5xx_HAL_Driver/Src/stm32h5xx_hal_dma.c **** 
 2280              		.loc 1 1211 21 is_stmt 0 view .LVU809
 2281 0024 0846     		mov	r0, r1
1229:Drivers/STM32H5xx_HAL_Driver/Src/stm32h5xx_hal_dma.c ****       }
 2282              		.loc 1 1229 9 view .LVU810
 2283 0026 7047     		bx	lr
 2284              	.L134:
1235:Drivers/STM32H5xx_HAL_Driver/Src/stm32h5xx_hal_dma.c ****         break;
 2285              		.loc 1 1235 9 is_stmt 1 view .LVU811
1235:Drivers/STM32H5xx_HAL_Driver/Src/stm32h5xx_hal_dma.c ****         break;
 2286              		.loc 1 1235 36 is_stmt 0 view .LVU812
 2287 0028 0020     		movs	r0, #0
 2288 002a 5866     		str	r0, [r3, #100]
1236:Drivers/STM32H5xx_HAL_Driver/Src/stm32h5xx_hal_dma.c ****       }
 2289              		.loc 1 1236 9 is_stmt 1 view .LVU813
 2290 002c 7047     		bx	lr
 2291              	.L133:
1242:Drivers/STM32H5xx_HAL_Driver/Src/stm32h5xx_hal_dma.c ****         break;
 2292              		.loc 1 1242 9 view .LVU814
1242:Drivers/STM32H5xx_HAL_Driver/Src/stm32h5xx_hal_dma.c ****         break;
 2293              		.loc 1 1242 33 is_stmt 0 view .LVU815
 2294 002e 0020     		movs	r0, #0
 2295 0030 9866     		str	r0, [r3, #104]
1243:Drivers/STM32H5xx_HAL_Driver/Src/stm32h5xx_hal_dma.c ****       }
ARM GAS  C:\Users\sapph\AppData\Local\Temp\ccTfCvBa.s 			page 83


 2296              		.loc 1 1243 9 is_stmt 1 view .LVU816
 2297 0032 7047     		bx	lr
 2298              	.L132:
1249:Drivers/STM32H5xx_HAL_Driver/Src/stm32h5xx_hal_dma.c ****         break;
 2299              		.loc 1 1249 9 view .LVU817
1249:Drivers/STM32H5xx_HAL_Driver/Src/stm32h5xx_hal_dma.c ****         break;
 2300              		.loc 1 1249 33 is_stmt 0 view .LVU818
 2301 0034 0020     		movs	r0, #0
 2302 0036 D866     		str	r0, [r3, #108]
1250:Drivers/STM32H5xx_HAL_Driver/Src/stm32h5xx_hal_dma.c ****       }
 2303              		.loc 1 1250 9 is_stmt 1 view .LVU819
 2304 0038 7047     		bx	lr
 2305              	.L131:
1256:Drivers/STM32H5xx_HAL_Driver/Src/stm32h5xx_hal_dma.c ****         break;
 2306              		.loc 1 1256 9 view .LVU820
1256:Drivers/STM32H5xx_HAL_Driver/Src/stm32h5xx_hal_dma.c ****         break;
 2307              		.loc 1 1256 35 is_stmt 0 view .LVU821
 2308 003a 0020     		movs	r0, #0
 2309 003c 1867     		str	r0, [r3, #112]
1257:Drivers/STM32H5xx_HAL_Driver/Src/stm32h5xx_hal_dma.c ****       }
 2310              		.loc 1 1257 9 is_stmt 1 view .LVU822
 2311 003e 7047     		bx	lr
 2312              	.L129:
1263:Drivers/STM32H5xx_HAL_Driver/Src/stm32h5xx_hal_dma.c ****         hdma->XferHalfCpltCallback = NULL;
 2313              		.loc 1 1263 9 view .LVU823
1263:Drivers/STM32H5xx_HAL_Driver/Src/stm32h5xx_hal_dma.c ****         hdma->XferHalfCpltCallback = NULL;
 2314              		.loc 1 1263 36 is_stmt 0 view .LVU824
 2315 0040 0020     		movs	r0, #0
 2316 0042 1866     		str	r0, [r3, #96]
1264:Drivers/STM32H5xx_HAL_Driver/Src/stm32h5xx_hal_dma.c ****         hdma->XferErrorCallback    = NULL;
 2317              		.loc 1 1264 9 is_stmt 1 view .LVU825
1264:Drivers/STM32H5xx_HAL_Driver/Src/stm32h5xx_hal_dma.c ****         hdma->XferErrorCallback    = NULL;
 2318              		.loc 1 1264 36 is_stmt 0 view .LVU826
 2319 0044 5866     		str	r0, [r3, #100]
1265:Drivers/STM32H5xx_HAL_Driver/Src/stm32h5xx_hal_dma.c ****         hdma->XferAbortCallback    = NULL;
 2320              		.loc 1 1265 9 is_stmt 1 view .LVU827
1265:Drivers/STM32H5xx_HAL_Driver/Src/stm32h5xx_hal_dma.c ****         hdma->XferAbortCallback    = NULL;
 2321              		.loc 1 1265 36 is_stmt 0 view .LVU828
 2322 0046 9866     		str	r0, [r3, #104]
1266:Drivers/STM32H5xx_HAL_Driver/Src/stm32h5xx_hal_dma.c ****         hdma->XferSuspendCallback  = NULL;
 2323              		.loc 1 1266 9 is_stmt 1 view .LVU829
1266:Drivers/STM32H5xx_HAL_Driver/Src/stm32h5xx_hal_dma.c ****         hdma->XferSuspendCallback  = NULL;
 2324              		.loc 1 1266 36 is_stmt 0 view .LVU830
 2325 0048 D866     		str	r0, [r3, #108]
1267:Drivers/STM32H5xx_HAL_Driver/Src/stm32h5xx_hal_dma.c ****         break;
 2326              		.loc 1 1267 9 is_stmt 1 view .LVU831
1267:Drivers/STM32H5xx_HAL_Driver/Src/stm32h5xx_hal_dma.c ****         break;
 2327              		.loc 1 1267 36 is_stmt 0 view .LVU832
 2328 004a 1867     		str	r0, [r3, #112]
1268:Drivers/STM32H5xx_HAL_Driver/Src/stm32h5xx_hal_dma.c ****       }
 2329              		.loc 1 1268 9 is_stmt 1 view .LVU833
 2330 004c 7047     		bx	lr
 2331              	.LVL106:
 2332              	.L136:
1216:Drivers/STM32H5xx_HAL_Driver/Src/stm32h5xx_hal_dma.c ****   }
 2333              		.loc 1 1216 12 is_stmt 0 view .LVU834
 2334 004e 0120     		movs	r0, #1
ARM GAS  C:\Users\sapph\AppData\Local\Temp\ccTfCvBa.s 			page 84


 2335              	.LVL107:
1216:Drivers/STM32H5xx_HAL_Driver/Src/stm32h5xx_hal_dma.c ****   }
 2336              		.loc 1 1216 12 view .LVU835
 2337 0050 7047     		bx	lr
 2338              		.cfi_endproc
 2339              	.LFE169:
 2341              		.section	.text.HAL_DMA_GetState,"ax",%progbits
 2342              		.align	1
 2343              		.global	HAL_DMA_GetState
 2344              		.syntax unified
 2345              		.thumb
 2346              		.thumb_func
 2348              	HAL_DMA_GetState:
 2349              	.LVL108:
 2350              	.LFB170:
1317:Drivers/STM32H5xx_HAL_Driver/Src/stm32h5xx_hal_dma.c ****   /* Return the DMA channel state */
 2351              		.loc 1 1317 1 is_stmt 1 view -0
 2352              		.cfi_startproc
 2353              		@ args = 0, pretend = 0, frame = 0
 2354              		@ frame_needed = 0, uses_anonymous_args = 0
 2355              		@ link register save eliminated.
1319:Drivers/STM32H5xx_HAL_Driver/Src/stm32h5xx_hal_dma.c **** }
 2356              		.loc 1 1319 3 view .LVU837
1319:Drivers/STM32H5xx_HAL_Driver/Src/stm32h5xx_hal_dma.c **** }
 2357              		.loc 1 1319 14 is_stmt 0 view .LVU838
 2358 0000 90F85400 		ldrb	r0, [r0, #84]	@ zero_extendqisi2
 2359              	.LVL109:
1320:Drivers/STM32H5xx_HAL_Driver/Src/stm32h5xx_hal_dma.c **** 
 2360              		.loc 1 1320 1 view .LVU839
 2361 0004 7047     		bx	lr
 2362              		.cfi_endproc
 2363              	.LFE170:
 2365              		.section	.text.HAL_DMA_GetError,"ax",%progbits
 2366              		.align	1
 2367              		.global	HAL_DMA_GetError
 2368              		.syntax unified
 2369              		.thumb
 2370              		.thumb_func
 2372              	HAL_DMA_GetError:
 2373              	.LVL110:
 2374              	.LFB171:
1329:Drivers/STM32H5xx_HAL_Driver/Src/stm32h5xx_hal_dma.c ****   /* Return the DMA channel error code */
 2375              		.loc 1 1329 1 is_stmt 1 view -0
 2376              		.cfi_startproc
 2377              		@ args = 0, pretend = 0, frame = 0
 2378              		@ frame_needed = 0, uses_anonymous_args = 0
 2379              		@ link register save eliminated.
1331:Drivers/STM32H5xx_HAL_Driver/Src/stm32h5xx_hal_dma.c **** }
 2380              		.loc 1 1331 3 view .LVU841
1331:Drivers/STM32H5xx_HAL_Driver/Src/stm32h5xx_hal_dma.c **** }
 2381              		.loc 1 1331 14 is_stmt 0 view .LVU842
 2382 0000 806D     		ldr	r0, [r0, #88]
 2383              	.LVL111:
1332:Drivers/STM32H5xx_HAL_Driver/Src/stm32h5xx_hal_dma.c **** /**
 2384              		.loc 1 1332 1 view .LVU843
 2385 0002 7047     		bx	lr
 2386              		.cfi_endproc
ARM GAS  C:\Users\sapph\AppData\Local\Temp\ccTfCvBa.s 			page 85


 2387              	.LFE171:
 2389              		.section	.text.HAL_DMA_ConfigChannelAttributes,"ax",%progbits
 2390              		.align	1
 2391              		.global	HAL_DMA_ConfigChannelAttributes
 2392              		.syntax unified
 2393              		.thumb
 2394              		.thumb_func
 2396              	HAL_DMA_ConfigChannelAttributes:
 2397              	.LVL112:
 2398              	.LFB172:
1373:Drivers/STM32H5xx_HAL_Driver/Src/stm32h5xx_hal_dma.c ****   DMA_TypeDef *p_dma_instance;
 2399              		.loc 1 1373 1 is_stmt 1 view -0
 2400              		.cfi_startproc
 2401              		@ args = 0, pretend = 0, frame = 0
 2402              		@ frame_needed = 0, uses_anonymous_args = 0
 2403              		@ link register save eliminated.
1374:Drivers/STM32H5xx_HAL_Driver/Src/stm32h5xx_hal_dma.c ****   uint32_t channel_idx;
 2404              		.loc 1 1374 3 view .LVU845
1375:Drivers/STM32H5xx_HAL_Driver/Src/stm32h5xx_hal_dma.c **** 
 2405              		.loc 1 1375 3 view .LVU846
1378:Drivers/STM32H5xx_HAL_Driver/Src/stm32h5xx_hal_dma.c ****   {
 2406              		.loc 1 1378 3 view .LVU847
1378:Drivers/STM32H5xx_HAL_Driver/Src/stm32h5xx_hal_dma.c ****   {
 2407              		.loc 1 1378 6 is_stmt 0 view .LVU848
 2408 0000 E8B1     		cbz	r0, .L145
1384:Drivers/STM32H5xx_HAL_Driver/Src/stm32h5xx_hal_dma.c **** 
 2409              		.loc 1 1384 3 is_stmt 1 view .LVU849
1387:Drivers/STM32H5xx_HAL_Driver/Src/stm32h5xx_hal_dma.c **** 
 2410              		.loc 1 1387 3 view .LVU850
1387:Drivers/STM32H5xx_HAL_Driver/Src/stm32h5xx_hal_dma.c **** 
 2411              		.loc 1 1387 20 is_stmt 0 view .LVU851
 2412 0002 0368     		ldr	r3, [r0]
 2413 0004 23F47F60 		bic	r0, r3, #4080
 2414              	.LVL113:
1387:Drivers/STM32H5xx_HAL_Driver/Src/stm32h5xx_hal_dma.c **** 
 2415              		.loc 1 1387 20 view .LVU852
 2416 0008 20F00F00 		bic	r0, r0, #15
 2417              	.LVL114:
1390:Drivers/STM32H5xx_HAL_Driver/Src/stm32h5xx_hal_dma.c **** 
 2418              		.loc 1 1390 3 is_stmt 1 view .LVU853
1390:Drivers/STM32H5xx_HAL_Driver/Src/stm32h5xx_hal_dma.c **** 
 2419              		.loc 1 1390 25 is_stmt 0 view .LVU854
 2420 000c C3F30B03 		ubfx	r3, r3, #0, #12
 2421 0010 503B     		subs	r3, r3, #80
1390:Drivers/STM32H5xx_HAL_Driver/Src/stm32h5xx_hal_dma.c **** 
 2422              		.loc 1 1390 47 view .LVU855
 2423 0012 C3F3C413 		ubfx	r3, r3, #7, #5
1390:Drivers/STM32H5xx_HAL_Driver/Src/stm32h5xx_hal_dma.c **** 
 2424              		.loc 1 1390 15 view .LVU856
 2425 0016 0122     		movs	r2, #1
 2426 0018 9A40     		lsls	r2, r2, r3
 2427              	.LVL115:
1393:Drivers/STM32H5xx_HAL_Driver/Src/stm32h5xx_hal_dma.c ****   {
 2428              		.loc 1 1393 3 is_stmt 1 view .LVU857
1393:Drivers/STM32H5xx_HAL_Driver/Src/stm32h5xx_hal_dma.c ****   {
 2429              		.loc 1 1393 6 is_stmt 0 view .LVU858
 2430 001a 11F0100F 		tst	r1, #16
ARM GAS  C:\Users\sapph\AppData\Local\Temp\ccTfCvBa.s 			page 86


 2431 001e 10D0     		beq	.L146
1396:Drivers/STM32H5xx_HAL_Driver/Src/stm32h5xx_hal_dma.c ****     {
 2432              		.loc 1 1396 5 is_stmt 1 view .LVU859
1396:Drivers/STM32H5xx_HAL_Driver/Src/stm32h5xx_hal_dma.c ****     {
 2433              		.loc 1 1396 28 is_stmt 0 view .LVU860
 2434 0020 01F01101 		and	r1, r1, #17
 2435              	.LVL116:
1396:Drivers/STM32H5xx_HAL_Driver/Src/stm32h5xx_hal_dma.c ****     {
 2436              		.loc 1 1396 8 view .LVU861
 2437 0024 1129     		cmp	r1, #17
 2438 0026 05D0     		beq	.L147
1402:Drivers/STM32H5xx_HAL_Driver/Src/stm32h5xx_hal_dma.c ****     }
 2439              		.loc 1 1402 7 is_stmt 1 view .LVU862
1402:Drivers/STM32H5xx_HAL_Driver/Src/stm32h5xx_hal_dma.c ****     }
 2440              		.loc 1 1402 21 is_stmt 0 view .LVU863
 2441 0028 4368     		ldr	r3, [r0, #4]
1402:Drivers/STM32H5xx_HAL_Driver/Src/stm32h5xx_hal_dma.c ****     }
 2442              		.loc 1 1402 32 view .LVU864
 2443 002a 23EA0203 		bic	r3, r3, r2
 2444 002e 4360     		str	r3, [r0, #4]
1450:Drivers/STM32H5xx_HAL_Driver/Src/stm32h5xx_hal_dma.c **** }
 2445              		.loc 1 1450 10 view .LVU865
 2446 0030 0020     		movs	r0, #0
 2447              	.LVL117:
1450:Drivers/STM32H5xx_HAL_Driver/Src/stm32h5xx_hal_dma.c **** }
 2448              		.loc 1 1450 10 view .LVU866
 2449 0032 7047     		bx	lr
 2450              	.LVL118:
 2451              	.L147:
1398:Drivers/STM32H5xx_HAL_Driver/Src/stm32h5xx_hal_dma.c ****     }
 2452              		.loc 1 1398 7 is_stmt 1 view .LVU867
1398:Drivers/STM32H5xx_HAL_Driver/Src/stm32h5xx_hal_dma.c ****     }
 2453              		.loc 1 1398 21 is_stmt 0 view .LVU868
 2454 0034 4368     		ldr	r3, [r0, #4]
1398:Drivers/STM32H5xx_HAL_Driver/Src/stm32h5xx_hal_dma.c ****     }
 2455              		.loc 1 1398 32 view .LVU869
 2456 0036 1343     		orrs	r3, r3, r2
 2457 0038 4360     		str	r3, [r0, #4]
1450:Drivers/STM32H5xx_HAL_Driver/Src/stm32h5xx_hal_dma.c **** }
 2458              		.loc 1 1450 10 view .LVU870
 2459 003a 0020     		movs	r0, #0
 2460              	.LVL119:
1450:Drivers/STM32H5xx_HAL_Driver/Src/stm32h5xx_hal_dma.c **** }
 2461              		.loc 1 1450 10 view .LVU871
 2462 003c 7047     		bx	lr
 2463              	.LVL120:
 2464              	.L145:
1380:Drivers/STM32H5xx_HAL_Driver/Src/stm32h5xx_hal_dma.c ****   }
 2465              		.loc 1 1380 12 view .LVU872
 2466 003e 0120     		movs	r0, #1
 2467              	.LVL121:
1380:Drivers/STM32H5xx_HAL_Driver/Src/stm32h5xx_hal_dma.c ****   }
 2468              		.loc 1 1380 12 view .LVU873
 2469 0040 7047     		bx	lr
 2470              	.LVL122:
 2471              	.L146:
1450:Drivers/STM32H5xx_HAL_Driver/Src/stm32h5xx_hal_dma.c **** }
ARM GAS  C:\Users\sapph\AppData\Local\Temp\ccTfCvBa.s 			page 87


 2472              		.loc 1 1450 10 view .LVU874
 2473 0042 0020     		movs	r0, #0
 2474              	.LVL123:
1451:Drivers/STM32H5xx_HAL_Driver/Src/stm32h5xx_hal_dma.c **** 
 2475              		.loc 1 1451 1 view .LVU875
 2476 0044 7047     		bx	lr
 2477              		.cfi_endproc
 2478              	.LFE172:
 2480              		.section	.text.HAL_DMA_GetConfigChannelAttributes,"ax",%progbits
 2481              		.align	1
 2482              		.global	HAL_DMA_GetConfigChannelAttributes
 2483              		.syntax unified
 2484              		.thumb
 2485              		.thumb_func
 2487              	HAL_DMA_GetConfigChannelAttributes:
 2488              	.LVL124:
 2489              	.LFB173:
1462:Drivers/STM32H5xx_HAL_Driver/Src/stm32h5xx_hal_dma.c ****   const DMA_TypeDef *p_dma_instance;
 2490              		.loc 1 1462 1 is_stmt 1 view -0
 2491              		.cfi_startproc
 2492              		@ args = 0, pretend = 0, frame = 0
 2493              		@ frame_needed = 0, uses_anonymous_args = 0
 2494              		@ link register save eliminated.
1463:Drivers/STM32H5xx_HAL_Driver/Src/stm32h5xx_hal_dma.c ****   uint32_t attributes;
 2495              		.loc 1 1463 3 view .LVU877
1464:Drivers/STM32H5xx_HAL_Driver/Src/stm32h5xx_hal_dma.c ****   uint32_t channel_idx;
 2496              		.loc 1 1464 3 view .LVU878
1465:Drivers/STM32H5xx_HAL_Driver/Src/stm32h5xx_hal_dma.c **** 
 2497              		.loc 1 1465 3 view .LVU879
1468:Drivers/STM32H5xx_HAL_Driver/Src/stm32h5xx_hal_dma.c ****   {
 2498              		.loc 1 1468 3 view .LVU880
1468:Drivers/STM32H5xx_HAL_Driver/Src/stm32h5xx_hal_dma.c ****   {
 2499              		.loc 1 1468 6 is_stmt 0 view .LVU881
 2500 0000 88B3     		cbz	r0, .L154
1468:Drivers/STM32H5xx_HAL_Driver/Src/stm32h5xx_hal_dma.c ****   {
 2501              		.loc 1 1468 22 discriminator 1 view .LVU882
 2502 0002 91B3     		cbz	r1, .L155
1462:Drivers/STM32H5xx_HAL_Driver/Src/stm32h5xx_hal_dma.c ****   const DMA_TypeDef *p_dma_instance;
 2503              		.loc 1 1462 1 view .LVU883
 2504 0004 10B4     		push	{r4}
 2505              		.cfi_def_cfa_offset 4
 2506              		.cfi_offset 4, -4
1474:Drivers/STM32H5xx_HAL_Driver/Src/stm32h5xx_hal_dma.c **** 
 2507              		.loc 1 1474 3 is_stmt 1 view .LVU884
1474:Drivers/STM32H5xx_HAL_Driver/Src/stm32h5xx_hal_dma.c **** 
 2508              		.loc 1 1474 20 is_stmt 0 view .LVU885
 2509 0006 0268     		ldr	r2, [r0]
 2510 0008 22F47F6C 		bic	ip, r2, #4080
 2511 000c 2CF00F0C 		bic	ip, ip, #15
 2512              	.LVL125:
1477:Drivers/STM32H5xx_HAL_Driver/Src/stm32h5xx_hal_dma.c **** 
 2513              		.loc 1 1477 3 is_stmt 1 view .LVU886
1477:Drivers/STM32H5xx_HAL_Driver/Src/stm32h5xx_hal_dma.c **** 
 2514              		.loc 1 1477 25 is_stmt 0 view .LVU887
 2515 0010 C2F30B03 		ubfx	r3, r2, #0, #12
 2516 0014 503B     		subs	r3, r3, #80
1477:Drivers/STM32H5xx_HAL_Driver/Src/stm32h5xx_hal_dma.c **** 
ARM GAS  C:\Users\sapph\AppData\Local\Temp\ccTfCvBa.s 			page 88


 2517              		.loc 1 1477 47 view .LVU888
 2518 0016 C3F3C413 		ubfx	r3, r3, #7, #5
1477:Drivers/STM32H5xx_HAL_Driver/Src/stm32h5xx_hal_dma.c **** 
 2519              		.loc 1 1477 15 view .LVU889
 2520 001a 0120     		movs	r0, #1
 2521              	.LVL126:
1477:Drivers/STM32H5xx_HAL_Driver/Src/stm32h5xx_hal_dma.c **** 
 2522              		.loc 1 1477 15 view .LVU890
 2523 001c 00FA03F3 		lsl	r3, r0, r3
 2524              	.LVL127:
1480:Drivers/STM32H5xx_HAL_Driver/Src/stm32h5xx_hal_dma.c **** 
 2525              		.loc 1 1480 3 is_stmt 1 view .LVU891
1480:Drivers/STM32H5xx_HAL_Driver/Src/stm32h5xx_hal_dma.c **** 
 2526              		.loc 1 1480 32 is_stmt 0 view .LVU892
 2527 0020 DCF80400 		ldr	r0, [ip, #4]
1480:Drivers/STM32H5xx_HAL_Driver/Src/stm32h5xx_hal_dma.c **** 
 2528              		.loc 1 1480 85 view .LVU893
 2529 0024 1842     		tst	r0, r3
 2530 0026 16D1     		bne	.L156
1480:Drivers/STM32H5xx_HAL_Driver/Src/stm32h5xx_hal_dma.c **** 
 2531              		.loc 1 1480 85 discriminator 1 view .LVU894
 2532 0028 1020     		movs	r0, #16
 2533              	.L150:
 2534              	.LVL128:
1484:Drivers/STM32H5xx_HAL_Driver/Src/stm32h5xx_hal_dma.c **** 
 2535              		.loc 1 1484 3 is_stmt 1 view .LVU895
1484:Drivers/STM32H5xx_HAL_Driver/Src/stm32h5xx_hal_dma.c **** 
 2536              		.loc 1 1484 33 is_stmt 0 view .LVU896
 2537 002a DCF80040 		ldr	r4, [ip]
1484:Drivers/STM32H5xx_HAL_Driver/Src/stm32h5xx_hal_dma.c **** 
 2538              		.loc 1 1484 84 view .LVU897
 2539 002e 1C42     		tst	r4, r3
 2540 0030 13D1     		bne	.L157
1484:Drivers/STM32H5xx_HAL_Driver/Src/stm32h5xx_hal_dma.c **** 
 2541              		.loc 1 1484 84 discriminator 1 view .LVU898
 2542 0032 2023     		movs	r3, #32
 2543              	.LVL129:
 2544              	.L151:
1484:Drivers/STM32H5xx_HAL_Driver/Src/stm32h5xx_hal_dma.c **** 
 2545              		.loc 1 1484 14 discriminator 4 view .LVU899
 2546 0034 0343     		orrs	r3, r3, r0
 2547              	.LVL130:
1487:Drivers/STM32H5xx_HAL_Driver/Src/stm32h5xx_hal_dma.c **** 
 2548              		.loc 1 1487 3 is_stmt 1 view .LVU900
1487:Drivers/STM32H5xx_HAL_Driver/Src/stm32h5xx_hal_dma.c **** 
 2549              		.loc 1 1487 33 is_stmt 0 view .LVU901
 2550 0036 106C     		ldr	r0, [r2, #64]
1487:Drivers/STM32H5xx_HAL_Driver/Src/stm32h5xx_hal_dma.c **** 
 2551              		.loc 1 1487 87 view .LVU902
 2552 0038 10F4004F 		tst	r0, #32768
 2553 003c 0FD1     		bne	.L158
1487:Drivers/STM32H5xx_HAL_Driver/Src/stm32h5xx_hal_dma.c **** 
 2554              		.loc 1 1487 87 discriminator 1 view .LVU903
 2555 003e 4020     		movs	r0, #64
 2556              	.L152:
1487:Drivers/STM32H5xx_HAL_Driver/Src/stm32h5xx_hal_dma.c **** 
 2557              		.loc 1 1487 14 discriminator 4 view .LVU904
ARM GAS  C:\Users\sapph\AppData\Local\Temp\ccTfCvBa.s 			page 89


 2558 0040 1843     		orrs	r0, r0, r3
 2559              	.LVL131:
1490:Drivers/STM32H5xx_HAL_Driver/Src/stm32h5xx_hal_dma.c **** #endif /* DMA_SECCFGR_SEC0 */
 2560              		.loc 1 1490 3 is_stmt 1 view .LVU905
1490:Drivers/STM32H5xx_HAL_Driver/Src/stm32h5xx_hal_dma.c **** #endif /* DMA_SECCFGR_SEC0 */
 2561              		.loc 1 1490 33 is_stmt 0 view .LVU906
 2562 0042 136C     		ldr	r3, [r2, #64]
1490:Drivers/STM32H5xx_HAL_Driver/Src/stm32h5xx_hal_dma.c **** #endif /* DMA_SECCFGR_SEC0 */
 2563              		.loc 1 1490 88 view .LVU907
 2564 0044 002B     		cmp	r3, #0
 2565 0046 0CDB     		blt	.L159
1490:Drivers/STM32H5xx_HAL_Driver/Src/stm32h5xx_hal_dma.c **** #endif /* DMA_SECCFGR_SEC0 */
 2566              		.loc 1 1490 88 discriminator 1 view .LVU908
 2567 0048 8023     		movs	r3, #128
 2568              	.L153:
1490:Drivers/STM32H5xx_HAL_Driver/Src/stm32h5xx_hal_dma.c **** #endif /* DMA_SECCFGR_SEC0 */
 2569              		.loc 1 1490 14 discriminator 4 view .LVU909
 2570 004a 0343     		orrs	r3, r3, r0
 2571              	.LVL132:
1494:Drivers/STM32H5xx_HAL_Driver/Src/stm32h5xx_hal_dma.c **** 
 2572              		.loc 1 1494 3 is_stmt 1 view .LVU910
1494:Drivers/STM32H5xx_HAL_Driver/Src/stm32h5xx_hal_dma.c **** 
 2573              		.loc 1 1494 23 is_stmt 0 view .LVU911
 2574 004c 0B60     		str	r3, [r1]
1496:Drivers/STM32H5xx_HAL_Driver/Src/stm32h5xx_hal_dma.c **** }
 2575              		.loc 1 1496 3 is_stmt 1 view .LVU912
1496:Drivers/STM32H5xx_HAL_Driver/Src/stm32h5xx_hal_dma.c **** }
 2576              		.loc 1 1496 10 is_stmt 0 view .LVU913
 2577 004e 0020     		movs	r0, #0
1497:Drivers/STM32H5xx_HAL_Driver/Src/stm32h5xx_hal_dma.c **** 
 2578              		.loc 1 1497 1 view .LVU914
 2579 0050 5DF8044B 		ldr	r4, [sp], #4
 2580              		.cfi_remember_state
 2581              		.cfi_restore 4
 2582              		.cfi_def_cfa_offset 0
 2583 0054 7047     		bx	lr
 2584              	.LVL133:
 2585              	.L156:
 2586              		.cfi_restore_state
1480:Drivers/STM32H5xx_HAL_Driver/Src/stm32h5xx_hal_dma.c **** 
 2587              		.loc 1 1480 85 discriminator 2 view .LVU915
 2588 0056 1120     		movs	r0, #17
 2589 0058 E7E7     		b	.L150
 2590              	.LVL134:
 2591              	.L157:
1484:Drivers/STM32H5xx_HAL_Driver/Src/stm32h5xx_hal_dma.c **** 
 2592              		.loc 1 1484 84 discriminator 2 view .LVU916
 2593 005a 2223     		movs	r3, #34
 2594              	.LVL135:
1484:Drivers/STM32H5xx_HAL_Driver/Src/stm32h5xx_hal_dma.c **** 
 2595              		.loc 1 1484 84 discriminator 2 view .LVU917
 2596 005c EAE7     		b	.L151
 2597              	.LVL136:
 2598              	.L158:
1487:Drivers/STM32H5xx_HAL_Driver/Src/stm32h5xx_hal_dma.c **** 
 2599              		.loc 1 1487 87 discriminator 2 view .LVU918
 2600 005e 4420     		movs	r0, #68
ARM GAS  C:\Users\sapph\AppData\Local\Temp\ccTfCvBa.s 			page 90


 2601 0060 EEE7     		b	.L152
 2602              	.LVL137:
 2603              	.L159:
1490:Drivers/STM32H5xx_HAL_Driver/Src/stm32h5xx_hal_dma.c **** #endif /* DMA_SECCFGR_SEC0 */
 2604              		.loc 1 1490 88 discriminator 2 view .LVU919
 2605 0062 8823     		movs	r3, #136
 2606 0064 F1E7     		b	.L153
 2607              	.LVL138:
 2608              	.L154:
 2609              		.cfi_def_cfa_offset 0
 2610              		.cfi_restore 4
1470:Drivers/STM32H5xx_HAL_Driver/Src/stm32h5xx_hal_dma.c ****   }
 2611              		.loc 1 1470 12 view .LVU920
 2612 0066 0120     		movs	r0, #1
 2613              	.LVL139:
1470:Drivers/STM32H5xx_HAL_Driver/Src/stm32h5xx_hal_dma.c ****   }
 2614              		.loc 1 1470 12 view .LVU921
 2615 0068 7047     		bx	lr
 2616              	.LVL140:
 2617              	.L155:
1470:Drivers/STM32H5xx_HAL_Driver/Src/stm32h5xx_hal_dma.c ****   }
 2618              		.loc 1 1470 12 view .LVU922
 2619 006a 0120     		movs	r0, #1
 2620              	.LVL141:
1497:Drivers/STM32H5xx_HAL_Driver/Src/stm32h5xx_hal_dma.c **** 
 2621              		.loc 1 1497 1 view .LVU923
 2622 006c 7047     		bx	lr
 2623              		.cfi_endproc
 2624              	.LFE173:
 2626              		.section	.text.HAL_DMA_GetLockChannelAttributes,"ax",%progbits
 2627              		.align	1
 2628              		.global	HAL_DMA_GetLockChannelAttributes
 2629              		.syntax unified
 2630              		.thumb
 2631              		.thumb_func
 2633              	HAL_DMA_GetLockChannelAttributes:
 2634              	.LVL142:
 2635              	.LFB174:
1541:Drivers/STM32H5xx_HAL_Driver/Src/stm32h5xx_hal_dma.c ****   DMA_TypeDef *p_dma_instance;
 2636              		.loc 1 1541 1 is_stmt 1 view -0
 2637              		.cfi_startproc
 2638              		@ args = 0, pretend = 0, frame = 0
 2639              		@ frame_needed = 0, uses_anonymous_args = 0
 2640              		@ link register save eliminated.
1542:Drivers/STM32H5xx_HAL_Driver/Src/stm32h5xx_hal_dma.c ****   uint32_t channel_idx;
 2641              		.loc 1 1542 3 view .LVU925
1543:Drivers/STM32H5xx_HAL_Driver/Src/stm32h5xx_hal_dma.c **** 
 2642              		.loc 1 1543 3 view .LVU926
1546:Drivers/STM32H5xx_HAL_Driver/Src/stm32h5xx_hal_dma.c ****   {
 2643              		.loc 1 1546 3 view .LVU927
1546:Drivers/STM32H5xx_HAL_Driver/Src/stm32h5xx_hal_dma.c ****   {
 2644              		.loc 1 1546 6 is_stmt 0 view .LVU928
 2645 0000 A8B1     		cbz	r0, .L166
1546:Drivers/STM32H5xx_HAL_Driver/Src/stm32h5xx_hal_dma.c ****   {
 2646              		.loc 1 1546 22 discriminator 1 view .LVU929
 2647 0002 B1B1     		cbz	r1, .L167
1552:Drivers/STM32H5xx_HAL_Driver/Src/stm32h5xx_hal_dma.c **** 
ARM GAS  C:\Users\sapph\AppData\Local\Temp\ccTfCvBa.s 			page 91


 2648              		.loc 1 1552 3 is_stmt 1 view .LVU930
1552:Drivers/STM32H5xx_HAL_Driver/Src/stm32h5xx_hal_dma.c **** 
 2649              		.loc 1 1552 20 is_stmt 0 view .LVU931
 2650 0004 0368     		ldr	r3, [r0]
 2651 0006 23F47F60 		bic	r0, r3, #4080
 2652              	.LVL143:
1552:Drivers/STM32H5xx_HAL_Driver/Src/stm32h5xx_hal_dma.c **** 
 2653              		.loc 1 1552 20 view .LVU932
 2654 000a 20F00F00 		bic	r0, r0, #15
 2655              	.LVL144:
1555:Drivers/STM32H5xx_HAL_Driver/Src/stm32h5xx_hal_dma.c **** 
 2656              		.loc 1 1555 3 is_stmt 1 view .LVU933
1555:Drivers/STM32H5xx_HAL_Driver/Src/stm32h5xx_hal_dma.c **** 
 2657              		.loc 1 1555 25 is_stmt 0 view .LVU934
 2658 000e C3F30B03 		ubfx	r3, r3, #0, #12
 2659 0012 503B     		subs	r3, r3, #80
1555:Drivers/STM32H5xx_HAL_Driver/Src/stm32h5xx_hal_dma.c **** 
 2660              		.loc 1 1555 47 view .LVU935
 2661 0014 C3F3C413 		ubfx	r3, r3, #7, #5
1555:Drivers/STM32H5xx_HAL_Driver/Src/stm32h5xx_hal_dma.c **** 
 2662              		.loc 1 1555 15 view .LVU936
 2663 0018 0122     		movs	r2, #1
 2664 001a 02FA03F3 		lsl	r3, r2, r3
 2665              	.LVL145:
1558:Drivers/STM32H5xx_HAL_Driver/Src/stm32h5xx_hal_dma.c ****                 DMA_CHANNEL_ATTRIBUTE_LOCKED;
 2666              		.loc 1 1558 3 is_stmt 1 view .LVU937
1558:Drivers/STM32H5xx_HAL_Driver/Src/stm32h5xx_hal_dma.c ****                 DMA_CHANNEL_ATTRIBUTE_LOCKED;
 2667              		.loc 1 1558 33 is_stmt 0 view .LVU938
 2668 001e 8268     		ldr	r2, [r0, #8]
1558:Drivers/STM32H5xx_HAL_Driver/Src/stm32h5xx_hal_dma.c ****                 DMA_CHANNEL_ATTRIBUTE_LOCKED;
 2669              		.loc 1 1558 100 view .LVU939
 2670 0020 1A42     		tst	r2, r3
 2671 0022 14BF     		ite	ne
 2672 0024 0123     		movne	r3, #1
 2673              	.LVL146:
1558:Drivers/STM32H5xx_HAL_Driver/Src/stm32h5xx_hal_dma.c ****                 DMA_CHANNEL_ATTRIBUTE_LOCKED;
 2674              		.loc 1 1558 100 view .LVU940
 2675 0026 0023     		moveq	r3, #0
1558:Drivers/STM32H5xx_HAL_Driver/Src/stm32h5xx_hal_dma.c ****                 DMA_CHANNEL_ATTRIBUTE_LOCKED;
 2676              		.loc 1 1558 15 view .LVU941
 2677 0028 0B60     		str	r3, [r1]
 2678              	.LVL147:
1561:Drivers/STM32H5xx_HAL_Driver/Src/stm32h5xx_hal_dma.c **** }
 2679              		.loc 1 1561 3 is_stmt 1 view .LVU942
1561:Drivers/STM32H5xx_HAL_Driver/Src/stm32h5xx_hal_dma.c **** }
 2680              		.loc 1 1561 10 is_stmt 0 view .LVU943
 2681 002a 0020     		movs	r0, #0
 2682              	.LVL148:
1561:Drivers/STM32H5xx_HAL_Driver/Src/stm32h5xx_hal_dma.c **** }
 2683              		.loc 1 1561 10 view .LVU944
 2684 002c 7047     		bx	lr
 2685              	.LVL149:
 2686              	.L166:
1548:Drivers/STM32H5xx_HAL_Driver/Src/stm32h5xx_hal_dma.c ****   }
 2687              		.loc 1 1548 12 view .LVU945
 2688 002e 0120     		movs	r0, #1
 2689              	.LVL150:
ARM GAS  C:\Users\sapph\AppData\Local\Temp\ccTfCvBa.s 			page 92


1548:Drivers/STM32H5xx_HAL_Driver/Src/stm32h5xx_hal_dma.c ****   }
 2690              		.loc 1 1548 12 view .LVU946
 2691 0030 7047     		bx	lr
 2692              	.LVL151:
 2693              	.L167:
1548:Drivers/STM32H5xx_HAL_Driver/Src/stm32h5xx_hal_dma.c ****   }
 2694              		.loc 1 1548 12 view .LVU947
 2695 0032 0120     		movs	r0, #1
 2696              	.LVL152:
1562:Drivers/STM32H5xx_HAL_Driver/Src/stm32h5xx_hal_dma.c **** #endif /* DMA_RCFGLOCKR_LOCK0 */
 2697              		.loc 1 1562 1 view .LVU948
 2698 0034 7047     		bx	lr
 2699              		.cfi_endproc
 2700              	.LFE174:
 2702              		.text
 2703              	.Letext0:
 2704              		.file 2 "C:/Users/sapph/AppData/Roaming/Code/User/globalStorage/bmd.stm32-for-vscode/@xpack-dev-to
 2705              		.file 3 "C:/Users/sapph/AppData/Roaming/Code/User/globalStorage/bmd.stm32-for-vscode/@xpack-dev-to
 2706              		.file 4 "Drivers/CMSIS/Device/ST/STM32H5xx/Include/stm32h533xx.h"
 2707              		.file 5 "Drivers/STM32H5xx_HAL_Driver/Inc/stm32h5xx_hal_def.h"
 2708              		.file 6 "Drivers/STM32H5xx_HAL_Driver/Inc/stm32h5xx_hal_dma.h"
 2709              		.file 7 "Drivers/STM32H5xx_HAL_Driver/Inc/stm32h5xx_hal_dma_ex.h"
 2710              		.file 8 "Drivers/STM32H5xx_HAL_Driver/Inc/stm32h5xx_hal.h"
ARM GAS  C:\Users\sapph\AppData\Local\Temp\ccTfCvBa.s 			page 93


DEFINED SYMBOLS
                            *ABS*:00000000 stm32h5xx_hal_dma.c
C:\Users\sapph\AppData\Local\Temp\ccTfCvBa.s:22     .text.DMA_SetConfig:00000000 $t
C:\Users\sapph\AppData\Local\Temp\ccTfCvBa.s:27     .text.DMA_SetConfig:00000000 DMA_SetConfig
C:\Users\sapph\AppData\Local\Temp\ccTfCvBa.s:74     .text.DMA_Init:00000000 $t
C:\Users\sapph\AppData\Local\Temp\ccTfCvBa.s:79     .text.DMA_Init:00000000 DMA_Init
C:\Users\sapph\AppData\Local\Temp\ccTfCvBa.s:400    .text.DMA_Init:00000208 $d
C:\Users\sapph\AppData\Local\Temp\ccTfCvBa.s:407    .text.DMA_Init:00000210 $t
C:\Users\sapph\AppData\Local\Temp\ccTfCvBa.s:567    .text.DMA_Init:00000344 $d
C:\Users\sapph\AppData\Local\Temp\ccTfCvBa.s:572    .text.HAL_DMA_Init:00000000 $t
C:\Users\sapph\AppData\Local\Temp\ccTfCvBa.s:578    .text.HAL_DMA_Init:00000000 HAL_DMA_Init
C:\Users\sapph\AppData\Local\Temp\ccTfCvBa.s:700    .text.HAL_DMA_DeInit:00000000 $t
C:\Users\sapph\AppData\Local\Temp\ccTfCvBa.s:706    .text.HAL_DMA_DeInit:00000000 HAL_DMA_DeInit
C:\Users\sapph\AppData\Local\Temp\ccTfCvBa.s:934    .text.HAL_DMA_DeInit:00000100 $d
C:\Users\sapph\AppData\Local\Temp\ccTfCvBa.s:939    .text.HAL_DMA_Start:00000000 $t
C:\Users\sapph\AppData\Local\Temp\ccTfCvBa.s:945    .text.HAL_DMA_Start:00000000 HAL_DMA_Start
C:\Users\sapph\AppData\Local\Temp\ccTfCvBa.s:1049   .text.HAL_DMA_Start_IT:00000000 $t
C:\Users\sapph\AppData\Local\Temp\ccTfCvBa.s:1055   .text.HAL_DMA_Start_IT:00000000 HAL_DMA_Start_IT
C:\Users\sapph\AppData\Local\Temp\ccTfCvBa.s:1181   .text.HAL_DMA_Abort:00000000 $t
C:\Users\sapph\AppData\Local\Temp\ccTfCvBa.s:1187   .text.HAL_DMA_Abort:00000000 HAL_DMA_Abort
C:\Users\sapph\AppData\Local\Temp\ccTfCvBa.s:1357   .text.HAL_DMA_Abort_IT:00000000 $t
C:\Users\sapph\AppData\Local\Temp\ccTfCvBa.s:1363   .text.HAL_DMA_Abort_IT:00000000 HAL_DMA_Abort_IT
C:\Users\sapph\AppData\Local\Temp\ccTfCvBa.s:1423   .text.HAL_DMA_PollForTransfer:00000000 $t
C:\Users\sapph\AppData\Local\Temp\ccTfCvBa.s:1429   .text.HAL_DMA_PollForTransfer:00000000 HAL_DMA_PollForTransfer
C:\Users\sapph\AppData\Local\Temp\ccTfCvBa.s:1739   .text.HAL_DMA_IRQHandler:00000000 $t
C:\Users\sapph\AppData\Local\Temp\ccTfCvBa.s:1745   .text.HAL_DMA_IRQHandler:00000000 HAL_DMA_IRQHandler
C:\Users\sapph\AppData\Local\Temp\ccTfCvBa.s:2123   .text.HAL_DMA_RegisterCallback:00000000 $t
C:\Users\sapph\AppData\Local\Temp\ccTfCvBa.s:2129   .text.HAL_DMA_RegisterCallback:00000000 HAL_DMA_RegisterCallback
C:\Users\sapph\AppData\Local\Temp\ccTfCvBa.s:2164   .text.HAL_DMA_RegisterCallback:0000001a $d
C:\Users\sapph\AppData\Local\Temp\ccTfCvBa.s:2226   .text.HAL_DMA_UnRegisterCallback:00000000 $t
C:\Users\sapph\AppData\Local\Temp\ccTfCvBa.s:2232   .text.HAL_DMA_UnRegisterCallback:00000000 HAL_DMA_UnRegisterCallback
C:\Users\sapph\AppData\Local\Temp\ccTfCvBa.s:2267   .text.HAL_DMA_UnRegisterCallback:0000001a $d
C:\Users\sapph\AppData\Local\Temp\ccTfCvBa.s:2273   .text.HAL_DMA_UnRegisterCallback:00000020 $t
C:\Users\sapph\AppData\Local\Temp\ccTfCvBa.s:2342   .text.HAL_DMA_GetState:00000000 $t
C:\Users\sapph\AppData\Local\Temp\ccTfCvBa.s:2348   .text.HAL_DMA_GetState:00000000 HAL_DMA_GetState
C:\Users\sapph\AppData\Local\Temp\ccTfCvBa.s:2366   .text.HAL_DMA_GetError:00000000 $t
C:\Users\sapph\AppData\Local\Temp\ccTfCvBa.s:2372   .text.HAL_DMA_GetError:00000000 HAL_DMA_GetError
C:\Users\sapph\AppData\Local\Temp\ccTfCvBa.s:2390   .text.HAL_DMA_ConfigChannelAttributes:00000000 $t
C:\Users\sapph\AppData\Local\Temp\ccTfCvBa.s:2396   .text.HAL_DMA_ConfigChannelAttributes:00000000 HAL_DMA_ConfigChannelAttributes
C:\Users\sapph\AppData\Local\Temp\ccTfCvBa.s:2481   .text.HAL_DMA_GetConfigChannelAttributes:00000000 $t
C:\Users\sapph\AppData\Local\Temp\ccTfCvBa.s:2487   .text.HAL_DMA_GetConfigChannelAttributes:00000000 HAL_DMA_GetConfigChannelAttributes
C:\Users\sapph\AppData\Local\Temp\ccTfCvBa.s:2627   .text.HAL_DMA_GetLockChannelAttributes:00000000 $t
C:\Users\sapph\AppData\Local\Temp\ccTfCvBa.s:2633   .text.HAL_DMA_GetLockChannelAttributes:00000000 HAL_DMA_GetLockChannelAttributes
C:\Users\sapph\AppData\Local\Temp\ccTfCvBa.s:2169   .text.HAL_DMA_RegisterCallback:0000001f $d
C:\Users\sapph\AppData\Local\Temp\ccTfCvBa.s:2169   .text.HAL_DMA_RegisterCallback:00000020 $t

UNDEFINED SYMBOLS
HAL_GetTick
