ARM GAS  C:\Users\sapph\AppData\Local\Temp\ccD3KfzI.s 			page 1


   1              		.cpu cortex-m33
   2              		.arch armv8-m.main
   3              		.fpu fpv4-sp-d16
   4              		.arch_extension dsp
   5              		.eabi_attribute 27, 1
   6              		.eabi_attribute 28, 1
   7              		.eabi_attribute 20, 1
   8              		.eabi_attribute 21, 1
   9              		.eabi_attribute 23, 3
  10              		.eabi_attribute 24, 1
  11              		.eabi_attribute 25, 1
  12              		.eabi_attribute 26, 1
  13              		.eabi_attribute 30, 1
  14              		.eabi_attribute 34, 1
  15              		.eabi_attribute 18, 4
  16              		.file	"stm32h5xx_hal_rcc.c"
  17              		.text
  18              	.Ltext0:
  19              		.cfi_sections	.debug_frame
  20              		.file 1 "Drivers/STM32H5xx_HAL_Driver/Src/stm32h5xx_hal_rcc.c"
  21              		.section	.text.HAL_RCC_DeInit,"ax",%progbits
  22              		.align	1
  23              		.global	HAL_RCC_DeInit
  24              		.syntax unified
  25              		.thumb
  26              		.thumb_func
  28              	HAL_RCC_DeInit:
  29              	.LFB160:
   1:Drivers/STM32H5xx_HAL_Driver/Src/stm32h5xx_hal_rcc.c **** /**
   2:Drivers/STM32H5xx_HAL_Driver/Src/stm32h5xx_hal_rcc.c ****   ******************************************************************************
   3:Drivers/STM32H5xx_HAL_Driver/Src/stm32h5xx_hal_rcc.c ****   * @file    stm32h5xx_hal_rcc.c
   4:Drivers/STM32H5xx_HAL_Driver/Src/stm32h5xx_hal_rcc.c ****   * @author  MCD Application Team
   5:Drivers/STM32H5xx_HAL_Driver/Src/stm32h5xx_hal_rcc.c ****   * @brief   RCC HAL module driver.
   6:Drivers/STM32H5xx_HAL_Driver/Src/stm32h5xx_hal_rcc.c ****   *          This file provides firmware functions to manage the following
   7:Drivers/STM32H5xx_HAL_Driver/Src/stm32h5xx_hal_rcc.c ****   *          functionalities of the Reset and Clock Control (RCC) peripheral:
   8:Drivers/STM32H5xx_HAL_Driver/Src/stm32h5xx_hal_rcc.c ****   *           + Initialization and de-initialization functions
   9:Drivers/STM32H5xx_HAL_Driver/Src/stm32h5xx_hal_rcc.c ****   *           + Peripheral Control functions
  10:Drivers/STM32H5xx_HAL_Driver/Src/stm32h5xx_hal_rcc.c ****   *
  11:Drivers/STM32H5xx_HAL_Driver/Src/stm32h5xx_hal_rcc.c ****   ******************************************************************************
  12:Drivers/STM32H5xx_HAL_Driver/Src/stm32h5xx_hal_rcc.c ****   * @attention
  13:Drivers/STM32H5xx_HAL_Driver/Src/stm32h5xx_hal_rcc.c ****   *
  14:Drivers/STM32H5xx_HAL_Driver/Src/stm32h5xx_hal_rcc.c ****   * Copyright (c) 2023 STMicroelectronics.
  15:Drivers/STM32H5xx_HAL_Driver/Src/stm32h5xx_hal_rcc.c ****   * All rights reserved.
  16:Drivers/STM32H5xx_HAL_Driver/Src/stm32h5xx_hal_rcc.c ****   *
  17:Drivers/STM32H5xx_HAL_Driver/Src/stm32h5xx_hal_rcc.c ****   * This software is licensed under terms that can be found in the LICENSE file
  18:Drivers/STM32H5xx_HAL_Driver/Src/stm32h5xx_hal_rcc.c ****   * in the root directory of this software component.
  19:Drivers/STM32H5xx_HAL_Driver/Src/stm32h5xx_hal_rcc.c ****   * If no LICENSE file comes with this software, it is provided AS-IS.
  20:Drivers/STM32H5xx_HAL_Driver/Src/stm32h5xx_hal_rcc.c ****   *
  21:Drivers/STM32H5xx_HAL_Driver/Src/stm32h5xx_hal_rcc.c ****   ******************************************************************************
  22:Drivers/STM32H5xx_HAL_Driver/Src/stm32h5xx_hal_rcc.c ****   @verbatim
  23:Drivers/STM32H5xx_HAL_Driver/Src/stm32h5xx_hal_rcc.c ****   ==============================================================================
  24:Drivers/STM32H5xx_HAL_Driver/Src/stm32h5xx_hal_rcc.c ****                       ##### RCC specific features #####
  25:Drivers/STM32H5xx_HAL_Driver/Src/stm32h5xx_hal_rcc.c ****   ==============================================================================
  26:Drivers/STM32H5xx_HAL_Driver/Src/stm32h5xx_hal_rcc.c ****     [..]
  27:Drivers/STM32H5xx_HAL_Driver/Src/stm32h5xx_hal_rcc.c ****       After reset the device is running from High Speed Internal oscillator
  28:Drivers/STM32H5xx_HAL_Driver/Src/stm32h5xx_hal_rcc.c ****       (64 MHz) with Flash 3 wait states. Flash prefetch buffer, D-Cache
  29:Drivers/STM32H5xx_HAL_Driver/Src/stm32h5xx_hal_rcc.c ****       and I-Cache are disabled, and all peripherals are off except internal
ARM GAS  C:\Users\sapph\AppData\Local\Temp\ccD3KfzI.s 			page 2


  30:Drivers/STM32H5xx_HAL_Driver/Src/stm32h5xx_hal_rcc.c ****       SRAM, Flash and JTAG.
  31:Drivers/STM32H5xx_HAL_Driver/Src/stm32h5xx_hal_rcc.c **** 
  32:Drivers/STM32H5xx_HAL_Driver/Src/stm32h5xx_hal_rcc.c ****       (+) There is no prescaler on High speed (AHBs) and Low speed (APBs) busses:
  33:Drivers/STM32H5xx_HAL_Driver/Src/stm32h5xx_hal_rcc.c ****           all peripherals mapped on these busses are running at HSI speed.
  34:Drivers/STM32H5xx_HAL_Driver/Src/stm32h5xx_hal_rcc.c ****       (+) The clock for all peripherals is switched off, except the SRAM and FLASH.
  35:Drivers/STM32H5xx_HAL_Driver/Src/stm32h5xx_hal_rcc.c ****       (+) All GPIOs are in analog mode, except the JTAG pins which
  36:Drivers/STM32H5xx_HAL_Driver/Src/stm32h5xx_hal_rcc.c ****           are assigned to be used for debug purpose.
  37:Drivers/STM32H5xx_HAL_Driver/Src/stm32h5xx_hal_rcc.c **** 
  38:Drivers/STM32H5xx_HAL_Driver/Src/stm32h5xx_hal_rcc.c ****     [..]
  39:Drivers/STM32H5xx_HAL_Driver/Src/stm32h5xx_hal_rcc.c ****       Once the device started from reset, the user application has to:
  40:Drivers/STM32H5xx_HAL_Driver/Src/stm32h5xx_hal_rcc.c ****       (+) Configure the clock source to be used to drive the System clock
  41:Drivers/STM32H5xx_HAL_Driver/Src/stm32h5xx_hal_rcc.c ****           (if the application needs higher frequency/performance)
  42:Drivers/STM32H5xx_HAL_Driver/Src/stm32h5xx_hal_rcc.c ****       (+) Configure the System clock frequency and Flash settings
  43:Drivers/STM32H5xx_HAL_Driver/Src/stm32h5xx_hal_rcc.c ****       (+) Configure the AHB and APB busses prescalers
  44:Drivers/STM32H5xx_HAL_Driver/Src/stm32h5xx_hal_rcc.c ****       (+) Enable the clock for the peripheral(s) to be used
  45:Drivers/STM32H5xx_HAL_Driver/Src/stm32h5xx_hal_rcc.c ****       (+) Configure the clock source(s) for peripherals which clocks are not
  46:Drivers/STM32H5xx_HAL_Driver/Src/stm32h5xx_hal_rcc.c ****           derived from the System clock (SAIx, RTC, ADC, USB, SDMMC, etc.)
  47:Drivers/STM32H5xx_HAL_Driver/Src/stm32h5xx_hal_rcc.c **** 
  48:Drivers/STM32H5xx_HAL_Driver/Src/stm32h5xx_hal_rcc.c ****   @endverbatim
  49:Drivers/STM32H5xx_HAL_Driver/Src/stm32h5xx_hal_rcc.c ****   */
  50:Drivers/STM32H5xx_HAL_Driver/Src/stm32h5xx_hal_rcc.c **** 
  51:Drivers/STM32H5xx_HAL_Driver/Src/stm32h5xx_hal_rcc.c **** /* Includes ------------------------------------------------------------------*/
  52:Drivers/STM32H5xx_HAL_Driver/Src/stm32h5xx_hal_rcc.c **** #include "stm32h5xx_hal.h"
  53:Drivers/STM32H5xx_HAL_Driver/Src/stm32h5xx_hal_rcc.c **** 
  54:Drivers/STM32H5xx_HAL_Driver/Src/stm32h5xx_hal_rcc.c **** /** @addtogroup STM32H5xx_HAL_Driver
  55:Drivers/STM32H5xx_HAL_Driver/Src/stm32h5xx_hal_rcc.c ****   * @{
  56:Drivers/STM32H5xx_HAL_Driver/Src/stm32h5xx_hal_rcc.c ****   */
  57:Drivers/STM32H5xx_HAL_Driver/Src/stm32h5xx_hal_rcc.c **** 
  58:Drivers/STM32H5xx_HAL_Driver/Src/stm32h5xx_hal_rcc.c **** /** @defgroup RCC RCC
  59:Drivers/STM32H5xx_HAL_Driver/Src/stm32h5xx_hal_rcc.c ****   * @brief RCC HAL module driver
  60:Drivers/STM32H5xx_HAL_Driver/Src/stm32h5xx_hal_rcc.c ****   * @{
  61:Drivers/STM32H5xx_HAL_Driver/Src/stm32h5xx_hal_rcc.c ****   */
  62:Drivers/STM32H5xx_HAL_Driver/Src/stm32h5xx_hal_rcc.c **** 
  63:Drivers/STM32H5xx_HAL_Driver/Src/stm32h5xx_hal_rcc.c **** #ifdef HAL_RCC_MODULE_ENABLED
  64:Drivers/STM32H5xx_HAL_Driver/Src/stm32h5xx_hal_rcc.c **** 
  65:Drivers/STM32H5xx_HAL_Driver/Src/stm32h5xx_hal_rcc.c **** /* Private typedef -----------------------------------------------------------*/
  66:Drivers/STM32H5xx_HAL_Driver/Src/stm32h5xx_hal_rcc.c **** /* Private define ------------------------------------------------------------*/
  67:Drivers/STM32H5xx_HAL_Driver/Src/stm32h5xx_hal_rcc.c **** /** @defgroup RCC_Private_Constants RCC Private Constants
  68:Drivers/STM32H5xx_HAL_Driver/Src/stm32h5xx_hal_rcc.c ****   * @{
  69:Drivers/STM32H5xx_HAL_Driver/Src/stm32h5xx_hal_rcc.c ****   */
  70:Drivers/STM32H5xx_HAL_Driver/Src/stm32h5xx_hal_rcc.c **** 
  71:Drivers/STM32H5xx_HAL_Driver/Src/stm32h5xx_hal_rcc.c **** /** @defgroup RCC_Timeout_Value Timeout Values
  72:Drivers/STM32H5xx_HAL_Driver/Src/stm32h5xx_hal_rcc.c ****   * @{
  73:Drivers/STM32H5xx_HAL_Driver/Src/stm32h5xx_hal_rcc.c ****   */
  74:Drivers/STM32H5xx_HAL_Driver/Src/stm32h5xx_hal_rcc.c **** #define RCC_LSI_TIMEOUT_VALUE           ((uint32_t)2U)    /* 2 ms (minimum Tick + 1) */
  75:Drivers/STM32H5xx_HAL_Driver/Src/stm32h5xx_hal_rcc.c **** #define RCC_HSI48_TIMEOUT_VALUE         ((uint32_t)2U)    /* 2 ms (minimum Tick + 1) */
  76:Drivers/STM32H5xx_HAL_Driver/Src/stm32h5xx_hal_rcc.c **** #define RCC_PLL_TIMEOUT_VALUE           ((uint32_t)2U)    /* 2 ms (minimum Tick + 1) */
  77:Drivers/STM32H5xx_HAL_Driver/Src/stm32h5xx_hal_rcc.c **** #define RCC_CLOCKSWITCH_TIMEOUT_VALUE   ((uint32_t)5000U) /* 5 s    */
  78:Drivers/STM32H5xx_HAL_Driver/Src/stm32h5xx_hal_rcc.c **** #define RCC_PLL_FRAC_WAIT_VALUE         1U        /* PLL Fractional part waiting time before new la
  79:Drivers/STM32H5xx_HAL_Driver/Src/stm32h5xx_hal_rcc.c **** /**
  80:Drivers/STM32H5xx_HAL_Driver/Src/stm32h5xx_hal_rcc.c ****   * @}
  81:Drivers/STM32H5xx_HAL_Driver/Src/stm32h5xx_hal_rcc.c ****   */
  82:Drivers/STM32H5xx_HAL_Driver/Src/stm32h5xx_hal_rcc.c **** 
  83:Drivers/STM32H5xx_HAL_Driver/Src/stm32h5xx_hal_rcc.c **** /**
  84:Drivers/STM32H5xx_HAL_Driver/Src/stm32h5xx_hal_rcc.c ****   * @}
  85:Drivers/STM32H5xx_HAL_Driver/Src/stm32h5xx_hal_rcc.c ****   */
  86:Drivers/STM32H5xx_HAL_Driver/Src/stm32h5xx_hal_rcc.c **** 
ARM GAS  C:\Users\sapph\AppData\Local\Temp\ccD3KfzI.s 			page 3


  87:Drivers/STM32H5xx_HAL_Driver/Src/stm32h5xx_hal_rcc.c **** /* Private macro -------------------------------------------------------------*/
  88:Drivers/STM32H5xx_HAL_Driver/Src/stm32h5xx_hal_rcc.c **** /** @defgroup RCC_Private_Macros RCC Private Macros
  89:Drivers/STM32H5xx_HAL_Driver/Src/stm32h5xx_hal_rcc.c ****   * @{
  90:Drivers/STM32H5xx_HAL_Driver/Src/stm32h5xx_hal_rcc.c ****   */
  91:Drivers/STM32H5xx_HAL_Driver/Src/stm32h5xx_hal_rcc.c **** 
  92:Drivers/STM32H5xx_HAL_Driver/Src/stm32h5xx_hal_rcc.c **** #define MCO1_CLK_ENABLE()     __HAL_RCC_GPIOA_CLK_ENABLE()
  93:Drivers/STM32H5xx_HAL_Driver/Src/stm32h5xx_hal_rcc.c **** #define MCO1_GPIO_PORT        GPIOA
  94:Drivers/STM32H5xx_HAL_Driver/Src/stm32h5xx_hal_rcc.c **** #define MCO1_PIN              GPIO_PIN_8
  95:Drivers/STM32H5xx_HAL_Driver/Src/stm32h5xx_hal_rcc.c **** 
  96:Drivers/STM32H5xx_HAL_Driver/Src/stm32h5xx_hal_rcc.c **** #define MCO2_CLK_ENABLE()      __HAL_RCC_GPIOC_CLK_ENABLE()
  97:Drivers/STM32H5xx_HAL_Driver/Src/stm32h5xx_hal_rcc.c **** #define MCO2_GPIO_PORT         GPIOC
  98:Drivers/STM32H5xx_HAL_Driver/Src/stm32h5xx_hal_rcc.c **** #define MCO2_PIN               GPIO_PIN_9
  99:Drivers/STM32H5xx_HAL_Driver/Src/stm32h5xx_hal_rcc.c **** 
 100:Drivers/STM32H5xx_HAL_Driver/Src/stm32h5xx_hal_rcc.c **** /**
 101:Drivers/STM32H5xx_HAL_Driver/Src/stm32h5xx_hal_rcc.c ****   * @}
 102:Drivers/STM32H5xx_HAL_Driver/Src/stm32h5xx_hal_rcc.c ****   */
 103:Drivers/STM32H5xx_HAL_Driver/Src/stm32h5xx_hal_rcc.c **** 
 104:Drivers/STM32H5xx_HAL_Driver/Src/stm32h5xx_hal_rcc.c **** /* Private variables ---------------------------------------------------------*/
 105:Drivers/STM32H5xx_HAL_Driver/Src/stm32h5xx_hal_rcc.c **** 
 106:Drivers/STM32H5xx_HAL_Driver/Src/stm32h5xx_hal_rcc.c **** /* Private function prototypes -----------------------------------------------*/
 107:Drivers/STM32H5xx_HAL_Driver/Src/stm32h5xx_hal_rcc.c **** /* Exported functions --------------------------------------------------------*/
 108:Drivers/STM32H5xx_HAL_Driver/Src/stm32h5xx_hal_rcc.c **** 
 109:Drivers/STM32H5xx_HAL_Driver/Src/stm32h5xx_hal_rcc.c **** /** @defgroup RCC_Exported_Functions RCC Exported Functions
 110:Drivers/STM32H5xx_HAL_Driver/Src/stm32h5xx_hal_rcc.c ****   * @{
 111:Drivers/STM32H5xx_HAL_Driver/Src/stm32h5xx_hal_rcc.c ****   */
 112:Drivers/STM32H5xx_HAL_Driver/Src/stm32h5xx_hal_rcc.c **** 
 113:Drivers/STM32H5xx_HAL_Driver/Src/stm32h5xx_hal_rcc.c **** /** @defgroup RCC_Exported_Functions_Group1 Initialization and de-initialization functions
 114:Drivers/STM32H5xx_HAL_Driver/Src/stm32h5xx_hal_rcc.c ****   *  @brief    Initialization and Configuration functions
 115:Drivers/STM32H5xx_HAL_Driver/Src/stm32h5xx_hal_rcc.c ****   *
 116:Drivers/STM32H5xx_HAL_Driver/Src/stm32h5xx_hal_rcc.c ****   @verbatim
 117:Drivers/STM32H5xx_HAL_Driver/Src/stm32h5xx_hal_rcc.c ****  ===============================================================================
 118:Drivers/STM32H5xx_HAL_Driver/Src/stm32h5xx_hal_rcc.c ****            ##### Initialization and de-initialization functions #####
 119:Drivers/STM32H5xx_HAL_Driver/Src/stm32h5xx_hal_rcc.c ****  ===============================================================================
 120:Drivers/STM32H5xx_HAL_Driver/Src/stm32h5xx_hal_rcc.c ****     [..]
 121:Drivers/STM32H5xx_HAL_Driver/Src/stm32h5xx_hal_rcc.c ****       This section provides functions allowing to configure the internal and external oscillators
 122:Drivers/STM32H5xx_HAL_Driver/Src/stm32h5xx_hal_rcc.c ****       (HSE, HSI, LSE, CSI, LSI, PLL1, HSE CSS and MCOs) and the System busses clocks (SYSCLK, AHB, 
 123:Drivers/STM32H5xx_HAL_Driver/Src/stm32h5xx_hal_rcc.c ****        and APB3).
 124:Drivers/STM32H5xx_HAL_Driver/Src/stm32h5xx_hal_rcc.c **** 
 125:Drivers/STM32H5xx_HAL_Driver/Src/stm32h5xx_hal_rcc.c ****     [..] Internal/external clock and PLL configuration
 126:Drivers/STM32H5xx_HAL_Driver/Src/stm32h5xx_hal_rcc.c ****          (+) HSI (high-speed internal): 64 MHz factory-trimmed RC used directly or through
 127:Drivers/STM32H5xx_HAL_Driver/Src/stm32h5xx_hal_rcc.c ****              the PLL as System clock source.
 128:Drivers/STM32H5xx_HAL_Driver/Src/stm32h5xx_hal_rcc.c **** 
 129:Drivers/STM32H5xx_HAL_Driver/Src/stm32h5xx_hal_rcc.c ****          (#) CSI is a low-power RC oscillator which can be used directly as system clock, periphera
 130:Drivers/STM32H5xx_HAL_Driver/Src/stm32h5xx_hal_rcc.c ****              clock, or PLL input. But even with frequency calibration, is less accurate than an
 131:Drivers/STM32H5xx_HAL_Driver/Src/stm32h5xx_hal_rcc.c ****              external crystal oscillator or ceramic resonator.
 132:Drivers/STM32H5xx_HAL_Driver/Src/stm32h5xx_hal_rcc.c **** 
 133:Drivers/STM32H5xx_HAL_Driver/Src/stm32h5xx_hal_rcc.c ****          (+) LSI (low-speed internal): 32 KHz low consumption RC used as IWDG and/or RTC
 134:Drivers/STM32H5xx_HAL_Driver/Src/stm32h5xx_hal_rcc.c ****              clock source.
 135:Drivers/STM32H5xx_HAL_Driver/Src/stm32h5xx_hal_rcc.c **** 
 136:Drivers/STM32H5xx_HAL_Driver/Src/stm32h5xx_hal_rcc.c ****          (+) HSE (high-speed external): 4 to 48 MHz crystal oscillator used directly or
 137:Drivers/STM32H5xx_HAL_Driver/Src/stm32h5xx_hal_rcc.c ****              through the PLL as System clock source. Can be used also optionally as RTC clock sourc
 138:Drivers/STM32H5xx_HAL_Driver/Src/stm32h5xx_hal_rcc.c **** 
 139:Drivers/STM32H5xx_HAL_Driver/Src/stm32h5xx_hal_rcc.c ****          (+) LSE (low-speed external): 32.768 KHz oscillator used optionally as RTC clock source.
 140:Drivers/STM32H5xx_HAL_Driver/Src/stm32h5xx_hal_rcc.c **** 
 141:Drivers/STM32H5xx_HAL_Driver/Src/stm32h5xx_hal_rcc.c ****          (+) PLL1 (clocked by HSI, HSE or CSI) providing up to three independent output clocks:
 142:Drivers/STM32H5xx_HAL_Driver/Src/stm32h5xx_hal_rcc.c ****            (++) The first output is used to generate the high speed system clock (up to 250MHz).
 143:Drivers/STM32H5xx_HAL_Driver/Src/stm32h5xx_hal_rcc.c ****            (++) The second output is used to generate the clock for the USB (48 MHz), the FDCAN1/2,
ARM GAS  C:\Users\sapph\AppData\Local\Temp\ccD3KfzI.s 			page 4


 144:Drivers/STM32H5xx_HAL_Driver/Src/stm32h5xx_hal_rcc.c ****                 the SPI1/2/3, the OCTOSPI, the RNG (<=48 MHz), the SDMMC1/2 and to generate an accu
 145:Drivers/STM32H5xx_HAL_Driver/Src/stm32h5xx_hal_rcc.c ****                 clock to achieve high-quality audio performance on SAI1/2 interface.
 146:Drivers/STM32H5xx_HAL_Driver/Src/stm32h5xx_hal_rcc.c **** 
 147:Drivers/STM32H5xx_HAL_Driver/Src/stm32h5xx_hal_rcc.c ****          (+) PLL2 (clocked by HSI, HSE or CSI) providing up to three independent output clocks:
 148:Drivers/STM32H5xx_HAL_Driver/Src/stm32h5xx_hal_rcc.c ****            (++) The first output is used to generate the clock for the LPTIMs, the SPI1/2/3 and to 
 149:Drivers/STM32H5xx_HAL_Driver/Src/stm32h5xx_hal_rcc.c ****                 an accurate clock to achieve high-quality audio performance on SAI1/2 interface.
 150:Drivers/STM32H5xx_HAL_Driver/Src/stm32h5xx_hal_rcc.c ****            (++) The second output is used to generate the clock for USARTs, the UARTs, the LPUART1,
 151:Drivers/STM32H5xx_HAL_Driver/Src/stm32h5xx_hal_rcc.c ****                 the FDCAN1/2, the SPI4/5/6 and the USB.
 152:Drivers/STM32H5xx_HAL_Driver/Src/stm32h5xx_hal_rcc.c ****            (++) The third output is used to generate the clock the SDMMC1/2, the ADC/DAC, the I2C1/
 153:Drivers/STM32H5xx_HAL_Driver/Src/stm32h5xx_hal_rcc.c ****                 the I3C1/2 and the OCTOSPI.
 154:Drivers/STM32H5xx_HAL_Driver/Src/stm32h5xx_hal_rcc.c **** 
 155:Drivers/STM32H5xx_HAL_Driver/Src/stm32h5xx_hal_rcc.c ****          (+) PLL3 (clocked by HSI , HSE or CSI) providing up to three independent output clocks:
 156:Drivers/STM32H5xx_HAL_Driver/Src/stm32h5xx_hal_rcc.c ****            (++) The first output is used to generate the clock for SPI1/2/3 and to generate an accu
 157:Drivers/STM32H5xx_HAL_Driver/Src/stm32h5xx_hal_rcc.c ****                 clock to achieve high-quality audio performance on SAI1/2 interface.
 158:Drivers/STM32H5xx_HAL_Driver/Src/stm32h5xx_hal_rcc.c ****            (++) The second  output is used to generate the clock for USARTs, the UARTs, the LPUART1
 159:Drivers/STM32H5xx_HAL_Driver/Src/stm32h5xx_hal_rcc.c ****                 the SPI4/5/6 and the USB.
 160:Drivers/STM32H5xx_HAL_Driver/Src/stm32h5xx_hal_rcc.c ****            (++) The third output is used to generate the clock for the I2Cs, the I3Cs and the LPTIM
 161:Drivers/STM32H5xx_HAL_Driver/Src/stm32h5xx_hal_rcc.c **** 
 162:Drivers/STM32H5xx_HAL_Driver/Src/stm32h5xx_hal_rcc.c ****          (+) HSE CSS (HSE Clock Security System): once enabled, if a HSE clock failure occurs
 163:Drivers/STM32H5xx_HAL_Driver/Src/stm32h5xx_hal_rcc.c ****             (HSE used directly or through PLL1 as System clock source), the System clock
 164:Drivers/STM32H5xx_HAL_Driver/Src/stm32h5xx_hal_rcc.c ****              is automatically switched to HSI and an interrupt is generated if enabled.
 165:Drivers/STM32H5xx_HAL_Driver/Src/stm32h5xx_hal_rcc.c ****              The interrupt is linked to the Cortex-M33 NMI (Non-Maskable Interrupt)
 166:Drivers/STM32H5xx_HAL_Driver/Src/stm32h5xx_hal_rcc.c ****              exception vector.
 167:Drivers/STM32H5xx_HAL_Driver/Src/stm32h5xx_hal_rcc.c **** 
 168:Drivers/STM32H5xx_HAL_Driver/Src/stm32h5xx_hal_rcc.c ****          (#) MCO1 (micro controller clock output1), used to output HSI, LSE, HSE, PLL1(PLL1_Q)
 169:Drivers/STM32H5xx_HAL_Driver/Src/stm32h5xx_hal_rcc.c ****              or HSI48 clock (through a configurable pre-scaler) on PA8 pin.
 170:Drivers/STM32H5xx_HAL_Driver/Src/stm32h5xx_hal_rcc.c **** 
 171:Drivers/STM32H5xx_HAL_Driver/Src/stm32h5xx_hal_rcc.c ****          (#) MCO2 (micro controller clock output2), used to output HSE, PLL2(PLL2_P), SYSCLK,
 172:Drivers/STM32H5xx_HAL_Driver/Src/stm32h5xx_hal_rcc.c ****              LSI, CSI, or PLL1(PLL1_P) clock (through a configurable pre-scaler) on PC9 pin.
 173:Drivers/STM32H5xx_HAL_Driver/Src/stm32h5xx_hal_rcc.c **** 
 174:Drivers/STM32H5xx_HAL_Driver/Src/stm32h5xx_hal_rcc.c ****     [..] System, AHB and APB busses clocks configuration
 175:Drivers/STM32H5xx_HAL_Driver/Src/stm32h5xx_hal_rcc.c ****          (+) Several clock sources can be used to drive the System clock (SYSCLK): CSI, HSI, HSE an
 176:Drivers/STM32H5xx_HAL_Driver/Src/stm32h5xx_hal_rcc.c ****              The AHB clock (HCLK) is derived from System clock through configurable
 177:Drivers/STM32H5xx_HAL_Driver/Src/stm32h5xx_hal_rcc.c ****              prescaler and used to clock the CPU, memory and peripherals mapped
 178:Drivers/STM32H5xx_HAL_Driver/Src/stm32h5xx_hal_rcc.c ****              on AHB bus (DMA, GPIO...). APB1 (PCLK1), APB2 (PCLK2) and APB3 (PCLK3) clocks are deri
 179:Drivers/STM32H5xx_HAL_Driver/Src/stm32h5xx_hal_rcc.c ****              from AHB clock through configurable prescalers and used to clock
 180:Drivers/STM32H5xx_HAL_Driver/Src/stm32h5xx_hal_rcc.c ****              the peripherals mapped on these busses. You can use
 181:Drivers/STM32H5xx_HAL_Driver/Src/stm32h5xx_hal_rcc.c ****              "HAL_RCC_GetSysClockFreq()" function to retrieve the frequencies of these clocks.
 182:Drivers/STM32H5xx_HAL_Driver/Src/stm32h5xx_hal_rcc.c **** 
 183:Drivers/STM32H5xx_HAL_Driver/Src/stm32h5xx_hal_rcc.c ****          -@- All the peripheral clocks are derived from the System clock (SYSCLK) except:
 184:Drivers/STM32H5xx_HAL_Driver/Src/stm32h5xx_hal_rcc.c **** 
 185:Drivers/STM32H5xx_HAL_Driver/Src/stm32h5xx_hal_rcc.c ****            (+@) SAI: the SAI clock can be derived either from specific PLL (PLL1, PLL2 or PLL3),
 186:Drivers/STM32H5xx_HAL_Driver/Src/stm32h5xx_hal_rcc.c ****                 the per_ck clock (HSE, HSI or CSI) or from an external clock mapped on the SAI_CKIN
 187:Drivers/STM32H5xx_HAL_Driver/Src/stm32h5xx_hal_rcc.c ****                 You have to use HAL_RCCEx_PeriphCLKConfig() function to configure this clock.
 188:Drivers/STM32H5xx_HAL_Driver/Src/stm32h5xx_hal_rcc.c ****            (+@) SPI/I2S: the SPI1/2/3 clock can be derived either from specific PLL (PLL1, PLL2 or 
 189:Drivers/STM32H5xx_HAL_Driver/Src/stm32h5xx_hal_rcc.c ****                 the per_ck clock (HSE, HSI or CSI) or from an external clock mapped on the SPI_CKIN
 190:Drivers/STM32H5xx_HAL_Driver/Src/stm32h5xx_hal_rcc.c ****                 You have to use HAL_RCCEx_PeriphCLKConfig() function to configure this clock.
 191:Drivers/STM32H5xx_HAL_Driver/Src/stm32h5xx_hal_rcc.c ****            (+@) RTC: the RTC clock can be derived either from the LSI, LSE or HSE clock
 192:Drivers/STM32H5xx_HAL_Driver/Src/stm32h5xx_hal_rcc.c ****                 divided by 2 to 31.
 193:Drivers/STM32H5xx_HAL_Driver/Src/stm32h5xx_hal_rcc.c ****                 You have to use __HAL_RCC_RTC_ENABLE() and HAL_RCCEx_PeriphCLKConfig() function
 194:Drivers/STM32H5xx_HAL_Driver/Src/stm32h5xx_hal_rcc.c ****                 to configure this clock.
 195:Drivers/STM32H5xx_HAL_Driver/Src/stm32h5xx_hal_rcc.c ****            (+@) USB: USB requires a frequency equal to 48 MHz to work correctly. This clock is deri
 196:Drivers/STM32H5xx_HAL_Driver/Src/stm32h5xx_hal_rcc.c ****                 of the main PLL or PLL2 through PLLQ divider. You have to use HAL_RCCEx_PeriphCLKCo
 197:Drivers/STM32H5xx_HAL_Driver/Src/stm32h5xx_hal_rcc.c ****                 function to configure this clock.
 198:Drivers/STM32H5xx_HAL_Driver/Src/stm32h5xx_hal_rcc.c ****            (+@) UCPD: the UCPD clock is derived from HSI (divided by 4) clock.
 199:Drivers/STM32H5xx_HAL_Driver/Src/stm32h5xx_hal_rcc.c ****            (+@) SDMMC: SDMMC1/2 peripherals require a frequency equal or lower than 48 MHz.
 200:Drivers/STM32H5xx_HAL_Driver/Src/stm32h5xx_hal_rcc.c ****                 This clock is derived from the PLL1 or PLL2 through PLL1Q or PLL2R divider. You hav
ARM GAS  C:\Users\sapph\AppData\Local\Temp\ccD3KfzI.s 			page 5


 201:Drivers/STM32H5xx_HAL_Driver/Src/stm32h5xx_hal_rcc.c ****                 to use HAL_RCCEx_PeriphCLKConfig() function to configure this clock.
 202:Drivers/STM32H5xx_HAL_Driver/Src/stm32h5xx_hal_rcc.c ****            (+@) IWDG clock which is always the LSI clock. You have to use HAL_RCCEx_PeriphCLKConfig
 203:Drivers/STM32H5xx_HAL_Driver/Src/stm32h5xx_hal_rcc.c ****                 function to configure this clock.
 204:Drivers/STM32H5xx_HAL_Driver/Src/stm32h5xx_hal_rcc.c ****            (+@) RNG: the RNG clock can be derived either from PLL1Q, HSI48, LSE or LSI clock. You h
 205:Drivers/STM32H5xx_HAL_Driver/Src/stm32h5xx_hal_rcc.c ****                 to use HAL_RCCEx_PeriphCLKConfig() function to configure this clock.
 206:Drivers/STM32H5xx_HAL_Driver/Src/stm32h5xx_hal_rcc.c ****            (+@) DAC: the DAC clock can be derived either from LSE or LSI clock. You have
 207:Drivers/STM32H5xx_HAL_Driver/Src/stm32h5xx_hal_rcc.c ****                 to use HAL_RCCEx_PeriphCLKConfig() function to configure this clock.
 208:Drivers/STM32H5xx_HAL_Driver/Src/stm32h5xx_hal_rcc.c ****            (+@) FDCAN: the FDCAN1/2 clock can be derived either from HSE, PLL1Q or PLL2Q clock. You
 209:Drivers/STM32H5xx_HAL_Driver/Src/stm32h5xx_hal_rcc.c ****                 to use HAL_RCCEx_PeriphCLKConfig() function to configure this clock.
 210:Drivers/STM32H5xx_HAL_Driver/Src/stm32h5xx_hal_rcc.c ****            (+@) CEC: the CEC clock can be derived either from LSE, LSI or CSI (divided by 122) cloc
 211:Drivers/STM32H5xx_HAL_Driver/Src/stm32h5xx_hal_rcc.c ****                 to use HAL_RCCEx_PeriphCLKConfig() function to configure this clock.
 212:Drivers/STM32H5xx_HAL_Driver/Src/stm32h5xx_hal_rcc.c ****            (+@) ETH: the Ethernet clock is derived from PLL1Q clock.
 213:Drivers/STM32H5xx_HAL_Driver/Src/stm32h5xx_hal_rcc.c **** 
 214:Drivers/STM32H5xx_HAL_Driver/Src/stm32h5xx_hal_rcc.c **** 
 215:Drivers/STM32H5xx_HAL_Driver/Src/stm32h5xx_hal_rcc.c **** 
 216:Drivers/STM32H5xx_HAL_Driver/Src/stm32h5xx_hal_rcc.c ****          (+) The maximum frequency of the SYSCLK, HCLK, PCLK1, PCLK2 and PCLK3 is 250 MHz.
 217:Drivers/STM32H5xx_HAL_Driver/Src/stm32h5xx_hal_rcc.c ****              The clock source frequency should be adapted depending on the device voltage range
 218:Drivers/STM32H5xx_HAL_Driver/Src/stm32h5xx_hal_rcc.c ****              as listed in the Reference Manual "Clock source frequency versus voltage scaling" chap
 219:Drivers/STM32H5xx_HAL_Driver/Src/stm32h5xx_hal_rcc.c **** 
 220:Drivers/STM32H5xx_HAL_Driver/Src/stm32h5xx_hal_rcc.c ****   @endverbatim
 221:Drivers/STM32H5xx_HAL_Driver/Src/stm32h5xx_hal_rcc.c **** 
 222:Drivers/STM32H5xx_HAL_Driver/Src/stm32h5xx_hal_rcc.c **** 
 223:Drivers/STM32H5xx_HAL_Driver/Src/stm32h5xx_hal_rcc.c ****            Table 1. HCLK clock frequency for STM32H5xx devices
 224:Drivers/STM32H5xx_HAL_Driver/Src/stm32h5xx_hal_rcc.c ****            +---------------------------------------------------------------------------------------
 225:Drivers/STM32H5xx_HAL_Driver/Src/stm32h5xx_hal_rcc.c ****            | Latency         |                          HCLK clock frequency (MHz)                 
 226:Drivers/STM32H5xx_HAL_Driver/Src/stm32h5xx_hal_rcc.c ****            |                 |---------------------------------------------------------------------
 227:Drivers/STM32H5xx_HAL_Driver/Src/stm32h5xx_hal_rcc.c ****            |                 |  voltage range 0  |  voltage range 1 | voltage range 2  | voltage ra
 228:Drivers/STM32H5xx_HAL_Driver/Src/stm32h5xx_hal_rcc.c ****            |                 |    1.26 - 1.35V   |   1.15 - 1.26V   |   1.05 - 1.15V   |   0,95 - 1
 229:Drivers/STM32H5xx_HAL_Driver/Src/stm32h5xx_hal_rcc.c ****            |-----------------|-------------------|------------------|------------------|-----------
 230:Drivers/STM32H5xx_HAL_Driver/Src/stm32h5xx_hal_rcc.c ****            |0WS(1 CPU cycles)|   0 < HCLK <= 38  |  0 < HCLK <= 32  |  0 < HCLK <= 26  | 0 < HCLK <
 231:Drivers/STM32H5xx_HAL_Driver/Src/stm32h5xx_hal_rcc.c ****            |-----------------|-------------------|------------------|------------------|-----------
 232:Drivers/STM32H5xx_HAL_Driver/Src/stm32h5xx_hal_rcc.c ****            |1WS(2 CPU cycles)|  38 < HCLK <= 76  | 32 < HCLK <= 64  | 26 < HCLK <= 50  | 16 < HCLK 
 233:Drivers/STM32H5xx_HAL_Driver/Src/stm32h5xx_hal_rcc.c ****            |-----------------|-------------------|------------------|------------------|-----------
 234:Drivers/STM32H5xx_HAL_Driver/Src/stm32h5xx_hal_rcc.c ****            |2WS(3 CPU cycles)|  76 < HCLK <= 114 | 64 < HCLK <= 96  | 50 < HCLK <= 80  | 32 < HCLK 
 235:Drivers/STM32H5xx_HAL_Driver/Src/stm32h5xx_hal_rcc.c ****            |-----------------|-------------------|------------------|------------------|-----------
 236:Drivers/STM32H5xx_HAL_Driver/Src/stm32h5xx_hal_rcc.c ****            |3WS(4 CPU cycles)| 114 < HCLK <= 152 | 96 < HCLK <= 128 | 80 < HCLK <= 106 | 50 < HCLK 
 237:Drivers/STM32H5xx_HAL_Driver/Src/stm32h5xx_hal_rcc.c ****            |-----------------|-------------------|------------------|------------------|-----------
 238:Drivers/STM32H5xx_HAL_Driver/Src/stm32h5xx_hal_rcc.c ****            |4WS(5 CPU cycles)|  152 < HCLK <= 190| 128 < HCLK <= 160| 106 < HCLK <= 130| 65 < HCLK 
 239:Drivers/STM32H5xx_HAL_Driver/Src/stm32h5xx_hal_rcc.c ****            |-----------------|-------------------|------------------|------------------|-----------
 240:Drivers/STM32H5xx_HAL_Driver/Src/stm32h5xx_hal_rcc.c ****            |5WS(6 CPU cycles)|  190 < HCLK <= 250| 160 < HCLK <= 180|        NA        |         NA
 241:Drivers/STM32H5xx_HAL_Driver/Src/stm32h5xx_hal_rcc.c ****            +-----------------+-------------------+------------------+------------------+-----------
 242:Drivers/STM32H5xx_HAL_Driver/Src/stm32h5xx_hal_rcc.c ****   * @{
 243:Drivers/STM32H5xx_HAL_Driver/Src/stm32h5xx_hal_rcc.c ****   */
 244:Drivers/STM32H5xx_HAL_Driver/Src/stm32h5xx_hal_rcc.c **** 
 245:Drivers/STM32H5xx_HAL_Driver/Src/stm32h5xx_hal_rcc.c **** /**
 246:Drivers/STM32H5xx_HAL_Driver/Src/stm32h5xx_hal_rcc.c ****   * @brief  Reset the RCC clock configuration to the default reset state.
 247:Drivers/STM32H5xx_HAL_Driver/Src/stm32h5xx_hal_rcc.c ****   * @note   The default reset state of the clock configuration is given below:
 248:Drivers/STM32H5xx_HAL_Driver/Src/stm32h5xx_hal_rcc.c ****   *            - HSI ON and used as system clock source
 249:Drivers/STM32H5xx_HAL_Driver/Src/stm32h5xx_hal_rcc.c ****   *            - HSE, CSI, PLL, PLL2 and PLL3 OFF
 250:Drivers/STM32H5xx_HAL_Driver/Src/stm32h5xx_hal_rcc.c ****   *            - AHB, APB1 and APB2 prescaler set to 1.
 251:Drivers/STM32H5xx_HAL_Driver/Src/stm32h5xx_hal_rcc.c ****   *            - HSECSS, MCO1 and MCO2 OFF
 252:Drivers/STM32H5xx_HAL_Driver/Src/stm32h5xx_hal_rcc.c ****   *            - All interrupts disabled
 253:Drivers/STM32H5xx_HAL_Driver/Src/stm32h5xx_hal_rcc.c ****   * @note   This function doesn't modify the configuration of the
 254:Drivers/STM32H5xx_HAL_Driver/Src/stm32h5xx_hal_rcc.c ****   *            - Peripheral clocks
 255:Drivers/STM32H5xx_HAL_Driver/Src/stm32h5xx_hal_rcc.c ****   *            - LSI, LSE and RTC clocks
 256:Drivers/STM32H5xx_HAL_Driver/Src/stm32h5xx_hal_rcc.c ****   * @retval HAL Status.
 257:Drivers/STM32H5xx_HAL_Driver/Src/stm32h5xx_hal_rcc.c ****   */
ARM GAS  C:\Users\sapph\AppData\Local\Temp\ccD3KfzI.s 			page 6


 258:Drivers/STM32H5xx_HAL_Driver/Src/stm32h5xx_hal_rcc.c **** 
 259:Drivers/STM32H5xx_HAL_Driver/Src/stm32h5xx_hal_rcc.c **** HAL_StatusTypeDef HAL_RCC_DeInit(void)
 260:Drivers/STM32H5xx_HAL_Driver/Src/stm32h5xx_hal_rcc.c **** {
  30              		.loc 1 260 1 view -0
  31              		.cfi_startproc
  32              		@ args = 0, pretend = 0, frame = 0
  33              		@ frame_needed = 0, uses_anonymous_args = 0
  34 0000 38B5     		push	{r3, r4, r5, lr}
  35              		.cfi_def_cfa_offset 16
  36              		.cfi_offset 3, -16
  37              		.cfi_offset 4, -12
  38              		.cfi_offset 5, -8
  39              		.cfi_offset 14, -4
 261:Drivers/STM32H5xx_HAL_Driver/Src/stm32h5xx_hal_rcc.c ****   uint32_t tickstart;
  40              		.loc 1 261 3 view .LVU1
 262:Drivers/STM32H5xx_HAL_Driver/Src/stm32h5xx_hal_rcc.c **** 
 263:Drivers/STM32H5xx_HAL_Driver/Src/stm32h5xx_hal_rcc.c ****   /* Increasing the CPU frequency */
 264:Drivers/STM32H5xx_HAL_Driver/Src/stm32h5xx_hal_rcc.c ****   if (FLASH_LATENCY_DEFAULT  > __HAL_FLASH_GET_LATENCY())
  41              		.loc 1 264 3 view .LVU2
  42              		.loc 1 264 32 is_stmt 0 view .LVU3
  43 0002 634B     		ldr	r3, .L30
  44 0004 1B68     		ldr	r3, [r3]
  45 0006 03F00F03 		and	r3, r3, #15
  46              		.loc 1 264 6 view .LVU4
  47 000a 022B     		cmp	r3, #2
  48 000c 0CD8     		bhi	.L2
 265:Drivers/STM32H5xx_HAL_Driver/Src/stm32h5xx_hal_rcc.c ****   {
 266:Drivers/STM32H5xx_HAL_Driver/Src/stm32h5xx_hal_rcc.c ****     /* Program the new number of wait states to the LATENCY bits in the FLASH_ACR register */
 267:Drivers/STM32H5xx_HAL_Driver/Src/stm32h5xx_hal_rcc.c ****     __HAL_FLASH_SET_LATENCY(FLASH_LATENCY_DEFAULT);
  49              		.loc 1 267 5 is_stmt 1 view .LVU5
  50 000e 604A     		ldr	r2, .L30
  51 0010 1368     		ldr	r3, [r2]
  52 0012 23F00F03 		bic	r3, r3, #15
  53 0016 43F00303 		orr	r3, r3, #3
  54 001a 1360     		str	r3, [r2]
 268:Drivers/STM32H5xx_HAL_Driver/Src/stm32h5xx_hal_rcc.c **** 
 269:Drivers/STM32H5xx_HAL_Driver/Src/stm32h5xx_hal_rcc.c ****     /* Check that the new number of wait states is taken into account to access the Flash
 270:Drivers/STM32H5xx_HAL_Driver/Src/stm32h5xx_hal_rcc.c ****     memory by reading the FLASH_ACR register */
 271:Drivers/STM32H5xx_HAL_Driver/Src/stm32h5xx_hal_rcc.c ****     if (__HAL_FLASH_GET_LATENCY() != FLASH_LATENCY_DEFAULT)
  55              		.loc 1 271 5 view .LVU6
  56              		.loc 1 271 9 is_stmt 0 view .LVU7
  57 001c 1368     		ldr	r3, [r2]
  58 001e 03F00F03 		and	r3, r3, #15
  59              		.loc 1 271 8 view .LVU8
  60 0022 032B     		cmp	r3, #3
  61 0024 40F0B080 		bne	.L15
  62              	.L2:
 272:Drivers/STM32H5xx_HAL_Driver/Src/stm32h5xx_hal_rcc.c ****     {
 273:Drivers/STM32H5xx_HAL_Driver/Src/stm32h5xx_hal_rcc.c ****       return HAL_ERROR;
 274:Drivers/STM32H5xx_HAL_Driver/Src/stm32h5xx_hal_rcc.c ****     }
 275:Drivers/STM32H5xx_HAL_Driver/Src/stm32h5xx_hal_rcc.c **** 
 276:Drivers/STM32H5xx_HAL_Driver/Src/stm32h5xx_hal_rcc.c ****   }
 277:Drivers/STM32H5xx_HAL_Driver/Src/stm32h5xx_hal_rcc.c **** 
 278:Drivers/STM32H5xx_HAL_Driver/Src/stm32h5xx_hal_rcc.c ****   /* Get start tick*/
 279:Drivers/STM32H5xx_HAL_Driver/Src/stm32h5xx_hal_rcc.c ****   tickstart = HAL_GetTick();
  63              		.loc 1 279 3 is_stmt 1 view .LVU9
  64              		.loc 1 279 15 is_stmt 0 view .LVU10
ARM GAS  C:\Users\sapph\AppData\Local\Temp\ccD3KfzI.s 			page 7


  65 0028 FFF7FEFF 		bl	HAL_GetTick
  66              	.LVL0:
  67 002c 0446     		mov	r4, r0
  68              	.LVL1:
 280:Drivers/STM32H5xx_HAL_Driver/Src/stm32h5xx_hal_rcc.c **** 
 281:Drivers/STM32H5xx_HAL_Driver/Src/stm32h5xx_hal_rcc.c ****   /* Set HSION bit */
 282:Drivers/STM32H5xx_HAL_Driver/Src/stm32h5xx_hal_rcc.c ****   SET_BIT(RCC->CR, RCC_CR_HSION);
  69              		.loc 1 282 3 is_stmt 1 view .LVU11
  70 002e 594A     		ldr	r2, .L30+4
  71 0030 1368     		ldr	r3, [r2]
  72 0032 43F00103 		orr	r3, r3, #1
  73 0036 1360     		str	r3, [r2]
 283:Drivers/STM32H5xx_HAL_Driver/Src/stm32h5xx_hal_rcc.c **** 
 284:Drivers/STM32H5xx_HAL_Driver/Src/stm32h5xx_hal_rcc.c ****   /* Wait till HSI is ready */
 285:Drivers/STM32H5xx_HAL_Driver/Src/stm32h5xx_hal_rcc.c ****   while (READ_BIT(RCC->CR, RCC_CR_HSIRDY) == 0U)
  74              		.loc 1 285 3 view .LVU12
  75              	.LVL2:
  76              	.L4:
  77              		.loc 1 285 43 view .LVU13
  78              		.loc 1 285 10 is_stmt 0 view .LVU14
  79 0038 564B     		ldr	r3, .L30+4
  80 003a 1B68     		ldr	r3, [r3]
  81              		.loc 1 285 43 view .LVU15
  82 003c 13F0020F 		tst	r3, #2
  83 0040 06D1     		bne	.L24
 286:Drivers/STM32H5xx_HAL_Driver/Src/stm32h5xx_hal_rcc.c ****   {
 287:Drivers/STM32H5xx_HAL_Driver/Src/stm32h5xx_hal_rcc.c ****     if ((HAL_GetTick() - tickstart) > RCC_HSI_TIMEOUT_VALUE)
  84              		.loc 1 287 5 is_stmt 1 view .LVU16
  85              		.loc 1 287 10 is_stmt 0 view .LVU17
  86 0042 FFF7FEFF 		bl	HAL_GetTick
  87              	.LVL3:
  88              		.loc 1 287 24 discriminator 1 view .LVU18
  89 0046 001B     		subs	r0, r0, r4
  90              		.loc 1 287 8 discriminator 1 view .LVU19
  91 0048 0228     		cmp	r0, #2
  92 004a F5D9     		bls	.L4
 288:Drivers/STM32H5xx_HAL_Driver/Src/stm32h5xx_hal_rcc.c ****     {
 289:Drivers/STM32H5xx_HAL_Driver/Src/stm32h5xx_hal_rcc.c ****       return HAL_TIMEOUT;
  93              		.loc 1 289 14 view .LVU20
  94 004c 0320     		movs	r0, #3
  95 004e 9CE0     		b	.L3
  96              	.L24:
 290:Drivers/STM32H5xx_HAL_Driver/Src/stm32h5xx_hal_rcc.c ****     }
 291:Drivers/STM32H5xx_HAL_Driver/Src/stm32h5xx_hal_rcc.c ****   }
 292:Drivers/STM32H5xx_HAL_Driver/Src/stm32h5xx_hal_rcc.c **** 
 293:Drivers/STM32H5xx_HAL_Driver/Src/stm32h5xx_hal_rcc.c ****   /* Set HSIDIV Default value */
 294:Drivers/STM32H5xx_HAL_Driver/Src/stm32h5xx_hal_rcc.c ****   CLEAR_BIT(RCC->CR, RCC_CR_HSIDIV);
  97              		.loc 1 294 3 is_stmt 1 view .LVU21
  98 0050 504B     		ldr	r3, .L30+4
  99 0052 1A68     		ldr	r2, [r3]
 100 0054 22F01802 		bic	r2, r2, #24
 101 0058 1A60     		str	r2, [r3]
 295:Drivers/STM32H5xx_HAL_Driver/Src/stm32h5xx_hal_rcc.c **** 
 296:Drivers/STM32H5xx_HAL_Driver/Src/stm32h5xx_hal_rcc.c ****   /* Set HSITRIM default value */
 297:Drivers/STM32H5xx_HAL_Driver/Src/stm32h5xx_hal_rcc.c ****   WRITE_REG(RCC->HSICFGR, RCC_HSICFGR_HSITRIM_6);
 102              		.loc 1 297 3 view .LVU22
 103 005a 4FF48002 		mov	r2, #4194304
ARM GAS  C:\Users\sapph\AppData\Local\Temp\ccD3KfzI.s 			page 8


 104 005e 1A61     		str	r2, [r3, #16]
 298:Drivers/STM32H5xx_HAL_Driver/Src/stm32h5xx_hal_rcc.c **** 
 299:Drivers/STM32H5xx_HAL_Driver/Src/stm32h5xx_hal_rcc.c **** 
 300:Drivers/STM32H5xx_HAL_Driver/Src/stm32h5xx_hal_rcc.c ****   /* Adapt Systick interrupt period */
 301:Drivers/STM32H5xx_HAL_Driver/Src/stm32h5xx_hal_rcc.c ****   if (HAL_InitTick(uwTickPrio) != HAL_OK)
 105              		.loc 1 301 3 view .LVU23
 106              		.loc 1 301 7 is_stmt 0 view .LVU24
 107 0060 4D4B     		ldr	r3, .L30+8
 108 0062 1868     		ldr	r0, [r3]
 109 0064 FFF7FEFF 		bl	HAL_InitTick
 110              	.LVL4:
 111              		.loc 1 301 6 discriminator 1 view .LVU25
 112 0068 08B1     		cbz	r0, .L25
 302:Drivers/STM32H5xx_HAL_Driver/Src/stm32h5xx_hal_rcc.c ****   {
 303:Drivers/STM32H5xx_HAL_Driver/Src/stm32h5xx_hal_rcc.c ****     return HAL_ERROR;
 113              		.loc 1 303 12 view .LVU26
 114 006a 0120     		movs	r0, #1
 115 006c 8DE0     		b	.L3
 116              	.L25:
 304:Drivers/STM32H5xx_HAL_Driver/Src/stm32h5xx_hal_rcc.c ****   }
 305:Drivers/STM32H5xx_HAL_Driver/Src/stm32h5xx_hal_rcc.c **** 
 306:Drivers/STM32H5xx_HAL_Driver/Src/stm32h5xx_hal_rcc.c ****   /* Get start tick*/
 307:Drivers/STM32H5xx_HAL_Driver/Src/stm32h5xx_hal_rcc.c ****   tickstart = HAL_GetTick();
 117              		.loc 1 307 3 is_stmt 1 view .LVU27
 118              		.loc 1 307 15 is_stmt 0 view .LVU28
 119 006e FFF7FEFF 		bl	HAL_GetTick
 120              	.LVL5:
 121 0072 0446     		mov	r4, r0
 122              	.LVL6:
 308:Drivers/STM32H5xx_HAL_Driver/Src/stm32h5xx_hal_rcc.c **** 
 309:Drivers/STM32H5xx_HAL_Driver/Src/stm32h5xx_hal_rcc.c ****   /* Reset CFGR register (HSI is selected as system clock source) */
 310:Drivers/STM32H5xx_HAL_Driver/Src/stm32h5xx_hal_rcc.c ****   CLEAR_REG(RCC->CFGR1);
 123              		.loc 1 310 3 is_stmt 1 view .LVU29
 124 0074 474B     		ldr	r3, .L30+4
 125 0076 0022     		movs	r2, #0
 126 0078 DA61     		str	r2, [r3, #28]
 311:Drivers/STM32H5xx_HAL_Driver/Src/stm32h5xx_hal_rcc.c ****   CLEAR_REG(RCC->CFGR2);
 127              		.loc 1 311 3 view .LVU30
 128 007a 1A62     		str	r2, [r3, #32]
 312:Drivers/STM32H5xx_HAL_Driver/Src/stm32h5xx_hal_rcc.c **** 
 313:Drivers/STM32H5xx_HAL_Driver/Src/stm32h5xx_hal_rcc.c ****   /* Wait till clock switch is ready */
 314:Drivers/STM32H5xx_HAL_Driver/Src/stm32h5xx_hal_rcc.c ****   while (READ_BIT(RCC->CFGR1, RCC_CFGR1_SWS) != 0U)
 129              		.loc 1 314 3 view .LVU31
 130              	.LVL7:
 131              	.L6:
 132              		.loc 1 314 46 view .LVU32
 133              		.loc 1 314 10 is_stmt 0 view .LVU33
 134 007c 454B     		ldr	r3, .L30+4
 135 007e DB69     		ldr	r3, [r3, #28]
 136              		.loc 1 314 46 view .LVU34
 137 0080 13F0180F 		tst	r3, #24
 138 0084 08D0     		beq	.L26
 315:Drivers/STM32H5xx_HAL_Driver/Src/stm32h5xx_hal_rcc.c ****   {
 316:Drivers/STM32H5xx_HAL_Driver/Src/stm32h5xx_hal_rcc.c ****     if ((HAL_GetTick() - tickstart) > RCC_CLOCKSWITCH_TIMEOUT_VALUE)
 139              		.loc 1 316 5 is_stmt 1 view .LVU35
 140              		.loc 1 316 10 is_stmt 0 view .LVU36
 141 0086 FFF7FEFF 		bl	HAL_GetTick
ARM GAS  C:\Users\sapph\AppData\Local\Temp\ccD3KfzI.s 			page 9


 142              	.LVL8:
 143              		.loc 1 316 24 discriminator 1 view .LVU37
 144 008a 001B     		subs	r0, r0, r4
 145              		.loc 1 316 8 discriminator 1 view .LVU38
 146 008c 41F28833 		movw	r3, #5000
 147 0090 9842     		cmp	r0, r3
 148 0092 F3D9     		bls	.L6
 317:Drivers/STM32H5xx_HAL_Driver/Src/stm32h5xx_hal_rcc.c ****     {
 318:Drivers/STM32H5xx_HAL_Driver/Src/stm32h5xx_hal_rcc.c ****       return HAL_TIMEOUT;
 149              		.loc 1 318 14 view .LVU39
 150 0094 0320     		movs	r0, #3
 151 0096 78E0     		b	.L3
 152              	.L26:
 319:Drivers/STM32H5xx_HAL_Driver/Src/stm32h5xx_hal_rcc.c ****     }
 320:Drivers/STM32H5xx_HAL_Driver/Src/stm32h5xx_hal_rcc.c ****   }
 321:Drivers/STM32H5xx_HAL_Driver/Src/stm32h5xx_hal_rcc.c **** 
 322:Drivers/STM32H5xx_HAL_Driver/Src/stm32h5xx_hal_rcc.c ****   /* Reset HSECSSON, HSEON, HSIKERON, CSION, CSIKERON and HSI48ON bits */
 323:Drivers/STM32H5xx_HAL_Driver/Src/stm32h5xx_hal_rcc.c ****   CLEAR_BIT(RCC->CR, RCC_CR_CSION | RCC_CR_CSIKERON | RCC_CR_HSECSSON | RCC_CR_HSIKERON | RCC_CR_HS
 153              		.loc 1 323 3 is_stmt 1 view .LVU40
 154 0098 3E4D     		ldr	r5, .L30+4
 155 009a 2A68     		ldr	r2, [r5]
 156 009c 3F4B     		ldr	r3, .L30+12
 157 009e 1340     		ands	r3, r3, r2
 158 00a0 2B60     		str	r3, [r5]
 324:Drivers/STM32H5xx_HAL_Driver/Src/stm32h5xx_hal_rcc.c ****             RCC_CR_HSEON);
 325:Drivers/STM32H5xx_HAL_Driver/Src/stm32h5xx_hal_rcc.c **** 
 326:Drivers/STM32H5xx_HAL_Driver/Src/stm32h5xx_hal_rcc.c ****   /* Reset HSEEXT bit*/
 327:Drivers/STM32H5xx_HAL_Driver/Src/stm32h5xx_hal_rcc.c ****   CLEAR_BIT(RCC->CR, RCC_CR_HSEEXT);
 159              		.loc 1 327 3 view .LVU41
 160 00a2 2B68     		ldr	r3, [r5]
 161 00a4 23F48013 		bic	r3, r3, #1048576
 162 00a8 2B60     		str	r3, [r5]
 328:Drivers/STM32H5xx_HAL_Driver/Src/stm32h5xx_hal_rcc.c **** 
 329:Drivers/STM32H5xx_HAL_Driver/Src/stm32h5xx_hal_rcc.c ****   /* Get Start Tick */
 330:Drivers/STM32H5xx_HAL_Driver/Src/stm32h5xx_hal_rcc.c ****   tickstart = HAL_GetTick();
 163              		.loc 1 330 3 view .LVU42
 164              		.loc 1 330 15 is_stmt 0 view .LVU43
 165 00aa FFF7FEFF 		bl	HAL_GetTick
 166              	.LVL9:
 167 00ae 0446     		mov	r4, r0
 168              	.LVL10:
 331:Drivers/STM32H5xx_HAL_Driver/Src/stm32h5xx_hal_rcc.c **** 
 332:Drivers/STM32H5xx_HAL_Driver/Src/stm32h5xx_hal_rcc.c ****   /* Clear PLL1ON bit */
 333:Drivers/STM32H5xx_HAL_Driver/Src/stm32h5xx_hal_rcc.c ****   CLEAR_BIT(RCC->CR, RCC_CR_PLL1ON);
 169              		.loc 1 333 3 is_stmt 1 view .LVU44
 170 00b0 2B68     		ldr	r3, [r5]
 171 00b2 23F08073 		bic	r3, r3, #16777216
 172 00b6 2B60     		str	r3, [r5]
 334:Drivers/STM32H5xx_HAL_Driver/Src/stm32h5xx_hal_rcc.c **** 
 335:Drivers/STM32H5xx_HAL_Driver/Src/stm32h5xx_hal_rcc.c ****   /* Wait till PLL1 is disabled */
 336:Drivers/STM32H5xx_HAL_Driver/Src/stm32h5xx_hal_rcc.c ****   while (READ_BIT(RCC->CR, RCC_CR_PLL1RDY) != 0U)
 173              		.loc 1 336 3 view .LVU45
 174              	.LVL11:
 175              	.L8:
 176              		.loc 1 336 44 view .LVU46
 177              		.loc 1 336 10 is_stmt 0 view .LVU47
 178 00b8 364B     		ldr	r3, .L30+4
ARM GAS  C:\Users\sapph\AppData\Local\Temp\ccD3KfzI.s 			page 10


 179 00ba 1B68     		ldr	r3, [r3]
 180              		.loc 1 336 44 view .LVU48
 181 00bc 13F0007F 		tst	r3, #33554432
 182 00c0 06D0     		beq	.L27
 337:Drivers/STM32H5xx_HAL_Driver/Src/stm32h5xx_hal_rcc.c ****   {
 338:Drivers/STM32H5xx_HAL_Driver/Src/stm32h5xx_hal_rcc.c ****     if ((HAL_GetTick() - tickstart) > RCC_PLL_TIMEOUT_VALUE)
 183              		.loc 1 338 5 is_stmt 1 view .LVU49
 184              		.loc 1 338 10 is_stmt 0 view .LVU50
 185 00c2 FFF7FEFF 		bl	HAL_GetTick
 186              	.LVL12:
 187              		.loc 1 338 24 discriminator 1 view .LVU51
 188 00c6 001B     		subs	r0, r0, r4
 189              		.loc 1 338 8 discriminator 1 view .LVU52
 190 00c8 0228     		cmp	r0, #2
 191 00ca F5D9     		bls	.L8
 339:Drivers/STM32H5xx_HAL_Driver/Src/stm32h5xx_hal_rcc.c ****     {
 340:Drivers/STM32H5xx_HAL_Driver/Src/stm32h5xx_hal_rcc.c ****       return HAL_TIMEOUT;
 192              		.loc 1 340 14 view .LVU53
 193 00cc 0320     		movs	r0, #3
 194 00ce 5CE0     		b	.L3
 195              	.L27:
 341:Drivers/STM32H5xx_HAL_Driver/Src/stm32h5xx_hal_rcc.c ****     }
 342:Drivers/STM32H5xx_HAL_Driver/Src/stm32h5xx_hal_rcc.c ****   }
 343:Drivers/STM32H5xx_HAL_Driver/Src/stm32h5xx_hal_rcc.c **** 
 344:Drivers/STM32H5xx_HAL_Driver/Src/stm32h5xx_hal_rcc.c ****   /* Get Start Tick */
 345:Drivers/STM32H5xx_HAL_Driver/Src/stm32h5xx_hal_rcc.c ****   tickstart = HAL_GetTick();
 196              		.loc 1 345 3 is_stmt 1 view .LVU54
 197              		.loc 1 345 15 is_stmt 0 view .LVU55
 198 00d0 FFF7FEFF 		bl	HAL_GetTick
 199              	.LVL13:
 200 00d4 0446     		mov	r4, r0
 201              	.LVL14:
 346:Drivers/STM32H5xx_HAL_Driver/Src/stm32h5xx_hal_rcc.c **** 
 347:Drivers/STM32H5xx_HAL_Driver/Src/stm32h5xx_hal_rcc.c ****   /* Reset PLL2N bit */
 348:Drivers/STM32H5xx_HAL_Driver/Src/stm32h5xx_hal_rcc.c ****   CLEAR_BIT(RCC->CR, RCC_CR_PLL2ON);
 202              		.loc 1 348 3 is_stmt 1 view .LVU56
 203 00d6 2F4A     		ldr	r2, .L30+4
 204 00d8 1368     		ldr	r3, [r2]
 205 00da 23F08063 		bic	r3, r3, #67108864
 206 00de 1360     		str	r3, [r2]
 349:Drivers/STM32H5xx_HAL_Driver/Src/stm32h5xx_hal_rcc.c **** 
 350:Drivers/STM32H5xx_HAL_Driver/Src/stm32h5xx_hal_rcc.c ****   /* Wait till PLL2 is disabled */
 351:Drivers/STM32H5xx_HAL_Driver/Src/stm32h5xx_hal_rcc.c ****   while (READ_BIT(RCC->CR, RCC_CR_PLL2RDY) != 0U)
 207              		.loc 1 351 3 view .LVU57
 208              	.LVL15:
 209              	.L10:
 210              		.loc 1 351 44 view .LVU58
 211              		.loc 1 351 10 is_stmt 0 view .LVU59
 212 00e0 2C4B     		ldr	r3, .L30+4
 213 00e2 1B68     		ldr	r3, [r3]
 214              		.loc 1 351 44 view .LVU60
 215 00e4 13F0006F 		tst	r3, #134217728
 216 00e8 06D0     		beq	.L28
 352:Drivers/STM32H5xx_HAL_Driver/Src/stm32h5xx_hal_rcc.c ****   {
 353:Drivers/STM32H5xx_HAL_Driver/Src/stm32h5xx_hal_rcc.c ****     if ((HAL_GetTick() - tickstart) > RCC_PLL_TIMEOUT_VALUE)
 217              		.loc 1 353 5 is_stmt 1 view .LVU61
 218              		.loc 1 353 10 is_stmt 0 view .LVU62
ARM GAS  C:\Users\sapph\AppData\Local\Temp\ccD3KfzI.s 			page 11


 219 00ea FFF7FEFF 		bl	HAL_GetTick
 220              	.LVL16:
 221              		.loc 1 353 24 discriminator 1 view .LVU63
 222 00ee 001B     		subs	r0, r0, r4
 223              		.loc 1 353 8 discriminator 1 view .LVU64
 224 00f0 0228     		cmp	r0, #2
 225 00f2 F5D9     		bls	.L10
 354:Drivers/STM32H5xx_HAL_Driver/Src/stm32h5xx_hal_rcc.c ****     {
 355:Drivers/STM32H5xx_HAL_Driver/Src/stm32h5xx_hal_rcc.c ****       return HAL_TIMEOUT;
 226              		.loc 1 355 14 view .LVU65
 227 00f4 0320     		movs	r0, #3
 228 00f6 48E0     		b	.L3
 229              	.L28:
 356:Drivers/STM32H5xx_HAL_Driver/Src/stm32h5xx_hal_rcc.c ****     }
 357:Drivers/STM32H5xx_HAL_Driver/Src/stm32h5xx_hal_rcc.c ****   }
 358:Drivers/STM32H5xx_HAL_Driver/Src/stm32h5xx_hal_rcc.c **** 
 359:Drivers/STM32H5xx_HAL_Driver/Src/stm32h5xx_hal_rcc.c **** #if defined(RCC_CR_PLL3ON)
 360:Drivers/STM32H5xx_HAL_Driver/Src/stm32h5xx_hal_rcc.c **** 
 361:Drivers/STM32H5xx_HAL_Driver/Src/stm32h5xx_hal_rcc.c ****   /* Get Start Tick */
 362:Drivers/STM32H5xx_HAL_Driver/Src/stm32h5xx_hal_rcc.c ****   tickstart = HAL_GetTick();
 230              		.loc 1 362 3 is_stmt 1 view .LVU66
 231              		.loc 1 362 15 is_stmt 0 view .LVU67
 232 00f8 FFF7FEFF 		bl	HAL_GetTick
 233              	.LVL17:
 234 00fc 0446     		mov	r4, r0
 235              	.LVL18:
 363:Drivers/STM32H5xx_HAL_Driver/Src/stm32h5xx_hal_rcc.c **** 
 364:Drivers/STM32H5xx_HAL_Driver/Src/stm32h5xx_hal_rcc.c ****   /* Reset PLL3 bit */
 365:Drivers/STM32H5xx_HAL_Driver/Src/stm32h5xx_hal_rcc.c ****   CLEAR_BIT(RCC->CR, RCC_CR_PLL3ON);
 236              		.loc 1 365 3 is_stmt 1 view .LVU68
 237 00fe 254A     		ldr	r2, .L30+4
 238 0100 1368     		ldr	r3, [r2]
 239 0102 23F08053 		bic	r3, r3, #268435456
 240 0106 1360     		str	r3, [r2]
 366:Drivers/STM32H5xx_HAL_Driver/Src/stm32h5xx_hal_rcc.c **** 
 367:Drivers/STM32H5xx_HAL_Driver/Src/stm32h5xx_hal_rcc.c ****   /* Wait till PLL3 is disabled */
 368:Drivers/STM32H5xx_HAL_Driver/Src/stm32h5xx_hal_rcc.c ****   while (READ_BIT(RCC->CR, RCC_CR_PLL3RDY) != 0U)
 241              		.loc 1 368 3 view .LVU69
 242              	.LVL19:
 243              	.L12:
 244              		.loc 1 368 44 view .LVU70
 245              		.loc 1 368 10 is_stmt 0 view .LVU71
 246 0108 224B     		ldr	r3, .L30+4
 247 010a 1B68     		ldr	r3, [r3]
 248              		.loc 1 368 44 view .LVU72
 249 010c 13F0005F 		tst	r3, #536870912
 250 0110 06D0     		beq	.L29
 369:Drivers/STM32H5xx_HAL_Driver/Src/stm32h5xx_hal_rcc.c ****   {
 370:Drivers/STM32H5xx_HAL_Driver/Src/stm32h5xx_hal_rcc.c ****     if ((HAL_GetTick() - tickstart) > RCC_PLL_TIMEOUT_VALUE)
 251              		.loc 1 370 5 is_stmt 1 view .LVU73
 252              		.loc 1 370 10 is_stmt 0 view .LVU74
 253 0112 FFF7FEFF 		bl	HAL_GetTick
 254              	.LVL20:
 255              		.loc 1 370 24 discriminator 1 view .LVU75
 256 0116 001B     		subs	r0, r0, r4
 257              		.loc 1 370 8 discriminator 1 view .LVU76
 258 0118 0228     		cmp	r0, #2
ARM GAS  C:\Users\sapph\AppData\Local\Temp\ccD3KfzI.s 			page 12


 259 011a F5D9     		bls	.L12
 371:Drivers/STM32H5xx_HAL_Driver/Src/stm32h5xx_hal_rcc.c ****     {
 372:Drivers/STM32H5xx_HAL_Driver/Src/stm32h5xx_hal_rcc.c ****       return HAL_TIMEOUT;
 260              		.loc 1 372 14 view .LVU77
 261 011c 0320     		movs	r0, #3
 262 011e 34E0     		b	.L3
 263              	.L29:
 373:Drivers/STM32H5xx_HAL_Driver/Src/stm32h5xx_hal_rcc.c ****     }
 374:Drivers/STM32H5xx_HAL_Driver/Src/stm32h5xx_hal_rcc.c ****   }
 375:Drivers/STM32H5xx_HAL_Driver/Src/stm32h5xx_hal_rcc.c **** #endif /* RCC_CR_PLL3ON */
 376:Drivers/STM32H5xx_HAL_Driver/Src/stm32h5xx_hal_rcc.c **** 
 377:Drivers/STM32H5xx_HAL_Driver/Src/stm32h5xx_hal_rcc.c ****   /* Reset PLL1CFGR register */
 378:Drivers/STM32H5xx_HAL_Driver/Src/stm32h5xx_hal_rcc.c ****   CLEAR_REG(RCC->PLL1CFGR);
 264              		.loc 1 378 3 is_stmt 1 view .LVU78
 265 0120 1C4B     		ldr	r3, .L30+4
 266 0122 0022     		movs	r2, #0
 267 0124 9A62     		str	r2, [r3, #40]
 379:Drivers/STM32H5xx_HAL_Driver/Src/stm32h5xx_hal_rcc.c **** 
 380:Drivers/STM32H5xx_HAL_Driver/Src/stm32h5xx_hal_rcc.c ****   /* Reset PLL1DIVR register */
 381:Drivers/STM32H5xx_HAL_Driver/Src/stm32h5xx_hal_rcc.c ****   WRITE_REG(RCC->PLL1DIVR, 0x01010280U);
 268              		.loc 1 381 3 view .LVU79
 269 0126 1E49     		ldr	r1, .L30+16
 270 0128 5963     		str	r1, [r3, #52]
 382:Drivers/STM32H5xx_HAL_Driver/Src/stm32h5xx_hal_rcc.c **** 
 383:Drivers/STM32H5xx_HAL_Driver/Src/stm32h5xx_hal_rcc.c ****   /* Reset PLL1FRACR register */
 384:Drivers/STM32H5xx_HAL_Driver/Src/stm32h5xx_hal_rcc.c ****   CLEAR_REG(RCC->PLL1FRACR);
 271              		.loc 1 384 3 view .LVU80
 272 012a 9A63     		str	r2, [r3, #56]
 385:Drivers/STM32H5xx_HAL_Driver/Src/stm32h5xx_hal_rcc.c **** 
 386:Drivers/STM32H5xx_HAL_Driver/Src/stm32h5xx_hal_rcc.c ****   /* Reset PLL2CFGR register */
 387:Drivers/STM32H5xx_HAL_Driver/Src/stm32h5xx_hal_rcc.c ****   CLEAR_REG(RCC->PLL2CFGR);
 273              		.loc 1 387 3 view .LVU81
 274 012c DA62     		str	r2, [r3, #44]
 388:Drivers/STM32H5xx_HAL_Driver/Src/stm32h5xx_hal_rcc.c **** 
 389:Drivers/STM32H5xx_HAL_Driver/Src/stm32h5xx_hal_rcc.c ****   /* Reset PLL2DIVR register */
 390:Drivers/STM32H5xx_HAL_Driver/Src/stm32h5xx_hal_rcc.c ****   WRITE_REG(RCC->PLL2DIVR, 0x01010280U);
 275              		.loc 1 390 3 view .LVU82
 276 012e D963     		str	r1, [r3, #60]
 391:Drivers/STM32H5xx_HAL_Driver/Src/stm32h5xx_hal_rcc.c **** 
 392:Drivers/STM32H5xx_HAL_Driver/Src/stm32h5xx_hal_rcc.c ****   /* Reset PLL2FRACR register */
 393:Drivers/STM32H5xx_HAL_Driver/Src/stm32h5xx_hal_rcc.c ****   CLEAR_REG(RCC->PLL2FRACR);
 277              		.loc 1 393 3 view .LVU83
 278 0130 1A64     		str	r2, [r3, #64]
 394:Drivers/STM32H5xx_HAL_Driver/Src/stm32h5xx_hal_rcc.c **** 
 395:Drivers/STM32H5xx_HAL_Driver/Src/stm32h5xx_hal_rcc.c **** #if defined(RCC_CR_PLL3ON)
 396:Drivers/STM32H5xx_HAL_Driver/Src/stm32h5xx_hal_rcc.c ****   /* Reset PLL3CFGR register */
 397:Drivers/STM32H5xx_HAL_Driver/Src/stm32h5xx_hal_rcc.c ****   CLEAR_REG(RCC->PLL3CFGR);
 279              		.loc 1 397 3 view .LVU84
 280 0132 1A63     		str	r2, [r3, #48]
 398:Drivers/STM32H5xx_HAL_Driver/Src/stm32h5xx_hal_rcc.c **** 
 399:Drivers/STM32H5xx_HAL_Driver/Src/stm32h5xx_hal_rcc.c ****   /* Reset PLL3DIVR register */
 400:Drivers/STM32H5xx_HAL_Driver/Src/stm32h5xx_hal_rcc.c ****   WRITE_REG(RCC->PLL3DIVR, 0x01010280U);
 281              		.loc 1 400 3 view .LVU85
 282 0134 5964     		str	r1, [r3, #68]
 401:Drivers/STM32H5xx_HAL_Driver/Src/stm32h5xx_hal_rcc.c **** 
 402:Drivers/STM32H5xx_HAL_Driver/Src/stm32h5xx_hal_rcc.c ****   /* Reset PLL3FRACR register */
 403:Drivers/STM32H5xx_HAL_Driver/Src/stm32h5xx_hal_rcc.c ****   CLEAR_REG(RCC->PLL3FRACR);
ARM GAS  C:\Users\sapph\AppData\Local\Temp\ccD3KfzI.s 			page 13


 283              		.loc 1 403 3 view .LVU86
 284 0136 9A64     		str	r2, [r3, #72]
 404:Drivers/STM32H5xx_HAL_Driver/Src/stm32h5xx_hal_rcc.c **** #endif /* RCC_CR_PLL3ON */
 405:Drivers/STM32H5xx_HAL_Driver/Src/stm32h5xx_hal_rcc.c **** 
 406:Drivers/STM32H5xx_HAL_Driver/Src/stm32h5xx_hal_rcc.c ****   /* Reset HSEBYP bit */
 407:Drivers/STM32H5xx_HAL_Driver/Src/stm32h5xx_hal_rcc.c ****   CLEAR_BIT(RCC->CR, RCC_CR_HSEBYP);
 285              		.loc 1 407 3 view .LVU87
 286 0138 1968     		ldr	r1, [r3]
 287 013a 21F48021 		bic	r1, r1, #262144
 288 013e 1960     		str	r1, [r3]
 408:Drivers/STM32H5xx_HAL_Driver/Src/stm32h5xx_hal_rcc.c **** 
 409:Drivers/STM32H5xx_HAL_Driver/Src/stm32h5xx_hal_rcc.c ****   /* Disable all interrupts */
 410:Drivers/STM32H5xx_HAL_Driver/Src/stm32h5xx_hal_rcc.c ****   CLEAR_REG(RCC->CIER);
 289              		.loc 1 410 3 view .LVU88
 290 0140 1A65     		str	r2, [r3, #80]
 411:Drivers/STM32H5xx_HAL_Driver/Src/stm32h5xx_hal_rcc.c **** 
 412:Drivers/STM32H5xx_HAL_Driver/Src/stm32h5xx_hal_rcc.c ****   /* Clear all interrupts flags */
 413:Drivers/STM32H5xx_HAL_Driver/Src/stm32h5xx_hal_rcc.c ****   WRITE_REG(RCC->CICR, 0xFFFFFFFFU);
 291              		.loc 1 413 3 view .LVU89
 292 0142 4FF0FF32 		mov	r2, #-1
 293 0146 9A65     		str	r2, [r3, #88]
 414:Drivers/STM32H5xx_HAL_Driver/Src/stm32h5xx_hal_rcc.c **** 
 415:Drivers/STM32H5xx_HAL_Driver/Src/stm32h5xx_hal_rcc.c ****   /* Reset all RSR flags */
 416:Drivers/STM32H5xx_HAL_Driver/Src/stm32h5xx_hal_rcc.c ****   SET_BIT(RCC->RSR, RCC_RSR_RMVF);
 294              		.loc 1 416 3 view .LVU90
 295 0148 D3F8F420 		ldr	r2, [r3, #244]
 296 014c 42F40002 		orr	r2, r2, #8388608
 297 0150 C3F8F420 		str	r2, [r3, #244]
 417:Drivers/STM32H5xx_HAL_Driver/Src/stm32h5xx_hal_rcc.c **** 
 418:Drivers/STM32H5xx_HAL_Driver/Src/stm32h5xx_hal_rcc.c ****   /* Update the SystemCoreClock global variable */
 419:Drivers/STM32H5xx_HAL_Driver/Src/stm32h5xx_hal_rcc.c ****   SystemCoreClock = HSI_VALUE;
 298              		.loc 1 419 3 view .LVU91
 299              		.loc 1 419 19 is_stmt 0 view .LVU92
 300 0154 134B     		ldr	r3, .L30+20
 301 0156 144A     		ldr	r2, .L30+24
 302 0158 1A60     		str	r2, [r3]
 420:Drivers/STM32H5xx_HAL_Driver/Src/stm32h5xx_hal_rcc.c **** 
 421:Drivers/STM32H5xx_HAL_Driver/Src/stm32h5xx_hal_rcc.c ****   /* Decreasing the number of wait states because of lower CPU frequency */
 422:Drivers/STM32H5xx_HAL_Driver/Src/stm32h5xx_hal_rcc.c ****   if (FLASH_LATENCY_DEFAULT  < __HAL_FLASH_GET_LATENCY())
 303              		.loc 1 422 3 is_stmt 1 view .LVU93
 304              		.loc 1 422 32 is_stmt 0 view .LVU94
 305 015a 0D4B     		ldr	r3, .L30
 306 015c 1B68     		ldr	r3, [r3]
 307              		.loc 1 422 6 view .LVU95
 308 015e 13F00C0F 		tst	r3, #12
 309 0162 0BD0     		beq	.L14
 423:Drivers/STM32H5xx_HAL_Driver/Src/stm32h5xx_hal_rcc.c ****   {
 424:Drivers/STM32H5xx_HAL_Driver/Src/stm32h5xx_hal_rcc.c ****     /* Program the new number of wait states to the LATENCY bits in the FLASH_ACR register */
 425:Drivers/STM32H5xx_HAL_Driver/Src/stm32h5xx_hal_rcc.c ****     __HAL_FLASH_SET_LATENCY(FLASH_LATENCY_DEFAULT);
 310              		.loc 1 425 5 is_stmt 1 view .LVU96
 311 0164 0A4A     		ldr	r2, .L30
 312 0166 1368     		ldr	r3, [r2]
 313 0168 23F00F03 		bic	r3, r3, #15
 314 016c 43F00303 		orr	r3, r3, #3
 315 0170 1360     		str	r3, [r2]
 426:Drivers/STM32H5xx_HAL_Driver/Src/stm32h5xx_hal_rcc.c **** 
 427:Drivers/STM32H5xx_HAL_Driver/Src/stm32h5xx_hal_rcc.c ****     /* Check that the new number of wait states is taken into account to access the Flash
ARM GAS  C:\Users\sapph\AppData\Local\Temp\ccD3KfzI.s 			page 14


 428:Drivers/STM32H5xx_HAL_Driver/Src/stm32h5xx_hal_rcc.c ****     memory by reading the FLASH_ACR register */
 429:Drivers/STM32H5xx_HAL_Driver/Src/stm32h5xx_hal_rcc.c ****     if (__HAL_FLASH_GET_LATENCY() != FLASH_LATENCY_DEFAULT)
 316              		.loc 1 429 5 view .LVU97
 317              		.loc 1 429 9 is_stmt 0 view .LVU98
 318 0172 1368     		ldr	r3, [r2]
 319 0174 03F00F03 		and	r3, r3, #15
 320              		.loc 1 429 8 view .LVU99
 321 0178 032B     		cmp	r3, #3
 322 017a 07D1     		bne	.L22
 323              	.L14:
 430:Drivers/STM32H5xx_HAL_Driver/Src/stm32h5xx_hal_rcc.c ****     {
 431:Drivers/STM32H5xx_HAL_Driver/Src/stm32h5xx_hal_rcc.c ****       return HAL_ERROR;
 432:Drivers/STM32H5xx_HAL_Driver/Src/stm32h5xx_hal_rcc.c ****     }
 433:Drivers/STM32H5xx_HAL_Driver/Src/stm32h5xx_hal_rcc.c ****   }
 434:Drivers/STM32H5xx_HAL_Driver/Src/stm32h5xx_hal_rcc.c **** 
 435:Drivers/STM32H5xx_HAL_Driver/Src/stm32h5xx_hal_rcc.c ****   /* Adapt Systick interrupt period */
 436:Drivers/STM32H5xx_HAL_Driver/Src/stm32h5xx_hal_rcc.c ****   if (HAL_InitTick(TICK_INT_PRIORITY) != HAL_OK)
 324              		.loc 1 436 3 is_stmt 1 view .LVU100
 325              		.loc 1 436 7 is_stmt 0 view .LVU101
 326 017c 0F20     		movs	r0, #15
 327 017e FFF7FEFF 		bl	HAL_InitTick
 328              	.LVL21:
 329              		.loc 1 436 6 discriminator 1 view .LVU102
 330 0182 10B1     		cbz	r0, .L3
 437:Drivers/STM32H5xx_HAL_Driver/Src/stm32h5xx_hal_rcc.c ****   {
 438:Drivers/STM32H5xx_HAL_Driver/Src/stm32h5xx_hal_rcc.c ****     return HAL_ERROR;
 331              		.loc 1 438 12 view .LVU103
 332 0184 0120     		movs	r0, #1
 333 0186 00E0     		b	.L3
 334              	.LVL22:
 335              	.L15:
 273:Drivers/STM32H5xx_HAL_Driver/Src/stm32h5xx_hal_rcc.c ****     }
 336              		.loc 1 273 14 view .LVU104
 337 0188 0120     		movs	r0, #1
 338              	.L3:
 439:Drivers/STM32H5xx_HAL_Driver/Src/stm32h5xx_hal_rcc.c ****   }
 440:Drivers/STM32H5xx_HAL_Driver/Src/stm32h5xx_hal_rcc.c ****   else
 441:Drivers/STM32H5xx_HAL_Driver/Src/stm32h5xx_hal_rcc.c ****   {
 442:Drivers/STM32H5xx_HAL_Driver/Src/stm32h5xx_hal_rcc.c ****     return HAL_OK;
 443:Drivers/STM32H5xx_HAL_Driver/Src/stm32h5xx_hal_rcc.c ****   }
 444:Drivers/STM32H5xx_HAL_Driver/Src/stm32h5xx_hal_rcc.c **** }
 339              		.loc 1 444 1 view .LVU105
 340 018a 38BD     		pop	{r3, r4, r5, pc}
 341              	.LVL23:
 342              	.L22:
 431:Drivers/STM32H5xx_HAL_Driver/Src/stm32h5xx_hal_rcc.c ****     }
 343              		.loc 1 431 14 view .LVU106
 344 018c 0120     		movs	r0, #1
 345 018e FCE7     		b	.L3
 346              	.L31:
 347              		.align	2
 348              	.L30:
 349 0190 00200240 		.word	1073881088
 350 0194 000C0244 		.word	1140984832
 351 0198 00000000 		.word	uwTickPrio
 352 019c FBEAF6FF 		.word	-595205
 353 01a0 80020101 		.word	16843392
ARM GAS  C:\Users\sapph\AppData\Local\Temp\ccD3KfzI.s 			page 15


 354 01a4 00000000 		.word	SystemCoreClock
 355 01a8 0090D003 		.word	64000000
 356              		.cfi_endproc
 357              	.LFE160:
 359              		.section	.text.HAL_RCC_MCOConfig,"ax",%progbits
 360              		.align	1
 361              		.global	HAL_RCC_MCOConfig
 362              		.syntax unified
 363              		.thumb
 364              		.thumb_func
 366              	HAL_RCC_MCOConfig:
 367              	.LVL24:
 368              	.LFB163:
 445:Drivers/STM32H5xx_HAL_Driver/Src/stm32h5xx_hal_rcc.c **** 
 446:Drivers/STM32H5xx_HAL_Driver/Src/stm32h5xx_hal_rcc.c **** /**
 447:Drivers/STM32H5xx_HAL_Driver/Src/stm32h5xx_hal_rcc.c ****   * @brief  Initialize the RCC Oscillators according to the specified parameters in the
 448:Drivers/STM32H5xx_HAL_Driver/Src/stm32h5xx_hal_rcc.c ****   *         RCC_OscInitTypeDef.
 449:Drivers/STM32H5xx_HAL_Driver/Src/stm32h5xx_hal_rcc.c ****   * @param  pOscInitStruct pointer to an RCC_OscInitTypeDef structure that
 450:Drivers/STM32H5xx_HAL_Driver/Src/stm32h5xx_hal_rcc.c ****   *         contains the configuration information for the RCC Oscillators.
 451:Drivers/STM32H5xx_HAL_Driver/Src/stm32h5xx_hal_rcc.c ****   * @note   The PLL is not disabled when used as system clock.
 452:Drivers/STM32H5xx_HAL_Driver/Src/stm32h5xx_hal_rcc.c ****   * @note   Transitions LSE Bypass to LSE On and LSE On to LSE Bypass are not
 453:Drivers/STM32H5xx_HAL_Driver/Src/stm32h5xx_hal_rcc.c ****   *         supported by this macro. User should request a transition to LSE Off
 454:Drivers/STM32H5xx_HAL_Driver/Src/stm32h5xx_hal_rcc.c ****   *         first and then LSE On or LSE Bypass.
 455:Drivers/STM32H5xx_HAL_Driver/Src/stm32h5xx_hal_rcc.c ****   * @note   Transition HSE Bypass to HSE On and HSE On to HSE Bypass are not
 456:Drivers/STM32H5xx_HAL_Driver/Src/stm32h5xx_hal_rcc.c ****   *         supported by this macro. User should request a transition to HSE Off
 457:Drivers/STM32H5xx_HAL_Driver/Src/stm32h5xx_hal_rcc.c ****   *         first and then HSE On or HSE Bypass.
 458:Drivers/STM32H5xx_HAL_Driver/Src/stm32h5xx_hal_rcc.c ****   * @retval HAL status
 459:Drivers/STM32H5xx_HAL_Driver/Src/stm32h5xx_hal_rcc.c ****   */
 460:Drivers/STM32H5xx_HAL_Driver/Src/stm32h5xx_hal_rcc.c **** HAL_StatusTypeDef HAL_RCC_OscConfig(const RCC_OscInitTypeDef  *pOscInitStruct)
 461:Drivers/STM32H5xx_HAL_Driver/Src/stm32h5xx_hal_rcc.c **** {
 462:Drivers/STM32H5xx_HAL_Driver/Src/stm32h5xx_hal_rcc.c ****   uint32_t tickstart;
 463:Drivers/STM32H5xx_HAL_Driver/Src/stm32h5xx_hal_rcc.c ****   uint32_t temp_sysclksrc;
 464:Drivers/STM32H5xx_HAL_Driver/Src/stm32h5xx_hal_rcc.c ****   uint32_t temp_pllckselr;
 465:Drivers/STM32H5xx_HAL_Driver/Src/stm32h5xx_hal_rcc.c ****   uint32_t temp1_pllckcfg;
 466:Drivers/STM32H5xx_HAL_Driver/Src/stm32h5xx_hal_rcc.c ****   uint32_t temp2_pllckcfg;
 467:Drivers/STM32H5xx_HAL_Driver/Src/stm32h5xx_hal_rcc.c **** 
 468:Drivers/STM32H5xx_HAL_Driver/Src/stm32h5xx_hal_rcc.c ****   /* Check Null pointer */
 469:Drivers/STM32H5xx_HAL_Driver/Src/stm32h5xx_hal_rcc.c ****   if (pOscInitStruct == NULL)
 470:Drivers/STM32H5xx_HAL_Driver/Src/stm32h5xx_hal_rcc.c ****   {
 471:Drivers/STM32H5xx_HAL_Driver/Src/stm32h5xx_hal_rcc.c ****     return HAL_ERROR;
 472:Drivers/STM32H5xx_HAL_Driver/Src/stm32h5xx_hal_rcc.c ****   }
 473:Drivers/STM32H5xx_HAL_Driver/Src/stm32h5xx_hal_rcc.c **** 
 474:Drivers/STM32H5xx_HAL_Driver/Src/stm32h5xx_hal_rcc.c ****   /* Check the parameters */
 475:Drivers/STM32H5xx_HAL_Driver/Src/stm32h5xx_hal_rcc.c ****   assert_param(IS_RCC_OSCILLATORTYPE(pOscInitStruct->OscillatorType));
 476:Drivers/STM32H5xx_HAL_Driver/Src/stm32h5xx_hal_rcc.c ****   temp_sysclksrc = __HAL_RCC_GET_SYSCLK_SOURCE();
 477:Drivers/STM32H5xx_HAL_Driver/Src/stm32h5xx_hal_rcc.c ****   temp_pllckselr = __HAL_RCC_GET_PLL1_OSCSOURCE();
 478:Drivers/STM32H5xx_HAL_Driver/Src/stm32h5xx_hal_rcc.c **** 
 479:Drivers/STM32H5xx_HAL_Driver/Src/stm32h5xx_hal_rcc.c ****   /*----------------------------- CSI Configuration --------------------------*/
 480:Drivers/STM32H5xx_HAL_Driver/Src/stm32h5xx_hal_rcc.c ****   if (((pOscInitStruct->OscillatorType) & RCC_OSCILLATORTYPE_CSI) == RCC_OSCILLATORTYPE_CSI)
 481:Drivers/STM32H5xx_HAL_Driver/Src/stm32h5xx_hal_rcc.c ****   {
 482:Drivers/STM32H5xx_HAL_Driver/Src/stm32h5xx_hal_rcc.c ****     /* Check the parameters */
 483:Drivers/STM32H5xx_HAL_Driver/Src/stm32h5xx_hal_rcc.c ****     assert_param(IS_RCC_CSI(pOscInitStruct->CSIState));
 484:Drivers/STM32H5xx_HAL_Driver/Src/stm32h5xx_hal_rcc.c ****     assert_param(IS_RCC_CSICALIBRATION_VALUE(pOscInitStruct->CSICalibrationValue));
 485:Drivers/STM32H5xx_HAL_Driver/Src/stm32h5xx_hal_rcc.c **** 
 486:Drivers/STM32H5xx_HAL_Driver/Src/stm32h5xx_hal_rcc.c ****     /* When the CSI is used as system clock it will not be disabled */
 487:Drivers/STM32H5xx_HAL_Driver/Src/stm32h5xx_hal_rcc.c ****     if ((temp_sysclksrc == RCC_SYSCLKSOURCE_STATUS_CSI) ||
 488:Drivers/STM32H5xx_HAL_Driver/Src/stm32h5xx_hal_rcc.c ****         ((temp_sysclksrc == RCC_SYSCLKSOURCE_STATUS_PLLCLK) && (temp_pllckselr == RCC_PLL1_SOURCE_C
ARM GAS  C:\Users\sapph\AppData\Local\Temp\ccD3KfzI.s 			page 16


 489:Drivers/STM32H5xx_HAL_Driver/Src/stm32h5xx_hal_rcc.c ****     {
 490:Drivers/STM32H5xx_HAL_Driver/Src/stm32h5xx_hal_rcc.c ****       if (pOscInitStruct->CSIState == RCC_CSI_OFF)
 491:Drivers/STM32H5xx_HAL_Driver/Src/stm32h5xx_hal_rcc.c ****       {
 492:Drivers/STM32H5xx_HAL_Driver/Src/stm32h5xx_hal_rcc.c ****         return HAL_ERROR;
 493:Drivers/STM32H5xx_HAL_Driver/Src/stm32h5xx_hal_rcc.c ****       }
 494:Drivers/STM32H5xx_HAL_Driver/Src/stm32h5xx_hal_rcc.c **** 
 495:Drivers/STM32H5xx_HAL_Driver/Src/stm32h5xx_hal_rcc.c ****       /* Otherwise, just the calibration and CSI is allowed */
 496:Drivers/STM32H5xx_HAL_Driver/Src/stm32h5xx_hal_rcc.c ****       else
 497:Drivers/STM32H5xx_HAL_Driver/Src/stm32h5xx_hal_rcc.c ****       {
 498:Drivers/STM32H5xx_HAL_Driver/Src/stm32h5xx_hal_rcc.c ****         /* Adjusts the Internal Low-power oscillator (CSI) calibration value.*/
 499:Drivers/STM32H5xx_HAL_Driver/Src/stm32h5xx_hal_rcc.c ****         __HAL_RCC_CSI_CALIBRATIONVALUE_ADJUST(pOscInitStruct->CSICalibrationValue);
 500:Drivers/STM32H5xx_HAL_Driver/Src/stm32h5xx_hal_rcc.c ****       }
 501:Drivers/STM32H5xx_HAL_Driver/Src/stm32h5xx_hal_rcc.c ****     }
 502:Drivers/STM32H5xx_HAL_Driver/Src/stm32h5xx_hal_rcc.c ****     else
 503:Drivers/STM32H5xx_HAL_Driver/Src/stm32h5xx_hal_rcc.c ****     {
 504:Drivers/STM32H5xx_HAL_Driver/Src/stm32h5xx_hal_rcc.c ****       /* Check the CSI State */
 505:Drivers/STM32H5xx_HAL_Driver/Src/stm32h5xx_hal_rcc.c ****       if ((pOscInitStruct->CSIState) != RCC_CSI_OFF)
 506:Drivers/STM32H5xx_HAL_Driver/Src/stm32h5xx_hal_rcc.c ****       {
 507:Drivers/STM32H5xx_HAL_Driver/Src/stm32h5xx_hal_rcc.c ****         /* Enable the Internal High Speed oscillator (CSI). */
 508:Drivers/STM32H5xx_HAL_Driver/Src/stm32h5xx_hal_rcc.c ****         __HAL_RCC_CSI_ENABLE();
 509:Drivers/STM32H5xx_HAL_Driver/Src/stm32h5xx_hal_rcc.c **** 
 510:Drivers/STM32H5xx_HAL_Driver/Src/stm32h5xx_hal_rcc.c ****         /* Get Start Tick*/
 511:Drivers/STM32H5xx_HAL_Driver/Src/stm32h5xx_hal_rcc.c ****         tickstart = HAL_GetTick();
 512:Drivers/STM32H5xx_HAL_Driver/Src/stm32h5xx_hal_rcc.c **** 
 513:Drivers/STM32H5xx_HAL_Driver/Src/stm32h5xx_hal_rcc.c ****         /* Wait till CSI is ready */
 514:Drivers/STM32H5xx_HAL_Driver/Src/stm32h5xx_hal_rcc.c ****         while (READ_BIT(RCC->CR, RCC_CR_CSIRDY) == 0U)
 515:Drivers/STM32H5xx_HAL_Driver/Src/stm32h5xx_hal_rcc.c ****         {
 516:Drivers/STM32H5xx_HAL_Driver/Src/stm32h5xx_hal_rcc.c ****           if ((HAL_GetTick() - tickstart) > RCC_CSI_TIMEOUT_VALUE)
 517:Drivers/STM32H5xx_HAL_Driver/Src/stm32h5xx_hal_rcc.c ****           {
 518:Drivers/STM32H5xx_HAL_Driver/Src/stm32h5xx_hal_rcc.c ****             return HAL_TIMEOUT;
 519:Drivers/STM32H5xx_HAL_Driver/Src/stm32h5xx_hal_rcc.c ****           }
 520:Drivers/STM32H5xx_HAL_Driver/Src/stm32h5xx_hal_rcc.c ****         }
 521:Drivers/STM32H5xx_HAL_Driver/Src/stm32h5xx_hal_rcc.c **** 
 522:Drivers/STM32H5xx_HAL_Driver/Src/stm32h5xx_hal_rcc.c ****         /* Adjusts the Internal High Speed oscillator (CSI) calibration value.*/
 523:Drivers/STM32H5xx_HAL_Driver/Src/stm32h5xx_hal_rcc.c ****         __HAL_RCC_CSI_CALIBRATIONVALUE_ADJUST(pOscInitStruct->CSICalibrationValue);
 524:Drivers/STM32H5xx_HAL_Driver/Src/stm32h5xx_hal_rcc.c ****       }
 525:Drivers/STM32H5xx_HAL_Driver/Src/stm32h5xx_hal_rcc.c ****       else
 526:Drivers/STM32H5xx_HAL_Driver/Src/stm32h5xx_hal_rcc.c ****       {
 527:Drivers/STM32H5xx_HAL_Driver/Src/stm32h5xx_hal_rcc.c ****         /* Disable the Internal High Speed oscillator (CSI). */
 528:Drivers/STM32H5xx_HAL_Driver/Src/stm32h5xx_hal_rcc.c ****         __HAL_RCC_CSI_DISABLE();
 529:Drivers/STM32H5xx_HAL_Driver/Src/stm32h5xx_hal_rcc.c **** 
 530:Drivers/STM32H5xx_HAL_Driver/Src/stm32h5xx_hal_rcc.c ****         /* Get Start Tick*/
 531:Drivers/STM32H5xx_HAL_Driver/Src/stm32h5xx_hal_rcc.c ****         tickstart = HAL_GetTick();
 532:Drivers/STM32H5xx_HAL_Driver/Src/stm32h5xx_hal_rcc.c **** 
 533:Drivers/STM32H5xx_HAL_Driver/Src/stm32h5xx_hal_rcc.c ****         /* Wait till CSI is disabled */
 534:Drivers/STM32H5xx_HAL_Driver/Src/stm32h5xx_hal_rcc.c ****         while (READ_BIT(RCC->CR, RCC_CR_CSIRDY) != 0U)
 535:Drivers/STM32H5xx_HAL_Driver/Src/stm32h5xx_hal_rcc.c ****         {
 536:Drivers/STM32H5xx_HAL_Driver/Src/stm32h5xx_hal_rcc.c ****           if ((HAL_GetTick() - tickstart) > RCC_CSI_TIMEOUT_VALUE)
 537:Drivers/STM32H5xx_HAL_Driver/Src/stm32h5xx_hal_rcc.c ****           {
 538:Drivers/STM32H5xx_HAL_Driver/Src/stm32h5xx_hal_rcc.c ****             return HAL_TIMEOUT;
 539:Drivers/STM32H5xx_HAL_Driver/Src/stm32h5xx_hal_rcc.c ****           }
 540:Drivers/STM32H5xx_HAL_Driver/Src/stm32h5xx_hal_rcc.c ****         }
 541:Drivers/STM32H5xx_HAL_Driver/Src/stm32h5xx_hal_rcc.c ****       }
 542:Drivers/STM32H5xx_HAL_Driver/Src/stm32h5xx_hal_rcc.c ****     }
 543:Drivers/STM32H5xx_HAL_Driver/Src/stm32h5xx_hal_rcc.c ****   }
 544:Drivers/STM32H5xx_HAL_Driver/Src/stm32h5xx_hal_rcc.c ****   /*------------------------------- HSE Configuration ------------------------*/
 545:Drivers/STM32H5xx_HAL_Driver/Src/stm32h5xx_hal_rcc.c ****   if (((pOscInitStruct->OscillatorType) & RCC_OSCILLATORTYPE_HSE) == RCC_OSCILLATORTYPE_HSE)
ARM GAS  C:\Users\sapph\AppData\Local\Temp\ccD3KfzI.s 			page 17


 546:Drivers/STM32H5xx_HAL_Driver/Src/stm32h5xx_hal_rcc.c ****   {
 547:Drivers/STM32H5xx_HAL_Driver/Src/stm32h5xx_hal_rcc.c ****     /* Check the parameters */
 548:Drivers/STM32H5xx_HAL_Driver/Src/stm32h5xx_hal_rcc.c ****     assert_param(IS_RCC_HSE(pOscInitStruct->HSEState));
 549:Drivers/STM32H5xx_HAL_Driver/Src/stm32h5xx_hal_rcc.c **** 
 550:Drivers/STM32H5xx_HAL_Driver/Src/stm32h5xx_hal_rcc.c ****     /* When the HSE is used as system clock or clock source for PLL in these cases it is not allowe
 551:Drivers/STM32H5xx_HAL_Driver/Src/stm32h5xx_hal_rcc.c ****     if ((temp_sysclksrc == RCC_SYSCLKSOURCE_STATUS_HSE) ||
 552:Drivers/STM32H5xx_HAL_Driver/Src/stm32h5xx_hal_rcc.c ****         ((temp_sysclksrc == RCC_SYSCLKSOURCE_STATUS_PLLCLK) && (temp_pllckselr == RCC_PLL1_SOURCE_H
 553:Drivers/STM32H5xx_HAL_Driver/Src/stm32h5xx_hal_rcc.c ****     {
 554:Drivers/STM32H5xx_HAL_Driver/Src/stm32h5xx_hal_rcc.c ****       if (pOscInitStruct->HSEState == RCC_HSE_OFF)
 555:Drivers/STM32H5xx_HAL_Driver/Src/stm32h5xx_hal_rcc.c ****       {
 556:Drivers/STM32H5xx_HAL_Driver/Src/stm32h5xx_hal_rcc.c ****         return HAL_ERROR;
 557:Drivers/STM32H5xx_HAL_Driver/Src/stm32h5xx_hal_rcc.c ****       }
 558:Drivers/STM32H5xx_HAL_Driver/Src/stm32h5xx_hal_rcc.c ****     }
 559:Drivers/STM32H5xx_HAL_Driver/Src/stm32h5xx_hal_rcc.c ****     else
 560:Drivers/STM32H5xx_HAL_Driver/Src/stm32h5xx_hal_rcc.c ****     {
 561:Drivers/STM32H5xx_HAL_Driver/Src/stm32h5xx_hal_rcc.c ****       /* Set the new HSE configuration ---------------------------------------*/
 562:Drivers/STM32H5xx_HAL_Driver/Src/stm32h5xx_hal_rcc.c ****       __HAL_RCC_HSE_CONFIG(pOscInitStruct->HSEState);
 563:Drivers/STM32H5xx_HAL_Driver/Src/stm32h5xx_hal_rcc.c **** 
 564:Drivers/STM32H5xx_HAL_Driver/Src/stm32h5xx_hal_rcc.c ****       /* Check the HSE State */
 565:Drivers/STM32H5xx_HAL_Driver/Src/stm32h5xx_hal_rcc.c ****       if (pOscInitStruct->HSEState != RCC_HSE_OFF)
 566:Drivers/STM32H5xx_HAL_Driver/Src/stm32h5xx_hal_rcc.c ****       {
 567:Drivers/STM32H5xx_HAL_Driver/Src/stm32h5xx_hal_rcc.c ****         /* Get Start Tick*/
 568:Drivers/STM32H5xx_HAL_Driver/Src/stm32h5xx_hal_rcc.c ****         tickstart = HAL_GetTick();
 569:Drivers/STM32H5xx_HAL_Driver/Src/stm32h5xx_hal_rcc.c **** 
 570:Drivers/STM32H5xx_HAL_Driver/Src/stm32h5xx_hal_rcc.c ****         /* Wait till HSE is ready */
 571:Drivers/STM32H5xx_HAL_Driver/Src/stm32h5xx_hal_rcc.c ****         while (READ_BIT(RCC->CR, RCC_CR_HSERDY) == 0U)
 572:Drivers/STM32H5xx_HAL_Driver/Src/stm32h5xx_hal_rcc.c ****         {
 573:Drivers/STM32H5xx_HAL_Driver/Src/stm32h5xx_hal_rcc.c ****           if ((HAL_GetTick() - tickstart) > RCC_HSE_TIMEOUT_VALUE)
 574:Drivers/STM32H5xx_HAL_Driver/Src/stm32h5xx_hal_rcc.c ****           {
 575:Drivers/STM32H5xx_HAL_Driver/Src/stm32h5xx_hal_rcc.c ****             return HAL_TIMEOUT;
 576:Drivers/STM32H5xx_HAL_Driver/Src/stm32h5xx_hal_rcc.c ****           }
 577:Drivers/STM32H5xx_HAL_Driver/Src/stm32h5xx_hal_rcc.c ****         }
 578:Drivers/STM32H5xx_HAL_Driver/Src/stm32h5xx_hal_rcc.c ****       }
 579:Drivers/STM32H5xx_HAL_Driver/Src/stm32h5xx_hal_rcc.c ****       else
 580:Drivers/STM32H5xx_HAL_Driver/Src/stm32h5xx_hal_rcc.c ****       {
 581:Drivers/STM32H5xx_HAL_Driver/Src/stm32h5xx_hal_rcc.c ****         /* Get Start Tick*/
 582:Drivers/STM32H5xx_HAL_Driver/Src/stm32h5xx_hal_rcc.c ****         tickstart = HAL_GetTick();
 583:Drivers/STM32H5xx_HAL_Driver/Src/stm32h5xx_hal_rcc.c **** 
 584:Drivers/STM32H5xx_HAL_Driver/Src/stm32h5xx_hal_rcc.c ****         /* Wait till HSE is disabled */
 585:Drivers/STM32H5xx_HAL_Driver/Src/stm32h5xx_hal_rcc.c ****         while (READ_BIT(RCC->CR, RCC_CR_HSERDY) != 0U)
 586:Drivers/STM32H5xx_HAL_Driver/Src/stm32h5xx_hal_rcc.c ****         {
 587:Drivers/STM32H5xx_HAL_Driver/Src/stm32h5xx_hal_rcc.c ****           if ((HAL_GetTick() - tickstart) > RCC_HSE_TIMEOUT_VALUE)
 588:Drivers/STM32H5xx_HAL_Driver/Src/stm32h5xx_hal_rcc.c ****           {
 589:Drivers/STM32H5xx_HAL_Driver/Src/stm32h5xx_hal_rcc.c ****             return HAL_TIMEOUT;
 590:Drivers/STM32H5xx_HAL_Driver/Src/stm32h5xx_hal_rcc.c ****           }
 591:Drivers/STM32H5xx_HAL_Driver/Src/stm32h5xx_hal_rcc.c ****         }
 592:Drivers/STM32H5xx_HAL_Driver/Src/stm32h5xx_hal_rcc.c ****       }
 593:Drivers/STM32H5xx_HAL_Driver/Src/stm32h5xx_hal_rcc.c ****     }
 594:Drivers/STM32H5xx_HAL_Driver/Src/stm32h5xx_hal_rcc.c ****   }
 595:Drivers/STM32H5xx_HAL_Driver/Src/stm32h5xx_hal_rcc.c ****   /*----------------------------- HSI Configuration --------------------------*/
 596:Drivers/STM32H5xx_HAL_Driver/Src/stm32h5xx_hal_rcc.c ****   if (((pOscInitStruct->OscillatorType) & RCC_OSCILLATORTYPE_HSI) == RCC_OSCILLATORTYPE_HSI)
 597:Drivers/STM32H5xx_HAL_Driver/Src/stm32h5xx_hal_rcc.c ****   {
 598:Drivers/STM32H5xx_HAL_Driver/Src/stm32h5xx_hal_rcc.c ****     /* Check the parameters */
 599:Drivers/STM32H5xx_HAL_Driver/Src/stm32h5xx_hal_rcc.c ****     assert_param(IS_RCC_HSI(pOscInitStruct->HSIState));
 600:Drivers/STM32H5xx_HAL_Driver/Src/stm32h5xx_hal_rcc.c ****     assert_param(IS_RCC_HSIDIV(pOscInitStruct->HSIDiv));
 601:Drivers/STM32H5xx_HAL_Driver/Src/stm32h5xx_hal_rcc.c ****     assert_param(IS_RCC_HSI_CALIBRATION_VALUE(pOscInitStruct->HSICalibrationValue));
 602:Drivers/STM32H5xx_HAL_Driver/Src/stm32h5xx_hal_rcc.c **** 
ARM GAS  C:\Users\sapph\AppData\Local\Temp\ccD3KfzI.s 			page 18


 603:Drivers/STM32H5xx_HAL_Driver/Src/stm32h5xx_hal_rcc.c ****     /* Check if HSI is used as system clock or as PLL source when PLL is selected as system clock *
 604:Drivers/STM32H5xx_HAL_Driver/Src/stm32h5xx_hal_rcc.c ****     if ((temp_sysclksrc == RCC_SYSCLKSOURCE_STATUS_HSI) ||
 605:Drivers/STM32H5xx_HAL_Driver/Src/stm32h5xx_hal_rcc.c ****         ((temp_sysclksrc == RCC_SYSCLKSOURCE_STATUS_PLLCLK) && (temp_pllckselr == RCC_PLL1_SOURCE_H
 606:Drivers/STM32H5xx_HAL_Driver/Src/stm32h5xx_hal_rcc.c ****     {
 607:Drivers/STM32H5xx_HAL_Driver/Src/stm32h5xx_hal_rcc.c ****       /* When HSI is used as system clock it will not be disabled */
 608:Drivers/STM32H5xx_HAL_Driver/Src/stm32h5xx_hal_rcc.c ****       if (pOscInitStruct->HSIState == RCC_HSI_OFF)
 609:Drivers/STM32H5xx_HAL_Driver/Src/stm32h5xx_hal_rcc.c ****       {
 610:Drivers/STM32H5xx_HAL_Driver/Src/stm32h5xx_hal_rcc.c ****         return HAL_ERROR;
 611:Drivers/STM32H5xx_HAL_Driver/Src/stm32h5xx_hal_rcc.c ****       }
 612:Drivers/STM32H5xx_HAL_Driver/Src/stm32h5xx_hal_rcc.c ****       /* Otherwise, HSI calibration and division may be allowed */
 613:Drivers/STM32H5xx_HAL_Driver/Src/stm32h5xx_hal_rcc.c ****       else
 614:Drivers/STM32H5xx_HAL_Driver/Src/stm32h5xx_hal_rcc.c ****       {
 615:Drivers/STM32H5xx_HAL_Driver/Src/stm32h5xx_hal_rcc.c **** 
 616:Drivers/STM32H5xx_HAL_Driver/Src/stm32h5xx_hal_rcc.c ****         /* HSI division is allowed if HSI is used as system clock */
 617:Drivers/STM32H5xx_HAL_Driver/Src/stm32h5xx_hal_rcc.c ****         if (temp_sysclksrc == RCC_SYSCLKSOURCE_STATUS_HSI)
 618:Drivers/STM32H5xx_HAL_Driver/Src/stm32h5xx_hal_rcc.c ****         {
 619:Drivers/STM32H5xx_HAL_Driver/Src/stm32h5xx_hal_rcc.c ****           if (__HAL_RCC_GET_HSI_DIVIDER() != (pOscInitStruct->HSIDiv))
 620:Drivers/STM32H5xx_HAL_Driver/Src/stm32h5xx_hal_rcc.c ****           {
 621:Drivers/STM32H5xx_HAL_Driver/Src/stm32h5xx_hal_rcc.c ****             /* Adjust the HSI division factor */
 622:Drivers/STM32H5xx_HAL_Driver/Src/stm32h5xx_hal_rcc.c ****             __HAL_RCC_HSI_DIVIDER_CONFIG(pOscInitStruct->HSIDiv);
 623:Drivers/STM32H5xx_HAL_Driver/Src/stm32h5xx_hal_rcc.c **** 
 624:Drivers/STM32H5xx_HAL_Driver/Src/stm32h5xx_hal_rcc.c ****             /* Update the SystemCoreClock global variable with new HSI value  */
 625:Drivers/STM32H5xx_HAL_Driver/Src/stm32h5xx_hal_rcc.c ****             (void) HAL_RCC_GetHCLKFreq();
 626:Drivers/STM32H5xx_HAL_Driver/Src/stm32h5xx_hal_rcc.c **** 
 627:Drivers/STM32H5xx_HAL_Driver/Src/stm32h5xx_hal_rcc.c ****             /* Configure the source of time base considering new system clocks settings*/
 628:Drivers/STM32H5xx_HAL_Driver/Src/stm32h5xx_hal_rcc.c ****             if (HAL_InitTick(uwTickPrio) != HAL_OK)
 629:Drivers/STM32H5xx_HAL_Driver/Src/stm32h5xx_hal_rcc.c ****             {
 630:Drivers/STM32H5xx_HAL_Driver/Src/stm32h5xx_hal_rcc.c ****               return HAL_ERROR;
 631:Drivers/STM32H5xx_HAL_Driver/Src/stm32h5xx_hal_rcc.c ****             }
 632:Drivers/STM32H5xx_HAL_Driver/Src/stm32h5xx_hal_rcc.c ****           }
 633:Drivers/STM32H5xx_HAL_Driver/Src/stm32h5xx_hal_rcc.c ****         }
 634:Drivers/STM32H5xx_HAL_Driver/Src/stm32h5xx_hal_rcc.c **** 
 635:Drivers/STM32H5xx_HAL_Driver/Src/stm32h5xx_hal_rcc.c ****         /* Get Start Tick*/
 636:Drivers/STM32H5xx_HAL_Driver/Src/stm32h5xx_hal_rcc.c ****         tickstart = HAL_GetTick();
 637:Drivers/STM32H5xx_HAL_Driver/Src/stm32h5xx_hal_rcc.c **** 
 638:Drivers/STM32H5xx_HAL_Driver/Src/stm32h5xx_hal_rcc.c ****         /* Wait till HSI is ready */
 639:Drivers/STM32H5xx_HAL_Driver/Src/stm32h5xx_hal_rcc.c ****         while (READ_BIT(RCC->CR, RCC_CR_HSIRDY) == 0U)
 640:Drivers/STM32H5xx_HAL_Driver/Src/stm32h5xx_hal_rcc.c ****         {
 641:Drivers/STM32H5xx_HAL_Driver/Src/stm32h5xx_hal_rcc.c ****           if ((HAL_GetTick() - tickstart) > RCC_HSI_TIMEOUT_VALUE)
 642:Drivers/STM32H5xx_HAL_Driver/Src/stm32h5xx_hal_rcc.c ****           {
 643:Drivers/STM32H5xx_HAL_Driver/Src/stm32h5xx_hal_rcc.c ****             return HAL_TIMEOUT;
 644:Drivers/STM32H5xx_HAL_Driver/Src/stm32h5xx_hal_rcc.c ****           }
 645:Drivers/STM32H5xx_HAL_Driver/Src/stm32h5xx_hal_rcc.c ****         }
 646:Drivers/STM32H5xx_HAL_Driver/Src/stm32h5xx_hal_rcc.c ****         /* Adjusts the Internal High Speed oscillator (HSI) calibration value.*/
 647:Drivers/STM32H5xx_HAL_Driver/Src/stm32h5xx_hal_rcc.c ****         __HAL_RCC_HSI_CALIBRATIONVALUE_ADJUST(pOscInitStruct->HSICalibrationValue);
 648:Drivers/STM32H5xx_HAL_Driver/Src/stm32h5xx_hal_rcc.c ****       }
 649:Drivers/STM32H5xx_HAL_Driver/Src/stm32h5xx_hal_rcc.c ****     }
 650:Drivers/STM32H5xx_HAL_Driver/Src/stm32h5xx_hal_rcc.c ****     else
 651:Drivers/STM32H5xx_HAL_Driver/Src/stm32h5xx_hal_rcc.c ****     {
 652:Drivers/STM32H5xx_HAL_Driver/Src/stm32h5xx_hal_rcc.c ****       /* Check the HSI State */
 653:Drivers/STM32H5xx_HAL_Driver/Src/stm32h5xx_hal_rcc.c ****       if (pOscInitStruct->HSIState != RCC_HSI_OFF)
 654:Drivers/STM32H5xx_HAL_Driver/Src/stm32h5xx_hal_rcc.c ****       {
 655:Drivers/STM32H5xx_HAL_Driver/Src/stm32h5xx_hal_rcc.c ****         /* Adjust the HSI division factor */
 656:Drivers/STM32H5xx_HAL_Driver/Src/stm32h5xx_hal_rcc.c ****         __HAL_RCC_HSI_DIVIDER_CONFIG(pOscInitStruct->HSIDiv);
 657:Drivers/STM32H5xx_HAL_Driver/Src/stm32h5xx_hal_rcc.c **** 
 658:Drivers/STM32H5xx_HAL_Driver/Src/stm32h5xx_hal_rcc.c ****         /* Enable the HSI oscillator */
 659:Drivers/STM32H5xx_HAL_Driver/Src/stm32h5xx_hal_rcc.c ****         __HAL_RCC_HSI_ENABLE();
ARM GAS  C:\Users\sapph\AppData\Local\Temp\ccD3KfzI.s 			page 19


 660:Drivers/STM32H5xx_HAL_Driver/Src/stm32h5xx_hal_rcc.c **** 
 661:Drivers/STM32H5xx_HAL_Driver/Src/stm32h5xx_hal_rcc.c ****         /* Get Start Tick*/
 662:Drivers/STM32H5xx_HAL_Driver/Src/stm32h5xx_hal_rcc.c ****         tickstart = HAL_GetTick();
 663:Drivers/STM32H5xx_HAL_Driver/Src/stm32h5xx_hal_rcc.c **** 
 664:Drivers/STM32H5xx_HAL_Driver/Src/stm32h5xx_hal_rcc.c ****         /* Wait till HSI is ready */
 665:Drivers/STM32H5xx_HAL_Driver/Src/stm32h5xx_hal_rcc.c ****         while (READ_BIT(RCC->CR, RCC_CR_HSIRDY) == 0U)
 666:Drivers/STM32H5xx_HAL_Driver/Src/stm32h5xx_hal_rcc.c ****         {
 667:Drivers/STM32H5xx_HAL_Driver/Src/stm32h5xx_hal_rcc.c ****           if ((HAL_GetTick() - tickstart) > RCC_HSI_TIMEOUT_VALUE)
 668:Drivers/STM32H5xx_HAL_Driver/Src/stm32h5xx_hal_rcc.c ****           {
 669:Drivers/STM32H5xx_HAL_Driver/Src/stm32h5xx_hal_rcc.c ****             return HAL_TIMEOUT;
 670:Drivers/STM32H5xx_HAL_Driver/Src/stm32h5xx_hal_rcc.c ****           }
 671:Drivers/STM32H5xx_HAL_Driver/Src/stm32h5xx_hal_rcc.c ****         }
 672:Drivers/STM32H5xx_HAL_Driver/Src/stm32h5xx_hal_rcc.c **** 
 673:Drivers/STM32H5xx_HAL_Driver/Src/stm32h5xx_hal_rcc.c ****         /* Adjust the Internal High Speed oscillator (HSI) calibration value.*/
 674:Drivers/STM32H5xx_HAL_Driver/Src/stm32h5xx_hal_rcc.c ****         __HAL_RCC_HSI_CALIBRATIONVALUE_ADJUST(pOscInitStruct->HSICalibrationValue);
 675:Drivers/STM32H5xx_HAL_Driver/Src/stm32h5xx_hal_rcc.c ****       }
 676:Drivers/STM32H5xx_HAL_Driver/Src/stm32h5xx_hal_rcc.c ****       else
 677:Drivers/STM32H5xx_HAL_Driver/Src/stm32h5xx_hal_rcc.c ****       {
 678:Drivers/STM32H5xx_HAL_Driver/Src/stm32h5xx_hal_rcc.c ****         /* Disable the Internal High Speed oscillator (HSI). */
 679:Drivers/STM32H5xx_HAL_Driver/Src/stm32h5xx_hal_rcc.c ****         __HAL_RCC_HSI_DISABLE();
 680:Drivers/STM32H5xx_HAL_Driver/Src/stm32h5xx_hal_rcc.c **** 
 681:Drivers/STM32H5xx_HAL_Driver/Src/stm32h5xx_hal_rcc.c ****         /* Get Start Tick*/
 682:Drivers/STM32H5xx_HAL_Driver/Src/stm32h5xx_hal_rcc.c ****         tickstart = HAL_GetTick();
 683:Drivers/STM32H5xx_HAL_Driver/Src/stm32h5xx_hal_rcc.c **** 
 684:Drivers/STM32H5xx_HAL_Driver/Src/stm32h5xx_hal_rcc.c ****         /* Wait till HSI is disabled */
 685:Drivers/STM32H5xx_HAL_Driver/Src/stm32h5xx_hal_rcc.c ****         while (READ_BIT(RCC->CR, RCC_CR_HSIRDY) != 0U)
 686:Drivers/STM32H5xx_HAL_Driver/Src/stm32h5xx_hal_rcc.c ****         {
 687:Drivers/STM32H5xx_HAL_Driver/Src/stm32h5xx_hal_rcc.c ****           if ((HAL_GetTick() - tickstart) > RCC_HSI_TIMEOUT_VALUE)
 688:Drivers/STM32H5xx_HAL_Driver/Src/stm32h5xx_hal_rcc.c ****           {
 689:Drivers/STM32H5xx_HAL_Driver/Src/stm32h5xx_hal_rcc.c ****             return HAL_TIMEOUT;
 690:Drivers/STM32H5xx_HAL_Driver/Src/stm32h5xx_hal_rcc.c ****           }
 691:Drivers/STM32H5xx_HAL_Driver/Src/stm32h5xx_hal_rcc.c ****         }
 692:Drivers/STM32H5xx_HAL_Driver/Src/stm32h5xx_hal_rcc.c ****       }
 693:Drivers/STM32H5xx_HAL_Driver/Src/stm32h5xx_hal_rcc.c ****     }
 694:Drivers/STM32H5xx_HAL_Driver/Src/stm32h5xx_hal_rcc.c ****   }
 695:Drivers/STM32H5xx_HAL_Driver/Src/stm32h5xx_hal_rcc.c ****   /*------------------------------ LSI Configuration -------------------------*/
 696:Drivers/STM32H5xx_HAL_Driver/Src/stm32h5xx_hal_rcc.c ****   if (((pOscInitStruct->OscillatorType) & RCC_OSCILLATORTYPE_LSI) == RCC_OSCILLATORTYPE_LSI)
 697:Drivers/STM32H5xx_HAL_Driver/Src/stm32h5xx_hal_rcc.c ****   {
 698:Drivers/STM32H5xx_HAL_Driver/Src/stm32h5xx_hal_rcc.c **** 
 699:Drivers/STM32H5xx_HAL_Driver/Src/stm32h5xx_hal_rcc.c ****     /* Check the parameters */
 700:Drivers/STM32H5xx_HAL_Driver/Src/stm32h5xx_hal_rcc.c ****     assert_param(IS_RCC_LSI(pOscInitStruct->LSIState));
 701:Drivers/STM32H5xx_HAL_Driver/Src/stm32h5xx_hal_rcc.c **** 
 702:Drivers/STM32H5xx_HAL_Driver/Src/stm32h5xx_hal_rcc.c ****     /* Update LSI configuration in Backup Domain control register    */
 703:Drivers/STM32H5xx_HAL_Driver/Src/stm32h5xx_hal_rcc.c **** 
 704:Drivers/STM32H5xx_HAL_Driver/Src/stm32h5xx_hal_rcc.c ****     /* Check the LSI State */
 705:Drivers/STM32H5xx_HAL_Driver/Src/stm32h5xx_hal_rcc.c ****     if (pOscInitStruct->LSIState != RCC_LSI_OFF)
 706:Drivers/STM32H5xx_HAL_Driver/Src/stm32h5xx_hal_rcc.c ****     {
 707:Drivers/STM32H5xx_HAL_Driver/Src/stm32h5xx_hal_rcc.c ****       /* Enable the Internal Low Speed oscillator (LSI). */
 708:Drivers/STM32H5xx_HAL_Driver/Src/stm32h5xx_hal_rcc.c ****       __HAL_RCC_LSI_ENABLE();
 709:Drivers/STM32H5xx_HAL_Driver/Src/stm32h5xx_hal_rcc.c **** 
 710:Drivers/STM32H5xx_HAL_Driver/Src/stm32h5xx_hal_rcc.c ****       /* Get Start Tick*/
 711:Drivers/STM32H5xx_HAL_Driver/Src/stm32h5xx_hal_rcc.c ****       tickstart = HAL_GetTick();
 712:Drivers/STM32H5xx_HAL_Driver/Src/stm32h5xx_hal_rcc.c **** 
 713:Drivers/STM32H5xx_HAL_Driver/Src/stm32h5xx_hal_rcc.c ****       /* Wait till LSI is ready */
 714:Drivers/STM32H5xx_HAL_Driver/Src/stm32h5xx_hal_rcc.c ****       while (READ_BIT(RCC->BDCR, RCC_BDCR_LSIRDY) == 0U)
 715:Drivers/STM32H5xx_HAL_Driver/Src/stm32h5xx_hal_rcc.c ****       {
 716:Drivers/STM32H5xx_HAL_Driver/Src/stm32h5xx_hal_rcc.c ****         if ((HAL_GetTick() - tickstart) > RCC_LSI_TIMEOUT_VALUE)
ARM GAS  C:\Users\sapph\AppData\Local\Temp\ccD3KfzI.s 			page 20


 717:Drivers/STM32H5xx_HAL_Driver/Src/stm32h5xx_hal_rcc.c ****         {
 718:Drivers/STM32H5xx_HAL_Driver/Src/stm32h5xx_hal_rcc.c ****           return HAL_TIMEOUT;
 719:Drivers/STM32H5xx_HAL_Driver/Src/stm32h5xx_hal_rcc.c ****         }
 720:Drivers/STM32H5xx_HAL_Driver/Src/stm32h5xx_hal_rcc.c ****       }
 721:Drivers/STM32H5xx_HAL_Driver/Src/stm32h5xx_hal_rcc.c ****     }
 722:Drivers/STM32H5xx_HAL_Driver/Src/stm32h5xx_hal_rcc.c ****     else
 723:Drivers/STM32H5xx_HAL_Driver/Src/stm32h5xx_hal_rcc.c ****     {
 724:Drivers/STM32H5xx_HAL_Driver/Src/stm32h5xx_hal_rcc.c ****       /* Disable the Internal Low Speed oscillator (LSI). */
 725:Drivers/STM32H5xx_HAL_Driver/Src/stm32h5xx_hal_rcc.c ****       __HAL_RCC_LSI_DISABLE();
 726:Drivers/STM32H5xx_HAL_Driver/Src/stm32h5xx_hal_rcc.c **** 
 727:Drivers/STM32H5xx_HAL_Driver/Src/stm32h5xx_hal_rcc.c ****       /* Get Start Tick*/
 728:Drivers/STM32H5xx_HAL_Driver/Src/stm32h5xx_hal_rcc.c ****       tickstart = HAL_GetTick();
 729:Drivers/STM32H5xx_HAL_Driver/Src/stm32h5xx_hal_rcc.c **** 
 730:Drivers/STM32H5xx_HAL_Driver/Src/stm32h5xx_hal_rcc.c ****       /* Wait till LSI is disabled */
 731:Drivers/STM32H5xx_HAL_Driver/Src/stm32h5xx_hal_rcc.c ****       while (READ_BIT(RCC->BDCR, RCC_BDCR_LSIRDY) != 0U)
 732:Drivers/STM32H5xx_HAL_Driver/Src/stm32h5xx_hal_rcc.c ****       {
 733:Drivers/STM32H5xx_HAL_Driver/Src/stm32h5xx_hal_rcc.c ****         if ((HAL_GetTick() - tickstart) > RCC_LSI_TIMEOUT_VALUE)
 734:Drivers/STM32H5xx_HAL_Driver/Src/stm32h5xx_hal_rcc.c ****         {
 735:Drivers/STM32H5xx_HAL_Driver/Src/stm32h5xx_hal_rcc.c ****           return HAL_TIMEOUT;
 736:Drivers/STM32H5xx_HAL_Driver/Src/stm32h5xx_hal_rcc.c ****         }
 737:Drivers/STM32H5xx_HAL_Driver/Src/stm32h5xx_hal_rcc.c ****       }
 738:Drivers/STM32H5xx_HAL_Driver/Src/stm32h5xx_hal_rcc.c ****     }
 739:Drivers/STM32H5xx_HAL_Driver/Src/stm32h5xx_hal_rcc.c **** 
 740:Drivers/STM32H5xx_HAL_Driver/Src/stm32h5xx_hal_rcc.c ****   }
 741:Drivers/STM32H5xx_HAL_Driver/Src/stm32h5xx_hal_rcc.c ****   /*------------------------------ LSE Configuration -------------------------*/
 742:Drivers/STM32H5xx_HAL_Driver/Src/stm32h5xx_hal_rcc.c ****   if (((pOscInitStruct->OscillatorType) & RCC_OSCILLATORTYPE_LSE) == RCC_OSCILLATORTYPE_LSE)
 743:Drivers/STM32H5xx_HAL_Driver/Src/stm32h5xx_hal_rcc.c ****   {
 744:Drivers/STM32H5xx_HAL_Driver/Src/stm32h5xx_hal_rcc.c **** 
 745:Drivers/STM32H5xx_HAL_Driver/Src/stm32h5xx_hal_rcc.c ****     /* Check the parameters */
 746:Drivers/STM32H5xx_HAL_Driver/Src/stm32h5xx_hal_rcc.c ****     assert_param(IS_RCC_LSE(pOscInitStruct->LSEState));
 747:Drivers/STM32H5xx_HAL_Driver/Src/stm32h5xx_hal_rcc.c **** 
 748:Drivers/STM32H5xx_HAL_Driver/Src/stm32h5xx_hal_rcc.c ****     /* Update LSE configuration in Backup Domain control register    */
 749:Drivers/STM32H5xx_HAL_Driver/Src/stm32h5xx_hal_rcc.c ****     /* Requires to enable write access to Backup Domain */
 750:Drivers/STM32H5xx_HAL_Driver/Src/stm32h5xx_hal_rcc.c ****     if (HAL_IS_BIT_CLR(PWR->DBPCR, PWR_DBPCR_DBP))
 751:Drivers/STM32H5xx_HAL_Driver/Src/stm32h5xx_hal_rcc.c ****     {
 752:Drivers/STM32H5xx_HAL_Driver/Src/stm32h5xx_hal_rcc.c ****       /* Enable write access to Backup domain */
 753:Drivers/STM32H5xx_HAL_Driver/Src/stm32h5xx_hal_rcc.c ****       SET_BIT(PWR->DBPCR, PWR_DBPCR_DBP);
 754:Drivers/STM32H5xx_HAL_Driver/Src/stm32h5xx_hal_rcc.c **** 
 755:Drivers/STM32H5xx_HAL_Driver/Src/stm32h5xx_hal_rcc.c ****       /* Wait for Backup domain Write protection disable */
 756:Drivers/STM32H5xx_HAL_Driver/Src/stm32h5xx_hal_rcc.c ****       tickstart = HAL_GetTick();
 757:Drivers/STM32H5xx_HAL_Driver/Src/stm32h5xx_hal_rcc.c **** 
 758:Drivers/STM32H5xx_HAL_Driver/Src/stm32h5xx_hal_rcc.c ****       while (HAL_IS_BIT_CLR(PWR->DBPCR, PWR_DBPCR_DBP))
 759:Drivers/STM32H5xx_HAL_Driver/Src/stm32h5xx_hal_rcc.c ****       {
 760:Drivers/STM32H5xx_HAL_Driver/Src/stm32h5xx_hal_rcc.c ****         if ((HAL_GetTick() - tickstart) > RCC_DBP_TIMEOUT_VALUE)
 761:Drivers/STM32H5xx_HAL_Driver/Src/stm32h5xx_hal_rcc.c ****         {
 762:Drivers/STM32H5xx_HAL_Driver/Src/stm32h5xx_hal_rcc.c ****           return HAL_TIMEOUT;
 763:Drivers/STM32H5xx_HAL_Driver/Src/stm32h5xx_hal_rcc.c ****         }
 764:Drivers/STM32H5xx_HAL_Driver/Src/stm32h5xx_hal_rcc.c ****       }
 765:Drivers/STM32H5xx_HAL_Driver/Src/stm32h5xx_hal_rcc.c ****     }
 766:Drivers/STM32H5xx_HAL_Driver/Src/stm32h5xx_hal_rcc.c **** 
 767:Drivers/STM32H5xx_HAL_Driver/Src/stm32h5xx_hal_rcc.c ****     /* Set the new LSE configuration -----------------------------------------*/
 768:Drivers/STM32H5xx_HAL_Driver/Src/stm32h5xx_hal_rcc.c ****     __HAL_RCC_LSE_CONFIG(pOscInitStruct->LSEState);
 769:Drivers/STM32H5xx_HAL_Driver/Src/stm32h5xx_hal_rcc.c **** 
 770:Drivers/STM32H5xx_HAL_Driver/Src/stm32h5xx_hal_rcc.c ****     /* Check the LSE State */
 771:Drivers/STM32H5xx_HAL_Driver/Src/stm32h5xx_hal_rcc.c ****     if (pOscInitStruct->LSEState != RCC_LSE_OFF)
 772:Drivers/STM32H5xx_HAL_Driver/Src/stm32h5xx_hal_rcc.c ****     {
 773:Drivers/STM32H5xx_HAL_Driver/Src/stm32h5xx_hal_rcc.c ****       /* Get Start Tick*/
ARM GAS  C:\Users\sapph\AppData\Local\Temp\ccD3KfzI.s 			page 21


 774:Drivers/STM32H5xx_HAL_Driver/Src/stm32h5xx_hal_rcc.c ****       tickstart = HAL_GetTick();
 775:Drivers/STM32H5xx_HAL_Driver/Src/stm32h5xx_hal_rcc.c **** 
 776:Drivers/STM32H5xx_HAL_Driver/Src/stm32h5xx_hal_rcc.c ****       /* Wait till LSE is ready */
 777:Drivers/STM32H5xx_HAL_Driver/Src/stm32h5xx_hal_rcc.c ****       while (READ_BIT(RCC->BDCR, RCC_BDCR_LSERDY) == 0U)
 778:Drivers/STM32H5xx_HAL_Driver/Src/stm32h5xx_hal_rcc.c ****       {
 779:Drivers/STM32H5xx_HAL_Driver/Src/stm32h5xx_hal_rcc.c ****         if ((HAL_GetTick() - tickstart) > RCC_LSE_TIMEOUT_VALUE)
 780:Drivers/STM32H5xx_HAL_Driver/Src/stm32h5xx_hal_rcc.c ****         {
 781:Drivers/STM32H5xx_HAL_Driver/Src/stm32h5xx_hal_rcc.c ****           return HAL_TIMEOUT;
 782:Drivers/STM32H5xx_HAL_Driver/Src/stm32h5xx_hal_rcc.c ****         }
 783:Drivers/STM32H5xx_HAL_Driver/Src/stm32h5xx_hal_rcc.c ****       }
 784:Drivers/STM32H5xx_HAL_Driver/Src/stm32h5xx_hal_rcc.c ****     }
 785:Drivers/STM32H5xx_HAL_Driver/Src/stm32h5xx_hal_rcc.c ****     else
 786:Drivers/STM32H5xx_HAL_Driver/Src/stm32h5xx_hal_rcc.c ****     {
 787:Drivers/STM32H5xx_HAL_Driver/Src/stm32h5xx_hal_rcc.c ****       /* Get Start Tick*/
 788:Drivers/STM32H5xx_HAL_Driver/Src/stm32h5xx_hal_rcc.c ****       tickstart = HAL_GetTick();
 789:Drivers/STM32H5xx_HAL_Driver/Src/stm32h5xx_hal_rcc.c **** 
 790:Drivers/STM32H5xx_HAL_Driver/Src/stm32h5xx_hal_rcc.c ****       /* Wait till LSE is disabled */
 791:Drivers/STM32H5xx_HAL_Driver/Src/stm32h5xx_hal_rcc.c ****       while (READ_BIT(RCC->BDCR, RCC_BDCR_LSERDY) != 0U)
 792:Drivers/STM32H5xx_HAL_Driver/Src/stm32h5xx_hal_rcc.c ****       {
 793:Drivers/STM32H5xx_HAL_Driver/Src/stm32h5xx_hal_rcc.c ****         if ((HAL_GetTick() - tickstart) > RCC_LSE_TIMEOUT_VALUE)
 794:Drivers/STM32H5xx_HAL_Driver/Src/stm32h5xx_hal_rcc.c ****         {
 795:Drivers/STM32H5xx_HAL_Driver/Src/stm32h5xx_hal_rcc.c ****           return HAL_TIMEOUT;
 796:Drivers/STM32H5xx_HAL_Driver/Src/stm32h5xx_hal_rcc.c ****         }
 797:Drivers/STM32H5xx_HAL_Driver/Src/stm32h5xx_hal_rcc.c ****       }
 798:Drivers/STM32H5xx_HAL_Driver/Src/stm32h5xx_hal_rcc.c ****     }
 799:Drivers/STM32H5xx_HAL_Driver/Src/stm32h5xx_hal_rcc.c **** 
 800:Drivers/STM32H5xx_HAL_Driver/Src/stm32h5xx_hal_rcc.c ****   }
 801:Drivers/STM32H5xx_HAL_Driver/Src/stm32h5xx_hal_rcc.c ****   /*------------------------------ HSI48 Configuration -----------------------*/
 802:Drivers/STM32H5xx_HAL_Driver/Src/stm32h5xx_hal_rcc.c ****   if (((pOscInitStruct->OscillatorType) & RCC_OSCILLATORTYPE_HSI48) == RCC_OSCILLATORTYPE_HSI48)
 803:Drivers/STM32H5xx_HAL_Driver/Src/stm32h5xx_hal_rcc.c ****   {
 804:Drivers/STM32H5xx_HAL_Driver/Src/stm32h5xx_hal_rcc.c ****     /* Check the parameters */
 805:Drivers/STM32H5xx_HAL_Driver/Src/stm32h5xx_hal_rcc.c ****     assert_param(IS_RCC_HSI48(pOscInitStruct->HSI48State));
 806:Drivers/STM32H5xx_HAL_Driver/Src/stm32h5xx_hal_rcc.c **** 
 807:Drivers/STM32H5xx_HAL_Driver/Src/stm32h5xx_hal_rcc.c ****     /* Check the HSI48 State */
 808:Drivers/STM32H5xx_HAL_Driver/Src/stm32h5xx_hal_rcc.c ****     if (pOscInitStruct->HSI48State != RCC_HSI48_OFF)
 809:Drivers/STM32H5xx_HAL_Driver/Src/stm32h5xx_hal_rcc.c ****     {
 810:Drivers/STM32H5xx_HAL_Driver/Src/stm32h5xx_hal_rcc.c ****       /* Enable the Internal High Speed oscillator (HSI48). */
 811:Drivers/STM32H5xx_HAL_Driver/Src/stm32h5xx_hal_rcc.c ****       __HAL_RCC_HSI48_ENABLE();
 812:Drivers/STM32H5xx_HAL_Driver/Src/stm32h5xx_hal_rcc.c **** 
 813:Drivers/STM32H5xx_HAL_Driver/Src/stm32h5xx_hal_rcc.c ****       /* Get Start Tick*/
 814:Drivers/STM32H5xx_HAL_Driver/Src/stm32h5xx_hal_rcc.c ****       tickstart = HAL_GetTick();
 815:Drivers/STM32H5xx_HAL_Driver/Src/stm32h5xx_hal_rcc.c **** 
 816:Drivers/STM32H5xx_HAL_Driver/Src/stm32h5xx_hal_rcc.c ****       /* Wait till HSI48 is ready */
 817:Drivers/STM32H5xx_HAL_Driver/Src/stm32h5xx_hal_rcc.c ****       while (READ_BIT(RCC->CR, RCC_CR_HSI48RDY) == 0U)
 818:Drivers/STM32H5xx_HAL_Driver/Src/stm32h5xx_hal_rcc.c ****       {
 819:Drivers/STM32H5xx_HAL_Driver/Src/stm32h5xx_hal_rcc.c ****         if ((HAL_GetTick() - tickstart) > RCC_HSI48_TIMEOUT_VALUE)
 820:Drivers/STM32H5xx_HAL_Driver/Src/stm32h5xx_hal_rcc.c ****         {
 821:Drivers/STM32H5xx_HAL_Driver/Src/stm32h5xx_hal_rcc.c ****           return HAL_TIMEOUT;
 822:Drivers/STM32H5xx_HAL_Driver/Src/stm32h5xx_hal_rcc.c ****         }
 823:Drivers/STM32H5xx_HAL_Driver/Src/stm32h5xx_hal_rcc.c ****       }
 824:Drivers/STM32H5xx_HAL_Driver/Src/stm32h5xx_hal_rcc.c ****     }
 825:Drivers/STM32H5xx_HAL_Driver/Src/stm32h5xx_hal_rcc.c ****     else
 826:Drivers/STM32H5xx_HAL_Driver/Src/stm32h5xx_hal_rcc.c ****     {
 827:Drivers/STM32H5xx_HAL_Driver/Src/stm32h5xx_hal_rcc.c ****       /* Disable the Internal High Speed oscillator (HSI48). */
 828:Drivers/STM32H5xx_HAL_Driver/Src/stm32h5xx_hal_rcc.c ****       __HAL_RCC_HSI48_DISABLE();
 829:Drivers/STM32H5xx_HAL_Driver/Src/stm32h5xx_hal_rcc.c **** 
 830:Drivers/STM32H5xx_HAL_Driver/Src/stm32h5xx_hal_rcc.c ****       /* Get Start Tick*/
ARM GAS  C:\Users\sapph\AppData\Local\Temp\ccD3KfzI.s 			page 22


 831:Drivers/STM32H5xx_HAL_Driver/Src/stm32h5xx_hal_rcc.c ****       tickstart = HAL_GetTick();
 832:Drivers/STM32H5xx_HAL_Driver/Src/stm32h5xx_hal_rcc.c **** 
 833:Drivers/STM32H5xx_HAL_Driver/Src/stm32h5xx_hal_rcc.c ****       /* Wait till HSI48 is disabled */
 834:Drivers/STM32H5xx_HAL_Driver/Src/stm32h5xx_hal_rcc.c ****       while (READ_BIT(RCC->CR, RCC_CR_HSI48RDY) != 0U)
 835:Drivers/STM32H5xx_HAL_Driver/Src/stm32h5xx_hal_rcc.c ****       {
 836:Drivers/STM32H5xx_HAL_Driver/Src/stm32h5xx_hal_rcc.c ****         if ((HAL_GetTick() - tickstart) > RCC_HSI48_TIMEOUT_VALUE)
 837:Drivers/STM32H5xx_HAL_Driver/Src/stm32h5xx_hal_rcc.c ****         {
 838:Drivers/STM32H5xx_HAL_Driver/Src/stm32h5xx_hal_rcc.c ****           return HAL_TIMEOUT;
 839:Drivers/STM32H5xx_HAL_Driver/Src/stm32h5xx_hal_rcc.c ****         }
 840:Drivers/STM32H5xx_HAL_Driver/Src/stm32h5xx_hal_rcc.c ****       }
 841:Drivers/STM32H5xx_HAL_Driver/Src/stm32h5xx_hal_rcc.c ****     }
 842:Drivers/STM32H5xx_HAL_Driver/Src/stm32h5xx_hal_rcc.c ****   }
 843:Drivers/STM32H5xx_HAL_Driver/Src/stm32h5xx_hal_rcc.c **** 
 844:Drivers/STM32H5xx_HAL_Driver/Src/stm32h5xx_hal_rcc.c ****   /*-------------------------------- PLL1 Configuration -----------------------*/
 845:Drivers/STM32H5xx_HAL_Driver/Src/stm32h5xx_hal_rcc.c ****   /* Check the parameters */
 846:Drivers/STM32H5xx_HAL_Driver/Src/stm32h5xx_hal_rcc.c ****   assert_param(IS_RCC_PLL(pOscInitStruct->PLL.PLLState));
 847:Drivers/STM32H5xx_HAL_Driver/Src/stm32h5xx_hal_rcc.c **** 
 848:Drivers/STM32H5xx_HAL_Driver/Src/stm32h5xx_hal_rcc.c ****   if ((pOscInitStruct->PLL.PLLState) != RCC_PLL_NONE)
 849:Drivers/STM32H5xx_HAL_Driver/Src/stm32h5xx_hal_rcc.c ****   {
 850:Drivers/STM32H5xx_HAL_Driver/Src/stm32h5xx_hal_rcc.c ****     /* Check if the PLL1 is used as system clock or not */
 851:Drivers/STM32H5xx_HAL_Driver/Src/stm32h5xx_hal_rcc.c ****     if (temp_sysclksrc != RCC_SYSCLKSOURCE_STATUS_PLLCLK)
 852:Drivers/STM32H5xx_HAL_Driver/Src/stm32h5xx_hal_rcc.c ****     {
 853:Drivers/STM32H5xx_HAL_Driver/Src/stm32h5xx_hal_rcc.c ****       if ((pOscInitStruct->PLL.PLLState) == RCC_PLL_ON)
 854:Drivers/STM32H5xx_HAL_Driver/Src/stm32h5xx_hal_rcc.c ****       {
 855:Drivers/STM32H5xx_HAL_Driver/Src/stm32h5xx_hal_rcc.c ****         /* Check the parameters */
 856:Drivers/STM32H5xx_HAL_Driver/Src/stm32h5xx_hal_rcc.c ****         assert_param(IS_RCC_PLL1_SOURCE(pOscInitStruct->PLL.PLLSource));
 857:Drivers/STM32H5xx_HAL_Driver/Src/stm32h5xx_hal_rcc.c ****         assert_param(IS_RCC_PLL1_DIVM_VALUE(pOscInitStruct->PLL.PLLM));
 858:Drivers/STM32H5xx_HAL_Driver/Src/stm32h5xx_hal_rcc.c ****         assert_param(IS_RCC_PLL1_MULN_VALUE(pOscInitStruct->PLL.PLLN));
 859:Drivers/STM32H5xx_HAL_Driver/Src/stm32h5xx_hal_rcc.c ****         assert_param(IS_RCC_PLL1_DIVP_VALUE(pOscInitStruct->PLL.PLLP));
 860:Drivers/STM32H5xx_HAL_Driver/Src/stm32h5xx_hal_rcc.c ****         assert_param(IS_RCC_PLL1_DIVQ_VALUE(pOscInitStruct->PLL.PLLQ));
 861:Drivers/STM32H5xx_HAL_Driver/Src/stm32h5xx_hal_rcc.c ****         assert_param(IS_RCC_PLL1_DIVR_VALUE(pOscInitStruct->PLL.PLLR));
 862:Drivers/STM32H5xx_HAL_Driver/Src/stm32h5xx_hal_rcc.c **** 
 863:Drivers/STM32H5xx_HAL_Driver/Src/stm32h5xx_hal_rcc.c ****         /* Disable the PLL1. */
 864:Drivers/STM32H5xx_HAL_Driver/Src/stm32h5xx_hal_rcc.c ****         __HAL_RCC_PLL1_DISABLE();
 865:Drivers/STM32H5xx_HAL_Driver/Src/stm32h5xx_hal_rcc.c **** 
 866:Drivers/STM32H5xx_HAL_Driver/Src/stm32h5xx_hal_rcc.c ****         /* Get Start Tick*/
 867:Drivers/STM32H5xx_HAL_Driver/Src/stm32h5xx_hal_rcc.c ****         tickstart = HAL_GetTick();
 868:Drivers/STM32H5xx_HAL_Driver/Src/stm32h5xx_hal_rcc.c **** 
 869:Drivers/STM32H5xx_HAL_Driver/Src/stm32h5xx_hal_rcc.c ****         /* Wait till PLL1 is disabled */
 870:Drivers/STM32H5xx_HAL_Driver/Src/stm32h5xx_hal_rcc.c ****         while (READ_BIT(RCC->CR, RCC_CR_PLL1RDY) != 0U)
 871:Drivers/STM32H5xx_HAL_Driver/Src/stm32h5xx_hal_rcc.c ****         {
 872:Drivers/STM32H5xx_HAL_Driver/Src/stm32h5xx_hal_rcc.c ****           if ((HAL_GetTick() - tickstart) > RCC_PLL_TIMEOUT_VALUE)
 873:Drivers/STM32H5xx_HAL_Driver/Src/stm32h5xx_hal_rcc.c ****           {
 874:Drivers/STM32H5xx_HAL_Driver/Src/stm32h5xx_hal_rcc.c ****             return HAL_TIMEOUT;
 875:Drivers/STM32H5xx_HAL_Driver/Src/stm32h5xx_hal_rcc.c ****           }
 876:Drivers/STM32H5xx_HAL_Driver/Src/stm32h5xx_hal_rcc.c ****         }
 877:Drivers/STM32H5xx_HAL_Driver/Src/stm32h5xx_hal_rcc.c **** 
 878:Drivers/STM32H5xx_HAL_Driver/Src/stm32h5xx_hal_rcc.c ****         /* Configure the PLL1 clock source, multiplication and division factors. */
 879:Drivers/STM32H5xx_HAL_Driver/Src/stm32h5xx_hal_rcc.c ****         __HAL_RCC_PLL1_CONFIG(pOscInitStruct->PLL.PLLSource,
 880:Drivers/STM32H5xx_HAL_Driver/Src/stm32h5xx_hal_rcc.c ****                               pOscInitStruct->PLL.PLLM,
 881:Drivers/STM32H5xx_HAL_Driver/Src/stm32h5xx_hal_rcc.c ****                               pOscInitStruct->PLL.PLLN,
 882:Drivers/STM32H5xx_HAL_Driver/Src/stm32h5xx_hal_rcc.c ****                               pOscInitStruct->PLL.PLLP,
 883:Drivers/STM32H5xx_HAL_Driver/Src/stm32h5xx_hal_rcc.c ****                               pOscInitStruct->PLL.PLLQ,
 884:Drivers/STM32H5xx_HAL_Driver/Src/stm32h5xx_hal_rcc.c ****                               pOscInitStruct->PLL.PLLR);
 885:Drivers/STM32H5xx_HAL_Driver/Src/stm32h5xx_hal_rcc.c **** 
 886:Drivers/STM32H5xx_HAL_Driver/Src/stm32h5xx_hal_rcc.c ****         assert_param(IS_RCC_PLL1_FRACN_VALUE(pOscInitStruct->PLL.PLLFRACN));
 887:Drivers/STM32H5xx_HAL_Driver/Src/stm32h5xx_hal_rcc.c **** 
ARM GAS  C:\Users\sapph\AppData\Local\Temp\ccD3KfzI.s 			page 23


 888:Drivers/STM32H5xx_HAL_Driver/Src/stm32h5xx_hal_rcc.c ****         /* Disable PLL1FRACN . */
 889:Drivers/STM32H5xx_HAL_Driver/Src/stm32h5xx_hal_rcc.c ****         __HAL_RCC_PLL1_FRACN_DISABLE();
 890:Drivers/STM32H5xx_HAL_Driver/Src/stm32h5xx_hal_rcc.c **** 
 891:Drivers/STM32H5xx_HAL_Driver/Src/stm32h5xx_hal_rcc.c ****         /* Configure PLL  PLL1FRACN */
 892:Drivers/STM32H5xx_HAL_Driver/Src/stm32h5xx_hal_rcc.c ****         __HAL_RCC_PLL1_FRACN_CONFIG(pOscInitStruct->PLL.PLLFRACN);
 893:Drivers/STM32H5xx_HAL_Driver/Src/stm32h5xx_hal_rcc.c **** 
 894:Drivers/STM32H5xx_HAL_Driver/Src/stm32h5xx_hal_rcc.c ****         /* Enable PLL1FRACN . */
 895:Drivers/STM32H5xx_HAL_Driver/Src/stm32h5xx_hal_rcc.c ****         __HAL_RCC_PLL1_FRACN_ENABLE();
 896:Drivers/STM32H5xx_HAL_Driver/Src/stm32h5xx_hal_rcc.c **** 
 897:Drivers/STM32H5xx_HAL_Driver/Src/stm32h5xx_hal_rcc.c ****         assert_param(IS_RCC_PLL1_VCIRGE_VALUE(pOscInitStruct->PLL.PLLRGE));
 898:Drivers/STM32H5xx_HAL_Driver/Src/stm32h5xx_hal_rcc.c **** 
 899:Drivers/STM32H5xx_HAL_Driver/Src/stm32h5xx_hal_rcc.c ****         /* Select PLL1 input reference frequency range: VCI */
 900:Drivers/STM32H5xx_HAL_Driver/Src/stm32h5xx_hal_rcc.c ****         __HAL_RCC_PLL1_VCIRANGE(pOscInitStruct->PLL.PLLRGE) ;
 901:Drivers/STM32H5xx_HAL_Driver/Src/stm32h5xx_hal_rcc.c **** 
 902:Drivers/STM32H5xx_HAL_Driver/Src/stm32h5xx_hal_rcc.c ****         assert_param(IS_RCC_PLL1_VCORGE_VALUE(pOscInitStruct->PLL.PLLVCOSEL));
 903:Drivers/STM32H5xx_HAL_Driver/Src/stm32h5xx_hal_rcc.c **** 
 904:Drivers/STM32H5xx_HAL_Driver/Src/stm32h5xx_hal_rcc.c ****         /* Select PLL1 output frequency range : VCO */
 905:Drivers/STM32H5xx_HAL_Driver/Src/stm32h5xx_hal_rcc.c ****         __HAL_RCC_PLL1_VCORANGE(pOscInitStruct->PLL.PLLVCOSEL) ;
 906:Drivers/STM32H5xx_HAL_Driver/Src/stm32h5xx_hal_rcc.c **** 
 907:Drivers/STM32H5xx_HAL_Driver/Src/stm32h5xx_hal_rcc.c ****         /* Enable PLL1 System Clock output. */
 908:Drivers/STM32H5xx_HAL_Driver/Src/stm32h5xx_hal_rcc.c ****         __HAL_RCC_PLL1_CLKOUT_ENABLE(RCC_PLL1_DIVP);
 909:Drivers/STM32H5xx_HAL_Driver/Src/stm32h5xx_hal_rcc.c **** 
 910:Drivers/STM32H5xx_HAL_Driver/Src/stm32h5xx_hal_rcc.c ****         /* Enable the PLL1. */
 911:Drivers/STM32H5xx_HAL_Driver/Src/stm32h5xx_hal_rcc.c ****         __HAL_RCC_PLL1_ENABLE();
 912:Drivers/STM32H5xx_HAL_Driver/Src/stm32h5xx_hal_rcc.c **** 
 913:Drivers/STM32H5xx_HAL_Driver/Src/stm32h5xx_hal_rcc.c ****         /* Get Start Tick*/
 914:Drivers/STM32H5xx_HAL_Driver/Src/stm32h5xx_hal_rcc.c ****         tickstart = HAL_GetTick();
 915:Drivers/STM32H5xx_HAL_Driver/Src/stm32h5xx_hal_rcc.c **** 
 916:Drivers/STM32H5xx_HAL_Driver/Src/stm32h5xx_hal_rcc.c ****         /* Wait till PLL1 is ready */
 917:Drivers/STM32H5xx_HAL_Driver/Src/stm32h5xx_hal_rcc.c ****         while (READ_BIT(RCC->CR, RCC_CR_PLL1RDY) == 0U)
 918:Drivers/STM32H5xx_HAL_Driver/Src/stm32h5xx_hal_rcc.c ****         {
 919:Drivers/STM32H5xx_HAL_Driver/Src/stm32h5xx_hal_rcc.c ****           if ((HAL_GetTick() - tickstart) > RCC_PLL_TIMEOUT_VALUE)
 920:Drivers/STM32H5xx_HAL_Driver/Src/stm32h5xx_hal_rcc.c ****           {
 921:Drivers/STM32H5xx_HAL_Driver/Src/stm32h5xx_hal_rcc.c ****             return HAL_TIMEOUT;
 922:Drivers/STM32H5xx_HAL_Driver/Src/stm32h5xx_hal_rcc.c ****           }
 923:Drivers/STM32H5xx_HAL_Driver/Src/stm32h5xx_hal_rcc.c ****         }
 924:Drivers/STM32H5xx_HAL_Driver/Src/stm32h5xx_hal_rcc.c ****       }
 925:Drivers/STM32H5xx_HAL_Driver/Src/stm32h5xx_hal_rcc.c ****       else
 926:Drivers/STM32H5xx_HAL_Driver/Src/stm32h5xx_hal_rcc.c ****       {
 927:Drivers/STM32H5xx_HAL_Driver/Src/stm32h5xx_hal_rcc.c ****         /* Disable the PLL1. */
 928:Drivers/STM32H5xx_HAL_Driver/Src/stm32h5xx_hal_rcc.c ****         __HAL_RCC_PLL1_DISABLE();
 929:Drivers/STM32H5xx_HAL_Driver/Src/stm32h5xx_hal_rcc.c **** 
 930:Drivers/STM32H5xx_HAL_Driver/Src/stm32h5xx_hal_rcc.c ****         /* Get Start Tick*/
 931:Drivers/STM32H5xx_HAL_Driver/Src/stm32h5xx_hal_rcc.c ****         tickstart = HAL_GetTick();
 932:Drivers/STM32H5xx_HAL_Driver/Src/stm32h5xx_hal_rcc.c **** 
 933:Drivers/STM32H5xx_HAL_Driver/Src/stm32h5xx_hal_rcc.c ****         /* Wait till PLL1 is disabled */
 934:Drivers/STM32H5xx_HAL_Driver/Src/stm32h5xx_hal_rcc.c ****         while (READ_BIT(RCC->CR, RCC_CR_PLL1RDY) != 0U)
 935:Drivers/STM32H5xx_HAL_Driver/Src/stm32h5xx_hal_rcc.c ****         {
 936:Drivers/STM32H5xx_HAL_Driver/Src/stm32h5xx_hal_rcc.c ****           if ((HAL_GetTick() - tickstart) > RCC_PLL_TIMEOUT_VALUE)
 937:Drivers/STM32H5xx_HAL_Driver/Src/stm32h5xx_hal_rcc.c ****           {
 938:Drivers/STM32H5xx_HAL_Driver/Src/stm32h5xx_hal_rcc.c ****             return HAL_TIMEOUT;
 939:Drivers/STM32H5xx_HAL_Driver/Src/stm32h5xx_hal_rcc.c ****           }
 940:Drivers/STM32H5xx_HAL_Driver/Src/stm32h5xx_hal_rcc.c ****         }
 941:Drivers/STM32H5xx_HAL_Driver/Src/stm32h5xx_hal_rcc.c **** 
 942:Drivers/STM32H5xx_HAL_Driver/Src/stm32h5xx_hal_rcc.c ****         /* Unselect PLL1 clock source and disable all PLL1 outputs to save power */
 943:Drivers/STM32H5xx_HAL_Driver/Src/stm32h5xx_hal_rcc.c ****         RCC->PLL1CFGR &= ~(RCC_PLL1CFGR_PLL1SRC | RCC_PLL1CFGR_PLL1PEN | RCC_PLL1CFGR_PLL1QEN | RCC
 944:Drivers/STM32H5xx_HAL_Driver/Src/stm32h5xx_hal_rcc.c **** 
ARM GAS  C:\Users\sapph\AppData\Local\Temp\ccD3KfzI.s 			page 24


 945:Drivers/STM32H5xx_HAL_Driver/Src/stm32h5xx_hal_rcc.c ****       }
 946:Drivers/STM32H5xx_HAL_Driver/Src/stm32h5xx_hal_rcc.c ****     }
 947:Drivers/STM32H5xx_HAL_Driver/Src/stm32h5xx_hal_rcc.c ****     else
 948:Drivers/STM32H5xx_HAL_Driver/Src/stm32h5xx_hal_rcc.c ****     {
 949:Drivers/STM32H5xx_HAL_Driver/Src/stm32h5xx_hal_rcc.c ****       /* Do not return HAL_ERROR if request repeats the current configuration */
 950:Drivers/STM32H5xx_HAL_Driver/Src/stm32h5xx_hal_rcc.c ****       temp1_pllckcfg = RCC->PLL1CFGR;
 951:Drivers/STM32H5xx_HAL_Driver/Src/stm32h5xx_hal_rcc.c ****       temp2_pllckcfg = RCC->PLL1DIVR;
 952:Drivers/STM32H5xx_HAL_Driver/Src/stm32h5xx_hal_rcc.c ****       if (((pOscInitStruct->PLL.PLLState) == RCC_PLL_OFF) ||
 953:Drivers/STM32H5xx_HAL_Driver/Src/stm32h5xx_hal_rcc.c ****           (READ_BIT(temp1_pllckcfg, RCC_PLL1CFGR_PLL1SRC) != pOscInitStruct->PLL.PLLSource) ||
 954:Drivers/STM32H5xx_HAL_Driver/Src/stm32h5xx_hal_rcc.c ****           ((READ_BIT(temp1_pllckcfg, RCC_PLL1CFGR_PLL1M) >> \
 955:Drivers/STM32H5xx_HAL_Driver/Src/stm32h5xx_hal_rcc.c ****             RCC_PLL1CFGR_PLL1M_Pos) != (pOscInitStruct->PLL.PLLM)) ||
 956:Drivers/STM32H5xx_HAL_Driver/Src/stm32h5xx_hal_rcc.c ****           (READ_BIT(temp2_pllckcfg, RCC_PLL1DIVR_PLL1N) != (pOscInitStruct->PLL.PLLN - 1U)) ||
 957:Drivers/STM32H5xx_HAL_Driver/Src/stm32h5xx_hal_rcc.c ****           ((READ_BIT(temp2_pllckcfg, RCC_PLL1DIVR_PLL1P) >> \
 958:Drivers/STM32H5xx_HAL_Driver/Src/stm32h5xx_hal_rcc.c ****             RCC_PLL1DIVR_PLL1P_Pos) != (pOscInitStruct->PLL.PLLP - 1U)) ||
 959:Drivers/STM32H5xx_HAL_Driver/Src/stm32h5xx_hal_rcc.c ****           ((READ_BIT(temp2_pllckcfg, RCC_PLL1DIVR_PLL1Q) >> \
 960:Drivers/STM32H5xx_HAL_Driver/Src/stm32h5xx_hal_rcc.c ****             RCC_PLL1DIVR_PLL1Q_Pos) != (pOscInitStruct->PLL.PLLQ - 1U)) ||
 961:Drivers/STM32H5xx_HAL_Driver/Src/stm32h5xx_hal_rcc.c ****           ((READ_BIT(temp2_pllckcfg, RCC_PLL1DIVR_PLL1R) >> \
 962:Drivers/STM32H5xx_HAL_Driver/Src/stm32h5xx_hal_rcc.c ****             RCC_PLL1DIVR_PLL1R_Pos) != (pOscInitStruct->PLL.PLLR - 1U)))
 963:Drivers/STM32H5xx_HAL_Driver/Src/stm32h5xx_hal_rcc.c ****       {
 964:Drivers/STM32H5xx_HAL_Driver/Src/stm32h5xx_hal_rcc.c ****         return HAL_ERROR;
 965:Drivers/STM32H5xx_HAL_Driver/Src/stm32h5xx_hal_rcc.c ****       }
 966:Drivers/STM32H5xx_HAL_Driver/Src/stm32h5xx_hal_rcc.c **** 
 967:Drivers/STM32H5xx_HAL_Driver/Src/stm32h5xx_hal_rcc.c ****       /* FRACN1 on-the-fly value update */
 968:Drivers/STM32H5xx_HAL_Driver/Src/stm32h5xx_hal_rcc.c ****       if ((READ_BIT(RCC->PLL1FRACR, RCC_PLL1FRACR_PLL1FRACN) >> \
 969:Drivers/STM32H5xx_HAL_Driver/Src/stm32h5xx_hal_rcc.c ****            RCC_PLL1FRACR_PLL1FRACN_Pos) != (pOscInitStruct->PLL.PLLFRACN))
 970:Drivers/STM32H5xx_HAL_Driver/Src/stm32h5xx_hal_rcc.c ****       {
 971:Drivers/STM32H5xx_HAL_Driver/Src/stm32h5xx_hal_rcc.c ****         assert_param(IS_RCC_PLL1_FRACN_VALUE(pOscInitStruct->PLL.PLLFRACN));
 972:Drivers/STM32H5xx_HAL_Driver/Src/stm32h5xx_hal_rcc.c **** 
 973:Drivers/STM32H5xx_HAL_Driver/Src/stm32h5xx_hal_rcc.c ****         /* Disable PLL1FRACN . */
 974:Drivers/STM32H5xx_HAL_Driver/Src/stm32h5xx_hal_rcc.c ****         __HAL_RCC_PLL1_FRACN_DISABLE();
 975:Drivers/STM32H5xx_HAL_Driver/Src/stm32h5xx_hal_rcc.c **** 
 976:Drivers/STM32H5xx_HAL_Driver/Src/stm32h5xx_hal_rcc.c ****         /* Get Start Tick*/
 977:Drivers/STM32H5xx_HAL_Driver/Src/stm32h5xx_hal_rcc.c ****         tickstart = HAL_GetTick();
 978:Drivers/STM32H5xx_HAL_Driver/Src/stm32h5xx_hal_rcc.c **** 
 979:Drivers/STM32H5xx_HAL_Driver/Src/stm32h5xx_hal_rcc.c ****         /* Wait at least 2 CK_REF (PLL input source divided by M) period to make sure next latched 
 980:Drivers/STM32H5xx_HAL_Driver/Src/stm32h5xx_hal_rcc.c ****            will be taken into account. */
 981:Drivers/STM32H5xx_HAL_Driver/Src/stm32h5xx_hal_rcc.c ****         while ((HAL_GetTick() - tickstart) < RCC_PLL_FRAC_WAIT_VALUE)
 982:Drivers/STM32H5xx_HAL_Driver/Src/stm32h5xx_hal_rcc.c ****         {
 983:Drivers/STM32H5xx_HAL_Driver/Src/stm32h5xx_hal_rcc.c ****         }
 984:Drivers/STM32H5xx_HAL_Driver/Src/stm32h5xx_hal_rcc.c **** 
 985:Drivers/STM32H5xx_HAL_Driver/Src/stm32h5xx_hal_rcc.c ****         /* Configure PLL PLL1FRACN */
 986:Drivers/STM32H5xx_HAL_Driver/Src/stm32h5xx_hal_rcc.c ****         __HAL_RCC_PLL1_FRACN_CONFIG(pOscInitStruct->PLL.PLLFRACN);
 987:Drivers/STM32H5xx_HAL_Driver/Src/stm32h5xx_hal_rcc.c **** 
 988:Drivers/STM32H5xx_HAL_Driver/Src/stm32h5xx_hal_rcc.c ****         /* Enable PLL1FRACN to latch the new value. */
 989:Drivers/STM32H5xx_HAL_Driver/Src/stm32h5xx_hal_rcc.c ****         __HAL_RCC_PLL1_FRACN_ENABLE();
 990:Drivers/STM32H5xx_HAL_Driver/Src/stm32h5xx_hal_rcc.c ****       }
 991:Drivers/STM32H5xx_HAL_Driver/Src/stm32h5xx_hal_rcc.c **** 
 992:Drivers/STM32H5xx_HAL_Driver/Src/stm32h5xx_hal_rcc.c ****     }
 993:Drivers/STM32H5xx_HAL_Driver/Src/stm32h5xx_hal_rcc.c ****   }
 994:Drivers/STM32H5xx_HAL_Driver/Src/stm32h5xx_hal_rcc.c ****   return HAL_OK;
 995:Drivers/STM32H5xx_HAL_Driver/Src/stm32h5xx_hal_rcc.c **** }
 996:Drivers/STM32H5xx_HAL_Driver/Src/stm32h5xx_hal_rcc.c **** 
 997:Drivers/STM32H5xx_HAL_Driver/Src/stm32h5xx_hal_rcc.c **** /**
 998:Drivers/STM32H5xx_HAL_Driver/Src/stm32h5xx_hal_rcc.c ****   * @brief  Initialize the CPU, AHB and APB busses clocks according to the specified
 999:Drivers/STM32H5xx_HAL_Driver/Src/stm32h5xx_hal_rcc.c ****   *         parameters in the pClkInitStruct.
1000:Drivers/STM32H5xx_HAL_Driver/Src/stm32h5xx_hal_rcc.c ****   * @param  pClkInitStruct  pointer to an RCC_OscInitTypeDef structure that
1001:Drivers/STM32H5xx_HAL_Driver/Src/stm32h5xx_hal_rcc.c ****   *         contains the configuration information for the RCC peripheral.
ARM GAS  C:\Users\sapph\AppData\Local\Temp\ccD3KfzI.s 			page 25


1002:Drivers/STM32H5xx_HAL_Driver/Src/stm32h5xx_hal_rcc.c ****   * @param  FLatency  FLASH Latency
1003:Drivers/STM32H5xx_HAL_Driver/Src/stm32h5xx_hal_rcc.c ****   *          This parameter can be one of the following values:
1004:Drivers/STM32H5xx_HAL_Driver/Src/stm32h5xx_hal_rcc.c ****   *            @arg FLASH_LATENCY_0   FLASH 0 Latency cycle
1005:Drivers/STM32H5xx_HAL_Driver/Src/stm32h5xx_hal_rcc.c ****   *            @arg FLASH_LATENCY_1   FLASH 1 Latency cycle
1006:Drivers/STM32H5xx_HAL_Driver/Src/stm32h5xx_hal_rcc.c ****   *            @arg FLASH_LATENCY_2   FLASH 2 Latency cycles
1007:Drivers/STM32H5xx_HAL_Driver/Src/stm32h5xx_hal_rcc.c ****   *            @arg FLASH_LATENCY_3   FLASH 3 Latency cycles
1008:Drivers/STM32H5xx_HAL_Driver/Src/stm32h5xx_hal_rcc.c ****   *            @arg FLASH_LATENCY_4   FLASH 4 Latency cycles
1009:Drivers/STM32H5xx_HAL_Driver/Src/stm32h5xx_hal_rcc.c ****   *            @arg FLASH_LATENCY_5   FLASH 5 Latency cycles
1010:Drivers/STM32H5xx_HAL_Driver/Src/stm32h5xx_hal_rcc.c ****   *
1011:Drivers/STM32H5xx_HAL_Driver/Src/stm32h5xx_hal_rcc.c ****   * @note   The SystemCoreClock CMSIS variable is used to store System Clock Frequency
1012:Drivers/STM32H5xx_HAL_Driver/Src/stm32h5xx_hal_rcc.c ****   *         and updated by HAL_RCC_GetHCLKFreq() function called within this function
1013:Drivers/STM32H5xx_HAL_Driver/Src/stm32h5xx_hal_rcc.c ****   *
1014:Drivers/STM32H5xx_HAL_Driver/Src/stm32h5xx_hal_rcc.c ****   * @note   The HSI is used by default as system clock source after
1015:Drivers/STM32H5xx_HAL_Driver/Src/stm32h5xx_hal_rcc.c ****   *         startup from Reset, wake-up from STANDBY mode. After restart from Reset,
1016:Drivers/STM32H5xx_HAL_Driver/Src/stm32h5xx_hal_rcc.c ****   *         the HSI frequency is set to its default value 64 MHz.
1017:Drivers/STM32H5xx_HAL_Driver/Src/stm32h5xx_hal_rcc.c ****   *
1018:Drivers/STM32H5xx_HAL_Driver/Src/stm32h5xx_hal_rcc.c ****   * @note   The HSI or CSI can be selected as system clock source after wake-up
1019:Drivers/STM32H5xx_HAL_Driver/Src/stm32h5xx_hal_rcc.c ****   *         from STOP modes or in case of failure of the HSE when used directly or indirectly
1020:Drivers/STM32H5xx_HAL_Driver/Src/stm32h5xx_hal_rcc.c ****   *         as system clock (if the Clock Security System CSS is enabled).
1021:Drivers/STM32H5xx_HAL_Driver/Src/stm32h5xx_hal_rcc.c ****   *
1022:Drivers/STM32H5xx_HAL_Driver/Src/stm32h5xx_hal_rcc.c ****   * @note   A switch from one clock source to another occurs only if the target
1023:Drivers/STM32H5xx_HAL_Driver/Src/stm32h5xx_hal_rcc.c ****   *         clock source is ready (clock stable after startup delay or PLL locked).
1024:Drivers/STM32H5xx_HAL_Driver/Src/stm32h5xx_hal_rcc.c ****   *         If a clock source which is not yet ready is selected, the switch will
1025:Drivers/STM32H5xx_HAL_Driver/Src/stm32h5xx_hal_rcc.c ****   *         occur when the clock source is ready.
1026:Drivers/STM32H5xx_HAL_Driver/Src/stm32h5xx_hal_rcc.c ****   *
1027:Drivers/STM32H5xx_HAL_Driver/Src/stm32h5xx_hal_rcc.c ****   * @note   You can use HAL_RCC_GetClockConfig() function to know which clock is
1028:Drivers/STM32H5xx_HAL_Driver/Src/stm32h5xx_hal_rcc.c ****   *         currently used as system clock source.
1029:Drivers/STM32H5xx_HAL_Driver/Src/stm32h5xx_hal_rcc.c ****   *
1030:Drivers/STM32H5xx_HAL_Driver/Src/stm32h5xx_hal_rcc.c ****   * @retval HAL Status.
1031:Drivers/STM32H5xx_HAL_Driver/Src/stm32h5xx_hal_rcc.c ****   */
1032:Drivers/STM32H5xx_HAL_Driver/Src/stm32h5xx_hal_rcc.c **** HAL_StatusTypeDef HAL_RCC_ClockConfig(const RCC_ClkInitTypeDef  *pClkInitStruct, uint32_t FLatency)
1033:Drivers/STM32H5xx_HAL_Driver/Src/stm32h5xx_hal_rcc.c **** {
1034:Drivers/STM32H5xx_HAL_Driver/Src/stm32h5xx_hal_rcc.c ****   HAL_StatusTypeDef halstatus;
1035:Drivers/STM32H5xx_HAL_Driver/Src/stm32h5xx_hal_rcc.c ****   uint32_t tickstart;
1036:Drivers/STM32H5xx_HAL_Driver/Src/stm32h5xx_hal_rcc.c **** 
1037:Drivers/STM32H5xx_HAL_Driver/Src/stm32h5xx_hal_rcc.c ****   /* Check Null pointer */
1038:Drivers/STM32H5xx_HAL_Driver/Src/stm32h5xx_hal_rcc.c ****   if (pClkInitStruct == NULL)
1039:Drivers/STM32H5xx_HAL_Driver/Src/stm32h5xx_hal_rcc.c ****   {
1040:Drivers/STM32H5xx_HAL_Driver/Src/stm32h5xx_hal_rcc.c ****     return HAL_ERROR;
1041:Drivers/STM32H5xx_HAL_Driver/Src/stm32h5xx_hal_rcc.c ****   }
1042:Drivers/STM32H5xx_HAL_Driver/Src/stm32h5xx_hal_rcc.c **** 
1043:Drivers/STM32H5xx_HAL_Driver/Src/stm32h5xx_hal_rcc.c ****   /* Check the parameters */
1044:Drivers/STM32H5xx_HAL_Driver/Src/stm32h5xx_hal_rcc.c ****   assert_param(IS_RCC_CLOCKTYPE(pClkInitStruct->ClockType));
1045:Drivers/STM32H5xx_HAL_Driver/Src/stm32h5xx_hal_rcc.c ****   assert_param(IS_FLASH_LATENCY(FLatency));
1046:Drivers/STM32H5xx_HAL_Driver/Src/stm32h5xx_hal_rcc.c **** 
1047:Drivers/STM32H5xx_HAL_Driver/Src/stm32h5xx_hal_rcc.c ****   /* To correctly read data from FLASH memory, the number of wait states (LATENCY)
1048:Drivers/STM32H5xx_HAL_Driver/Src/stm32h5xx_hal_rcc.c ****     must be correctly programmed according to the frequency of the CPU clock
1049:Drivers/STM32H5xx_HAL_Driver/Src/stm32h5xx_hal_rcc.c ****     (HCLK) and the supply voltage of the device. */
1050:Drivers/STM32H5xx_HAL_Driver/Src/stm32h5xx_hal_rcc.c **** 
1051:Drivers/STM32H5xx_HAL_Driver/Src/stm32h5xx_hal_rcc.c ****   /* Increasing the number of wait states because of higher CPU frequency */
1052:Drivers/STM32H5xx_HAL_Driver/Src/stm32h5xx_hal_rcc.c ****   if (FLatency > __HAL_FLASH_GET_LATENCY())
1053:Drivers/STM32H5xx_HAL_Driver/Src/stm32h5xx_hal_rcc.c ****   {
1054:Drivers/STM32H5xx_HAL_Driver/Src/stm32h5xx_hal_rcc.c ****     /* Program the new number of wait states to the LATENCY bits in the FLASH_ACR register */
1055:Drivers/STM32H5xx_HAL_Driver/Src/stm32h5xx_hal_rcc.c ****     __HAL_FLASH_SET_LATENCY(FLatency);
1056:Drivers/STM32H5xx_HAL_Driver/Src/stm32h5xx_hal_rcc.c **** 
1057:Drivers/STM32H5xx_HAL_Driver/Src/stm32h5xx_hal_rcc.c ****     /* Check that the new number of wait states is taken into account to access the Flash
1058:Drivers/STM32H5xx_HAL_Driver/Src/stm32h5xx_hal_rcc.c ****     memory by reading the FLASH_ACR register */
ARM GAS  C:\Users\sapph\AppData\Local\Temp\ccD3KfzI.s 			page 26


1059:Drivers/STM32H5xx_HAL_Driver/Src/stm32h5xx_hal_rcc.c ****     if (__HAL_FLASH_GET_LATENCY() != FLatency)
1060:Drivers/STM32H5xx_HAL_Driver/Src/stm32h5xx_hal_rcc.c ****     {
1061:Drivers/STM32H5xx_HAL_Driver/Src/stm32h5xx_hal_rcc.c ****       return HAL_ERROR;
1062:Drivers/STM32H5xx_HAL_Driver/Src/stm32h5xx_hal_rcc.c ****     }
1063:Drivers/STM32H5xx_HAL_Driver/Src/stm32h5xx_hal_rcc.c ****   }
1064:Drivers/STM32H5xx_HAL_Driver/Src/stm32h5xx_hal_rcc.c **** 
1065:Drivers/STM32H5xx_HAL_Driver/Src/stm32h5xx_hal_rcc.c ****   /* Increasing the BUS frequency divider */
1066:Drivers/STM32H5xx_HAL_Driver/Src/stm32h5xx_hal_rcc.c ****   /*-------------------------- PCLK3 Configuration ---------------------------*/
1067:Drivers/STM32H5xx_HAL_Driver/Src/stm32h5xx_hal_rcc.c ****   if (((pClkInitStruct->ClockType) & RCC_CLOCKTYPE_PCLK3) == RCC_CLOCKTYPE_PCLK3)
1068:Drivers/STM32H5xx_HAL_Driver/Src/stm32h5xx_hal_rcc.c ****   {
1069:Drivers/STM32H5xx_HAL_Driver/Src/stm32h5xx_hal_rcc.c ****     if ((pClkInitStruct->APB3CLKDivider) > ((RCC->CFGR2 & RCC_CFGR2_PPRE3) >> 8))
1070:Drivers/STM32H5xx_HAL_Driver/Src/stm32h5xx_hal_rcc.c ****     {
1071:Drivers/STM32H5xx_HAL_Driver/Src/stm32h5xx_hal_rcc.c ****       assert_param(IS_RCC_PCLK(pClkInitStruct->APB3CLKDivider));
1072:Drivers/STM32H5xx_HAL_Driver/Src/stm32h5xx_hal_rcc.c ****       MODIFY_REG(RCC->CFGR2, RCC_CFGR2_PPRE3, ((pClkInitStruct->APB3CLKDivider) << 8));
1073:Drivers/STM32H5xx_HAL_Driver/Src/stm32h5xx_hal_rcc.c ****     }
1074:Drivers/STM32H5xx_HAL_Driver/Src/stm32h5xx_hal_rcc.c ****   }
1075:Drivers/STM32H5xx_HAL_Driver/Src/stm32h5xx_hal_rcc.c ****   /*-------------------------- PCLK2 Configuration ---------------------------*/
1076:Drivers/STM32H5xx_HAL_Driver/Src/stm32h5xx_hal_rcc.c ****   if (((pClkInitStruct->ClockType) & RCC_CLOCKTYPE_PCLK2) == RCC_CLOCKTYPE_PCLK2)
1077:Drivers/STM32H5xx_HAL_Driver/Src/stm32h5xx_hal_rcc.c ****   {
1078:Drivers/STM32H5xx_HAL_Driver/Src/stm32h5xx_hal_rcc.c ****     if ((pClkInitStruct->APB2CLKDivider) > ((RCC->CFGR2 & RCC_CFGR2_PPRE2) >> 4))
1079:Drivers/STM32H5xx_HAL_Driver/Src/stm32h5xx_hal_rcc.c ****     {
1080:Drivers/STM32H5xx_HAL_Driver/Src/stm32h5xx_hal_rcc.c ****       assert_param(IS_RCC_PCLK(pClkInitStruct->APB2CLKDivider));
1081:Drivers/STM32H5xx_HAL_Driver/Src/stm32h5xx_hal_rcc.c ****       MODIFY_REG(RCC->CFGR2, RCC_CFGR2_PPRE2, ((pClkInitStruct->APB2CLKDivider) << 4));
1082:Drivers/STM32H5xx_HAL_Driver/Src/stm32h5xx_hal_rcc.c ****     }
1083:Drivers/STM32H5xx_HAL_Driver/Src/stm32h5xx_hal_rcc.c ****   }
1084:Drivers/STM32H5xx_HAL_Driver/Src/stm32h5xx_hal_rcc.c **** 
1085:Drivers/STM32H5xx_HAL_Driver/Src/stm32h5xx_hal_rcc.c ****   /*-------------------------- PCLK1 Configuration ---------------------------*/
1086:Drivers/STM32H5xx_HAL_Driver/Src/stm32h5xx_hal_rcc.c ****   if (((pClkInitStruct->ClockType) & RCC_CLOCKTYPE_PCLK1) == RCC_CLOCKTYPE_PCLK1)
1087:Drivers/STM32H5xx_HAL_Driver/Src/stm32h5xx_hal_rcc.c ****   {
1088:Drivers/STM32H5xx_HAL_Driver/Src/stm32h5xx_hal_rcc.c ****     if ((pClkInitStruct->APB1CLKDivider) > (RCC->CFGR2 & RCC_CFGR2_PPRE1))
1089:Drivers/STM32H5xx_HAL_Driver/Src/stm32h5xx_hal_rcc.c ****     {
1090:Drivers/STM32H5xx_HAL_Driver/Src/stm32h5xx_hal_rcc.c ****       assert_param(IS_RCC_PCLK(pClkInitStruct->APB1CLKDivider));
1091:Drivers/STM32H5xx_HAL_Driver/Src/stm32h5xx_hal_rcc.c ****       MODIFY_REG(RCC->CFGR2, RCC_CFGR2_PPRE1, pClkInitStruct->APB1CLKDivider);
1092:Drivers/STM32H5xx_HAL_Driver/Src/stm32h5xx_hal_rcc.c ****     }
1093:Drivers/STM32H5xx_HAL_Driver/Src/stm32h5xx_hal_rcc.c ****   }
1094:Drivers/STM32H5xx_HAL_Driver/Src/stm32h5xx_hal_rcc.c **** 
1095:Drivers/STM32H5xx_HAL_Driver/Src/stm32h5xx_hal_rcc.c ****   /*-------------------------- HCLK Configuration --------------------------*/
1096:Drivers/STM32H5xx_HAL_Driver/Src/stm32h5xx_hal_rcc.c ****   if (((pClkInitStruct->ClockType) & RCC_CLOCKTYPE_HCLK) == RCC_CLOCKTYPE_HCLK)
1097:Drivers/STM32H5xx_HAL_Driver/Src/stm32h5xx_hal_rcc.c ****   {
1098:Drivers/STM32H5xx_HAL_Driver/Src/stm32h5xx_hal_rcc.c ****     if ((pClkInitStruct->AHBCLKDivider) > (RCC->CFGR2 & RCC_CFGR2_HPRE))
1099:Drivers/STM32H5xx_HAL_Driver/Src/stm32h5xx_hal_rcc.c ****     {
1100:Drivers/STM32H5xx_HAL_Driver/Src/stm32h5xx_hal_rcc.c ****       assert_param(IS_RCC_HCLK(pClkInitStruct->AHBCLKDivider));
1101:Drivers/STM32H5xx_HAL_Driver/Src/stm32h5xx_hal_rcc.c ****       MODIFY_REG(RCC->CFGR2, RCC_CFGR2_HPRE, pClkInitStruct->AHBCLKDivider);
1102:Drivers/STM32H5xx_HAL_Driver/Src/stm32h5xx_hal_rcc.c ****     }
1103:Drivers/STM32H5xx_HAL_Driver/Src/stm32h5xx_hal_rcc.c ****   }
1104:Drivers/STM32H5xx_HAL_Driver/Src/stm32h5xx_hal_rcc.c **** 
1105:Drivers/STM32H5xx_HAL_Driver/Src/stm32h5xx_hal_rcc.c ****   /*------------------------- SYSCLK Configuration ---------------------------*/
1106:Drivers/STM32H5xx_HAL_Driver/Src/stm32h5xx_hal_rcc.c ****   if (((pClkInitStruct->ClockType) & RCC_CLOCKTYPE_SYSCLK) == RCC_CLOCKTYPE_SYSCLK)
1107:Drivers/STM32H5xx_HAL_Driver/Src/stm32h5xx_hal_rcc.c ****   {
1108:Drivers/STM32H5xx_HAL_Driver/Src/stm32h5xx_hal_rcc.c ****     assert_param(IS_RCC_SYSCLKSOURCE(pClkInitStruct->SYSCLKSource));
1109:Drivers/STM32H5xx_HAL_Driver/Src/stm32h5xx_hal_rcc.c **** 
1110:Drivers/STM32H5xx_HAL_Driver/Src/stm32h5xx_hal_rcc.c ****     /* PLL is selected as System Clock Source */
1111:Drivers/STM32H5xx_HAL_Driver/Src/stm32h5xx_hal_rcc.c ****     if (pClkInitStruct->SYSCLKSource == RCC_SYSCLKSOURCE_PLLCLK)
1112:Drivers/STM32H5xx_HAL_Driver/Src/stm32h5xx_hal_rcc.c ****     {
1113:Drivers/STM32H5xx_HAL_Driver/Src/stm32h5xx_hal_rcc.c ****       /* Check the PLL ready flag */
1114:Drivers/STM32H5xx_HAL_Driver/Src/stm32h5xx_hal_rcc.c ****       if (READ_BIT(RCC->CR, RCC_CR_PLL1RDY) == 0U)
1115:Drivers/STM32H5xx_HAL_Driver/Src/stm32h5xx_hal_rcc.c ****       {
ARM GAS  C:\Users\sapph\AppData\Local\Temp\ccD3KfzI.s 			page 27


1116:Drivers/STM32H5xx_HAL_Driver/Src/stm32h5xx_hal_rcc.c ****         return HAL_ERROR;
1117:Drivers/STM32H5xx_HAL_Driver/Src/stm32h5xx_hal_rcc.c ****       }
1118:Drivers/STM32H5xx_HAL_Driver/Src/stm32h5xx_hal_rcc.c ****     }
1119:Drivers/STM32H5xx_HAL_Driver/Src/stm32h5xx_hal_rcc.c ****     else
1120:Drivers/STM32H5xx_HAL_Driver/Src/stm32h5xx_hal_rcc.c ****     {
1121:Drivers/STM32H5xx_HAL_Driver/Src/stm32h5xx_hal_rcc.c ****       /* HSE is selected as System Clock Source */
1122:Drivers/STM32H5xx_HAL_Driver/Src/stm32h5xx_hal_rcc.c ****       if (pClkInitStruct->SYSCLKSource == RCC_SYSCLKSOURCE_HSE)
1123:Drivers/STM32H5xx_HAL_Driver/Src/stm32h5xx_hal_rcc.c ****       {
1124:Drivers/STM32H5xx_HAL_Driver/Src/stm32h5xx_hal_rcc.c ****         /* Check the HSE ready flag */
1125:Drivers/STM32H5xx_HAL_Driver/Src/stm32h5xx_hal_rcc.c ****         if (READ_BIT(RCC->CR, RCC_CR_HSERDY) == 0U)
1126:Drivers/STM32H5xx_HAL_Driver/Src/stm32h5xx_hal_rcc.c ****         {
1127:Drivers/STM32H5xx_HAL_Driver/Src/stm32h5xx_hal_rcc.c ****           return HAL_ERROR;
1128:Drivers/STM32H5xx_HAL_Driver/Src/stm32h5xx_hal_rcc.c ****         }
1129:Drivers/STM32H5xx_HAL_Driver/Src/stm32h5xx_hal_rcc.c ****       }
1130:Drivers/STM32H5xx_HAL_Driver/Src/stm32h5xx_hal_rcc.c ****       /* CSI is selected as System Clock Source */
1131:Drivers/STM32H5xx_HAL_Driver/Src/stm32h5xx_hal_rcc.c ****       else if (pClkInitStruct->SYSCLKSource == RCC_SYSCLKSOURCE_CSI)
1132:Drivers/STM32H5xx_HAL_Driver/Src/stm32h5xx_hal_rcc.c ****       {
1133:Drivers/STM32H5xx_HAL_Driver/Src/stm32h5xx_hal_rcc.c ****         /* Check the CSI ready flag */
1134:Drivers/STM32H5xx_HAL_Driver/Src/stm32h5xx_hal_rcc.c ****         if (READ_BIT(RCC->CR, RCC_CR_CSIRDY) == 0U)
1135:Drivers/STM32H5xx_HAL_Driver/Src/stm32h5xx_hal_rcc.c ****         {
1136:Drivers/STM32H5xx_HAL_Driver/Src/stm32h5xx_hal_rcc.c ****           return HAL_ERROR;
1137:Drivers/STM32H5xx_HAL_Driver/Src/stm32h5xx_hal_rcc.c ****         }
1138:Drivers/STM32H5xx_HAL_Driver/Src/stm32h5xx_hal_rcc.c ****       }
1139:Drivers/STM32H5xx_HAL_Driver/Src/stm32h5xx_hal_rcc.c ****       /* HSI is selected as System Clock Source */
1140:Drivers/STM32H5xx_HAL_Driver/Src/stm32h5xx_hal_rcc.c ****       else
1141:Drivers/STM32H5xx_HAL_Driver/Src/stm32h5xx_hal_rcc.c ****       {
1142:Drivers/STM32H5xx_HAL_Driver/Src/stm32h5xx_hal_rcc.c ****         /* Check the HSI ready flag */
1143:Drivers/STM32H5xx_HAL_Driver/Src/stm32h5xx_hal_rcc.c ****         if (READ_BIT(RCC->CR, RCC_CR_HSIRDY) == 0U)
1144:Drivers/STM32H5xx_HAL_Driver/Src/stm32h5xx_hal_rcc.c ****         {
1145:Drivers/STM32H5xx_HAL_Driver/Src/stm32h5xx_hal_rcc.c ****           return HAL_ERROR;
1146:Drivers/STM32H5xx_HAL_Driver/Src/stm32h5xx_hal_rcc.c ****         }
1147:Drivers/STM32H5xx_HAL_Driver/Src/stm32h5xx_hal_rcc.c ****       }
1148:Drivers/STM32H5xx_HAL_Driver/Src/stm32h5xx_hal_rcc.c ****     }
1149:Drivers/STM32H5xx_HAL_Driver/Src/stm32h5xx_hal_rcc.c **** 
1150:Drivers/STM32H5xx_HAL_Driver/Src/stm32h5xx_hal_rcc.c ****     MODIFY_REG(RCC->CFGR1, RCC_CFGR1_SW, pClkInitStruct->SYSCLKSource);
1151:Drivers/STM32H5xx_HAL_Driver/Src/stm32h5xx_hal_rcc.c **** 
1152:Drivers/STM32H5xx_HAL_Driver/Src/stm32h5xx_hal_rcc.c ****     /* Get Start Tick*/
1153:Drivers/STM32H5xx_HAL_Driver/Src/stm32h5xx_hal_rcc.c ****     tickstart = HAL_GetTick();
1154:Drivers/STM32H5xx_HAL_Driver/Src/stm32h5xx_hal_rcc.c **** 
1155:Drivers/STM32H5xx_HAL_Driver/Src/stm32h5xx_hal_rcc.c ****     if (pClkInitStruct->SYSCLKSource == RCC_SYSCLKSOURCE_PLLCLK)
1156:Drivers/STM32H5xx_HAL_Driver/Src/stm32h5xx_hal_rcc.c ****     {
1157:Drivers/STM32H5xx_HAL_Driver/Src/stm32h5xx_hal_rcc.c ****       while (__HAL_RCC_GET_SYSCLK_SOURCE() != RCC_SYSCLKSOURCE_STATUS_PLLCLK)
1158:Drivers/STM32H5xx_HAL_Driver/Src/stm32h5xx_hal_rcc.c ****       {
1159:Drivers/STM32H5xx_HAL_Driver/Src/stm32h5xx_hal_rcc.c ****         if ((HAL_GetTick() - tickstart) > RCC_CLOCKSWITCH_TIMEOUT_VALUE)
1160:Drivers/STM32H5xx_HAL_Driver/Src/stm32h5xx_hal_rcc.c ****         {
1161:Drivers/STM32H5xx_HAL_Driver/Src/stm32h5xx_hal_rcc.c ****           return HAL_TIMEOUT;
1162:Drivers/STM32H5xx_HAL_Driver/Src/stm32h5xx_hal_rcc.c ****         }
1163:Drivers/STM32H5xx_HAL_Driver/Src/stm32h5xx_hal_rcc.c ****       }
1164:Drivers/STM32H5xx_HAL_Driver/Src/stm32h5xx_hal_rcc.c ****     }
1165:Drivers/STM32H5xx_HAL_Driver/Src/stm32h5xx_hal_rcc.c ****     else
1166:Drivers/STM32H5xx_HAL_Driver/Src/stm32h5xx_hal_rcc.c ****     {
1167:Drivers/STM32H5xx_HAL_Driver/Src/stm32h5xx_hal_rcc.c ****       if (pClkInitStruct->SYSCLKSource == RCC_SYSCLKSOURCE_HSE)
1168:Drivers/STM32H5xx_HAL_Driver/Src/stm32h5xx_hal_rcc.c ****       {
1169:Drivers/STM32H5xx_HAL_Driver/Src/stm32h5xx_hal_rcc.c ****         while (__HAL_RCC_GET_SYSCLK_SOURCE() != RCC_SYSCLKSOURCE_STATUS_HSE)
1170:Drivers/STM32H5xx_HAL_Driver/Src/stm32h5xx_hal_rcc.c ****         {
1171:Drivers/STM32H5xx_HAL_Driver/Src/stm32h5xx_hal_rcc.c ****           if ((HAL_GetTick() - tickstart) > RCC_CLOCKSWITCH_TIMEOUT_VALUE)
1172:Drivers/STM32H5xx_HAL_Driver/Src/stm32h5xx_hal_rcc.c ****           {
ARM GAS  C:\Users\sapph\AppData\Local\Temp\ccD3KfzI.s 			page 28


1173:Drivers/STM32H5xx_HAL_Driver/Src/stm32h5xx_hal_rcc.c ****             return HAL_TIMEOUT;
1174:Drivers/STM32H5xx_HAL_Driver/Src/stm32h5xx_hal_rcc.c ****           }
1175:Drivers/STM32H5xx_HAL_Driver/Src/stm32h5xx_hal_rcc.c ****         }
1176:Drivers/STM32H5xx_HAL_Driver/Src/stm32h5xx_hal_rcc.c ****       }
1177:Drivers/STM32H5xx_HAL_Driver/Src/stm32h5xx_hal_rcc.c ****       else if (pClkInitStruct->SYSCLKSource == RCC_SYSCLKSOURCE_CSI)
1178:Drivers/STM32H5xx_HAL_Driver/Src/stm32h5xx_hal_rcc.c ****       {
1179:Drivers/STM32H5xx_HAL_Driver/Src/stm32h5xx_hal_rcc.c ****         while (__HAL_RCC_GET_SYSCLK_SOURCE() != RCC_SYSCLKSOURCE_STATUS_CSI)
1180:Drivers/STM32H5xx_HAL_Driver/Src/stm32h5xx_hal_rcc.c ****         {
1181:Drivers/STM32H5xx_HAL_Driver/Src/stm32h5xx_hal_rcc.c ****           if ((HAL_GetTick() - tickstart) > RCC_CLOCKSWITCH_TIMEOUT_VALUE)
1182:Drivers/STM32H5xx_HAL_Driver/Src/stm32h5xx_hal_rcc.c ****           {
1183:Drivers/STM32H5xx_HAL_Driver/Src/stm32h5xx_hal_rcc.c ****             return HAL_TIMEOUT;
1184:Drivers/STM32H5xx_HAL_Driver/Src/stm32h5xx_hal_rcc.c ****           }
1185:Drivers/STM32H5xx_HAL_Driver/Src/stm32h5xx_hal_rcc.c ****         }
1186:Drivers/STM32H5xx_HAL_Driver/Src/stm32h5xx_hal_rcc.c ****       }
1187:Drivers/STM32H5xx_HAL_Driver/Src/stm32h5xx_hal_rcc.c ****       else
1188:Drivers/STM32H5xx_HAL_Driver/Src/stm32h5xx_hal_rcc.c ****       {
1189:Drivers/STM32H5xx_HAL_Driver/Src/stm32h5xx_hal_rcc.c ****         while (__HAL_RCC_GET_SYSCLK_SOURCE() != RCC_SYSCLKSOURCE_STATUS_HSI)
1190:Drivers/STM32H5xx_HAL_Driver/Src/stm32h5xx_hal_rcc.c ****         {
1191:Drivers/STM32H5xx_HAL_Driver/Src/stm32h5xx_hal_rcc.c ****           if ((HAL_GetTick() - tickstart) > RCC_CLOCKSWITCH_TIMEOUT_VALUE)
1192:Drivers/STM32H5xx_HAL_Driver/Src/stm32h5xx_hal_rcc.c ****           {
1193:Drivers/STM32H5xx_HAL_Driver/Src/stm32h5xx_hal_rcc.c ****             return HAL_TIMEOUT;
1194:Drivers/STM32H5xx_HAL_Driver/Src/stm32h5xx_hal_rcc.c ****           }
1195:Drivers/STM32H5xx_HAL_Driver/Src/stm32h5xx_hal_rcc.c ****         }
1196:Drivers/STM32H5xx_HAL_Driver/Src/stm32h5xx_hal_rcc.c ****       }
1197:Drivers/STM32H5xx_HAL_Driver/Src/stm32h5xx_hal_rcc.c ****     }
1198:Drivers/STM32H5xx_HAL_Driver/Src/stm32h5xx_hal_rcc.c ****   }
1199:Drivers/STM32H5xx_HAL_Driver/Src/stm32h5xx_hal_rcc.c **** 
1200:Drivers/STM32H5xx_HAL_Driver/Src/stm32h5xx_hal_rcc.c ****   /* Decreasing the BUS frequency divider */
1201:Drivers/STM32H5xx_HAL_Driver/Src/stm32h5xx_hal_rcc.c ****   /*-------------------------- HCLK Configuration --------------------------*/
1202:Drivers/STM32H5xx_HAL_Driver/Src/stm32h5xx_hal_rcc.c ****   if (((pClkInitStruct->ClockType) & RCC_CLOCKTYPE_HCLK) == RCC_CLOCKTYPE_HCLK)
1203:Drivers/STM32H5xx_HAL_Driver/Src/stm32h5xx_hal_rcc.c ****   {
1204:Drivers/STM32H5xx_HAL_Driver/Src/stm32h5xx_hal_rcc.c ****     if ((pClkInitStruct->AHBCLKDivider) < (RCC->CFGR2 & RCC_CFGR2_HPRE))
1205:Drivers/STM32H5xx_HAL_Driver/Src/stm32h5xx_hal_rcc.c ****     {
1206:Drivers/STM32H5xx_HAL_Driver/Src/stm32h5xx_hal_rcc.c ****       assert_param(IS_RCC_HCLK(pClkInitStruct->AHBCLKDivider));
1207:Drivers/STM32H5xx_HAL_Driver/Src/stm32h5xx_hal_rcc.c ****       MODIFY_REG(RCC->CFGR2, RCC_CFGR2_HPRE, pClkInitStruct->AHBCLKDivider);
1208:Drivers/STM32H5xx_HAL_Driver/Src/stm32h5xx_hal_rcc.c ****     }
1209:Drivers/STM32H5xx_HAL_Driver/Src/stm32h5xx_hal_rcc.c ****   }
1210:Drivers/STM32H5xx_HAL_Driver/Src/stm32h5xx_hal_rcc.c **** 
1211:Drivers/STM32H5xx_HAL_Driver/Src/stm32h5xx_hal_rcc.c ****   /* Decreasing the number of wait states because of lower CPU frequency */
1212:Drivers/STM32H5xx_HAL_Driver/Src/stm32h5xx_hal_rcc.c ****   if (FLatency < __HAL_FLASH_GET_LATENCY())
1213:Drivers/STM32H5xx_HAL_Driver/Src/stm32h5xx_hal_rcc.c ****   {
1214:Drivers/STM32H5xx_HAL_Driver/Src/stm32h5xx_hal_rcc.c ****     /* Program the new number of wait states to the LATENCY bits in the FLASH_ACR register */
1215:Drivers/STM32H5xx_HAL_Driver/Src/stm32h5xx_hal_rcc.c ****     __HAL_FLASH_SET_LATENCY(FLatency);
1216:Drivers/STM32H5xx_HAL_Driver/Src/stm32h5xx_hal_rcc.c **** 
1217:Drivers/STM32H5xx_HAL_Driver/Src/stm32h5xx_hal_rcc.c ****     /* Check that the new number of wait states is taken into account to access the Flash
1218:Drivers/STM32H5xx_HAL_Driver/Src/stm32h5xx_hal_rcc.c ****     memory by reading the FLASH_ACR register */
1219:Drivers/STM32H5xx_HAL_Driver/Src/stm32h5xx_hal_rcc.c ****     if (__HAL_FLASH_GET_LATENCY() != FLatency)
1220:Drivers/STM32H5xx_HAL_Driver/Src/stm32h5xx_hal_rcc.c ****     {
1221:Drivers/STM32H5xx_HAL_Driver/Src/stm32h5xx_hal_rcc.c ****       return HAL_ERROR;
1222:Drivers/STM32H5xx_HAL_Driver/Src/stm32h5xx_hal_rcc.c ****     }
1223:Drivers/STM32H5xx_HAL_Driver/Src/stm32h5xx_hal_rcc.c ****   }
1224:Drivers/STM32H5xx_HAL_Driver/Src/stm32h5xx_hal_rcc.c **** 
1225:Drivers/STM32H5xx_HAL_Driver/Src/stm32h5xx_hal_rcc.c ****   /*-------------------------- PCLK1 Configuration ---------------------------*/
1226:Drivers/STM32H5xx_HAL_Driver/Src/stm32h5xx_hal_rcc.c ****   if (((pClkInitStruct->ClockType) & RCC_CLOCKTYPE_PCLK1) == RCC_CLOCKTYPE_PCLK1)
1227:Drivers/STM32H5xx_HAL_Driver/Src/stm32h5xx_hal_rcc.c ****   {
1228:Drivers/STM32H5xx_HAL_Driver/Src/stm32h5xx_hal_rcc.c ****     if ((pClkInitStruct->APB1CLKDivider) < (RCC->CFGR2 & RCC_CFGR2_PPRE1))
1229:Drivers/STM32H5xx_HAL_Driver/Src/stm32h5xx_hal_rcc.c ****     {
ARM GAS  C:\Users\sapph\AppData\Local\Temp\ccD3KfzI.s 			page 29


1230:Drivers/STM32H5xx_HAL_Driver/Src/stm32h5xx_hal_rcc.c ****       assert_param(IS_RCC_PCLK(pClkInitStruct->APB1CLKDivider));
1231:Drivers/STM32H5xx_HAL_Driver/Src/stm32h5xx_hal_rcc.c ****       MODIFY_REG(RCC->CFGR2, RCC_CFGR2_PPRE1, pClkInitStruct->APB1CLKDivider);
1232:Drivers/STM32H5xx_HAL_Driver/Src/stm32h5xx_hal_rcc.c ****     }
1233:Drivers/STM32H5xx_HAL_Driver/Src/stm32h5xx_hal_rcc.c ****   }
1234:Drivers/STM32H5xx_HAL_Driver/Src/stm32h5xx_hal_rcc.c **** 
1235:Drivers/STM32H5xx_HAL_Driver/Src/stm32h5xx_hal_rcc.c ****   /*-------------------------- PCLK2 Configuration ---------------------------*/
1236:Drivers/STM32H5xx_HAL_Driver/Src/stm32h5xx_hal_rcc.c ****   if (((pClkInitStruct->ClockType) & RCC_CLOCKTYPE_PCLK2) == RCC_CLOCKTYPE_PCLK2)
1237:Drivers/STM32H5xx_HAL_Driver/Src/stm32h5xx_hal_rcc.c ****   {
1238:Drivers/STM32H5xx_HAL_Driver/Src/stm32h5xx_hal_rcc.c ****     if ((pClkInitStruct->APB2CLKDivider) < ((RCC->CFGR2 & RCC_CFGR2_PPRE2) >> 4))
1239:Drivers/STM32H5xx_HAL_Driver/Src/stm32h5xx_hal_rcc.c ****     {
1240:Drivers/STM32H5xx_HAL_Driver/Src/stm32h5xx_hal_rcc.c ****       assert_param(IS_RCC_PCLK(pClkInitStruct->APB2CLKDivider));
1241:Drivers/STM32H5xx_HAL_Driver/Src/stm32h5xx_hal_rcc.c ****       MODIFY_REG(RCC->CFGR2, RCC_CFGR2_PPRE2, ((pClkInitStruct->APB2CLKDivider) << 4));
1242:Drivers/STM32H5xx_HAL_Driver/Src/stm32h5xx_hal_rcc.c ****     }
1243:Drivers/STM32H5xx_HAL_Driver/Src/stm32h5xx_hal_rcc.c ****   }
1244:Drivers/STM32H5xx_HAL_Driver/Src/stm32h5xx_hal_rcc.c **** 
1245:Drivers/STM32H5xx_HAL_Driver/Src/stm32h5xx_hal_rcc.c ****   /*-------------------------- PCLK3 Configuration ---------------------------*/
1246:Drivers/STM32H5xx_HAL_Driver/Src/stm32h5xx_hal_rcc.c ****   if (((pClkInitStruct->ClockType) & RCC_CLOCKTYPE_PCLK3) == RCC_CLOCKTYPE_PCLK3)
1247:Drivers/STM32H5xx_HAL_Driver/Src/stm32h5xx_hal_rcc.c ****   {
1248:Drivers/STM32H5xx_HAL_Driver/Src/stm32h5xx_hal_rcc.c ****     if ((pClkInitStruct->APB3CLKDivider) < ((RCC->CFGR2 & RCC_CFGR2_PPRE3) >> 8))
1249:Drivers/STM32H5xx_HAL_Driver/Src/stm32h5xx_hal_rcc.c ****     {
1250:Drivers/STM32H5xx_HAL_Driver/Src/stm32h5xx_hal_rcc.c ****       assert_param(IS_RCC_PCLK(pClkInitStruct->APB3CLKDivider));
1251:Drivers/STM32H5xx_HAL_Driver/Src/stm32h5xx_hal_rcc.c ****       MODIFY_REG(RCC->CFGR2, RCC_CFGR2_PPRE3, ((pClkInitStruct->APB3CLKDivider) << 8));
1252:Drivers/STM32H5xx_HAL_Driver/Src/stm32h5xx_hal_rcc.c ****     }
1253:Drivers/STM32H5xx_HAL_Driver/Src/stm32h5xx_hal_rcc.c ****   }
1254:Drivers/STM32H5xx_HAL_Driver/Src/stm32h5xx_hal_rcc.c **** 
1255:Drivers/STM32H5xx_HAL_Driver/Src/stm32h5xx_hal_rcc.c ****   /* Update the SystemCoreClock global variable */
1256:Drivers/STM32H5xx_HAL_Driver/Src/stm32h5xx_hal_rcc.c ****   SystemCoreClock = HAL_RCC_GetSysClockFreq() >> AHBPrescTable[(RCC->CFGR2 & RCC_CFGR2_HPRE) >> RCC
1257:Drivers/STM32H5xx_HAL_Driver/Src/stm32h5xx_hal_rcc.c **** 
1258:Drivers/STM32H5xx_HAL_Driver/Src/stm32h5xx_hal_rcc.c ****   /* Configure the source of time base considering new system clocks settings*/
1259:Drivers/STM32H5xx_HAL_Driver/Src/stm32h5xx_hal_rcc.c ****   halstatus = HAL_InitTick(uwTickPrio);
1260:Drivers/STM32H5xx_HAL_Driver/Src/stm32h5xx_hal_rcc.c **** 
1261:Drivers/STM32H5xx_HAL_Driver/Src/stm32h5xx_hal_rcc.c ****   return halstatus;
1262:Drivers/STM32H5xx_HAL_Driver/Src/stm32h5xx_hal_rcc.c **** }
1263:Drivers/STM32H5xx_HAL_Driver/Src/stm32h5xx_hal_rcc.c **** 
1264:Drivers/STM32H5xx_HAL_Driver/Src/stm32h5xx_hal_rcc.c **** /**
1265:Drivers/STM32H5xx_HAL_Driver/Src/stm32h5xx_hal_rcc.c ****   * @}
1266:Drivers/STM32H5xx_HAL_Driver/Src/stm32h5xx_hal_rcc.c ****   */
1267:Drivers/STM32H5xx_HAL_Driver/Src/stm32h5xx_hal_rcc.c **** 
1268:Drivers/STM32H5xx_HAL_Driver/Src/stm32h5xx_hal_rcc.c **** /** @defgroup RCC_Exported_Functions_Group2 Peripheral Control functions
1269:Drivers/STM32H5xx_HAL_Driver/Src/stm32h5xx_hal_rcc.c ****   *  @brief   RCC clocks control functions
1270:Drivers/STM32H5xx_HAL_Driver/Src/stm32h5xx_hal_rcc.c ****   *
1271:Drivers/STM32H5xx_HAL_Driver/Src/stm32h5xx_hal_rcc.c **** @verbatim
1272:Drivers/STM32H5xx_HAL_Driver/Src/stm32h5xx_hal_rcc.c ****  ===============================================================================
1273:Drivers/STM32H5xx_HAL_Driver/Src/stm32h5xx_hal_rcc.c ****                       ##### Peripheral Control functions #####
1274:Drivers/STM32H5xx_HAL_Driver/Src/stm32h5xx_hal_rcc.c ****  ===============================================================================
1275:Drivers/STM32H5xx_HAL_Driver/Src/stm32h5xx_hal_rcc.c ****     [..]
1276:Drivers/STM32H5xx_HAL_Driver/Src/stm32h5xx_hal_rcc.c ****     This subsection provides a set of functions allowing to:
1277:Drivers/STM32H5xx_HAL_Driver/Src/stm32h5xx_hal_rcc.c **** 
1278:Drivers/STM32H5xx_HAL_Driver/Src/stm32h5xx_hal_rcc.c ****     (+) Output clock to MCO pin.
1279:Drivers/STM32H5xx_HAL_Driver/Src/stm32h5xx_hal_rcc.c ****     (+) Retrieve current clock frequencies.
1280:Drivers/STM32H5xx_HAL_Driver/Src/stm32h5xx_hal_rcc.c ****     (+) Enable the Clock Security System.
1281:Drivers/STM32H5xx_HAL_Driver/Src/stm32h5xx_hal_rcc.c **** 
1282:Drivers/STM32H5xx_HAL_Driver/Src/stm32h5xx_hal_rcc.c **** @endverbatim
1283:Drivers/STM32H5xx_HAL_Driver/Src/stm32h5xx_hal_rcc.c ****   * @{
1284:Drivers/STM32H5xx_HAL_Driver/Src/stm32h5xx_hal_rcc.c ****   */
1285:Drivers/STM32H5xx_HAL_Driver/Src/stm32h5xx_hal_rcc.c **** 
1286:Drivers/STM32H5xx_HAL_Driver/Src/stm32h5xx_hal_rcc.c **** /**
ARM GAS  C:\Users\sapph\AppData\Local\Temp\ccD3KfzI.s 			page 30


1287:Drivers/STM32H5xx_HAL_Driver/Src/stm32h5xx_hal_rcc.c ****   * @brief  Select the clock source to output on MCO1 pin(PA8) or on MCO2 pin(PC9).
1288:Drivers/STM32H5xx_HAL_Driver/Src/stm32h5xx_hal_rcc.c ****   * @note   PA8/PC9 should be configured in alternate function mode.
1289:Drivers/STM32H5xx_HAL_Driver/Src/stm32h5xx_hal_rcc.c ****   * @param  RCC_MCOx  specifies the output direction for the clock source.
1290:Drivers/STM32H5xx_HAL_Driver/Src/stm32h5xx_hal_rcc.c ****   *          For STM32H5xx family this parameter can have only one value:
1291:Drivers/STM32H5xx_HAL_Driver/Src/stm32h5xx_hal_rcc.c ****   *            @arg @ref RCC_MCO1  Clock source to output on MCO1 pin(PA8).
1292:Drivers/STM32H5xx_HAL_Driver/Src/stm32h5xx_hal_rcc.c ****   *            @arg @ref RCC_MCO2  Clock source to output on MCO2 pin(PC9).
1293:Drivers/STM32H5xx_HAL_Driver/Src/stm32h5xx_hal_rcc.c ****   * @param  RCC_MCOSource  specifies the clock source to output.
1294:Drivers/STM32H5xx_HAL_Driver/Src/stm32h5xx_hal_rcc.c ****   *          This parameter can be one of the following values:
1295:Drivers/STM32H5xx_HAL_Driver/Src/stm32h5xx_hal_rcc.c ****   *            @arg RCC_MCO1SOURCE_HSI: HSI clock selected as MCO1 source
1296:Drivers/STM32H5xx_HAL_Driver/Src/stm32h5xx_hal_rcc.c ****   *            @arg RCC_MCO1SOURCE_LSE: LSE clock selected as MCO1 source
1297:Drivers/STM32H5xx_HAL_Driver/Src/stm32h5xx_hal_rcc.c ****   *            @arg RCC_MCO1SOURCE_HSE: HSE clock selected as MCO1 source
1298:Drivers/STM32H5xx_HAL_Driver/Src/stm32h5xx_hal_rcc.c ****   *            @arg RCC_MCO1SOURCE_PLL1QCLK:  PLL1Q clock selected as MCO1 source
1299:Drivers/STM32H5xx_HAL_Driver/Src/stm32h5xx_hal_rcc.c ****   *            @arg RCC_MCO1SOURCE_HSI48: HSI48 (48MHZ) selected as MCO1 source
1300:Drivers/STM32H5xx_HAL_Driver/Src/stm32h5xx_hal_rcc.c ****   *            @arg RCC_MCO2SOURCE_SYSCLK: System clock (SYSCLK) selected as MCO2 source
1301:Drivers/STM32H5xx_HAL_Driver/Src/stm32h5xx_hal_rcc.c ****   *            @arg RCC_MCO2SOURCE_PLL2PCLK: PLL2P clock selected as MCO2 source
1302:Drivers/STM32H5xx_HAL_Driver/Src/stm32h5xx_hal_rcc.c ****   *            @arg RCC_MCO2SOURCE_HSE: HSE clock selected as MCO2 source
1303:Drivers/STM32H5xx_HAL_Driver/Src/stm32h5xx_hal_rcc.c ****   *            @arg RCC_MCO2SOURCE_PLL1PCLK:  PLL1P clock selected as MCO2 source
1304:Drivers/STM32H5xx_HAL_Driver/Src/stm32h5xx_hal_rcc.c ****   *            @arg RCC_MCO2SOURCE_CSI:  CSI clock selected as MCO2 source
1305:Drivers/STM32H5xx_HAL_Driver/Src/stm32h5xx_hal_rcc.c ****   *            @arg RCC_MCO2SOURCE_LSI:  LSI clock selected as MCO2 source
1306:Drivers/STM32H5xx_HAL_Driver/Src/stm32h5xx_hal_rcc.c ****   * @param  RCC_MCODiv  specifies the MCO prescaler.
1307:Drivers/STM32H5xx_HAL_Driver/Src/stm32h5xx_hal_rcc.c ****   *          This parameter can be one of the following values:
1308:Drivers/STM32H5xx_HAL_Driver/Src/stm32h5xx_hal_rcc.c ****   *            @arg RCC_MCODIV_1 up to RCC_MCODIV_15  : divider applied to MCOx clock
1309:Drivers/STM32H5xx_HAL_Driver/Src/stm32h5xx_hal_rcc.c ****   * @retval None
1310:Drivers/STM32H5xx_HAL_Driver/Src/stm32h5xx_hal_rcc.c ****   */
1311:Drivers/STM32H5xx_HAL_Driver/Src/stm32h5xx_hal_rcc.c **** void HAL_RCC_MCOConfig(uint32_t RCC_MCOx, uint32_t RCC_MCOSource, uint32_t RCC_MCODiv)
1312:Drivers/STM32H5xx_HAL_Driver/Src/stm32h5xx_hal_rcc.c **** {
 369              		.loc 1 1312 1 is_stmt 1 view -0
 370              		.cfi_startproc
 371              		@ args = 0, pretend = 0, frame = 32
 372              		@ frame_needed = 0, uses_anonymous_args = 0
 373              		.loc 1 1312 1 is_stmt 0 view .LVU108
 374 0000 70B5     		push	{r4, r5, r6, lr}
 375              		.cfi_def_cfa_offset 16
 376              		.cfi_offset 4, -16
 377              		.cfi_offset 5, -12
 378              		.cfi_offset 6, -8
 379              		.cfi_offset 14, -4
 380 0002 88B0     		sub	sp, sp, #32
 381              		.cfi_def_cfa_offset 48
 382 0004 0C46     		mov	r4, r1
 383 0006 1546     		mov	r5, r2
1313:Drivers/STM32H5xx_HAL_Driver/Src/stm32h5xx_hal_rcc.c ****   GPIO_InitTypeDef GPIO_InitStruct;
 384              		.loc 1 1313 3 is_stmt 1 view .LVU109
1314:Drivers/STM32H5xx_HAL_Driver/Src/stm32h5xx_hal_rcc.c ****   /* Check the parameters */
1315:Drivers/STM32H5xx_HAL_Driver/Src/stm32h5xx_hal_rcc.c ****   assert_param(IS_RCC_MCO(RCC_MCOx));
 385              		.loc 1 1315 3 view .LVU110
1316:Drivers/STM32H5xx_HAL_Driver/Src/stm32h5xx_hal_rcc.c ****   assert_param(IS_RCC_MCODIV(RCC_MCODiv));
 386              		.loc 1 1316 3 view .LVU111
1317:Drivers/STM32H5xx_HAL_Driver/Src/stm32h5xx_hal_rcc.c ****   /* RCC_MCO1 */
1318:Drivers/STM32H5xx_HAL_Driver/Src/stm32h5xx_hal_rcc.c ****   if (RCC_MCOx == RCC_MCO1)
 387              		.loc 1 1318 3 view .LVU112
 388              		.loc 1 1318 6 is_stmt 0 view .LVU113
 389 0008 10BB     		cbnz	r0, .L33
1319:Drivers/STM32H5xx_HAL_Driver/Src/stm32h5xx_hal_rcc.c ****   {
1320:Drivers/STM32H5xx_HAL_Driver/Src/stm32h5xx_hal_rcc.c ****     assert_param(IS_RCC_MCO1SOURCE(RCC_MCOSource));
 390              		.loc 1 1320 5 is_stmt 1 view .LVU114
1321:Drivers/STM32H5xx_HAL_Driver/Src/stm32h5xx_hal_rcc.c **** 
ARM GAS  C:\Users\sapph\AppData\Local\Temp\ccD3KfzI.s 			page 31


1322:Drivers/STM32H5xx_HAL_Driver/Src/stm32h5xx_hal_rcc.c ****     /* MCO1 Clock Enable */
1323:Drivers/STM32H5xx_HAL_Driver/Src/stm32h5xx_hal_rcc.c ****     MCO1_CLK_ENABLE();
 391              		.loc 1 1323 5 view .LVU115
 392              	.LBB2:
 393              		.loc 1 1323 5 view .LVU116
 394              		.loc 1 1323 5 view .LVU117
 395 000a 234E     		ldr	r6, .L36
 396 000c D6F88C30 		ldr	r3, [r6, #140]
 397 0010 43F00103 		orr	r3, r3, #1
 398 0014 C6F88C30 		str	r3, [r6, #140]
 399              		.loc 1 1323 5 view .LVU118
 400 0018 D6F88C30 		ldr	r3, [r6, #140]
 401 001c 03F00103 		and	r3, r3, #1
 402 0020 0193     		str	r3, [sp, #4]
 403              		.loc 1 1323 5 view .LVU119
 404 0022 019B     		ldr	r3, [sp, #4]
 405              	.LBE2:
 406              		.loc 1 1323 5 view .LVU120
1324:Drivers/STM32H5xx_HAL_Driver/Src/stm32h5xx_hal_rcc.c **** 
1325:Drivers/STM32H5xx_HAL_Driver/Src/stm32h5xx_hal_rcc.c ****     /* Configure the MCO1 pin in alternate function mode */
1326:Drivers/STM32H5xx_HAL_Driver/Src/stm32h5xx_hal_rcc.c ****     GPIO_InitStruct.Pin = MCO1_PIN;
 407              		.loc 1 1326 5 view .LVU121
 408              		.loc 1 1326 25 is_stmt 0 view .LVU122
 409 0024 4FF48073 		mov	r3, #256
 410 0028 0393     		str	r3, [sp, #12]
1327:Drivers/STM32H5xx_HAL_Driver/Src/stm32h5xx_hal_rcc.c ****     GPIO_InitStruct.Mode = GPIO_MODE_AF_PP;
 411              		.loc 1 1327 5 is_stmt 1 view .LVU123
 412              		.loc 1 1327 26 is_stmt 0 view .LVU124
 413 002a 0223     		movs	r3, #2
 414 002c 0493     		str	r3, [sp, #16]
1328:Drivers/STM32H5xx_HAL_Driver/Src/stm32h5xx_hal_rcc.c ****     GPIO_InitStruct.Speed = GPIO_SPEED_FREQ_VERY_HIGH;
 415              		.loc 1 1328 5 is_stmt 1 view .LVU125
 416              		.loc 1 1328 27 is_stmt 0 view .LVU126
 417 002e 0323     		movs	r3, #3
 418 0030 0693     		str	r3, [sp, #24]
1329:Drivers/STM32H5xx_HAL_Driver/Src/stm32h5xx_hal_rcc.c ****     GPIO_InitStruct.Pull = GPIO_NOPULL;
 419              		.loc 1 1329 5 is_stmt 1 view .LVU127
 420              		.loc 1 1329 26 is_stmt 0 view .LVU128
 421 0032 0023     		movs	r3, #0
 422 0034 0593     		str	r3, [sp, #20]
1330:Drivers/STM32H5xx_HAL_Driver/Src/stm32h5xx_hal_rcc.c ****     GPIO_InitStruct.Alternate = GPIO_AF0_MCO;
 423              		.loc 1 1330 5 is_stmt 1 view .LVU129
 424              		.loc 1 1330 31 is_stmt 0 view .LVU130
 425 0036 0793     		str	r3, [sp, #28]
1331:Drivers/STM32H5xx_HAL_Driver/Src/stm32h5xx_hal_rcc.c ****     HAL_GPIO_Init(MCO1_GPIO_PORT, &GPIO_InitStruct);
 426              		.loc 1 1331 5 is_stmt 1 view .LVU131
 427 0038 03A9     		add	r1, sp, #12
 428              	.LVL25:
 429              		.loc 1 1331 5 is_stmt 0 view .LVU132
 430 003a 1848     		ldr	r0, .L36+4
 431              	.LVL26:
 432              		.loc 1 1331 5 view .LVU133
 433 003c FFF7FEFF 		bl	HAL_GPIO_Init
 434              	.LVL27:
1332:Drivers/STM32H5xx_HAL_Driver/Src/stm32h5xx_hal_rcc.c **** 
1333:Drivers/STM32H5xx_HAL_Driver/Src/stm32h5xx_hal_rcc.c ****     /* Mask MCO1 and MCO1PRE[3:0] bits then Select MCO1 clock source and pre-scaler */
1334:Drivers/STM32H5xx_HAL_Driver/Src/stm32h5xx_hal_rcc.c ****     MODIFY_REG(RCC->CFGR1, (RCC_CFGR1_MCO1SEL | RCC_CFGR1_MCO1PRE), (RCC_MCOSource | RCC_MCODiv));
ARM GAS  C:\Users\sapph\AppData\Local\Temp\ccD3KfzI.s 			page 32


 435              		.loc 1 1334 5 is_stmt 1 view .LVU134
 436 0040 F369     		ldr	r3, [r6, #28]
 437 0042 23F0FE73 		bic	r3, r3, #33292288
 438 0046 2543     		orrs	r5, r5, r4
 439              	.LVL28:
 440              		.loc 1 1334 5 is_stmt 0 view .LVU135
 441 0048 1D43     		orrs	r5, r5, r3
 442 004a F561     		str	r5, [r6, #28]
 443              	.LVL29:
 444              	.L32:
1335:Drivers/STM32H5xx_HAL_Driver/Src/stm32h5xx_hal_rcc.c ****   }
1336:Drivers/STM32H5xx_HAL_Driver/Src/stm32h5xx_hal_rcc.c ****   else
1337:Drivers/STM32H5xx_HAL_Driver/Src/stm32h5xx_hal_rcc.c ****   {
1338:Drivers/STM32H5xx_HAL_Driver/Src/stm32h5xx_hal_rcc.c ****     assert_param(IS_RCC_MCO2SOURCE(RCC_MCOSource));
1339:Drivers/STM32H5xx_HAL_Driver/Src/stm32h5xx_hal_rcc.c **** 
1340:Drivers/STM32H5xx_HAL_Driver/Src/stm32h5xx_hal_rcc.c ****     /* MCO2 Clock Enable */
1341:Drivers/STM32H5xx_HAL_Driver/Src/stm32h5xx_hal_rcc.c ****     MCO2_CLK_ENABLE();
1342:Drivers/STM32H5xx_HAL_Driver/Src/stm32h5xx_hal_rcc.c **** 
1343:Drivers/STM32H5xx_HAL_Driver/Src/stm32h5xx_hal_rcc.c ****     /* Configure the MCO2 pin in alternate function mode */
1344:Drivers/STM32H5xx_HAL_Driver/Src/stm32h5xx_hal_rcc.c ****     GPIO_InitStruct.Pin = MCO2_PIN;
1345:Drivers/STM32H5xx_HAL_Driver/Src/stm32h5xx_hal_rcc.c ****     GPIO_InitStruct.Mode = GPIO_MODE_AF_PP;
1346:Drivers/STM32H5xx_HAL_Driver/Src/stm32h5xx_hal_rcc.c ****     GPIO_InitStruct.Speed = GPIO_SPEED_FREQ_VERY_HIGH;
1347:Drivers/STM32H5xx_HAL_Driver/Src/stm32h5xx_hal_rcc.c ****     GPIO_InitStruct.Pull = GPIO_NOPULL;
1348:Drivers/STM32H5xx_HAL_Driver/Src/stm32h5xx_hal_rcc.c ****     GPIO_InitStruct.Alternate = GPIO_AF0_MCO;
1349:Drivers/STM32H5xx_HAL_Driver/Src/stm32h5xx_hal_rcc.c ****     HAL_GPIO_Init(MCO2_GPIO_PORT, &GPIO_InitStruct);
1350:Drivers/STM32H5xx_HAL_Driver/Src/stm32h5xx_hal_rcc.c **** 
1351:Drivers/STM32H5xx_HAL_Driver/Src/stm32h5xx_hal_rcc.c ****     /* Mask MCO2 and MCO2PRE[3:0] bits then Select MCO2 clock source and pre-scaler */
1352:Drivers/STM32H5xx_HAL_Driver/Src/stm32h5xx_hal_rcc.c ****     MODIFY_REG(RCC->CFGR1, (RCC_CFGR1_MCO2SEL | RCC_CFGR1_MCO2PRE), (RCC_MCOSource | (RCC_MCODiv <<
1353:Drivers/STM32H5xx_HAL_Driver/Src/stm32h5xx_hal_rcc.c ****   }
1354:Drivers/STM32H5xx_HAL_Driver/Src/stm32h5xx_hal_rcc.c **** }
 445              		.loc 1 1354 1 view .LVU136
 446 004c 08B0     		add	sp, sp, #32
 447              		.cfi_remember_state
 448              		.cfi_def_cfa_offset 16
 449              		@ sp needed
 450 004e 70BD     		pop	{r4, r5, r6, pc}
 451              	.LVL30:
 452              	.L33:
 453              		.cfi_restore_state
1338:Drivers/STM32H5xx_HAL_Driver/Src/stm32h5xx_hal_rcc.c **** 
 454              		.loc 1 1338 5 is_stmt 1 view .LVU137
1341:Drivers/STM32H5xx_HAL_Driver/Src/stm32h5xx_hal_rcc.c **** 
 455              		.loc 1 1341 5 view .LVU138
 456              	.LBB3:
1341:Drivers/STM32H5xx_HAL_Driver/Src/stm32h5xx_hal_rcc.c **** 
 457              		.loc 1 1341 5 view .LVU139
1341:Drivers/STM32H5xx_HAL_Driver/Src/stm32h5xx_hal_rcc.c **** 
 458              		.loc 1 1341 5 view .LVU140
 459 0050 114E     		ldr	r6, .L36
 460 0052 D6F88C30 		ldr	r3, [r6, #140]
 461 0056 43F00403 		orr	r3, r3, #4
 462 005a C6F88C30 		str	r3, [r6, #140]
1341:Drivers/STM32H5xx_HAL_Driver/Src/stm32h5xx_hal_rcc.c **** 
 463              		.loc 1 1341 5 view .LVU141
 464 005e D6F88C30 		ldr	r3, [r6, #140]
 465 0062 03F00403 		and	r3, r3, #4
 466 0066 0293     		str	r3, [sp, #8]
ARM GAS  C:\Users\sapph\AppData\Local\Temp\ccD3KfzI.s 			page 33


1341:Drivers/STM32H5xx_HAL_Driver/Src/stm32h5xx_hal_rcc.c **** 
 467              		.loc 1 1341 5 view .LVU142
 468 0068 029B     		ldr	r3, [sp, #8]
 469              	.LBE3:
1341:Drivers/STM32H5xx_HAL_Driver/Src/stm32h5xx_hal_rcc.c **** 
 470              		.loc 1 1341 5 view .LVU143
1344:Drivers/STM32H5xx_HAL_Driver/Src/stm32h5xx_hal_rcc.c ****     GPIO_InitStruct.Mode = GPIO_MODE_AF_PP;
 471              		.loc 1 1344 5 view .LVU144
1344:Drivers/STM32H5xx_HAL_Driver/Src/stm32h5xx_hal_rcc.c ****     GPIO_InitStruct.Mode = GPIO_MODE_AF_PP;
 472              		.loc 1 1344 25 is_stmt 0 view .LVU145
 473 006a 4FF40073 		mov	r3, #512
 474 006e 0393     		str	r3, [sp, #12]
1345:Drivers/STM32H5xx_HAL_Driver/Src/stm32h5xx_hal_rcc.c ****     GPIO_InitStruct.Speed = GPIO_SPEED_FREQ_VERY_HIGH;
 475              		.loc 1 1345 5 is_stmt 1 view .LVU146
1345:Drivers/STM32H5xx_HAL_Driver/Src/stm32h5xx_hal_rcc.c ****     GPIO_InitStruct.Speed = GPIO_SPEED_FREQ_VERY_HIGH;
 476              		.loc 1 1345 26 is_stmt 0 view .LVU147
 477 0070 0223     		movs	r3, #2
 478 0072 0493     		str	r3, [sp, #16]
1346:Drivers/STM32H5xx_HAL_Driver/Src/stm32h5xx_hal_rcc.c ****     GPIO_InitStruct.Pull = GPIO_NOPULL;
 479              		.loc 1 1346 5 is_stmt 1 view .LVU148
1346:Drivers/STM32H5xx_HAL_Driver/Src/stm32h5xx_hal_rcc.c ****     GPIO_InitStruct.Pull = GPIO_NOPULL;
 480              		.loc 1 1346 27 is_stmt 0 view .LVU149
 481 0074 0323     		movs	r3, #3
 482 0076 0693     		str	r3, [sp, #24]
1347:Drivers/STM32H5xx_HAL_Driver/Src/stm32h5xx_hal_rcc.c ****     GPIO_InitStruct.Alternate = GPIO_AF0_MCO;
 483              		.loc 1 1347 5 is_stmt 1 view .LVU150
1347:Drivers/STM32H5xx_HAL_Driver/Src/stm32h5xx_hal_rcc.c ****     GPIO_InitStruct.Alternate = GPIO_AF0_MCO;
 484              		.loc 1 1347 26 is_stmt 0 view .LVU151
 485 0078 0023     		movs	r3, #0
 486 007a 0593     		str	r3, [sp, #20]
1348:Drivers/STM32H5xx_HAL_Driver/Src/stm32h5xx_hal_rcc.c ****     HAL_GPIO_Init(MCO2_GPIO_PORT, &GPIO_InitStruct);
 487              		.loc 1 1348 5 is_stmt 1 view .LVU152
1348:Drivers/STM32H5xx_HAL_Driver/Src/stm32h5xx_hal_rcc.c ****     HAL_GPIO_Init(MCO2_GPIO_PORT, &GPIO_InitStruct);
 488              		.loc 1 1348 31 is_stmt 0 view .LVU153
 489 007c 0793     		str	r3, [sp, #28]
1349:Drivers/STM32H5xx_HAL_Driver/Src/stm32h5xx_hal_rcc.c **** 
 490              		.loc 1 1349 5 is_stmt 1 view .LVU154
 491 007e 03A9     		add	r1, sp, #12
 492              	.LVL31:
1349:Drivers/STM32H5xx_HAL_Driver/Src/stm32h5xx_hal_rcc.c **** 
 493              		.loc 1 1349 5 is_stmt 0 view .LVU155
 494 0080 0748     		ldr	r0, .L36+8
 495              	.LVL32:
1349:Drivers/STM32H5xx_HAL_Driver/Src/stm32h5xx_hal_rcc.c **** 
 496              		.loc 1 1349 5 view .LVU156
 497 0082 FFF7FEFF 		bl	HAL_GPIO_Init
 498              	.LVL33:
1352:Drivers/STM32H5xx_HAL_Driver/Src/stm32h5xx_hal_rcc.c ****   }
 499              		.loc 1 1352 5 is_stmt 1 view .LVU157
 500 0086 F369     		ldr	r3, [r6, #28]
 501 0088 23F07E43 		bic	r3, r3, #-33554432
 502 008c 44EAC514 		orr	r4, r4, r5, lsl #7
 503              	.LVL34:
1352:Drivers/STM32H5xx_HAL_Driver/Src/stm32h5xx_hal_rcc.c ****   }
 504              		.loc 1 1352 5 is_stmt 0 view .LVU158
 505 0090 1C43     		orrs	r4, r4, r3
 506 0092 F461     		str	r4, [r6, #28]
ARM GAS  C:\Users\sapph\AppData\Local\Temp\ccD3KfzI.s 			page 34


 507              		.loc 1 1354 1 view .LVU159
 508 0094 DAE7     		b	.L32
 509              	.L37:
 510 0096 00BF     		.align	2
 511              	.L36:
 512 0098 000C0244 		.word	1140984832
 513 009c 00000242 		.word	1107427328
 514 00a0 00080242 		.word	1107429376
 515              		.cfi_endproc
 516              	.LFE163:
 518              		.section	.text.HAL_RCC_GetSysClockFreq,"ax",%progbits
 519              		.align	1
 520              		.global	HAL_RCC_GetSysClockFreq
 521              		.syntax unified
 522              		.thumb
 523              		.thumb_func
 525              	HAL_RCC_GetSysClockFreq:
 526              	.LFB164:
1355:Drivers/STM32H5xx_HAL_Driver/Src/stm32h5xx_hal_rcc.c **** 
1356:Drivers/STM32H5xx_HAL_Driver/Src/stm32h5xx_hal_rcc.c **** /**
1357:Drivers/STM32H5xx_HAL_Driver/Src/stm32h5xx_hal_rcc.c ****   * @brief  Return the SYSCLK frequency.
1358:Drivers/STM32H5xx_HAL_Driver/Src/stm32h5xx_hal_rcc.c ****   *
1359:Drivers/STM32H5xx_HAL_Driver/Src/stm32h5xx_hal_rcc.c ****   * @note   The system frequency computed by this function may not be the real
1360:Drivers/STM32H5xx_HAL_Driver/Src/stm32h5xx_hal_rcc.c ****   *         frequency in the chip. It is calculated based on the predefined
1361:Drivers/STM32H5xx_HAL_Driver/Src/stm32h5xx_hal_rcc.c ****   *         constants of the selected clock source:
1362:Drivers/STM32H5xx_HAL_Driver/Src/stm32h5xx_hal_rcc.c ****   * @note     If SYSCLK source is HSI, function returns values based on HSI_VALUE(*)
1363:Drivers/STM32H5xx_HAL_Driver/Src/stm32h5xx_hal_rcc.c ****   * @note     If SYSCLK source is CSI, function returns values based on CSI_VALUE(**)
1364:Drivers/STM32H5xx_HAL_Driver/Src/stm32h5xx_hal_rcc.c ****   * @note     If SYSCLK source is HSE, function returns values based on HSE_VALUE(***)
1365:Drivers/STM32H5xx_HAL_Driver/Src/stm32h5xx_hal_rcc.c ****   * @note     If SYSCLK source is PLL, function returns values based on HSI_VALUE(*), CSI_VALUE(**)
1366:Drivers/STM32H5xx_HAL_Driver/Src/stm32h5xx_hal_rcc.c ****   *           or HSE_VALUE(***) multiplied/divided by the PLL factors.
1367:Drivers/STM32H5xx_HAL_Driver/Src/stm32h5xx_hal_rcc.c ****   * @note     (*) HSI_VALUE is a constant defined in stm32h5xx_hal_conf.h file (default value
1368:Drivers/STM32H5xx_HAL_Driver/Src/stm32h5xx_hal_rcc.c ****   *               64 MHz) but the real value may vary depending on the variations
1369:Drivers/STM32H5xx_HAL_Driver/Src/stm32h5xx_hal_rcc.c ****   *               in voltage and temperature.
1370:Drivers/STM32H5xx_HAL_Driver/Src/stm32h5xx_hal_rcc.c ****   * @note     (**) CSI_VALUE is a constant defined in stm32h5xx_hal_conf.h file (default value
1371:Drivers/STM32H5xx_HAL_Driver/Src/stm32h5xx_hal_rcc.c ****   *               4 MHz) but the real value may vary depending on the variations
1372:Drivers/STM32H5xx_HAL_Driver/Src/stm32h5xx_hal_rcc.c ****   *               in voltage and temperature.
1373:Drivers/STM32H5xx_HAL_Driver/Src/stm32h5xx_hal_rcc.c ****   * @note     (***) HSE_VALUE is a constant defined in stm32h5xx_hal_conf.h file (default value
1374:Drivers/STM32H5xx_HAL_Driver/Src/stm32h5xx_hal_rcc.c ****   *                24 MHz), user has to ensure that HSE_VALUE is same as the real
1375:Drivers/STM32H5xx_HAL_Driver/Src/stm32h5xx_hal_rcc.c ****   *                frequency of the crystal used. Otherwise, this function may
1376:Drivers/STM32H5xx_HAL_Driver/Src/stm32h5xx_hal_rcc.c ****   *                have wrong result.
1377:Drivers/STM32H5xx_HAL_Driver/Src/stm32h5xx_hal_rcc.c ****   *
1378:Drivers/STM32H5xx_HAL_Driver/Src/stm32h5xx_hal_rcc.c ****   * @note   The result of this function could be not correct when using fractional
1379:Drivers/STM32H5xx_HAL_Driver/Src/stm32h5xx_hal_rcc.c ****   *         value for HSE crystal.
1380:Drivers/STM32H5xx_HAL_Driver/Src/stm32h5xx_hal_rcc.c ****   *
1381:Drivers/STM32H5xx_HAL_Driver/Src/stm32h5xx_hal_rcc.c ****   * @note   This function can be used by the user application to compute the
1382:Drivers/STM32H5xx_HAL_Driver/Src/stm32h5xx_hal_rcc.c ****   *         baudrate for the communication peripherals or configure other parameters.
1383:Drivers/STM32H5xx_HAL_Driver/Src/stm32h5xx_hal_rcc.c ****   *
1384:Drivers/STM32H5xx_HAL_Driver/Src/stm32h5xx_hal_rcc.c ****   * @note   Each time SYSCLK changes, this function must be called to update the
1385:Drivers/STM32H5xx_HAL_Driver/Src/stm32h5xx_hal_rcc.c ****   *         right SYSCLK value. Otherwise, any configuration based on this function will be incorre
1386:Drivers/STM32H5xx_HAL_Driver/Src/stm32h5xx_hal_rcc.c ****   *
1387:Drivers/STM32H5xx_HAL_Driver/Src/stm32h5xx_hal_rcc.c ****   *
1388:Drivers/STM32H5xx_HAL_Driver/Src/stm32h5xx_hal_rcc.c ****   * @retval SYSCLK frequency
1389:Drivers/STM32H5xx_HAL_Driver/Src/stm32h5xx_hal_rcc.c ****   */
1390:Drivers/STM32H5xx_HAL_Driver/Src/stm32h5xx_hal_rcc.c **** uint32_t HAL_RCC_GetSysClockFreq(void)
1391:Drivers/STM32H5xx_HAL_Driver/Src/stm32h5xx_hal_rcc.c **** {
 527              		.loc 1 1391 1 is_stmt 1 view -0
 528              		.cfi_startproc
ARM GAS  C:\Users\sapph\AppData\Local\Temp\ccD3KfzI.s 			page 35


 529              		@ args = 0, pretend = 0, frame = 0
 530              		@ frame_needed = 0, uses_anonymous_args = 0
 531              		@ link register save eliminated.
1392:Drivers/STM32H5xx_HAL_Driver/Src/stm32h5xx_hal_rcc.c ****   uint32_t pllsource;
 532              		.loc 1 1392 3 view .LVU161
1393:Drivers/STM32H5xx_HAL_Driver/Src/stm32h5xx_hal_rcc.c ****   uint32_t pllp;
 533              		.loc 1 1393 3 view .LVU162
1394:Drivers/STM32H5xx_HAL_Driver/Src/stm32h5xx_hal_rcc.c ****   uint32_t pllm;
 534              		.loc 1 1394 3 view .LVU163
1395:Drivers/STM32H5xx_HAL_Driver/Src/stm32h5xx_hal_rcc.c ****   uint32_t pllfracen;
 535              		.loc 1 1395 3 view .LVU164
1396:Drivers/STM32H5xx_HAL_Driver/Src/stm32h5xx_hal_rcc.c ****   uint32_t sysclockfreq;
 536              		.loc 1 1396 3 view .LVU165
1397:Drivers/STM32H5xx_HAL_Driver/Src/stm32h5xx_hal_rcc.c ****   uint32_t hsivalue;
 537              		.loc 1 1397 3 view .LVU166
1398:Drivers/STM32H5xx_HAL_Driver/Src/stm32h5xx_hal_rcc.c ****   float_t fracn1;
 538              		.loc 1 1398 3 view .LVU167
1399:Drivers/STM32H5xx_HAL_Driver/Src/stm32h5xx_hal_rcc.c ****   float_t pllvco;
 539              		.loc 1 1399 3 view .LVU168
1400:Drivers/STM32H5xx_HAL_Driver/Src/stm32h5xx_hal_rcc.c **** 
1401:Drivers/STM32H5xx_HAL_Driver/Src/stm32h5xx_hal_rcc.c ****   if (__HAL_RCC_GET_SYSCLK_SOURCE() == RCC_SYSCLKSOURCE_STATUS_CSI)
 540              		.loc 1 1401 3 view .LVU169
 541              		.loc 1 1401 7 is_stmt 0 view .LVU170
 542 0000 6D4B     		ldr	r3, .L56
 543 0002 DB69     		ldr	r3, [r3, #28]
 544 0004 03F01803 		and	r3, r3, #24
 545              		.loc 1 1401 6 view .LVU171
 546 0008 082B     		cmp	r3, #8
 547 000a 00F0CE80 		beq	.L46
1402:Drivers/STM32H5xx_HAL_Driver/Src/stm32h5xx_hal_rcc.c ****   {
1403:Drivers/STM32H5xx_HAL_Driver/Src/stm32h5xx_hal_rcc.c ****     /* CSI used as system clock  source */
1404:Drivers/STM32H5xx_HAL_Driver/Src/stm32h5xx_hal_rcc.c ****     sysclockfreq = CSI_VALUE;
1405:Drivers/STM32H5xx_HAL_Driver/Src/stm32h5xx_hal_rcc.c ****   }
1406:Drivers/STM32H5xx_HAL_Driver/Src/stm32h5xx_hal_rcc.c ****   else if (__HAL_RCC_GET_SYSCLK_SOURCE() == RCC_SYSCLKSOURCE_STATUS_HSI)
 548              		.loc 1 1406 8 is_stmt 1 view .LVU172
 549              		.loc 1 1406 12 is_stmt 0 view .LVU173
 550 000e 6A4B     		ldr	r3, .L56
 551 0010 DB69     		ldr	r3, [r3, #28]
 552              		.loc 1 1406 11 view .LVU174
 553 0012 13F0180F 		tst	r3, #24
 554 0016 0CD1     		bne	.L40
1407:Drivers/STM32H5xx_HAL_Driver/Src/stm32h5xx_hal_rcc.c ****   {
1408:Drivers/STM32H5xx_HAL_Driver/Src/stm32h5xx_hal_rcc.c ****     /* HSI used as system clock source */
1409:Drivers/STM32H5xx_HAL_Driver/Src/stm32h5xx_hal_rcc.c ****     if (__HAL_RCC_GET_FLAG(RCC_FLAG_HSIDIVF) != 0U)
 555              		.loc 1 1409 5 is_stmt 1 view .LVU175
 556              		.loc 1 1409 9 is_stmt 0 view .LVU176
 557 0018 674B     		ldr	r3, .L56
 558 001a 1B68     		ldr	r3, [r3]
 559              		.loc 1 1409 8 view .LVU177
 560 001c 13F0200F 		tst	r3, #32
 561 0020 00F0C580 		beq	.L47
1410:Drivers/STM32H5xx_HAL_Driver/Src/stm32h5xx_hal_rcc.c ****     {
1411:Drivers/STM32H5xx_HAL_Driver/Src/stm32h5xx_hal_rcc.c ****       sysclockfreq = (uint32_t)(HSI_VALUE >> (__HAL_RCC_GET_HSI_DIVIDER() >> RCC_CR_HSIDIV_Pos));
 562              		.loc 1 1411 7 is_stmt 1 view .LVU178
 563              		.loc 1 1411 47 is_stmt 0 view .LVU179
 564 0024 644B     		ldr	r3, .L56
 565 0026 1B68     		ldr	r3, [r3]
ARM GAS  C:\Users\sapph\AppData\Local\Temp\ccD3KfzI.s 			page 36


 566              		.loc 1 1411 75 view .LVU180
 567 0028 C3F3C103 		ubfx	r3, r3, #3, #2
 568              		.loc 1 1411 20 view .LVU181
 569 002c 6348     		ldr	r0, .L56+4
 570 002e D840     		lsrs	r0, r0, r3
 571              	.LVL35:
 572              		.loc 1 1411 20 view .LVU182
 573 0030 7047     		bx	lr
 574              	.LVL36:
 575              	.L40:
1412:Drivers/STM32H5xx_HAL_Driver/Src/stm32h5xx_hal_rcc.c ****     }
1413:Drivers/STM32H5xx_HAL_Driver/Src/stm32h5xx_hal_rcc.c ****     else
1414:Drivers/STM32H5xx_HAL_Driver/Src/stm32h5xx_hal_rcc.c ****     {
1415:Drivers/STM32H5xx_HAL_Driver/Src/stm32h5xx_hal_rcc.c ****       sysclockfreq = (uint32_t) HSI_VALUE;
1416:Drivers/STM32H5xx_HAL_Driver/Src/stm32h5xx_hal_rcc.c ****     }
1417:Drivers/STM32H5xx_HAL_Driver/Src/stm32h5xx_hal_rcc.c ****   }
1418:Drivers/STM32H5xx_HAL_Driver/Src/stm32h5xx_hal_rcc.c ****   else if (__HAL_RCC_GET_SYSCLK_SOURCE() == RCC_SYSCLKSOURCE_STATUS_HSE)
 576              		.loc 1 1418 8 is_stmt 1 view .LVU183
 577              		.loc 1 1418 12 is_stmt 0 view .LVU184
 578 0032 614B     		ldr	r3, .L56
 579 0034 DB69     		ldr	r3, [r3, #28]
 580 0036 03F01803 		and	r3, r3, #24
 581              		.loc 1 1418 11 view .LVU185
 582 003a 102B     		cmp	r3, #16
 583 003c 00F0B980 		beq	.L48
1419:Drivers/STM32H5xx_HAL_Driver/Src/stm32h5xx_hal_rcc.c ****   {
1420:Drivers/STM32H5xx_HAL_Driver/Src/stm32h5xx_hal_rcc.c ****     /* HSE used as system clock source */
1421:Drivers/STM32H5xx_HAL_Driver/Src/stm32h5xx_hal_rcc.c ****     sysclockfreq = HSE_VALUE;
1422:Drivers/STM32H5xx_HAL_Driver/Src/stm32h5xx_hal_rcc.c ****   }
1423:Drivers/STM32H5xx_HAL_Driver/Src/stm32h5xx_hal_rcc.c **** 
1424:Drivers/STM32H5xx_HAL_Driver/Src/stm32h5xx_hal_rcc.c ****   else if (__HAL_RCC_GET_SYSCLK_SOURCE() == RCC_SYSCLKSOURCE_STATUS_PLLCLK)
 584              		.loc 1 1424 8 is_stmt 1 view .LVU186
 585              		.loc 1 1424 12 is_stmt 0 view .LVU187
 586 0040 5D4B     		ldr	r3, .L56
 587 0042 DB69     		ldr	r3, [r3, #28]
 588 0044 03F01803 		and	r3, r3, #24
 589              		.loc 1 1424 11 view .LVU188
 590 0048 182B     		cmp	r3, #24
 591 004a 01D0     		beq	.L55
1425:Drivers/STM32H5xx_HAL_Driver/Src/stm32h5xx_hal_rcc.c ****   {
1426:Drivers/STM32H5xx_HAL_Driver/Src/stm32h5xx_hal_rcc.c ****     /* PLL used as system clock  source */
1427:Drivers/STM32H5xx_HAL_Driver/Src/stm32h5xx_hal_rcc.c **** 
1428:Drivers/STM32H5xx_HAL_Driver/Src/stm32h5xx_hal_rcc.c ****     /* PLL_VCO = (HSE_VALUE or HSI_VALUE or CSI_VALUE/ PLLM) * PLLN
1429:Drivers/STM32H5xx_HAL_Driver/Src/stm32h5xx_hal_rcc.c ****     SYSCLK = PLL_VCO / PLLR
1430:Drivers/STM32H5xx_HAL_Driver/Src/stm32h5xx_hal_rcc.c ****     */
1431:Drivers/STM32H5xx_HAL_Driver/Src/stm32h5xx_hal_rcc.c ****     pllsource = (RCC->PLL1CFGR & RCC_PLL1CFGR_PLL1SRC);
1432:Drivers/STM32H5xx_HAL_Driver/Src/stm32h5xx_hal_rcc.c ****     pllm = ((RCC->PLL1CFGR & RCC_PLL1CFGR_PLL1M) >> RCC_PLL1CFGR_PLL1M_Pos);
1433:Drivers/STM32H5xx_HAL_Driver/Src/stm32h5xx_hal_rcc.c ****     pllfracen = ((RCC->PLL1CFGR & RCC_PLL1CFGR_PLL1FRACEN) >> RCC_PLL1CFGR_PLL1FRACEN_Pos);
1434:Drivers/STM32H5xx_HAL_Driver/Src/stm32h5xx_hal_rcc.c ****     fracn1 = (float_t)(uint32_t)(pllfracen * ((RCC->PLL1FRACR & \
1435:Drivers/STM32H5xx_HAL_Driver/Src/stm32h5xx_hal_rcc.c ****                                                RCC_PLL1FRACR_PLL1FRACN) >> RCC_PLL1FRACR_PLL1FRACN_
1436:Drivers/STM32H5xx_HAL_Driver/Src/stm32h5xx_hal_rcc.c **** 
1437:Drivers/STM32H5xx_HAL_Driver/Src/stm32h5xx_hal_rcc.c ****     if (pllm != 0U)
1438:Drivers/STM32H5xx_HAL_Driver/Src/stm32h5xx_hal_rcc.c ****     {
1439:Drivers/STM32H5xx_HAL_Driver/Src/stm32h5xx_hal_rcc.c ****       switch (pllsource)
1440:Drivers/STM32H5xx_HAL_Driver/Src/stm32h5xx_hal_rcc.c ****       {
1441:Drivers/STM32H5xx_HAL_Driver/Src/stm32h5xx_hal_rcc.c ****         case RCC_PLL1_SOURCE_HSI:  /* HSI used as PLL1 clock source */
1442:Drivers/STM32H5xx_HAL_Driver/Src/stm32h5xx_hal_rcc.c **** 
ARM GAS  C:\Users\sapph\AppData\Local\Temp\ccD3KfzI.s 			page 37


1443:Drivers/STM32H5xx_HAL_Driver/Src/stm32h5xx_hal_rcc.c ****           if (__HAL_RCC_GET_FLAG(RCC_FLAG_HSIDIVF) != 0U)
1444:Drivers/STM32H5xx_HAL_Driver/Src/stm32h5xx_hal_rcc.c ****           {
1445:Drivers/STM32H5xx_HAL_Driver/Src/stm32h5xx_hal_rcc.c ****             hsivalue = (HSI_VALUE >> (__HAL_RCC_GET_HSI_DIVIDER() >> RCC_CR_HSIDIV_Pos));
1446:Drivers/STM32H5xx_HAL_Driver/Src/stm32h5xx_hal_rcc.c ****             pllvco = ((float_t)hsivalue / (float_t)pllm) * ((float_t)(uint32_t)(RCC->PLL1DIVR & RCC
1447:Drivers/STM32H5xx_HAL_Driver/Src/stm32h5xx_hal_rcc.c ****                                                             (fracn1 / (float_t)0x2000) + (float_t)1
1448:Drivers/STM32H5xx_HAL_Driver/Src/stm32h5xx_hal_rcc.c ****           }
1449:Drivers/STM32H5xx_HAL_Driver/Src/stm32h5xx_hal_rcc.c ****           else
1450:Drivers/STM32H5xx_HAL_Driver/Src/stm32h5xx_hal_rcc.c ****           {
1451:Drivers/STM32H5xx_HAL_Driver/Src/stm32h5xx_hal_rcc.c ****             pllvco = ((float_t)HSI_VALUE / (float_t)pllm) * ((float_t)(uint32_t)(RCC->PLL1DIVR & RC
1452:Drivers/STM32H5xx_HAL_Driver/Src/stm32h5xx_hal_rcc.c ****                                                              (fracn1 / (float_t)0x2000) + (float_t)
1453:Drivers/STM32H5xx_HAL_Driver/Src/stm32h5xx_hal_rcc.c ****           }
1454:Drivers/STM32H5xx_HAL_Driver/Src/stm32h5xx_hal_rcc.c **** 
1455:Drivers/STM32H5xx_HAL_Driver/Src/stm32h5xx_hal_rcc.c ****           break;
1456:Drivers/STM32H5xx_HAL_Driver/Src/stm32h5xx_hal_rcc.c **** 
1457:Drivers/STM32H5xx_HAL_Driver/Src/stm32h5xx_hal_rcc.c ****         case RCC_PLL1_SOURCE_HSE:  /* HSE used as PLL1 clock source */
1458:Drivers/STM32H5xx_HAL_Driver/Src/stm32h5xx_hal_rcc.c ****           pllvco = ((float_t)HSE_VALUE / (float_t)pllm) * ((float_t)(uint32_t)(RCC->PLL1DIVR & RCC_
1459:Drivers/STM32H5xx_HAL_Driver/Src/stm32h5xx_hal_rcc.c ****                                                            (fracn1 / (float_t)0x2000) + (float_t)1)
1460:Drivers/STM32H5xx_HAL_Driver/Src/stm32h5xx_hal_rcc.c **** 
1461:Drivers/STM32H5xx_HAL_Driver/Src/stm32h5xx_hal_rcc.c ****           break;
1462:Drivers/STM32H5xx_HAL_Driver/Src/stm32h5xx_hal_rcc.c **** 
1463:Drivers/STM32H5xx_HAL_Driver/Src/stm32h5xx_hal_rcc.c ****         case RCC_PLL1_SOURCE_CSI:  /* CSI used as PLL1 clock source */
1464:Drivers/STM32H5xx_HAL_Driver/Src/stm32h5xx_hal_rcc.c ****         default:
1465:Drivers/STM32H5xx_HAL_Driver/Src/stm32h5xx_hal_rcc.c ****           pllvco = ((float_t)CSI_VALUE / (float_t)pllm) * ((float_t)(uint32_t)(RCC->PLL1DIVR & RCC_
1466:Drivers/STM32H5xx_HAL_Driver/Src/stm32h5xx_hal_rcc.c ****                                                            (fracn1 / (float_t)0x2000) + (float_t)1)
1467:Drivers/STM32H5xx_HAL_Driver/Src/stm32h5xx_hal_rcc.c ****           break;
1468:Drivers/STM32H5xx_HAL_Driver/Src/stm32h5xx_hal_rcc.c ****       }
1469:Drivers/STM32H5xx_HAL_Driver/Src/stm32h5xx_hal_rcc.c **** 
1470:Drivers/STM32H5xx_HAL_Driver/Src/stm32h5xx_hal_rcc.c ****       pllp = (((RCC->PLL1DIVR & RCC_PLL1DIVR_PLL1P) >> RCC_PLL1DIVR_PLL1P_Pos) + 1U) ;
1471:Drivers/STM32H5xx_HAL_Driver/Src/stm32h5xx_hal_rcc.c ****       sysclockfreq = (uint32_t)(float_t)(pllvco / (float_t)pllp);
1472:Drivers/STM32H5xx_HAL_Driver/Src/stm32h5xx_hal_rcc.c ****     }
1473:Drivers/STM32H5xx_HAL_Driver/Src/stm32h5xx_hal_rcc.c ****     else
1474:Drivers/STM32H5xx_HAL_Driver/Src/stm32h5xx_hal_rcc.c ****     {
1475:Drivers/STM32H5xx_HAL_Driver/Src/stm32h5xx_hal_rcc.c ****       sysclockfreq = 0;
1476:Drivers/STM32H5xx_HAL_Driver/Src/stm32h5xx_hal_rcc.c ****     }
1477:Drivers/STM32H5xx_HAL_Driver/Src/stm32h5xx_hal_rcc.c ****   }
1478:Drivers/STM32H5xx_HAL_Driver/Src/stm32h5xx_hal_rcc.c **** 
1479:Drivers/STM32H5xx_HAL_Driver/Src/stm32h5xx_hal_rcc.c ****   else
1480:Drivers/STM32H5xx_HAL_Driver/Src/stm32h5xx_hal_rcc.c ****   {
1481:Drivers/STM32H5xx_HAL_Driver/Src/stm32h5xx_hal_rcc.c ****     /* HSI is the default system clock source */
1482:Drivers/STM32H5xx_HAL_Driver/Src/stm32h5xx_hal_rcc.c ****     sysclockfreq = (uint32_t) HSI_VALUE;
 592              		.loc 1 1482 18 view .LVU189
 593 004c 5B48     		ldr	r0, .L56+4
 594              	.LVL37:
1483:Drivers/STM32H5xx_HAL_Driver/Src/stm32h5xx_hal_rcc.c ****   }
1484:Drivers/STM32H5xx_HAL_Driver/Src/stm32h5xx_hal_rcc.c **** 
1485:Drivers/STM32H5xx_HAL_Driver/Src/stm32h5xx_hal_rcc.c ****   return sysclockfreq;
 595              		.loc 1 1485 3 is_stmt 1 view .LVU190
1486:Drivers/STM32H5xx_HAL_Driver/Src/stm32h5xx_hal_rcc.c **** }
 596              		.loc 1 1486 1 is_stmt 0 view .LVU191
 597 004e 7047     		bx	lr
 598              	.LVL38:
 599              	.L55:
1391:Drivers/STM32H5xx_HAL_Driver/Src/stm32h5xx_hal_rcc.c ****   uint32_t pllsource;
 600              		.loc 1 1391 1 view .LVU192
 601 0050 10B4     		push	{r4}
 602              		.cfi_def_cfa_offset 4
 603              		.cfi_offset 4, -4
ARM GAS  C:\Users\sapph\AppData\Local\Temp\ccD3KfzI.s 			page 38


1431:Drivers/STM32H5xx_HAL_Driver/Src/stm32h5xx_hal_rcc.c ****     pllm = ((RCC->PLL1CFGR & RCC_PLL1CFGR_PLL1M) >> RCC_PLL1CFGR_PLL1M_Pos);
 604              		.loc 1 1431 5 is_stmt 1 view .LVU193
1431:Drivers/STM32H5xx_HAL_Driver/Src/stm32h5xx_hal_rcc.c ****     pllm = ((RCC->PLL1CFGR & RCC_PLL1CFGR_PLL1M) >> RCC_PLL1CFGR_PLL1M_Pos);
 605              		.loc 1 1431 21 is_stmt 0 view .LVU194
 606 0052 594B     		ldr	r3, .L56
 607 0054 996A     		ldr	r1, [r3, #40]
1431:Drivers/STM32H5xx_HAL_Driver/Src/stm32h5xx_hal_rcc.c ****     pllm = ((RCC->PLL1CFGR & RCC_PLL1CFGR_PLL1M) >> RCC_PLL1CFGR_PLL1M_Pos);
 608              		.loc 1 1431 15 view .LVU195
 609 0056 01F00301 		and	r1, r1, #3
 610              	.LVL39:
1432:Drivers/STM32H5xx_HAL_Driver/Src/stm32h5xx_hal_rcc.c ****     pllfracen = ((RCC->PLL1CFGR & RCC_PLL1CFGR_PLL1FRACEN) >> RCC_PLL1CFGR_PLL1FRACEN_Pos);
 611              		.loc 1 1432 5 is_stmt 1 view .LVU196
1432:Drivers/STM32H5xx_HAL_Driver/Src/stm32h5xx_hal_rcc.c ****     pllfracen = ((RCC->PLL1CFGR & RCC_PLL1CFGR_PLL1FRACEN) >> RCC_PLL1CFGR_PLL1FRACEN_Pos);
 612              		.loc 1 1432 17 is_stmt 0 view .LVU197
 613 005a 9C6A     		ldr	r4, [r3, #40]
1432:Drivers/STM32H5xx_HAL_Driver/Src/stm32h5xx_hal_rcc.c ****     pllfracen = ((RCC->PLL1CFGR & RCC_PLL1CFGR_PLL1FRACEN) >> RCC_PLL1CFGR_PLL1FRACEN_Pos);
 614              		.loc 1 1432 10 view .LVU198
 615 005c C4F30520 		ubfx	r0, r4, #8, #6
 616              	.LVL40:
1433:Drivers/STM32H5xx_HAL_Driver/Src/stm32h5xx_hal_rcc.c ****     fracn1 = (float_t)(uint32_t)(pllfracen * ((RCC->PLL1FRACR & \
 617              		.loc 1 1433 5 is_stmt 1 view .LVU199
1433:Drivers/STM32H5xx_HAL_Driver/Src/stm32h5xx_hal_rcc.c ****     fracn1 = (float_t)(uint32_t)(pllfracen * ((RCC->PLL1FRACR & \
 618              		.loc 1 1433 22 is_stmt 0 view .LVU200
 619 0060 9A6A     		ldr	r2, [r3, #40]
1433:Drivers/STM32H5xx_HAL_Driver/Src/stm32h5xx_hal_rcc.c ****     fracn1 = (float_t)(uint32_t)(pllfracen * ((RCC->PLL1FRACR & \
 620              		.loc 1 1433 15 view .LVU201
 621 0062 C2F30012 		ubfx	r2, r2, #4, #1
 622              	.LVL41:
1434:Drivers/STM32H5xx_HAL_Driver/Src/stm32h5xx_hal_rcc.c ****                                                RCC_PLL1FRACR_PLL1FRACN) >> RCC_PLL1FRACR_PLL1FRACN_
 623              		.loc 1 1434 5 is_stmt 1 view .LVU202
1434:Drivers/STM32H5xx_HAL_Driver/Src/stm32h5xx_hal_rcc.c ****                                                RCC_PLL1FRACR_PLL1FRACN) >> RCC_PLL1FRACR_PLL1FRACN_
 624              		.loc 1 1434 51 is_stmt 0 view .LVU203
 625 0066 9B6B     		ldr	r3, [r3, #56]
1435:Drivers/STM32H5xx_HAL_Driver/Src/stm32h5xx_hal_rcc.c **** 
 626              		.loc 1 1435 73 view .LVU204
 627 0068 C3F3CC03 		ubfx	r3, r3, #3, #13
1434:Drivers/STM32H5xx_HAL_Driver/Src/stm32h5xx_hal_rcc.c ****                                                RCC_PLL1FRACR_PLL1FRACN) >> RCC_PLL1FRACR_PLL1FRACN_
 628              		.loc 1 1434 23 view .LVU205
 629 006c 02FB03F3 		mul	r3, r2, r3
1434:Drivers/STM32H5xx_HAL_Driver/Src/stm32h5xx_hal_rcc.c ****                                                RCC_PLL1FRACR_PLL1FRACN) >> RCC_PLL1FRACR_PLL1FRACN_
 630              		.loc 1 1434 12 view .LVU206
 631 0070 07EE903A 		vmov	s15, r3	@ int
 632 0074 F8EE677A 		vcvt.f32.u32	s15, s15
 633              	.LVL42:
1437:Drivers/STM32H5xx_HAL_Driver/Src/stm32h5xx_hal_rcc.c ****     {
 634              		.loc 1 1437 5 is_stmt 1 view .LVU207
1437:Drivers/STM32H5xx_HAL_Driver/Src/stm32h5xx_hal_rcc.c ****     {
 635              		.loc 1 1437 8 is_stmt 0 view .LVU208
 636 0078 14F47C5F 		tst	r4, #16128
 637 007c 00F09280 		beq	.L38
1439:Drivers/STM32H5xx_HAL_Driver/Src/stm32h5xx_hal_rcc.c ****       {
 638              		.loc 1 1439 7 is_stmt 1 view .LVU209
 639 0080 0129     		cmp	r1, #1
 640 0082 1ED0     		beq	.L41
 641 0084 0329     		cmp	r1, #3
 642 0086 62D0     		beq	.L42
1465:Drivers/STM32H5xx_HAL_Driver/Src/stm32h5xx_hal_rcc.c ****                                                            (fracn1 / (float_t)0x2000) + (float_t)1)
ARM GAS  C:\Users\sapph\AppData\Local\Temp\ccD3KfzI.s 			page 39


 643              		.loc 1 1465 11 view .LVU210
1465:Drivers/STM32H5xx_HAL_Driver/Src/stm32h5xx_hal_rcc.c ****                                                            (fracn1 / (float_t)0x2000) + (float_t)1)
 644              		.loc 1 1465 42 is_stmt 0 view .LVU211
 645 0088 07EE100A 		vmov	s14, r0	@ int
 646 008c F8EE476A 		vcvt.f32.u32	s13, s14
1465:Drivers/STM32H5xx_HAL_Driver/Src/stm32h5xx_hal_rcc.c ****                                                            (fracn1 / (float_t)0x2000) + (float_t)1)
 647              		.loc 1 1465 40 view .LVU212
 648 0090 9FED4B6A 		vldr.32	s12, .L56+8
 649 0094 86EE267A 		vdiv.f32	s14, s12, s13
1465:Drivers/STM32H5xx_HAL_Driver/Src/stm32h5xx_hal_rcc.c ****                                                            (fracn1 / (float_t)0x2000) + (float_t)1)
 650              		.loc 1 1465 83 view .LVU213
 651 0098 474B     		ldr	r3, .L56
 652 009a 5B6B     		ldr	r3, [r3, #52]
1465:Drivers/STM32H5xx_HAL_Driver/Src/stm32h5xx_hal_rcc.c ****                                                            (fracn1 / (float_t)0x2000) + (float_t)1)
 653              		.loc 1 1465 69 view .LVU214
 654 009c C3F30803 		ubfx	r3, r3, #0, #9
1465:Drivers/STM32H5xx_HAL_Driver/Src/stm32h5xx_hal_rcc.c ****                                                            (fracn1 / (float_t)0x2000) + (float_t)1)
 655              		.loc 1 1465 60 view .LVU215
 656 00a0 06EE903A 		vmov	s13, r3	@ int
 657 00a4 F8EE666A 		vcvt.f32.u32	s13, s13
1466:Drivers/STM32H5xx_HAL_Driver/Src/stm32h5xx_hal_rcc.c ****           break;
 658              		.loc 1 1466 68 view .LVU216
 659 00a8 9FED466A 		vldr.32	s12, .L56+12
 660 00ac 67EE867A 		vmul.f32	s15, s15, s12
 661              	.LVL43:
1465:Drivers/STM32H5xx_HAL_Driver/Src/stm32h5xx_hal_rcc.c ****                                                            (fracn1 / (float_t)0x2000) + (float_t)1)
 662              		.loc 1 1465 116 view .LVU217
 663 00b0 76EEA77A 		vadd.f32	s15, s13, s15
1466:Drivers/STM32H5xx_HAL_Driver/Src/stm32h5xx_hal_rcc.c ****           break;
 664              		.loc 1 1466 87 view .LVU218
 665 00b4 F7EE006A 		vmov.f32	s13, #1.0e+0
 666 00b8 77EEA67A 		vadd.f32	s15, s15, s13
1465:Drivers/STM32H5xx_HAL_Driver/Src/stm32h5xx_hal_rcc.c ****                                                            (fracn1 / (float_t)0x2000) + (float_t)1)
 667              		.loc 1 1465 18 view .LVU219
 668 00bc 27EE277A 		vmul.f32	s14, s14, s15
 669              	.LVL44:
1467:Drivers/STM32H5xx_HAL_Driver/Src/stm32h5xx_hal_rcc.c ****       }
 670              		.loc 1 1467 11 is_stmt 1 view .LVU220
 671 00c0 61E0     		b	.L45
 672              	.LVL45:
 673              	.L41:
1443:Drivers/STM32H5xx_HAL_Driver/Src/stm32h5xx_hal_rcc.c ****           {
 674              		.loc 1 1443 11 view .LVU221
1443:Drivers/STM32H5xx_HAL_Driver/Src/stm32h5xx_hal_rcc.c ****           {
 675              		.loc 1 1443 15 is_stmt 0 view .LVU222
 676 00c2 3D4B     		ldr	r3, .L56
 677 00c4 1B68     		ldr	r3, [r3]
1443:Drivers/STM32H5xx_HAL_Driver/Src/stm32h5xx_hal_rcc.c ****           {
 678              		.loc 1 1443 14 view .LVU223
 679 00c6 13F0200F 		tst	r3, #32
 680 00ca 23D0     		beq	.L44
1445:Drivers/STM32H5xx_HAL_Driver/Src/stm32h5xx_hal_rcc.c ****             pllvco = ((float_t)hsivalue / (float_t)pllm) * ((float_t)(uint32_t)(RCC->PLL1DIVR & RCC
 681              		.loc 1 1445 13 is_stmt 1 view .LVU224
1445:Drivers/STM32H5xx_HAL_Driver/Src/stm32h5xx_hal_rcc.c ****             pllvco = ((float_t)hsivalue / (float_t)pllm) * ((float_t)(uint32_t)(RCC->PLL1DIVR & RCC
 682              		.loc 1 1445 39 is_stmt 0 view .LVU225
 683 00cc 3A49     		ldr	r1, .L56
 684              	.LVL46:
ARM GAS  C:\Users\sapph\AppData\Local\Temp\ccD3KfzI.s 			page 40


1445:Drivers/STM32H5xx_HAL_Driver/Src/stm32h5xx_hal_rcc.c ****             pllvco = ((float_t)hsivalue / (float_t)pllm) * ((float_t)(uint32_t)(RCC->PLL1DIVR & RCC
 685              		.loc 1 1445 39 view .LVU226
 686 00ce 0A68     		ldr	r2, [r1]
 687              	.LVL47:
1445:Drivers/STM32H5xx_HAL_Driver/Src/stm32h5xx_hal_rcc.c ****             pllvco = ((float_t)hsivalue / (float_t)pllm) * ((float_t)(uint32_t)(RCC->PLL1DIVR & RCC
 688              		.loc 1 1445 67 view .LVU227
 689 00d0 C2F3C102 		ubfx	r2, r2, #3, #2
1445:Drivers/STM32H5xx_HAL_Driver/Src/stm32h5xx_hal_rcc.c ****             pllvco = ((float_t)hsivalue / (float_t)pllm) * ((float_t)(uint32_t)(RCC->PLL1DIVR & RCC
 690              		.loc 1 1445 22 view .LVU228
 691 00d4 394B     		ldr	r3, .L56+4
 692 00d6 D340     		lsrs	r3, r3, r2
 693              	.LVL48:
1446:Drivers/STM32H5xx_HAL_Driver/Src/stm32h5xx_hal_rcc.c ****                                                             (fracn1 / (float_t)0x2000) + (float_t)1
 694              		.loc 1 1446 13 is_stmt 1 view .LVU229
1446:Drivers/STM32H5xx_HAL_Driver/Src/stm32h5xx_hal_rcc.c ****                                                             (fracn1 / (float_t)0x2000) + (float_t)1
 695              		.loc 1 1446 23 is_stmt 0 view .LVU230
 696 00d8 07EE103A 		vmov	s14, r3	@ int
 697 00dc F8EE476A 		vcvt.f32.u32	s13, s14
1446:Drivers/STM32H5xx_HAL_Driver/Src/stm32h5xx_hal_rcc.c ****                                                             (fracn1 / (float_t)0x2000) + (float_t)1
 698              		.loc 1 1446 43 view .LVU231
 699 00e0 07EE100A 		vmov	s14, r0	@ int
 700 00e4 B8EE476A 		vcvt.f32.u32	s12, s14
1446:Drivers/STM32H5xx_HAL_Driver/Src/stm32h5xx_hal_rcc.c ****                                                             (fracn1 / (float_t)0x2000) + (float_t)1
 701              		.loc 1 1446 41 view .LVU232
 702 00e8 86EE867A 		vdiv.f32	s14, s13, s12
1446:Drivers/STM32H5xx_HAL_Driver/Src/stm32h5xx_hal_rcc.c ****                                                             (fracn1 / (float_t)0x2000) + (float_t)1
 703              		.loc 1 1446 84 view .LVU233
 704 00ec 4B6B     		ldr	r3, [r1, #52]
 705              	.LVL49:
1446:Drivers/STM32H5xx_HAL_Driver/Src/stm32h5xx_hal_rcc.c ****                                                             (fracn1 / (float_t)0x2000) + (float_t)1
 706              		.loc 1 1446 70 view .LVU234
 707 00ee C3F30803 		ubfx	r3, r3, #0, #9
1446:Drivers/STM32H5xx_HAL_Driver/Src/stm32h5xx_hal_rcc.c ****                                                             (fracn1 / (float_t)0x2000) + (float_t)1
 708              		.loc 1 1446 61 view .LVU235
 709 00f2 06EE903A 		vmov	s13, r3	@ int
 710 00f6 F8EE666A 		vcvt.f32.u32	s13, s13
1447:Drivers/STM32H5xx_HAL_Driver/Src/stm32h5xx_hal_rcc.c ****           }
 711              		.loc 1 1447 69 view .LVU236
 712 00fa 9FED326A 		vldr.32	s12, .L56+12
 713 00fe 67EE867A 		vmul.f32	s15, s15, s12
 714              	.LVL50:
1446:Drivers/STM32H5xx_HAL_Driver/Src/stm32h5xx_hal_rcc.c ****                                                             (fracn1 / (float_t)0x2000) + (float_t)1
 715              		.loc 1 1446 117 view .LVU237
 716 0102 76EEA77A 		vadd.f32	s15, s13, s15
1447:Drivers/STM32H5xx_HAL_Driver/Src/stm32h5xx_hal_rcc.c ****           }
 717              		.loc 1 1447 88 view .LVU238
 718 0106 F7EE006A 		vmov.f32	s13, #1.0e+0
 719 010a 77EEA67A 		vadd.f32	s15, s15, s13
1446:Drivers/STM32H5xx_HAL_Driver/Src/stm32h5xx_hal_rcc.c ****                                                             (fracn1 / (float_t)0x2000) + (float_t)1
 720              		.loc 1 1446 20 view .LVU239
 721 010e 27EE277A 		vmul.f32	s14, s14, s15
 722              	.LVL51:
1446:Drivers/STM32H5xx_HAL_Driver/Src/stm32h5xx_hal_rcc.c ****                                                             (fracn1 / (float_t)0x2000) + (float_t)1
 723              		.loc 1 1446 20 view .LVU240
 724 0112 38E0     		b	.L45
 725              	.LVL52:
 726              	.L44:
ARM GAS  C:\Users\sapph\AppData\Local\Temp\ccD3KfzI.s 			page 41


1451:Drivers/STM32H5xx_HAL_Driver/Src/stm32h5xx_hal_rcc.c ****                                                              (fracn1 / (float_t)0x2000) + (float_t)
 727              		.loc 1 1451 13 is_stmt 1 view .LVU241
1451:Drivers/STM32H5xx_HAL_Driver/Src/stm32h5xx_hal_rcc.c ****                                                              (fracn1 / (float_t)0x2000) + (float_t)
 728              		.loc 1 1451 44 is_stmt 0 view .LVU242
 729 0114 07EE100A 		vmov	s14, r0	@ int
 730 0118 F8EE476A 		vcvt.f32.u32	s13, s14
1451:Drivers/STM32H5xx_HAL_Driver/Src/stm32h5xx_hal_rcc.c ****                                                              (fracn1 / (float_t)0x2000) + (float_t)
 731              		.loc 1 1451 42 view .LVU243
 732 011c 9FED2A6A 		vldr.32	s12, .L56+16
 733 0120 86EE267A 		vdiv.f32	s14, s12, s13
1451:Drivers/STM32H5xx_HAL_Driver/Src/stm32h5xx_hal_rcc.c ****                                                              (fracn1 / (float_t)0x2000) + (float_t)
 734              		.loc 1 1451 85 view .LVU244
 735 0124 244B     		ldr	r3, .L56
 736 0126 5B6B     		ldr	r3, [r3, #52]
1451:Drivers/STM32H5xx_HAL_Driver/Src/stm32h5xx_hal_rcc.c ****                                                              (fracn1 / (float_t)0x2000) + (float_t)
 737              		.loc 1 1451 71 view .LVU245
 738 0128 C3F30803 		ubfx	r3, r3, #0, #9
1451:Drivers/STM32H5xx_HAL_Driver/Src/stm32h5xx_hal_rcc.c ****                                                              (fracn1 / (float_t)0x2000) + (float_t)
 739              		.loc 1 1451 62 view .LVU246
 740 012c 06EE903A 		vmov	s13, r3	@ int
 741 0130 F8EE666A 		vcvt.f32.u32	s13, s13
1452:Drivers/STM32H5xx_HAL_Driver/Src/stm32h5xx_hal_rcc.c ****           }
 742              		.loc 1 1452 70 view .LVU247
 743 0134 9FED236A 		vldr.32	s12, .L56+12
 744 0138 67EE867A 		vmul.f32	s15, s15, s12
 745              	.LVL53:
1451:Drivers/STM32H5xx_HAL_Driver/Src/stm32h5xx_hal_rcc.c ****                                                              (fracn1 / (float_t)0x2000) + (float_t)
 746              		.loc 1 1451 118 view .LVU248
 747 013c 76EEA77A 		vadd.f32	s15, s13, s15
1452:Drivers/STM32H5xx_HAL_Driver/Src/stm32h5xx_hal_rcc.c ****           }
 748              		.loc 1 1452 89 view .LVU249
 749 0140 F7EE006A 		vmov.f32	s13, #1.0e+0
 750 0144 77EEA67A 		vadd.f32	s15, s15, s13
1451:Drivers/STM32H5xx_HAL_Driver/Src/stm32h5xx_hal_rcc.c ****                                                              (fracn1 / (float_t)0x2000) + (float_t)
 751              		.loc 1 1451 20 view .LVU250
 752 0148 27EE277A 		vmul.f32	s14, s14, s15
 753              	.LVL54:
1451:Drivers/STM32H5xx_HAL_Driver/Src/stm32h5xx_hal_rcc.c ****                                                              (fracn1 / (float_t)0x2000) + (float_t)
 754              		.loc 1 1451 20 view .LVU251
 755 014c 1BE0     		b	.L45
 756              	.LVL55:
 757              	.L42:
1458:Drivers/STM32H5xx_HAL_Driver/Src/stm32h5xx_hal_rcc.c ****                                                            (fracn1 / (float_t)0x2000) + (float_t)1)
 758              		.loc 1 1458 11 is_stmt 1 view .LVU252
1458:Drivers/STM32H5xx_HAL_Driver/Src/stm32h5xx_hal_rcc.c ****                                                            (fracn1 / (float_t)0x2000) + (float_t)1)
 759              		.loc 1 1458 42 is_stmt 0 view .LVU253
 760 014e 07EE100A 		vmov	s14, r0	@ int
 761 0152 F8EE476A 		vcvt.f32.u32	s13, s14
1458:Drivers/STM32H5xx_HAL_Driver/Src/stm32h5xx_hal_rcc.c ****                                                            (fracn1 / (float_t)0x2000) + (float_t)1)
 762              		.loc 1 1458 40 view .LVU254
 763 0156 9FED1D6A 		vldr.32	s12, .L56+20
 764 015a 86EE267A 		vdiv.f32	s14, s12, s13
1458:Drivers/STM32H5xx_HAL_Driver/Src/stm32h5xx_hal_rcc.c ****                                                            (fracn1 / (float_t)0x2000) + (float_t)1)
 765              		.loc 1 1458 83 view .LVU255
 766 015e 164B     		ldr	r3, .L56
 767 0160 5B6B     		ldr	r3, [r3, #52]
1458:Drivers/STM32H5xx_HAL_Driver/Src/stm32h5xx_hal_rcc.c ****                                                            (fracn1 / (float_t)0x2000) + (float_t)1)
ARM GAS  C:\Users\sapph\AppData\Local\Temp\ccD3KfzI.s 			page 42


 768              		.loc 1 1458 69 view .LVU256
 769 0162 C3F30803 		ubfx	r3, r3, #0, #9
1458:Drivers/STM32H5xx_HAL_Driver/Src/stm32h5xx_hal_rcc.c ****                                                            (fracn1 / (float_t)0x2000) + (float_t)1)
 770              		.loc 1 1458 60 view .LVU257
 771 0166 06EE903A 		vmov	s13, r3	@ int
 772 016a F8EE666A 		vcvt.f32.u32	s13, s13
1459:Drivers/STM32H5xx_HAL_Driver/Src/stm32h5xx_hal_rcc.c **** 
 773              		.loc 1 1459 68 view .LVU258
 774 016e 9FED156A 		vldr.32	s12, .L56+12
 775 0172 67EE867A 		vmul.f32	s15, s15, s12
 776              	.LVL56:
1458:Drivers/STM32H5xx_HAL_Driver/Src/stm32h5xx_hal_rcc.c ****                                                            (fracn1 / (float_t)0x2000) + (float_t)1)
 777              		.loc 1 1458 116 view .LVU259
 778 0176 76EEA77A 		vadd.f32	s15, s13, s15
1459:Drivers/STM32H5xx_HAL_Driver/Src/stm32h5xx_hal_rcc.c **** 
 779              		.loc 1 1459 87 view .LVU260
 780 017a F7EE006A 		vmov.f32	s13, #1.0e+0
 781 017e 77EEA67A 		vadd.f32	s15, s15, s13
1458:Drivers/STM32H5xx_HAL_Driver/Src/stm32h5xx_hal_rcc.c ****                                                            (fracn1 / (float_t)0x2000) + (float_t)1)
 782              		.loc 1 1458 18 view .LVU261
 783 0182 27EE277A 		vmul.f32	s14, s14, s15
 784              	.LVL57:
1461:Drivers/STM32H5xx_HAL_Driver/Src/stm32h5xx_hal_rcc.c **** 
 785              		.loc 1 1461 11 is_stmt 1 view .LVU262
 786              	.L45:
1470:Drivers/STM32H5xx_HAL_Driver/Src/stm32h5xx_hal_rcc.c ****       sysclockfreq = (uint32_t)(float_t)(pllvco / (float_t)pllp);
 787              		.loc 1 1470 7 view .LVU263
1470:Drivers/STM32H5xx_HAL_Driver/Src/stm32h5xx_hal_rcc.c ****       sysclockfreq = (uint32_t)(float_t)(pllvco / (float_t)pllp);
 788              		.loc 1 1470 20 is_stmt 0 view .LVU264
 789 0186 0C4B     		ldr	r3, .L56
 790 0188 5B6B     		ldr	r3, [r3, #52]
1470:Drivers/STM32H5xx_HAL_Driver/Src/stm32h5xx_hal_rcc.c ****       sysclockfreq = (uint32_t)(float_t)(pllvco / (float_t)pllp);
 791              		.loc 1 1470 53 view .LVU265
 792 018a C3F34623 		ubfx	r3, r3, #9, #7
1470:Drivers/STM32H5xx_HAL_Driver/Src/stm32h5xx_hal_rcc.c ****       sysclockfreq = (uint32_t)(float_t)(pllvco / (float_t)pllp);
 793              		.loc 1 1470 12 view .LVU266
 794 018e 0133     		adds	r3, r3, #1
 795              	.LVL58:
1471:Drivers/STM32H5xx_HAL_Driver/Src/stm32h5xx_hal_rcc.c ****     }
 796              		.loc 1 1471 7 is_stmt 1 view .LVU267
1471:Drivers/STM32H5xx_HAL_Driver/Src/stm32h5xx_hal_rcc.c ****     }
 797              		.loc 1 1471 51 is_stmt 0 view .LVU268
 798 0190 07EE903A 		vmov	s15, r3	@ int
 799 0194 F8EE677A 		vcvt.f32.u32	s15, s15
1471:Drivers/STM32H5xx_HAL_Driver/Src/stm32h5xx_hal_rcc.c ****     }
 800              		.loc 1 1471 32 view .LVU269
 801 0198 C7EE276A 		vdiv.f32	s13, s14, s15
1471:Drivers/STM32H5xx_HAL_Driver/Src/stm32h5xx_hal_rcc.c ****     }
 802              		.loc 1 1471 20 view .LVU270
 803 019c FCEEE67A 		vcvt.u32.f32	s15, s13
 804 01a0 17EE900A 		vmov	r0, s15	@ int
 805              	.LVL59:
 806              	.L38:
 807              		.loc 1 1486 1 view .LVU271
 808 01a4 5DF8044B 		ldr	r4, [sp], #4
 809              		.cfi_restore 4
 810              		.cfi_def_cfa_offset 0
ARM GAS  C:\Users\sapph\AppData\Local\Temp\ccD3KfzI.s 			page 43


 811              	.LVL60:
 812              		.loc 1 1486 1 view .LVU272
 813 01a8 7047     		bx	lr
 814              	.LVL61:
 815              	.L46:
1404:Drivers/STM32H5xx_HAL_Driver/Src/stm32h5xx_hal_rcc.c ****   }
 816              		.loc 1 1404 18 view .LVU273
 817 01aa 0948     		ldr	r0, .L56+24
 818 01ac 7047     		bx	lr
 819              	.L47:
1415:Drivers/STM32H5xx_HAL_Driver/Src/stm32h5xx_hal_rcc.c ****     }
 820              		.loc 1 1415 20 view .LVU274
 821 01ae 0348     		ldr	r0, .L56+4
 822 01b0 7047     		bx	lr
 823              	.L48:
1421:Drivers/STM32H5xx_HAL_Driver/Src/stm32h5xx_hal_rcc.c ****   }
 824              		.loc 1 1421 18 view .LVU275
 825 01b2 0848     		ldr	r0, .L56+28
 826 01b4 7047     		bx	lr
 827              	.L57:
 828 01b6 00BF     		.align	2
 829              	.L56:
 830 01b8 000C0244 		.word	1140984832
 831 01bc 0090D003 		.word	64000000
 832 01c0 0024744A 		.word	1249125376
 833 01c4 00000039 		.word	956301312
 834 01c8 0024744C 		.word	1282679808
 835 01cc 20BCBE4B 		.word	1270791200
 836 01d0 00093D00 		.word	4000000
 837 01d4 40787D01 		.word	25000000
 838              		.cfi_endproc
 839              	.LFE164:
 841              		.section	.text.HAL_RCC_ClockConfig,"ax",%progbits
 842              		.align	1
 843              		.global	HAL_RCC_ClockConfig
 844              		.syntax unified
 845              		.thumb
 846              		.thumb_func
 848              	HAL_RCC_ClockConfig:
 849              	.LVL62:
 850              	.LFB162:
1033:Drivers/STM32H5xx_HAL_Driver/Src/stm32h5xx_hal_rcc.c ****   HAL_StatusTypeDef halstatus;
 851              		.loc 1 1033 1 is_stmt 1 view -0
 852              		.cfi_startproc
 853              		@ args = 0, pretend = 0, frame = 0
 854              		@ frame_needed = 0, uses_anonymous_args = 0
1034:Drivers/STM32H5xx_HAL_Driver/Src/stm32h5xx_hal_rcc.c ****   uint32_t tickstart;
 855              		.loc 1 1034 3 view .LVU277
1035:Drivers/STM32H5xx_HAL_Driver/Src/stm32h5xx_hal_rcc.c **** 
 856              		.loc 1 1035 3 view .LVU278
1038:Drivers/STM32H5xx_HAL_Driver/Src/stm32h5xx_hal_rcc.c ****   {
 857              		.loc 1 1038 3 view .LVU279
1038:Drivers/STM32H5xx_HAL_Driver/Src/stm32h5xx_hal_rcc.c ****   {
 858              		.loc 1 1038 6 is_stmt 0 view .LVU280
 859 0000 0028     		cmp	r0, #0
 860 0002 00F03781 		beq	.L85
1033:Drivers/STM32H5xx_HAL_Driver/Src/stm32h5xx_hal_rcc.c ****   HAL_StatusTypeDef halstatus;
ARM GAS  C:\Users\sapph\AppData\Local\Temp\ccD3KfzI.s 			page 44


 861              		.loc 1 1033 1 view .LVU281
 862 0006 70B5     		push	{r4, r5, r6, lr}
 863              		.cfi_def_cfa_offset 16
 864              		.cfi_offset 4, -16
 865              		.cfi_offset 5, -12
 866              		.cfi_offset 6, -8
 867              		.cfi_offset 14, -4
 868 0008 0D46     		mov	r5, r1
 869 000a 0446     		mov	r4, r0
1044:Drivers/STM32H5xx_HAL_Driver/Src/stm32h5xx_hal_rcc.c ****   assert_param(IS_FLASH_LATENCY(FLatency));
 870              		.loc 1 1044 3 is_stmt 1 view .LVU282
1045:Drivers/STM32H5xx_HAL_Driver/Src/stm32h5xx_hal_rcc.c **** 
 871              		.loc 1 1045 3 view .LVU283
1052:Drivers/STM32H5xx_HAL_Driver/Src/stm32h5xx_hal_rcc.c ****   {
 872              		.loc 1 1052 3 view .LVU284
1052:Drivers/STM32H5xx_HAL_Driver/Src/stm32h5xx_hal_rcc.c ****   {
 873              		.loc 1 1052 18 is_stmt 0 view .LVU285
 874 000c 9D4B     		ldr	r3, .L106
 875 000e 1B68     		ldr	r3, [r3]
 876 0010 03F00F03 		and	r3, r3, #15
1052:Drivers/STM32H5xx_HAL_Driver/Src/stm32h5xx_hal_rcc.c ****   {
 877              		.loc 1 1052 6 view .LVU286
 878 0014 8B42     		cmp	r3, r1
 879 0016 0BD2     		bcs	.L60
1055:Drivers/STM32H5xx_HAL_Driver/Src/stm32h5xx_hal_rcc.c **** 
 880              		.loc 1 1055 5 is_stmt 1 view .LVU287
 881 0018 9A4A     		ldr	r2, .L106
 882 001a 1368     		ldr	r3, [r2]
 883 001c 23F00F03 		bic	r3, r3, #15
 884 0020 0B43     		orrs	r3, r3, r1
 885 0022 1360     		str	r3, [r2]
1059:Drivers/STM32H5xx_HAL_Driver/Src/stm32h5xx_hal_rcc.c ****     {
 886              		.loc 1 1059 5 view .LVU288
1059:Drivers/STM32H5xx_HAL_Driver/Src/stm32h5xx_hal_rcc.c ****     {
 887              		.loc 1 1059 9 is_stmt 0 view .LVU289
 888 0024 1368     		ldr	r3, [r2]
 889 0026 03F00F03 		and	r3, r3, #15
1059:Drivers/STM32H5xx_HAL_Driver/Src/stm32h5xx_hal_rcc.c ****     {
 890              		.loc 1 1059 8 view .LVU290
 891 002a 8B42     		cmp	r3, r1
 892 002c 40F02481 		bne	.L86
 893              	.L60:
1067:Drivers/STM32H5xx_HAL_Driver/Src/stm32h5xx_hal_rcc.c ****   {
 894              		.loc 1 1067 3 is_stmt 1 view .LVU291
1067:Drivers/STM32H5xx_HAL_Driver/Src/stm32h5xx_hal_rcc.c ****   {
 895              		.loc 1 1067 23 is_stmt 0 view .LVU292
 896 0030 2368     		ldr	r3, [r4]
1067:Drivers/STM32H5xx_HAL_Driver/Src/stm32h5xx_hal_rcc.c ****   {
 897              		.loc 1 1067 6 view .LVU293
 898 0032 13F0100F 		tst	r3, #16
 899 0036 0ED0     		beq	.L61
1069:Drivers/STM32H5xx_HAL_Driver/Src/stm32h5xx_hal_rcc.c ****     {
 900              		.loc 1 1069 5 is_stmt 1 view .LVU294
1069:Drivers/STM32H5xx_HAL_Driver/Src/stm32h5xx_hal_rcc.c ****     {
 901              		.loc 1 1069 24 is_stmt 0 view .LVU295
 902 0038 6269     		ldr	r2, [r4, #20]
1069:Drivers/STM32H5xx_HAL_Driver/Src/stm32h5xx_hal_rcc.c ****     {
ARM GAS  C:\Users\sapph\AppData\Local\Temp\ccD3KfzI.s 			page 45


 903              		.loc 1 1069 49 view .LVU296
 904 003a 934B     		ldr	r3, .L106+4
 905 003c 1B6A     		ldr	r3, [r3, #32]
1069:Drivers/STM32H5xx_HAL_Driver/Src/stm32h5xx_hal_rcc.c ****     {
 906              		.loc 1 1069 76 view .LVU297
 907 003e 1B0A     		lsrs	r3, r3, #8
 908 0040 03F07003 		and	r3, r3, #112
1069:Drivers/STM32H5xx_HAL_Driver/Src/stm32h5xx_hal_rcc.c ****     {
 909              		.loc 1 1069 8 view .LVU298
 910 0044 9A42     		cmp	r2, r3
 911 0046 06D9     		bls	.L61
1071:Drivers/STM32H5xx_HAL_Driver/Src/stm32h5xx_hal_rcc.c ****       MODIFY_REG(RCC->CFGR2, RCC_CFGR2_PPRE3, ((pClkInitStruct->APB3CLKDivider) << 8));
 912              		.loc 1 1071 7 is_stmt 1 view .LVU299
1072:Drivers/STM32H5xx_HAL_Driver/Src/stm32h5xx_hal_rcc.c ****     }
 913              		.loc 1 1072 7 view .LVU300
 914 0048 8F49     		ldr	r1, .L106+4
 915              	.LVL63:
1072:Drivers/STM32H5xx_HAL_Driver/Src/stm32h5xx_hal_rcc.c ****     }
 916              		.loc 1 1072 7 is_stmt 0 view .LVU301
 917 004a 0B6A     		ldr	r3, [r1, #32]
 918 004c 23F4E043 		bic	r3, r3, #28672
 919 0050 43EA0223 		orr	r3, r3, r2, lsl #8
 920 0054 0B62     		str	r3, [r1, #32]
 921              	.L61:
1076:Drivers/STM32H5xx_HAL_Driver/Src/stm32h5xx_hal_rcc.c ****   {
 922              		.loc 1 1076 3 is_stmt 1 view .LVU302
1076:Drivers/STM32H5xx_HAL_Driver/Src/stm32h5xx_hal_rcc.c ****   {
 923              		.loc 1 1076 23 is_stmt 0 view .LVU303
 924 0056 2368     		ldr	r3, [r4]
1076:Drivers/STM32H5xx_HAL_Driver/Src/stm32h5xx_hal_rcc.c ****   {
 925              		.loc 1 1076 6 view .LVU304
 926 0058 13F0080F 		tst	r3, #8
 927 005c 0ED0     		beq	.L62
1078:Drivers/STM32H5xx_HAL_Driver/Src/stm32h5xx_hal_rcc.c ****     {
 928              		.loc 1 1078 5 is_stmt 1 view .LVU305
1078:Drivers/STM32H5xx_HAL_Driver/Src/stm32h5xx_hal_rcc.c ****     {
 929              		.loc 1 1078 24 is_stmt 0 view .LVU306
 930 005e 2269     		ldr	r2, [r4, #16]
1078:Drivers/STM32H5xx_HAL_Driver/Src/stm32h5xx_hal_rcc.c ****     {
 931              		.loc 1 1078 49 view .LVU307
 932 0060 894B     		ldr	r3, .L106+4
 933 0062 1B6A     		ldr	r3, [r3, #32]
1078:Drivers/STM32H5xx_HAL_Driver/Src/stm32h5xx_hal_rcc.c ****     {
 934              		.loc 1 1078 76 view .LVU308
 935 0064 1B09     		lsrs	r3, r3, #4
 936 0066 03F07003 		and	r3, r3, #112
1078:Drivers/STM32H5xx_HAL_Driver/Src/stm32h5xx_hal_rcc.c ****     {
 937              		.loc 1 1078 8 view .LVU309
 938 006a 9A42     		cmp	r2, r3
 939 006c 06D9     		bls	.L62
1080:Drivers/STM32H5xx_HAL_Driver/Src/stm32h5xx_hal_rcc.c ****       MODIFY_REG(RCC->CFGR2, RCC_CFGR2_PPRE2, ((pClkInitStruct->APB2CLKDivider) << 4));
 940              		.loc 1 1080 7 is_stmt 1 view .LVU310
1081:Drivers/STM32H5xx_HAL_Driver/Src/stm32h5xx_hal_rcc.c ****     }
 941              		.loc 1 1081 7 view .LVU311
 942 006e 8649     		ldr	r1, .L106+4
 943 0070 0B6A     		ldr	r3, [r1, #32]
 944 0072 23F4E063 		bic	r3, r3, #1792
ARM GAS  C:\Users\sapph\AppData\Local\Temp\ccD3KfzI.s 			page 46


 945 0076 43EA0213 		orr	r3, r3, r2, lsl #4
 946 007a 0B62     		str	r3, [r1, #32]
 947              	.L62:
1086:Drivers/STM32H5xx_HAL_Driver/Src/stm32h5xx_hal_rcc.c ****   {
 948              		.loc 1 1086 3 view .LVU312
1086:Drivers/STM32H5xx_HAL_Driver/Src/stm32h5xx_hal_rcc.c ****   {
 949              		.loc 1 1086 23 is_stmt 0 view .LVU313
 950 007c 2368     		ldr	r3, [r4]
1086:Drivers/STM32H5xx_HAL_Driver/Src/stm32h5xx_hal_rcc.c ****   {
 951              		.loc 1 1086 6 view .LVU314
 952 007e 13F0040F 		tst	r3, #4
 953 0082 0CD0     		beq	.L63
1088:Drivers/STM32H5xx_HAL_Driver/Src/stm32h5xx_hal_rcc.c ****     {
 954              		.loc 1 1088 5 is_stmt 1 view .LVU315
1088:Drivers/STM32H5xx_HAL_Driver/Src/stm32h5xx_hal_rcc.c ****     {
 955              		.loc 1 1088 24 is_stmt 0 view .LVU316
 956 0084 E268     		ldr	r2, [r4, #12]
1088:Drivers/STM32H5xx_HAL_Driver/Src/stm32h5xx_hal_rcc.c ****     {
 957              		.loc 1 1088 48 view .LVU317
 958 0086 804B     		ldr	r3, .L106+4
 959 0088 1B6A     		ldr	r3, [r3, #32]
1088:Drivers/STM32H5xx_HAL_Driver/Src/stm32h5xx_hal_rcc.c ****     {
 960              		.loc 1 1088 56 view .LVU318
 961 008a 03F07003 		and	r3, r3, #112
1088:Drivers/STM32H5xx_HAL_Driver/Src/stm32h5xx_hal_rcc.c ****     {
 962              		.loc 1 1088 8 view .LVU319
 963 008e 9A42     		cmp	r2, r3
 964 0090 05D9     		bls	.L63
1090:Drivers/STM32H5xx_HAL_Driver/Src/stm32h5xx_hal_rcc.c ****       MODIFY_REG(RCC->CFGR2, RCC_CFGR2_PPRE1, pClkInitStruct->APB1CLKDivider);
 965              		.loc 1 1090 7 is_stmt 1 view .LVU320
1091:Drivers/STM32H5xx_HAL_Driver/Src/stm32h5xx_hal_rcc.c ****     }
 966              		.loc 1 1091 7 view .LVU321
 967 0092 7D49     		ldr	r1, .L106+4
 968 0094 0B6A     		ldr	r3, [r1, #32]
 969 0096 23F07003 		bic	r3, r3, #112
 970 009a 1A43     		orrs	r2, r2, r3
 971 009c 0A62     		str	r2, [r1, #32]
 972              	.L63:
1096:Drivers/STM32H5xx_HAL_Driver/Src/stm32h5xx_hal_rcc.c ****   {
 973              		.loc 1 1096 3 view .LVU322
1096:Drivers/STM32H5xx_HAL_Driver/Src/stm32h5xx_hal_rcc.c ****   {
 974              		.loc 1 1096 23 is_stmt 0 view .LVU323
 975 009e 2368     		ldr	r3, [r4]
1096:Drivers/STM32H5xx_HAL_Driver/Src/stm32h5xx_hal_rcc.c ****   {
 976              		.loc 1 1096 6 view .LVU324
 977 00a0 13F0020F 		tst	r3, #2
 978 00a4 0CD0     		beq	.L64
1098:Drivers/STM32H5xx_HAL_Driver/Src/stm32h5xx_hal_rcc.c ****     {
 979              		.loc 1 1098 5 is_stmt 1 view .LVU325
1098:Drivers/STM32H5xx_HAL_Driver/Src/stm32h5xx_hal_rcc.c ****     {
 980              		.loc 1 1098 24 is_stmt 0 view .LVU326
 981 00a6 A268     		ldr	r2, [r4, #8]
1098:Drivers/STM32H5xx_HAL_Driver/Src/stm32h5xx_hal_rcc.c ****     {
 982              		.loc 1 1098 47 view .LVU327
 983 00a8 774B     		ldr	r3, .L106+4
 984 00aa 1B6A     		ldr	r3, [r3, #32]
1098:Drivers/STM32H5xx_HAL_Driver/Src/stm32h5xx_hal_rcc.c ****     {
ARM GAS  C:\Users\sapph\AppData\Local\Temp\ccD3KfzI.s 			page 47


 985              		.loc 1 1098 55 view .LVU328
 986 00ac 03F00F03 		and	r3, r3, #15
1098:Drivers/STM32H5xx_HAL_Driver/Src/stm32h5xx_hal_rcc.c ****     {
 987              		.loc 1 1098 8 view .LVU329
 988 00b0 9A42     		cmp	r2, r3
 989 00b2 05D9     		bls	.L64
1100:Drivers/STM32H5xx_HAL_Driver/Src/stm32h5xx_hal_rcc.c ****       MODIFY_REG(RCC->CFGR2, RCC_CFGR2_HPRE, pClkInitStruct->AHBCLKDivider);
 990              		.loc 1 1100 7 is_stmt 1 view .LVU330
1101:Drivers/STM32H5xx_HAL_Driver/Src/stm32h5xx_hal_rcc.c ****     }
 991              		.loc 1 1101 7 view .LVU331
 992 00b4 7449     		ldr	r1, .L106+4
 993 00b6 0B6A     		ldr	r3, [r1, #32]
 994 00b8 23F00F03 		bic	r3, r3, #15
 995 00bc 1A43     		orrs	r2, r2, r3
 996 00be 0A62     		str	r2, [r1, #32]
 997              	.L64:
1106:Drivers/STM32H5xx_HAL_Driver/Src/stm32h5xx_hal_rcc.c ****   {
 998              		.loc 1 1106 3 view .LVU332
1106:Drivers/STM32H5xx_HAL_Driver/Src/stm32h5xx_hal_rcc.c ****   {
 999              		.loc 1 1106 23 is_stmt 0 view .LVU333
 1000 00c0 2368     		ldr	r3, [r4]
1106:Drivers/STM32H5xx_HAL_Driver/Src/stm32h5xx_hal_rcc.c ****   {
 1001              		.loc 1 1106 6 view .LVU334
 1002 00c2 13F0010F 		tst	r3, #1
 1003 00c6 6CD0     		beq	.L65
1108:Drivers/STM32H5xx_HAL_Driver/Src/stm32h5xx_hal_rcc.c **** 
 1004              		.loc 1 1108 5 is_stmt 1 view .LVU335
1111:Drivers/STM32H5xx_HAL_Driver/Src/stm32h5xx_hal_rcc.c ****     {
 1005              		.loc 1 1111 5 view .LVU336
1111:Drivers/STM32H5xx_HAL_Driver/Src/stm32h5xx_hal_rcc.c ****     {
 1006              		.loc 1 1111 23 is_stmt 0 view .LVU337
 1007 00c8 6368     		ldr	r3, [r4, #4]
1111:Drivers/STM32H5xx_HAL_Driver/Src/stm32h5xx_hal_rcc.c ****     {
 1008              		.loc 1 1111 8 view .LVU338
 1009 00ca 032B     		cmp	r3, #3
 1010 00cc 0AD0     		beq	.L102
1122:Drivers/STM32H5xx_HAL_Driver/Src/stm32h5xx_hal_rcc.c ****       {
 1011              		.loc 1 1122 7 is_stmt 1 view .LVU339
1122:Drivers/STM32H5xx_HAL_Driver/Src/stm32h5xx_hal_rcc.c ****       {
 1012              		.loc 1 1122 10 is_stmt 0 view .LVU340
 1013 00ce 022B     		cmp	r3, #2
 1014 00d0 2CD0     		beq	.L103
1131:Drivers/STM32H5xx_HAL_Driver/Src/stm32h5xx_hal_rcc.c ****       {
 1015              		.loc 1 1131 12 is_stmt 1 view .LVU341
1131:Drivers/STM32H5xx_HAL_Driver/Src/stm32h5xx_hal_rcc.c ****       {
 1016              		.loc 1 1131 15 is_stmt 0 view .LVU342
 1017 00d2 012B     		cmp	r3, #1
 1018 00d4 31D0     		beq	.L104
1143:Drivers/STM32H5xx_HAL_Driver/Src/stm32h5xx_hal_rcc.c ****         {
 1019              		.loc 1 1143 9 is_stmt 1 view .LVU343
1143:Drivers/STM32H5xx_HAL_Driver/Src/stm32h5xx_hal_rcc.c ****         {
 1020              		.loc 1 1143 13 is_stmt 0 view .LVU344
 1021 00d6 6C4A     		ldr	r2, .L106+4
 1022 00d8 1268     		ldr	r2, [r2]
1143:Drivers/STM32H5xx_HAL_Driver/Src/stm32h5xx_hal_rcc.c ****         {
 1023              		.loc 1 1143 12 view .LVU345
 1024 00da 12F0020F 		tst	r2, #2
ARM GAS  C:\Users\sapph\AppData\Local\Temp\ccD3KfzI.s 			page 48


 1025 00de 07D1     		bne	.L67
1145:Drivers/STM32H5xx_HAL_Driver/Src/stm32h5xx_hal_rcc.c ****         }
 1026              		.loc 1 1145 18 view .LVU346
 1027 00e0 0120     		movs	r0, #1
 1028              	.LVL64:
1145:Drivers/STM32H5xx_HAL_Driver/Src/stm32h5xx_hal_rcc.c ****         }
 1029              		.loc 1 1145 18 view .LVU347
 1030 00e2 C6E0     		b	.L59
 1031              	.LVL65:
 1032              	.L102:
1114:Drivers/STM32H5xx_HAL_Driver/Src/stm32h5xx_hal_rcc.c ****       {
 1033              		.loc 1 1114 7 is_stmt 1 view .LVU348
1114:Drivers/STM32H5xx_HAL_Driver/Src/stm32h5xx_hal_rcc.c ****       {
 1034              		.loc 1 1114 11 is_stmt 0 view .LVU349
 1035 00e4 684A     		ldr	r2, .L106+4
 1036 00e6 1268     		ldr	r2, [r2]
1114:Drivers/STM32H5xx_HAL_Driver/Src/stm32h5xx_hal_rcc.c ****       {
 1037              		.loc 1 1114 10 view .LVU350
 1038 00e8 12F0007F 		tst	r2, #33554432
 1039 00ec 00F0C680 		beq	.L105
 1040              	.L67:
1150:Drivers/STM32H5xx_HAL_Driver/Src/stm32h5xx_hal_rcc.c **** 
 1041              		.loc 1 1150 5 is_stmt 1 view .LVU351
 1042 00f0 6549     		ldr	r1, .L106+4
 1043 00f2 CA69     		ldr	r2, [r1, #28]
 1044 00f4 22F00302 		bic	r2, r2, #3
 1045 00f8 1343     		orrs	r3, r3, r2
 1046 00fa CB61     		str	r3, [r1, #28]
1153:Drivers/STM32H5xx_HAL_Driver/Src/stm32h5xx_hal_rcc.c **** 
 1047              		.loc 1 1153 5 view .LVU352
1153:Drivers/STM32H5xx_HAL_Driver/Src/stm32h5xx_hal_rcc.c **** 
 1048              		.loc 1 1153 17 is_stmt 0 view .LVU353
 1049 00fc FFF7FEFF 		bl	HAL_GetTick
 1050              	.LVL66:
1153:Drivers/STM32H5xx_HAL_Driver/Src/stm32h5xx_hal_rcc.c **** 
 1051              		.loc 1 1153 17 view .LVU354
 1052 0100 0646     		mov	r6, r0
 1053              	.LVL67:
1155:Drivers/STM32H5xx_HAL_Driver/Src/stm32h5xx_hal_rcc.c ****     {
 1054              		.loc 1 1155 5 is_stmt 1 view .LVU355
1155:Drivers/STM32H5xx_HAL_Driver/Src/stm32h5xx_hal_rcc.c ****     {
 1055              		.loc 1 1155 23 is_stmt 0 view .LVU356
 1056 0102 6368     		ldr	r3, [r4, #4]
1155:Drivers/STM32H5xx_HAL_Driver/Src/stm32h5xx_hal_rcc.c ****     {
 1057              		.loc 1 1155 8 view .LVU357
 1058 0104 032B     		cmp	r3, #3
 1059 0106 1FD0     		beq	.L70
1167:Drivers/STM32H5xx_HAL_Driver/Src/stm32h5xx_hal_rcc.c ****       {
 1060              		.loc 1 1167 7 is_stmt 1 view .LVU358
1167:Drivers/STM32H5xx_HAL_Driver/Src/stm32h5xx_hal_rcc.c ****       {
 1061              		.loc 1 1167 10 is_stmt 0 view .LVU359
 1062 0108 022B     		cmp	r3, #2
 1063 010a 2CD0     		beq	.L73
1177:Drivers/STM32H5xx_HAL_Driver/Src/stm32h5xx_hal_rcc.c ****       {
 1064              		.loc 1 1177 12 is_stmt 1 view .LVU360
1177:Drivers/STM32H5xx_HAL_Driver/Src/stm32h5xx_hal_rcc.c ****       {
 1065              		.loc 1 1177 15 is_stmt 0 view .LVU361
ARM GAS  C:\Users\sapph\AppData\Local\Temp\ccD3KfzI.s 			page 49


 1066 010c 012B     		cmp	r3, #1
 1067 010e 39D0     		beq	.L76
 1068              	.LVL68:
 1069              	.L77:
1189:Drivers/STM32H5xx_HAL_Driver/Src/stm32h5xx_hal_rcc.c ****         {
 1070              		.loc 1 1189 46 is_stmt 1 view .LVU362
1189:Drivers/STM32H5xx_HAL_Driver/Src/stm32h5xx_hal_rcc.c ****         {
 1071              		.loc 1 1189 16 is_stmt 0 view .LVU363
 1072 0110 5D4B     		ldr	r3, .L106+4
 1073 0112 DB69     		ldr	r3, [r3, #28]
1189:Drivers/STM32H5xx_HAL_Driver/Src/stm32h5xx_hal_rcc.c ****         {
 1074              		.loc 1 1189 46 view .LVU364
 1075 0114 13F0180F 		tst	r3, #24
 1076 0118 43D0     		beq	.L65
1191:Drivers/STM32H5xx_HAL_Driver/Src/stm32h5xx_hal_rcc.c ****           {
 1077              		.loc 1 1191 11 is_stmt 1 view .LVU365
1191:Drivers/STM32H5xx_HAL_Driver/Src/stm32h5xx_hal_rcc.c ****           {
 1078              		.loc 1 1191 16 is_stmt 0 view .LVU366
 1079 011a FFF7FEFF 		bl	HAL_GetTick
 1080              	.LVL69:
1191:Drivers/STM32H5xx_HAL_Driver/Src/stm32h5xx_hal_rcc.c ****           {
 1081              		.loc 1 1191 30 discriminator 1 view .LVU367
 1082 011e 801B     		subs	r0, r0, r6
1191:Drivers/STM32H5xx_HAL_Driver/Src/stm32h5xx_hal_rcc.c ****           {
 1083              		.loc 1 1191 14 discriminator 1 view .LVU368
 1084 0120 41F28833 		movw	r3, #5000
 1085 0124 9842     		cmp	r0, r3
 1086 0126 F3D9     		bls	.L77
1193:Drivers/STM32H5xx_HAL_Driver/Src/stm32h5xx_hal_rcc.c ****           }
 1087              		.loc 1 1193 20 view .LVU369
 1088 0128 0320     		movs	r0, #3
 1089 012a A2E0     		b	.L59
 1090              	.LVL70:
 1091              	.L103:
1125:Drivers/STM32H5xx_HAL_Driver/Src/stm32h5xx_hal_rcc.c ****         {
 1092              		.loc 1 1125 9 is_stmt 1 view .LVU370
1125:Drivers/STM32H5xx_HAL_Driver/Src/stm32h5xx_hal_rcc.c ****         {
 1093              		.loc 1 1125 13 is_stmt 0 view .LVU371
 1094 012c 564A     		ldr	r2, .L106+4
 1095 012e 1268     		ldr	r2, [r2]
1125:Drivers/STM32H5xx_HAL_Driver/Src/stm32h5xx_hal_rcc.c ****         {
 1096              		.loc 1 1125 12 view .LVU372
 1097 0130 12F4003F 		tst	r2, #131072
 1098 0134 DCD1     		bne	.L67
1127:Drivers/STM32H5xx_HAL_Driver/Src/stm32h5xx_hal_rcc.c ****         }
 1099              		.loc 1 1127 18 view .LVU373
 1100 0136 0120     		movs	r0, #1
 1101              	.LVL71:
1127:Drivers/STM32H5xx_HAL_Driver/Src/stm32h5xx_hal_rcc.c ****         }
 1102              		.loc 1 1127 18 view .LVU374
 1103 0138 9BE0     		b	.L59
 1104              	.LVL72:
 1105              	.L104:
1134:Drivers/STM32H5xx_HAL_Driver/Src/stm32h5xx_hal_rcc.c ****         {
 1106              		.loc 1 1134 9 is_stmt 1 view .LVU375
1134:Drivers/STM32H5xx_HAL_Driver/Src/stm32h5xx_hal_rcc.c ****         {
 1107              		.loc 1 1134 13 is_stmt 0 view .LVU376
ARM GAS  C:\Users\sapph\AppData\Local\Temp\ccD3KfzI.s 			page 50


 1108 013a 534A     		ldr	r2, .L106+4
 1109 013c 1268     		ldr	r2, [r2]
1134:Drivers/STM32H5xx_HAL_Driver/Src/stm32h5xx_hal_rcc.c ****         {
 1110              		.loc 1 1134 12 view .LVU377
 1111 013e 12F4007F 		tst	r2, #512
 1112 0142 D5D1     		bne	.L67
1136:Drivers/STM32H5xx_HAL_Driver/Src/stm32h5xx_hal_rcc.c ****         }
 1113              		.loc 1 1136 18 view .LVU378
 1114 0144 0120     		movs	r0, #1
 1115              	.LVL73:
1136:Drivers/STM32H5xx_HAL_Driver/Src/stm32h5xx_hal_rcc.c ****         }
 1116              		.loc 1 1136 18 view .LVU379
 1117 0146 94E0     		b	.L59
 1118              	.LVL74:
 1119              	.L70:
1157:Drivers/STM32H5xx_HAL_Driver/Src/stm32h5xx_hal_rcc.c ****       {
 1120              		.loc 1 1157 44 is_stmt 1 view .LVU380
1157:Drivers/STM32H5xx_HAL_Driver/Src/stm32h5xx_hal_rcc.c ****       {
 1121              		.loc 1 1157 14 is_stmt 0 view .LVU381
 1122 0148 4F4B     		ldr	r3, .L106+4
 1123 014a DB69     		ldr	r3, [r3, #28]
 1124 014c 03F01803 		and	r3, r3, #24
1157:Drivers/STM32H5xx_HAL_Driver/Src/stm32h5xx_hal_rcc.c ****       {
 1125              		.loc 1 1157 44 view .LVU382
 1126 0150 182B     		cmp	r3, #24
 1127 0152 26D0     		beq	.L65
1159:Drivers/STM32H5xx_HAL_Driver/Src/stm32h5xx_hal_rcc.c ****         {
 1128              		.loc 1 1159 9 is_stmt 1 view .LVU383
1159:Drivers/STM32H5xx_HAL_Driver/Src/stm32h5xx_hal_rcc.c ****         {
 1129              		.loc 1 1159 14 is_stmt 0 view .LVU384
 1130 0154 FFF7FEFF 		bl	HAL_GetTick
 1131              	.LVL75:
1159:Drivers/STM32H5xx_HAL_Driver/Src/stm32h5xx_hal_rcc.c ****         {
 1132              		.loc 1 1159 28 discriminator 1 view .LVU385
 1133 0158 831B     		subs	r3, r0, r6
1159:Drivers/STM32H5xx_HAL_Driver/Src/stm32h5xx_hal_rcc.c ****         {
 1134              		.loc 1 1159 12 discriminator 1 view .LVU386
 1135 015a 41F28832 		movw	r2, #5000
 1136 015e 9342     		cmp	r3, r2
 1137 0160 F2D9     		bls	.L70
1161:Drivers/STM32H5xx_HAL_Driver/Src/stm32h5xx_hal_rcc.c ****         }
 1138              		.loc 1 1161 18 view .LVU387
 1139 0162 0320     		movs	r0, #3
 1140 0164 85E0     		b	.L59
 1141              	.L73:
1169:Drivers/STM32H5xx_HAL_Driver/Src/stm32h5xx_hal_rcc.c ****         {
 1142              		.loc 1 1169 46 is_stmt 1 view .LVU388
1169:Drivers/STM32H5xx_HAL_Driver/Src/stm32h5xx_hal_rcc.c ****         {
 1143              		.loc 1 1169 16 is_stmt 0 view .LVU389
 1144 0166 484B     		ldr	r3, .L106+4
 1145 0168 DB69     		ldr	r3, [r3, #28]
 1146 016a 03F01803 		and	r3, r3, #24
1169:Drivers/STM32H5xx_HAL_Driver/Src/stm32h5xx_hal_rcc.c ****         {
 1147              		.loc 1 1169 46 view .LVU390
 1148 016e 102B     		cmp	r3, #16
 1149 0170 17D0     		beq	.L65
1171:Drivers/STM32H5xx_HAL_Driver/Src/stm32h5xx_hal_rcc.c ****           {
ARM GAS  C:\Users\sapph\AppData\Local\Temp\ccD3KfzI.s 			page 51


 1150              		.loc 1 1171 11 is_stmt 1 view .LVU391
1171:Drivers/STM32H5xx_HAL_Driver/Src/stm32h5xx_hal_rcc.c ****           {
 1151              		.loc 1 1171 16 is_stmt 0 view .LVU392
 1152 0172 FFF7FEFF 		bl	HAL_GetTick
 1153              	.LVL76:
1171:Drivers/STM32H5xx_HAL_Driver/Src/stm32h5xx_hal_rcc.c ****           {
 1154              		.loc 1 1171 30 discriminator 1 view .LVU393
 1155 0176 801B     		subs	r0, r0, r6
1171:Drivers/STM32H5xx_HAL_Driver/Src/stm32h5xx_hal_rcc.c ****           {
 1156              		.loc 1 1171 14 discriminator 1 view .LVU394
 1157 0178 41F28833 		movw	r3, #5000
 1158 017c 9842     		cmp	r0, r3
 1159 017e F2D9     		bls	.L73
1173:Drivers/STM32H5xx_HAL_Driver/Src/stm32h5xx_hal_rcc.c ****           }
 1160              		.loc 1 1173 20 view .LVU395
 1161 0180 0320     		movs	r0, #3
 1162 0182 76E0     		b	.L59
 1163              	.L76:
1179:Drivers/STM32H5xx_HAL_Driver/Src/stm32h5xx_hal_rcc.c ****         {
 1164              		.loc 1 1179 46 is_stmt 1 view .LVU396
1179:Drivers/STM32H5xx_HAL_Driver/Src/stm32h5xx_hal_rcc.c ****         {
 1165              		.loc 1 1179 16 is_stmt 0 view .LVU397
 1166 0184 404B     		ldr	r3, .L106+4
 1167 0186 DB69     		ldr	r3, [r3, #28]
 1168 0188 03F01803 		and	r3, r3, #24
1179:Drivers/STM32H5xx_HAL_Driver/Src/stm32h5xx_hal_rcc.c ****         {
 1169              		.loc 1 1179 46 view .LVU398
 1170 018c 082B     		cmp	r3, #8
 1171 018e 08D0     		beq	.L65
1181:Drivers/STM32H5xx_HAL_Driver/Src/stm32h5xx_hal_rcc.c ****           {
 1172              		.loc 1 1181 11 is_stmt 1 view .LVU399
1181:Drivers/STM32H5xx_HAL_Driver/Src/stm32h5xx_hal_rcc.c ****           {
 1173              		.loc 1 1181 16 is_stmt 0 view .LVU400
 1174 0190 FFF7FEFF 		bl	HAL_GetTick
 1175              	.LVL77:
1181:Drivers/STM32H5xx_HAL_Driver/Src/stm32h5xx_hal_rcc.c ****           {
 1176              		.loc 1 1181 30 discriminator 1 view .LVU401
 1177 0194 801B     		subs	r0, r0, r6
1181:Drivers/STM32H5xx_HAL_Driver/Src/stm32h5xx_hal_rcc.c ****           {
 1178              		.loc 1 1181 14 discriminator 1 view .LVU402
 1179 0196 41F28833 		movw	r3, #5000
 1180 019a 9842     		cmp	r0, r3
 1181 019c F2D9     		bls	.L76
1183:Drivers/STM32H5xx_HAL_Driver/Src/stm32h5xx_hal_rcc.c ****           }
 1182              		.loc 1 1183 20 view .LVU403
 1183 019e 0320     		movs	r0, #3
 1184 01a0 67E0     		b	.L59
 1185              	.LVL78:
 1186              	.L65:
1202:Drivers/STM32H5xx_HAL_Driver/Src/stm32h5xx_hal_rcc.c ****   {
 1187              		.loc 1 1202 3 is_stmt 1 view .LVU404
1202:Drivers/STM32H5xx_HAL_Driver/Src/stm32h5xx_hal_rcc.c ****   {
 1188              		.loc 1 1202 23 is_stmt 0 view .LVU405
 1189 01a2 2368     		ldr	r3, [r4]
1202:Drivers/STM32H5xx_HAL_Driver/Src/stm32h5xx_hal_rcc.c ****   {
 1190              		.loc 1 1202 6 view .LVU406
 1191 01a4 13F0020F 		tst	r3, #2
ARM GAS  C:\Users\sapph\AppData\Local\Temp\ccD3KfzI.s 			page 52


 1192 01a8 0CD0     		beq	.L80
1204:Drivers/STM32H5xx_HAL_Driver/Src/stm32h5xx_hal_rcc.c ****     {
 1193              		.loc 1 1204 5 is_stmt 1 view .LVU407
1204:Drivers/STM32H5xx_HAL_Driver/Src/stm32h5xx_hal_rcc.c ****     {
 1194              		.loc 1 1204 24 is_stmt 0 view .LVU408
 1195 01aa A268     		ldr	r2, [r4, #8]
1204:Drivers/STM32H5xx_HAL_Driver/Src/stm32h5xx_hal_rcc.c ****     {
 1196              		.loc 1 1204 47 view .LVU409
 1197 01ac 364B     		ldr	r3, .L106+4
 1198 01ae 1B6A     		ldr	r3, [r3, #32]
1204:Drivers/STM32H5xx_HAL_Driver/Src/stm32h5xx_hal_rcc.c ****     {
 1199              		.loc 1 1204 55 view .LVU410
 1200 01b0 03F00F03 		and	r3, r3, #15
1204:Drivers/STM32H5xx_HAL_Driver/Src/stm32h5xx_hal_rcc.c ****     {
 1201              		.loc 1 1204 8 view .LVU411
 1202 01b4 9A42     		cmp	r2, r3
 1203 01b6 05D2     		bcs	.L80
1206:Drivers/STM32H5xx_HAL_Driver/Src/stm32h5xx_hal_rcc.c ****       MODIFY_REG(RCC->CFGR2, RCC_CFGR2_HPRE, pClkInitStruct->AHBCLKDivider);
 1204              		.loc 1 1206 7 is_stmt 1 view .LVU412
1207:Drivers/STM32H5xx_HAL_Driver/Src/stm32h5xx_hal_rcc.c ****     }
 1205              		.loc 1 1207 7 view .LVU413
 1206 01b8 3349     		ldr	r1, .L106+4
 1207 01ba 0B6A     		ldr	r3, [r1, #32]
 1208 01bc 23F00F03 		bic	r3, r3, #15
 1209 01c0 1A43     		orrs	r2, r2, r3
 1210 01c2 0A62     		str	r2, [r1, #32]
 1211              	.L80:
1212:Drivers/STM32H5xx_HAL_Driver/Src/stm32h5xx_hal_rcc.c ****   {
 1212              		.loc 1 1212 3 view .LVU414
1212:Drivers/STM32H5xx_HAL_Driver/Src/stm32h5xx_hal_rcc.c ****   {
 1213              		.loc 1 1212 18 is_stmt 0 view .LVU415
 1214 01c4 2F4B     		ldr	r3, .L106
 1215 01c6 1B68     		ldr	r3, [r3]
 1216 01c8 03F00F03 		and	r3, r3, #15
1212:Drivers/STM32H5xx_HAL_Driver/Src/stm32h5xx_hal_rcc.c ****   {
 1217              		.loc 1 1212 6 view .LVU416
 1218 01cc AB42     		cmp	r3, r5
 1219 01ce 0AD9     		bls	.L81
1215:Drivers/STM32H5xx_HAL_Driver/Src/stm32h5xx_hal_rcc.c **** 
 1220              		.loc 1 1215 5 is_stmt 1 view .LVU417
 1221 01d0 2C4A     		ldr	r2, .L106
 1222 01d2 1368     		ldr	r3, [r2]
 1223 01d4 23F00F03 		bic	r3, r3, #15
 1224 01d8 2B43     		orrs	r3, r3, r5
 1225 01da 1360     		str	r3, [r2]
1219:Drivers/STM32H5xx_HAL_Driver/Src/stm32h5xx_hal_rcc.c ****     {
 1226              		.loc 1 1219 5 view .LVU418
1219:Drivers/STM32H5xx_HAL_Driver/Src/stm32h5xx_hal_rcc.c ****     {
 1227              		.loc 1 1219 9 is_stmt 0 view .LVU419
 1228 01dc 1368     		ldr	r3, [r2]
 1229 01de 03F00F03 		and	r3, r3, #15
1219:Drivers/STM32H5xx_HAL_Driver/Src/stm32h5xx_hal_rcc.c ****     {
 1230              		.loc 1 1219 8 view .LVU420
 1231 01e2 AB42     		cmp	r3, r5
 1232 01e4 4CD1     		bne	.L95
 1233              	.L81:
1226:Drivers/STM32H5xx_HAL_Driver/Src/stm32h5xx_hal_rcc.c ****   {
ARM GAS  C:\Users\sapph\AppData\Local\Temp\ccD3KfzI.s 			page 53


 1234              		.loc 1 1226 3 is_stmt 1 view .LVU421
1226:Drivers/STM32H5xx_HAL_Driver/Src/stm32h5xx_hal_rcc.c ****   {
 1235              		.loc 1 1226 23 is_stmt 0 view .LVU422
 1236 01e6 2368     		ldr	r3, [r4]
1226:Drivers/STM32H5xx_HAL_Driver/Src/stm32h5xx_hal_rcc.c ****   {
 1237              		.loc 1 1226 6 view .LVU423
 1238 01e8 13F0040F 		tst	r3, #4
 1239 01ec 0CD0     		beq	.L82
1228:Drivers/STM32H5xx_HAL_Driver/Src/stm32h5xx_hal_rcc.c ****     {
 1240              		.loc 1 1228 5 is_stmt 1 view .LVU424
1228:Drivers/STM32H5xx_HAL_Driver/Src/stm32h5xx_hal_rcc.c ****     {
 1241              		.loc 1 1228 24 is_stmt 0 view .LVU425
 1242 01ee E268     		ldr	r2, [r4, #12]
1228:Drivers/STM32H5xx_HAL_Driver/Src/stm32h5xx_hal_rcc.c ****     {
 1243              		.loc 1 1228 48 view .LVU426
 1244 01f0 254B     		ldr	r3, .L106+4
 1245 01f2 1B6A     		ldr	r3, [r3, #32]
1228:Drivers/STM32H5xx_HAL_Driver/Src/stm32h5xx_hal_rcc.c ****     {
 1246              		.loc 1 1228 56 view .LVU427
 1247 01f4 03F07003 		and	r3, r3, #112
1228:Drivers/STM32H5xx_HAL_Driver/Src/stm32h5xx_hal_rcc.c ****     {
 1248              		.loc 1 1228 8 view .LVU428
 1249 01f8 9A42     		cmp	r2, r3
 1250 01fa 05D2     		bcs	.L82
1230:Drivers/STM32H5xx_HAL_Driver/Src/stm32h5xx_hal_rcc.c ****       MODIFY_REG(RCC->CFGR2, RCC_CFGR2_PPRE1, pClkInitStruct->APB1CLKDivider);
 1251              		.loc 1 1230 7 is_stmt 1 view .LVU429
1231:Drivers/STM32H5xx_HAL_Driver/Src/stm32h5xx_hal_rcc.c ****     }
 1252              		.loc 1 1231 7 view .LVU430
 1253 01fc 2249     		ldr	r1, .L106+4
 1254 01fe 0B6A     		ldr	r3, [r1, #32]
 1255 0200 23F07003 		bic	r3, r3, #112
 1256 0204 1A43     		orrs	r2, r2, r3
 1257 0206 0A62     		str	r2, [r1, #32]
 1258              	.L82:
1236:Drivers/STM32H5xx_HAL_Driver/Src/stm32h5xx_hal_rcc.c ****   {
 1259              		.loc 1 1236 3 view .LVU431
1236:Drivers/STM32H5xx_HAL_Driver/Src/stm32h5xx_hal_rcc.c ****   {
 1260              		.loc 1 1236 23 is_stmt 0 view .LVU432
 1261 0208 2368     		ldr	r3, [r4]
1236:Drivers/STM32H5xx_HAL_Driver/Src/stm32h5xx_hal_rcc.c ****   {
 1262              		.loc 1 1236 6 view .LVU433
 1263 020a 13F0080F 		tst	r3, #8
 1264 020e 0ED0     		beq	.L83
1238:Drivers/STM32H5xx_HAL_Driver/Src/stm32h5xx_hal_rcc.c ****     {
 1265              		.loc 1 1238 5 is_stmt 1 view .LVU434
1238:Drivers/STM32H5xx_HAL_Driver/Src/stm32h5xx_hal_rcc.c ****     {
 1266              		.loc 1 1238 24 is_stmt 0 view .LVU435
 1267 0210 2269     		ldr	r2, [r4, #16]
1238:Drivers/STM32H5xx_HAL_Driver/Src/stm32h5xx_hal_rcc.c ****     {
 1268              		.loc 1 1238 49 view .LVU436
 1269 0212 1D4B     		ldr	r3, .L106+4
 1270 0214 1B6A     		ldr	r3, [r3, #32]
1238:Drivers/STM32H5xx_HAL_Driver/Src/stm32h5xx_hal_rcc.c ****     {
 1271              		.loc 1 1238 76 view .LVU437
 1272 0216 1B09     		lsrs	r3, r3, #4
 1273 0218 03F07003 		and	r3, r3, #112
1238:Drivers/STM32H5xx_HAL_Driver/Src/stm32h5xx_hal_rcc.c ****     {
ARM GAS  C:\Users\sapph\AppData\Local\Temp\ccD3KfzI.s 			page 54


 1274              		.loc 1 1238 8 view .LVU438
 1275 021c 9A42     		cmp	r2, r3
 1276 021e 06D2     		bcs	.L83
1240:Drivers/STM32H5xx_HAL_Driver/Src/stm32h5xx_hal_rcc.c ****       MODIFY_REG(RCC->CFGR2, RCC_CFGR2_PPRE2, ((pClkInitStruct->APB2CLKDivider) << 4));
 1277              		.loc 1 1240 7 is_stmt 1 view .LVU439
1241:Drivers/STM32H5xx_HAL_Driver/Src/stm32h5xx_hal_rcc.c ****     }
 1278              		.loc 1 1241 7 view .LVU440
 1279 0220 1949     		ldr	r1, .L106+4
 1280 0222 0B6A     		ldr	r3, [r1, #32]
 1281 0224 23F4E063 		bic	r3, r3, #1792
 1282 0228 43EA0213 		orr	r3, r3, r2, lsl #4
 1283 022c 0B62     		str	r3, [r1, #32]
 1284              	.L83:
1246:Drivers/STM32H5xx_HAL_Driver/Src/stm32h5xx_hal_rcc.c ****   {
 1285              		.loc 1 1246 3 view .LVU441
1246:Drivers/STM32H5xx_HAL_Driver/Src/stm32h5xx_hal_rcc.c ****   {
 1286              		.loc 1 1246 23 is_stmt 0 view .LVU442
 1287 022e 2368     		ldr	r3, [r4]
1246:Drivers/STM32H5xx_HAL_Driver/Src/stm32h5xx_hal_rcc.c ****   {
 1288              		.loc 1 1246 6 view .LVU443
 1289 0230 13F0100F 		tst	r3, #16
 1290 0234 0ED0     		beq	.L84
1248:Drivers/STM32H5xx_HAL_Driver/Src/stm32h5xx_hal_rcc.c ****     {
 1291              		.loc 1 1248 5 is_stmt 1 view .LVU444
1248:Drivers/STM32H5xx_HAL_Driver/Src/stm32h5xx_hal_rcc.c ****     {
 1292              		.loc 1 1248 24 is_stmt 0 view .LVU445
 1293 0236 6269     		ldr	r2, [r4, #20]
1248:Drivers/STM32H5xx_HAL_Driver/Src/stm32h5xx_hal_rcc.c ****     {
 1294              		.loc 1 1248 49 view .LVU446
 1295 0238 134B     		ldr	r3, .L106+4
 1296 023a 1B6A     		ldr	r3, [r3, #32]
1248:Drivers/STM32H5xx_HAL_Driver/Src/stm32h5xx_hal_rcc.c ****     {
 1297              		.loc 1 1248 76 view .LVU447
 1298 023c 1B0A     		lsrs	r3, r3, #8
 1299 023e 03F07003 		and	r3, r3, #112
1248:Drivers/STM32H5xx_HAL_Driver/Src/stm32h5xx_hal_rcc.c ****     {
 1300              		.loc 1 1248 8 view .LVU448
 1301 0242 9A42     		cmp	r2, r3
 1302 0244 06D2     		bcs	.L84
1250:Drivers/STM32H5xx_HAL_Driver/Src/stm32h5xx_hal_rcc.c ****       MODIFY_REG(RCC->CFGR2, RCC_CFGR2_PPRE3, ((pClkInitStruct->APB3CLKDivider) << 8));
 1303              		.loc 1 1250 7 is_stmt 1 view .LVU449
1251:Drivers/STM32H5xx_HAL_Driver/Src/stm32h5xx_hal_rcc.c ****     }
 1304              		.loc 1 1251 7 view .LVU450
 1305 0246 1049     		ldr	r1, .L106+4
 1306 0248 0B6A     		ldr	r3, [r1, #32]
 1307 024a 23F4E043 		bic	r3, r3, #28672
 1308 024e 43EA0223 		orr	r3, r3, r2, lsl #8
 1309 0252 0B62     		str	r3, [r1, #32]
 1310              	.L84:
1256:Drivers/STM32H5xx_HAL_Driver/Src/stm32h5xx_hal_rcc.c **** 
 1311              		.loc 1 1256 3 view .LVU451
1256:Drivers/STM32H5xx_HAL_Driver/Src/stm32h5xx_hal_rcc.c **** 
 1312              		.loc 1 1256 21 is_stmt 0 view .LVU452
 1313 0254 FFF7FEFF 		bl	HAL_RCC_GetSysClockFreq
 1314              	.LVL79:
1256:Drivers/STM32H5xx_HAL_Driver/Src/stm32h5xx_hal_rcc.c **** 
 1315              		.loc 1 1256 68 discriminator 1 view .LVU453
ARM GAS  C:\Users\sapph\AppData\Local\Temp\ccD3KfzI.s 			page 55


 1316 0258 0B4B     		ldr	r3, .L106+4
 1317 025a 1B6A     		ldr	r3, [r3, #32]
1256:Drivers/STM32H5xx_HAL_Driver/Src/stm32h5xx_hal_rcc.c **** 
 1318              		.loc 1 1256 94 discriminator 1 view .LVU454
 1319 025c 03F00F03 		and	r3, r3, #15
1256:Drivers/STM32H5xx_HAL_Driver/Src/stm32h5xx_hal_rcc.c **** 
 1320              		.loc 1 1256 63 discriminator 1 view .LVU455
 1321 0260 0A4A     		ldr	r2, .L106+8
 1322 0262 D35C     		ldrb	r3, [r2, r3]	@ zero_extendqisi2
1256:Drivers/STM32H5xx_HAL_Driver/Src/stm32h5xx_hal_rcc.c **** 
 1323              		.loc 1 1256 47 discriminator 1 view .LVU456
 1324 0264 D840     		lsrs	r0, r0, r3
1256:Drivers/STM32H5xx_HAL_Driver/Src/stm32h5xx_hal_rcc.c **** 
 1325              		.loc 1 1256 19 discriminator 1 view .LVU457
 1326 0266 0A4B     		ldr	r3, .L106+12
 1327 0268 1860     		str	r0, [r3]
1259:Drivers/STM32H5xx_HAL_Driver/Src/stm32h5xx_hal_rcc.c **** 
 1328              		.loc 1 1259 3 is_stmt 1 view .LVU458
1259:Drivers/STM32H5xx_HAL_Driver/Src/stm32h5xx_hal_rcc.c **** 
 1329              		.loc 1 1259 15 is_stmt 0 view .LVU459
 1330 026a 0A4B     		ldr	r3, .L106+16
 1331 026c 1868     		ldr	r0, [r3]
 1332 026e FFF7FEFF 		bl	HAL_InitTick
 1333              	.LVL80:
1261:Drivers/STM32H5xx_HAL_Driver/Src/stm32h5xx_hal_rcc.c **** }
 1334              		.loc 1 1261 3 is_stmt 1 view .LVU460
 1335              	.L59:
1262:Drivers/STM32H5xx_HAL_Driver/Src/stm32h5xx_hal_rcc.c **** 
 1336              		.loc 1 1262 1 is_stmt 0 view .LVU461
 1337 0272 70BD     		pop	{r4, r5, r6, pc}
 1338              	.LVL81:
 1339              	.L85:
 1340              		.cfi_def_cfa_offset 0
 1341              		.cfi_restore 4
 1342              		.cfi_restore 5
 1343              		.cfi_restore 6
 1344              		.cfi_restore 14
1040:Drivers/STM32H5xx_HAL_Driver/Src/stm32h5xx_hal_rcc.c ****   }
 1345              		.loc 1 1040 12 view .LVU462
 1346 0274 0120     		movs	r0, #1
 1347              	.LVL82:
1262:Drivers/STM32H5xx_HAL_Driver/Src/stm32h5xx_hal_rcc.c **** 
 1348              		.loc 1 1262 1 view .LVU463
 1349 0276 7047     		bx	lr
 1350              	.LVL83:
 1351              	.L86:
 1352              		.cfi_def_cfa_offset 16
 1353              		.cfi_offset 4, -16
 1354              		.cfi_offset 5, -12
 1355              		.cfi_offset 6, -8
 1356              		.cfi_offset 14, -4
1061:Drivers/STM32H5xx_HAL_Driver/Src/stm32h5xx_hal_rcc.c ****     }
 1357              		.loc 1 1061 14 view .LVU464
 1358 0278 0120     		movs	r0, #1
 1359              	.LVL84:
1061:Drivers/STM32H5xx_HAL_Driver/Src/stm32h5xx_hal_rcc.c ****     }
 1360              		.loc 1 1061 14 view .LVU465
ARM GAS  C:\Users\sapph\AppData\Local\Temp\ccD3KfzI.s 			page 56


 1361 027a FAE7     		b	.L59
 1362              	.LVL85:
 1363              	.L105:
1116:Drivers/STM32H5xx_HAL_Driver/Src/stm32h5xx_hal_rcc.c ****       }
 1364              		.loc 1 1116 16 view .LVU466
 1365 027c 0120     		movs	r0, #1
 1366              	.LVL86:
1116:Drivers/STM32H5xx_HAL_Driver/Src/stm32h5xx_hal_rcc.c ****       }
 1367              		.loc 1 1116 16 view .LVU467
 1368 027e F8E7     		b	.L59
 1369              	.L95:
1221:Drivers/STM32H5xx_HAL_Driver/Src/stm32h5xx_hal_rcc.c ****     }
 1370              		.loc 1 1221 14 view .LVU468
 1371 0280 0120     		movs	r0, #1
 1372 0282 F6E7     		b	.L59
 1373              	.L107:
 1374              		.align	2
 1375              	.L106:
 1376 0284 00200240 		.word	1073881088
 1377 0288 000C0244 		.word	1140984832
 1378 028c 00000000 		.word	AHBPrescTable
 1379 0290 00000000 		.word	SystemCoreClock
 1380 0294 00000000 		.word	uwTickPrio
 1381              		.cfi_endproc
 1382              	.LFE162:
 1384              		.section	.text.HAL_RCC_GetHCLKFreq,"ax",%progbits
 1385              		.align	1
 1386              		.global	HAL_RCC_GetHCLKFreq
 1387              		.syntax unified
 1388              		.thumb
 1389              		.thumb_func
 1391              	HAL_RCC_GetHCLKFreq:
 1392              	.LFB165:
1487:Drivers/STM32H5xx_HAL_Driver/Src/stm32h5xx_hal_rcc.c **** 
1488:Drivers/STM32H5xx_HAL_Driver/Src/stm32h5xx_hal_rcc.c **** /**
1489:Drivers/STM32H5xx_HAL_Driver/Src/stm32h5xx_hal_rcc.c ****   * @brief  Return the HCLK frequency.
1490:Drivers/STM32H5xx_HAL_Driver/Src/stm32h5xx_hal_rcc.c ****   * @note   Each time HCLK changes, this function must be called to update the
1491:Drivers/STM32H5xx_HAL_Driver/Src/stm32h5xx_hal_rcc.c ****   *         right HCLK value. Otherwise, any configuration based on this function will be incorrect
1492:Drivers/STM32H5xx_HAL_Driver/Src/stm32h5xx_hal_rcc.c ****   *
1493:Drivers/STM32H5xx_HAL_Driver/Src/stm32h5xx_hal_rcc.c ****   * @note   The SystemCoreClock CMSIS variable is used to store System Clock Frequency.
1494:Drivers/STM32H5xx_HAL_Driver/Src/stm32h5xx_hal_rcc.c ****   * @retval HCLK frequency in Hz
1495:Drivers/STM32H5xx_HAL_Driver/Src/stm32h5xx_hal_rcc.c ****   */
1496:Drivers/STM32H5xx_HAL_Driver/Src/stm32h5xx_hal_rcc.c **** uint32_t HAL_RCC_GetHCLKFreq(void)
1497:Drivers/STM32H5xx_HAL_Driver/Src/stm32h5xx_hal_rcc.c **** {
 1393              		.loc 1 1497 1 is_stmt 1 view -0
 1394              		.cfi_startproc
 1395              		@ args = 0, pretend = 0, frame = 0
 1396              		@ frame_needed = 0, uses_anonymous_args = 0
 1397 0000 08B5     		push	{r3, lr}
 1398              		.cfi_def_cfa_offset 8
 1399              		.cfi_offset 3, -8
 1400              		.cfi_offset 14, -4
1498:Drivers/STM32H5xx_HAL_Driver/Src/stm32h5xx_hal_rcc.c **** 
1499:Drivers/STM32H5xx_HAL_Driver/Src/stm32h5xx_hal_rcc.c ****   SystemCoreClock = HAL_RCC_GetSysClockFreq() >> (AHBPrescTable[(RCC->CFGR2 & RCC_CFGR2_HPRE) \
 1401              		.loc 1 1499 3 view .LVU470
 1402              		.loc 1 1499 21 is_stmt 0 view .LVU471
 1403 0002 FFF7FEFF 		bl	HAL_RCC_GetSysClockFreq
ARM GAS  C:\Users\sapph\AppData\Local\Temp\ccD3KfzI.s 			page 57


 1404              	.LVL87:
 1405              		.loc 1 1499 69 discriminator 1 view .LVU472
 1406 0006 064B     		ldr	r3, .L110
 1407 0008 1B6A     		ldr	r3, [r3, #32]
1500:Drivers/STM32H5xx_HAL_Driver/Src/stm32h5xx_hal_rcc.c ****                                                                 >> RCC_CFGR2_HPRE_Pos] & 0x1FU);
 1408              		.loc 1 1500 65 view .LVU473
 1409 000a 03F00F03 		and	r3, r3, #15
1499:Drivers/STM32H5xx_HAL_Driver/Src/stm32h5xx_hal_rcc.c ****                                                                 >> RCC_CFGR2_HPRE_Pos] & 0x1FU);
 1410              		.loc 1 1499 64 view .LVU474
 1411 000e 054A     		ldr	r2, .L110+4
 1412 0010 D35C     		ldrb	r3, [r2, r3]	@ zero_extendqisi2
 1413              		.loc 1 1500 88 view .LVU475
 1414 0012 03F01F03 		and	r3, r3, #31
1499:Drivers/STM32H5xx_HAL_Driver/Src/stm32h5xx_hal_rcc.c ****                                                                 >> RCC_CFGR2_HPRE_Pos] & 0x1FU);
 1415              		.loc 1 1499 47 view .LVU476
 1416 0016 D840     		lsrs	r0, r0, r3
1499:Drivers/STM32H5xx_HAL_Driver/Src/stm32h5xx_hal_rcc.c ****                                                                 >> RCC_CFGR2_HPRE_Pos] & 0x1FU);
 1417              		.loc 1 1499 19 view .LVU477
 1418 0018 034B     		ldr	r3, .L110+8
 1419 001a 1860     		str	r0, [r3]
1501:Drivers/STM32H5xx_HAL_Driver/Src/stm32h5xx_hal_rcc.c **** 
1502:Drivers/STM32H5xx_HAL_Driver/Src/stm32h5xx_hal_rcc.c ****   return SystemCoreClock;
 1420              		.loc 1 1502 3 is_stmt 1 view .LVU478
1503:Drivers/STM32H5xx_HAL_Driver/Src/stm32h5xx_hal_rcc.c **** }
 1421              		.loc 1 1503 1 is_stmt 0 view .LVU479
 1422 001c 08BD     		pop	{r3, pc}
 1423              	.L111:
 1424 001e 00BF     		.align	2
 1425              	.L110:
 1426 0020 000C0244 		.word	1140984832
 1427 0024 00000000 		.word	AHBPrescTable
 1428 0028 00000000 		.word	SystemCoreClock
 1429              		.cfi_endproc
 1430              	.LFE165:
 1432              		.section	.text.HAL_RCC_OscConfig,"ax",%progbits
 1433              		.align	1
 1434              		.global	HAL_RCC_OscConfig
 1435              		.syntax unified
 1436              		.thumb
 1437              		.thumb_func
 1439              	HAL_RCC_OscConfig:
 1440              	.LVL88:
 1441              	.LFB161:
 461:Drivers/STM32H5xx_HAL_Driver/Src/stm32h5xx_hal_rcc.c ****   uint32_t tickstart;
 1442              		.loc 1 461 1 is_stmt 1 view -0
 1443              		.cfi_startproc
 1444              		@ args = 0, pretend = 0, frame = 0
 1445              		@ frame_needed = 0, uses_anonymous_args = 0
 462:Drivers/STM32H5xx_HAL_Driver/Src/stm32h5xx_hal_rcc.c ****   uint32_t temp_sysclksrc;
 1446              		.loc 1 462 3 view .LVU481
 463:Drivers/STM32H5xx_HAL_Driver/Src/stm32h5xx_hal_rcc.c ****   uint32_t temp_pllckselr;
 1447              		.loc 1 463 3 view .LVU482
 464:Drivers/STM32H5xx_HAL_Driver/Src/stm32h5xx_hal_rcc.c ****   uint32_t temp1_pllckcfg;
 1448              		.loc 1 464 3 view .LVU483
 465:Drivers/STM32H5xx_HAL_Driver/Src/stm32h5xx_hal_rcc.c ****   uint32_t temp2_pllckcfg;
 1449              		.loc 1 465 3 view .LVU484
 466:Drivers/STM32H5xx_HAL_Driver/Src/stm32h5xx_hal_rcc.c **** 
ARM GAS  C:\Users\sapph\AppData\Local\Temp\ccD3KfzI.s 			page 58


 1450              		.loc 1 466 3 view .LVU485
 469:Drivers/STM32H5xx_HAL_Driver/Src/stm32h5xx_hal_rcc.c ****   {
 1451              		.loc 1 469 3 view .LVU486
 469:Drivers/STM32H5xx_HAL_Driver/Src/stm32h5xx_hal_rcc.c ****   {
 1452              		.loc 1 469 6 is_stmt 0 view .LVU487
 1453 0000 0028     		cmp	r0, #0
 1454 0002 00F02883 		beq	.L181
 461:Drivers/STM32H5xx_HAL_Driver/Src/stm32h5xx_hal_rcc.c ****   uint32_t tickstart;
 1455              		.loc 1 461 1 view .LVU488
 1456 0006 F8B5     		push	{r3, r4, r5, r6, r7, lr}
 1457              		.cfi_def_cfa_offset 24
 1458              		.cfi_offset 3, -24
 1459              		.cfi_offset 4, -20
 1460              		.cfi_offset 5, -16
 1461              		.cfi_offset 6, -12
 1462              		.cfi_offset 7, -8
 1463              		.cfi_offset 14, -4
 1464 0008 0446     		mov	r4, r0
 475:Drivers/STM32H5xx_HAL_Driver/Src/stm32h5xx_hal_rcc.c ****   temp_sysclksrc = __HAL_RCC_GET_SYSCLK_SOURCE();
 1465              		.loc 1 475 3 is_stmt 1 view .LVU489
 476:Drivers/STM32H5xx_HAL_Driver/Src/stm32h5xx_hal_rcc.c ****   temp_pllckselr = __HAL_RCC_GET_PLL1_OSCSOURCE();
 1466              		.loc 1 476 3 view .LVU490
 476:Drivers/STM32H5xx_HAL_Driver/Src/stm32h5xx_hal_rcc.c ****   temp_pllckselr = __HAL_RCC_GET_PLL1_OSCSOURCE();
 1467              		.loc 1 476 20 is_stmt 0 view .LVU491
 1468 000a A24B     		ldr	r3, .L236
 1469 000c DD69     		ldr	r5, [r3, #28]
 476:Drivers/STM32H5xx_HAL_Driver/Src/stm32h5xx_hal_rcc.c ****   temp_pllckselr = __HAL_RCC_GET_PLL1_OSCSOURCE();
 1470              		.loc 1 476 18 view .LVU492
 1471 000e 05F01805 		and	r5, r5, #24
 1472              	.LVL89:
 477:Drivers/STM32H5xx_HAL_Driver/Src/stm32h5xx_hal_rcc.c **** 
 1473              		.loc 1 477 3 is_stmt 1 view .LVU493
 477:Drivers/STM32H5xx_HAL_Driver/Src/stm32h5xx_hal_rcc.c **** 
 1474              		.loc 1 477 20 is_stmt 0 view .LVU494
 1475 0012 9E6A     		ldr	r6, [r3, #40]
 477:Drivers/STM32H5xx_HAL_Driver/Src/stm32h5xx_hal_rcc.c **** 
 1476              		.loc 1 477 18 view .LVU495
 1477 0014 06F00306 		and	r6, r6, #3
 1478              	.LVL90:
 480:Drivers/STM32H5xx_HAL_Driver/Src/stm32h5xx_hal_rcc.c ****   {
 1479              		.loc 1 480 3 is_stmt 1 view .LVU496
 480:Drivers/STM32H5xx_HAL_Driver/Src/stm32h5xx_hal_rcc.c ****   {
 1480              		.loc 1 480 23 is_stmt 0 view .LVU497
 1481 0018 0368     		ldr	r3, [r0]
 480:Drivers/STM32H5xx_HAL_Driver/Src/stm32h5xx_hal_rcc.c ****   {
 1482              		.loc 1 480 6 view .LVU498
 1483 001a 13F0100F 		tst	r3, #16
 1484 001e 28D0     		beq	.L114
 483:Drivers/STM32H5xx_HAL_Driver/Src/stm32h5xx_hal_rcc.c ****     assert_param(IS_RCC_CSICALIBRATION_VALUE(pOscInitStruct->CSICalibrationValue));
 1485              		.loc 1 483 5 is_stmt 1 view .LVU499
 484:Drivers/STM32H5xx_HAL_Driver/Src/stm32h5xx_hal_rcc.c **** 
 1486              		.loc 1 484 5 view .LVU500
 487:Drivers/STM32H5xx_HAL_Driver/Src/stm32h5xx_hal_rcc.c ****         ((temp_sysclksrc == RCC_SYSCLKSOURCE_STATUS_PLLCLK) && (temp_pllckselr == RCC_PLL1_SOURCE_C
 1487              		.loc 1 487 5 view .LVU501
 487:Drivers/STM32H5xx_HAL_Driver/Src/stm32h5xx_hal_rcc.c ****         ((temp_sysclksrc == RCC_SYSCLKSOURCE_STATUS_PLLCLK) && (temp_pllckselr == RCC_PLL1_SOURCE_C
 1488              		.loc 1 487 8 is_stmt 0 view .LVU502
 1489 0020 082D     		cmp	r5, #8
ARM GAS  C:\Users\sapph\AppData\Local\Temp\ccD3KfzI.s 			page 59


 1490 0022 1AD0     		beq	.L115
 487:Drivers/STM32H5xx_HAL_Driver/Src/stm32h5xx_hal_rcc.c ****         ((temp_sysclksrc == RCC_SYSCLKSOURCE_STATUS_PLLCLK) && (temp_pllckselr == RCC_PLL1_SOURCE_C
 1491              		.loc 1 487 57 discriminator 1 view .LVU503
 1492 0024 182D     		cmp	r5, #24
 1493 0026 16D0     		beq	.L216
 1494              	.L116:
 505:Drivers/STM32H5xx_HAL_Driver/Src/stm32h5xx_hal_rcc.c ****       {
 1495              		.loc 1 505 7 is_stmt 1 view .LVU504
 505:Drivers/STM32H5xx_HAL_Driver/Src/stm32h5xx_hal_rcc.c ****       {
 1496              		.loc 1 505 26 is_stmt 0 view .LVU505
 1497 0028 E369     		ldr	r3, [r4, #28]
 505:Drivers/STM32H5xx_HAL_Driver/Src/stm32h5xx_hal_rcc.c ****       {
 1498              		.loc 1 505 10 view .LVU506
 1499 002a 002B     		cmp	r3, #0
 1500 002c 46D0     		beq	.L117
 508:Drivers/STM32H5xx_HAL_Driver/Src/stm32h5xx_hal_rcc.c **** 
 1501              		.loc 1 508 9 is_stmt 1 view .LVU507
 1502 002e 994A     		ldr	r2, .L236
 1503 0030 1368     		ldr	r3, [r2]
 1504 0032 43F48073 		orr	r3, r3, #256
 1505 0036 1360     		str	r3, [r2]
 511:Drivers/STM32H5xx_HAL_Driver/Src/stm32h5xx_hal_rcc.c **** 
 1506              		.loc 1 511 9 view .LVU508
 511:Drivers/STM32H5xx_HAL_Driver/Src/stm32h5xx_hal_rcc.c **** 
 1507              		.loc 1 511 21 is_stmt 0 view .LVU509
 1508 0038 FFF7FEFF 		bl	HAL_GetTick
 1509              	.LVL91:
 511:Drivers/STM32H5xx_HAL_Driver/Src/stm32h5xx_hal_rcc.c **** 
 1510              		.loc 1 511 21 view .LVU510
 1511 003c 0746     		mov	r7, r0
 1512              	.LVL92:
 514:Drivers/STM32H5xx_HAL_Driver/Src/stm32h5xx_hal_rcc.c ****         {
 1513              		.loc 1 514 9 is_stmt 1 view .LVU511
 1514              	.L118:
 514:Drivers/STM32H5xx_HAL_Driver/Src/stm32h5xx_hal_rcc.c ****         {
 1515              		.loc 1 514 49 view .LVU512
 514:Drivers/STM32H5xx_HAL_Driver/Src/stm32h5xx_hal_rcc.c ****         {
 1516              		.loc 1 514 16 is_stmt 0 view .LVU513
 1517 003e 954B     		ldr	r3, .L236
 1518 0040 1B68     		ldr	r3, [r3]
 514:Drivers/STM32H5xx_HAL_Driver/Src/stm32h5xx_hal_rcc.c ****         {
 1519              		.loc 1 514 49 view .LVU514
 1520 0042 13F4007F 		tst	r3, #512
 1521 0046 30D1     		bne	.L217
 516:Drivers/STM32H5xx_HAL_Driver/Src/stm32h5xx_hal_rcc.c ****           {
 1522              		.loc 1 516 11 is_stmt 1 view .LVU515
 516:Drivers/STM32H5xx_HAL_Driver/Src/stm32h5xx_hal_rcc.c ****           {
 1523              		.loc 1 516 16 is_stmt 0 view .LVU516
 1524 0048 FFF7FEFF 		bl	HAL_GetTick
 1525              	.LVL93:
 516:Drivers/STM32H5xx_HAL_Driver/Src/stm32h5xx_hal_rcc.c ****           {
 1526              		.loc 1 516 30 discriminator 1 view .LVU517
 1527 004c C01B     		subs	r0, r0, r7
 516:Drivers/STM32H5xx_HAL_Driver/Src/stm32h5xx_hal_rcc.c ****           {
 1528              		.loc 1 516 14 discriminator 1 view .LVU518
 1529 004e 0228     		cmp	r0, #2
 1530 0050 F5D9     		bls	.L118
ARM GAS  C:\Users\sapph\AppData\Local\Temp\ccD3KfzI.s 			page 60


 518:Drivers/STM32H5xx_HAL_Driver/Src/stm32h5xx_hal_rcc.c ****           }
 1531              		.loc 1 518 20 view .LVU519
 1532 0052 0320     		movs	r0, #3
 1533 0054 08E3     		b	.L113
 1534              	.LVL94:
 1535              	.L216:
 488:Drivers/STM32H5xx_HAL_Driver/Src/stm32h5xx_hal_rcc.c ****     {
 1536              		.loc 1 488 61 view .LVU520
 1537 0056 022E     		cmp	r6, #2
 1538 0058 E6D1     		bne	.L116
 1539              	.L115:
 490:Drivers/STM32H5xx_HAL_Driver/Src/stm32h5xx_hal_rcc.c ****       {
 1540              		.loc 1 490 7 is_stmt 1 view .LVU521
 490:Drivers/STM32H5xx_HAL_Driver/Src/stm32h5xx_hal_rcc.c ****       {
 1541              		.loc 1 490 25 is_stmt 0 view .LVU522
 1542 005a E369     		ldr	r3, [r4, #28]
 490:Drivers/STM32H5xx_HAL_Driver/Src/stm32h5xx_hal_rcc.c ****       {
 1543              		.loc 1 490 10 view .LVU523
 1544 005c 002B     		cmp	r3, #0
 1545 005e 00F0FC82 		beq	.L182
 499:Drivers/STM32H5xx_HAL_Driver/Src/stm32h5xx_hal_rcc.c ****       }
 1546              		.loc 1 499 9 is_stmt 1 view .LVU524
 499:Drivers/STM32H5xx_HAL_Driver/Src/stm32h5xx_hal_rcc.c ****       }
 1547              		.loc 1 499 9 view .LVU525
 1548 0062 8C4A     		ldr	r2, .L236
 1549 0064 9369     		ldr	r3, [r2, #24]
 1550 0066 23F47C13 		bic	r3, r3, #4128768
 1551 006a 216A     		ldr	r1, [r4, #32]
 1552 006c 43EA0143 		orr	r3, r3, r1, lsl #16
 1553 0070 9361     		str	r3, [r2, #24]
 499:Drivers/STM32H5xx_HAL_Driver/Src/stm32h5xx_hal_rcc.c ****       }
 1554              		.loc 1 499 9 view .LVU526
 1555              	.LVL95:
 1556              	.L114:
 545:Drivers/STM32H5xx_HAL_Driver/Src/stm32h5xx_hal_rcc.c ****   {
 1557              		.loc 1 545 3 view .LVU527
 545:Drivers/STM32H5xx_HAL_Driver/Src/stm32h5xx_hal_rcc.c ****   {
 1558              		.loc 1 545 23 is_stmt 0 view .LVU528
 1559 0072 2368     		ldr	r3, [r4]
 545:Drivers/STM32H5xx_HAL_Driver/Src/stm32h5xx_hal_rcc.c ****   {
 1560              		.loc 1 545 6 view .LVU529
 1561 0074 13F0010F 		tst	r3, #1
 1562 0078 3AD0     		beq	.L122
 548:Drivers/STM32H5xx_HAL_Driver/Src/stm32h5xx_hal_rcc.c **** 
 1563              		.loc 1 548 5 is_stmt 1 view .LVU530
 551:Drivers/STM32H5xx_HAL_Driver/Src/stm32h5xx_hal_rcc.c ****         ((temp_sysclksrc == RCC_SYSCLKSOURCE_STATUS_PLLCLK) && (temp_pllckselr == RCC_PLL1_SOURCE_H
 1564              		.loc 1 551 5 view .LVU531
 551:Drivers/STM32H5xx_HAL_Driver/Src/stm32h5xx_hal_rcc.c ****         ((temp_sysclksrc == RCC_SYSCLKSOURCE_STATUS_PLLCLK) && (temp_pllckselr == RCC_PLL1_SOURCE_H
 1565              		.loc 1 551 8 is_stmt 0 view .LVU532
 1566 007a 102D     		cmp	r5, #16
 1567 007c 34D0     		beq	.L123
 551:Drivers/STM32H5xx_HAL_Driver/Src/stm32h5xx_hal_rcc.c ****         ((temp_sysclksrc == RCC_SYSCLKSOURCE_STATUS_PLLCLK) && (temp_pllckselr == RCC_PLL1_SOURCE_H
 1568              		.loc 1 551 57 discriminator 1 view .LVU533
 1569 007e 182D     		cmp	r5, #24
 1570 0080 30D0     		beq	.L218
