ARM GAS  C:\Users\sapph\AppData\Local\Temp\ccD3KfzI.s 			page 1


   1              		.cpu cortex-m33
   2              		.arch armv8-m.main
   3              		.fpu fpv4-sp-d16
   4              		.arch_extension dsp
   5              		.eabi_attribute 27, 1
   6              		.eabi_attribute 28, 1
   7              		.eabi_attribute 20, 1
   8              		.eabi_attribute 21, 1
   9              		.eabi_attribute 23, 3
  10              		.eabi_attribute 24, 1
  11              		.eabi_attribute 25, 1
  12              		.eabi_attribute 26, 1
  13              		.eabi_attribute 30, 1
  14              		.eabi_attribute 34, 1
  15              		.eabi_attribute 18, 4
  16              		.file	"stm32h5xx_hal_rcc.c"
  17              		.text
  18              	.Ltext0:
  19              		.cfi_sections	.debug_frame
  20              		.file 1 "Drivers/STM32H5xx_HAL_Driver/Src/stm32h5xx_hal_rcc.c"
  21              		.section	.text.HAL_RCC_DeInit,"ax",%progbits
  22              		.align	1
  23              		.global	HAL_RCC_DeInit
  24              		.syntax unified
  25              		.thumb
  26              		.thumb_func
  28              	HAL_RCC_DeInit:
  29              	.LFB160:
   1:Drivers/STM32H5xx_HAL_Driver/Src/stm32h5xx_hal_rcc.c **** /**
   2:Drivers/STM32H5xx_HAL_Driver/Src/stm32h5xx_hal_rcc.c ****   ******************************************************************************
   3:Drivers/STM32H5xx_HAL_Driver/Src/stm32h5xx_hal_rcc.c ****   * @file    stm32h5xx_hal_rcc.c
   4:Drivers/STM32H5xx_HAL_Driver/Src/stm32h5xx_hal_rcc.c ****   * @author  MCD Application Team
   5:Drivers/STM32H5xx_HAL_Driver/Src/stm32h5xx_hal_rcc.c ****   * @brief   RCC HAL module driver.
   6:Drivers/STM32H5xx_HAL_Driver/Src/stm32h5xx_hal_rcc.c ****   *          This file provides firmware functions to manage the following
   7:Drivers/STM32H5xx_HAL_Driver/Src/stm32h5xx_hal_rcc.c ****   *          functionalities of the Reset and Clock Control (RCC) peripheral:
   8:Drivers/STM32H5xx_HAL_Driver/Src/stm32h5xx_hal_rcc.c ****   *           + Initialization and de-initialization functions
   9:Drivers/STM32H5xx_HAL_Driver/Src/stm32h5xx_hal_rcc.c ****   *           + Peripheral Control functions
  10:Drivers/STM32H5xx_HAL_Driver/Src/stm32h5xx_hal_rcc.c ****   *
  11:Drivers/STM32H5xx_HAL_Driver/Src/stm32h5xx_hal_rcc.c ****   ******************************************************************************
  12:Drivers/STM32H5xx_HAL_Driver/Src/stm32h5xx_hal_rcc.c ****   * @attention
  13:Drivers/STM32H5xx_HAL_Driver/Src/stm32h5xx_hal_rcc.c ****   *
  14:Drivers/STM32H5xx_HAL_Driver/Src/stm32h5xx_hal_rcc.c ****   * Copyright (c) 2023 STMicroelectronics.
  15:Drivers/STM32H5xx_HAL_Driver/Src/stm32h5xx_hal_rcc.c ****   * All rights reserved.
  16:Drivers/STM32H5xx_HAL_Driver/Src/stm32h5xx_hal_rcc.c ****   *
  17:Drivers/STM32H5xx_HAL_Driver/Src/stm32h5xx_hal_rcc.c ****   * This software is licensed under terms that can be found in the LICENSE file
  18:Drivers/STM32H5xx_HAL_Driver/Src/stm32h5xx_hal_rcc.c ****   * in the root directory of this software component.
  19:Drivers/STM32H5xx_HAL_Driver/Src/stm32h5xx_hal_rcc.c ****   * If no LICENSE file comes with this software, it is provided AS-IS.
  20:Drivers/STM32H5xx_HAL_Driver/Src/stm32h5xx_hal_rcc.c ****   *
  21:Drivers/STM32H5xx_HAL_Driver/Src/stm32h5xx_hal_rcc.c ****   ******************************************************************************
  22:Drivers/STM32H5xx_HAL_Driver/Src/stm32h5xx_hal_rcc.c ****   @verbatim
  23:Drivers/STM32H5xx_HAL_Driver/Src/stm32h5xx_hal_rcc.c ****   ==============================================================================
  24:Drivers/STM32H5xx_HAL_Driver/Src/stm32h5xx_hal_rcc.c ****                       ##### RCC specific features #####
  25:Drivers/STM32H5xx_HAL_Driver/Src/stm32h5xx_hal_rcc.c ****   ==============================================================================
  26:Drivers/STM32H5xx_HAL_Driver/Src/stm32h5xx_hal_rcc.c ****     [..]
  27:Drivers/STM32H5xx_HAL_Driver/Src/stm32h5xx_hal_rcc.c ****       After reset the device is running from High Speed Internal oscillator
  28:Drivers/STM32H5xx_HAL_Driver/Src/stm32h5xx_hal_rcc.c ****       (64 MHz) with Flash 3 wait states. Flash prefetch buffer, D-Cache
  29:Drivers/STM32H5xx_HAL_Driver/Src/stm32h5xx_hal_rcc.c ****       and I-Cache are disabled, and all peripherals are off except internal
ARM GAS  C:\Users\sapph\AppData\Local\Temp\ccD3KfzI.s 			page 2


  30:Drivers/STM32H5xx_HAL_Driver/Src/stm32h5xx_hal_rcc.c ****       SRAM, Flash and JTAG.
  31:Drivers/STM32H5xx_HAL_Driver/Src/stm32h5xx_hal_rcc.c **** 
  32:Drivers/STM32H5xx_HAL_Driver/Src/stm32h5xx_hal_rcc.c ****       (+) There is no prescaler on High speed (AHBs) and Low speed (APBs) busses:
  33:Drivers/STM32H5xx_HAL_Driver/Src/stm32h5xx_hal_rcc.c ****           all peripherals mapped on these busses are running at HSI speed.
  34:Drivers/STM32H5xx_HAL_Driver/Src/stm32h5xx_hal_rcc.c ****       (+) The clock for all peripherals is switched off, except the SRAM and FLASH.
  35:Drivers/STM32H5xx_HAL_Driver/Src/stm32h5xx_hal_rcc.c ****       (+) All GPIOs are in analog mode, except the JTAG pins which
  36:Drivers/STM32H5xx_HAL_Driver/Src/stm32h5xx_hal_rcc.c ****           are assigned to be used for debug purpose.
  37:Drivers/STM32H5xx_HAL_Driver/Src/stm32h5xx_hal_rcc.c **** 
  38:Drivers/STM32H5xx_HAL_Driver/Src/stm32h5xx_hal_rcc.c ****     [..]
  39:Drivers/STM32H5xx_HAL_Driver/Src/stm32h5xx_hal_rcc.c ****       Once the device started from reset, the user application has to:
  40:Drivers/STM32H5xx_HAL_Driver/Src/stm32h5xx_hal_rcc.c ****       (+) Configure the clock source to be used to drive the System clock
  41:Drivers/STM32H5xx_HAL_Driver/Src/stm32h5xx_hal_rcc.c ****           (if the application needs higher frequency/performance)
  42:Drivers/STM32H5xx_HAL_Driver/Src/stm32h5xx_hal_rcc.c ****       (+) Configure the System clock frequency and Flash settings
  43:Drivers/STM32H5xx_HAL_Driver/Src/stm32h5xx_hal_rcc.c ****       (+) Configure the AHB and APB busses prescalers
  44:Drivers/STM32H5xx_HAL_Driver/Src/stm32h5xx_hal_rcc.c ****       (+) Enable the clock for the peripheral(s) to be used
  45:Drivers/STM32H5xx_HAL_Driver/Src/stm32h5xx_hal_rcc.c ****       (+) Configure the clock source(s) for peripherals which clocks are not
  46:Drivers/STM32H5xx_HAL_Driver/Src/stm32h5xx_hal_rcc.c ****           derived from the System clock (SAIx, RTC, ADC, USB, SDMMC, etc.)
  47:Drivers/STM32H5xx_HAL_Driver/Src/stm32h5xx_hal_rcc.c **** 
  48:Drivers/STM32H5xx_HAL_Driver/Src/stm32h5xx_hal_rcc.c ****   @endverbatim
  49:Drivers/STM32H5xx_HAL_Driver/Src/stm32h5xx_hal_rcc.c ****   */
  50:Drivers/STM32H5xx_HAL_Driver/Src/stm32h5xx_hal_rcc.c **** 
  51:Drivers/STM32H5xx_HAL_Driver/Src/stm32h5xx_hal_rcc.c **** /* Includes ------------------------------------------------------------------*/
  52:Drivers/STM32H5xx_HAL_Driver/Src/stm32h5xx_hal_rcc.c **** #include "stm32h5xx_hal.h"
  53:Drivers/STM32H5xx_HAL_Driver/Src/stm32h5xx_hal_rcc.c **** 
  54:Drivers/STM32H5xx_HAL_Driver/Src/stm32h5xx_hal_rcc.c **** /** @addtogroup STM32H5xx_HAL_Driver
  55:Drivers/STM32H5xx_HAL_Driver/Src/stm32h5xx_hal_rcc.c ****   * @{
  56:Drivers/STM32H5xx_HAL_Driver/Src/stm32h5xx_hal_rcc.c ****   */
  57:Drivers/STM32H5xx_HAL_Driver/Src/stm32h5xx_hal_rcc.c **** 
  58:Drivers/STM32H5xx_HAL_Driver/Src/stm32h5xx_hal_rcc.c **** /** @defgroup RCC RCC
  59:Drivers/STM32H5xx_HAL_Driver/Src/stm32h5xx_hal_rcc.c ****   * @brief RCC HAL module driver
  60:Drivers/STM32H5xx_HAL_Driver/Src/stm32h5xx_hal_rcc.c ****   * @{
  61:Drivers/STM32H5xx_HAL_Driver/Src/stm32h5xx_hal_rcc.c ****   */
  62:Drivers/STM32H5xx_HAL_Driver/Src/stm32h5xx_hal_rcc.c **** 
  63:Drivers/STM32H5xx_HAL_Driver/Src/stm32h5xx_hal_rcc.c **** #ifdef HAL_RCC_MODULE_ENABLED
  64:Drivers/STM32H5xx_HAL_Driver/Src/stm32h5xx_hal_rcc.c **** 
  65:Drivers/STM32H5xx_HAL_Driver/Src/stm32h5xx_hal_rcc.c **** /* Private typedef -----------------------------------------------------------*/
  66:Drivers/STM32H5xx_HAL_Driver/Src/stm32h5xx_hal_rcc.c **** /* Private define ------------------------------------------------------------*/
  67:Drivers/STM32H5xx_HAL_Driver/Src/stm32h5xx_hal_rcc.c **** /** @defgroup RCC_Private_Constants RCC Private Constants
  68:Drivers/STM32H5xx_HAL_Driver/Src/stm32h5xx_hal_rcc.c ****   * @{
  69:Drivers/STM32H5xx_HAL_Driver/Src/stm32h5xx_hal_rcc.c ****   */
  70:Drivers/STM32H5xx_HAL_Driver/Src/stm32h5xx_hal_rcc.c **** 
  71:Drivers/STM32H5xx_HAL_Driver/Src/stm32h5xx_hal_rcc.c **** /** @defgroup RCC_Timeout_Value Timeout Values
  72:Drivers/STM32H5xx_HAL_Driver/Src/stm32h5xx_hal_rcc.c ****   * @{
  73:Drivers/STM32H5xx_HAL_Driver/Src/stm32h5xx_hal_rcc.c ****   */
  74:Drivers/STM32H5xx_HAL_Driver/Src/stm32h5xx_hal_rcc.c **** #define RCC_LSI_TIMEOUT_VALUE           ((uint32_t)2U)    /* 2 ms (minimum Tick + 1) */
  75:Drivers/STM32H5xx_HAL_Driver/Src/stm32h5xx_hal_rcc.c **** #define RCC_HSI48_TIMEOUT_VALUE         ((uint32_t)2U)    /* 2 ms (minimum Tick + 1) */
  76:Drivers/STM32H5xx_HAL_Driver/Src/stm32h5xx_hal_rcc.c **** #define RCC_PLL_TIMEOUT_VALUE           ((uint32_t)2U)    /* 2 ms (minimum Tick + 1) */
  77:Drivers/STM32H5xx_HAL_Driver/Src/stm32h5xx_hal_rcc.c **** #define RCC_CLOCKSWITCH_TIMEOUT_VALUE   ((uint32_t)5000U) /* 5 s    */
  78:Drivers/STM32H5xx_HAL_Driver/Src/stm32h5xx_hal_rcc.c **** #define RCC_PLL_FRAC_WAIT_VALUE         1U        /* PLL Fractional part waiting time before new la
  79:Drivers/STM32H5xx_HAL_Driver/Src/stm32h5xx_hal_rcc.c **** /**
  80:Drivers/STM32H5xx_HAL_Driver/Src/stm32h5xx_hal_rcc.c ****   * @}
  81:Drivers/STM32H5xx_HAL_Driver/Src/stm32h5xx_hal_rcc.c ****   */
  82:Drivers/STM32H5xx_HAL_Driver/Src/stm32h5xx_hal_rcc.c **** 
  83:Drivers/STM32H5xx_HAL_Driver/Src/stm32h5xx_hal_rcc.c **** /**
  84:Drivers/STM32H5xx_HAL_Driver/Src/stm32h5xx_hal_rcc.c ****   * @}
  85:Drivers/STM32H5xx_HAL_Driver/Src/stm32h5xx_hal_rcc.c ****   */
  86:Drivers/STM32H5xx_HAL_Driver/Src/stm32h5xx_hal_rcc.c **** 
ARM GAS  C:\Users\sapph\AppData\Local\Temp\ccD3KfzI.s 			page 3


  87:Drivers/STM32H5xx_HAL_Driver/Src/stm32h5xx_hal_rcc.c **** /* Private macro -------------------------------------------------------------*/
  88:Drivers/STM32H5xx_HAL_Driver/Src/stm32h5xx_hal_rcc.c **** /** @defgroup RCC_Private_Macros RCC Private Macros
  89:Drivers/STM32H5xx_HAL_Driver/Src/stm32h5xx_hal_rcc.c ****   * @{
  90:Drivers/STM32H5xx_HAL_Driver/Src/stm32h5xx_hal_rcc.c ****   */
  91:Drivers/STM32H5xx_HAL_Driver/Src/stm32h5xx_hal_rcc.c **** 
  92:Drivers/STM32H5xx_HAL_Driver/Src/stm32h5xx_hal_rcc.c **** #define MCO1_CLK_ENABLE()     __HAL_RCC_GPIOA_CLK_ENABLE()
  93:Drivers/STM32H5xx_HAL_Driver/Src/stm32h5xx_hal_rcc.c **** #define MCO1_GPIO_PORT        GPIOA
  94:Drivers/STM32H5xx_HAL_Driver/Src/stm32h5xx_hal_rcc.c **** #define MCO1_PIN              GPIO_PIN_8
  95:Drivers/STM32H5xx_HAL_Driver/Src/stm32h5xx_hal_rcc.c **** 
  96:Drivers/STM32H5xx_HAL_Driver/Src/stm32h5xx_hal_rcc.c **** #define MCO2_CLK_ENABLE()      __HAL_RCC_GPIOC_CLK_ENABLE()
  97:Drivers/STM32H5xx_HAL_Driver/Src/stm32h5xx_hal_rcc.c **** #define MCO2_GPIO_PORT         GPIOC
  98:Drivers/STM32H5xx_HAL_Driver/Src/stm32h5xx_hal_rcc.c **** #define MCO2_PIN               GPIO_PIN_9
  99:Drivers/STM32H5xx_HAL_Driver/Src/stm32h5xx_hal_rcc.c **** 
 100:Drivers/STM32H5xx_HAL_Driver/Src/stm32h5xx_hal_rcc.c **** /**
 101:Drivers/STM32H5xx_HAL_Driver/Src/stm32h5xx_hal_rcc.c ****   * @}
 102:Drivers/STM32H5xx_HAL_Driver/Src/stm32h5xx_hal_rcc.c ****   */
 103:Drivers/STM32H5xx_HAL_Driver/Src/stm32h5xx_hal_rcc.c **** 
 104:Drivers/STM32H5xx_HAL_Driver/Src/stm32h5xx_hal_rcc.c **** /* Private variables ---------------------------------------------------------*/
 105:Drivers/STM32H5xx_HAL_Driver/Src/stm32h5xx_hal_rcc.c **** 
 106:Drivers/STM32H5xx_HAL_Driver/Src/stm32h5xx_hal_rcc.c **** /* Private function prototypes -----------------------------------------------*/
 107:Drivers/STM32H5xx_HAL_Driver/Src/stm32h5xx_hal_rcc.c **** /* Exported functions --------------------------------------------------------*/
 108:Drivers/STM32H5xx_HAL_Driver/Src/stm32h5xx_hal_rcc.c **** 
 109:Drivers/STM32H5xx_HAL_Driver/Src/stm32h5xx_hal_rcc.c **** /** @defgroup RCC_Exported_Functions RCC Exported Functions
 110:Drivers/STM32H5xx_HAL_Driver/Src/stm32h5xx_hal_rcc.c ****   * @{
 111:Drivers/STM32H5xx_HAL_Driver/Src/stm32h5xx_hal_rcc.c ****   */
 112:Drivers/STM32H5xx_HAL_Driver/Src/stm32h5xx_hal_rcc.c **** 
 113:Drivers/STM32H5xx_HAL_Driver/Src/stm32h5xx_hal_rcc.c **** /** @defgroup RCC_Exported_Functions_Group1 Initialization and de-initialization functions
 114:Drivers/STM32H5xx_HAL_Driver/Src/stm32h5xx_hal_rcc.c ****   *  @brief    Initialization and Configuration functions
 115:Drivers/STM32H5xx_HAL_Driver/Src/stm32h5xx_hal_rcc.c ****   *
 116:Drivers/STM32H5xx_HAL_Driver/Src/stm32h5xx_hal_rcc.c ****   @verbatim
 117:Drivers/STM32H5xx_HAL_Driver/Src/stm32h5xx_hal_rcc.c ****  ===============================================================================
 118:Drivers/STM32H5xx_HAL_Driver/Src/stm32h5xx_hal_rcc.c ****            ##### Initialization and de-initialization functions #####
 119:Drivers/STM32H5xx_HAL_Driver/Src/stm32h5xx_hal_rcc.c ****  ===============================================================================
 120:Drivers/STM32H5xx_HAL_Driver/Src/stm32h5xx_hal_rcc.c ****     [..]
 121:Drivers/STM32H5xx_HAL_Driver/Src/stm32h5xx_hal_rcc.c ****       This section provides functions allowing to configure the internal and external oscillators
 122:Drivers/STM32H5xx_HAL_Driver/Src/stm32h5xx_hal_rcc.c ****       (HSE, HSI, LSE, CSI, LSI, PLL1, HSE CSS and MCOs) and the System busses clocks (SYSCLK, AHB, 
 123:Drivers/STM32H5xx_HAL_Driver/Src/stm32h5xx_hal_rcc.c ****        and APB3).
 124:Drivers/STM32H5xx_HAL_Driver/Src/stm32h5xx_hal_rcc.c **** 
 125:Drivers/STM32H5xx_HAL_Driver/Src/stm32h5xx_hal_rcc.c ****     [..] Internal/external clock and PLL configuration
 126:Drivers/STM32H5xx_HAL_Driver/Src/stm32h5xx_hal_rcc.c ****          (+) HSI (high-speed internal): 64 MHz factory-trimmed RC used directly or through
 127:Drivers/STM32H5xx_HAL_Driver/Src/stm32h5xx_hal_rcc.c ****              the PLL as System clock source.
 128:Drivers/STM32H5xx_HAL_Driver/Src/stm32h5xx_hal_rcc.c **** 
 129:Drivers/STM32H5xx_HAL_Driver/Src/stm32h5xx_hal_rcc.c ****          (#) CSI is a low-power RC oscillator which can be used directly as system clock, periphera
 130:Drivers/STM32H5xx_HAL_Driver/Src/stm32h5xx_hal_rcc.c ****              clock, or PLL input. But even with frequency calibration, is less accurate than an
 131:Drivers/STM32H5xx_HAL_Driver/Src/stm32h5xx_hal_rcc.c ****              external crystal oscillator or ceramic resonator.
 132:Drivers/STM32H5xx_HAL_Driver/Src/stm32h5xx_hal_rcc.c **** 
 133:Drivers/STM32H5xx_HAL_Driver/Src/stm32h5xx_hal_rcc.c ****          (+) LSI (low-speed internal): 32 KHz low consumption RC used as IWDG and/or RTC
 134:Drivers/STM32H5xx_HAL_Driver/Src/stm32h5xx_hal_rcc.c ****              clock source.
 135:Drivers/STM32H5xx_HAL_Driver/Src/stm32h5xx_hal_rcc.c **** 
 136:Drivers/STM32H5xx_HAL_Driver/Src/stm32h5xx_hal_rcc.c ****          (+) HSE (high-speed external): 4 to 48 MHz crystal oscillator used directly or
 137:Drivers/STM32H5xx_HAL_Driver/Src/stm32h5xx_hal_rcc.c ****              through the PLL as System clock source. Can be used also optionally as RTC clock sourc
 138:Drivers/STM32H5xx_HAL_Driver/Src/stm32h5xx_hal_rcc.c **** 
 139:Drivers/STM32H5xx_HAL_Driver/Src/stm32h5xx_hal_rcc.c ****          (+) LSE (low-speed external): 32.768 KHz oscillator used optionally as RTC clock source.
 140:Drivers/STM32H5xx_HAL_Driver/Src/stm32h5xx_hal_rcc.c **** 
 141:Drivers/STM32H5xx_HAL_Driver/Src/stm32h5xx_hal_rcc.c ****          (+) PLL1 (clocked by HSI, HSE or CSI) providing up to three independent output clocks:
 142:Drivers/STM32H5xx_HAL_Driver/Src/stm32h5xx_hal_rcc.c ****            (++) The first output is used to generate the high speed system clock (up to 250MHz).
 143:Drivers/STM32H5xx_HAL_Driver/Src/stm32h5xx_hal_rcc.c ****            (++) The second output is used to generate the clock for the USB (48 MHz), the FDCAN1/2,
ARM GAS  C:\Users\sapph\AppData\Local\Temp\ccD3KfzI.s 			page 4


 144:Drivers/STM32H5xx_HAL_Driver/Src/stm32h5xx_hal_rcc.c ****                 the SPI1/2/3, the OCTOSPI, the RNG (<=48 MHz), the SDMMC1/2 and to generate an accu
 145:Drivers/STM32H5xx_HAL_Driver/Src/stm32h5xx_hal_rcc.c ****                 clock to achieve high-quality audio performance on SAI1/2 interface.
 146:Drivers/STM32H5xx_HAL_Driver/Src/stm32h5xx_hal_rcc.c **** 
 147:Drivers/STM32H5xx_HAL_Driver/Src/stm32h5xx_hal_rcc.c ****          (+) PLL2 (clocked by HSI, HSE or CSI) providing up to three independent output clocks:
 148:Drivers/STM32H5xx_HAL_Driver/Src/stm32h5xx_hal_rcc.c ****            (++) The first output is used to generate the clock for the LPTIMs, the SPI1/2/3 and to 
 149:Drivers/STM32H5xx_HAL_Driver/Src/stm32h5xx_hal_rcc.c ****                 an accurate clock to achieve high-quality audio performance on SAI1/2 interface.
 150:Drivers/STM32H5xx_HAL_Driver/Src/stm32h5xx_hal_rcc.c ****            (++) The second output is used to generate the clock for USARTs, the UARTs, the LPUART1,
 151:Drivers/STM32H5xx_HAL_Driver/Src/stm32h5xx_hal_rcc.c ****                 the FDCAN1/2, the SPI4/5/6 and the USB.
 152:Drivers/STM32H5xx_HAL_Driver/Src/stm32h5xx_hal_rcc.c ****            (++) The third output is used to generate the clock the SDMMC1/2, the ADC/DAC, the I2C1/
 153:Drivers/STM32H5xx_HAL_Driver/Src/stm32h5xx_hal_rcc.c ****                 the I3C1/2 and the OCTOSPI.
 154:Drivers/STM32H5xx_HAL_Driver/Src/stm32h5xx_hal_rcc.c **** 
 155:Drivers/STM32H5xx_HAL_Driver/Src/stm32h5xx_hal_rcc.c ****          (+) PLL3 (clocked by HSI , HSE or CSI) providing up to three independent output clocks:
 156:Drivers/STM32H5xx_HAL_Driver/Src/stm32h5xx_hal_rcc.c ****            (++) The first output is used to generate the clock for SPI1/2/3 and to generate an accu
 157:Drivers/STM32H5xx_HAL_Driver/Src/stm32h5xx_hal_rcc.c ****                 clock to achieve high-quality audio performance on SAI1/2 interface.
 158:Drivers/STM32H5xx_HAL_Driver/Src/stm32h5xx_hal_rcc.c ****            (++) The second  output is used to generate the clock for USARTs, the UARTs, the LPUART1
 159:Drivers/STM32H5xx_HAL_Driver/Src/stm32h5xx_hal_rcc.c ****                 the SPI4/5/6 and the USB.
 160:Drivers/STM32H5xx_HAL_Driver/Src/stm32h5xx_hal_rcc.c ****            (++) The third output is used to generate the clock for the I2Cs, the I3Cs and the LPTIM
 161:Drivers/STM32H5xx_HAL_Driver/Src/stm32h5xx_hal_rcc.c **** 
 162:Drivers/STM32H5xx_HAL_Driver/Src/stm32h5xx_hal_rcc.c ****          (+) HSE CSS (HSE Clock Security System): once enabled, if a HSE clock failure occurs
 163:Drivers/STM32H5xx_HAL_Driver/Src/stm32h5xx_hal_rcc.c ****             (HSE used directly or through PLL1 as System clock source), the System clock
 164:Drivers/STM32H5xx_HAL_Driver/Src/stm32h5xx_hal_rcc.c ****              is automatically switched to HSI and an interrupt is generated if enabled.
 165:Drivers/STM32H5xx_HAL_Driver/Src/stm32h5xx_hal_rcc.c ****              The interrupt is linked to the Cortex-M33 NMI (Non-Maskable Interrupt)
 166:Drivers/STM32H5xx_HAL_Driver/Src/stm32h5xx_hal_rcc.c ****              exception vector.
 167:Drivers/STM32H5xx_HAL_Driver/Src/stm32h5xx_hal_rcc.c **** 
 168:Drivers/STM32H5xx_HAL_Driver/Src/stm32h5xx_hal_rcc.c ****          (#) MCO1 (micro controller clock output1), used to output HSI, LSE, HSE, PLL1(PLL1_Q)
 169:Drivers/STM32H5xx_HAL_Driver/Src/stm32h5xx_hal_rcc.c ****              or HSI48 clock (through a configurable pre-scaler) on PA8 pin.
 170:Drivers/STM32H5xx_HAL_Driver/Src/stm32h5xx_hal_rcc.c **** 
 171:Drivers/STM32H5xx_HAL_Driver/Src/stm32h5xx_hal_rcc.c ****          (#) MCO2 (micro controller clock output2), used to output HSE, PLL2(PLL2_P), SYSCLK,
 172:Drivers/STM32H5xx_HAL_Driver/Src/stm32h5xx_hal_rcc.c ****              LSI, CSI, or PLL1(PLL1_P) clock (through a configurable pre-scaler) on PC9 pin.
 173:Drivers/STM32H5xx_HAL_Driver/Src/stm32h5xx_hal_rcc.c **** 
 174:Drivers/STM32H5xx_HAL_Driver/Src/stm32h5xx_hal_rcc.c ****     [..] System, AHB and APB busses clocks configuration
 175:Drivers/STM32H5xx_HAL_Driver/Src/stm32h5xx_hal_rcc.c ****          (+) Several clock sources can be used to drive the System clock (SYSCLK): CSI, HSI, HSE an
 176:Drivers/STM32H5xx_HAL_Driver/Src/stm32h5xx_hal_rcc.c ****              The AHB clock (HCLK) is derived from System clock through configurable
 177:Drivers/STM32H5xx_HAL_Driver/Src/stm32h5xx_hal_rcc.c ****              prescaler and used to clock the CPU, memory and peripherals mapped
 178:Drivers/STM32H5xx_HAL_Driver/Src/stm32h5xx_hal_rcc.c ****              on AHB bus (DMA, GPIO...). APB1 (PCLK1), APB2 (PCLK2) and APB3 (PCLK3) clocks are deri
 179:Drivers/STM32H5xx_HAL_Driver/Src/stm32h5xx_hal_rcc.c ****              from AHB clock through configurable prescalers and used to clock
 180:Drivers/STM32H5xx_HAL_Driver/Src/stm32h5xx_hal_rcc.c ****              the peripherals mapped on these busses. You can use
 181:Drivers/STM32H5xx_HAL_Driver/Src/stm32h5xx_hal_rcc.c ****              "HAL_RCC_GetSysClockFreq()" function to retrieve the frequencies of these clocks.
 182:Drivers/STM32H5xx_HAL_Driver/Src/stm32h5xx_hal_rcc.c **** 
 183:Drivers/STM32H5xx_HAL_Driver/Src/stm32h5xx_hal_rcc.c ****          -@- All the peripheral clocks are derived from the System clock (SYSCLK) except:
 184:Drivers/STM32H5xx_HAL_Driver/Src/stm32h5xx_hal_rcc.c **** 
 185:Drivers/STM32H5xx_HAL_Driver/Src/stm32h5xx_hal_rcc.c ****            (+@) SAI: the SAI clock can be derived either from specific PLL (PLL1, PLL2 or PLL3),
 186:Drivers/STM32H5xx_HAL_Driver/Src/stm32h5xx_hal_rcc.c ****                 the per_ck clock (HSE, HSI or CSI) or from an external clock mapped on the SAI_CKIN
 187:Drivers/STM32H5xx_HAL_Driver/Src/stm32h5xx_hal_rcc.c ****                 You have to use HAL_RCCEx_PeriphCLKConfig() function to configure this clock.
 188:Drivers/STM32H5xx_HAL_Driver/Src/stm32h5xx_hal_rcc.c ****            (+@) SPI/I2S: the SPI1/2/3 clock can be derived either from specific PLL (PLL1, PLL2 or 
 189:Drivers/STM32H5xx_HAL_Driver/Src/stm32h5xx_hal_rcc.c ****                 the per_ck clock (HSE, HSI or CSI) or from an external clock mapped on the SPI_CKIN
 190:Drivers/STM32H5xx_HAL_Driver/Src/stm32h5xx_hal_rcc.c ****                 You have to use HAL_RCCEx_PeriphCLKConfig() function to configure this clock.
 191:Drivers/STM32H5xx_HAL_Driver/Src/stm32h5xx_hal_rcc.c ****            (+@) RTC: the RTC clock can be derived either from the LSI, LSE or HSE clock
 192:Drivers/STM32H5xx_HAL_Driver/Src/stm32h5xx_hal_rcc.c ****                 divided by 2 to 31.
 193:Drivers/STM32H5xx_HAL_Driver/Src/stm32h5xx_hal_rcc.c ****                 You have to use __HAL_RCC_RTC_ENABLE() and HAL_RCCEx_PeriphCLKConfig() function
 194:Drivers/STM32H5xx_HAL_Driver/Src/stm32h5xx_hal_rcc.c ****                 to configure this clock.
 195:Drivers/STM32H5xx_HAL_Driver/Src/stm32h5xx_hal_rcc.c ****            (+@) USB: USB requires a frequency equal to 48 MHz to work correctly. This clock is deri
 196:Drivers/STM32H5xx_HAL_Driver/Src/stm32h5xx_hal_rcc.c ****                 of the main PLL or PLL2 through PLLQ divider. You have to use HAL_RCCEx_PeriphCLKCo
 197:Drivers/STM32H5xx_HAL_Driver/Src/stm32h5xx_hal_rcc.c ****                 function to configure this clock.
 198:Drivers/STM32H5xx_HAL_Driver/Src/stm32h5xx_hal_rcc.c ****            (+@) UCPD: the UCPD clock is derived from HSI (divided by 4) clock.
 199:Drivers/STM32H5xx_HAL_Driver/Src/stm32h5xx_hal_rcc.c ****            (+@) SDMMC: SDMMC1/2 peripherals require a frequency equal or lower than 48 MHz.
 200:Drivers/STM32H5xx_HAL_Driver/Src/stm32h5xx_hal_rcc.c ****                 This clock is derived from the PLL1 or PLL2 through PLL1Q or PLL2R divider. You hav
ARM GAS  C:\Users\sapph\AppData\Local\Temp\ccD3KfzI.s 			page 5


 201:Drivers/STM32H5xx_HAL_Driver/Src/stm32h5xx_hal_rcc.c ****                 to use HAL_RCCEx_PeriphCLKConfig() function to configure this clock.
 202:Drivers/STM32H5xx_HAL_Driver/Src/stm32h5xx_hal_rcc.c ****            (+@) IWDG clock which is always the LSI clock. You have to use HAL_RCCEx_PeriphCLKConfig
 203:Drivers/STM32H5xx_HAL_Driver/Src/stm32h5xx_hal_rcc.c ****                 function to configure this clock.
 204:Drivers/STM32H5xx_HAL_Driver/Src/stm32h5xx_hal_rcc.c ****            (+@) RNG: the RNG clock can be derived either from PLL1Q, HSI48, LSE or LSI clock. You h
 205:Drivers/STM32H5xx_HAL_Driver/Src/stm32h5xx_hal_rcc.c ****                 to use HAL_RCCEx_PeriphCLKConfig() function to configure this clock.
 206:Drivers/STM32H5xx_HAL_Driver/Src/stm32h5xx_hal_rcc.c ****            (+@) DAC: the DAC clock can be derived either from LSE or LSI clock. You have
 207:Drivers/STM32H5xx_HAL_Driver/Src/stm32h5xx_hal_rcc.c ****                 to use HAL_RCCEx_PeriphCLKConfig() function to configure this clock.
 208:Drivers/STM32H5xx_HAL_Driver/Src/stm32h5xx_hal_rcc.c ****            (+@) FDCAN: the FDCAN1/2 clock can be derived either from HSE, PLL1Q or PLL2Q clock. You
 209:Drivers/STM32H5xx_HAL_Driver/Src/stm32h5xx_hal_rcc.c ****                 to use HAL_RCCEx_PeriphCLKConfig() function to configure this clock.
 210:Drivers/STM32H5xx_HAL_Driver/Src/stm32h5xx_hal_rcc.c ****            (+@) CEC: the CEC clock can be derived either from LSE, LSI or CSI (divided by 122) cloc
 211:Drivers/STM32H5xx_HAL_Driver/Src/stm32h5xx_hal_rcc.c ****                 to use HAL_RCCEx_PeriphCLKConfig() function to configure this clock.
 212:Drivers/STM32H5xx_HAL_Driver/Src/stm32h5xx_hal_rcc.c ****            (+@) ETH: the Ethernet clock is derived from PLL1Q clock.
 213:Drivers/STM32H5xx_HAL_Driver/Src/stm32h5xx_hal_rcc.c **** 
 214:Drivers/STM32H5xx_HAL_Driver/Src/stm32h5xx_hal_rcc.c **** 
 215:Drivers/STM32H5xx_HAL_Driver/Src/stm32h5xx_hal_rcc.c **** 
 216:Drivers/STM32H5xx_HAL_Driver/Src/stm32h5xx_hal_rcc.c ****          (+) The maximum frequency of the SYSCLK, HCLK, PCLK1, PCLK2 and PCLK3 is 250 MHz.
 217:Drivers/STM32H5xx_HAL_Driver/Src/stm32h5xx_hal_rcc.c ****              The clock source frequency should be adapted depending on the device voltage range
 218:Drivers/STM32H5xx_HAL_Driver/Src/stm32h5xx_hal_rcc.c ****              as listed in the Reference Manual "Clock source frequency versus voltage scaling" chap
 219:Drivers/STM32H5xx_HAL_Driver/Src/stm32h5xx_hal_rcc.c **** 
 220:Drivers/STM32H5xx_HAL_Driver/Src/stm32h5xx_hal_rcc.c ****   @endverbatim
 221:Drivers/STM32H5xx_HAL_Driver/Src/stm32h5xx_hal_rcc.c **** 
 222:Drivers/STM32H5xx_HAL_Driver/Src/stm32h5xx_hal_rcc.c **** 
 223:Drivers/STM32H5xx_HAL_Driver/Src/stm32h5xx_hal_rcc.c ****            Table 1. HCLK clock frequency for STM32H5xx devices
 224:Drivers/STM32H5xx_HAL_Driver/Src/stm32h5xx_hal_rcc.c ****            +---------------------------------------------------------------------------------------
 225:Drivers/STM32H5xx_HAL_Driver/Src/stm32h5xx_hal_rcc.c ****            | Latency         |                          HCLK clock frequency (MHz)                 
 226:Drivers/STM32H5xx_HAL_Driver/Src/stm32h5xx_hal_rcc.c ****            |                 |---------------------------------------------------------------------
 227:Drivers/STM32H5xx_HAL_Driver/Src/stm32h5xx_hal_rcc.c ****            |                 |  voltage range 0  |  voltage range 1 | voltage range 2  | voltage ra
 228:Drivers/STM32H5xx_HAL_Driver/Src/stm32h5xx_hal_rcc.c ****            |                 |    1.26 - 1.35V   |   1.15 - 1.26V   |   1.05 - 1.15V   |   0,95 - 1
 229:Drivers/STM32H5xx_HAL_Driver/Src/stm32h5xx_hal_rcc.c ****            |-----------------|-------------------|------------------|------------------|-----------
 230:Drivers/STM32H5xx_HAL_Driver/Src/stm32h5xx_hal_rcc.c ****            |0WS(1 CPU cycles)|   0 < HCLK <= 38  |  0 < HCLK <= 32  |  0 < HCLK <= 26  | 0 < HCLK <
 231:Drivers/STM32H5xx_HAL_Driver/Src/stm32h5xx_hal_rcc.c ****            |-----------------|-------------------|------------------|------------------|-----------
 232:Drivers/STM32H5xx_HAL_Driver/Src/stm32h5xx_hal_rcc.c ****            |1WS(2 CPU cycles)|  38 < HCLK <= 76  | 32 < HCLK <= 64  | 26 < HCLK <= 50  | 16 < HCLK 
 233:Drivers/STM32H5xx_HAL_Driver/Src/stm32h5xx_hal_rcc.c ****            |-----------------|-------------------|------------------|------------------|-----------
 234:Drivers/STM32H5xx_HAL_Driver/Src/stm32h5xx_hal_rcc.c ****            |2WS(3 CPU cycles)|  76 < HCLK <= 114 | 64 < HCLK <= 96  | 50 < HCLK <= 80  | 32 < HCLK 
 235:Drivers/STM32H5xx_HAL_Driver/Src/stm32h5xx_hal_rcc.c ****            |-----------------|-------------------|------------------|------------------|-----------
 236:Drivers/STM32H5xx_HAL_Driver/Src/stm32h5xx_hal_rcc.c ****            |3WS(4 CPU cycles)| 114 < HCLK <= 152 | 96 < HCLK <= 128 | 80 < HCLK <= 106 | 50 < HCLK 
 237:Drivers/STM32H5xx_HAL_Driver/Src/stm32h5xx_hal_rcc.c ****            |-----------------|-------------------|------------------|------------------|-----------
 238:Drivers/STM32H5xx_HAL_Driver/Src/stm32h5xx_hal_rcc.c ****            |4WS(5 CPU cycles)|  152 < HCLK <= 190| 128 < HCLK <= 160| 106 < HCLK <= 130| 65 < HCLK 
 239:Drivers/STM32H5xx_HAL_Driver/Src/stm32h5xx_hal_rcc.c ****            |-----------------|-------------------|------------------|------------------|-----------
 240:Drivers/STM32H5xx_HAL_Driver/Src/stm32h5xx_hal_rcc.c ****            |5WS(6 CPU cycles)|  190 < HCLK <= 250| 160 < HCLK <= 180|        NA        |         NA
 241:Drivers/STM32H5xx_HAL_Driver/Src/stm32h5xx_hal_rcc.c ****            +-----------------+-------------------+------------------+------------------+-----------
 242:Drivers/STM32H5xx_HAL_Driver/Src/stm32h5xx_hal_rcc.c ****   * @{
 243:Drivers/STM32H5xx_HAL_Driver/Src/stm32h5xx_hal_rcc.c ****   */
 244:Drivers/STM32H5xx_HAL_Driver/Src/stm32h5xx_hal_rcc.c **** 
 245:Drivers/STM32H5xx_HAL_Driver/Src/stm32h5xx_hal_rcc.c **** /**
 246:Drivers/STM32H5xx_HAL_Driver/Src/stm32h5xx_hal_rcc.c ****   * @brief  Reset the RCC clock configuration to the default reset state.
 247:Drivers/STM32H5xx_HAL_Driver/Src/stm32h5xx_hal_rcc.c ****   * @note   The default reset state of the clock configuration is given below:
 248:Drivers/STM32H5xx_HAL_Driver/Src/stm32h5xx_hal_rcc.c ****   *            - HSI ON and used as system clock source
 249:Drivers/STM32H5xx_HAL_Driver/Src/stm32h5xx_hal_rcc.c ****   *            - HSE, CSI, PLL, PLL2 and PLL3 OFF
 250:Drivers/STM32H5xx_HAL_Driver/Src/stm32h5xx_hal_rcc.c ****   *            - AHB, APB1 and APB2 prescaler set to 1.
 251:Drivers/STM32H5xx_HAL_Driver/Src/stm32h5xx_hal_rcc.c ****   *            - HSECSS, MCO1 and MCO2 OFF
 252:Drivers/STM32H5xx_HAL_Driver/Src/stm32h5xx_hal_rcc.c ****   *            - All interrupts disabled
 253:Drivers/STM32H5xx_HAL_Driver/Src/stm32h5xx_hal_rcc.c ****   * @note   This function doesn't modify the configuration of the
 254:Drivers/STM32H5xx_HAL_Driver/Src/stm32h5xx_hal_rcc.c ****   *            - Peripheral clocks
 255:Drivers/STM32H5xx_HAL_Driver/Src/stm32h5xx_hal_rcc.c ****   *            - LSI, LSE and RTC clocks
 256:Drivers/STM32H5xx_HAL_Driver/Src/stm32h5xx_hal_rcc.c ****   * @retval HAL Status.
 257:Drivers/STM32H5xx_HAL_Driver/Src/stm32h5xx_hal_rcc.c ****   */
ARM GAS  C:\Users\sapph\AppData\Local\Temp\ccD3KfzI.s 			page 6


 258:Drivers/STM32H5xx_HAL_Driver/Src/stm32h5xx_hal_rcc.c **** 
 259:Drivers/STM32H5xx_HAL_Driver/Src/stm32h5xx_hal_rcc.c **** HAL_StatusTypeDef HAL_RCC_DeInit(void)
 260:Drivers/STM32H5xx_HAL_Driver/Src/stm32h5xx_hal_rcc.c **** {
  30              		.loc 1 260 1 view -0
  31              		.cfi_startproc
  32              		@ args = 0, pretend = 0, frame = 0
  33              		@ frame_needed = 0, uses_anonymous_args = 0
  34 0000 38B5     		push	{r3, r4, r5, lr}
  35              		.cfi_def_cfa_offset 16
  36              		.cfi_offset 3, -16
  37              		.cfi_offset 4, -12
  38              		.cfi_offset 5, -8
  39              		.cfi_offset 14, -4
 261:Drivers/STM32H5xx_HAL_Driver/Src/stm32h5xx_hal_rcc.c ****   uint32_t tickstart;
  40              		.loc 1 261 3 view .LVU1
 262:Drivers/STM32H5xx_HAL_Driver/Src/stm32h5xx_hal_rcc.c **** 
 263:Drivers/STM32H5xx_HAL_Driver/Src/stm32h5xx_hal_rcc.c ****   /* Increasing the CPU frequency */
 264:Drivers/STM32H5xx_HAL_Driver/Src/stm32h5xx_hal_rcc.c ****   if (FLASH_LATENCY_DEFAULT  > __HAL_FLASH_GET_LATENCY())
  41              		.loc 1 264 3 view .LVU2
  42              		.loc 1 264 32 is_stmt 0 view .LVU3
  43 0002 634B     		ldr	r3, .L30
  44 0004 1B68     		ldr	r3, [r3]
  45 0006 03F00F03 		and	r3, r3, #15
  46              		.loc 1 264 6 view .LVU4
  47 000a 022B     		cmp	r3, #2
  48 000c 0CD8     		bhi	.L2
 265:Drivers/STM32H5xx_HAL_Driver/Src/stm32h5xx_hal_rcc.c ****   {
 266:Drivers/STM32H5xx_HAL_Driver/Src/stm32h5xx_hal_rcc.c ****     /* Program the new number of wait states to the LATENCY bits in the FLASH_ACR register */
 267:Drivers/STM32H5xx_HAL_Driver/Src/stm32h5xx_hal_rcc.c ****     __HAL_FLASH_SET_LATENCY(FLASH_LATENCY_DEFAULT);
  49              		.loc 1 267 5 is_stmt 1 view .LVU5
  50 000e 604A     		ldr	r2, .L30
  51 0010 1368     		ldr	r3, [r2]
  52 0012 23F00F03 		bic	r3, r3, #15
  53 0016 43F00303 		orr	r3, r3, #3
  54 001a 1360     		str	r3, [r2]
 268:Drivers/STM32H5xx_HAL_Driver/Src/stm32h5xx_hal_rcc.c **** 
 269:Drivers/STM32H5xx_HAL_Driver/Src/stm32h5xx_hal_rcc.c ****     /* Check that the new number of wait states is taken into account to access the Flash
 270:Drivers/STM32H5xx_HAL_Driver/Src/stm32h5xx_hal_rcc.c ****     memory by reading the FLASH_ACR register */
 271:Drivers/STM32H5xx_HAL_Driver/Src/stm32h5xx_hal_rcc.c ****     if (__HAL_FLASH_GET_LATENCY() != FLASH_LATENCY_DEFAULT)
  55              		.loc 1 271 5 view .LVU6
  56              		.loc 1 271 9 is_stmt 0 view .LVU7
  57 001c 1368     		ldr	r3, [r2]
  58 001e 03F00F03 		and	r3, r3, #15
  59              		.loc 1 271 8 view .LVU8
  60 0022 032B     		cmp	r3, #3
  61 0024 40F0B080 		bne	.L15
  62              	.L2:
 272:Drivers/STM32H5xx_HAL_Driver/Src/stm32h5xx_hal_rcc.c ****     {
 273:Drivers/STM32H5xx_HAL_Driver/Src/stm32h5xx_hal_rcc.c ****       return HAL_ERROR;
 274:Drivers/STM32H5xx_HAL_Driver/Src/stm32h5xx_hal_rcc.c ****     }
 275:Drivers/STM32H5xx_HAL_Driver/Src/stm32h5xx_hal_rcc.c **** 
 276:Drivers/STM32H5xx_HAL_Driver/Src/stm32h5xx_hal_rcc.c ****   }
 277:Drivers/STM32H5xx_HAL_Driver/Src/stm32h5xx_hal_rcc.c **** 
 278:Drivers/STM32H5xx_HAL_Driver/Src/stm32h5xx_hal_rcc.c ****   /* Get start tick*/
 279:Drivers/STM32H5xx_HAL_Driver/Src/stm32h5xx_hal_rcc.c ****   tickstart = HAL_GetTick();
  63              		.loc 1 279 3 is_stmt 1 view .LVU9
  64              		.loc 1 279 15 is_stmt 0 view .LVU10
ARM GAS  C:\Users\sapph\AppData\Local\Temp\ccD3KfzI.s 			page 7


  65 0028 FFF7FEFF 		bl	HAL_GetTick
  66              	.LVL0:
  67 002c 0446     		mov	r4, r0
  68              	.LVL1:
 280:Drivers/STM32H5xx_HAL_Driver/Src/stm32h5xx_hal_rcc.c **** 
 281:Drivers/STM32H5xx_HAL_Driver/Src/stm32h5xx_hal_rcc.c ****   /* Set HSION bit */
 282:Drivers/STM32H5xx_HAL_Driver/Src/stm32h5xx_hal_rcc.c ****   SET_BIT(RCC->CR, RCC_CR_HSION);
  69              		.loc 1 282 3 is_stmt 1 view .LVU11
  70 002e 594A     		ldr	r2, .L30+4
  71 0030 1368     		ldr	r3, [r2]
  72 0032 43F00103 		orr	r3, r3, #1
  73 0036 1360     		str	r3, [r2]
 283:Drivers/STM32H5xx_HAL_Driver/Src/stm32h5xx_hal_rcc.c **** 
 284:Drivers/STM32H5xx_HAL_Driver/Src/stm32h5xx_hal_rcc.c ****   /* Wait till HSI is ready */
 285:Drivers/STM32H5xx_HAL_Driver/Src/stm32h5xx_hal_rcc.c ****   while (READ_BIT(RCC->CR, RCC_CR_HSIRDY) == 0U)
  74              		.loc 1 285 3 view .LVU12
  75              	.LVL2:
  76              	.L4:
  77              		.loc 1 285 43 view .LVU13
  78              		.loc 1 285 10 is_stmt 0 view .LVU14
  79 0038 564B     		ldr	r3, .L30+4
  80 003a 1B68     		ldr	r3, [r3]
  81              		.loc 1 285 43 view .LVU15
  82 003c 13F0020F 		tst	r3, #2
  83 0040 06D1     		bne	.L24
 286:Drivers/STM32H5xx_HAL_Driver/Src/stm32h5xx_hal_rcc.c ****   {
 287:Drivers/STM32H5xx_HAL_Driver/Src/stm32h5xx_hal_rcc.c ****     if ((HAL_GetTick() - tickstart) > RCC_HSI_TIMEOUT_VALUE)
  84              		.loc 1 287 5 is_stmt 1 view .LVU16
  85              		.loc 1 287 10 is_stmt 0 view .LVU17
  86 0042 FFF7FEFF 		bl	HAL_GetTick
  87              	.LVL3:
  88              		.loc 1 287 24 discriminator 1 view .LVU18
  89 0046 001B     		subs	r0, r0, r4
  90              		.loc 1 287 8 discriminator 1 view .LVU19
  91 0048 0228     		cmp	r0, #2
  92 004a F5D9     		bls	.L4
 288:Drivers/STM32H5xx_HAL_Driver/Src/stm32h5xx_hal_rcc.c ****     {
 289:Drivers/STM32H5xx_HAL_Driver/Src/stm32h5xx_hal_rcc.c ****       return HAL_TIMEOUT;
  93              		.loc 1 289 14 view .LVU20
  94 004c 0320     		movs	r0, #3
  95 004e 9CE0     		b	.L3
  96              	.L24:
 290:Drivers/STM32H5xx_HAL_Driver/Src/stm32h5xx_hal_rcc.c ****     }
 291:Drivers/STM32H5xx_HAL_Driver/Src/stm32h5xx_hal_rcc.c ****   }
 292:Drivers/STM32H5xx_HAL_Driver/Src/stm32h5xx_hal_rcc.c **** 
 293:Drivers/STM32H5xx_HAL_Driver/Src/stm32h5xx_hal_rcc.c ****   /* Set HSIDIV Default value */
 294:Drivers/STM32H5xx_HAL_Driver/Src/stm32h5xx_hal_rcc.c ****   CLEAR_BIT(RCC->CR, RCC_CR_HSIDIV);
  97              		.loc 1 294 3 is_stmt 1 view .LVU21
  98 0050 504B     		ldr	r3, .L30+4
  99 0052 1A68     		ldr	r2, [r3]
 100 0054 22F01802 		bic	r2, r2, #24
 101 0058 1A60     		str	r2, [r3]
 295:Drivers/STM32H5xx_HAL_Driver/Src/stm32h5xx_hal_rcc.c **** 
 296:Drivers/STM32H5xx_HAL_Driver/Src/stm32h5xx_hal_rcc.c ****   /* Set HSITRIM default value */
 297:Drivers/STM32H5xx_HAL_Driver/Src/stm32h5xx_hal_rcc.c ****   WRITE_REG(RCC->HSICFGR, RCC_HSICFGR_HSITRIM_6);
 102              		.loc 1 297 3 view .LVU22
 103 005a 4FF48002 		mov	r2, #4194304
ARM GAS  C:\Users\sapph\AppData\Local\Temp\ccD3KfzI.s 			page 8


 104 005e 1A61     		str	r2, [r3, #16]
 298:Drivers/STM32H5xx_HAL_Driver/Src/stm32h5xx_hal_rcc.c **** 
 299:Drivers/STM32H5xx_HAL_Driver/Src/stm32h5xx_hal_rcc.c **** 
 300:Drivers/STM32H5xx_HAL_Driver/Src/stm32h5xx_hal_rcc.c ****   /* Adapt Systick interrupt period */
 301:Drivers/STM32H5xx_HAL_Driver/Src/stm32h5xx_hal_rcc.c ****   if (HAL_InitTick(uwTickPrio) != HAL_OK)
 105              		.loc 1 301 3 view .LVU23
 106              		.loc 1 301 7 is_stmt 0 view .LVU24
 107 0060 4D4B     		ldr	r3, .L30+8
 108 0062 1868     		ldr	r0, [r3]
 109 0064 FFF7FEFF 		bl	HAL_InitTick
 110              	.LVL4:
 111              		.loc 1 301 6 discriminator 1 view .LVU25
 112 0068 08B1     		cbz	r0, .L25
 302:Drivers/STM32H5xx_HAL_Driver/Src/stm32h5xx_hal_rcc.c ****   {
 303:Drivers/STM32H5xx_HAL_Driver/Src/stm32h5xx_hal_rcc.c ****     return HAL_ERROR;
 113              		.loc 1 303 12 view .LVU26
 114 006a 0120     		movs	r0, #1
 115 006c 8DE0     		b	.L3
 116              	.L25:
 304:Drivers/STM32H5xx_HAL_Driver/Src/stm32h5xx_hal_rcc.c ****   }
 305:Drivers/STM32H5xx_HAL_Driver/Src/stm32h5xx_hal_rcc.c **** 
 306:Drivers/STM32H5xx_HAL_Driver/Src/stm32h5xx_hal_rcc.c ****   /* Get start tick*/
 307:Drivers/STM32H5xx_HAL_Driver/Src/stm32h5xx_hal_rcc.c ****   tickstart = HAL_GetTick();
 117              		.loc 1 307 3 is_stmt 1 view .LVU27
 118              		.loc 1 307 15 is_stmt 0 view .LVU28
 119 006e FFF7FEFF 		bl	HAL_GetTick
 120              	.LVL5:
 121 0072 0446     		mov	r4, r0
 122              	.LVL6:
 308:Drivers/STM32H5xx_HAL_Driver/Src/stm32h5xx_hal_rcc.c **** 
 309:Drivers/STM32H5xx_HAL_Driver/Src/stm32h5xx_hal_rcc.c ****   /* Reset CFGR register (HSI is selected as system clock source) */
 310:Drivers/STM32H5xx_HAL_Driver/Src/stm32h5xx_hal_rcc.c ****   CLEAR_REG(RCC->CFGR1);
 123              		.loc 1 310 3 is_stmt 1 view .LVU29
 124 0074 474B     		ldr	r3, .L30+4
 125 0076 0022     		movs	r2, #0
 126 0078 DA61     		str	r2, [r3, #28]
 311:Drivers/STM32H5xx_HAL_Driver/Src/stm32h5xx_hal_rcc.c ****   CLEAR_REG(RCC->CFGR2);
 127              		.loc 1 311 3 view .LVU30
 128 007a 1A62     		str	r2, [r3, #32]
 312:Drivers/STM32H5xx_HAL_Driver/Src/stm32h5xx_hal_rcc.c **** 
 313:Drivers/STM32H5xx_HAL_Driver/Src/stm32h5xx_hal_rcc.c ****   /* Wait till clock switch is ready */
 314:Drivers/STM32H5xx_HAL_Driver/Src/stm32h5xx_hal_rcc.c ****   while (READ_BIT(RCC->CFGR1, RCC_CFGR1_SWS) != 0U)
 129              		.loc 1 314 3 view .LVU31
 130              	.LVL7:
 131              	.L6:
 132              		.loc 1 314 46 view .LVU32
 133              		.loc 1 314 10 is_stmt 0 view .LVU33
 134 007c 454B     		ldr	r3, .L30+4
 135 007e DB69     		ldr	r3, [r3, #28]
 136              		.loc 1 314 46 view .LVU34
 137 0080 13F0180F 		tst	r3, #24
 138 0084 08D0     		beq	.L26
 315:Drivers/STM32H5xx_HAL_Driver/Src/stm32h5xx_hal_rcc.c ****   {
 316:Drivers/STM32H5xx_HAL_Driver/Src/stm32h5xx_hal_rcc.c ****     if ((HAL_GetTick() - tickstart) > RCC_CLOCKSWITCH_TIMEOUT_VALUE)
 139              		.loc 1 316 5 is_stmt 1 view .LVU35
 140              		.loc 1 316 10 is_stmt 0 view .LVU36
 141 0086 FFF7FEFF 		bl	HAL_GetTick
ARM GAS  C:\Users\sapph\AppData\Local\Temp\ccD3KfzI.s 			page 9


 142              	.LVL8:
 143              		.loc 1 316 24 discriminator 1 view .LVU37
 144 008a 001B     		subs	r0, r0, r4
 145              		.loc 1 316 8 discriminator 1 view .LVU38
 146 008c 41F28833 		movw	r3, #5000
 147 0090 9842     		cmp	r0, r3
 148 0092 F3D9     		bls	.L6
 317:Drivers/STM32H5xx_HAL_Driver/Src/stm32h5xx_hal_rcc.c ****     {
 318:Drivers/STM32H5xx_HAL_Driver/Src/stm32h5xx_hal_rcc.c ****       return HAL_TIMEOUT;
 149              		.loc 1 318 14 view .LVU39
 150 0094 0320     		movs	r0, #3
 151 0096 78E0     		b	.L3
 152              	.L26:
 319:Drivers/STM32H5xx_HAL_Driver/Src/stm32h5xx_hal_rcc.c ****     }
 320:Drivers/STM32H5xx_HAL_Driver/Src/stm32h5xx_hal_rcc.c ****   }
 321:Drivers/STM32H5xx_HAL_Driver/Src/stm32h5xx_hal_rcc.c **** 
 322:Drivers/STM32H5xx_HAL_Driver/Src/stm32h5xx_hal_rcc.c ****   /* Reset HSECSSON, HSEON, HSIKERON, CSION, CSIKERON and HSI48ON bits */
 323:Drivers/STM32H5xx_HAL_Driver/Src/stm32h5xx_hal_rcc.c ****   CLEAR_BIT(RCC->CR, RCC_CR_CSION | RCC_CR_CSIKERON | RCC_CR_HSECSSON | RCC_CR_HSIKERON | RCC_CR_HS
 153              		.loc 1 323 3 is_stmt 1 view .LVU40
 154 0098 3E4D     		ldr	r5, .L30+4
 155 009a 2A68     		ldr	r2, [r5]
 156 009c 3F4B     		ldr	r3, .L30+12
 157 009e 1340     		ands	r3, r3, r2
 158 00a0 2B60     		str	r3, [r5]
 324:Drivers/STM32H5xx_HAL_Driver/Src/stm32h5xx_hal_rcc.c ****             RCC_CR_HSEON);
 325:Drivers/STM32H5xx_HAL_Driver/Src/stm32h5xx_hal_rcc.c **** 
 326:Drivers/STM32H5xx_HAL_Driver/Src/stm32h5xx_hal_rcc.c ****   /* Reset HSEEXT bit*/
 327:Drivers/STM32H5xx_HAL_Driver/Src/stm32h5xx_hal_rcc.c ****   CLEAR_BIT(RCC->CR, RCC_CR_HSEEXT);
 159              		.loc 1 327 3 view .LVU41
 160 00a2 2B68     		ldr	r3, [r5]
 161 00a4 23F48013 		bic	r3, r3, #1048576
 162 00a8 2B60     		str	r3, [r5]
 328:Drivers/STM32H5xx_HAL_Driver/Src/stm32h5xx_hal_rcc.c **** 
 329:Drivers/STM32H5xx_HAL_Driver/Src/stm32h5xx_hal_rcc.c ****   /* Get Start Tick */
 330:Drivers/STM32H5xx_HAL_Driver/Src/stm32h5xx_hal_rcc.c ****   tickstart = HAL_GetTick();
 163              		.loc 1 330 3 view .LVU42
 164              		.loc 1 330 15 is_stmt 0 view .LVU43
 165 00aa FFF7FEFF 		bl	HAL_GetTick
 166              	.LVL9:
 167 00ae 0446     		mov	r4, r0
 168              	.LVL10:
 331:Drivers/STM32H5xx_HAL_Driver/Src/stm32h5xx_hal_rcc.c **** 
 332:Drivers/STM32H5xx_HAL_Driver/Src/stm32h5xx_hal_rcc.c ****   /* Clear PLL1ON bit */
 333:Drivers/STM32H5xx_HAL_Driver/Src/stm32h5xx_hal_rcc.c ****   CLEAR_BIT(RCC->CR, RCC_CR_PLL1ON);
 169              		.loc 1 333 3 is_stmt 1 view .LVU44
 170 00b0 2B68     		ldr	r3, [r5]
 171 00b2 23F08073 		bic	r3, r3, #16777216
 172 00b6 2B60     		str	r3, [r5]
 334:Drivers/STM32H5xx_HAL_Driver/Src/stm32h5xx_hal_rcc.c **** 
 335:Drivers/STM32H5xx_HAL_Driver/Src/stm32h5xx_hal_rcc.c ****   /* Wait till PLL1 is disabled */
 336:Drivers/STM32H5xx_HAL_Driver/Src/stm32h5xx_hal_rcc.c ****   while (READ_BIT(RCC->CR, RCC_CR_PLL1RDY) != 0U)
 173              		.loc 1 336 3 view .LVU45
 174              	.LVL11:
 175              	.L8:
 176              		.loc 1 336 44 view .LVU46
 177              		.loc 1 336 10 is_stmt 0 view .LVU47
 178 00b8 364B     		ldr	r3, .L30+4
ARM GAS  C:\Users\sapph\AppData\Local\Temp\ccD3KfzI.s 			page 10


 179 00ba 1B68     		ldr	r3, [r3]
 180              		.loc 1 336 44 view .LVU48
 181 00bc 13F0007F 		tst	r3, #33554432
 182 00c0 06D0     		beq	.L27
 337:Drivers/STM32H5xx_HAL_Driver/Src/stm32h5xx_hal_rcc.c ****   {
 338:Drivers/STM32H5xx_HAL_Driver/Src/stm32h5xx_hal_rcc.c ****     if ((HAL_GetTick() - tickstart) > RCC_PLL_TIMEOUT_VALUE)
 183              		.loc 1 338 5 is_stmt 1 view .LVU49
 184              		.loc 1 338 10 is_stmt 0 view .LVU50
 185 00c2 FFF7FEFF 		bl	HAL_GetTick
 186              	.LVL12:
 187              		.loc 1 338 24 discriminator 1 view .LVU51
 188 00c6 001B     		subs	r0, r0, r4
 189              		.loc 1 338 8 discriminator 1 view .LVU52
 190 00c8 0228     		cmp	r0, #2
 191 00ca F5D9     		bls	.L8
 339:Drivers/STM32H5xx_HAL_Driver/Src/stm32h5xx_hal_rcc.c ****     {
 340:Drivers/STM32H5xx_HAL_Driver/Src/stm32h5xx_hal_rcc.c ****       return HAL_TIMEOUT;
 192              		.loc 1 340 14 view .LVU53
 193 00cc 0320     		movs	r0, #3
 194 00ce 5CE0     		b	.L3
 195              	.L27:
 341:Drivers/STM32H5xx_HAL_Driver/Src/stm32h5xx_hal_rcc.c ****     }
 342:Drivers/STM32H5xx_HAL_Driver/Src/stm32h5xx_hal_rcc.c ****   }
 343:Drivers/STM32H5xx_HAL_Driver/Src/stm32h5xx_hal_rcc.c **** 
 344:Drivers/STM32H5xx_HAL_Driver/Src/stm32h5xx_hal_rcc.c ****   /* Get Start Tick */
 345:Drivers/STM32H5xx_HAL_Driver/Src/stm32h5xx_hal_rcc.c ****   tickstart = HAL_GetTick();
 196              		.loc 1 345 3 is_stmt 1 view .LVU54
 197              		.loc 1 345 15 is_stmt 0 view .LVU55
 198 00d0 FFF7FEFF 		bl	HAL_GetTick
 199              	.LVL13:
 200 00d4 0446     		mov	r4, r0
 201              	.LVL14:
 346:Drivers/STM32H5xx_HAL_Driver/Src/stm32h5xx_hal_rcc.c **** 
 347:Drivers/STM32H5xx_HAL_Driver/Src/stm32h5xx_hal_rcc.c ****   /* Reset PLL2N bit */
 348:Drivers/STM32H5xx_HAL_Driver/Src/stm32h5xx_hal_rcc.c ****   CLEAR_BIT(RCC->CR, RCC_CR_PLL2ON);
 202              		.loc 1 348 3 is_stmt 1 view .LVU56
 203 00d6 2F4A     		ldr	r2, .L30+4
 204 00d8 1368     		ldr	r3, [r2]
 205 00da 23F08063 		bic	r3, r3, #67108864
 206 00de 1360     		str	r3, [r2]
 349:Drivers/STM32H5xx_HAL_Driver/Src/stm32h5xx_hal_rcc.c **** 
 350:Drivers/STM32H5xx_HAL_Driver/Src/stm32h5xx_hal_rcc.c ****   /* Wait till PLL2 is disabled */
 351:Drivers/STM32H5xx_HAL_Driver/Src/stm32h5xx_hal_rcc.c ****   while (READ_BIT(RCC->CR, RCC_CR_PLL2RDY) != 0U)
 207              		.loc 1 351 3 view .LVU57
 208              	.LVL15:
 209              	.L10:
 210              		.loc 1 351 44 view .LVU58
 211              		.loc 1 351 10 is_stmt 0 view .LVU59
 212 00e0 2C4B     		ldr	r3, .L30+4
 213 00e2 1B68     		ldr	r3, [r3]
 214              		.loc 1 351 44 view .LVU60
 215 00e4 13F0006F 		tst	r3, #134217728
 216 00e8 06D0     		beq	.L28
 352:Drivers/STM32H5xx_HAL_Driver/Src/stm32h5xx_hal_rcc.c ****   {
 353:Drivers/STM32H5xx_HAL_Driver/Src/stm32h5xx_hal_rcc.c ****     if ((HAL_GetTick() - tickstart) > RCC_PLL_TIMEOUT_VALUE)
 217              		.loc 1 353 5 is_stmt 1 view .LVU61
 218              		.loc 1 353 10 is_stmt 0 view .LVU62
ARM GAS  C:\Users\sapph\AppData\Local\Temp\ccD3KfzI.s 			page 11


 219 00ea FFF7FEFF 		bl	HAL_GetTick
 220              	.LVL16:
 221              		.loc 1 353 24 discriminator 1 view .LVU63
 222 00ee 001B     		subs	r0, r0, r4
 223              		.loc 1 353 8 discriminator 1 view .LVU64
 224 00f0 0228     		cmp	r0, #2
 225 00f2 F5D9     		bls	.L10
 354:Drivers/STM32H5xx_HAL_Driver/Src/stm32h5xx_hal_rcc.c ****     {
 355:Drivers/STM32H5xx_HAL_Driver/Src/stm32h5xx_hal_rcc.c ****       return HAL_TIMEOUT;
 226              		.loc 1 355 14 view .LVU65
 227 00f4 0320     		movs	r0, #3
 228 00f6 48E0     		b	.L3
 229              	.L28:
 356:Drivers/STM32H5xx_HAL_Driver/Src/stm32h5xx_hal_rcc.c ****     }
 357:Drivers/STM32H5xx_HAL_Driver/Src/stm32h5xx_hal_rcc.c ****   }
 358:Drivers/STM32H5xx_HAL_Driver/Src/stm32h5xx_hal_rcc.c **** 
 359:Drivers/STM32H5xx_HAL_Driver/Src/stm32h5xx_hal_rcc.c **** #if defined(RCC_CR_PLL3ON)
 360:Drivers/STM32H5xx_HAL_Driver/Src/stm32h5xx_hal_rcc.c **** 
 361:Drivers/STM32H5xx_HAL_Driver/Src/stm32h5xx_hal_rcc.c ****   /* Get Start Tick */
 362:Drivers/STM32H5xx_HAL_Driver/Src/stm32h5xx_hal_rcc.c ****   tickstart = HAL_GetTick();
 230              		.loc 1 362 3 is_stmt 1 view .LVU66
 231              		.loc 1 362 15 is_stmt 0 view .LVU67
 232 00f8 FFF7FEFF 		bl	HAL_GetTick
 233              	.LVL17:
 234 00fc 0446     		mov	r4, r0
 235              	.LVL18:
 363:Drivers/STM32H5xx_HAL_Driver/Src/stm32h5xx_hal_rcc.c **** 
 364:Drivers/STM32H5xx_HAL_Driver/Src/stm32h5xx_hal_rcc.c ****   /* Reset PLL3 bit */
 365:Drivers/STM32H5xx_HAL_Driver/Src/stm32h5xx_hal_rcc.c ****   CLEAR_BIT(RCC->CR, RCC_CR_PLL3ON);
 236              		.loc 1 365 3 is_stmt 1 view .LVU68
 237 00fe 254A     		ldr	r2, .L30+4
 238 0100 1368     		ldr	r3, [r2]
 239 0102 23F08053 		bic	r3, r3, #268435456
 240 0106 1360     		str	r3, [r2]
 366:Drivers/STM32H5xx_HAL_Driver/Src/stm32h5xx_hal_rcc.c **** 
 367:Drivers/STM32H5xx_HAL_Driver/Src/stm32h5xx_hal_rcc.c ****   /* Wait till PLL3 is disabled */
 368:Drivers/STM32H5xx_HAL_Driver/Src/stm32h5xx_hal_rcc.c ****   while (READ_BIT(RCC->CR, RCC_CR_PLL3RDY) != 0U)
 241              		.loc 1 368 3 view .LVU69
 242              	.LVL19:
 243              	.L12:
 244              		.loc 1 368 44 view .LVU70
 245              		.loc 1 368 10 is_stmt 0 view .LVU71
 246 0108 224B     		ldr	r3, .L30+4
 247 010a 1B68     		ldr	r3, [r3]
 248              		.loc 1 368 44 view .LVU72
 249 010c 13F0005F 		tst	r3, #536870912
 250 0110 06D0     		beq	.L29
 369:Drivers/STM32H5xx_HAL_Driver/Src/stm32h5xx_hal_rcc.c ****   {
 370:Drivers/STM32H5xx_HAL_Driver/Src/stm32h5xx_hal_rcc.c ****     if ((HAL_GetTick() - tickstart) > RCC_PLL_TIMEOUT_VALUE)
 251              		.loc 1 370 5 is_stmt 1 view .LVU73
 252              		.loc 1 370 10 is_stmt 0 view .LVU74
 253 0112 FFF7FEFF 		bl	HAL_GetTick
 254              	.LVL20:
 255              		.loc 1 370 24 discriminator 1 view .LVU75
 256 0116 001B     		subs	r0, r0, r4
 257              		.loc 1 370 8 discriminator 1 view .LVU76
 258 0118 0228     		cmp	r0, #2
ARM GAS  C:\Users\sapph\AppData\Local\Temp\ccD3KfzI.s 			page 12


 259 011a F5D9     		bls	.L12
 371:Drivers/STM32H5xx_HAL_Driver/Src/stm32h5xx_hal_rcc.c ****     {
 372:Drivers/STM32H5xx_HAL_Driver/Src/stm32h5xx_hal_rcc.c ****       return HAL_TIMEOUT;
 260              		.loc 1 372 14 view .LVU77
 261 011c 0320     		movs	r0, #3
 262 011e 34E0     		b	.L3
 263              	.L29:
 373:Drivers/STM32H5xx_HAL_Driver/Src/stm32h5xx_hal_rcc.c ****     }
 374:Drivers/STM32H5xx_HAL_Driver/Src/stm32h5xx_hal_rcc.c ****   }
 375:Drivers/STM32H5xx_HAL_Driver/Src/stm32h5xx_hal_rcc.c **** #endif /* RCC_CR_PLL3ON */
 376:Drivers/STM32H5xx_HAL_Driver/Src/stm32h5xx_hal_rcc.c **** 
 377:Drivers/STM32H5xx_HAL_Driver/Src/stm32h5xx_hal_rcc.c ****   /* Reset PLL1CFGR register */
 378:Drivers/STM32H5xx_HAL_Driver/Src/stm32h5xx_hal_rcc.c ****   CLEAR_REG(RCC->PLL1CFGR);
 264              		.loc 1 378 3 is_stmt 1 view .LVU78
 265 0120 1C4B     		ldr	r3, .L30+4
 266 0122 0022     		movs	r2, #0
 267 0124 9A62     		str	r2, [r3, #40]
 379:Drivers/STM32H5xx_HAL_Driver/Src/stm32h5xx_hal_rcc.c **** 
 380:Drivers/STM32H5xx_HAL_Driver/Src/stm32h5xx_hal_rcc.c ****   /* Reset PLL1DIVR register */
 381:Drivers/STM32H5xx_HAL_Driver/Src/stm32h5xx_hal_rcc.c ****   WRITE_REG(RCC->PLL1DIVR, 0x01010280U);
 268              		.loc 1 381 3 view .LVU79
 269 0126 1E49     		ldr	r1, .L30+16
 270 0128 5963     		str	r1, [r3, #52]
 382:Drivers/STM32H5xx_HAL_Driver/Src/stm32h5xx_hal_rcc.c **** 
 383:Drivers/STM32H5xx_HAL_Driver/Src/stm32h5xx_hal_rcc.c ****   /* Reset PLL1FRACR register */
 384:Drivers/STM32H5xx_HAL_Driver/Src/stm32h5xx_hal_rcc.c ****   CLEAR_REG(RCC->PLL1FRACR);
 271              		.loc 1 384 3 view .LVU80
 272 012a 9A63     		str	r2, [r3, #56]
 385:Drivers/STM32H5xx_HAL_Driver/Src/stm32h5xx_hal_rcc.c **** 
 386:Drivers/STM32H5xx_HAL_Driver/Src/stm32h5xx_hal_rcc.c ****   /* Reset PLL2CFGR register */
 387:Drivers/STM32H5xx_HAL_Driver/Src/stm32h5xx_hal_rcc.c ****   CLEAR_REG(RCC->PLL2CFGR);
 273              		.loc 1 387 3 view .LVU81
 274 012c DA62     		str	r2, [r3, #44]
 388:Drivers/STM32H5xx_HAL_Driver/Src/stm32h5xx_hal_rcc.c **** 
 389:Drivers/STM32H5xx_HAL_Driver/Src/stm32h5xx_hal_rcc.c ****   /* Reset PLL2DIVR register */
 390:Drivers/STM32H5xx_HAL_Driver/Src/stm32h5xx_hal_rcc.c ****   WRITE_REG(RCC->PLL2DIVR, 0x01010280U);
 275              		.loc 1 390 3 view .LVU82
 276 012e D963     		str	r1, [r3, #60]
 391:Drivers/STM32H5xx_HAL_Driver/Src/stm32h5xx_hal_rcc.c **** 
 392:Drivers/STM32H5xx_HAL_Driver/Src/stm32h5xx_hal_rcc.c ****   /* Reset PLL2FRACR register */
 393:Drivers/STM32H5xx_HAL_Driver/Src/stm32h5xx_hal_rcc.c ****   CLEAR_REG(RCC->PLL2FRACR);
 277              		.loc 1 393 3 view .LVU83
 278 0130 1A64     		str	r2, [r3, #64]
 394:Drivers/STM32H5xx_HAL_Driver/Src/stm32h5xx_hal_rcc.c **** 
 395:Drivers/STM32H5xx_HAL_Driver/Src/stm32h5xx_hal_rcc.c **** #if defined(RCC_CR_PLL3ON)
 396:Drivers/STM32H5xx_HAL_Driver/Src/stm32h5xx_hal_rcc.c ****   /* Reset PLL3CFGR register */
 397:Drivers/STM32H5xx_HAL_Driver/Src/stm32h5xx_hal_rcc.c ****   CLEAR_REG(RCC->PLL3CFGR);
 279              		.loc 1 397 3 view .LVU84
 280 0132 1A63     		str	r2, [r3, #48]
 398:Drivers/STM32H5xx_HAL_Driver/Src/stm32h5xx_hal_rcc.c **** 
 399:Drivers/STM32H5xx_HAL_Driver/Src/stm32h5xx_hal_rcc.c ****   /* Reset PLL3DIVR register */
 400:Drivers/STM32H5xx_HAL_Driver/Src/stm32h5xx_hal_rcc.c ****   WRITE_REG(RCC->PLL3DIVR, 0x01010280U);
 281              		.loc 1 400 3 view .LVU85
 282 0134 5964     		str	r1, [r3, #68]
 401:Drivers/STM32H5xx_HAL_Driver/Src/stm32h5xx_hal_rcc.c **** 
 402:Drivers/STM32H5xx_HAL_Driver/Src/stm32h5xx_hal_rcc.c ****   /* Reset PLL3FRACR register */
 403:Drivers/STM32H5xx_HAL_Driver/Src/stm32h5xx_hal_rcc.c ****   CLEAR_REG(RCC->PLL3FRACR);
ARM GAS  C:\Users\sapph\AppData\Local\Temp\ccD3KfzI.s 			page 13


 283              		.loc 1 403 3 view .LVU86
 284 0136 9A64     		str	r2, [r3, #72]
 404:Drivers/STM32H5xx_HAL_Driver/Src/stm32h5xx_hal_rcc.c **** #endif /* RCC_CR_PLL3ON */
 405:Drivers/STM32H5xx_HAL_Driver/Src/stm32h5xx_hal_rcc.c **** 
 406:Drivers/STM32H5xx_HAL_Driver/Src/stm32h5xx_hal_rcc.c ****   /* Reset HSEBYP bit */
 407:Drivers/STM32H5xx_HAL_Driver/Src/stm32h5xx_hal_rcc.c ****   CLEAR_BIT(RCC->CR, RCC_CR_HSEBYP);
 285              		.loc 1 407 3 view .LVU87
 286 0138 1968     		ldr	r1, [r3]
 287 013a 21F48021 		bic	r1, r1, #262144
 288 013e 1960     		str	r1, [r3]
 408:Drivers/STM32H5xx_HAL_Driver/Src/stm32h5xx_hal_rcc.c **** 
 409:Drivers/STM32H5xx_HAL_Driver/Src/stm32h5xx_hal_rcc.c ****   /* Disable all interrupts */
 410:Drivers/STM32H5xx_HAL_Driver/Src/stm32h5xx_hal_rcc.c ****   CLEAR_REG(RCC->CIER);
 289              		.loc 1 410 3 view .LVU88
 290 0140 1A65     		str	r2, [r3, #80]
 411:Drivers/STM32H5xx_HAL_Driver/Src/stm32h5xx_hal_rcc.c **** 
 412:Drivers/STM32H5xx_HAL_Driver/Src/stm32h5xx_hal_rcc.c ****   /* Clear all interrupts flags */
 413:Drivers/STM32H5xx_HAL_Driver/Src/stm32h5xx_hal_rcc.c ****   WRITE_REG(RCC->CICR, 0xFFFFFFFFU);
 291              		.loc 1 413 3 view .LVU89
 292 0142 4FF0FF32 		mov	r2, #-1
 293 0146 9A65     		str	r2, [r3, #88]
 414:Drivers/STM32H5xx_HAL_Driver/Src/stm32h5xx_hal_rcc.c **** 
 415:Drivers/STM32H5xx_HAL_Driver/Src/stm32h5xx_hal_rcc.c ****   /* Reset all RSR flags */
 416:Drivers/STM32H5xx_HAL_Driver/Src/stm32h5xx_hal_rcc.c ****   SET_BIT(RCC->RSR, RCC_RSR_RMVF);
 294              		.loc 1 416 3 view .LVU90
 295 0148 D3F8F420 		ldr	r2, [r3, #244]
 296 014c 42F40002 		orr	r2, r2, #8388608
 297 0150 C3F8F420 		str	r2, [r3, #244]
 417:Drivers/STM32H5xx_HAL_Driver/Src/stm32h5xx_hal_rcc.c **** 
 418:Drivers/STM32H5xx_HAL_Driver/Src/stm32h5xx_hal_rcc.c ****   /* Update the SystemCoreClock global variable */
 419:Drivers/STM32H5xx_HAL_Driver/Src/stm32h5xx_hal_rcc.c ****   SystemCoreClock = HSI_VALUE;
 298              		.loc 1 419 3 view .LVU91
 299              		.loc 1 419 19 is_stmt 0 view .LVU92
 300 0154 134B     		ldr	r3, .L30+20
 301 0156 144A     		ldr	r2, .L30+24
 302 0158 1A60     		str	r2, [r3]
 420:Drivers/STM32H5xx_HAL_Driver/Src/stm32h5xx_hal_rcc.c **** 
 421:Drivers/STM32H5xx_HAL_Driver/Src/stm32h5xx_hal_rcc.c ****   /* Decreasing the number of wait states because of lower CPU frequency */
 422:Drivers/STM32H5xx_HAL_Driver/Src/stm32h5xx_hal_rcc.c ****   if (FLASH_LATENCY_DEFAULT  < __HAL_FLASH_GET_LATENCY())
 303              		.loc 1 422 3 is_stmt 1 view .LVU93
 304              		.loc 1 422 32 is_stmt 0 view .LVU94
 305 015a 0D4B     		ldr	r3, .L30
 306 015c 1B68     		ldr	r3, [r3]
 307              		.loc 1 422 6 view .LVU95
 308 015e 13F00C0F 		tst	r3, #12
 309 0162 0BD0     		beq	.L14
 423:Drivers/STM32H5xx_HAL_Driver/Src/stm32h5xx_hal_rcc.c ****   {
 424:Drivers/STM32H5xx_HAL_Driver/Src/stm32h5xx_hal_rcc.c ****     /* Program the new number of wait states to the LATENCY bits in the FLASH_ACR register */
 425:Drivers/STM32H5xx_HAL_Driver/Src/stm32h5xx_hal_rcc.c ****     __HAL_FLASH_SET_LATENCY(FLASH_LATENCY_DEFAULT);
 310              		.loc 1 425 5 is_stmt 1 view .LVU96
 311 0164 0A4A     		ldr	r2, .L30
 312 0166 1368     		ldr	r3, [r2]
 313 0168 23F00F03 		bic	r3, r3, #15
 314 016c 43F00303 		orr	r3, r3, #3
 315 0170 1360     		str	r3, [r2]
 426:Drivers/STM32H5xx_HAL_Driver/Src/stm32h5xx_hal_rcc.c **** 
 427:Drivers/STM32H5xx_HAL_Driver/Src/stm32h5xx_hal_rcc.c ****     /* Check that the new number of wait states is taken into account to access the Flash
ARM GAS  C:\Users\sapph\AppData\Local\Temp\ccD3KfzI.s 			page 14


 428:Drivers/STM32H5xx_HAL_Driver/Src/stm32h5xx_hal_rcc.c ****     memory by reading the FLASH_ACR register */
 429:Drivers/STM32H5xx_HAL_Driver/Src/stm32h5xx_hal_rcc.c ****     if (__HAL_FLASH_GET_LATENCY() != FLASH_LATENCY_DEFAULT)
 316              		.loc 1 429 5 view .LVU97
 317              		.loc 1 429 9 is_stmt 0 view .LVU98
 318 0172 1368     		ldr	r3, [r2]
 319 0174 03F00F03 		and	r3, r3, #15
 320              		.loc 1 429 8 view .LVU99
 321 0178 032B     		cmp	r3, #3
 322 017a 07D1     		bne	.L22
 323              	.L14:
 430:Drivers/STM32H5xx_HAL_Driver/Src/stm32h5xx_hal_rcc.c ****     {
 431:Drivers/STM32H5xx_HAL_Driver/Src/stm32h5xx_hal_rcc.c ****       return HAL_ERROR;
 432:Drivers/STM32H5xx_HAL_Driver/Src/stm32h5xx_hal_rcc.c ****     }
 433:Drivers/STM32H5xx_HAL_Driver/Src/stm32h5xx_hal_rcc.c ****   }
 434:Drivers/STM32H5xx_HAL_Driver/Src/stm32h5xx_hal_rcc.c **** 
 435:Drivers/STM32H5xx_HAL_Driver/Src/stm32h5xx_hal_rcc.c ****   /* Adapt Systick interrupt period */
 436:Drivers/STM32H5xx_HAL_Driver/Src/stm32h5xx_hal_rcc.c ****   if (HAL_InitTick(TICK_INT_PRIORITY) != HAL_OK)
 324              		.loc 1 436 3 is_stmt 1 view .LVU100
 325              		.loc 1 436 7 is_stmt 0 view .LVU101
 326 017c 0F20     		movs	r0, #15
 327 017e FFF7FEFF 		bl	HAL_InitTick
 328              	.LVL21:
 329              		.loc 1 436 6 discriminator 1 view .LVU102
 330 0182 10B1     		cbz	r0, .L3
 437:Drivers/STM32H5xx_HAL_Driver/Src/stm32h5xx_hal_rcc.c ****   {
 438:Drivers/STM32H5xx_HAL_Driver/Src/stm32h5xx_hal_rcc.c ****     return HAL_ERROR;
 331              		.loc 1 438 12 view .LVU103
 332 0184 0120     		movs	r0, #1
 333 0186 00E0     		b	.L3
 334              	.LVL22:
 335              	.L15:
 273:Drivers/STM32H5xx_HAL_Driver/Src/stm32h5xx_hal_rcc.c ****     }
 336              		.loc 1 273 14 view .LVU104
 337 0188 0120     		movs	r0, #1
 338              	.L3:
 439:Drivers/STM32H5xx_HAL_Driver/Src/stm32h5xx_hal_rcc.c ****   }
 440:Drivers/STM32H5xx_HAL_Driver/Src/stm32h5xx_hal_rcc.c ****   else
 441:Drivers/STM32H5xx_HAL_Driver/Src/stm32h5xx_hal_rcc.c ****   {
 442:Drivers/STM32H5xx_HAL_Driver/Src/stm32h5xx_hal_rcc.c ****     return HAL_OK;
 443:Drivers/STM32H5xx_HAL_Driver/Src/stm32h5xx_hal_rcc.c ****   }
 444:Drivers/STM32H5xx_HAL_Driver/Src/stm32h5xx_hal_rcc.c **** }
 339              		.loc 1 444 1 view .LVU105
 340 018a 38BD     		pop	{r3, r4, r5, pc}
 341              	.LVL23:
 342              	.L22:
 431:Drivers/STM32H5xx_HAL_Driver/Src/stm32h5xx_hal_rcc.c ****     }
 343              		.loc 1 431 14 view .LVU106
 344 018c 0120     		movs	r0, #1
 345 018e FCE7     		b	.L3
 346              	.L31:
 347              		.align	2
 348              	.L30:
 349 0190 00200240 		.word	1073881088
 350 0194 000C0244 		.word	1140984832
 351 0198 00000000 		.word	uwTickPrio
 352 019c FBEAF6FF 		.word	-595205
 353 01a0 80020101 		.word	16843392
ARM GAS  C:\Users\sapph\AppData\Local\Temp\ccD3KfzI.s 			page 15


 354 01a4 00000000 		.word	SystemCoreClock
 355 01a8 0090D003 		.word	64000000
 356              		.cfi_endproc
 357              	.LFE160:
 359              		.section	.text.HAL_RCC_MCOConfig,"ax",%progbits
 360              		.align	1
 361              		.global	HAL_RCC_MCOConfig
 362              		.syntax unified
 363              		.thumb
 364              		.thumb_func
 366              	HAL_RCC_MCOConfig:
 367              	.LVL24:
 368              	.LFB163:
 445:Drivers/STM32H5xx_HAL_Driver/Src/stm32h5xx_hal_rcc.c **** 
 446:Drivers/STM32H5xx_HAL_Driver/Src/stm32h5xx_hal_rcc.c **** /**
 447:Drivers/STM32H5xx_HAL_Driver/Src/stm32h5xx_hal_rcc.c ****   * @brief  Initialize the RCC Oscillators according to the specified parameters in the
 448:Drivers/STM32H5xx_HAL_Driver/Src/stm32h5xx_hal_rcc.c ****   *         RCC_OscInitTypeDef.
 449:Drivers/STM32H5xx_HAL_Driver/Src/stm32h5xx_hal_rcc.c ****   * @param  pOscInitStruct pointer to an RCC_OscInitTypeDef structure that
 450:Drivers/STM32H5xx_HAL_Driver/Src/stm32h5xx_hal_rcc.c ****   *         contains the configuration information for the RCC Oscillators.
 451:Drivers/STM32H5xx_HAL_Driver/Src/stm32h5xx_hal_rcc.c ****   * @note   The PLL is not disabled when used as system clock.
 452:Drivers/STM32H5xx_HAL_Driver/Src/stm32h5xx_hal_rcc.c ****   * @note   Transitions LSE Bypass to LSE On and LSE On to LSE Bypass are not
 453:Drivers/STM32H5xx_HAL_Driver/Src/stm32h5xx_hal_rcc.c ****   *         supported by this macro. User should request a transition to LSE Off
 454:Drivers/STM32H5xx_HAL_Driver/Src/stm32h5xx_hal_rcc.c ****   *         first and then LSE On or LSE Bypass.
 455:Drivers/STM32H5xx_HAL_Driver/Src/stm32h5xx_hal_rcc.c ****   * @note   Transition HSE Bypass to HSE On and HSE On to HSE Bypass are not
 456:Drivers/STM32H5xx_HAL_Driver/Src/stm32h5xx_hal_rcc.c ****   *         supported by this macro. User should request a transition to HSE Off
 457:Drivers/STM32H5xx_HAL_Driver/Src/stm32h5xx_hal_rcc.c ****   *         first and then HSE On or HSE Bypass.
 458:Drivers/STM32H5xx_HAL_Driver/Src/stm32h5xx_hal_rcc.c ****   * @retval HAL status
 459:Drivers/STM32H5xx_HAL_Driver/Src/stm32h5xx_hal_rcc.c ****   */
 460:Drivers/STM32H5xx_HAL_Driver/Src/stm32h5xx_hal_rcc.c **** HAL_StatusTypeDef HAL_RCC_OscConfig(const RCC_OscInitTypeDef  *pOscInitStruct)
 461:Drivers/STM32H5xx_HAL_Driver/Src/stm32h5xx_hal_rcc.c **** {
 462:Drivers/STM32H5xx_HAL_Driver/Src/stm32h5xx_hal_rcc.c ****   uint32_t tickstart;
 463:Drivers/STM32H5xx_HAL_Driver/Src/stm32h5xx_hal_rcc.c ****   uint32_t temp_sysclksrc;
 464:Drivers/STM32H5xx_HAL_Driver/Src/stm32h5xx_hal_rcc.c ****   uint32_t temp_pllckselr;
 465:Drivers/STM32H5xx_HAL_Driver/Src/stm32h5xx_hal_rcc.c ****   uint32_t temp1_pllckcfg;
 466:Drivers/STM32H5xx_HAL_Driver/Src/stm32h5xx_hal_rcc.c ****   uint32_t temp2_pllckcfg;
 467:Drivers/STM32H5xx_HAL_Driver/Src/stm32h5xx_hal_rcc.c **** 
 468:Drivers/STM32H5xx_HAL_Driver/Src/stm32h5xx_hal_rcc.c ****   /* Check Null pointer */
 469:Drivers/STM32H5xx_HAL_Driver/Src/stm32h5xx_hal_rcc.c ****   if (pOscInitStruct == NULL)
 470:Drivers/STM32H5xx_HAL_Driver/Src/stm32h5xx_hal_rcc.c ****   {
 471:Drivers/STM32H5xx_HAL_Driver/Src/stm32h5xx_hal_rcc.c ****     return HAL_ERROR;
 472:Drivers/STM32H5xx_HAL_Driver/Src/stm32h5xx_hal_rcc.c ****   }
 473:Drivers/STM32H5xx_HAL_Driver/Src/stm32h5xx_hal_rcc.c **** 
 474:Drivers/STM32H5xx_HAL_Driver/Src/stm32h5xx_hal_rcc.c ****   /* Check the parameters */
 475:Drivers/STM32H5xx_HAL_Driver/Src/stm32h5xx_hal_rcc.c ****   assert_param(IS_RCC_OSCILLATORTYPE(pOscInitStruct->OscillatorType));
 476:Drivers/STM32H5xx_HAL_Driver/Src/stm32h5xx_hal_rcc.c ****   temp_sysclksrc = __HAL_RCC_GET_SYSCLK_SOURCE();
 477:Drivers/STM32H5xx_HAL_Driver/Src/stm32h5xx_hal_rcc.c ****   temp_pllckselr = __HAL_RCC_GET_PLL1_OSCSOURCE();
 478:Drivers/STM32H5xx_HAL_Driver/Src/stm32h5xx_hal_rcc.c **** 
 479:Drivers/STM32H5xx_HAL_Driver/Src/stm32h5xx_hal_rcc.c ****   /*----------------------------- CSI Configuration --------------------------*/
 480:Drivers/STM32H5xx_HAL_Driver/Src/stm32h5xx_hal_rcc.c ****   if (((pOscInitStruct->OscillatorType) & RCC_OSCILLATORTYPE_CSI) == RCC_OSCILLATORTYPE_CSI)
 481:Drivers/STM32H5xx_HAL_Driver/Src/stm32h5xx_hal_rcc.c ****   {
 482:Drivers/STM32H5xx_HAL_Driver/Src/stm32h5xx_hal_rcc.c ****     /* Check the parameters */
 483:Drivers/STM32H5xx_HAL_Driver/Src/stm32h5xx_hal_rcc.c ****     assert_param(IS_RCC_CSI(pOscInitStruct->CSIState));
 484:Drivers/STM32H5xx_HAL_Driver/Src/stm32h5xx_hal_rcc.c ****     assert_param(IS_RCC_CSICALIBRATION_VALUE(pOscInitStruct->CSICalibrationValue));
 485:Drivers/STM32H5xx_HAL_Driver/Src/stm32h5xx_hal_rcc.c **** 
 486:Drivers/STM32H5xx_HAL_Driver/Src/stm32h5xx_hal_rcc.c ****     /* When the CSI is used as system clock it will not be disabled */
 487:Drivers/STM32H5xx_HAL_Driver/Src/stm32h5xx_hal_rcc.c ****     if ((temp_sysclksrc == RCC_SYSCLKSOURCE_STATUS_CSI) ||
 488:Drivers/STM32H5xx_HAL_Driver/Src/stm32h5xx_hal_rcc.c ****         ((temp_sysclksrc == RCC_SYSCLKSOURCE_STATUS_PLLCLK) && (temp_pllckselr == RCC_PLL1_SOURCE_C
ARM GAS  C:\Users\sapph\AppData\Local\Temp\ccD3KfzI.s 			page 16


 489:Drivers/STM32H5xx_HAL_Driver/Src/stm32h5xx_hal_rcc.c ****     {
 490:Drivers/STM32H5xx_HAL_Driver/Src/stm32h5xx_hal_rcc.c ****       if (pOscInitStruct->CSIState == RCC_CSI_OFF)
 491:Drivers/STM32H5xx_HAL_Driver/Src/stm32h5xx_hal_rcc.c ****       {
 492:Drivers/STM32H5xx_HAL_Driver/Src/stm32h5xx_hal_rcc.c ****         return HAL_ERROR;
 493:Drivers/STM32H5xx_HAL_Driver/Src/stm32h5xx_hal_rcc.c ****       }
 494:Drivers/STM32H5xx_HAL_Driver/Src/stm32h5xx_hal_rcc.c **** 
 495:Drivers/STM32H5xx_HAL_Driver/Src/stm32h5xx_hal_rcc.c ****       /* Otherwise, just the calibration and CSI is allowed */
 496:Drivers/STM32H5xx_HAL_Driver/Src/stm32h5xx_hal_rcc.c ****       else
 497:Drivers/STM32H5xx_HAL_Driver/Src/stm32h5xx_hal_rcc.c ****       {
 498:Drivers/STM32H5xx_HAL_Driver/Src/stm32h5xx_hal_rcc.c ****         /* Adjusts the Internal Low-power oscillator (CSI) calibration value.*/
 499:Drivers/STM32H5xx_HAL_Driver/Src/stm32h5xx_hal_rcc.c ****         __HAL_RCC_CSI_CALIBRATIONVALUE_ADJUST(pOscInitStruct->CSICalibrationValue);
 500:Drivers/STM32H5xx_HAL_Driver/Src/stm32h5xx_hal_rcc.c ****       }
 501:Drivers/STM32H5xx_HAL_Driver/Src/stm32h5xx_hal_rcc.c ****     }
 502:Drivers/STM32H5xx_HAL_Driver/Src/stm32h5xx_hal_rcc.c ****     else
 503:Drivers/STM32H5xx_HAL_Driver/Src/stm32h5xx_hal_rcc.c ****     {
 504:Drivers/STM32H5xx_HAL_Driver/Src/stm32h5xx_hal_rcc.c ****       /* Check the CSI State */
 505:Drivers/STM32H5xx_HAL_Driver/Src/stm32h5xx_hal_rcc.c ****       if ((pOscInitStruct->CSIState) != RCC_CSI_OFF)
 506:Drivers/STM32H5xx_HAL_Driver/Src/stm32h5xx_hal_rcc.c ****       {
 507:Drivers/STM32H5xx_HAL_Driver/Src/stm32h5xx_hal_rcc.c ****         /* Enable the Internal High Speed oscillator (CSI). */
 508:Drivers/STM32H5xx_HAL_Driver/Src/stm32h5xx_hal_rcc.c ****         __HAL_RCC_CSI_ENABLE();
 509:Drivers/STM32H5xx_HAL_Driver/Src/stm32h5xx_hal_rcc.c **** 
 510:Drivers/STM32H5xx_HAL_Driver/Src/stm32h5xx_hal_rcc.c ****         /* Get Start Tick*/
 511:Drivers/STM32H5xx_HAL_Driver/Src/stm32h5xx_hal_rcc.c ****         tickstart = HAL_GetTick();
 512:Drivers/STM32H5xx_HAL_Driver/Src/stm32h5xx_hal_rcc.c **** 
 513:Drivers/STM32H5xx_HAL_Driver/Src/stm32h5xx_hal_rcc.c ****         /* Wait till CSI is ready */
 514:Drivers/STM32H5xx_HAL_Driver/Src/stm32h5xx_hal_rcc.c ****         while (READ_BIT(RCC->CR, RCC_CR_CSIRDY) == 0U)
 515:Drivers/STM32H5xx_HAL_Driver/Src/stm32h5xx_hal_rcc.c ****         {
 516:Drivers/STM32H5xx_HAL_Driver/Src/stm32h5xx_hal_rcc.c ****           if ((HAL_GetTick() - tickstart) > RCC_CSI_TIMEOUT_VALUE)
 517:Drivers/STM32H5xx_HAL_Driver/Src/stm32h5xx_hal_rcc.c ****           {
 518:Drivers/STM32H5xx_HAL_Driver/Src/stm32h5xx_hal_rcc.c ****             return HAL_TIMEOUT;
 519:Drivers/STM32H5xx_HAL_Driver/Src/stm32h5xx_hal_rcc.c ****           }
 520:Drivers/STM32H5xx_HAL_Driver/Src/stm32h5xx_hal_rcc.c ****         }
 521:Drivers/STM32H5xx_HAL_Driver/Src/stm32h5xx_hal_rcc.c **** 
 522:Drivers/STM32H5xx_HAL_Driver/Src/stm32h5xx_hal_rcc.c ****         /* Adjusts the Internal High Speed oscillator (CSI) calibration value.*/
 523:Drivers/STM32H5xx_HAL_Driver/Src/stm32h5xx_hal_rcc.c ****         __HAL_RCC_CSI_CALIBRATIONVALUE_ADJUST(pOscInitStruct->CSICalibrationValue);
 524:Drivers/STM32H5xx_HAL_Driver/Src/stm32h5xx_hal_rcc.c ****       }
 525:Drivers/STM32H5xx_HAL_Driver/Src/stm32h5xx_hal_rcc.c ****       else
 526:Drivers/STM32H5xx_HAL_Driver/Src/stm32h5xx_hal_rcc.c ****       {
 527:Drivers/STM32H5xx_HAL_Driver/Src/stm32h5xx_hal_rcc.c ****         /* Disable the Internal High Speed oscillator (CSI). */
 528:Drivers/STM32H5xx_HAL_Driver/Src/stm32h5xx_hal_rcc.c ****         __HAL_RCC_CSI_DISABLE();
 529:Drivers/STM32H5xx_HAL_Driver/Src/stm32h5xx_hal_rcc.c **** 
 530:Drivers/STM32H5xx_HAL_Driver/Src/stm32h5xx_hal_rcc.c ****         /* Get Start Tick*/
 531:Drivers/STM32H5xx_HAL_Driver/Src/stm32h5xx_hal_rcc.c ****         tickstart = HAL_GetTick();
 532:Drivers/STM32H5xx_HAL_Driver/Src/stm32h5xx_hal_rcc.c **** 
 533:Drivers/STM32H5xx_HAL_Driver/Src/stm32h5xx_hal_rcc.c ****         /* Wait till CSI is disabled */
 534:Drivers/STM32H5xx_HAL_Driver/Src/stm32h5xx_hal_rcc.c ****         while (READ_BIT(RCC->CR, RCC_CR_CSIRDY) != 0U)
 535:Drivers/STM32H5xx_HAL_Driver/Src/stm32h5xx_hal_rcc.c ****         {
 536:Drivers/STM32H5xx_HAL_Driver/Src/stm32h5xx_hal_rcc.c ****           if ((HAL_GetTick() - tickstart) > RCC_CSI_TIMEOUT_VALUE)
 537:Drivers/STM32H5xx_HAL_Driver/Src/stm32h5xx_hal_rcc.c ****           {
 538:Drivers/STM32H5xx_HAL_Driver/Src/stm32h5xx_hal_rcc.c ****             return HAL_TIMEOUT;
 539:Drivers/STM32H5xx_HAL_Driver/Src/stm32h5xx_hal_rcc.c ****           }
 540:Drivers/STM32H5xx_HAL_Driver/Src/stm32h5xx_hal_rcc.c ****         }
 541:Drivers/STM32H5xx_HAL_Driver/Src/stm32h5xx_hal_rcc.c ****       }
 542:Drivers/STM32H5xx_HAL_Driver/Src/stm32h5xx_hal_rcc.c ****     }
 543:Drivers/STM32H5xx_HAL_Driver/Src/stm32h5xx_hal_rcc.c ****   }
 544:Drivers/STM32H5xx_HAL_Driver/Src/stm32h5xx_hal_rcc.c ****   /*------------------------------- HSE Configuration ------------------------*/
 545:Drivers/STM32H5xx_HAL_Driver/Src/stm32h5xx_hal_rcc.c ****   if (((pOscInitStruct->OscillatorType) & RCC_OSCILLATORTYPE_HSE) == RCC_OSCILLATORTYPE_HSE)
ARM GAS  C:\Users\sapph\AppData\Local\Temp\ccD3KfzI.s 			page 17


 546:Drivers/STM32H5xx_HAL_Driver/Src/stm32h5xx_hal_rcc.c ****   {
 547:Drivers/STM32H5xx_HAL_Driver/Src/stm32h5xx_hal_rcc.c ****     /* Check the parameters */
 548:Drivers/STM32H5xx_HAL_Driver/Src/stm32h5xx_hal_rcc.c ****     assert_param(IS_RCC_HSE(pOscInitStruct->HSEState));
 549:Drivers/STM32H5xx_HAL_Driver/Src/stm32h5xx_hal_rcc.c **** 
 550:Drivers/STM32H5xx_HAL_Driver/Src/stm32h5xx_hal_rcc.c ****     /* When the HSE is used as system clock or clock source for PLL in these cases it is not allowe
 551:Drivers/STM32H5xx_HAL_Driver/Src/stm32h5xx_hal_rcc.c ****     if ((temp_sysclksrc == RCC_SYSCLKSOURCE_STATUS_HSE) ||
 552:Drivers/STM32H5xx_HAL_Driver/Src/stm32h5xx_hal_rcc.c ****         ((temp_sysclksrc == RCC_SYSCLKSOURCE_STATUS_PLLCLK) && (temp_pllckselr == RCC_PLL1_SOURCE_H
 553:Drivers/STM32H5xx_HAL_Driver/Src/stm32h5xx_hal_rcc.c ****     {
 554:Drivers/STM32H5xx_HAL_Driver/Src/stm32h5xx_hal_rcc.c ****       if (pOscInitStruct->HSEState == RCC_HSE_OFF)
 555:Drivers/STM32H5xx_HAL_Driver/Src/stm32h5xx_hal_rcc.c ****       {
 556:Drivers/STM32H5xx_HAL_Driver/Src/stm32h5xx_hal_rcc.c ****         return HAL_ERROR;
 557:Drivers/STM32H5xx_HAL_Driver/Src/stm32h5xx_hal_rcc.c ****       }
 558:Drivers/STM32H5xx_HAL_Driver/Src/stm32h5xx_hal_rcc.c ****     }
 559:Drivers/STM32H5xx_HAL_Driver/Src/stm32h5xx_hal_rcc.c ****     else
 560:Drivers/STM32H5xx_HAL_Driver/Src/stm32h5xx_hal_rcc.c ****     {
 561:Drivers/STM32H5xx_HAL_Driver/Src/stm32h5xx_hal_rcc.c ****       /* Set the new HSE configuration ---------------------------------------*/
 562:Drivers/STM32H5xx_HAL_Driver/Src/stm32h5xx_hal_rcc.c ****       __HAL_RCC_HSE_CONFIG(pOscInitStruct->HSEState);
 563:Drivers/STM32H5xx_HAL_Driver/Src/stm32h5xx_hal_rcc.c **** 
 564:Drivers/STM32H5xx_HAL_Driver/Src/stm32h5xx_hal_rcc.c ****       /* Check the HSE State */
 565:Drivers/STM32H5xx_HAL_Driver/Src/stm32h5xx_hal_rcc.c ****       if (pOscInitStruct->HSEState != RCC_HSE_OFF)
 566:Drivers/STM32H5xx_HAL_Driver/Src/stm32h5xx_hal_rcc.c ****       {
 567:Drivers/STM32H5xx_HAL_Driver/Src/stm32h5xx_hal_rcc.c ****         /* Get Start Tick*/
 568:Drivers/STM32H5xx_HAL_Driver/Src/stm32h5xx_hal_rcc.c ****         tickstart = HAL_GetTick();
 569:Drivers/STM32H5xx_HAL_Driver/Src/stm32h5xx_hal_rcc.c **** 
 570:Drivers/STM32H5xx_HAL_Driver/Src/stm32h5xx_hal_rcc.c ****         /* Wait till HSE is ready */
 571:Drivers/STM32H5xx_HAL_Driver/Src/stm32h5xx_hal_rcc.c ****         while (READ_BIT(RCC->CR, RCC_CR_HSERDY) == 0U)
 572:Drivers/STM32H5xx_HAL_Driver/Src/stm32h5xx_hal_rcc.c ****         {
 573:Drivers/STM32H5xx_HAL_Driver/Src/stm32h5xx_hal_rcc.c ****           if ((HAL_GetTick() - tickstart) > RCC_HSE_TIMEOUT_VALUE)
 574:Drivers/STM32H5xx_HAL_Driver/Src/stm32h5xx_hal_rcc.c ****           {
 575:Drivers/STM32H5xx_HAL_Driver/Src/stm32h5xx_hal_rcc.c ****             return HAL_TIMEOUT;
 576:Drivers/STM32H5xx_HAL_Driver/Src/stm32h5xx_hal_rcc.c ****           }
 577:Drivers/STM32H5xx_HAL_Driver/Src/stm32h5xx_hal_rcc.c ****         }
 578:Drivers/STM32H5xx_HAL_Driver/Src/stm32h5xx_hal_rcc.c ****       }
 579:Drivers/STM32H5xx_HAL_Driver/Src/stm32h5xx_hal_rcc.c ****       else
 580:Drivers/STM32H5xx_HAL_Driver/Src/stm32h5xx_hal_rcc.c ****       {
 581:Drivers/STM32H5xx_HAL_Driver/Src/stm32h5xx_hal_rcc.c ****         /* Get Start Tick*/
 582:Drivers/STM32H5xx_HAL_Driver/Src/stm32h5xx_hal_rcc.c ****         tickstart = HAL_GetTick();
 583:Drivers/STM32H5xx_HAL_Driver/Src/stm32h5xx_hal_rcc.c **** 
 584:Drivers/STM32H5xx_HAL_Driver/Src/stm32h5xx_hal_rcc.c ****         /* Wait till HSE is disabled */
 585:Drivers/STM32H5xx_HAL_Driver/Src/stm32h5xx_hal_rcc.c ****         while (READ_BIT(RCC->CR, RCC_CR_HSERDY) != 0U)
 586:Drivers/STM32H5xx_HAL_Driver/Src/stm32h5xx_hal_rcc.c ****         {
 587:Drivers/STM32H5xx_HAL_Driver/Src/stm32h5xx_hal_rcc.c ****           if ((HAL_GetTick() - tickstart) > RCC_HSE_TIMEOUT_VALUE)
 588:Drivers/STM32H5xx_HAL_Driver/Src/stm32h5xx_hal_rcc.c ****           {
 589:Drivers/STM32H5xx_HAL_Driver/Src/stm32h5xx_hal_rcc.c ****             return HAL_TIMEOUT;
 590:Drivers/STM32H5xx_HAL_Driver/Src/stm32h5xx_hal_rcc.c ****           }
 591:Drivers/STM32H5xx_HAL_Driver/Src/stm32h5xx_hal_rcc.c ****         }
 592:Drivers/STM32H5xx_HAL_Driver/Src/stm32h5xx_hal_rcc.c ****       }
 593:Drivers/STM32H5xx_HAL_Driver/Src/stm32h5xx_hal_rcc.c ****     }
 594:Drivers/STM32H5xx_HAL_Driver/Src/stm32h5xx_hal_rcc.c ****   }
 595:Drivers/STM32H5xx_HAL_Driver/Src/stm32h5xx_hal_rcc.c ****   /*----------------------------- HSI Configuration --------------------------*/
 596:Drivers/STM32H5xx_HAL_Driver/Src/stm32h5xx_hal_rcc.c ****   if (((pOscInitStruct->OscillatorType) & RCC_OSCILLATORTYPE_HSI) == RCC_OSCILLATORTYPE_HSI)
 597:Drivers/STM32H5xx_HAL_Driver/Src/stm32h5xx_hal_rcc.c ****   {
 598:Drivers/STM32H5xx_HAL_Driver/Src/stm32h5xx_hal_rcc.c ****     /* Check the parameters */
 599:Drivers/STM32H5xx_HAL_Driver/Src/stm32h5xx_hal_rcc.c ****     assert_param(IS_RCC_HSI(pOscInitStruct->HSIState));
 600:Drivers/STM32H5xx_HAL_Driver/Src/stm32h5xx_hal_rcc.c ****     assert_param(IS_RCC_HSIDIV(pOscInitStruct->HSIDiv));
 601:Drivers/STM32H5xx_HAL_Driver/Src/stm32h5xx_hal_rcc.c ****     assert_param(IS_RCC_HSI_CALIBRATION_VALUE(pOscInitStruct->HSICalibrationValue));
 602:Drivers/STM32H5xx_HAL_Driver/Src/stm32h5xx_hal_rcc.c **** 
ARM GAS  C:\Users\sapph\AppData\Local\Temp\ccD3KfzI.s 			page 18


 603:Drivers/STM32H5xx_HAL_Driver/Src/stm32h5xx_hal_rcc.c ****     /* Check if HSI is used as system clock or as PLL source when PLL is selected as system clock *
 604:Drivers/STM32H5xx_HAL_Driver/Src/stm32h5xx_hal_rcc.c ****     if ((temp_sysclksrc == RCC_SYSCLKSOURCE_STATUS_HSI) ||
 605:Drivers/STM32H5xx_HAL_Driver/Src/stm32h5xx_hal_rcc.c ****         ((temp_sysclksrc == RCC_SYSCLKSOURCE_STATUS_PLLCLK) && (temp_pllckselr == RCC_PLL1_SOURCE_H
 606:Drivers/STM32H5xx_HAL_Driver/Src/stm32h5xx_hal_rcc.c ****     {
 607:Drivers/STM32H5xx_HAL_Driver/Src/stm32h5xx_hal_rcc.c ****       /* When HSI is used as system clock it will not be disabled */
 608:Drivers/STM32H5xx_HAL_Driver/Src/stm32h5xx_hal_rcc.c ****       if (pOscInitStruct->HSIState == RCC_HSI_OFF)
 609:Drivers/STM32H5xx_HAL_Driver/Src/stm32h5xx_hal_rcc.c ****       {
 610:Drivers/STM32H5xx_HAL_Driver/Src/stm32h5xx_hal_rcc.c ****         return HAL_ERROR;
 611:Drivers/STM32H5xx_HAL_Driver/Src/stm32h5xx_hal_rcc.c ****       }
 612:Drivers/STM32H5xx_HAL_Driver/Src/stm32h5xx_hal_rcc.c ****       /* Otherwise, HSI calibration and division may be allowed */
 613:Drivers/STM32H5xx_HAL_Driver/Src/stm32h5xx_hal_rcc.c ****       else
 614:Drivers/STM32H5xx_HAL_Driver/Src/stm32h5xx_hal_rcc.c ****       {
 615:Drivers/STM32H5xx_HAL_Driver/Src/stm32h5xx_hal_rcc.c **** 
 616:Drivers/STM32H5xx_HAL_Driver/Src/stm32h5xx_hal_rcc.c ****         /* HSI division is allowed if HSI is used as system clock */
 617:Drivers/STM32H5xx_HAL_Driver/Src/stm32h5xx_hal_rcc.c ****         if (temp_sysclksrc == RCC_SYSCLKSOURCE_STATUS_HSI)
 618:Drivers/STM32H5xx_HAL_Driver/Src/stm32h5xx_hal_rcc.c ****         {
 619:Drivers/STM32H5xx_HAL_Driver/Src/stm32h5xx_hal_rcc.c ****           if (__HAL_RCC_GET_HSI_DIVIDER() != (pOscInitStruct->HSIDiv))
 620:Drivers/STM32H5xx_HAL_Driver/Src/stm32h5xx_hal_rcc.c ****           {
 621:Drivers/STM32H5xx_HAL_Driver/Src/stm32h5xx_hal_rcc.c ****             /* Adjust the HSI division factor */
 622:Drivers/STM32H5xx_HAL_Driver/Src/stm32h5xx_hal_rcc.c ****             __HAL_RCC_HSI_DIVIDER_CONFIG(pOscInitStruct->HSIDiv);
 623:Drivers/STM32H5xx_HAL_Driver/Src/stm32h5xx_hal_rcc.c **** 
 624:Drivers/STM32H5xx_HAL_Driver/Src/stm32h5xx_hal_rcc.c ****             /* Update the SystemCoreClock global variable with new HSI value  */
 625:Drivers/STM32H5xx_HAL_Driver/Src/stm32h5xx_hal_rcc.c ****             (void) HAL_RCC_GetHCLKFreq();
 626:Drivers/STM32H5xx_HAL_Driver/Src/stm32h5xx_hal_rcc.c **** 
 627:Drivers/STM32H5xx_HAL_Driver/Src/stm32h5xx_hal_rcc.c ****             /* Configure the source of time base considering new system clocks settings*/
 628:Drivers/STM32H5xx_HAL_Driver/Src/stm32h5xx_hal_rcc.c ****             if (HAL_InitTick(uwTickPrio) != HAL_OK)
 629:Drivers/STM32H5xx_HAL_Driver/Src/stm32h5xx_hal_rcc.c ****             {
 630:Drivers/STM32H5xx_HAL_Driver/Src/stm32h5xx_hal_rcc.c ****               return HAL_ERROR;
 631:Drivers/STM32H5xx_HAL_Driver/Src/stm32h5xx_hal_rcc.c ****             }
 632:Drivers/STM32H5xx_HAL_Driver/Src/stm32h5xx_hal_rcc.c ****           }
 633:Drivers/STM32H5xx_HAL_Driver/Src/stm32h5xx_hal_rcc.c ****         }
 634:Drivers/STM32H5xx_HAL_Driver/Src/stm32h5xx_hal_rcc.c **** 
 635:Drivers/STM32H5xx_HAL_Driver/Src/stm32h5xx_hal_rcc.c ****         /* Get Start Tick*/
 636:Drivers/STM32H5xx_HAL_Driver/Src/stm32h5xx_hal_rcc.c ****         tickstart = HAL_GetTick();
 637:Drivers/STM32H5xx_HAL_Driver/Src/stm32h5xx_hal_rcc.c **** 
 638:Drivers/STM32H5xx_HAL_Driver/Src/stm32h5xx_hal_rcc.c ****         /* Wait till HSI is ready */
 639:Drivers/STM32H5xx_HAL_Driver/Src/stm32h5xx_hal_rcc.c ****         while (READ_BIT(RCC->CR, RCC_CR_HSIRDY) == 0U)
 640:Drivers/STM32H5xx_HAL_Driver/Src/stm32h5xx_hal_rcc.c ****         {
 641:Drivers/STM32H5xx_HAL_Driver/Src/stm32h5xx_hal_rcc.c ****           if ((HAL_GetTick() - tickstart) > RCC_HSI_TIMEOUT_VALUE)
 642:Drivers/STM32H5xx_HAL_Driver/Src/stm32h5xx_hal_rcc.c ****           {
 643:Drivers/STM32H5xx_HAL_Driver/Src/stm32h5xx_hal_rcc.c ****             return HAL_TIMEOUT;
 644:Drivers/STM32H5xx_HAL_Driver/Src/stm32h5xx_hal_rcc.c ****           }
 645:Drivers/STM32H5xx_HAL_Driver/Src/stm32h5xx_hal_rcc.c ****         }
 646:Drivers/STM32H5xx_HAL_Driver/Src/stm32h5xx_hal_rcc.c ****         /* Adjusts the Internal High Speed oscillator (HSI) calibration value.*/
 647:Drivers/STM32H5xx_HAL_Driver/Src/stm32h5xx_hal_rcc.c ****         __HAL_RCC_HSI_CALIBRATIONVALUE_ADJUST(pOscInitStruct->HSICalibrationValue);
 648:Drivers/STM32H5xx_HAL_Driver/Src/stm32h5xx_hal_rcc.c ****       }
 649:Drivers/STM32H5xx_HAL_Driver/Src/stm32h5xx_hal_rcc.c ****     }
 650:Drivers/STM32H5xx_HAL_Driver/Src/stm32h5xx_hal_rcc.c ****     else
 651:Drivers/STM32H5xx_HAL_Driver/Src/stm32h5xx_hal_rcc.c ****     {
 652:Drivers/STM32H5xx_HAL_Driver/Src/stm32h5xx_hal_rcc.c ****       /* Check the HSI State */
 653:Drivers/STM32H5xx_HAL_Driver/Src/stm32h5xx_hal_rcc.c ****       if (pOscInitStruct->HSIState != RCC_HSI_OFF)
 654:Drivers/STM32H5xx_HAL_Driver/Src/stm32h5xx_hal_rcc.c ****       {
 655:Drivers/STM32H5xx_HAL_Driver/Src/stm32h5xx_hal_rcc.c ****         /* Adjust the HSI division factor */
 656:Drivers/STM32H5xx_HAL_Driver/Src/stm32h5xx_hal_rcc.c ****         __HAL_RCC_HSI_DIVIDER_CONFIG(pOscInitStruct->HSIDiv);
 657:Drivers/STM32H5xx_HAL_Driver/Src/stm32h5xx_hal_rcc.c **** 
 658:Drivers/STM32H5xx_HAL_Driver/Src/stm32h5xx_hal_rcc.c ****         /* Enable the HSI oscillator */
 659:Drivers/STM32H5xx_HAL_Driver/Src/stm32h5xx_hal_rcc.c ****         __HAL_RCC_HSI_ENABLE();
ARM GAS  C:\Users\sapph\AppData\Local\Temp\ccD3KfzI.s 			page 19


 660:Drivers/STM32H5xx_HAL_Driver/Src/stm32h5xx_hal_rcc.c **** 
 661:Drivers/STM32H5xx_HAL_Driver/Src/stm32h5xx_hal_rcc.c ****         /* Get Start Tick*/
 662:Drivers/STM32H5xx_HAL_Driver/Src/stm32h5xx_hal_rcc.c ****         tickstart = HAL_GetTick();
 663:Drivers/STM32H5xx_HAL_Driver/Src/stm32h5xx_hal_rcc.c **** 
 664:Drivers/STM32H5xx_HAL_Driver/Src/stm32h5xx_hal_rcc.c ****         /* Wait till HSI is ready */
 665:Drivers/STM32H5xx_HAL_Driver/Src/stm32h5xx_hal_rcc.c ****         while (READ_BIT(RCC->CR, RCC_CR_HSIRDY) == 0U)
 666:Drivers/STM32H5xx_HAL_Driver/Src/stm32h5xx_hal_rcc.c ****         {
 667:Drivers/STM32H5xx_HAL_Driver/Src/stm32h5xx_hal_rcc.c ****           if ((HAL_GetTick() - tickstart) > RCC_HSI_TIMEOUT_VALUE)
 668:Drivers/STM32H5xx_HAL_Driver/Src/stm32h5xx_hal_rcc.c ****           {
 669:Drivers/STM32H5xx_HAL_Driver/Src/stm32h5xx_hal_rcc.c ****             return HAL_TIMEOUT;
 670:Drivers/STM32H5xx_HAL_Driver/Src/stm32h5xx_hal_rcc.c ****           }
 671:Drivers/STM32H5xx_HAL_Driver/Src/stm32h5xx_hal_rcc.c ****         }
 672:Drivers/STM32H5xx_HAL_Driver/Src/stm32h5xx_hal_rcc.c **** 
 673:Drivers/STM32H5xx_HAL_Driver/Src/stm32h5xx_hal_rcc.c ****         /* Adjust the Internal High Speed oscillator (HSI) calibration value.*/
 674:Drivers/STM32H5xx_HAL_Driver/Src/stm32h5xx_hal_rcc.c ****         __HAL_RCC_HSI_CALIBRATIONVALUE_ADJUST(pOscInitStruct->HSICalibrationValue);
 675:Drivers/STM32H5xx_HAL_Driver/Src/stm32h5xx_hal_rcc.c ****       }
 676:Drivers/STM32H5xx_HAL_Driver/Src/stm32h5xx_hal_rcc.c ****       else
 677:Drivers/STM32H5xx_HAL_Driver/Src/stm32h5xx_hal_rcc.c ****       {
 678:Drivers/STM32H5xx_HAL_Driver/Src/stm32h5xx_hal_rcc.c ****         /* Disable the Internal High Speed oscillator (HSI). */
 679:Drivers/STM32H5xx_HAL_Driver/Src/stm32h5xx_hal_rcc.c ****         __HAL_RCC_HSI_DISABLE();
 680:Drivers/STM32H5xx_HAL_Driver/Src/stm32h5xx_hal_rcc.c **** 
 681:Drivers/STM32H5xx_HAL_Driver/Src/stm32h5xx_hal_rcc.c ****         /* Get Start Tick*/
 682:Drivers/STM32H5xx_HAL_Driver/Src/stm32h5xx_hal_rcc.c ****         tickstart = HAL_GetTick();
 683:Drivers/STM32H5xx_HAL_Driver/Src/stm32h5xx_hal_rcc.c **** 
 684:Drivers/STM32H5xx_HAL_Driver/Src/stm32h5xx_hal_rcc.c ****         /* Wait till HSI is disabled */
 685:Drivers/STM32H5xx_HAL_Driver/Src/stm32h5xx_hal_rcc.c ****         while (READ_BIT(RCC->CR, RCC_CR_HSIRDY) != 0U)
 686:Drivers/STM32H5xx_HAL_Driver/Src/stm32h5xx_hal_rcc.c ****         {
 687:Drivers/STM32H5xx_HAL_Driver/Src/stm32h5xx_hal_rcc.c ****           if ((HAL_GetTick() - tickstart) > RCC_HSI_TIMEOUT_VALUE)
 688:Drivers/STM32H5xx_HAL_Driver/Src/stm32h5xx_hal_rcc.c ****           {
 689:Drivers/STM32H5xx_HAL_Driver/Src/stm32h5xx_hal_rcc.c ****             return HAL_TIMEOUT;
 690:Drivers/STM32H5xx_HAL_Driver/Src/stm32h5xx_hal_rcc.c ****           }
 691:Drivers/STM32H5xx_HAL_Driver/Src/stm32h5xx_hal_rcc.c ****         }
 692:Drivers/STM32H5xx_HAL_Driver/Src/stm32h5xx_hal_rcc.c ****       }
 693:Drivers/STM32H5xx_HAL_Driver/Src/stm32h5xx_hal_rcc.c ****     }
 694:Drivers/STM32H5xx_HAL_Driver/Src/stm32h5xx_hal_rcc.c ****   }
 695:Drivers/STM32H5xx_HAL_Driver/Src/stm32h5xx_hal_rcc.c ****   /*------------------------------ LSI Configuration -------------------------*/
 696:Drivers/STM32H5xx_HAL_Driver/Src/stm32h5xx_hal_rcc.c ****   if (((pOscInitStruct->OscillatorType) & RCC_OSCILLATORTYPE_LSI) == RCC_OSCILLATORTYPE_LSI)
 697:Drivers/STM32H5xx_HAL_Driver/Src/stm32h5xx_hal_rcc.c ****   {
 698:Drivers/STM32H5xx_HAL_Driver/Src/stm32h5xx_hal_rcc.c **** 
 699:Drivers/STM32H5xx_HAL_Driver/Src/stm32h5xx_hal_rcc.c ****     /* Check the parameters */
 700:Drivers/STM32H5xx_HAL_Driver/Src/stm32h5xx_hal_rcc.c ****     assert_param(IS_RCC_LSI(pOscInitStruct->LSIState));
 701:Drivers/STM32H5xx_HAL_Driver/Src/stm32h5xx_hal_rcc.c **** 
 702:Drivers/STM32H5xx_HAL_Driver/Src/stm32h5xx_hal_rcc.c ****     /* Update LSI configuration in Backup Domain control register    */
 703:Drivers/STM32H5xx_HAL_Driver/Src/stm32h5xx_hal_rcc.c **** 
 704:Drivers/STM32H5xx_HAL_Driver/Src/stm32h5xx_hal_rcc.c ****     /* Check the LSI State */
 705:Drivers/STM32H5xx_HAL_Driver/Src/stm32h5xx_hal_rcc.c ****     if (pOscInitStruct->LSIState != RCC_LSI_OFF)
 706:Drivers/STM32H5xx_HAL_Driver/Src/stm32h5xx_hal_rcc.c ****     {
 707:Drivers/STM32H5xx_HAL_Driver/Src/stm32h5xx_hal_rcc.c ****       /* Enable the Internal Low Speed oscillator (LSI). */
 708:Drivers/STM32H5xx_HAL_Driver/Src/stm32h5xx_hal_rcc.c ****       __HAL_RCC_LSI_ENABLE();
 709:Drivers/STM32H5xx_HAL_Driver/Src/stm32h5xx_hal_rcc.c **** 
 710:Drivers/STM32H5xx_HAL_Driver/Src/stm32h5xx_hal_rcc.c ****       /* Get Start Tick*/
 711:Drivers/STM32H5xx_HAL_Driver/Src/stm32h5xx_hal_rcc.c ****       tickstart = HAL_GetTick();
 712:Drivers/STM32H5xx_HAL_Driver/Src/stm32h5xx_hal_rcc.c **** 
 713:Drivers/STM32H5xx_HAL_Driver/Src/stm32h5xx_hal_rcc.c ****       /* Wait till LSI is ready */
 714:Drivers/STM32H5xx_HAL_Driver/Src/stm32h5xx_hal_rcc.c ****       while (READ_BIT(RCC->BDCR, RCC_BDCR_LSIRDY) == 0U)
 715:Drivers/STM32H5xx_HAL_Driver/Src/stm32h5xx_hal_rcc.c ****       {
 716:Drivers/STM32H5xx_HAL_Driver/Src/stm32h5xx_hal_rcc.c ****         if ((HAL_GetTick() - tickstart) > RCC_LSI_TIMEOUT_VALUE)
ARM GAS  C:\Users\sapph\AppData\Local\Temp\ccD3KfzI.s 			page 20


 717:Drivers/STM32H5xx_HAL_Driver/Src/stm32h5xx_hal_rcc.c ****         {
 718:Drivers/STM32H5xx_HAL_Driver/Src/stm32h5xx_hal_rcc.c ****           return HAL_TIMEOUT;
 719:Drivers/STM32H5xx_HAL_Driver/Src/stm32h5xx_hal_rcc.c ****         }
 720:Drivers/STM32H5xx_HAL_Driver/Src/stm32h5xx_hal_rcc.c ****       }
 721:Drivers/STM32H5xx_HAL_Driver/Src/stm32h5xx_hal_rcc.c ****     }
 722:Drivers/STM32H5xx_HAL_Driver/Src/stm32h5xx_hal_rcc.c ****     else
 723:Drivers/STM32H5xx_HAL_Driver/Src/stm32h5xx_hal_rcc.c ****     {
 724:Drivers/STM32H5xx_HAL_Driver/Src/stm32h5xx_hal_rcc.c ****       /* Disable the Internal Low Speed oscillator (LSI). */
 725:Drivers/STM32H5xx_HAL_Driver/Src/stm32h5xx_hal_rcc.c ****       __HAL_RCC_LSI_DISABLE();
 726:Drivers/STM32H5xx_HAL_Driver/Src/stm32h5xx_hal_rcc.c **** 
 727:Drivers/STM32H5xx_HAL_Driver/Src/stm32h5xx_hal_rcc.c ****       /* Get Start Tick*/
 728:Drivers/STM32H5xx_HAL_Driver/Src/stm32h5xx_hal_rcc.c ****       tickstart = HAL_GetTick();
 729:Drivers/STM32H5xx_HAL_Driver/Src/stm32h5xx_hal_rcc.c **** 
 730:Drivers/STM32H5xx_HAL_Driver/Src/stm32h5xx_hal_rcc.c ****       /* Wait till LSI is disabled */
 731:Drivers/STM32H5xx_HAL_Driver/Src/stm32h5xx_hal_rcc.c ****       while (READ_BIT(RCC->BDCR, RCC_BDCR_LSIRDY) != 0U)
 732:Drivers/STM32H5xx_HAL_Driver/Src/stm32h5xx_hal_rcc.c ****       {
 733:Drivers/STM32H5xx_HAL_Driver/Src/stm32h5xx_hal_rcc.c ****         if ((HAL_GetTick() - tickstart) > RCC_LSI_TIMEOUT_VALUE)
 734:Drivers/STM32H5xx_HAL_Driver/Src/stm32h5xx_hal_rcc.c ****         {
 735:Drivers/STM32H5xx_HAL_Driver/Src/stm32h5xx_hal_rcc.c ****           return HAL_TIMEOUT;
 736:Drivers/STM32H5xx_HAL_Driver/Src/stm32h5xx_hal_rcc.c ****         }
 737:Drivers/STM32H5xx_HAL_Driver/Src/stm32h5xx_hal_rcc.c ****       }
 738:Drivers/STM32H5xx_HAL_Driver/Src/stm32h5xx_hal_rcc.c ****     }
 739:Drivers/STM32H5xx_HAL_Driver/Src/stm32h5xx_hal_rcc.c **** 
 740:Drivers/STM32H5xx_HAL_Driver/Src/stm32h5xx_hal_rcc.c ****   }
 741:Drivers/STM32H5xx_HAL_Driver/Src/stm32h5xx_hal_rcc.c ****   /*------------------------------ LSE Configuration -------------------------*/
 742:Drivers/STM32H5xx_HAL_Driver/Src/stm32h5xx_hal_rcc.c ****   if (((pOscInitStruct->OscillatorType) & RCC_OSCILLATORTYPE_LSE) == RCC_OSCILLATORTYPE_LSE)
 743:Drivers/STM32H5xx_HAL_Driver/Src/stm32h5xx_hal_rcc.c ****   {
 744:Drivers/STM32H5xx_HAL_Driver/Src/stm32h5xx_hal_rcc.c **** 
 745:Drivers/STM32H5xx_HAL_Driver/Src/stm32h5xx_hal_rcc.c ****     /* Check the parameters */
 746:Drivers/STM32H5xx_HAL_Driver/Src/stm32h5xx_hal_rcc.c ****     assert_param(IS_RCC_LSE(pOscInitStruct->LSEState));
 747:Drivers/STM32H5xx_HAL_Driver/Src/stm32h5xx_hal_rcc.c **** 
 748:Drivers/STM32H5xx_HAL_Driver/Src/stm32h5xx_hal_rcc.c ****     /* Update LSE configuration in Backup Domain control register    */
 749:Drivers/STM32H5xx_HAL_Driver/Src/stm32h5xx_hal_rcc.c ****     /* Requires to enable write access to Backup Domain */
 750:Drivers/STM32H5xx_HAL_Driver/Src/stm32h5xx_hal_rcc.c ****     if (HAL_IS_BIT_CLR(PWR->DBPCR, PWR_DBPCR_DBP))
 751:Drivers/STM32H5xx_HAL_Driver/Src/stm32h5xx_hal_rcc.c ****     {
 752:Drivers/STM32H5xx_HAL_Driver/Src/stm32h5xx_hal_rcc.c ****       /* Enable write access to Backup domain */
 753:Drivers/STM32H5xx_HAL_Driver/Src/stm32h5xx_hal_rcc.c ****       SET_BIT(PWR->DBPCR, PWR_DBPCR_DBP);
 754:Drivers/STM32H5xx_HAL_Driver/Src/stm32h5xx_hal_rcc.c **** 
 755:Drivers/STM32H5xx_HAL_Driver/Src/stm32h5xx_hal_rcc.c ****       /* Wait for Backup domain Write protection disable */
 756:Drivers/STM32H5xx_HAL_Driver/Src/stm32h5xx_hal_rcc.c ****       tickstart = HAL_GetTick();
 757:Drivers/STM32H5xx_HAL_Driver/Src/stm32h5xx_hal_rcc.c **** 
 758:Drivers/STM32H5xx_HAL_Driver/Src/stm32h5xx_hal_rcc.c ****       while (HAL_IS_BIT_CLR(PWR->DBPCR, PWR_DBPCR_DBP))
 759:Drivers/STM32H5xx_HAL_Driver/Src/stm32h5xx_hal_rcc.c ****       {
 760:Drivers/STM32H5xx_HAL_Driver/Src/stm32h5xx_hal_rcc.c ****         if ((HAL_GetTick() - tickstart) > RCC_DBP_TIMEOUT_VALUE)
 761:Drivers/STM32H5xx_HAL_Driver/Src/stm32h5xx_hal_rcc.c ****         {
 762:Drivers/STM32H5xx_HAL_Driver/Src/stm32h5xx_hal_rcc.c ****           return HAL_TIMEOUT;
 763:Drivers/STM32H5xx_HAL_Driver/Src/stm32h5xx_hal_rcc.c ****         }
 764:Drivers/STM32H5xx_HAL_Driver/Src/stm32h5xx_hal_rcc.c ****       }
 765:Drivers/STM32H5xx_HAL_Driver/Src/stm32h5xx_hal_rcc.c ****     }
 766:Drivers/STM32H5xx_HAL_Driver/Src/stm32h5xx_hal_rcc.c **** 
 767:Drivers/STM32H5xx_HAL_Driver/Src/stm32h5xx_hal_rcc.c ****     /* Set the new LSE configuration -----------------------------------------*/
 768:Drivers/STM32H5xx_HAL_Driver/Src/stm32h5xx_hal_rcc.c ****     __HAL_RCC_LSE_CONFIG(pOscInitStruct->LSEState);
 769:Drivers/STM32H5xx_HAL_Driver/Src/stm32h5xx_hal_rcc.c **** 
 770:Drivers/STM32H5xx_HAL_Driver/Src/stm32h5xx_hal_rcc.c ****     /* Check the LSE State */
 771:Drivers/STM32H5xx_HAL_Driver/Src/stm32h5xx_hal_rcc.c ****     if (pOscInitStruct->LSEState != RCC_LSE_OFF)
 772:Drivers/STM32H5xx_HAL_Driver/Src/stm32h5xx_hal_rcc.c ****     {
 773:Drivers/STM32H5xx_HAL_Driver/Src/stm32h5xx_hal_rcc.c ****       /* Get Start Tick*/
ARM GAS  C:\Users\sapph\AppData\Local\Temp\ccD3KfzI.s 			page 21


 774:Drivers/STM32H5xx_HAL_Driver/Src/stm32h5xx_hal_rcc.c ****       tickstart = HAL_GetTick();
 775:Drivers/STM32H5xx_HAL_Driver/Src/stm32h5xx_hal_rcc.c **** 
 776:Drivers/STM32H5xx_HAL_Driver/Src/stm32h5xx_hal_rcc.c ****       /* Wait till LSE is ready */
 777:Drivers/STM32H5xx_HAL_Driver/Src/stm32h5xx_hal_rcc.c ****       while (READ_BIT(RCC->BDCR, RCC_BDCR_LSERDY) == 0U)
 778:Drivers/STM32H5xx_HAL_Driver/Src/stm32h5xx_hal_rcc.c ****       {
 779:Drivers/STM32H5xx_HAL_Driver/Src/stm32h5xx_hal_rcc.c ****         if ((HAL_GetTick() - tickstart) > RCC_LSE_TIMEOUT_VALUE)
 780:Drivers/STM32H5xx_HAL_Driver/Src/stm32h5xx_hal_rcc.c ****         {
 781:Drivers/STM32H5xx_HAL_Driver/Src/stm32h5xx_hal_rcc.c ****           return HAL_TIMEOUT;
 782:Drivers/STM32H5xx_HAL_Driver/Src/stm32h5xx_hal_rcc.c ****         }
 783:Drivers/STM32H5xx_HAL_Driver/Src/stm32h5xx_hal_rcc.c ****       }
 784:Drivers/STM32H5xx_HAL_Driver/Src/stm32h5xx_hal_rcc.c ****     }
 785:Drivers/STM32H5xx_HAL_Driver/Src/stm32h5xx_hal_rcc.c ****     else
 786:Drivers/STM32H5xx_HAL_Driver/Src/stm32h5xx_hal_rcc.c ****     {
 787:Drivers/STM32H5xx_HAL_Driver/Src/stm32h5xx_hal_rcc.c ****       /* Get Start Tick*/
 788:Drivers/STM32H5xx_HAL_Driver/Src/stm32h5xx_hal_rcc.c ****       tickstart = HAL_GetTick();
 789:Drivers/STM32H5xx_HAL_Driver/Src/stm32h5xx_hal_rcc.c **** 
 790:Drivers/STM32H5xx_HAL_Driver/Src/stm32h5xx_hal_rcc.c ****       /* Wait till LSE is disabled */
 791:Drivers/STM32H5xx_HAL_Driver/Src/stm32h5xx_hal_rcc.c ****       while (READ_BIT(RCC->BDCR, RCC_BDCR_LSERDY) != 0U)
 792:Drivers/STM32H5xx_HAL_Driver/Src/stm32h5xx_hal_rcc.c ****       {
 793:Drivers/STM32H5xx_HAL_Driver/Src/stm32h5xx_hal_rcc.c ****         if ((HAL_GetTick() - tickstart) > RCC_LSE_TIMEOUT_VALUE)
 794:Drivers/STM32H5xx_HAL_Driver/Src/stm32h5xx_hal_rcc.c ****         {
 795:Drivers/STM32H5xx_HAL_Driver/Src/stm32h5xx_hal_rcc.c ****           return HAL_TIMEOUT;
 796:Drivers/STM32H5xx_HAL_Driver/Src/stm32h5xx_hal_rcc.c ****         }
 797:Drivers/STM32H5xx_HAL_Driver/Src/stm32h5xx_hal_rcc.c ****       }
 798:Drivers/STM32H5xx_HAL_Driver/Src/stm32h5xx_hal_rcc.c ****     }
 799:Drivers/STM32H5xx_HAL_Driver/Src/stm32h5xx_hal_rcc.c **** 
 800:Drivers/STM32H5xx_HAL_Driver/Src/stm32h5xx_hal_rcc.c ****   }
 801:Drivers/STM32H5xx_HAL_Driver/Src/stm32h5xx_hal_rcc.c ****   /*------------------------------ HSI48 Configuration -----------------------*/
 802:Drivers/STM32H5xx_HAL_Driver/Src/stm32h5xx_hal_rcc.c ****   if (((pOscInitStruct->OscillatorType) & RCC_OSCILLATORTYPE_HSI48) == RCC_OSCILLATORTYPE_HSI48)
 803:Drivers/STM32H5xx_HAL_Driver/Src/stm32h5xx_hal_rcc.c ****   {
 804:Drivers/STM32H5xx_HAL_Driver/Src/stm32h5xx_hal_rcc.c ****     /* Check the parameters */
 805:Drivers/STM32H5xx_HAL_Driver/Src/stm32h5xx_hal_rcc.c ****     assert_param(IS_RCC_HSI48(pOscInitStruct->HSI48State));
 806:Drivers/STM32H5xx_HAL_Driver/Src/stm32h5xx_hal_rcc.c **** 
 807:Drivers/STM32H5xx_HAL_Driver/Src/stm32h5xx_hal_rcc.c ****     /* Check the HSI48 State */
 808:Drivers/STM32H5xx_HAL_Driver/Src/stm32h5xx_hal_rcc.c ****     if (pOscInitStruct->HSI48State != RCC_HSI48_OFF)
 809:Drivers/STM32H5xx_HAL_Driver/Src/stm32h5xx_hal_rcc.c ****     {
 810:Drivers/STM32H5xx_HAL_Driver/Src/stm32h5xx_hal_rcc.c ****       /* Enable the Internal High Speed oscillator (HSI48). */
 811:Drivers/STM32H5xx_HAL_Driver/Src/stm32h5xx_hal_rcc.c ****       __HAL_RCC_HSI48_ENABLE();
 812:Drivers/STM32H5xx_HAL_Driver/Src/stm32h5xx_hal_rcc.c **** 
 813:Drivers/STM32H5xx_HAL_Driver/Src/stm32h5xx_hal_rcc.c ****       /* Get Start Tick*/
 814:Drivers/STM32H5xx_HAL_Driver/Src/stm32h5xx_hal_rcc.c ****       tickstart = HAL_GetTick();
 815:Drivers/STM32H5xx_HAL_Driver/Src/stm32h5xx_hal_rcc.c **** 
 816:Drivers/STM32H5xx_HAL_Driver/Src/stm32h5xx_hal_rcc.c ****       /* Wait till HSI48 is ready */
 817:Drivers/STM32H5xx_HAL_Driver/Src/stm32h5xx_hal_rcc.c ****       while (READ_BIT(RCC->CR, RCC_CR_HSI48RDY) == 0U)
 818:Drivers/STM32H5xx_HAL_Driver/Src/stm32h5xx_hal_rcc.c ****       {
 819:Drivers/STM32H5xx_HAL_Driver/Src/stm32h5xx_hal_rcc.c ****         if ((HAL_GetTick() - tickstart) > RCC_HSI48_TIMEOUT_VALUE)
 820:Drivers/STM32H5xx_HAL_Driver/Src/stm32h5xx_hal_rcc.c ****         {
 821:Drivers/STM32H5xx_HAL_Driver/Src/stm32h5xx_hal_rcc.c ****           return HAL_TIMEOUT;
 822:Drivers/STM32H5xx_HAL_Driver/Src/stm32h5xx_hal_rcc.c ****         }
 823:Drivers/STM32H5xx_HAL_Driver/Src/stm32h5xx_hal_rcc.c ****       }
 824:Drivers/STM32H5xx_HAL_Driver/Src/stm32h5xx_hal_rcc.c ****     }
 825:Drivers/STM32H5xx_HAL_Driver/Src/stm32h5xx_hal_rcc.c ****     else
 826:Drivers/STM32H5xx_HAL_Driver/Src/stm32h5xx_hal_rcc.c ****     {
 827:Drivers/STM32H5xx_HAL_Driver/Src/stm32h5xx_hal_rcc.c ****       /* Disable the Internal High Speed oscillator (HSI48). */
 828:Drivers/STM32H5xx_HAL_Driver/Src/stm32h5xx_hal_rcc.c ****       __HAL_RCC_HSI48_DISABLE();
 829:Drivers/STM32H5xx_HAL_Driver/Src/stm32h5xx_hal_rcc.c **** 
 830:Drivers/STM32H5xx_HAL_Driver/Src/stm32h5xx_hal_rcc.c ****       /* Get Start Tick*/
ARM GAS  C:\Users\sapph\AppData\Local\Temp\ccD3KfzI.s 			page 22


 831:Drivers/STM32H5xx_HAL_Driver/Src/stm32h5xx_hal_rcc.c ****       tickstart = HAL_GetTick();
 832:Drivers/STM32H5xx_HAL_Driver/Src/stm32h5xx_hal_rcc.c **** 
 833:Drivers/STM32H5xx_HAL_Driver/Src/stm32h5xx_hal_rcc.c ****       /* Wait till HSI48 is disabled */
 834:Drivers/STM32H5xx_HAL_Driver/Src/stm32h5xx_hal_rcc.c ****       while (READ_BIT(RCC->CR, RCC_CR_HSI48RDY) != 0U)
 835:Drivers/STM32H5xx_HAL_Driver/Src/stm32h5xx_hal_rcc.c ****       {
 836:Drivers/STM32H5xx_HAL_Driver/Src/stm32h5xx_hal_rcc.c ****         if ((HAL_GetTick() - tickstart) > RCC_HSI48_TIMEOUT_VALUE)
 837:Drivers/STM32H5xx_HAL_Driver/Src/stm32h5xx_hal_rcc.c ****         {
 838:Drivers/STM32H5xx_HAL_Driver/Src/stm32h5xx_hal_rcc.c ****           return HAL_TIMEOUT;
 839:Drivers/STM32H5xx_HAL_Driver/Src/stm32h5xx_hal_rcc.c ****         }
 840:Drivers/STM32H5xx_HAL_Driver/Src/stm32h5xx_hal_rcc.c ****       }
 841:Drivers/STM32H5xx_HAL_Driver/Src/stm32h5xx_hal_rcc.c ****     }
 842:Drivers/STM32H5xx_HAL_Driver/Src/stm32h5xx_hal_rcc.c ****   }
 843:Drivers/STM32H5xx_HAL_Driver/Src/stm32h5xx_hal_rcc.c **** 
 844:Drivers/STM32H5xx_HAL_Driver/Src/stm32h5xx_hal_rcc.c ****   /*-------------------------------- PLL1 Configuration -----------------------*/
 845:Drivers/STM32H5xx_HAL_Driver/Src/stm32h5xx_hal_rcc.c ****   /* Check the parameters */
 846:Drivers/STM32H5xx_HAL_Driver/Src/stm32h5xx_hal_rcc.c ****   assert_param(IS_RCC_PLL(pOscInitStruct->PLL.PLLState));
 847:Drivers/STM32H5xx_HAL_Driver/Src/stm32h5xx_hal_rcc.c **** 
 848:Drivers/STM32H5xx_HAL_Driver/Src/stm32h5xx_hal_rcc.c ****   if ((pOscInitStruct->PLL.PLLState) != RCC_PLL_NONE)
 849:Drivers/STM32H5xx_HAL_Driver/Src/stm32h5xx_hal_rcc.c ****   {
 850:Drivers/STM32H5xx_HAL_Driver/Src/stm32h5xx_hal_rcc.c ****     /* Check if the PLL1 is used as system clock or not */
 851:Drivers/STM32H5xx_HAL_Driver/Src/stm32h5xx_hal_rcc.c ****     if (temp_sysclksrc != RCC_SYSCLKSOURCE_STATUS_PLLCLK)
 852:Drivers/STM32H5xx_HAL_Driver/Src/stm32h5xx_hal_rcc.c ****     {
 853:Drivers/STM32H5xx_HAL_Driver/Src/stm32h5xx_hal_rcc.c ****       if ((pOscInitStruct->PLL.PLLState) == RCC_PLL_ON)
 854:Drivers/STM32H5xx_HAL_Driver/Src/stm32h5xx_hal_rcc.c ****       {
 855:Drivers/STM32H5xx_HAL_Driver/Src/stm32h5xx_hal_rcc.c ****         /* Check the parameters */
 856:Drivers/STM32H5xx_HAL_Driver/Src/stm32h5xx_hal_rcc.c ****         assert_param(IS_RCC_PLL1_SOURCE(pOscInitStruct->PLL.PLLSource));
 857:Drivers/STM32H5xx_HAL_Driver/Src/stm32h5xx_hal_rcc.c ****         assert_param(IS_RCC_PLL1_DIVM_VALUE(pOscInitStruct->PLL.PLLM));
 858:Drivers/STM32H5xx_HAL_Driver/Src/stm32h5xx_hal_rcc.c ****         assert_param(IS_RCC_PLL1_MULN_VALUE(pOscInitStruct->PLL.PLLN));
 859:Drivers/STM32H5xx_HAL_Driver/Src/stm32h5xx_hal_rcc.c ****         assert_param(IS_RCC_PLL1_DIVP_VALUE(pOscInitStruct->PLL.PLLP));
 860:Drivers/STM32H5xx_HAL_Driver/Src/stm32h5xx_hal_rcc.c ****         assert_param(IS_RCC_PLL1_DIVQ_VALUE(pOscInitStruct->PLL.PLLQ));
 861:Drivers/STM32H5xx_HAL_Driver/Src/stm32h5xx_hal_rcc.c ****         assert_param(IS_RCC_PLL1_DIVR_VALUE(pOscInitStruct->PLL.PLLR));
 862:Drivers/STM32H5xx_HAL_Driver/Src/stm32h5xx_hal_rcc.c **** 
 863:Drivers/STM32H5xx_HAL_Driver/Src/stm32h5xx_hal_rcc.c ****         /* Disable the PLL1. */
 864:Drivers/STM32H5xx_HAL_Driver/Src/stm32h5xx_hal_rcc.c ****         __HAL_RCC_PLL1_DISABLE();
 865:Drivers/STM32H5xx_HAL_Driver/Src/stm32h5xx_hal_rcc.c **** 
 866:Drivers/STM32H5xx_HAL_Driver/Src/stm32h5xx_hal_rcc.c ****         /* Get Start Tick*/
 867:Drivers/STM32H5xx_HAL_Driver/Src/stm32h5xx_hal_rcc.c ****         tickstart = HAL_GetTick();
 868:Drivers/STM32H5xx_HAL_Driver/Src/stm32h5xx_hal_rcc.c **** 
 869:Drivers/STM32H5xx_HAL_Driver/Src/stm32h5xx_hal_rcc.c ****         /* Wait till PLL1 is disabled */
 870:Drivers/STM32H5xx_HAL_Driver/Src/stm32h5xx_hal_rcc.c ****         while (READ_BIT(RCC->CR, RCC_CR_PLL1RDY) != 0U)
 871:Drivers/STM32H5xx_HAL_Driver/Src/stm32h5xx_hal_rcc.c ****         {
 872:Drivers/STM32H5xx_HAL_Driver/Src/stm32h5xx_hal_rcc.c ****           if ((HAL_GetTick() - tickstart) > RCC_PLL_TIMEOUT_VALUE)
 873:Drivers/STM32H5xx_HAL_Driver/Src/stm32h5xx_hal_rcc.c ****           {
 874:Drivers/STM32H5xx_HAL_Driver/Src/stm32h5xx_hal_rcc.c ****             return HAL_TIMEOUT;
 875:Drivers/STM32H5xx_HAL_Driver/Src/stm32h5xx_hal_rcc.c ****           }
 876:Drivers/STM32H5xx_HAL_Driver/Src/stm32h5xx_hal_rcc.c ****         }
 877:Drivers/STM32H5xx_HAL_Driver/Src/stm32h5xx_hal_rcc.c **** 
 878:Drivers/STM32H5xx_HAL_Driver/Src/stm32h5xx_hal_rcc.c ****         /* Configure the PLL1 clock source, multiplication and division factors. */
 879:Drivers/STM32H5xx_HAL_Driver/Src/stm32h5xx_hal_rcc.c ****         __HAL_RCC_PLL1_CONFIG(pOscInitStruct->PLL.PLLSource,
 880:Drivers/STM32H5xx_HAL_Driver/Src/stm32h5xx_hal_rcc.c ****                               pOscInitStruct->PLL.PLLM,
 881:Drivers/STM32H5xx_HAL_Driver/Src/stm32h5xx_hal_rcc.c ****                               pOscInitStruct->PLL.PLLN,
 882:Drivers/STM32H5xx_HAL_Driver/Src/stm32h5xx_hal_rcc.c ****                               pOscInitStruct->PLL.PLLP,
 883:Drivers/STM32H5xx_HAL_Driver/Src/stm32h5xx_hal_rcc.c ****                               pOscInitStruct->PLL.PLLQ,
 884:Drivers/STM32H5xx_HAL_Driver/Src/stm32h5xx_hal_rcc.c ****                               pOscInitStruct->PLL.PLLR);
 885:Drivers/STM32H5xx_HAL_Driver/Src/stm32h5xx_hal_rcc.c **** 
 886:Drivers/STM32H5xx_HAL_Driver/Src/stm32h5xx_hal_rcc.c ****         assert_param(IS_RCC_PLL1_FRACN_VALUE(pOscInitStruct->PLL.PLLFRACN));
 887:Drivers/STM32H5xx_HAL_Driver/Src/stm32h5xx_hal_rcc.c **** 
ARM GAS  C:\Users\sapph\AppData\Local\Temp\ccD3KfzI.s 			page 23


 888:Drivers/STM32H5xx_HAL_Driver/Src/stm32h5xx_hal_rcc.c ****         /* Disable PLL1FRACN . */
 889:Drivers/STM32H5xx_HAL_Driver/Src/stm32h5xx_hal_rcc.c ****         __HAL_RCC_PLL1_FRACN_DISABLE();
 890:Drivers/STM32H5xx_HAL_Driver/Src/stm32h5xx_hal_rcc.c **** 
 891:Drivers/STM32H5xx_HAL_Driver/Src/stm32h5xx_hal_rcc.c ****         /* Configure PLL  PLL1FRACN */
 892:Drivers/STM32H5xx_HAL_Driver/Src/stm32h5xx_hal_rcc.c ****         __HAL_RCC_PLL1_FRACN_CONFIG(pOscInitStruct->PLL.PLLFRACN);
 893:Drivers/STM32H5xx_HAL_Driver/Src/stm32h5xx_hal_rcc.c **** 
 894:Drivers/STM32H5xx_HAL_Driver/Src/stm32h5xx_hal_rcc.c ****         /* Enable PLL1FRACN . */
 895:Drivers/STM32H5xx_HAL_Driver/Src/stm32h5xx_hal_rcc.c ****         __HAL_RCC_PLL1_FRACN_ENABLE();
 896:Drivers/STM32H5xx_HAL_Driver/Src/stm32h5xx_hal_rcc.c **** 
 897:Drivers/STM32H5xx_HAL_Driver/Src/stm32h5xx_hal_rcc.c ****         assert_param(IS_RCC_PLL1_VCIRGE_VALUE(pOscInitStruct->PLL.PLLRGE));
 898:Drivers/STM32H5xx_HAL_Driver/Src/stm32h5xx_hal_rcc.c **** 
 899:Drivers/STM32H5xx_HAL_Driver/Src/stm32h5xx_hal_rcc.c ****         /* Select PLL1 input reference frequency range: VCI */
 900:Drivers/STM32H5xx_HAL_Driver/Src/stm32h5xx_hal_rcc.c ****         __HAL_RCC_PLL1_VCIRANGE(pOscInitStruct->PLL.PLLRGE) ;
 901:Drivers/STM32H5xx_HAL_Driver/Src/stm32h5xx_hal_rcc.c **** 
 902:Drivers/STM32H5xx_HAL_Driver/Src/stm32h5xx_hal_rcc.c ****         assert_param(IS_RCC_PLL1_VCORGE_VALUE(pOscInitStruct->PLL.PLLVCOSEL));
 903:Drivers/STM32H5xx_HAL_Driver/Src/stm32h5xx_hal_rcc.c **** 
 904:Drivers/STM32H5xx_HAL_Driver/Src/stm32h5xx_hal_rcc.c ****         /* Select PLL1 output frequency range : VCO */
 905:Drivers/STM32H5xx_HAL_Driver/Src/stm32h5xx_hal_rcc.c ****         __HAL_RCC_PLL1_VCORANGE(pOscInitStruct->PLL.PLLVCOSEL) ;
 906:Drivers/STM32H5xx_HAL_Driver/Src/stm32h5xx_hal_rcc.c **** 
 907:Drivers/STM32H5xx_HAL_Driver/Src/stm32h5xx_hal_rcc.c ****         /* Enable PLL1 System Clock output. */
 908:Drivers/STM32H5xx_HAL_Driver/Src/stm32h5xx_hal_rcc.c ****         __HAL_RCC_PLL1_CLKOUT_ENABLE(RCC_PLL1_DIVP);
 909:Drivers/STM32H5xx_HAL_Driver/Src/stm32h5xx_hal_rcc.c **** 
 910:Drivers/STM32H5xx_HAL_Driver/Src/stm32h5xx_hal_rcc.c ****         /* Enable the PLL1. */
 911:Drivers/STM32H5xx_HAL_Driver/Src/stm32h5xx_hal_rcc.c ****         __HAL_RCC_PLL1_ENABLE();
 912:Drivers/STM32H5xx_HAL_Driver/Src/stm32h5xx_hal_rcc.c **** 
 913:Drivers/STM32H5xx_HAL_Driver/Src/stm32h5xx_hal_rcc.c ****         /* Get Start Tick*/
 914:Drivers/STM32H5xx_HAL_Driver/Src/stm32h5xx_hal_rcc.c ****         tickstart = HAL_GetTick();
 915:Drivers/STM32H5xx_HAL_Driver/Src/stm32h5xx_hal_rcc.c **** 
 916:Drivers/STM32H5xx_HAL_Driver/Src/stm32h5xx_hal_rcc.c ****         /* Wait till PLL1 is ready */
 917:Drivers/STM32H5xx_HAL_Driver/Src/stm32h5xx_hal_rcc.c ****         while (READ_BIT(RCC->CR, RCC_CR_PLL1RDY) == 0U)
 918:Drivers/STM32H5xx_HAL_Driver/Src/stm32h5xx_hal_rcc.c ****         {
 919:Drivers/STM32H5xx_HAL_Driver/Src/stm32h5xx_hal_rcc.c ****           if ((HAL_GetTick() - tickstart) > RCC_PLL_TIMEOUT_VALUE)
 920:Drivers/STM32H5xx_HAL_Driver/Src/stm32h5xx_hal_rcc.c ****           {
 921:Drivers/STM32H5xx_HAL_Driver/Src/stm32h5xx_hal_rcc.c ****             return HAL_TIMEOUT;
 922:Drivers/STM32H5xx_HAL_Driver/Src/stm32h5xx_hal_rcc.c ****           }
 923:Drivers/STM32H5xx_HAL_Driver/Src/stm32h5xx_hal_rcc.c ****         }
 924:Drivers/STM32H5xx_HAL_Driver/Src/stm32h5xx_hal_rcc.c ****       }
 925:Drivers/STM32H5xx_HAL_Driver/Src/stm32h5xx_hal_rcc.c ****       else
 926:Drivers/STM32H5xx_HAL_Driver/Src/stm32h5xx_hal_rcc.c ****       {
 927:Drivers/STM32H5xx_HAL_Driver/Src/stm32h5xx_hal_rcc.c ****         /* Disable the PLL1. */
 928:Drivers/STM32H5xx_HAL_Driver/Src/stm32h5xx_hal_rcc.c ****         __HAL_RCC_PLL1_DISABLE();
 929:Drivers/STM32H5xx_HAL_Driver/Src/stm32h5xx_hal_rcc.c **** 
 930:Drivers/STM32H5xx_HAL_Driver/Src/stm32h5xx_hal_rcc.c ****         /* Get Start Tick*/
 931:Drivers/STM32H5xx_HAL_Driver/Src/stm32h5xx_hal_rcc.c ****         tickstart = HAL_GetTick();
 932:Drivers/STM32H5xx_HAL_Driver/Src/stm32h5xx_hal_rcc.c **** 
 933:Drivers/STM32H5xx_HAL_Driver/Src/stm32h5xx_hal_rcc.c ****         /* Wait till PLL1 is disabled */
 934:Drivers/STM32H5xx_HAL_Driver/Src/stm32h5xx_hal_rcc.c ****         while (READ_BIT(RCC->CR, RCC_CR_PLL1RDY) != 0U)
 935:Drivers/STM32H5xx_HAL_Driver/Src/stm32h5xx_hal_rcc.c ****         {
 936:Drivers/STM32H5xx_HAL_Driver/Src/stm32h5xx_hal_rcc.c ****           if ((HAL_GetTick() - tickstart) > RCC_PLL_TIMEOUT_VALUE)
 937:Drivers/STM32H5xx_HAL_Driver/Src/stm32h5xx_hal_rcc.c ****           {
 938:Drivers/STM32H5xx_HAL_Driver/Src/stm32h5xx_hal_rcc.c ****             return HAL_TIMEOUT;
 939:Drivers/STM32H5xx_HAL_Driver/Src/stm32h5xx_hal_rcc.c ****           }
 940:Drivers/STM32H5xx_HAL_Driver/Src/stm32h5xx_hal_rcc.c ****         }
 941:Drivers/STM32H5xx_HAL_Driver/Src/stm32h5xx_hal_rcc.c **** 
 942:Drivers/STM32H5xx_HAL_Driver/Src/stm32h5xx_hal_rcc.c ****         /* Unselect PLL1 clock source and disable all PLL1 outputs to save power */
 943:Drivers/STM32H5xx_HAL_Driver/Src/stm32h5xx_hal_rcc.c ****         RCC->PLL1CFGR &= ~(RCC_PLL1CFGR_PLL1SRC | RCC_PLL1CFGR_PLL1PEN | RCC_PLL1CFGR_PLL1QEN | RCC
 944:Drivers/STM32H5xx_HAL_Driver/Src/stm32h5xx_hal_rcc.c **** 
ARM GAS  C:\Users\sapph\AppData\Local\Temp\ccD3KfzI.s 			page 24


 945:Drivers/STM32H5xx_HAL_Driver/Src/stm32h5xx_hal_rcc.c ****       }
 946:Drivers/STM32H5xx_HAL_Driver/Src/stm32h5xx_hal_rcc.c ****     }
 947:Drivers/STM32H5xx_HAL_Driver/Src/stm32h5xx_hal_rcc.c ****     else
 948:Drivers/STM32H5xx_HAL_Driver/Src/stm32h5xx_hal_rcc.c ****     {
 949:Drivers/STM32H5xx_HAL_Driver/Src/stm32h5xx_hal_rcc.c ****       /* Do not return HAL_ERROR if request repeats the current configuration */
 950:Drivers/STM32H5xx_HAL_Driver/Src/stm32h5xx_hal_rcc.c ****       temp1_pllckcfg = RCC->PLL1CFGR;
 951:Drivers/STM32H5xx_HAL_Driver/Src/stm32h5xx_hal_rcc.c ****       temp2_pllckcfg = RCC->PLL1DIVR;
 952:Drivers/STM32H5xx_HAL_Driver/Src/stm32h5xx_hal_rcc.c ****       if (((pOscInitStruct->PLL.PLLState) == RCC_PLL_OFF) ||
 953:Drivers/STM32H5xx_HAL_Driver/Src/stm32h5xx_hal_rcc.c ****           (READ_BIT(temp1_pllckcfg, RCC_PLL1CFGR_PLL1SRC) != pOscInitStruct->PLL.PLLSource) ||
 954:Drivers/STM32H5xx_HAL_Driver/Src/stm32h5xx_hal_rcc.c ****           ((READ_BIT(temp1_pllckcfg, RCC_PLL1CFGR_PLL1M) >> \
 955:Drivers/STM32H5xx_HAL_Driver/Src/stm32h5xx_hal_rcc.c ****             RCC_PLL1CFGR_PLL1M_Pos) != (pOscInitStruct->PLL.PLLM)) ||
 956:Drivers/STM32H5xx_HAL_Driver/Src/stm32h5xx_hal_rcc.c ****           (READ_BIT(temp2_pllckcfg, RCC_PLL1DIVR_PLL1N) != (pOscInitStruct->PLL.PLLN - 1U)) ||
 957:Drivers/STM32H5xx_HAL_Driver/Src/stm32h5xx_hal_rcc.c ****           ((READ_BIT(temp2_pllckcfg, RCC_PLL1DIVR_PLL1P) >> \
 958:Drivers/STM32H5xx_HAL_Driver/Src/stm32h5xx_hal_rcc.c ****             RCC_PLL1DIVR_PLL1P_Pos) != (pOscInitStruct->PLL.PLLP - 1U)) ||
 959:Drivers/STM32H5xx_HAL_Driver/Src/stm32h5xx_hal_rcc.c ****           ((READ_BIT(temp2_pllckcfg, RCC_PLL1DIVR_PLL1Q) >> \
 960:Drivers/STM32H5xx_HAL_Driver/Src/stm32h5xx_hal_rcc.c ****             RCC_PLL1DIVR_PLL1Q_Pos) != (pOscInitStruct->PLL.PLLQ - 1U)) ||
 961:Drivers/STM32H5xx_HAL_Driver/Src/stm32h5xx_hal_rcc.c ****           ((READ_BIT(temp2_pllckcfg, RCC_PLL1DIVR_PLL1R) >> \
 962:Drivers/STM32H5xx_HAL_Driver/Src/stm32h5xx_hal_rcc.c ****             RCC_PLL1DIVR_PLL1R_Pos) != (pOscInitStruct->PLL.PLLR - 1U)))
 963:Drivers/STM32H5xx_HAL_Driver/Src/stm32h5xx_hal_rcc.c ****       {
 964:Drivers/STM32H5xx_HAL_Driver/Src/stm32h5xx_hal_rcc.c ****         return HAL_ERROR;
 965:Drivers/STM32H5xx_HAL_Driver/Src/stm32h5xx_hal_rcc.c ****       }
 966:Drivers/STM32H5xx_HAL_Driver/Src/stm32h5xx_hal_rcc.c **** 
 967:Drivers/STM32H5xx_HAL_Driver/Src/stm32h5xx_hal_rcc.c ****       /* FRACN1 on-the-fly value update */
 968:Drivers/STM32H5xx_HAL_Driver/Src/stm32h5xx_hal_rcc.c ****       if ((READ_BIT(RCC->PLL1FRACR, RCC_PLL1FRACR_PLL1FRACN) >> \
 969:Drivers/STM32H5xx_HAL_Driver/Src/stm32h5xx_hal_rcc.c ****            RCC_PLL1FRACR_PLL1FRACN_Pos) != (pOscInitStruct->PLL.PLLFRACN))
 970:Drivers/STM32H5xx_HAL_Driver/Src/stm32h5xx_hal_rcc.c ****       {
 971:Drivers/STM32H5xx_HAL_Driver/Src/stm32h5xx_hal_rcc.c ****         assert_param(IS_RCC_PLL1_FRACN_VALUE(pOscInitStruct->PLL.PLLFRACN));
 972:Drivers/STM32H5xx_HAL_Driver/Src/stm32h5xx_hal_rcc.c **** 
 973:Drivers/STM32H5xx_HAL_Driver/Src/stm32h5xx_hal_rcc.c ****         /* Disable PLL1FRACN . */
 974:Drivers/STM32H5xx_HAL_Driver/Src/stm32h5xx_hal_rcc.c ****         __HAL_RCC_PLL1_FRACN_DISABLE();
 975:Drivers/STM32H5xx_HAL_Driver/Src/stm32h5xx_hal_rcc.c **** 
 976:Drivers/STM32H5xx_HAL_Driver/Src/stm32h5xx_hal_rcc.c ****         /* Get Start Tick*/
 977:Drivers/STM32H5xx_HAL_Driver/Src/stm32h5xx_hal_rcc.c ****         tickstart = HAL_GetTick();
 978:Drivers/STM32H5xx_HAL_Driver/Src/stm32h5xx_hal_rcc.c **** 
 979:Drivers/STM32H5xx_HAL_Driver/Src/stm32h5xx_hal_rcc.c ****         /* Wait at least 2 CK_REF (PLL input source divided by M) period to make sure next latched 
 980:Drivers/STM32H5xx_HAL_Driver/Src/stm32h5xx_hal_rcc.c ****            will be taken into account. */
 981:Drivers/STM32H5xx_HAL_Driver/Src/stm32h5xx_hal_rcc.c ****         while ((HAL_GetTick() - tickstart) < RCC_PLL_FRAC_WAIT_VALUE)
 982:Drivers/STM32H5xx_HAL_Driver/Src/stm32h5xx_hal_rcc.c ****         {
 983:Drivers/STM32H5xx_HAL_Driver/Src/stm32h5xx_hal_rcc.c ****         }
 984:Drivers/STM32H5xx_HAL_Driver/Src/stm32h5xx_hal_rcc.c **** 
 985:Drivers/STM32H5xx_HAL_Driver/Src/stm32h5xx_hal_rcc.c ****         /* Configure PLL PLL1FRACN */
 986:Drivers/STM32H5xx_HAL_Driver/Src/stm32h5xx_hal_rcc.c ****         __HAL_RCC_PLL1_FRACN_CONFIG(pOscInitStruct->PLL.PLLFRACN);
 987:Drivers/STM32H5xx_HAL_Driver/Src/stm32h5xx_hal_rcc.c **** 
 988:Drivers/STM32H5xx_HAL_Driver/Src/stm32h5xx_hal_rcc.c ****         /* Enable PLL1FRACN to latch the new value. */
 989:Drivers/STM32H5xx_HAL_Driver/Src/stm32h5xx_hal_rcc.c ****         __HAL_RCC_PLL1_FRACN_ENABLE();
 990:Drivers/STM32H5xx_HAL_Driver/Src/stm32h5xx_hal_rcc.c ****       }
 991:Drivers/STM32H5xx_HAL_Driver/Src/stm32h5xx_hal_rcc.c **** 
 992:Drivers/STM32H5xx_HAL_Driver/Src/stm32h5xx_hal_rcc.c ****     }
 993:Drivers/STM32H5xx_HAL_Driver/Src/stm32h5xx_hal_rcc.c ****   }
 994:Drivers/STM32H5xx_HAL_Driver/Src/stm32h5xx_hal_rcc.c ****   return HAL_OK;
 995:Drivers/STM32H5xx_HAL_Driver/Src/stm32h5xx_hal_rcc.c **** }
 996:Drivers/STM32H5xx_HAL_Driver/Src/stm32h5xx_hal_rcc.c **** 
 997:Drivers/STM32H5xx_HAL_Driver/Src/stm32h5xx_hal_rcc.c **** /**
 998:Drivers/STM32H5xx_HAL_Driver/Src/stm32h5xx_hal_rcc.c ****   * @brief  Initialize the CPU, AHB and APB busses clocks according to the specified
 999:Drivers/STM32H5xx_HAL_Driver/Src/stm32h5xx_hal_rcc.c ****   *         parameters in the pClkInitStruct.
1000:Drivers/STM32H5xx_HAL_Driver/Src/stm32h5xx_hal_rcc.c ****   * @param  pClkInitStruct  pointer to an RCC_OscInitTypeDef structure that
1001:Drivers/STM32H5xx_HAL_Driver/Src/stm32h5xx_hal_rcc.c ****   *         contains the configuration information for the RCC peripheral.
ARM GAS  C:\Users\sapph\AppData\Local\Temp\ccD3KfzI.s 			page 25


1002:Drivers/STM32H5xx_HAL_Driver/Src/stm32h5xx_hal_rcc.c ****   * @param  FLatency  FLASH Latency
1003:Drivers/STM32H5xx_HAL_Driver/Src/stm32h5xx_hal_rcc.c ****   *          This parameter can be one of the following values:
1004:Drivers/STM32H5xx_HAL_Driver/Src/stm32h5xx_hal_rcc.c ****   *            @arg FLASH_LATENCY_0   FLASH 0 Latency cycle
1005:Drivers/STM32H5xx_HAL_Driver/Src/stm32h5xx_hal_rcc.c ****   *            @arg FLASH_LATENCY_1   FLASH 1 Latency cycle
1006:Drivers/STM32H5xx_HAL_Driver/Src/stm32h5xx_hal_rcc.c ****   *            @arg FLASH_LATENCY_2   FLASH 2 Latency cycles
1007:Drivers/STM32H5xx_HAL_Driver/Src/stm32h5xx_hal_rcc.c ****   *            @arg FLASH_LATENCY_3   FLASH 3 Latency cycles
1008:Drivers/STM32H5xx_HAL_Driver/Src/stm32h5xx_hal_rcc.c ****   *            @arg FLASH_LATENCY_4   FLASH 4 Latency cycles
1009:Drivers/STM32H5xx_HAL_Driver/Src/stm32h5xx_hal_rcc.c ****   *            @arg FLASH_LATENCY_5   FLASH 5 Latency cycles
1010:Drivers/STM32H5xx_HAL_Driver/Src/stm32h5xx_hal_rcc.c ****   *
1011:Drivers/STM32H5xx_HAL_Driver/Src/stm32h5xx_hal_rcc.c ****   * @note   The SystemCoreClock CMSIS variable is used to store System Clock Frequency
1012:Drivers/STM32H5xx_HAL_Driver/Src/stm32h5xx_hal_rcc.c ****   *         and updated by HAL_RCC_GetHCLKFreq() function called within this function
1013:Drivers/STM32H5xx_HAL_Driver/Src/stm32h5xx_hal_rcc.c ****   *
1014:Drivers/STM32H5xx_HAL_Driver/Src/stm32h5xx_hal_rcc.c ****   * @note   The HSI is used by default as system clock source after
1015:Drivers/STM32H5xx_HAL_Driver/Src/stm32h5xx_hal_rcc.c ****   *         startup from Reset, wake-up from STANDBY mode. After restart from Reset,
1016:Drivers/STM32H5xx_HAL_Driver/Src/stm32h5xx_hal_rcc.c ****   *         the HSI frequency is set to its default value 64 MHz.
1017:Drivers/STM32H5xx_HAL_Driver/Src/stm32h5xx_hal_rcc.c ****   *
1018:Drivers/STM32H5xx_HAL_Driver/Src/stm32h5xx_hal_rcc.c ****   * @note   The HSI or CSI can be selected as system clock source after wake-up
1019:Drivers/STM32H5xx_HAL_Driver/Src/stm32h5xx_hal_rcc.c ****   *         from STOP modes or in case of failure of the HSE when used directly or indirectly
1020:Drivers/STM32H5xx_HAL_Driver/Src/stm32h5xx_hal_rcc.c ****   *         as system clock (if the Clock Security System CSS is enabled).
1021:Drivers/STM32H5xx_HAL_Driver/Src/stm32h5xx_hal_rcc.c ****   *
1022:Drivers/STM32H5xx_HAL_Driver/Src/stm32h5xx_hal_rcc.c ****   * @note   A switch from one clock source to another occurs only if the target
1023:Drivers/STM32H5xx_HAL_Driver/Src/stm32h5xx_hal_rcc.c ****   *         clock source is ready (clock stable after startup delay or PLL locked).
1024:Drivers/STM32H5xx_HAL_Driver/Src/stm32h5xx_hal_rcc.c ****   *         If a clock source which is not yet ready is selected, the switch will
1025:Drivers/STM32H5xx_HAL_Driver/Src/stm32h5xx_hal_rcc.c ****   *         occur when the clock source is ready.
1026:Drivers/STM32H5xx_HAL_Driver/Src/stm32h5xx_hal_rcc.c ****   *
1027:Drivers/STM32H5xx_HAL_Driver/Src/stm32h5xx_hal_rcc.c ****   * @note   You can use HAL_RCC_GetClockConfig() function to know which clock is
1028:Drivers/STM32H5xx_HAL_Driver/Src/stm32h5xx_hal_rcc.c ****   *         currently used as system clock source.
1029:Drivers/STM32H5xx_HAL_Driver/Src/stm32h5xx_hal_rcc.c ****   *
1030:Drivers/STM32H5xx_HAL_Driver/Src/stm32h5xx_hal_rcc.c ****   * @retval HAL Status.
1031:Drivers/STM32H5xx_HAL_Driver/Src/stm32h5xx_hal_rcc.c ****   */
1032:Drivers/STM32H5xx_HAL_Driver/Src/stm32h5xx_hal_rcc.c **** HAL_StatusTypeDef HAL_RCC_ClockConfig(const RCC_ClkInitTypeDef  *pClkInitStruct, uint32_t FLatency)
1033:Drivers/STM32H5xx_HAL_Driver/Src/stm32h5xx_hal_rcc.c **** {
1034:Drivers/STM32H5xx_HAL_Driver/Src/stm32h5xx_hal_rcc.c ****   HAL_StatusTypeDef halstatus;
1035:Drivers/STM32H5xx_HAL_Driver/Src/stm32h5xx_hal_rcc.c ****   uint32_t tickstart;
1036:Drivers/STM32H5xx_HAL_Driver/Src/stm32h5xx_hal_rcc.c **** 
1037:Drivers/STM32H5xx_HAL_Driver/Src/stm32h5xx_hal_rcc.c ****   /* Check Null pointer */
1038:Drivers/STM32H5xx_HAL_Driver/Src/stm32h5xx_hal_rcc.c ****   if (pClkInitStruct == NULL)
1039:Drivers/STM32H5xx_HAL_Driver/Src/stm32h5xx_hal_rcc.c ****   {
1040:Drivers/STM32H5xx_HAL_Driver/Src/stm32h5xx_hal_rcc.c ****     return HAL_ERROR;
1041:Drivers/STM32H5xx_HAL_Driver/Src/stm32h5xx_hal_rcc.c ****   }
1042:Drivers/STM32H5xx_HAL_Driver/Src/stm32h5xx_hal_rcc.c **** 
1043:Drivers/STM32H5xx_HAL_Driver/Src/stm32h5xx_hal_rcc.c ****   /* Check the parameters */
1044:Drivers/STM32H5xx_HAL_Driver/Src/stm32h5xx_hal_rcc.c ****   assert_param(IS_RCC_CLOCKTYPE(pClkInitStruct->ClockType));
1045:Drivers/STM32H5xx_HAL_Driver/Src/stm32h5xx_hal_rcc.c ****   assert_param(IS_FLASH_LATENCY(FLatency));
1046:Drivers/STM32H5xx_HAL_Driver/Src/stm32h5xx_hal_rcc.c **** 
1047:Drivers/STM32H5xx_HAL_Driver/Src/stm32h5xx_hal_rcc.c ****   /* To correctly read data from FLASH memory, the number of wait states (LATENCY)
1048:Drivers/STM32H5xx_HAL_Driver/Src/stm32h5xx_hal_rcc.c ****     must be correctly programmed according to the frequency of the CPU clock
1049:Drivers/STM32H5xx_HAL_Driver/Src/stm32h5xx_hal_rcc.c ****     (HCLK) and the supply voltage of the device. */
1050:Drivers/STM32H5xx_HAL_Driver/Src/stm32h5xx_hal_rcc.c **** 
1051:Drivers/STM32H5xx_HAL_Driver/Src/stm32h5xx_hal_rcc.c ****   /* Increasing the number of wait states because of higher CPU frequency */
1052:Drivers/STM32H5xx_HAL_Driver/Src/stm32h5xx_hal_rcc.c ****   if (FLatency > __HAL_FLASH_GET_LATENCY())
1053:Drivers/STM32H5xx_HAL_Driver/Src/stm32h5xx_hal_rcc.c ****   {
1054:Drivers/STM32H5xx_HAL_Driver/Src/stm32h5xx_hal_rcc.c ****     /* Program the new number of wait states to the LATENCY bits in the FLASH_ACR register */
1055:Drivers/STM32H5xx_HAL_Driver/Src/stm32h5xx_hal_rcc.c ****     __HAL_FLASH_SET_LATENCY(FLatency);
1056:Drivers/STM32H5xx_HAL_Driver/Src/stm32h5xx_hal_rcc.c **** 
1057:Drivers/STM32H5xx_HAL_Driver/Src/stm32h5xx_hal_rcc.c ****     /* Check that the new number of wait states is taken into account to access the Flash
1058:Drivers/STM32H5xx_HAL_Driver/Src/stm32h5xx_hal_rcc.c ****     memory by reading the FLASH_ACR register */
ARM GAS  C:\Users\sapph\AppData\Local\Temp\ccD3KfzI.s 			page 26


1059:Drivers/STM32H5xx_HAL_Driver/Src/stm32h5xx_hal_rcc.c ****     if (__HAL_FLASH_GET_LATENCY() != FLatency)
1060:Drivers/STM32H5xx_HAL_Driver/Src/stm32h5xx_hal_rcc.c ****     {
1061:Drivers/STM32H5xx_HAL_Driver/Src/stm32h5xx_hal_rcc.c ****       return HAL_ERROR;
1062:Drivers/STM32H5xx_HAL_Driver/Src/stm32h5xx_hal_rcc.c ****     }
1063:Drivers/STM32H5xx_HAL_Driver/Src/stm32h5xx_hal_rcc.c ****   }
1064:Drivers/STM32H5xx_HAL_Driver/Src/stm32h5xx_hal_rcc.c **** 
1065:Drivers/STM32H5xx_HAL_Driver/Src/stm32h5xx_hal_rcc.c ****   /* Increasing the BUS frequency divider */
1066:Drivers/STM32H5xx_HAL_Driver/Src/stm32h5xx_hal_rcc.c ****   /*-------------------------- PCLK3 Configuration ---------------------------*/
1067:Drivers/STM32H5xx_HAL_Driver/Src/stm32h5xx_hal_rcc.c ****   if (((pClkInitStruct->ClockType) & RCC_CLOCKTYPE_PCLK3) == RCC_CLOCKTYPE_PCLK3)
1068:Drivers/STM32H5xx_HAL_Driver/Src/stm32h5xx_hal_rcc.c ****   {
1069:Drivers/STM32H5xx_HAL_Driver/Src/stm32h5xx_hal_rcc.c ****     if ((pClkInitStruct->APB3CLKDivider) > ((RCC->CFGR2 & RCC_CFGR2_PPRE3) >> 8))
1070:Drivers/STM32H5xx_HAL_Driver/Src/stm32h5xx_hal_rcc.c ****     {
1071:Drivers/STM32H5xx_HAL_Driver/Src/stm32h5xx_hal_rcc.c ****       assert_param(IS_RCC_PCLK(pClkInitStruct->APB3CLKDivider));
1072:Drivers/STM32H5xx_HAL_Driver/Src/stm32h5xx_hal_rcc.c ****       MODIFY_REG(RCC->CFGR2, RCC_CFGR2_PPRE3, ((pClkInitStruct->APB3CLKDivider) << 8));
1073:Drivers/STM32H5xx_HAL_Driver/Src/stm32h5xx_hal_rcc.c ****     }
1074:Drivers/STM32H5xx_HAL_Driver/Src/stm32h5xx_hal_rcc.c ****   }
1075:Drivers/STM32H5xx_HAL_Driver/Src/stm32h5xx_hal_rcc.c ****   /*-------------------------- PCLK2 Configuration ---------------------------*/
1076:Drivers/STM32H5xx_HAL_Driver/Src/stm32h5xx_hal_rcc.c ****   if (((pClkInitStruct->ClockType) & RCC_CLOCKTYPE_PCLK2) == RCC_CLOCKTYPE_PCLK2)
1077:Drivers/STM32H5xx_HAL_Driver/Src/stm32h5xx_hal_rcc.c ****   {
1078:Drivers/STM32H5xx_HAL_Driver/Src/stm32h5xx_hal_rcc.c ****     if ((pClkInitStruct->APB2CLKDivider) > ((RCC->CFGR2 & RCC_CFGR2_PPRE2) >> 4))
1079:Drivers/STM32H5xx_HAL_Driver/Src/stm32h5xx_hal_rcc.c ****     {
1080:Drivers/STM32H5xx_HAL_Driver/Src/stm32h5xx_hal_rcc.c ****       assert_param(IS_RCC_PCLK(pClkInitStruct->APB2CLKDivider));
1081:Drivers/STM32H5xx_HAL_Driver/Src/stm32h5xx_hal_rcc.c ****       MODIFY_REG(RCC->CFGR2, RCC_CFGR2_PPRE2, ((pClkInitStruct->APB2CLKDivider) << 4));
1082:Drivers/STM32H5xx_HAL_Driver/Src/stm32h5xx_hal_rcc.c ****     }
1083:Drivers/STM32H5xx_HAL_Driver/Src/stm32h5xx_hal_rcc.c ****   }
1084:Drivers/STM32H5xx_HAL_Driver/Src/stm32h5xx_hal_rcc.c **** 
1085:Drivers/STM32H5xx_HAL_Driver/Src/stm32h5xx_hal_rcc.c ****   /*-------------------------- PCLK1 Configuration ---------------------------*/
1086:Drivers/STM32H5xx_HAL_Driver/Src/stm32h5xx_hal_rcc.c ****   if (((pClkInitStruct->ClockType) & RCC_CLOCKTYPE_PCLK1) == RCC_CLOCKTYPE_PCLK1)
1087:Drivers/STM32H5xx_HAL_Driver/Src/stm32h5xx_hal_rcc.c ****   {
1088:Drivers/STM32H5xx_HAL_Driver/Src/stm32h5xx_hal_rcc.c ****     if ((pClkInitStruct->APB1CLKDivider) > (RCC->CFGR2 & RCC_CFGR2_PPRE1))
1089:Drivers/STM32H5xx_HAL_Driver/Src/stm32h5xx_hal_rcc.c ****     {
1090:Drivers/STM32H5xx_HAL_Driver/Src/stm32h5xx_hal_rcc.c ****       assert_param(IS_RCC_PCLK(pClkInitStruct->APB1CLKDivider));
1091:Drivers/STM32H5xx_HAL_Driver/Src/stm32h5xx_hal_rcc.c ****       MODIFY_REG(RCC->CFGR2, RCC_CFGR2_PPRE1, pClkInitStruct->APB1CLKDivider);
1092:Drivers/STM32H5xx_HAL_Driver/Src/stm32h5xx_hal_rcc.c ****     }
1093:Drivers/STM32H5xx_HAL_Driver/Src/stm32h5xx_hal_rcc.c ****   }
1094:Drivers/STM32H5xx_HAL_Driver/Src/stm32h5xx_hal_rcc.c **** 
1095:Drivers/STM32H5xx_HAL_Driver/Src/stm32h5xx_hal_rcc.c ****   /*-------------------------- HCLK Configuration --------------------------*/
1096:Drivers/STM32H5xx_HAL_Driver/Src/stm32h5xx_hal_rcc.c ****   if (((pClkInitStruct->ClockType) & RCC_CLOCKTYPE_HCLK) == RCC_CLOCKTYPE_HCLK)
1097:Drivers/STM32H5xx_HAL_Driver/Src/stm32h5xx_hal_rcc.c ****   {
1098:Drivers/STM32H5xx_HAL_Driver/Src/stm32h5xx_hal_rcc.c ****     if ((pClkInitStruct->AHBCLKDivider) > (RCC->CFGR2 & RCC_CFGR2_HPRE))
1099:Drivers/STM32H5xx_HAL_Driver/Src/stm32h5xx_hal_rcc.c ****     {
1100:Drivers/STM32H5xx_HAL_Driver/Src/stm32h5xx_hal_rcc.c ****       assert_param(IS_RCC_HCLK(pClkInitStruct->AHBCLKDivider));
1101:Drivers/STM32H5xx_HAL_Driver/Src/stm32h5xx_hal_rcc.c ****       MODIFY_REG(RCC->CFGR2, RCC_CFGR2_HPRE, pClkInitStruct->AHBCLKDivider);
1102:Drivers/STM32H5xx_HAL_Driver/Src/stm32h5xx_hal_rcc.c ****     }
1103:Drivers/STM32H5xx_HAL_Driver/Src/stm32h5xx_hal_rcc.c ****   }
1104:Drivers/STM32H5xx_HAL_Driver/Src/stm32h5xx_hal_rcc.c **** 
1105:Drivers/STM32H5xx_HAL_Driver/Src/stm32h5xx_hal_rcc.c ****   /*------------------------- SYSCLK Configuration ---------------------------*/
1106:Drivers/STM32H5xx_HAL_Driver/Src/stm32h5xx_hal_rcc.c ****   if (((pClkInitStruct->ClockType) & RCC_CLOCKTYPE_SYSCLK) == RCC_CLOCKTYPE_SYSCLK)
1107:Drivers/STM32H5xx_HAL_Driver/Src/stm32h5xx_hal_rcc.c ****   {
1108:Drivers/STM32H5xx_HAL_Driver/Src/stm32h5xx_hal_rcc.c ****     assert_param(IS_RCC_SYSCLKSOURCE(pClkInitStruct->SYSCLKSource));
1109:Drivers/STM32H5xx_HAL_Driver/Src/stm32h5xx_hal_rcc.c **** 
1110:Drivers/STM32H5xx_HAL_Driver/Src/stm32h5xx_hal_rcc.c ****     /* PLL is selected as System Clock Source */
1111:Drivers/STM32H5xx_HAL_Driver/Src/stm32h5xx_hal_rcc.c ****     if (pClkInitStruct->SYSCLKSource == RCC_SYSCLKSOURCE_PLLCLK)
1112:Drivers/STM32H5xx_HAL_Driver/Src/stm32h5xx_hal_rcc.c ****     {
1113:Drivers/STM32H5xx_HAL_Driver/Src/stm32h5xx_hal_rcc.c ****       /* Check the PLL ready flag */
1114:Drivers/STM32H5xx_HAL_Driver/Src/stm32h5xx_hal_rcc.c ****       if (READ_BIT(RCC->CR, RCC_CR_PLL1RDY) == 0U)
1115:Drivers/STM32H5xx_HAL_Driver/Src/stm32h5xx_hal_rcc.c ****       {
ARM GAS  C:\Users\sapph\AppData\Local\Temp\ccD3KfzI.s 			page 27


1116:Drivers/STM32H5xx_HAL_Driver/Src/stm32h5xx_hal_rcc.c ****         return HAL_ERROR;
1117:Drivers/STM32H5xx_HAL_Driver/Src/stm32h5xx_hal_rcc.c ****       }
1118:Drivers/STM32H5xx_HAL_Driver/Src/stm32h5xx_hal_rcc.c ****     }
1119:Drivers/STM32H5xx_HAL_Driver/Src/stm32h5xx_hal_rcc.c ****     else
1120:Drivers/STM32H5xx_HAL_Driver/Src/stm32h5xx_hal_rcc.c ****     {
1121:Drivers/STM32H5xx_HAL_Driver/Src/stm32h5xx_hal_rcc.c ****       /* HSE is selected as System Clock Source */
1122:Drivers/STM32H5xx_HAL_Driver/Src/stm32h5xx_hal_rcc.c ****       if (pClkInitStruct->SYSCLKSource == RCC_SYSCLKSOURCE_HSE)
1123:Drivers/STM32H5xx_HAL_Driver/Src/stm32h5xx_hal_rcc.c ****       {
1124:Drivers/STM32H5xx_HAL_Driver/Src/stm32h5xx_hal_rcc.c ****         /* Check the HSE ready flag */
1125:Drivers/STM32H5xx_HAL_Driver/Src/stm32h5xx_hal_rcc.c ****         if (READ_BIT(RCC->CR, RCC_CR_HSERDY) == 0U)
1126:Drivers/STM32H5xx_HAL_Driver/Src/stm32h5xx_hal_rcc.c ****         {
1127:Drivers/STM32H5xx_HAL_Driver/Src/stm32h5xx_hal_rcc.c ****           return HAL_ERROR;
1128:Drivers/STM32H5xx_HAL_Driver/Src/stm32h5xx_hal_rcc.c ****         }
1129:Drivers/STM32H5xx_HAL_Driver/Src/stm32h5xx_hal_rcc.c ****       }
1130:Drivers/STM32H5xx_HAL_Driver/Src/stm32h5xx_hal_rcc.c ****       /* CSI is selected as System Clock Source */
1131:Drivers/STM32H5xx_HAL_Driver/Src/stm32h5xx_hal_rcc.c ****       else if (pClkInitStruct->SYSCLKSource == RCC_SYSCLKSOURCE_CSI)
1132:Drivers/STM32H5xx_HAL_Driver/Src/stm32h5xx_hal_rcc.c ****       {
1133:Drivers/STM32H5xx_HAL_Driver/Src/stm32h5xx_hal_rcc.c ****         /* Check the CSI ready flag */
1134:Drivers/STM32H5xx_HAL_Driver/Src/stm32h5xx_hal_rcc.c ****         if (READ_BIT(RCC->CR, RCC_CR_CSIRDY) == 0U)
1135:Drivers/STM32H5xx_HAL_Driver/Src/stm32h5xx_hal_rcc.c ****         {
1136:Drivers/STM32H5xx_HAL_Driver/Src/stm32h5xx_hal_rcc.c ****           return HAL_ERROR;
1137:Drivers/STM32H5xx_HAL_Driver/Src/stm32h5xx_hal_rcc.c ****         }
1138:Drivers/STM32H5xx_HAL_Driver/Src/stm32h5xx_hal_rcc.c ****       }
1139:Drivers/STM32H5xx_HAL_Driver/Src/stm32h5xx_hal_rcc.c ****       /* HSI is selected as System Clock Source */
1140:Drivers/STM32H5xx_HAL_Driver/Src/stm32h5xx_hal_rcc.c ****       else
1141:Drivers/STM32H5xx_HAL_Driver/Src/stm32h5xx_hal_rcc.c ****       {
1142:Drivers/STM32H5xx_HAL_Driver/Src/stm32h5xx_hal_rcc.c ****         /* Check the HSI ready flag */
1143:Drivers/STM32H5xx_HAL_Driver/Src/stm32h5xx_hal_rcc.c ****         if (READ_BIT(RCC->CR, RCC_CR_HSIRDY) == 0U)
1144:Drivers/STM32H5xx_HAL_Driver/Src/stm32h5xx_hal_rcc.c ****         {
1145:Drivers/STM32H5xx_HAL_Driver/Src/stm32h5xx_hal_rcc.c ****           return HAL_ERROR;
1146:Drivers/STM32H5xx_HAL_Driver/Src/stm32h5xx_hal_rcc.c ****         }
1147:Drivers/STM32H5xx_HAL_Driver/Src/stm32h5xx_hal_rcc.c ****       }
1148:Drivers/STM32H5xx_HAL_Driver/Src/stm32h5xx_hal_rcc.c ****     }
1149:Drivers/STM32H5xx_HAL_Driver/Src/stm32h5xx_hal_rcc.c **** 
1150:Drivers/STM32H5xx_HAL_Driver/Src/stm32h5xx_hal_rcc.c ****     MODIFY_REG(RCC->CFGR1, RCC_CFGR1_SW, pClkInitStruct->SYSCLKSource);
1151:Drivers/STM32H5xx_HAL_Driver/Src/stm32h5xx_hal_rcc.c **** 
1152:Drivers/STM32H5xx_HAL_Driver/Src/stm32h5xx_hal_rcc.c ****     /* Get Start Tick*/
1153:Drivers/STM32H5xx_HAL_Driver/Src/stm32h5xx_hal_rcc.c ****     tickstart = HAL_GetTick();
1154:Drivers/STM32H5xx_HAL_Driver/Src/stm32h5xx_hal_rcc.c **** 
1155:Drivers/STM32H5xx_HAL_Driver/Src/stm32h5xx_hal_rcc.c ****     if (pClkInitStruct->SYSCLKSource == RCC_SYSCLKSOURCE_PLLCLK)
1156:Drivers/STM32H5xx_HAL_Driver/Src/stm32h5xx_hal_rcc.c ****     {
1157:Drivers/STM32H5xx_HAL_Driver/Src/stm32h5xx_hal_rcc.c ****       while (__HAL_RCC_GET_SYSCLK_SOURCE() != RCC_SYSCLKSOURCE_STATUS_PLLCLK)
1158:Drivers/STM32H5xx_HAL_Driver/Src/stm32h5xx_hal_rcc.c ****       {
1159:Drivers/STM32H5xx_HAL_Driver/Src/stm32h5xx_hal_rcc.c ****         if ((HAL_GetTick() - tickstart) > RCC_CLOCKSWITCH_TIMEOUT_VALUE)
1160:Drivers/STM32H5xx_HAL_Driver/Src/stm32h5xx_hal_rcc.c ****         {
1161:Drivers/STM32H5xx_HAL_Driver/Src/stm32h5xx_hal_rcc.c ****           return HAL_TIMEOUT;
1162:Drivers/STM32H5xx_HAL_Driver/Src/stm32h5xx_hal_rcc.c ****         }
1163:Drivers/STM32H5xx_HAL_Driver/Src/stm32h5xx_hal_rcc.c ****       }
1164:Drivers/STM32H5xx_HAL_Driver/Src/stm32h5xx_hal_rcc.c ****     }
1165:Drivers/STM32H5xx_HAL_Driver/Src/stm32h5xx_hal_rcc.c ****     else
1166:Drivers/STM32H5xx_HAL_Driver/Src/stm32h5xx_hal_rcc.c ****     {
1167:Drivers/STM32H5xx_HAL_Driver/Src/stm32h5xx_hal_rcc.c ****       if (pClkInitStruct->SYSCLKSource == RCC_SYSCLKSOURCE_HSE)
1168:Drivers/STM32H5xx_HAL_Driver/Src/stm32h5xx_hal_rcc.c ****       {
1169:Drivers/STM32H5xx_HAL_Driver/Src/stm32h5xx_hal_rcc.c ****         while (__HAL_RCC_GET_SYSCLK_SOURCE() != RCC_SYSCLKSOURCE_STATUS_HSE)
1170:Drivers/STM32H5xx_HAL_Driver/Src/stm32h5xx_hal_rcc.c ****         {
1171:Drivers/STM32H5xx_HAL_Driver/Src/stm32h5xx_hal_rcc.c ****           if ((HAL_GetTick() - tickstart) > RCC_CLOCKSWITCH_TIMEOUT_VALUE)
1172:Drivers/STM32H5xx_HAL_Driver/Src/stm32h5xx_hal_rcc.c ****           {
ARM GAS  C:\Users\sapph\AppData\Local\Temp\ccD3KfzI.s 			page 28


1173:Drivers/STM32H5xx_HAL_Driver/Src/stm32h5xx_hal_rcc.c ****             return HAL_TIMEOUT;
1174:Drivers/STM32H5xx_HAL_Driver/Src/stm32h5xx_hal_rcc.c ****           }
1175:Drivers/STM32H5xx_HAL_Driver/Src/stm32h5xx_hal_rcc.c ****         }
1176:Drivers/STM32H5xx_HAL_Driver/Src/stm32h5xx_hal_rcc.c ****       }
1177:Drivers/STM32H5xx_HAL_Driver/Src/stm32h5xx_hal_rcc.c ****       else if (pClkInitStruct->SYSCLKSource == RCC_SYSCLKSOURCE_CSI)
1178:Drivers/STM32H5xx_HAL_Driver/Src/stm32h5xx_hal_rcc.c ****       {
1179:Drivers/STM32H5xx_HAL_Driver/Src/stm32h5xx_hal_rcc.c ****         while (__HAL_RCC_GET_SYSCLK_SOURCE() != RCC_SYSCLKSOURCE_STATUS_CSI)
1180:Drivers/STM32H5xx_HAL_Driver/Src/stm32h5xx_hal_rcc.c ****         {
1181:Drivers/STM32H5xx_HAL_Driver/Src/stm32h5xx_hal_rcc.c ****           if ((HAL_GetTick() - tickstart) > RCC_CLOCKSWITCH_TIMEOUT_VALUE)
1182:Drivers/STM32H5xx_HAL_Driver/Src/stm32h5xx_hal_rcc.c ****           {
1183:Drivers/STM32H5xx_HAL_Driver/Src/stm32h5xx_hal_rcc.c ****             return HAL_TIMEOUT;
1184:Drivers/STM32H5xx_HAL_Driver/Src/stm32h5xx_hal_rcc.c ****           }
1185:Drivers/STM32H5xx_HAL_Driver/Src/stm32h5xx_hal_rcc.c ****         }
1186:Drivers/STM32H5xx_HAL_Driver/Src/stm32h5xx_hal_rcc.c ****       }
1187:Drivers/STM32H5xx_HAL_Driver/Src/stm32h5xx_hal_rcc.c ****       else
1188:Drivers/STM32H5xx_HAL_Driver/Src/stm32h5xx_hal_rcc.c ****       {
1189:Drivers/STM32H5xx_HAL_Driver/Src/stm32h5xx_hal_rcc.c ****         while (__HAL_RCC_GET_SYSCLK_SOURCE() != RCC_SYSCLKSOURCE_STATUS_HSI)
1190:Drivers/STM32H5xx_HAL_Driver/Src/stm32h5xx_hal_rcc.c ****         {
1191:Drivers/STM32H5xx_HAL_Driver/Src/stm32h5xx_hal_rcc.c ****           if ((HAL_GetTick() - tickstart) > RCC_CLOCKSWITCH_TIMEOUT_VALUE)
1192:Drivers/STM32H5xx_HAL_Driver/Src/stm32h5xx_hal_rcc.c ****           {
1193:Drivers/STM32H5xx_HAL_Driver/Src/stm32h5xx_hal_rcc.c ****             return HAL_TIMEOUT;
1194:Drivers/STM32H5xx_HAL_Driver/Src/stm32h5xx_hal_rcc.c ****           }
1195:Drivers/STM32H5xx_HAL_Driver/Src/stm32h5xx_hal_rcc.c ****         }
1196:Drivers/STM32H5xx_HAL_Driver/Src/stm32h5xx_hal_rcc.c ****       }
1197:Drivers/STM32H5xx_HAL_Driver/Src/stm32h5xx_hal_rcc.c ****     }
1198:Drivers/STM32H5xx_HAL_Driver/Src/stm32h5xx_hal_rcc.c ****   }
1199:Drivers/STM32H5xx_HAL_Driver/Src/stm32h5xx_hal_rcc.c **** 
1200:Drivers/STM32H5xx_HAL_Driver/Src/stm32h5xx_hal_rcc.c ****   /* Decreasing the BUS frequency divider */
1201:Drivers/STM32H5xx_HAL_Driver/Src/stm32h5xx_hal_rcc.c ****   /*-------------------------- HCLK Configuration --------------------------*/
1202:Drivers/STM32H5xx_HAL_Driver/Src/stm32h5xx_hal_rcc.c ****   if (((pClkInitStruct->ClockType) & RCC_CLOCKTYPE_HCLK) == RCC_CLOCKTYPE_HCLK)
1203:Drivers/STM32H5xx_HAL_Driver/Src/stm32h5xx_hal_rcc.c ****   {
1204:Drivers/STM32H5xx_HAL_Driver/Src/stm32h5xx_hal_rcc.c ****     if ((pClkInitStruct->AHBCLKDivider) < (RCC->CFGR2 & RCC_CFGR2_HPRE))
1205:Drivers/STM32H5xx_HAL_Driver/Src/stm32h5xx_hal_rcc.c ****     {
1206:Drivers/STM32H5xx_HAL_Driver/Src/stm32h5xx_hal_rcc.c ****       assert_param(IS_RCC_HCLK(pClkInitStruct->AHBCLKDivider));
1207:Drivers/STM32H5xx_HAL_Driver/Src/stm32h5xx_hal_rcc.c ****       MODIFY_REG(RCC->CFGR2, RCC_CFGR2_HPRE, pClkInitStruct->AHBCLKDivider);
1208:Drivers/STM32H5xx_HAL_Driver/Src/stm32h5xx_hal_rcc.c ****     }
1209:Drivers/STM32H5xx_HAL_Driver/Src/stm32h5xx_hal_rcc.c ****   }
1210:Drivers/STM32H5xx_HAL_Driver/Src/stm32h5xx_hal_rcc.c **** 
1211:Drivers/STM32H5xx_HAL_Driver/Src/stm32h5xx_hal_rcc.c ****   /* Decreasing the number of wait states because of lower CPU frequency */
1212:Drivers/STM32H5xx_HAL_Driver/Src/stm32h5xx_hal_rcc.c ****   if (FLatency < __HAL_FLASH_GET_LATENCY())
1213:Drivers/STM32H5xx_HAL_Driver/Src/stm32h5xx_hal_rcc.c ****   {
1214:Drivers/STM32H5xx_HAL_Driver/Src/stm32h5xx_hal_rcc.c ****     /* Program the new number of wait states to the LATENCY bits in the FLASH_ACR register */
1215:Drivers/STM32H5xx_HAL_Driver/Src/stm32h5xx_hal_rcc.c ****     __HAL_FLASH_SET_LATENCY(FLatency);
1216:Drivers/STM32H5xx_HAL_Driver/Src/stm32h5xx_hal_rcc.c **** 
1217:Drivers/STM32H5xx_HAL_Driver/Src/stm32h5xx_hal_rcc.c ****     /* Check that the new number of wait states is taken into account to access the Flash
1218:Drivers/STM32H5xx_HAL_Driver/Src/stm32h5xx_hal_rcc.c ****     memory by reading the FLASH_ACR register */
1219:Drivers/STM32H5xx_HAL_Driver/Src/stm32h5xx_hal_rcc.c ****     if (__HAL_FLASH_GET_LATENCY() != FLatency)
1220:Drivers/STM32H5xx_HAL_Driver/Src/stm32h5xx_hal_rcc.c ****     {
1221:Drivers/STM32H5xx_HAL_Driver/Src/stm32h5xx_hal_rcc.c ****       return HAL_ERROR;
1222:Drivers/STM32H5xx_HAL_Driver/Src/stm32h5xx_hal_rcc.c ****     }
1223:Drivers/STM32H5xx_HAL_Driver/Src/stm32h5xx_hal_rcc.c ****   }
1224:Drivers/STM32H5xx_HAL_Driver/Src/stm32h5xx_hal_rcc.c **** 
1225:Drivers/STM32H5xx_HAL_Driver/Src/stm32h5xx_hal_rcc.c ****   /*-------------------------- PCLK1 Configuration ---------------------------*/
1226:Drivers/STM32H5xx_HAL_Driver/Src/stm32h5xx_hal_rcc.c ****   if (((pClkInitStruct->ClockType) & RCC_CLOCKTYPE_PCLK1) == RCC_CLOCKTYPE_PCLK1)
1227:Drivers/STM32H5xx_HAL_Driver/Src/stm32h5xx_hal_rcc.c ****   {
1228:Drivers/STM32H5xx_HAL_Driver/Src/stm32h5xx_hal_rcc.c ****     if ((pClkInitStruct->APB1CLKDivider) < (RCC->CFGR2 & RCC_CFGR2_PPRE1))
1229:Drivers/STM32H5xx_HAL_Driver/Src/stm32h5xx_hal_rcc.c ****     {
ARM GAS  C:\Users\sapph\AppData\Local\Temp\ccD3KfzI.s 			page 29


1230:Drivers/STM32H5xx_HAL_Driver/Src/stm32h5xx_hal_rcc.c ****       assert_param(IS_RCC_PCLK(pClkInitStruct->APB1CLKDivider));
1231:Drivers/STM32H5xx_HAL_Driver/Src/stm32h5xx_hal_rcc.c ****       MODIFY_REG(RCC->CFGR2, RCC_CFGR2_PPRE1, pClkInitStruct->APB1CLKDivider);
1232:Drivers/STM32H5xx_HAL_Driver/Src/stm32h5xx_hal_rcc.c ****     }
1233:Drivers/STM32H5xx_HAL_Driver/Src/stm32h5xx_hal_rcc.c ****   }
1234:Drivers/STM32H5xx_HAL_Driver/Src/stm32h5xx_hal_rcc.c **** 
1235:Drivers/STM32H5xx_HAL_Driver/Src/stm32h5xx_hal_rcc.c ****   /*-------------------------- PCLK2 Configuration ---------------------------*/
1236:Drivers/STM32H5xx_HAL_Driver/Src/stm32h5xx_hal_rcc.c ****   if (((pClkInitStruct->ClockType) & RCC_CLOCKTYPE_PCLK2) == RCC_CLOCKTYPE_PCLK2)
1237:Drivers/STM32H5xx_HAL_Driver/Src/stm32h5xx_hal_rcc.c ****   {
1238:Drivers/STM32H5xx_HAL_Driver/Src/stm32h5xx_hal_rcc.c ****     if ((pClkInitStruct->APB2CLKDivider) < ((RCC->CFGR2 & RCC_CFGR2_PPRE2) >> 4))
1239:Drivers/STM32H5xx_HAL_Driver/Src/stm32h5xx_hal_rcc.c ****     {
1240:Drivers/STM32H5xx_HAL_Driver/Src/stm32h5xx_hal_rcc.c ****       assert_param(IS_RCC_PCLK(pClkInitStruct->APB2CLKDivider));
1241:Drivers/STM32H5xx_HAL_Driver/Src/stm32h5xx_hal_rcc.c ****       MODIFY_REG(RCC->CFGR2, RCC_CFGR2_PPRE2, ((pClkInitStruct->APB2CLKDivider) << 4));
1242:Drivers/STM32H5xx_HAL_Driver/Src/stm32h5xx_hal_rcc.c ****     }
1243:Drivers/STM32H5xx_HAL_Driver/Src/stm32h5xx_hal_rcc.c ****   }
1244:Drivers/STM32H5xx_HAL_Driver/Src/stm32h5xx_hal_rcc.c **** 
1245:Drivers/STM32H5xx_HAL_Driver/Src/stm32h5xx_hal_rcc.c ****   /*-------------------------- PCLK3 Configuration ---------------------------*/
1246:Drivers/STM32H5xx_HAL_Driver/Src/stm32h5xx_hal_rcc.c ****   if (((pClkInitStruct->ClockType) & RCC_CLOCKTYPE_PCLK3) == RCC_CLOCKTYPE_PCLK3)
1247:Drivers/STM32H5xx_HAL_Driver/Src/stm32h5xx_hal_rcc.c ****   {
1248:Drivers/STM32H5xx_HAL_Driver/Src/stm32h5xx_hal_rcc.c ****     if ((pClkInitStruct->APB3CLKDivider) < ((RCC->CFGR2 & RCC_CFGR2_PPRE3) >> 8))
1249:Drivers/STM32H5xx_HAL_Driver/Src/stm32h5xx_hal_rcc.c ****     {
1250:Drivers/STM32H5xx_HAL_Driver/Src/stm32h5xx_hal_rcc.c ****       assert_param(IS_RCC_PCLK(pClkInitStruct->APB3CLKDivider));
1251:Drivers/STM32H5xx_HAL_Driver/Src/stm32h5xx_hal_rcc.c ****       MODIFY_REG(RCC->CFGR2, RCC_CFGR2_PPRE3, ((pClkInitStruct->APB3CLKDivider) << 8));
1252:Drivers/STM32H5xx_HAL_Driver/Src/stm32h5xx_hal_rcc.c ****     }
1253:Drivers/STM32H5xx_HAL_Driver/Src/stm32h5xx_hal_rcc.c ****   }
1254:Drivers/STM32H5xx_HAL_Driver/Src/stm32h5xx_hal_rcc.c **** 
1255:Drivers/STM32H5xx_HAL_Driver/Src/stm32h5xx_hal_rcc.c ****   /* Update the SystemCoreClock global variable */
1256:Drivers/STM32H5xx_HAL_Driver/Src/stm32h5xx_hal_rcc.c ****   SystemCoreClock = HAL_RCC_GetSysClockFreq() >> AHBPrescTable[(RCC->CFGR2 & RCC_CFGR2_HPRE) >> RCC
1257:Drivers/STM32H5xx_HAL_Driver/Src/stm32h5xx_hal_rcc.c **** 
1258:Drivers/STM32H5xx_HAL_Driver/Src/stm32h5xx_hal_rcc.c ****   /* Configure the source of time base considering new system clocks settings*/
1259:Drivers/STM32H5xx_HAL_Driver/Src/stm32h5xx_hal_rcc.c ****   halstatus = HAL_InitTick(uwTickPrio);
1260:Drivers/STM32H5xx_HAL_Driver/Src/stm32h5xx_hal_rcc.c **** 
1261:Drivers/STM32H5xx_HAL_Driver/Src/stm32h5xx_hal_rcc.c ****   return halstatus;
1262:Drivers/STM32H5xx_HAL_Driver/Src/stm32h5xx_hal_rcc.c **** }
1263:Drivers/STM32H5xx_HAL_Driver/Src/stm32h5xx_hal_rcc.c **** 
1264:Drivers/STM32H5xx_HAL_Driver/Src/stm32h5xx_hal_rcc.c **** /**
1265:Drivers/STM32H5xx_HAL_Driver/Src/stm32h5xx_hal_rcc.c ****   * @}
1266:Drivers/STM32H5xx_HAL_Driver/Src/stm32h5xx_hal_rcc.c ****   */
1267:Drivers/STM32H5xx_HAL_Driver/Src/stm32h5xx_hal_rcc.c **** 
1268:Drivers/STM32H5xx_HAL_Driver/Src/stm32h5xx_hal_rcc.c **** /** @defgroup RCC_Exported_Functions_Group2 Peripheral Control functions
1269:Drivers/STM32H5xx_HAL_Driver/Src/stm32h5xx_hal_rcc.c ****   *  @brief   RCC clocks control functions
1270:Drivers/STM32H5xx_HAL_Driver/Src/stm32h5xx_hal_rcc.c ****   *
1271:Drivers/STM32H5xx_HAL_Driver/Src/stm32h5xx_hal_rcc.c **** @verbatim
1272:Drivers/STM32H5xx_HAL_Driver/Src/stm32h5xx_hal_rcc.c ****  ===============================================================================
1273:Drivers/STM32H5xx_HAL_Driver/Src/stm32h5xx_hal_rcc.c ****                       ##### Peripheral Control functions #####
1274:Drivers/STM32H5xx_HAL_Driver/Src/stm32h5xx_hal_rcc.c ****  ===============================================================================
1275:Drivers/STM32H5xx_HAL_Driver/Src/stm32h5xx_hal_rcc.c ****     [..]
1276:Drivers/STM32H5xx_HAL_Driver/Src/stm32h5xx_hal_rcc.c ****     This subsection provides a set of functions allowing to:
1277:Drivers/STM32H5xx_HAL_Driver/Src/stm32h5xx_hal_rcc.c **** 
1278:Drivers/STM32H5xx_HAL_Driver/Src/stm32h5xx_hal_rcc.c ****     (+) Output clock to MCO pin.
1279:Drivers/STM32H5xx_HAL_Driver/Src/stm32h5xx_hal_rcc.c ****     (+) Retrieve current clock frequencies.
1280:Drivers/STM32H5xx_HAL_Driver/Src/stm32h5xx_hal_rcc.c ****     (+) Enable the Clock Security System.
1281:Drivers/STM32H5xx_HAL_Driver/Src/stm32h5xx_hal_rcc.c **** 
1282:Drivers/STM32H5xx_HAL_Driver/Src/stm32h5xx_hal_rcc.c **** @endverbatim
1283:Drivers/STM32H5xx_HAL_Driver/Src/stm32h5xx_hal_rcc.c ****   * @{
1284:Drivers/STM32H5xx_HAL_Driver/Src/stm32h5xx_hal_rcc.c ****   */
1285:Drivers/STM32H5xx_HAL_Driver/Src/stm32h5xx_hal_rcc.c **** 
1286:Drivers/STM32H5xx_HAL_Driver/Src/stm32h5xx_hal_rcc.c **** /**
ARM GAS  C:\Users\sapph\AppData\Local\Temp\ccD3KfzI.s 			page 30


1287:Drivers/STM32H5xx_HAL_Driver/Src/stm32h5xx_hal_rcc.c ****   * @brief  Select the clock source to output on MCO1 pin(PA8) or on MCO2 pin(PC9).
1288:Drivers/STM32H5xx_HAL_Driver/Src/stm32h5xx_hal_rcc.c ****   * @note   PA8/PC9 should be configured in alternate function mode.
1289:Drivers/STM32H5xx_HAL_Driver/Src/stm32h5xx_hal_rcc.c ****   * @param  RCC_MCOx  specifies the output direction for the clock source.
1290:Drivers/STM32H5xx_HAL_Driver/Src/stm32h5xx_hal_rcc.c ****   *          For STM32H5xx family this parameter can have only one value:
1291:Drivers/STM32H5xx_HAL_Driver/Src/stm32h5xx_hal_rcc.c ****   *            @arg @ref RCC_MCO1  Clock source to output on MCO1 pin(PA8).
1292:Drivers/STM32H5xx_HAL_Driver/Src/stm32h5xx_hal_rcc.c ****   *            @arg @ref RCC_MCO2  Clock source to output on MCO2 pin(PC9).
1293:Drivers/STM32H5xx_HAL_Driver/Src/stm32h5xx_hal_rcc.c ****   * @param  RCC_MCOSource  specifies the clock source to output.
1294:Drivers/STM32H5xx_HAL_Driver/Src/stm32h5xx_hal_rcc.c ****   *          This parameter can be one of the following values:
1295:Drivers/STM32H5xx_HAL_Driver/Src/stm32h5xx_hal_rcc.c ****   *            @arg RCC_MCO1SOURCE_HSI: HSI clock selected as MCO1 source
1296:Drivers/STM32H5xx_HAL_Driver/Src/stm32h5xx_hal_rcc.c ****   *            @arg RCC_MCO1SOURCE_LSE: LSE clock selected as MCO1 source
1297:Drivers/STM32H5xx_HAL_Driver/Src/stm32h5xx_hal_rcc.c ****   *            @arg RCC_MCO1SOURCE_HSE: HSE clock selected as MCO1 source
1298:Drivers/STM32H5xx_HAL_Driver/Src/stm32h5xx_hal_rcc.c ****   *            @arg RCC_MCO1SOURCE_PLL1QCLK:  PLL1Q clock selected as MCO1 source
1299:Drivers/STM32H5xx_HAL_Driver/Src/stm32h5xx_hal_rcc.c ****   *            @arg RCC_MCO1SOURCE_HSI48: HSI48 (48MHZ) selected as MCO1 source
1300:Drivers/STM32H5xx_HAL_Driver/Src/stm32h5xx_hal_rcc.c ****   *            @arg RCC_MCO2SOURCE_SYSCLK: System clock (SYSCLK) selected as MCO2 source
1301:Drivers/STM32H5xx_HAL_Driver/Src/stm32h5xx_hal_rcc.c ****   *            @arg RCC_MCO2SOURCE_PLL2PCLK: PLL2P clock selected as MCO2 source
1302:Drivers/STM32H5xx_HAL_Driver/Src/stm32h5xx_hal_rcc.c ****   *            @arg RCC_MCO2SOURCE_HSE: HSE clock selected as MCO2 source
1303:Drivers/STM32H5xx_HAL_Driver/Src/stm32h5xx_hal_rcc.c ****   *            @arg RCC_MCO2SOURCE_PLL1PCLK:  PLL1P clock selected as MCO2 source
1304:Drivers/STM32H5xx_HAL_Driver/Src/stm32h5xx_hal_rcc.c ****   *            @arg RCC_MCO2SOURCE_CSI:  CSI clock selected as MCO2 source
1305:Drivers/STM32H5xx_HAL_Driver/Src/stm32h5xx_hal_rcc.c ****   *            @arg RCC_MCO2SOURCE_LSI:  LSI clock selected as MCO2 source
1306:Drivers/STM32H5xx_HAL_Driver/Src/stm32h5xx_hal_rcc.c ****   * @param  RCC_MCODiv  specifies the MCO prescaler.
1307:Drivers/STM32H5xx_HAL_Driver/Src/stm32h5xx_hal_rcc.c ****   *          This parameter can be one of the following values:
1308:Drivers/STM32H5xx_HAL_Driver/Src/stm32h5xx_hal_rcc.c ****   *            @arg RCC_MCODIV_1 up to RCC_MCODIV_15  : divider applied to MCOx clock
1309:Drivers/STM32H5xx_HAL_Driver/Src/stm32h5xx_hal_rcc.c ****   * @retval None
1310:Drivers/STM32H5xx_HAL_Driver/Src/stm32h5xx_hal_rcc.c ****   */
1311:Drivers/STM32H5xx_HAL_Driver/Src/stm32h5xx_hal_rcc.c **** void HAL_RCC_MCOConfig(uint32_t RCC_MCOx, uint32_t RCC_MCOSource, uint32_t RCC_MCODiv)
1312:Drivers/STM32H5xx_HAL_Driver/Src/stm32h5xx_hal_rcc.c **** {
 369              		.loc 1 1312 1 is_stmt 1 view -0
 370              		.cfi_startproc
 371              		@ args = 0, pretend = 0, frame = 32
 372              		@ frame_needed = 0, uses_anonymous_args = 0
 373              		.loc 1 1312 1 is_stmt 0 view .LVU108
 374 0000 70B5     		push	{r4, r5, r6, lr}
 375              		.cfi_def_cfa_offset 16
 376              		.cfi_offset 4, -16
 377              		.cfi_offset 5, -12
 378              		.cfi_offset 6, -8
 379              		.cfi_offset 14, -4
 380 0002 88B0     		sub	sp, sp, #32
 381              		.cfi_def_cfa_offset 48
 382 0004 0C46     		mov	r4, r1
 383 0006 1546     		mov	r5, r2
1313:Drivers/STM32H5xx_HAL_Driver/Src/stm32h5xx_hal_rcc.c ****   GPIO_InitTypeDef GPIO_InitStruct;
 384              		.loc 1 1313 3 is_stmt 1 view .LVU109
1314:Drivers/STM32H5xx_HAL_Driver/Src/stm32h5xx_hal_rcc.c ****   /* Check the parameters */
1315:Drivers/STM32H5xx_HAL_Driver/Src/stm32h5xx_hal_rcc.c ****   assert_param(IS_RCC_MCO(RCC_MCOx));
 385              		.loc 1 1315 3 view .LVU110
1316:Drivers/STM32H5xx_HAL_Driver/Src/stm32h5xx_hal_rcc.c ****   assert_param(IS_RCC_MCODIV(RCC_MCODiv));
 386              		.loc 1 1316 3 view .LVU111
1317:Drivers/STM32H5xx_HAL_Driver/Src/stm32h5xx_hal_rcc.c ****   /* RCC_MCO1 */
1318:Drivers/STM32H5xx_HAL_Driver/Src/stm32h5xx_hal_rcc.c ****   if (RCC_MCOx == RCC_MCO1)
 387              		.loc 1 1318 3 view .LVU112
 388              		.loc 1 1318 6 is_stmt 0 view .LVU113
 389 0008 10BB     		cbnz	r0, .L33
1319:Drivers/STM32H5xx_HAL_Driver/Src/stm32h5xx_hal_rcc.c ****   {
1320:Drivers/STM32H5xx_HAL_Driver/Src/stm32h5xx_hal_rcc.c ****     assert_param(IS_RCC_MCO1SOURCE(RCC_MCOSource));
 390              		.loc 1 1320 5 is_stmt 1 view .LVU114
1321:Drivers/STM32H5xx_HAL_Driver/Src/stm32h5xx_hal_rcc.c **** 
ARM GAS  C:\Users\sapph\AppData\Local\Temp\ccD3KfzI.s 			page 31


1322:Drivers/STM32H5xx_HAL_Driver/Src/stm32h5xx_hal_rcc.c ****     /* MCO1 Clock Enable */
1323:Drivers/STM32H5xx_HAL_Driver/Src/stm32h5xx_hal_rcc.c ****     MCO1_CLK_ENABLE();
 391              		.loc 1 1323 5 view .LVU115
 392              	.LBB2:
 393              		.loc 1 1323 5 view .LVU116
 394              		.loc 1 1323 5 view .LVU117
 395 000a 234E     		ldr	r6, .L36
 396 000c D6F88C30 		ldr	r3, [r6, #140]
 397 0010 43F00103 		orr	r3, r3, #1
 398 0014 C6F88C30 		str	r3, [r6, #140]
 399              		.loc 1 1323 5 view .LVU118
 400 0018 D6F88C30 		ldr	r3, [r6, #140]
 401 001c 03F00103 		and	r3, r3, #1
 402 0020 0193     		str	r3, [sp, #4]
 403              		.loc 1 1323 5 view .LVU119
 404 0022 019B     		ldr	r3, [sp, #4]
 405              	.LBE2:
 406              		.loc 1 1323 5 view .LVU120
1324:Drivers/STM32H5xx_HAL_Driver/Src/stm32h5xx_hal_rcc.c **** 
1325:Drivers/STM32H5xx_HAL_Driver/Src/stm32h5xx_hal_rcc.c ****     /* Configure the MCO1 pin in alternate function mode */
1326:Drivers/STM32H5xx_HAL_Driver/Src/stm32h5xx_hal_rcc.c ****     GPIO_InitStruct.Pin = MCO1_PIN;
 407              		.loc 1 1326 5 view .LVU121
 408              		.loc 1 1326 25 is_stmt 0 view .LVU122
 409 0024 4FF48073 		mov	r3, #256
 410 0028 0393     		str	r3, [sp, #12]
1327:Drivers/STM32H5xx_HAL_Driver/Src/stm32h5xx_hal_rcc.c ****     GPIO_InitStruct.Mode = GPIO_MODE_AF_PP;
 411              		.loc 1 1327 5 is_stmt 1 view .LVU123
 412              		.loc 1 1327 26 is_stmt 0 view .LVU124
 413 002a 0223     		movs	r3, #2
 414 002c 0493     		str	r3, [sp, #16]
1328:Drivers/STM32H5xx_HAL_Driver/Src/stm32h5xx_hal_rcc.c ****     GPIO_InitStruct.Speed = GPIO_SPEED_FREQ_VERY_HIGH;
 415              		.loc 1 1328 5 is_stmt 1 view .LVU125
 416              		.loc 1 1328 27 is_stmt 0 view .LVU126
 417 002e 0323     		movs	r3, #3
 418 0030 0693     		str	r3, [sp, #24]
1329:Drivers/STM32H5xx_HAL_Driver/Src/stm32h5xx_hal_rcc.c ****     GPIO_InitStruct.Pull = GPIO_NOPULL;
 419              		.loc 1 1329 5 is_stmt 1 view .LVU127
 420              		.loc 1 1329 26 is_stmt 0 view .LVU128
 421 0032 0023     		movs	r3, #0
 422 0034 0593     		str	r3, [sp, #20]
1330:Drivers/STM32H5xx_HAL_Driver/Src/stm32h5xx_hal_rcc.c ****     GPIO_InitStruct.Alternate = GPIO_AF0_MCO;
 423              		.loc 1 1330 5 is_stmt 1 view .LVU129
 424              		.loc 1 1330 31 is_stmt 0 view .LVU130
 425 0036 0793     		str	r3, [sp, #28]
1331:Drivers/STM32H5xx_HAL_Driver/Src/stm32h5xx_hal_rcc.c ****     HAL_GPIO_Init(MCO1_GPIO_PORT, &GPIO_InitStruct);
 426              		.loc 1 1331 5 is_stmt 1 view .LVU131
 427 0038 03A9     		add	r1, sp, #12
 428              	.LVL25:
 429              		.loc 1 1331 5 is_stmt 0 view .LVU132
 430 003a 1848     		ldr	r0, .L36+4
 431              	.LVL26:
 432              		.loc 1 1331 5 view .LVU133
 433 003c FFF7FEFF 		bl	HAL_GPIO_Init
 434              	.LVL27:
1332:Drivers/STM32H5xx_HAL_Driver/Src/stm32h5xx_hal_rcc.c **** 
1333:Drivers/STM32H5xx_HAL_Driver/Src/stm32h5xx_hal_rcc.c ****     /* Mask MCO1 and MCO1PRE[3:0] bits then Select MCO1 clock source and pre-scaler */
1334:Drivers/STM32H5xx_HAL_Driver/Src/stm32h5xx_hal_rcc.c ****     MODIFY_REG(RCC->CFGR1, (RCC_CFGR1_MCO1SEL | RCC_CFGR1_MCO1PRE), (RCC_MCOSource | RCC_MCODiv));
ARM GAS  C:\Users\sapph\AppData\Local\Temp\ccD3KfzI.s 			page 32


 435              		.loc 1 1334 5 is_stmt 1 view .LVU134
 436 0040 F369     		ldr	r3, [r6, #28]
 437 0042 23F0FE73 		bic	r3, r3, #33292288
 438 0046 2543     		orrs	r5, r5, r4
 439              	.LVL28:
 440              		.loc 1 1334 5 is_stmt 0 view .LVU135
 441 0048 1D43     		orrs	r5, r5, r3
 442 004a F561     		str	r5, [r6, #28]
 443              	.LVL29:
 444              	.L32:
1335:Drivers/STM32H5xx_HAL_Driver/Src/stm32h5xx_hal_rcc.c ****   }
1336:Drivers/STM32H5xx_HAL_Driver/Src/stm32h5xx_hal_rcc.c ****   else
1337:Drivers/STM32H5xx_HAL_Driver/Src/stm32h5xx_hal_rcc.c ****   {
1338:Drivers/STM32H5xx_HAL_Driver/Src/stm32h5xx_hal_rcc.c ****     assert_param(IS_RCC_MCO2SOURCE(RCC_MCOSource));
1339:Drivers/STM32H5xx_HAL_Driver/Src/stm32h5xx_hal_rcc.c **** 
1340:Drivers/STM32H5xx_HAL_Driver/Src/stm32h5xx_hal_rcc.c ****     /* MCO2 Clock Enable */
1341:Drivers/STM32H5xx_HAL_Driver/Src/stm32h5xx_hal_rcc.c ****     MCO2_CLK_ENABLE();
1342:Drivers/STM32H5xx_HAL_Driver/Src/stm32h5xx_hal_rcc.c **** 
1343:Drivers/STM32H5xx_HAL_Driver/Src/stm32h5xx_hal_rcc.c ****     /* Configure the MCO2 pin in alternate function mode */
1344:Drivers/STM32H5xx_HAL_Driver/Src/stm32h5xx_hal_rcc.c ****     GPIO_InitStruct.Pin = MCO2_PIN;
1345:Drivers/STM32H5xx_HAL_Driver/Src/stm32h5xx_hal_rcc.c ****     GPIO_InitStruct.Mode = GPIO_MODE_AF_PP;
1346:Drivers/STM32H5xx_HAL_Driver/Src/stm32h5xx_hal_rcc.c ****     GPIO_InitStruct.Speed = GPIO_SPEED_FREQ_VERY_HIGH;
1347:Drivers/STM32H5xx_HAL_Driver/Src/stm32h5xx_hal_rcc.c ****     GPIO_InitStruct.Pull = GPIO_NOPULL;
1348:Drivers/STM32H5xx_HAL_Driver/Src/stm32h5xx_hal_rcc.c ****     GPIO_InitStruct.Alternate = GPIO_AF0_MCO;
1349:Drivers/STM32H5xx_HAL_Driver/Src/stm32h5xx_hal_rcc.c ****     HAL_GPIO_Init(MCO2_GPIO_PORT, &GPIO_InitStruct);
1350:Drivers/STM32H5xx_HAL_Driver/Src/stm32h5xx_hal_rcc.c **** 
1351:Drivers/STM32H5xx_HAL_Driver/Src/stm32h5xx_hal_rcc.c ****     /* Mask MCO2 and MCO2PRE[3:0] bits then Select MCO2 clock source and pre-scaler */
1352:Drivers/STM32H5xx_HAL_Driver/Src/stm32h5xx_hal_rcc.c ****     MODIFY_REG(RCC->CFGR1, (RCC_CFGR1_MCO2SEL | RCC_CFGR1_MCO2PRE), (RCC_MCOSource | (RCC_MCODiv <<
1353:Drivers/STM32H5xx_HAL_Driver/Src/stm32h5xx_hal_rcc.c ****   }
1354:Drivers/STM32H5xx_HAL_Driver/Src/stm32h5xx_hal_rcc.c **** }
 445              		.loc 1 1354 1 view .LVU136
 446 004c 08B0     		add	sp, sp, #32
 447              		.cfi_remember_state
 448              		.cfi_def_cfa_offset 16
 449              		@ sp needed
 450 004e 70BD     		pop	{r4, r5, r6, pc}
 451              	.LVL30:
 452              	.L33:
 453              		.cfi_restore_state
1338:Drivers/STM32H5xx_HAL_Driver/Src/stm32h5xx_hal_rcc.c **** 
 454              		.loc 1 1338 5 is_stmt 1 view .LVU137
1341:Drivers/STM32H5xx_HAL_Driver/Src/stm32h5xx_hal_rcc.c **** 
 455              		.loc 1 1341 5 view .LVU138
 456              	.LBB3:
1341:Drivers/STM32H5xx_HAL_Driver/Src/stm32h5xx_hal_rcc.c **** 
 457              		.loc 1 1341 5 view .LVU139
1341:Drivers/STM32H5xx_HAL_Driver/Src/stm32h5xx_hal_rcc.c **** 
 458              		.loc 1 1341 5 view .LVU140
 459 0050 114E     		ldr	r6, .L36
 460 0052 D6F88C30 		ldr	r3, [r6, #140]
 461 0056 43F00403 		orr	r3, r3, #4
 462 005a C6F88C30 		str	r3, [r6, #140]
1341:Drivers/STM32H5xx_HAL_Driver/Src/stm32h5xx_hal_rcc.c **** 
 463              		.loc 1 1341 5 view .LVU141
 464 005e D6F88C30 		ldr	r3, [r6, #140]
 465 0062 03F00403 		and	r3, r3, #4
 466 0066 0293     		str	r3, [sp, #8]
ARM GAS  C:\Users\sapph\AppData\Local\Temp\ccD3KfzI.s 			page 33


1341:Drivers/STM32H5xx_HAL_Driver/Src/stm32h5xx_hal_rcc.c **** 
 467              		.loc 1 1341 5 view .LVU142
 468 0068 029B     		ldr	r3, [sp, #8]
 469              	.LBE3:
1341:Drivers/STM32H5xx_HAL_Driver/Src/stm32h5xx_hal_rcc.c **** 
 470              		.loc 1 1341 5 view .LVU143
1344:Drivers/STM32H5xx_HAL_Driver/Src/stm32h5xx_hal_rcc.c ****     GPIO_InitStruct.Mode = GPIO_MODE_AF_PP;
 471              		.loc 1 1344 5 view .LVU144
1344:Drivers/STM32H5xx_HAL_Driver/Src/stm32h5xx_hal_rcc.c ****     GPIO_InitStruct.Mode = GPIO_MODE_AF_PP;
 472              		.loc 1 1344 25 is_stmt 0 view .LVU145
 473 006a 4FF40073 		mov	r3, #512
 474 006e 0393     		str	r3, [sp, #12]
1345:Drivers/STM32H5xx_HAL_Driver/Src/stm32h5xx_hal_rcc.c ****     GPIO_InitStruct.Speed = GPIO_SPEED_FREQ_VERY_HIGH;
 475              		.loc 1 1345 5 is_stmt 1 view .LVU146
1345:Drivers/STM32H5xx_HAL_Driver/Src/stm32h5xx_hal_rcc.c ****     GPIO_InitStruct.Speed = GPIO_SPEED_FREQ_VERY_HIGH;
 476              		.loc 1 1345 26 is_stmt 0 view .LVU147
 477 0070 0223     		movs	r3, #2
 478 0072 0493     		str	r3, [sp, #16]
1346:Drivers/STM32H5xx_HAL_Driver/Src/stm32h5xx_hal_rcc.c ****     GPIO_InitStruct.Pull = GPIO_NOPULL;
 479              		.loc 1 1346 5 is_stmt 1 view .LVU148
1346:Drivers/STM32H5xx_HAL_Driver/Src/stm32h5xx_hal_rcc.c ****     GPIO_InitStruct.Pull = GPIO_NOPULL;
 480              		.loc 1 1346 27 is_stmt 0 view .LVU149
 481 0074 0323     		movs	r3, #3
 482 0076 0693     		str	r3, [sp, #24]
1347:Drivers/STM32H5xx_HAL_Driver/Src/stm32h5xx_hal_rcc.c ****     GPIO_InitStruct.Alternate = GPIO_AF0_MCO;
 483              		.loc 1 1347 5 is_stmt 1 view .LVU150
1347:Drivers/STM32H5xx_HAL_Driver/Src/stm32h5xx_hal_rcc.c ****     GPIO_InitStruct.Alternate = GPIO_AF0_MCO;
 484              		.loc 1 1347 26 is_stmt 0 view .LVU151
 485 0078 0023     		movs	r3, #0
 486 007a 0593     		str	r3, [sp, #20]
1348:Drivers/STM32H5xx_HAL_Driver/Src/stm32h5xx_hal_rcc.c ****     HAL_GPIO_Init(MCO2_GPIO_PORT, &GPIO_InitStruct);
 487              		.loc 1 1348 5 is_stmt 1 view .LVU152
1348:Drivers/STM32H5xx_HAL_Driver/Src/stm32h5xx_hal_rcc.c ****     HAL_GPIO_Init(MCO2_GPIO_PORT, &GPIO_InitStruct);
 488              		.loc 1 1348 31 is_stmt 0 view .LVU153
 489 007c 0793     		str	r3, [sp, #28]
1349:Drivers/STM32H5xx_HAL_Driver/Src/stm32h5xx_hal_rcc.c **** 
 490              		.loc 1 1349 5 is_stmt 1 view .LVU154
 491 007e 03A9     		add	r1, sp, #12
 492              	.LVL31:
1349:Drivers/STM32H5xx_HAL_Driver/Src/stm32h5xx_hal_rcc.c **** 
 493              		.loc 1 1349 5 is_stmt 0 view .LVU155
 494 0080 0748     		ldr	r0, .L36+8
 495              	.LVL32:
1349:Drivers/STM32H5xx_HAL_Driver/Src/stm32h5xx_hal_rcc.c **** 
 496              		.loc 1 1349 5 view .LVU156
 497 0082 FFF7FEFF 		bl	HAL_GPIO_Init
 498              	.LVL33:
1352:Drivers/STM32H5xx_HAL_Driver/Src/stm32h5xx_hal_rcc.c ****   }
 499              		.loc 1 1352 5 is_stmt 1 view .LVU157
 500 0086 F369     		ldr	r3, [r6, #28]
 501 0088 23F07E43 		bic	r3, r3, #-33554432
 502 008c 44EAC514 		orr	r4, r4, r5, lsl #7
 503              	.LVL34:
1352:Drivers/STM32H5xx_HAL_Driver/Src/stm32h5xx_hal_rcc.c ****   }
 504              		.loc 1 1352 5 is_stmt 0 view .LVU158
 505 0090 1C43     		orrs	r4, r4, r3
 506 0092 F461     		str	r4, [r6, #28]
ARM GAS  C:\Users\sapph\AppData\Local\Temp\ccD3KfzI.s 			page 34


 507              		.loc 1 1354 1 view .LVU159
 508 0094 DAE7     		b	.L32
 509              	.L37:
 510 0096 00BF     		.align	2
 511              	.L36:
 512 0098 000C0244 		.word	1140984832
 513 009c 00000242 		.word	1107427328
 514 00a0 00080242 		.word	1107429376
 515              		.cfi_endproc
 516              	.LFE163:
 518              		.section	.text.HAL_RCC_GetSysClockFreq,"ax",%progbits
 519              		.align	1
 520              		.global	HAL_RCC_GetSysClockFreq
 521              		.syntax unified
 522              		.thumb
 523              		.thumb_func
 525              	HAL_RCC_GetSysClockFreq:
 526              	.LFB164:
1355:Drivers/STM32H5xx_HAL_Driver/Src/stm32h5xx_hal_rcc.c **** 
1356:Drivers/STM32H5xx_HAL_Driver/Src/stm32h5xx_hal_rcc.c **** /**
1357:Drivers/STM32H5xx_HAL_Driver/Src/stm32h5xx_hal_rcc.c ****   * @brief  Return the SYSCLK frequency.
1358:Drivers/STM32H5xx_HAL_Driver/Src/stm32h5xx_hal_rcc.c ****   *
1359:Drivers/STM32H5xx_HAL_Driver/Src/stm32h5xx_hal_rcc.c ****   * @note   The system frequency computed by this function may not be the real
1360:Drivers/STM32H5xx_HAL_Driver/Src/stm32h5xx_hal_rcc.c ****   *         frequency in the chip. It is calculated based on the predefined
1361:Drivers/STM32H5xx_HAL_Driver/Src/stm32h5xx_hal_rcc.c ****   *         constants of the selected clock source:
1362:Drivers/STM32H5xx_HAL_Driver/Src/stm32h5xx_hal_rcc.c ****   * @note     If SYSCLK source is HSI, function returns values based on HSI_VALUE(*)
1363:Drivers/STM32H5xx_HAL_Driver/Src/stm32h5xx_hal_rcc.c ****   * @note     If SYSCLK source is CSI, function returns values based on CSI_VALUE(**)
1364:Drivers/STM32H5xx_HAL_Driver/Src/stm32h5xx_hal_rcc.c ****   * @note     If SYSCLK source is HSE, function returns values based on HSE_VALUE(***)
1365:Drivers/STM32H5xx_HAL_Driver/Src/stm32h5xx_hal_rcc.c ****   * @note     If SYSCLK source is PLL, function returns values based on HSI_VALUE(*), CSI_VALUE(**)
1366:Drivers/STM32H5xx_HAL_Driver/Src/stm32h5xx_hal_rcc.c ****   *           or HSE_VALUE(***) multiplied/divided by the PLL factors.
1367:Drivers/STM32H5xx_HAL_Driver/Src/stm32h5xx_hal_rcc.c ****   * @note     (*) HSI_VALUE is a constant defined in stm32h5xx_hal_conf.h file (default value
1368:Drivers/STM32H5xx_HAL_Driver/Src/stm32h5xx_hal_rcc.c ****   *               64 MHz) but the real value may vary depending on the variations
1369:Drivers/STM32H5xx_HAL_Driver/Src/stm32h5xx_hal_rcc.c ****   *               in voltage and temperature.
1370:Drivers/STM32H5xx_HAL_Driver/Src/stm32h5xx_hal_rcc.c ****   * @note     (**) CSI_VALUE is a constant defined in stm32h5xx_hal_conf.h file (default value
1371:Drivers/STM32H5xx_HAL_Driver/Src/stm32h5xx_hal_rcc.c ****   *               4 MHz) but the real value may vary depending on the variations
1372:Drivers/STM32H5xx_HAL_Driver/Src/stm32h5xx_hal_rcc.c ****   *               in voltage and temperature.
1373:Drivers/STM32H5xx_HAL_Driver/Src/stm32h5xx_hal_rcc.c ****   * @note     (***) HSE_VALUE is a constant defined in stm32h5xx_hal_conf.h file (default value
1374:Drivers/STM32H5xx_HAL_Driver/Src/stm32h5xx_hal_rcc.c ****   *                24 MHz), user has to ensure that HSE_VALUE is same as the real
1375:Drivers/STM32H5xx_HAL_Driver/Src/stm32h5xx_hal_rcc.c ****   *                frequency of the crystal used. Otherwise, this function may
1376:Drivers/STM32H5xx_HAL_Driver/Src/stm32h5xx_hal_rcc.c ****   *                have wrong result.
1377:Drivers/STM32H5xx_HAL_Driver/Src/stm32h5xx_hal_rcc.c ****   *
1378:Drivers/STM32H5xx_HAL_Driver/Src/stm32h5xx_hal_rcc.c ****   * @note   The result of this function could be not correct when using fractional
1379:Drivers/STM32H5xx_HAL_Driver/Src/stm32h5xx_hal_rcc.c ****   *         value for HSE crystal.
1380:Drivers/STM32H5xx_HAL_Driver/Src/stm32h5xx_hal_rcc.c ****   *
1381:Drivers/STM32H5xx_HAL_Driver/Src/stm32h5xx_hal_rcc.c ****   * @note   This function can be used by the user application to compute the
1382:Drivers/STM32H5xx_HAL_Driver/Src/stm32h5xx_hal_rcc.c ****   *         baudrate for the communication peripherals or configure other parameters.
1383:Drivers/STM32H5xx_HAL_Driver/Src/stm32h5xx_hal_rcc.c ****   *
1384:Drivers/STM32H5xx_HAL_Driver/Src/stm32h5xx_hal_rcc.c ****   * @note   Each time SYSCLK changes, this function must be called to update the
1385:Drivers/STM32H5xx_HAL_Driver/Src/stm32h5xx_hal_rcc.c ****   *         right SYSCLK value. Otherwise, any configuration based on this function will be incorre
1386:Drivers/STM32H5xx_HAL_Driver/Src/stm32h5xx_hal_rcc.c ****   *
1387:Drivers/STM32H5xx_HAL_Driver/Src/stm32h5xx_hal_rcc.c ****   *
1388:Drivers/STM32H5xx_HAL_Driver/Src/stm32h5xx_hal_rcc.c ****   * @retval SYSCLK frequency
1389:Drivers/STM32H5xx_HAL_Driver/Src/stm32h5xx_hal_rcc.c ****   */
1390:Drivers/STM32H5xx_HAL_Driver/Src/stm32h5xx_hal_rcc.c **** uint32_t HAL_RCC_GetSysClockFreq(void)
1391:Drivers/STM32H5xx_HAL_Driver/Src/stm32h5xx_hal_rcc.c **** {
 527              		.loc 1 1391 1 is_stmt 1 view -0
 528              		.cfi_startproc
ARM GAS  C:\Users\sapph\AppData\Local\Temp\ccD3KfzI.s 			page 35


 529              		@ args = 0, pretend = 0, frame = 0
 530              		@ frame_needed = 0, uses_anonymous_args = 0
 531              		@ link register save eliminated.
1392:Drivers/STM32H5xx_HAL_Driver/Src/stm32h5xx_hal_rcc.c ****   uint32_t pllsource;
 532              		.loc 1 1392 3 view .LVU161
1393:Drivers/STM32H5xx_HAL_Driver/Src/stm32h5xx_hal_rcc.c ****   uint32_t pllp;
 533              		.loc 1 1393 3 view .LVU162
1394:Drivers/STM32H5xx_HAL_Driver/Src/stm32h5xx_hal_rcc.c ****   uint32_t pllm;
 534              		.loc 1 1394 3 view .LVU163
1395:Drivers/STM32H5xx_HAL_Driver/Src/stm32h5xx_hal_rcc.c ****   uint32_t pllfracen;
 535              		.loc 1 1395 3 view .LVU164
1396:Drivers/STM32H5xx_HAL_Driver/Src/stm32h5xx_hal_rcc.c ****   uint32_t sysclockfreq;
 536              		.loc 1 1396 3 view .LVU165
1397:Drivers/STM32H5xx_HAL_Driver/Src/stm32h5xx_hal_rcc.c ****   uint32_t hsivalue;
 537              		.loc 1 1397 3 view .LVU166
1398:Drivers/STM32H5xx_HAL_Driver/Src/stm32h5xx_hal_rcc.c ****   float_t fracn1;
 538              		.loc 1 1398 3 view .LVU167
1399:Drivers/STM32H5xx_HAL_Driver/Src/stm32h5xx_hal_rcc.c ****   float_t pllvco;
 539              		.loc 1 1399 3 view .LVU168
1400:Drivers/STM32H5xx_HAL_Driver/Src/stm32h5xx_hal_rcc.c **** 
1401:Drivers/STM32H5xx_HAL_Driver/Src/stm32h5xx_hal_rcc.c ****   if (__HAL_RCC_GET_SYSCLK_SOURCE() == RCC_SYSCLKSOURCE_STATUS_CSI)
 540              		.loc 1 1401 3 view .LVU169
 541              		.loc 1 1401 7 is_stmt 0 view .LVU170
 542 0000 6D4B     		ldr	r3, .L56
 543 0002 DB69     		ldr	r3, [r3, #28]
 544 0004 03F01803 		and	r3, r3, #24
 545              		.loc 1 1401 6 view .LVU171
 546 0008 082B     		cmp	r3, #8
 547 000a 00F0CE80 		beq	.L46
1402:Drivers/STM32H5xx_HAL_Driver/Src/stm32h5xx_hal_rcc.c ****   {
1403:Drivers/STM32H5xx_HAL_Driver/Src/stm32h5xx_hal_rcc.c ****     /* CSI used as system clock  source */
1404:Drivers/STM32H5xx_HAL_Driver/Src/stm32h5xx_hal_rcc.c ****     sysclockfreq = CSI_VALUE;
1405:Drivers/STM32H5xx_HAL_Driver/Src/stm32h5xx_hal_rcc.c ****   }
1406:Drivers/STM32H5xx_HAL_Driver/Src/stm32h5xx_hal_rcc.c ****   else if (__HAL_RCC_GET_SYSCLK_SOURCE() == RCC_SYSCLKSOURCE_STATUS_HSI)
 548              		.loc 1 1406 8 is_stmt 1 view .LVU172
 549              		.loc 1 1406 12 is_stmt 0 view .LVU173
 550 000e 6A4B     		ldr	r3, .L56
 551 0010 DB69     		ldr	r3, [r3, #28]
 552              		.loc 1 1406 11 view .LVU174
 553 0012 13F0180F 		tst	r3, #24
 554 0016 0CD1     		bne	.L40
1407:Drivers/STM32H5xx_HAL_Driver/Src/stm32h5xx_hal_rcc.c ****   {
1408:Drivers/STM32H5xx_HAL_Driver/Src/stm32h5xx_hal_rcc.c ****     /* HSI used as system clock source */
1409:Drivers/STM32H5xx_HAL_Driver/Src/stm32h5xx_hal_rcc.c ****     if (__HAL_RCC_GET_FLAG(RCC_FLAG_HSIDIVF) != 0U)
 555              		.loc 1 1409 5 is_stmt 1 view .LVU175
 556              		.loc 1 1409 9 is_stmt 0 view .LVU176
 557 0018 674B     		ldr	r3, .L56
 558 001a 1B68     		ldr	r3, [r3]
 559              		.loc 1 1409 8 view .LVU177
 560 001c 13F0200F 		tst	r3, #32
 561 0020 00F0C580 		beq	.L47
1410:Drivers/STM32H5xx_HAL_Driver/Src/stm32h5xx_hal_rcc.c ****     {
1411:Drivers/STM32H5xx_HAL_Driver/Src/stm32h5xx_hal_rcc.c ****       sysclockfreq = (uint32_t)(HSI_VALUE >> (__HAL_RCC_GET_HSI_DIVIDER() >> RCC_CR_HSIDIV_Pos));
 562              		.loc 1 1411 7 is_stmt 1 view .LVU178
 563              		.loc 1 1411 47 is_stmt 0 view .LVU179
 564 0024 644B     		ldr	r3, .L56
 565 0026 1B68     		ldr	r3, [r3]
ARM GAS  C:\Users\sapph\AppData\Local\Temp\ccD3KfzI.s 			page 36


 566              		.loc 1 1411 75 view .LVU180
 567 0028 C3F3C103 		ubfx	r3, r3, #3, #2
 568              		.loc 1 1411 20 view .LVU181
 569 002c 6348     		ldr	r0, .L56+4
 570 002e D840     		lsrs	r0, r0, r3
 571              	.LVL35:
 572              		.loc 1 1411 20 view .LVU182
 573 0030 7047     		bx	lr
 574              	.LVL36:
 575              	.L40:
1412:Drivers/STM32H5xx_HAL_Driver/Src/stm32h5xx_hal_rcc.c ****     }
1413:Drivers/STM32H5xx_HAL_Driver/Src/stm32h5xx_hal_rcc.c ****     else
1414:Drivers/STM32H5xx_HAL_Driver/Src/stm32h5xx_hal_rcc.c ****     {
1415:Drivers/STM32H5xx_HAL_Driver/Src/stm32h5xx_hal_rcc.c ****       sysclockfreq = (uint32_t) HSI_VALUE;
1416:Drivers/STM32H5xx_HAL_Driver/Src/stm32h5xx_hal_rcc.c ****     }
1417:Drivers/STM32H5xx_HAL_Driver/Src/stm32h5xx_hal_rcc.c ****   }
1418:Drivers/STM32H5xx_HAL_Driver/Src/stm32h5xx_hal_rcc.c ****   else if (__HAL_RCC_GET_SYSCLK_SOURCE() == RCC_SYSCLKSOURCE_STATUS_HSE)
 576              		.loc 1 1418 8 is_stmt 1 view .LVU183
 577              		.loc 1 1418 12 is_stmt 0 view .LVU184
 578 0032 614B     		ldr	r3, .L56
 579 0034 DB69     		ldr	r3, [r3, #28]
 580 0036 03F01803 		and	r3, r3, #24
 581              		.loc 1 1418 11 view .LVU185
 582 003a 102B     		cmp	r3, #16
 583 003c 00F0B980 		beq	.L48
1419:Drivers/STM32H5xx_HAL_Driver/Src/stm32h5xx_hal_rcc.c ****   {
1420:Drivers/STM32H5xx_HAL_Driver/Src/stm32h5xx_hal_rcc.c ****     /* HSE used as system clock source */
1421:Drivers/STM32H5xx_HAL_Driver/Src/stm32h5xx_hal_rcc.c ****     sysclockfreq = HSE_VALUE;
1422:Drivers/STM32H5xx_HAL_Driver/Src/stm32h5xx_hal_rcc.c ****   }
1423:Drivers/STM32H5xx_HAL_Driver/Src/stm32h5xx_hal_rcc.c **** 
1424:Drivers/STM32H5xx_HAL_Driver/Src/stm32h5xx_hal_rcc.c ****   else if (__HAL_RCC_GET_SYSCLK_SOURCE() == RCC_SYSCLKSOURCE_STATUS_PLLCLK)
 584              		.loc 1 1424 8 is_stmt 1 view .LVU186
 585              		.loc 1 1424 12 is_stmt 0 view .LVU187
 586 0040 5D4B     		ldr	r3, .L56
 587 0042 DB69     		ldr	r3, [r3, #28]
 588 0044 03F01803 		and	r3, r3, #24
 589              		.loc 1 1424 11 view .LVU188
 590 0048 182B     		cmp	r3, #24
 591 004a 01D0     		beq	.L55
1425:Drivers/STM32H5xx_HAL_Driver/Src/stm32h5xx_hal_rcc.c ****   {
1426:Drivers/STM32H5xx_HAL_Driver/Src/stm32h5xx_hal_rcc.c ****     /* PLL used as system clock  source */
1427:Drivers/STM32H5xx_HAL_Driver/Src/stm32h5xx_hal_rcc.c **** 
1428:Drivers/STM32H5xx_HAL_Driver/Src/stm32h5xx_hal_rcc.c ****     /* PLL_VCO = (HSE_VALUE or HSI_VALUE or CSI_VALUE/ PLLM) * PLLN
1429:Drivers/STM32H5xx_HAL_Driver/Src/stm32h5xx_hal_rcc.c ****     SYSCLK = PLL_VCO / PLLR
1430:Drivers/STM32H5xx_HAL_Driver/Src/stm32h5xx_hal_rcc.c ****     */
1431:Drivers/STM32H5xx_HAL_Driver/Src/stm32h5xx_hal_rcc.c ****     pllsource = (RCC->PLL1CFGR & RCC_PLL1CFGR_PLL1SRC);
1432:Drivers/STM32H5xx_HAL_Driver/Src/stm32h5xx_hal_rcc.c ****     pllm = ((RCC->PLL1CFGR & RCC_PLL1CFGR_PLL1M) >> RCC_PLL1CFGR_PLL1M_Pos);
1433:Drivers/STM32H5xx_HAL_Driver/Src/stm32h5xx_hal_rcc.c ****     pllfracen = ((RCC->PLL1CFGR & RCC_PLL1CFGR_PLL1FRACEN) >> RCC_PLL1CFGR_PLL1FRACEN_Pos);
1434:Drivers/STM32H5xx_HAL_Driver/Src/stm32h5xx_hal_rcc.c ****     fracn1 = (float_t)(uint32_t)(pllfracen * ((RCC->PLL1FRACR & \
1435:Drivers/STM32H5xx_HAL_Driver/Src/stm32h5xx_hal_rcc.c ****                                                RCC_PLL1FRACR_PLL1FRACN) >> RCC_PLL1FRACR_PLL1FRACN_
1436:Drivers/STM32H5xx_HAL_Driver/Src/stm32h5xx_hal_rcc.c **** 
1437:Drivers/STM32H5xx_HAL_Driver/Src/stm32h5xx_hal_rcc.c ****     if (pllm != 0U)
1438:Drivers/STM32H5xx_HAL_Driver/Src/stm32h5xx_hal_rcc.c ****     {
1439:Drivers/STM32H5xx_HAL_Driver/Src/stm32h5xx_hal_rcc.c ****       switch (pllsource)
1440:Drivers/STM32H5xx_HAL_Driver/Src/stm32h5xx_hal_rcc.c ****       {
1441:Drivers/STM32H5xx_HAL_Driver/Src/stm32h5xx_hal_rcc.c ****         case RCC_PLL1_SOURCE_HSI:  /* HSI used as PLL1 clock source */
1442:Drivers/STM32H5xx_HAL_Driver/Src/stm32h5xx_hal_rcc.c **** 
ARM GAS  C:\Users\sapph\AppData\Local\Temp\ccD3KfzI.s 			page 37


1443:Drivers/STM32H5xx_HAL_Driver/Src/stm32h5xx_hal_rcc.c ****           if (__HAL_RCC_GET_FLAG(RCC_FLAG_HSIDIVF) != 0U)
1444:Drivers/STM32H5xx_HAL_Driver/Src/stm32h5xx_hal_rcc.c ****           {
1445:Drivers/STM32H5xx_HAL_Driver/Src/stm32h5xx_hal_rcc.c ****             hsivalue = (HSI_VALUE >> (__HAL_RCC_GET_HSI_DIVIDER() >> RCC_CR_HSIDIV_Pos));
1446:Drivers/STM32H5xx_HAL_Driver/Src/stm32h5xx_hal_rcc.c ****             pllvco = ((float_t)hsivalue / (float_t)pllm) * ((float_t)(uint32_t)(RCC->PLL1DIVR & RCC
1447:Drivers/STM32H5xx_HAL_Driver/Src/stm32h5xx_hal_rcc.c ****                                                             (fracn1 / (float_t)0x2000) + (float_t)1
1448:Drivers/STM32H5xx_HAL_Driver/Src/stm32h5xx_hal_rcc.c ****           }
1449:Drivers/STM32H5xx_HAL_Driver/Src/stm32h5xx_hal_rcc.c ****           else
1450:Drivers/STM32H5xx_HAL_Driver/Src/stm32h5xx_hal_rcc.c ****           {
1451:Drivers/STM32H5xx_HAL_Driver/Src/stm32h5xx_hal_rcc.c ****             pllvco = ((float_t)HSI_VALUE / (float_t)pllm) * ((float_t)(uint32_t)(RCC->PLL1DIVR & RC
1452:Drivers/STM32H5xx_HAL_Driver/Src/stm32h5xx_hal_rcc.c ****                                                              (fracn1 / (float_t)0x2000) + (float_t)
1453:Drivers/STM32H5xx_HAL_Driver/Src/stm32h5xx_hal_rcc.c ****           }
1454:Drivers/STM32H5xx_HAL_Driver/Src/stm32h5xx_hal_rcc.c **** 
1455:Drivers/STM32H5xx_HAL_Driver/Src/stm32h5xx_hal_rcc.c ****           break;
1456:Drivers/STM32H5xx_HAL_Driver/Src/stm32h5xx_hal_rcc.c **** 
1457:Drivers/STM32H5xx_HAL_Driver/Src/stm32h5xx_hal_rcc.c ****         case RCC_PLL1_SOURCE_HSE:  /* HSE used as PLL1 clock source */
1458:Drivers/STM32H5xx_HAL_Driver/Src/stm32h5xx_hal_rcc.c ****           pllvco = ((float_t)HSE_VALUE / (float_t)pllm) * ((float_t)(uint32_t)(RCC->PLL1DIVR & RCC_
1459:Drivers/STM32H5xx_HAL_Driver/Src/stm32h5xx_hal_rcc.c ****                                                            (fracn1 / (float_t)0x2000) + (float_t)1)
1460:Drivers/STM32H5xx_HAL_Driver/Src/stm32h5xx_hal_rcc.c **** 
1461:Drivers/STM32H5xx_HAL_Driver/Src/stm32h5xx_hal_rcc.c ****           break;
1462:Drivers/STM32H5xx_HAL_Driver/Src/stm32h5xx_hal_rcc.c **** 
1463:Drivers/STM32H5xx_HAL_Driver/Src/stm32h5xx_hal_rcc.c ****         case RCC_PLL1_SOURCE_CSI:  /* CSI used as PLL1 clock source */
1464:Drivers/STM32H5xx_HAL_Driver/Src/stm32h5xx_hal_rcc.c ****         default:
1465:Drivers/STM32H5xx_HAL_Driver/Src/stm32h5xx_hal_rcc.c ****           pllvco = ((float_t)CSI_VALUE / (float_t)pllm) * ((float_t)(uint32_t)(RCC->PLL1DIVR & RCC_
1466:Drivers/STM32H5xx_HAL_Driver/Src/stm32h5xx_hal_rcc.c ****                                                            (fracn1 / (float_t)0x2000) + (float_t)1)
1467:Drivers/STM32H5xx_HAL_Driver/Src/stm32h5xx_hal_rcc.c ****           break;
1468:Drivers/STM32H5xx_HAL_Driver/Src/stm32h5xx_hal_rcc.c ****       }
1469:Drivers/STM32H5xx_HAL_Driver/Src/stm32h5xx_hal_rcc.c **** 
1470:Drivers/STM32H5xx_HAL_Driver/Src/stm32h5xx_hal_rcc.c ****       pllp = (((RCC->PLL1DIVR & RCC_PLL1DIVR_PLL1P) >> RCC_PLL1DIVR_PLL1P_Pos) + 1U) ;
1471:Drivers/STM32H5xx_HAL_Driver/Src/stm32h5xx_hal_rcc.c ****       sysclockfreq = (uint32_t)(float_t)(pllvco / (float_t)pllp);
1472:Drivers/STM32H5xx_HAL_Driver/Src/stm32h5xx_hal_rcc.c ****     }
1473:Drivers/STM32H5xx_HAL_Driver/Src/stm32h5xx_hal_rcc.c ****     else
1474:Drivers/STM32H5xx_HAL_Driver/Src/stm32h5xx_hal_rcc.c ****     {
1475:Drivers/STM32H5xx_HAL_Driver/Src/stm32h5xx_hal_rcc.c ****       sysclockfreq = 0;
1476:Drivers/STM32H5xx_HAL_Driver/Src/stm32h5xx_hal_rcc.c ****     }
1477:Drivers/STM32H5xx_HAL_Driver/Src/stm32h5xx_hal_rcc.c ****   }
1478:Drivers/STM32H5xx_HAL_Driver/Src/stm32h5xx_hal_rcc.c **** 
1479:Drivers/STM32H5xx_HAL_Driver/Src/stm32h5xx_hal_rcc.c ****   else
1480:Drivers/STM32H5xx_HAL_Driver/Src/stm32h5xx_hal_rcc.c ****   {
1481:Drivers/STM32H5xx_HAL_Driver/Src/stm32h5xx_hal_rcc.c ****     /* HSI is the default system clock source */
1482:Drivers/STM32H5xx_HAL_Driver/Src/stm32h5xx_hal_rcc.c ****     sysclockfreq = (uint32_t) HSI_VALUE;
 592              		.loc 1 1482 18 view .LVU189
 593 004c 5B48     		ldr	r0, .L56+4
 594              	.LVL37:
1483:Drivers/STM32H5xx_HAL_Driver/Src/stm32h5xx_hal_rcc.c ****   }
1484:Drivers/STM32H5xx_HAL_Driver/Src/stm32h5xx_hal_rcc.c **** 
1485:Drivers/STM32H5xx_HAL_Driver/Src/stm32h5xx_hal_rcc.c ****   return sysclockfreq;
 595              		.loc 1 1485 3 is_stmt 1 view .LVU190
1486:Drivers/STM32H5xx_HAL_Driver/Src/stm32h5xx_hal_rcc.c **** }
 596              		.loc 1 1486 1 is_stmt 0 view .LVU191
 597 004e 7047     		bx	lr
 598              	.LVL38:
 599              	.L55:
1391:Drivers/STM32H5xx_HAL_Driver/Src/stm32h5xx_hal_rcc.c ****   uint32_t pllsource;
 600              		.loc 1 1391 1 view .LVU192
 601 0050 10B4     		push	{r4}
 602              		.cfi_def_cfa_offset 4
 603              		.cfi_offset 4, -4
ARM GAS  C:\Users\sapph\AppData\Local\Temp\ccD3KfzI.s 			page 38


1431:Drivers/STM32H5xx_HAL_Driver/Src/stm32h5xx_hal_rcc.c ****     pllm = ((RCC->PLL1CFGR & RCC_PLL1CFGR_PLL1M) >> RCC_PLL1CFGR_PLL1M_Pos);
 604              		.loc 1 1431 5 is_stmt 1 view .LVU193
1431:Drivers/STM32H5xx_HAL_Driver/Src/stm32h5xx_hal_rcc.c ****     pllm = ((RCC->PLL1CFGR & RCC_PLL1CFGR_PLL1M) >> RCC_PLL1CFGR_PLL1M_Pos);
 605              		.loc 1 1431 21 is_stmt 0 view .LVU194
 606 0052 594B     		ldr	r3, .L56
 607 0054 996A     		ldr	r1, [r3, #40]
1431:Drivers/STM32H5xx_HAL_Driver/Src/stm32h5xx_hal_rcc.c ****     pllm = ((RCC->PLL1CFGR & RCC_PLL1CFGR_PLL1M) >> RCC_PLL1CFGR_PLL1M_Pos);
 608              		.loc 1 1431 15 view .LVU195
 609 0056 01F00301 		and	r1, r1, #3
 610              	.LVL39:
1432:Drivers/STM32H5xx_HAL_Driver/Src/stm32h5xx_hal_rcc.c ****     pllfracen = ((RCC->PLL1CFGR & RCC_PLL1CFGR_PLL1FRACEN) >> RCC_PLL1CFGR_PLL1FRACEN_Pos);
 611              		.loc 1 1432 5 is_stmt 1 view .LVU196
1432:Drivers/STM32H5xx_HAL_Driver/Src/stm32h5xx_hal_rcc.c ****     pllfracen = ((RCC->PLL1CFGR & RCC_PLL1CFGR_PLL1FRACEN) >> RCC_PLL1CFGR_PLL1FRACEN_Pos);
 612              		.loc 1 1432 17 is_stmt 0 view .LVU197
 613 005a 9C6A     		ldr	r4, [r3, #40]
1432:Drivers/STM32H5xx_HAL_Driver/Src/stm32h5xx_hal_rcc.c ****     pllfracen = ((RCC->PLL1CFGR & RCC_PLL1CFGR_PLL1FRACEN) >> RCC_PLL1CFGR_PLL1FRACEN_Pos);
 614              		.loc 1 1432 10 view .LVU198
 615 005c C4F30520 		ubfx	r0, r4, #8, #6
 616              	.LVL40:
1433:Drivers/STM32H5xx_HAL_Driver/Src/stm32h5xx_hal_rcc.c ****     fracn1 = (float_t)(uint32_t)(pllfracen * ((RCC->PLL1FRACR & \
 617              		.loc 1 1433 5 is_stmt 1 view .LVU199
1433:Drivers/STM32H5xx_HAL_Driver/Src/stm32h5xx_hal_rcc.c ****     fracn1 = (float_t)(uint32_t)(pllfracen * ((RCC->PLL1FRACR & \
 618              		.loc 1 1433 22 is_stmt 0 view .LVU200
 619 0060 9A6A     		ldr	r2, [r3, #40]
1433:Drivers/STM32H5xx_HAL_Driver/Src/stm32h5xx_hal_rcc.c ****     fracn1 = (float_t)(uint32_t)(pllfracen * ((RCC->PLL1FRACR & \
 620              		.loc 1 1433 15 view .LVU201
 621 0062 C2F30012 		ubfx	r2, r2, #4, #1
 622              	.LVL41:
1434:Drivers/STM32H5xx_HAL_Driver/Src/stm32h5xx_hal_rcc.c ****                                                RCC_PLL1FRACR_PLL1FRACN) >> RCC_PLL1FRACR_PLL1FRACN_
 623              		.loc 1 1434 5 is_stmt 1 view .LVU202
1434:Drivers/STM32H5xx_HAL_Driver/Src/stm32h5xx_hal_rcc.c ****                                                RCC_PLL1FRACR_PLL1FRACN) >> RCC_PLL1FRACR_PLL1FRACN_
 624              		.loc 1 1434 51 is_stmt 0 view .LVU203
 625 0066 9B6B     		ldr	r3, [r3, #56]
1435:Drivers/STM32H5xx_HAL_Driver/Src/stm32h5xx_hal_rcc.c **** 
 626              		.loc 1 1435 73 view .LVU204
 627 0068 C3F3CC03 		ubfx	r3, r3, #3, #13
1434:Drivers/STM32H5xx_HAL_Driver/Src/stm32h5xx_hal_rcc.c ****                                                RCC_PLL1FRACR_PLL1FRACN) >> RCC_PLL1FRACR_PLL1FRACN_
 628              		.loc 1 1434 23 view .LVU205
 629 006c 02FB03F3 		mul	r3, r2, r3
1434:Drivers/STM32H5xx_HAL_Driver/Src/stm32h5xx_hal_rcc.c ****                                                RCC_PLL1FRACR_PLL1FRACN) >> RCC_PLL1FRACR_PLL1FRACN_
 630              		.loc 1 1434 12 view .LVU206
 631 0070 07EE903A 		vmov	s15, r3	@ int
 632 0074 F8EE677A 		vcvt.f32.u32	s15, s15
 633              	.LVL42:
1437:Drivers/STM32H5xx_HAL_Driver/Src/stm32h5xx_hal_rcc.c ****     {
 634              		.loc 1 1437 5 is_stmt 1 view .LVU207
1437:Drivers/STM32H5xx_HAL_Driver/Src/stm32h5xx_hal_rcc.c ****     {
 635              		.loc 1 1437 8 is_stmt 0 view .LVU208
 636 0078 14F47C5F 		tst	r4, #16128
 637 007c 00F09280 		beq	.L38
1439:Drivers/STM32H5xx_HAL_Driver/Src/stm32h5xx_hal_rcc.c ****       {
 638              		.loc 1 1439 7 is_stmt 1 view .LVU209
 639 0080 0129     		cmp	r1, #1
 640 0082 1ED0     		beq	.L41
 641 0084 0329     		cmp	r1, #3
 642 0086 62D0     		beq	.L42
1465:Drivers/STM32H5xx_HAL_Driver/Src/stm32h5xx_hal_rcc.c ****                                                            (fracn1 / (float_t)0x2000) + (float_t)1)
ARM GAS  C:\Users\sapph\AppData\Local\Temp\ccD3KfzI.s 			page 39


 643              		.loc 1 1465 11 view .LVU210
1465:Drivers/STM32H5xx_HAL_Driver/Src/stm32h5xx_hal_rcc.c ****                                                            (fracn1 / (float_t)0x2000) + (float_t)1)
 644              		.loc 1 1465 42 is_stmt 0 view .LVU211
 645 0088 07EE100A 		vmov	s14, r0	@ int
 646 008c F8EE476A 		vcvt.f32.u32	s13, s14
1465:Drivers/STM32H5xx_HAL_Driver/Src/stm32h5xx_hal_rcc.c ****                                                            (fracn1 / (float_t)0x2000) + (float_t)1)
 647              		.loc 1 1465 40 view .LVU212
 648 0090 9FED4B6A 		vldr.32	s12, .L56+8
 649 0094 86EE267A 		vdiv.f32	s14, s12, s13
1465:Drivers/STM32H5xx_HAL_Driver/Src/stm32h5xx_hal_rcc.c ****                                                            (fracn1 / (float_t)0x2000) + (float_t)1)
 650              		.loc 1 1465 83 view .LVU213
 651 0098 474B     		ldr	r3, .L56
 652 009a 5B6B     		ldr	r3, [r3, #52]
1465:Drivers/STM32H5xx_HAL_Driver/Src/stm32h5xx_hal_rcc.c ****                                                            (fracn1 / (float_t)0x2000) + (float_t)1)
 653              		.loc 1 1465 69 view .LVU214
 654 009c C3F30803 		ubfx	r3, r3, #0, #9
1465:Drivers/STM32H5xx_HAL_Driver/Src/stm32h5xx_hal_rcc.c ****                                                            (fracn1 / (float_t)0x2000) + (float_t)1)
 655              		.loc 1 1465 60 view .LVU215
 656 00a0 06EE903A 		vmov	s13, r3	@ int
 657 00a4 F8EE666A 		vcvt.f32.u32	s13, s13
1466:Drivers/STM32H5xx_HAL_Driver/Src/stm32h5xx_hal_rcc.c ****           break;
 658              		.loc 1 1466 68 view .LVU216
 659 00a8 9FED466A 		vldr.32	s12, .L56+12
 660 00ac 67EE867A 		vmul.f32	s15, s15, s12
 661              	.LVL43:
1465:Drivers/STM32H5xx_HAL_Driver/Src/stm32h5xx_hal_rcc.c ****                                                            (fracn1 / (float_t)0x2000) + (float_t)1)
 662              		.loc 1 1465 116 view .LVU217
 663 00b0 76EEA77A 		vadd.f32	s15, s13, s15
1466:Drivers/STM32H5xx_HAL_Driver/Src/stm32h5xx_hal_rcc.c ****           break;
 664              		.loc 1 1466 87 view .LVU218
 665 00b4 F7EE006A 		vmov.f32	s13, #1.0e+0
 666 00b8 77EEA67A 		vadd.f32	s15, s15, s13
1465:Drivers/STM32H5xx_HAL_Driver/Src/stm32h5xx_hal_rcc.c ****                                                            (fracn1 / (float_t)0x2000) + (float_t)1)
 667              		.loc 1 1465 18 view .LVU219
 668 00bc 27EE277A 		vmul.f32	s14, s14, s15
 669              	.LVL44:
1467:Drivers/STM32H5xx_HAL_Driver/Src/stm32h5xx_hal_rcc.c ****       }
 670              		.loc 1 1467 11 is_stmt 1 view .LVU220
 671 00c0 61E0     		b	.L45
 672              	.LVL45:
 673              	.L41:
1443:Drivers/STM32H5xx_HAL_Driver/Src/stm32h5xx_hal_rcc.c ****           {
 674              		.loc 1 1443 11 view .LVU221
1443:Drivers/STM32H5xx_HAL_Driver/Src/stm32h5xx_hal_rcc.c ****           {
 675              		.loc 1 1443 15 is_stmt 0 view .LVU222
 676 00c2 3D4B     		ldr	r3, .L56
 677 00c4 1B68     		ldr	r3, [r3]
1443:Drivers/STM32H5xx_HAL_Driver/Src/stm32h5xx_hal_rcc.c ****           {
 678              		.loc 1 1443 14 view .LVU223
 679 00c6 13F0200F 		tst	r3, #32
 680 00ca 23D0     		beq	.L44
1445:Drivers/STM32H5xx_HAL_Driver/Src/stm32h5xx_hal_rcc.c ****             pllvco = ((float_t)hsivalue / (float_t)pllm) * ((float_t)(uint32_t)(RCC->PLL1DIVR & RCC
 681              		.loc 1 1445 13 is_stmt 1 view .LVU224
1445:Drivers/STM32H5xx_HAL_Driver/Src/stm32h5xx_hal_rcc.c ****             pllvco = ((float_t)hsivalue / (float_t)pllm) * ((float_t)(uint32_t)(RCC->PLL1DIVR & RCC
 682              		.loc 1 1445 39 is_stmt 0 view .LVU225
 683 00cc 3A49     		ldr	r1, .L56
 684              	.LVL46:
ARM GAS  C:\Users\sapph\AppData\Local\Temp\ccD3KfzI.s 			page 40


1445:Drivers/STM32H5xx_HAL_Driver/Src/stm32h5xx_hal_rcc.c ****             pllvco = ((float_t)hsivalue / (float_t)pllm) * ((float_t)(uint32_t)(RCC->PLL1DIVR & RCC
 685              		.loc 1 1445 39 view .LVU226
 686 00ce 0A68     		ldr	r2, [r1]
 687              	.LVL47:
1445:Drivers/STM32H5xx_HAL_Driver/Src/stm32h5xx_hal_rcc.c ****             pllvco = ((float_t)hsivalue / (float_t)pllm) * ((float_t)(uint32_t)(RCC->PLL1DIVR & RCC
 688              		.loc 1 1445 67 view .LVU227
 689 00d0 C2F3C102 		ubfx	r2, r2, #3, #2
1445:Drivers/STM32H5xx_HAL_Driver/Src/stm32h5xx_hal_rcc.c ****             pllvco = ((float_t)hsivalue / (float_t)pllm) * ((float_t)(uint32_t)(RCC->PLL1DIVR & RCC
 690              		.loc 1 1445 22 view .LVU228
 691 00d4 394B     		ldr	r3, .L56+4
 692 00d6 D340     		lsrs	r3, r3, r2
 693              	.LVL48:
1446:Drivers/STM32H5xx_HAL_Driver/Src/stm32h5xx_hal_rcc.c ****                                                             (fracn1 / (float_t)0x2000) + (float_t)1
 694              		.loc 1 1446 13 is_stmt 1 view .LVU229
1446:Drivers/STM32H5xx_HAL_Driver/Src/stm32h5xx_hal_rcc.c ****                                                             (fracn1 / (float_t)0x2000) + (float_t)1
 695              		.loc 1 1446 23 is_stmt 0 view .LVU230
 696 00d8 07EE103A 		vmov	s14, r3	@ int
 697 00dc F8EE476A 		vcvt.f32.u32	s13, s14
1446:Drivers/STM32H5xx_HAL_Driver/Src/stm32h5xx_hal_rcc.c ****                                                             (fracn1 / (float_t)0x2000) + (float_t)1
 698              		.loc 1 1446 43 view .LVU231
 699 00e0 07EE100A 		vmov	s14, r0	@ int
 700 00e4 B8EE476A 		vcvt.f32.u32	s12, s14
1446:Drivers/STM32H5xx_HAL_Driver/Src/stm32h5xx_hal_rcc.c ****                                                             (fracn1 / (float_t)0x2000) + (float_t)1
 701              		.loc 1 1446 41 view .LVU232
 702 00e8 86EE867A 		vdiv.f32	s14, s13, s12
1446:Drivers/STM32H5xx_HAL_Driver/Src/stm32h5xx_hal_rcc.c ****                                                             (fracn1 / (float_t)0x2000) + (float_t)1
 703              		.loc 1 1446 84 view .LVU233
 704 00ec 4B6B     		ldr	r3, [r1, #52]
 705              	.LVL49:
1446:Drivers/STM32H5xx_HAL_Driver/Src/stm32h5xx_hal_rcc.c ****                                                             (fracn1 / (float_t)0x2000) + (float_t)1
 706              		.loc 1 1446 70 view .LVU234
 707 00ee C3F30803 		ubfx	r3, r3, #0, #9
1446:Drivers/STM32H5xx_HAL_Driver/Src/stm32h5xx_hal_rcc.c ****                                                             (fracn1 / (float_t)0x2000) + (float_t)1
 708              		.loc 1 1446 61 view .LVU235
 709 00f2 06EE903A 		vmov	s13, r3	@ int
 710 00f6 F8EE666A 		vcvt.f32.u32	s13, s13
1447:Drivers/STM32H5xx_HAL_Driver/Src/stm32h5xx_hal_rcc.c ****           }
 711              		.loc 1 1447 69 view .LVU236
 712 00fa 9FED326A 		vldr.32	s12, .L56+12
 713 00fe 67EE867A 		vmul.f32	s15, s15, s12
 714              	.LVL50:
1446:Drivers/STM32H5xx_HAL_Driver/Src/stm32h5xx_hal_rcc.c ****                                                             (fracn1 / (float_t)0x2000) + (float_t)1
 715              		.loc 1 1446 117 view .LVU237
 716 0102 76EEA77A 		vadd.f32	s15, s13, s15
1447:Drivers/STM32H5xx_HAL_Driver/Src/stm32h5xx_hal_rcc.c ****           }
 717              		.loc 1 1447 88 view .LVU238
 718 0106 F7EE006A 		vmov.f32	s13, #1.0e+0
 719 010a 77EEA67A 		vadd.f32	s15, s15, s13
1446:Drivers/STM32H5xx_HAL_Driver/Src/stm32h5xx_hal_rcc.c ****                                                             (fracn1 / (float_t)0x2000) + (float_t)1
 720              		.loc 1 1446 20 view .LVU239
 721 010e 27EE277A 		vmul.f32	s14, s14, s15
 722              	.LVL51:
1446:Drivers/STM32H5xx_HAL_Driver/Src/stm32h5xx_hal_rcc.c ****                                                             (fracn1 / (float_t)0x2000) + (float_t)1
 723              		.loc 1 1446 20 view .LVU240
 724 0112 38E0     		b	.L45
 725              	.LVL52:
 726              	.L44:
ARM GAS  C:\Users\sapph\AppData\Local\Temp\ccD3KfzI.s 			page 41


1451:Drivers/STM32H5xx_HAL_Driver/Src/stm32h5xx_hal_rcc.c ****                                                              (fracn1 / (float_t)0x2000) + (float_t)
 727              		.loc 1 1451 13 is_stmt 1 view .LVU241
1451:Drivers/STM32H5xx_HAL_Driver/Src/stm32h5xx_hal_rcc.c ****                                                              (fracn1 / (float_t)0x2000) + (float_t)
 728              		.loc 1 1451 44 is_stmt 0 view .LVU242
 729 0114 07EE100A 		vmov	s14, r0	@ int
 730 0118 F8EE476A 		vcvt.f32.u32	s13, s14
1451:Drivers/STM32H5xx_HAL_Driver/Src/stm32h5xx_hal_rcc.c ****                                                              (fracn1 / (float_t)0x2000) + (float_t)
 731              		.loc 1 1451 42 view .LVU243
 732 011c 9FED2A6A 		vldr.32	s12, .L56+16
 733 0120 86EE267A 		vdiv.f32	s14, s12, s13
1451:Drivers/STM32H5xx_HAL_Driver/Src/stm32h5xx_hal_rcc.c ****                                                              (fracn1 / (float_t)0x2000) + (float_t)
 734              		.loc 1 1451 85 view .LVU244
 735 0124 244B     		ldr	r3, .L56
 736 0126 5B6B     		ldr	r3, [r3, #52]
1451:Drivers/STM32H5xx_HAL_Driver/Src/stm32h5xx_hal_rcc.c ****                                                              (fracn1 / (float_t)0x2000) + (float_t)
 737              		.loc 1 1451 71 view .LVU245
 738 0128 C3F30803 		ubfx	r3, r3, #0, #9
1451:Drivers/STM32H5xx_HAL_Driver/Src/stm32h5xx_hal_rcc.c ****                                                              (fracn1 / (float_t)0x2000) + (float_t)
 739              		.loc 1 1451 62 view .LVU246
 740 012c 06EE903A 		vmov	s13, r3	@ int
 741 0130 F8EE666A 		vcvt.f32.u32	s13, s13
1452:Drivers/STM32H5xx_HAL_Driver/Src/stm32h5xx_hal_rcc.c ****           }
 742              		.loc 1 1452 70 view .LVU247
 743 0134 9FED236A 		vldr.32	s12, .L56+12
 744 0138 67EE867A 		vmul.f32	s15, s15, s12
 745              	.LVL53:
1451:Drivers/STM32H5xx_HAL_Driver/Src/stm32h5xx_hal_rcc.c ****                                                              (fracn1 / (float_t)0x2000) + (float_t)
 746              		.loc 1 1451 118 view .LVU248
 747 013c 76EEA77A 		vadd.f32	s15, s13, s15
1452:Drivers/STM32H5xx_HAL_Driver/Src/stm32h5xx_hal_rcc.c ****           }
 748              		.loc 1 1452 89 view .LVU249
 749 0140 F7EE006A 		vmov.f32	s13, #1.0e+0
 750 0144 77EEA67A 		vadd.f32	s15, s15, s13
1451:Drivers/STM32H5xx_HAL_Driver/Src/stm32h5xx_hal_rcc.c ****                                                              (fracn1 / (float_t)0x2000) + (float_t)
 751              		.loc 1 1451 20 view .LVU250
 752 0148 27EE277A 		vmul.f32	s14, s14, s15
 753              	.LVL54:
1451:Drivers/STM32H5xx_HAL_Driver/Src/stm32h5xx_hal_rcc.c ****                                                              (fracn1 / (float_t)0x2000) + (float_t)
 754              		.loc 1 1451 20 view .LVU251
 755 014c 1BE0     		b	.L45
 756              	.LVL55:
 757              	.L42:
1458:Drivers/STM32H5xx_HAL_Driver/Src/stm32h5xx_hal_rcc.c ****                                                            (fracn1 / (float_t)0x2000) + (float_t)1)
 758              		.loc 1 1458 11 is_stmt 1 view .LVU252
1458:Drivers/STM32H5xx_HAL_Driver/Src/stm32h5xx_hal_rcc.c ****                                                            (fracn1 / (float_t)0x2000) + (float_t)1)
 759              		.loc 1 1458 42 is_stmt 0 view .LVU253
 760 014e 07EE100A 		vmov	s14, r0	@ int
 761 0152 F8EE476A 		vcvt.f32.u32	s13, s14
1458:Drivers/STM32H5xx_HAL_Driver/Src/stm32h5xx_hal_rcc.c ****                                                            (fracn1 / (float_t)0x2000) + (float_t)1)
 762              		.loc 1 1458 40 view .LVU254
 763 0156 9FED1D6A 		vldr.32	s12, .L56+20
 764 015a 86EE267A 		vdiv.f32	s14, s12, s13
1458:Drivers/STM32H5xx_HAL_Driver/Src/stm32h5xx_hal_rcc.c ****                                                            (fracn1 / (float_t)0x2000) + (float_t)1)
 765              		.loc 1 1458 83 view .LVU255
 766 015e 164B     		ldr	r3, .L56
 767 0160 5B6B     		ldr	r3, [r3, #52]
1458:Drivers/STM32H5xx_HAL_Driver/Src/stm32h5xx_hal_rcc.c ****                                                            (fracn1 / (float_t)0x2000) + (float_t)1)
ARM GAS  C:\Users\sapph\AppData\Local\Temp\ccD3KfzI.s 			page 42


 768              		.loc 1 1458 69 view .LVU256
 769 0162 C3F30803 		ubfx	r3, r3, #0, #9
1458:Drivers/STM32H5xx_HAL_Driver/Src/stm32h5xx_hal_rcc.c ****                                                            (fracn1 / (float_t)0x2000) + (float_t)1)
 770              		.loc 1 1458 60 view .LVU257
 771 0166 06EE903A 		vmov	s13, r3	@ int
 772 016a F8EE666A 		vcvt.f32.u32	s13, s13
1459:Drivers/STM32H5xx_HAL_Driver/Src/stm32h5xx_hal_rcc.c **** 
 773              		.loc 1 1459 68 view .LVU258
 774 016e 9FED156A 		vldr.32	s12, .L56+12
 775 0172 67EE867A 		vmul.f32	s15, s15, s12
 776              	.LVL56:
1458:Drivers/STM32H5xx_HAL_Driver/Src/stm32h5xx_hal_rcc.c ****                                                            (fracn1 / (float_t)0x2000) + (float_t)1)
 777              		.loc 1 1458 116 view .LVU259
 778 0176 76EEA77A 		vadd.f32	s15, s13, s15
1459:Drivers/STM32H5xx_HAL_Driver/Src/stm32h5xx_hal_rcc.c **** 
 779              		.loc 1 1459 87 view .LVU260
 780 017a F7EE006A 		vmov.f32	s13, #1.0e+0
 781 017e 77EEA67A 		vadd.f32	s15, s15, s13
1458:Drivers/STM32H5xx_HAL_Driver/Src/stm32h5xx_hal_rcc.c ****                                                            (fracn1 / (float_t)0x2000) + (float_t)1)
 782              		.loc 1 1458 18 view .LVU261
 783 0182 27EE277A 		vmul.f32	s14, s14, s15
 784              	.LVL57:
1461:Drivers/STM32H5xx_HAL_Driver/Src/stm32h5xx_hal_rcc.c **** 
 785              		.loc 1 1461 11 is_stmt 1 view .LVU262
 786              	.L45:
1470:Drivers/STM32H5xx_HAL_Driver/Src/stm32h5xx_hal_rcc.c ****       sysclockfreq = (uint32_t)(float_t)(pllvco / (float_t)pllp);
 787              		.loc 1 1470 7 view .LVU263
1470:Drivers/STM32H5xx_HAL_Driver/Src/stm32h5xx_hal_rcc.c ****       sysclockfreq = (uint32_t)(float_t)(pllvco / (float_t)pllp);
 788              		.loc 1 1470 20 is_stmt 0 view .LVU264
 789 0186 0C4B     		ldr	r3, .L56
 790 0188 5B6B     		ldr	r3, [r3, #52]
1470:Drivers/STM32H5xx_HAL_Driver/Src/stm32h5xx_hal_rcc.c ****       sysclockfreq = (uint32_t)(float_t)(pllvco / (float_t)pllp);
 791              		.loc 1 1470 53 view .LVU265
 792 018a C3F34623 		ubfx	r3, r3, #9, #7
1470:Drivers/STM32H5xx_HAL_Driver/Src/stm32h5xx_hal_rcc.c ****       sysclockfreq = (uint32_t)(float_t)(pllvco / (float_t)pllp);
 793              		.loc 1 1470 12 view .LVU266
 794 018e 0133     		adds	r3, r3, #1
 795              	.LVL58:
1471:Drivers/STM32H5xx_HAL_Driver/Src/stm32h5xx_hal_rcc.c ****     }
 796              		.loc 1 1471 7 is_stmt 1 view .LVU267
1471:Drivers/STM32H5xx_HAL_Driver/Src/stm32h5xx_hal_rcc.c ****     }
 797              		.loc 1 1471 51 is_stmt 0 view .LVU268
 798 0190 07EE903A 		vmov	s15, r3	@ int
 799 0194 F8EE677A 		vcvt.f32.u32	s15, s15
1471:Drivers/STM32H5xx_HAL_Driver/Src/stm32h5xx_hal_rcc.c ****     }
 800              		.loc 1 1471 32 view .LVU269
 801 0198 C7EE276A 		vdiv.f32	s13, s14, s15
1471:Drivers/STM32H5xx_HAL_Driver/Src/stm32h5xx_hal_rcc.c ****     }
 802              		.loc 1 1471 20 view .LVU270
 803 019c FCEEE67A 		vcvt.u32.f32	s15, s13
 804 01a0 17EE900A 		vmov	r0, s15	@ int
 805              	.LVL59:
 806              	.L38:
 807              		.loc 1 1486 1 view .LVU271
 808 01a4 5DF8044B 		ldr	r4, [sp], #4
 809              		.cfi_restore 4
 810              		.cfi_def_cfa_offset 0
ARM GAS  C:\Users\sapph\AppData\Local\Temp\ccD3KfzI.s 			page 43


 811              	.LVL60:
 812              		.loc 1 1486 1 view .LVU272
 813 01a8 7047     		bx	lr
 814              	.LVL61:
 815              	.L46:
1404:Drivers/STM32H5xx_HAL_Driver/Src/stm32h5xx_hal_rcc.c ****   }
 816              		.loc 1 1404 18 view .LVU273
 817 01aa 0948     		ldr	r0, .L56+24
 818 01ac 7047     		bx	lr
 819              	.L47:
1415:Drivers/STM32H5xx_HAL_Driver/Src/stm32h5xx_hal_rcc.c ****     }
 820              		.loc 1 1415 20 view .LVU274
 821 01ae 0348     		ldr	r0, .L56+4
 822 01b0 7047     		bx	lr
 823              	.L48:
1421:Drivers/STM32H5xx_HAL_Driver/Src/stm32h5xx_hal_rcc.c ****   }
 824              		.loc 1 1421 18 view .LVU275
 825 01b2 0848     		ldr	r0, .L56+28
 826 01b4 7047     		bx	lr
 827              	.L57:
 828 01b6 00BF     		.align	2
 829              	.L56:
 830 01b8 000C0244 		.word	1140984832
 831 01bc 0090D003 		.word	64000000
 832 01c0 0024744A 		.word	1249125376
 833 01c4 00000039 		.word	956301312
 834 01c8 0024744C 		.word	1282679808
 835 01cc 20BCBE4B 		.word	1270791200
 836 01d0 00093D00 		.word	4000000
 837 01d4 40787D01 		.word	25000000
 838              		.cfi_endproc
 839              	.LFE164:
 841              		.section	.text.HAL_RCC_ClockConfig,"ax",%progbits
 842              		.align	1
 843              		.global	HAL_RCC_ClockConfig
 844              		.syntax unified
 845              		.thumb
 846              		.thumb_func
 848              	HAL_RCC_ClockConfig:
 849              	.LVL62:
 850              	.LFB162:
1033:Drivers/STM32H5xx_HAL_Driver/Src/stm32h5xx_hal_rcc.c ****   HAL_StatusTypeDef halstatus;
 851              		.loc 1 1033 1 is_stmt 1 view -0
 852              		.cfi_startproc
 853              		@ args = 0, pretend = 0, frame = 0
 854              		@ frame_needed = 0, uses_anonymous_args = 0
1034:Drivers/STM32H5xx_HAL_Driver/Src/stm32h5xx_hal_rcc.c ****   uint32_t tickstart;
 855              		.loc 1 1034 3 view .LVU277
1035:Drivers/STM32H5xx_HAL_Driver/Src/stm32h5xx_hal_rcc.c **** 
 856              		.loc 1 1035 3 view .LVU278
1038:Drivers/STM32H5xx_HAL_Driver/Src/stm32h5xx_hal_rcc.c ****   {
 857              		.loc 1 1038 3 view .LVU279
1038:Drivers/STM32H5xx_HAL_Driver/Src/stm32h5xx_hal_rcc.c ****   {
 858              		.loc 1 1038 6 is_stmt 0 view .LVU280
 859 0000 0028     		cmp	r0, #0
 860 0002 00F03781 		beq	.L85
1033:Drivers/STM32H5xx_HAL_Driver/Src/stm32h5xx_hal_rcc.c ****   HAL_StatusTypeDef halstatus;
ARM GAS  C:\Users\sapph\AppData\Local\Temp\ccD3KfzI.s 			page 44


 861              		.loc 1 1033 1 view .LVU281
 862 0006 70B5     		push	{r4, r5, r6, lr}
 863              		.cfi_def_cfa_offset 16
 864              		.cfi_offset 4, -16
 865              		.cfi_offset 5, -12
 866              		.cfi_offset 6, -8
 867              		.cfi_offset 14, -4
 868 0008 0D46     		mov	r5, r1
 869 000a 0446     		mov	r4, r0
1044:Drivers/STM32H5xx_HAL_Driver/Src/stm32h5xx_hal_rcc.c ****   assert_param(IS_FLASH_LATENCY(FLatency));
 870              		.loc 1 1044 3 is_stmt 1 view .LVU282
1045:Drivers/STM32H5xx_HAL_Driver/Src/stm32h5xx_hal_rcc.c **** 
 871              		.loc 1 1045 3 view .LVU283
1052:Drivers/STM32H5xx_HAL_Driver/Src/stm32h5xx_hal_rcc.c ****   {
 872              		.loc 1 1052 3 view .LVU284
1052:Drivers/STM32H5xx_HAL_Driver/Src/stm32h5xx_hal_rcc.c ****   {
 873              		.loc 1 1052 18 is_stmt 0 view .LVU285
 874 000c 9D4B     		ldr	r3, .L106
 875 000e 1B68     		ldr	r3, [r3]
 876 0010 03F00F03 		and	r3, r3, #15
1052:Drivers/STM32H5xx_HAL_Driver/Src/stm32h5xx_hal_rcc.c ****   {
 877              		.loc 1 1052 6 view .LVU286
 878 0014 8B42     		cmp	r3, r1
 879 0016 0BD2     		bcs	.L60
1055:Drivers/STM32H5xx_HAL_Driver/Src/stm32h5xx_hal_rcc.c **** 
 880              		.loc 1 1055 5 is_stmt 1 view .LVU287
 881 0018 9A4A     		ldr	r2, .L106
 882 001a 1368     		ldr	r3, [r2]
 883 001c 23F00F03 		bic	r3, r3, #15
 884 0020 0B43     		orrs	r3, r3, r1
 885 0022 1360     		str	r3, [r2]
1059:Drivers/STM32H5xx_HAL_Driver/Src/stm32h5xx_hal_rcc.c ****     {
 886              		.loc 1 1059 5 view .LVU288
1059:Drivers/STM32H5xx_HAL_Driver/Src/stm32h5xx_hal_rcc.c ****     {
 887              		.loc 1 1059 9 is_stmt 0 view .LVU289
 888 0024 1368     		ldr	r3, [r2]
 889 0026 03F00F03 		and	r3, r3, #15
1059:Drivers/STM32H5xx_HAL_Driver/Src/stm32h5xx_hal_rcc.c ****     {
 890              		.loc 1 1059 8 view .LVU290
 891 002a 8B42     		cmp	r3, r1
 892 002c 40F02481 		bne	.L86
 893              	.L60:
1067:Drivers/STM32H5xx_HAL_Driver/Src/stm32h5xx_hal_rcc.c ****   {
 894              		.loc 1 1067 3 is_stmt 1 view .LVU291
1067:Drivers/STM32H5xx_HAL_Driver/Src/stm32h5xx_hal_rcc.c ****   {
 895              		.loc 1 1067 23 is_stmt 0 view .LVU292
 896 0030 2368     		ldr	r3, [r4]
1067:Drivers/STM32H5xx_HAL_Driver/Src/stm32h5xx_hal_rcc.c ****   {
 897              		.loc 1 1067 6 view .LVU293
 898 0032 13F0100F 		tst	r3, #16
 899 0036 0ED0     		beq	.L61
1069:Drivers/STM32H5xx_HAL_Driver/Src/stm32h5xx_hal_rcc.c ****     {
 900              		.loc 1 1069 5 is_stmt 1 view .LVU294
1069:Drivers/STM32H5xx_HAL_Driver/Src/stm32h5xx_hal_rcc.c ****     {
 901              		.loc 1 1069 24 is_stmt 0 view .LVU295
 902 0038 6269     		ldr	r2, [r4, #20]
1069:Drivers/STM32H5xx_HAL_Driver/Src/stm32h5xx_hal_rcc.c ****     {
ARM GAS  C:\Users\sapph\AppData\Local\Temp\ccD3KfzI.s 			page 45


 903              		.loc 1 1069 49 view .LVU296
 904 003a 934B     		ldr	r3, .L106+4
 905 003c 1B6A     		ldr	r3, [r3, #32]
1069:Drivers/STM32H5xx_HAL_Driver/Src/stm32h5xx_hal_rcc.c ****     {
 906              		.loc 1 1069 76 view .LVU297
 907 003e 1B0A     		lsrs	r3, r3, #8
 908 0040 03F07003 		and	r3, r3, #112
1069:Drivers/STM32H5xx_HAL_Driver/Src/stm32h5xx_hal_rcc.c ****     {
 909              		.loc 1 1069 8 view .LVU298
 910 0044 9A42     		cmp	r2, r3
 911 0046 06D9     		bls	.L61
1071:Drivers/STM32H5xx_HAL_Driver/Src/stm32h5xx_hal_rcc.c ****       MODIFY_REG(RCC->CFGR2, RCC_CFGR2_PPRE3, ((pClkInitStruct->APB3CLKDivider) << 8));
 912              		.loc 1 1071 7 is_stmt 1 view .LVU299
1072:Drivers/STM32H5xx_HAL_Driver/Src/stm32h5xx_hal_rcc.c ****     }
 913              		.loc 1 1072 7 view .LVU300
 914 0048 8F49     		ldr	r1, .L106+4
 915              	.LVL63:
1072:Drivers/STM32H5xx_HAL_Driver/Src/stm32h5xx_hal_rcc.c ****     }
 916              		.loc 1 1072 7 is_stmt 0 view .LVU301
 917 004a 0B6A     		ldr	r3, [r1, #32]
 918 004c 23F4E043 		bic	r3, r3, #28672
 919 0050 43EA0223 		orr	r3, r3, r2, lsl #8
 920 0054 0B62     		str	r3, [r1, #32]
 921              	.L61:
1076:Drivers/STM32H5xx_HAL_Driver/Src/stm32h5xx_hal_rcc.c ****   {
 922              		.loc 1 1076 3 is_stmt 1 view .LVU302
1076:Drivers/STM32H5xx_HAL_Driver/Src/stm32h5xx_hal_rcc.c ****   {
 923              		.loc 1 1076 23 is_stmt 0 view .LVU303
 924 0056 2368     		ldr	r3, [r4]
1076:Drivers/STM32H5xx_HAL_Driver/Src/stm32h5xx_hal_rcc.c ****   {
 925              		.loc 1 1076 6 view .LVU304
 926 0058 13F0080F 		tst	r3, #8
 927 005c 0ED0     		beq	.L62
1078:Drivers/STM32H5xx_HAL_Driver/Src/stm32h5xx_hal_rcc.c ****     {
 928              		.loc 1 1078 5 is_stmt 1 view .LVU305
1078:Drivers/STM32H5xx_HAL_Driver/Src/stm32h5xx_hal_rcc.c ****     {
 929              		.loc 1 1078 24 is_stmt 0 view .LVU306
 930 005e 2269     		ldr	r2, [r4, #16]
1078:Drivers/STM32H5xx_HAL_Driver/Src/stm32h5xx_hal_rcc.c ****     {
 931              		.loc 1 1078 49 view .LVU307
 932 0060 894B     		ldr	r3, .L106+4
 933 0062 1B6A     		ldr	r3, [r3, #32]
1078:Drivers/STM32H5xx_HAL_Driver/Src/stm32h5xx_hal_rcc.c ****     {
 934              		.loc 1 1078 76 view .LVU308
 935 0064 1B09     		lsrs	r3, r3, #4
 936 0066 03F07003 		and	r3, r3, #112
1078:Drivers/STM32H5xx_HAL_Driver/Src/stm32h5xx_hal_rcc.c ****     {
 937              		.loc 1 1078 8 view .LVU309
 938 006a 9A42     		cmp	r2, r3
 939 006c 06D9     		bls	.L62
1080:Drivers/STM32H5xx_HAL_Driver/Src/stm32h5xx_hal_rcc.c ****       MODIFY_REG(RCC->CFGR2, RCC_CFGR2_PPRE2, ((pClkInitStruct->APB2CLKDivider) << 4));
 940              		.loc 1 1080 7 is_stmt 1 view .LVU310
1081:Drivers/STM32H5xx_HAL_Driver/Src/stm32h5xx_hal_rcc.c ****     }
 941              		.loc 1 1081 7 view .LVU311
 942 006e 8649     		ldr	r1, .L106+4
 943 0070 0B6A     		ldr	r3, [r1, #32]
 944 0072 23F4E063 		bic	r3, r3, #1792
ARM GAS  C:\Users\sapph\AppData\Local\Temp\ccD3KfzI.s 			page 46


 945 0076 43EA0213 		orr	r3, r3, r2, lsl #4
 946 007a 0B62     		str	r3, [r1, #32]
 947              	.L62:
1086:Drivers/STM32H5xx_HAL_Driver/Src/stm32h5xx_hal_rcc.c ****   {
 948              		.loc 1 1086 3 view .LVU312
1086:Drivers/STM32H5xx_HAL_Driver/Src/stm32h5xx_hal_rcc.c ****   {
 949              		.loc 1 1086 23 is_stmt 0 view .LVU313
 950 007c 2368     		ldr	r3, [r4]
1086:Drivers/STM32H5xx_HAL_Driver/Src/stm32h5xx_hal_rcc.c ****   {
 951              		.loc 1 1086 6 view .LVU314
 952 007e 13F0040F 		tst	r3, #4
 953 0082 0CD0     		beq	.L63
1088:Drivers/STM32H5xx_HAL_Driver/Src/stm32h5xx_hal_rcc.c ****     {
 954              		.loc 1 1088 5 is_stmt 1 view .LVU315
1088:Drivers/STM32H5xx_HAL_Driver/Src/stm32h5xx_hal_rcc.c ****     {
 955              		.loc 1 1088 24 is_stmt 0 view .LVU316
 956 0084 E268     		ldr	r2, [r4, #12]
1088:Drivers/STM32H5xx_HAL_Driver/Src/stm32h5xx_hal_rcc.c ****     {
 957              		.loc 1 1088 48 view .LVU317
 958 0086 804B     		ldr	r3, .L106+4
 959 0088 1B6A     		ldr	r3, [r3, #32]
1088:Drivers/STM32H5xx_HAL_Driver/Src/stm32h5xx_hal_rcc.c ****     {
 960              		.loc 1 1088 56 view .LVU318
 961 008a 03F07003 		and	r3, r3, #112
1088:Drivers/STM32H5xx_HAL_Driver/Src/stm32h5xx_hal_rcc.c ****     {
 962              		.loc 1 1088 8 view .LVU319
 963 008e 9A42     		cmp	r2, r3
 964 0090 05D9     		bls	.L63
1090:Drivers/STM32H5xx_HAL_Driver/Src/stm32h5xx_hal_rcc.c ****       MODIFY_REG(RCC->CFGR2, RCC_CFGR2_PPRE1, pClkInitStruct->APB1CLKDivider);
 965              		.loc 1 1090 7 is_stmt 1 view .LVU320
1091:Drivers/STM32H5xx_HAL_Driver/Src/stm32h5xx_hal_rcc.c ****     }
 966              		.loc 1 1091 7 view .LVU321
 967 0092 7D49     		ldr	r1, .L106+4
 968 0094 0B6A     		ldr	r3, [r1, #32]
 969 0096 23F07003 		bic	r3, r3, #112
 970 009a 1A43     		orrs	r2, r2, r3
 971 009c 0A62     		str	r2, [r1, #32]
 972              	.L63:
1096:Drivers/STM32H5xx_HAL_Driver/Src/stm32h5xx_hal_rcc.c ****   {
 973              		.loc 1 1096 3 view .LVU322
1096:Drivers/STM32H5xx_HAL_Driver/Src/stm32h5xx_hal_rcc.c ****   {
 974              		.loc 1 1096 23 is_stmt 0 view .LVU323
 975 009e 2368     		ldr	r3, [r4]
1096:Drivers/STM32H5xx_HAL_Driver/Src/stm32h5xx_hal_rcc.c ****   {
 976              		.loc 1 1096 6 view .LVU324
 977 00a0 13F0020F 		tst	r3, #2
 978 00a4 0CD0     		beq	.L64
1098:Drivers/STM32H5xx_HAL_Driver/Src/stm32h5xx_hal_rcc.c ****     {
 979              		.loc 1 1098 5 is_stmt 1 view .LVU325
1098:Drivers/STM32H5xx_HAL_Driver/Src/stm32h5xx_hal_rcc.c ****     {
 980              		.loc 1 1098 24 is_stmt 0 view .LVU326
 981 00a6 A268     		ldr	r2, [r4, #8]
1098:Drivers/STM32H5xx_HAL_Driver/Src/stm32h5xx_hal_rcc.c ****     {
 982              		.loc 1 1098 47 view .LVU327
 983 00a8 774B     		ldr	r3, .L106+4
 984 00aa 1B6A     		ldr	r3, [r3, #32]
1098:Drivers/STM32H5xx_HAL_Driver/Src/stm32h5xx_hal_rcc.c ****     {
ARM GAS  C:\Users\sapph\AppData\Local\Temp\ccD3KfzI.s 			page 47


 985              		.loc 1 1098 55 view .LVU328
 986 00ac 03F00F03 		and	r3, r3, #15
1098:Drivers/STM32H5xx_HAL_Driver/Src/stm32h5xx_hal_rcc.c ****     {
 987              		.loc 1 1098 8 view .LVU329
 988 00b0 9A42     		cmp	r2, r3
 989 00b2 05D9     		bls	.L64
1100:Drivers/STM32H5xx_HAL_Driver/Src/stm32h5xx_hal_rcc.c ****       MODIFY_REG(RCC->CFGR2, RCC_CFGR2_HPRE, pClkInitStruct->AHBCLKDivider);
 990              		.loc 1 1100 7 is_stmt 1 view .LVU330
1101:Drivers/STM32H5xx_HAL_Driver/Src/stm32h5xx_hal_rcc.c ****     }
 991              		.loc 1 1101 7 view .LVU331
 992 00b4 7449     		ldr	r1, .L106+4
 993 00b6 0B6A     		ldr	r3, [r1, #32]
 994 00b8 23F00F03 		bic	r3, r3, #15
 995 00bc 1A43     		orrs	r2, r2, r3
 996 00be 0A62     		str	r2, [r1, #32]
 997              	.L64:
1106:Drivers/STM32H5xx_HAL_Driver/Src/stm32h5xx_hal_rcc.c ****   {
 998              		.loc 1 1106 3 view .LVU332
1106:Drivers/STM32H5xx_HAL_Driver/Src/stm32h5xx_hal_rcc.c ****   {
 999              		.loc 1 1106 23 is_stmt 0 view .LVU333
 1000 00c0 2368     		ldr	r3, [r4]
1106:Drivers/STM32H5xx_HAL_Driver/Src/stm32h5xx_hal_rcc.c ****   {
 1001              		.loc 1 1106 6 view .LVU334
 1002 00c2 13F0010F 		tst	r3, #1
 1003 00c6 6CD0     		beq	.L65
1108:Drivers/STM32H5xx_HAL_Driver/Src/stm32h5xx_hal_rcc.c **** 
 1004              		.loc 1 1108 5 is_stmt 1 view .LVU335
1111:Drivers/STM32H5xx_HAL_Driver/Src/stm32h5xx_hal_rcc.c ****     {
 1005              		.loc 1 1111 5 view .LVU336
1111:Drivers/STM32H5xx_HAL_Driver/Src/stm32h5xx_hal_rcc.c ****     {
 1006              		.loc 1 1111 23 is_stmt 0 view .LVU337
 1007 00c8 6368     		ldr	r3, [r4, #4]
1111:Drivers/STM32H5xx_HAL_Driver/Src/stm32h5xx_hal_rcc.c ****     {
 1008              		.loc 1 1111 8 view .LVU338
 1009 00ca 032B     		cmp	r3, #3
 1010 00cc 0AD0     		beq	.L102
1122:Drivers/STM32H5xx_HAL_Driver/Src/stm32h5xx_hal_rcc.c ****       {
 1011              		.loc 1 1122 7 is_stmt 1 view .LVU339
1122:Drivers/STM32H5xx_HAL_Driver/Src/stm32h5xx_hal_rcc.c ****       {
 1012              		.loc 1 1122 10 is_stmt 0 view .LVU340
 1013 00ce 022B     		cmp	r3, #2
 1014 00d0 2CD0     		beq	.L103
1131:Drivers/STM32H5xx_HAL_Driver/Src/stm32h5xx_hal_rcc.c ****       {
 1015              		.loc 1 1131 12 is_stmt 1 view .LVU341
1131:Drivers/STM32H5xx_HAL_Driver/Src/stm32h5xx_hal_rcc.c ****       {
 1016              		.loc 1 1131 15 is_stmt 0 view .LVU342
 1017 00d2 012B     		cmp	r3, #1
 1018 00d4 31D0     		beq	.L104
1143:Drivers/STM32H5xx_HAL_Driver/Src/stm32h5xx_hal_rcc.c ****         {
 1019              		.loc 1 1143 9 is_stmt 1 view .LVU343
1143:Drivers/STM32H5xx_HAL_Driver/Src/stm32h5xx_hal_rcc.c ****         {
 1020              		.loc 1 1143 13 is_stmt 0 view .LVU344
 1021 00d6 6C4A     		ldr	r2, .L106+4
 1022 00d8 1268     		ldr	r2, [r2]
1143:Drivers/STM32H5xx_HAL_Driver/Src/stm32h5xx_hal_rcc.c ****         {
 1023              		.loc 1 1143 12 view .LVU345
 1024 00da 12F0020F 		tst	r2, #2
ARM GAS  C:\Users\sapph\AppData\Local\Temp\ccD3KfzI.s 			page 48


 1025 00de 07D1     		bne	.L67
1145:Drivers/STM32H5xx_HAL_Driver/Src/stm32h5xx_hal_rcc.c ****         }
 1026              		.loc 1 1145 18 view .LVU346
 1027 00e0 0120     		movs	r0, #1
 1028              	.LVL64:
1145:Drivers/STM32H5xx_HAL_Driver/Src/stm32h5xx_hal_rcc.c ****         }
 1029              		.loc 1 1145 18 view .LVU347
 1030 00e2 C6E0     		b	.L59
 1031              	.LVL65:
 1032              	.L102:
1114:Drivers/STM32H5xx_HAL_Driver/Src/stm32h5xx_hal_rcc.c ****       {
 1033              		.loc 1 1114 7 is_stmt 1 view .LVU348
1114:Drivers/STM32H5xx_HAL_Driver/Src/stm32h5xx_hal_rcc.c ****       {
 1034              		.loc 1 1114 11 is_stmt 0 view .LVU349
 1035 00e4 684A     		ldr	r2, .L106+4
 1036 00e6 1268     		ldr	r2, [r2]
1114:Drivers/STM32H5xx_HAL_Driver/Src/stm32h5xx_hal_rcc.c ****       {
 1037              		.loc 1 1114 10 view .LVU350
 1038 00e8 12F0007F 		tst	r2, #33554432
 1039 00ec 00F0C680 		beq	.L105
 1040              	.L67:
1150:Drivers/STM32H5xx_HAL_Driver/Src/stm32h5xx_hal_rcc.c **** 
 1041              		.loc 1 1150 5 is_stmt 1 view .LVU351
 1042 00f0 6549     		ldr	r1, .L106+4
 1043 00f2 CA69     		ldr	r2, [r1, #28]
 1044 00f4 22F00302 		bic	r2, r2, #3
 1045 00f8 1343     		orrs	r3, r3, r2
 1046 00fa CB61     		str	r3, [r1, #28]
1153:Drivers/STM32H5xx_HAL_Driver/Src/stm32h5xx_hal_rcc.c **** 
 1047              		.loc 1 1153 5 view .LVU352
1153:Drivers/STM32H5xx_HAL_Driver/Src/stm32h5xx_hal_rcc.c **** 
 1048              		.loc 1 1153 17 is_stmt 0 view .LVU353
 1049 00fc FFF7FEFF 		bl	HAL_GetTick
 1050              	.LVL66:
1153:Drivers/STM32H5xx_HAL_Driver/Src/stm32h5xx_hal_rcc.c **** 
 1051              		.loc 1 1153 17 view .LVU354
 1052 0100 0646     		mov	r6, r0
 1053              	.LVL67:
1155:Drivers/STM32H5xx_HAL_Driver/Src/stm32h5xx_hal_rcc.c ****     {
 1054              		.loc 1 1155 5 is_stmt 1 view .LVU355
1155:Drivers/STM32H5xx_HAL_Driver/Src/stm32h5xx_hal_rcc.c ****     {
 1055              		.loc 1 1155 23 is_stmt 0 view .LVU356
 1056 0102 6368     		ldr	r3, [r4, #4]
1155:Drivers/STM32H5xx_HAL_Driver/Src/stm32h5xx_hal_rcc.c ****     {
 1057              		.loc 1 1155 8 view .LVU357
 1058 0104 032B     		cmp	r3, #3
 1059 0106 1FD0     		beq	.L70
1167:Drivers/STM32H5xx_HAL_Driver/Src/stm32h5xx_hal_rcc.c ****       {
 1060              		.loc 1 1167 7 is_stmt 1 view .LVU358
1167:Drivers/STM32H5xx_HAL_Driver/Src/stm32h5xx_hal_rcc.c ****       {
 1061              		.loc 1 1167 10 is_stmt 0 view .LVU359
 1062 0108 022B     		cmp	r3, #2
 1063 010a 2CD0     		beq	.L73
1177:Drivers/STM32H5xx_HAL_Driver/Src/stm32h5xx_hal_rcc.c ****       {
 1064              		.loc 1 1177 12 is_stmt 1 view .LVU360
1177:Drivers/STM32H5xx_HAL_Driver/Src/stm32h5xx_hal_rcc.c ****       {
 1065              		.loc 1 1177 15 is_stmt 0 view .LVU361
ARM GAS  C:\Users\sapph\AppData\Local\Temp\ccD3KfzI.s 			page 49


 1066 010c 012B     		cmp	r3, #1
 1067 010e 39D0     		beq	.L76
 1068              	.LVL68:
 1069              	.L77:
1189:Drivers/STM32H5xx_HAL_Driver/Src/stm32h5xx_hal_rcc.c ****         {
 1070              		.loc 1 1189 46 is_stmt 1 view .LVU362
1189:Drivers/STM32H5xx_HAL_Driver/Src/stm32h5xx_hal_rcc.c ****         {
 1071              		.loc 1 1189 16 is_stmt 0 view .LVU363
 1072 0110 5D4B     		ldr	r3, .L106+4
 1073 0112 DB69     		ldr	r3, [r3, #28]
1189:Drivers/STM32H5xx_HAL_Driver/Src/stm32h5xx_hal_rcc.c ****         {
 1074              		.loc 1 1189 46 view .LVU364
 1075 0114 13F0180F 		tst	r3, #24
 1076 0118 43D0     		beq	.L65
1191:Drivers/STM32H5xx_HAL_Driver/Src/stm32h5xx_hal_rcc.c ****           {
 1077              		.loc 1 1191 11 is_stmt 1 view .LVU365
1191:Drivers/STM32H5xx_HAL_Driver/Src/stm32h5xx_hal_rcc.c ****           {
 1078              		.loc 1 1191 16 is_stmt 0 view .LVU366
 1079 011a FFF7FEFF 		bl	HAL_GetTick
 1080              	.LVL69:
1191:Drivers/STM32H5xx_HAL_Driver/Src/stm32h5xx_hal_rcc.c ****           {
 1081              		.loc 1 1191 30 discriminator 1 view .LVU367
 1082 011e 801B     		subs	r0, r0, r6
1191:Drivers/STM32H5xx_HAL_Driver/Src/stm32h5xx_hal_rcc.c ****           {
 1083              		.loc 1 1191 14 discriminator 1 view .LVU368
 1084 0120 41F28833 		movw	r3, #5000
 1085 0124 9842     		cmp	r0, r3
 1086 0126 F3D9     		bls	.L77
1193:Drivers/STM32H5xx_HAL_Driver/Src/stm32h5xx_hal_rcc.c ****           }
 1087              		.loc 1 1193 20 view .LVU369
 1088 0128 0320     		movs	r0, #3
 1089 012a A2E0     		b	.L59
 1090              	.LVL70:
 1091              	.L103:
1125:Drivers/STM32H5xx_HAL_Driver/Src/stm32h5xx_hal_rcc.c ****         {
 1092              		.loc 1 1125 9 is_stmt 1 view .LVU370
1125:Drivers/STM32H5xx_HAL_Driver/Src/stm32h5xx_hal_rcc.c ****         {
 1093              		.loc 1 1125 13 is_stmt 0 view .LVU371
 1094 012c 564A     		ldr	r2, .L106+4
 1095 012e 1268     		ldr	r2, [r2]
1125:Drivers/STM32H5xx_HAL_Driver/Src/stm32h5xx_hal_rcc.c ****         {
 1096              		.loc 1 1125 12 view .LVU372
 1097 0130 12F4003F 		tst	r2, #131072
 1098 0134 DCD1     		bne	.L67
1127:Drivers/STM32H5xx_HAL_Driver/Src/stm32h5xx_hal_rcc.c ****         }
 1099              		.loc 1 1127 18 view .LVU373
 1100 0136 0120     		movs	r0, #1
 1101              	.LVL71:
1127:Drivers/STM32H5xx_HAL_Driver/Src/stm32h5xx_hal_rcc.c ****         }
 1102              		.loc 1 1127 18 view .LVU374
 1103 0138 9BE0     		b	.L59
 1104              	.LVL72:
 1105              	.L104:
1134:Drivers/STM32H5xx_HAL_Driver/Src/stm32h5xx_hal_rcc.c ****         {
 1106              		.loc 1 1134 9 is_stmt 1 view .LVU375
1134:Drivers/STM32H5xx_HAL_Driver/Src/stm32h5xx_hal_rcc.c ****         {
 1107              		.loc 1 1134 13 is_stmt 0 view .LVU376
ARM GAS  C:\Users\sapph\AppData\Local\Temp\ccD3KfzI.s 			page 50


 1108 013a 534A     		ldr	r2, .L106+4
 1109 013c 1268     		ldr	r2, [r2]
1134:Drivers/STM32H5xx_HAL_Driver/Src/stm32h5xx_hal_rcc.c ****         {
 1110              		.loc 1 1134 12 view .LVU377
 1111 013e 12F4007F 		tst	r2, #512
 1112 0142 D5D1     		bne	.L67
1136:Drivers/STM32H5xx_HAL_Driver/Src/stm32h5xx_hal_rcc.c ****         }
 1113              		.loc 1 1136 18 view .LVU378
 1114 0144 0120     		movs	r0, #1
 1115              	.LVL73:
1136:Drivers/STM32H5xx_HAL_Driver/Src/stm32h5xx_hal_rcc.c ****         }
 1116              		.loc 1 1136 18 view .LVU379
 1117 0146 94E0     		b	.L59
 1118              	.LVL74:
 1119              	.L70:
1157:Drivers/STM32H5xx_HAL_Driver/Src/stm32h5xx_hal_rcc.c ****       {
 1120              		.loc 1 1157 44 is_stmt 1 view .LVU380
1157:Drivers/STM32H5xx_HAL_Driver/Src/stm32h5xx_hal_rcc.c ****       {
 1121              		.loc 1 1157 14 is_stmt 0 view .LVU381
 1122 0148 4F4B     		ldr	r3, .L106+4
 1123 014a DB69     		ldr	r3, [r3, #28]
 1124 014c 03F01803 		and	r3, r3, #24
1157:Drivers/STM32H5xx_HAL_Driver/Src/stm32h5xx_hal_rcc.c ****       {
 1125              		.loc 1 1157 44 view .LVU382
 1126 0150 182B     		cmp	r3, #24
 1127 0152 26D0     		beq	.L65
1159:Drivers/STM32H5xx_HAL_Driver/Src/stm32h5xx_hal_rcc.c ****         {
 1128              		.loc 1 1159 9 is_stmt 1 view .LVU383
1159:Drivers/STM32H5xx_HAL_Driver/Src/stm32h5xx_hal_rcc.c ****         {
 1129              		.loc 1 1159 14 is_stmt 0 view .LVU384
 1130 0154 FFF7FEFF 		bl	HAL_GetTick
 1131              	.LVL75:
1159:Drivers/STM32H5xx_HAL_Driver/Src/stm32h5xx_hal_rcc.c ****         {
 1132              		.loc 1 1159 28 discriminator 1 view .LVU385
 1133 0158 831B     		subs	r3, r0, r6
1159:Drivers/STM32H5xx_HAL_Driver/Src/stm32h5xx_hal_rcc.c ****         {
 1134              		.loc 1 1159 12 discriminator 1 view .LVU386
 1135 015a 41F28832 		movw	r2, #5000
 1136 015e 9342     		cmp	r3, r2
 1137 0160 F2D9     		bls	.L70
1161:Drivers/STM32H5xx_HAL_Driver/Src/stm32h5xx_hal_rcc.c ****         }
 1138              		.loc 1 1161 18 view .LVU387
 1139 0162 0320     		movs	r0, #3
 1140 0164 85E0     		b	.L59
 1141              	.L73:
1169:Drivers/STM32H5xx_HAL_Driver/Src/stm32h5xx_hal_rcc.c ****         {
 1142              		.loc 1 1169 46 is_stmt 1 view .LVU388
1169:Drivers/STM32H5xx_HAL_Driver/Src/stm32h5xx_hal_rcc.c ****         {
 1143              		.loc 1 1169 16 is_stmt 0 view .LVU389
 1144 0166 484B     		ldr	r3, .L106+4
 1145 0168 DB69     		ldr	r3, [r3, #28]
 1146 016a 03F01803 		and	r3, r3, #24
1169:Drivers/STM32H5xx_HAL_Driver/Src/stm32h5xx_hal_rcc.c ****         {
 1147              		.loc 1 1169 46 view .LVU390
 1148 016e 102B     		cmp	r3, #16
 1149 0170 17D0     		beq	.L65
1171:Drivers/STM32H5xx_HAL_Driver/Src/stm32h5xx_hal_rcc.c ****           {
ARM GAS  C:\Users\sapph\AppData\Local\Temp\ccD3KfzI.s 			page 51


 1150              		.loc 1 1171 11 is_stmt 1 view .LVU391
1171:Drivers/STM32H5xx_HAL_Driver/Src/stm32h5xx_hal_rcc.c ****           {
 1151              		.loc 1 1171 16 is_stmt 0 view .LVU392
 1152 0172 FFF7FEFF 		bl	HAL_GetTick
 1153              	.LVL76:
1171:Drivers/STM32H5xx_HAL_Driver/Src/stm32h5xx_hal_rcc.c ****           {
 1154              		.loc 1 1171 30 discriminator 1 view .LVU393
 1155 0176 801B     		subs	r0, r0, r6
1171:Drivers/STM32H5xx_HAL_Driver/Src/stm32h5xx_hal_rcc.c ****           {
 1156              		.loc 1 1171 14 discriminator 1 view .LVU394
 1157 0178 41F28833 		movw	r3, #5000
 1158 017c 9842     		cmp	r0, r3
 1159 017e F2D9     		bls	.L73
1173:Drivers/STM32H5xx_HAL_Driver/Src/stm32h5xx_hal_rcc.c ****           }
 1160              		.loc 1 1173 20 view .LVU395
 1161 0180 0320     		movs	r0, #3
 1162 0182 76E0     		b	.L59
 1163              	.L76:
1179:Drivers/STM32H5xx_HAL_Driver/Src/stm32h5xx_hal_rcc.c ****         {
 1164              		.loc 1 1179 46 is_stmt 1 view .LVU396
1179:Drivers/STM32H5xx_HAL_Driver/Src/stm32h5xx_hal_rcc.c ****         {
 1165              		.loc 1 1179 16 is_stmt 0 view .LVU397
 1166 0184 404B     		ldr	r3, .L106+4
 1167 0186 DB69     		ldr	r3, [r3, #28]
 1168 0188 03F01803 		and	r3, r3, #24
1179:Drivers/STM32H5xx_HAL_Driver/Src/stm32h5xx_hal_rcc.c ****         {
 1169              		.loc 1 1179 46 view .LVU398
 1170 018c 082B     		cmp	r3, #8
 1171 018e 08D0     		beq	.L65
1181:Drivers/STM32H5xx_HAL_Driver/Src/stm32h5xx_hal_rcc.c ****           {
 1172              		.loc 1 1181 11 is_stmt 1 view .LVU399
1181:Drivers/STM32H5xx_HAL_Driver/Src/stm32h5xx_hal_rcc.c ****           {
 1173              		.loc 1 1181 16 is_stmt 0 view .LVU400
 1174 0190 FFF7FEFF 		bl	HAL_GetTick
 1175              	.LVL77:
1181:Drivers/STM32H5xx_HAL_Driver/Src/stm32h5xx_hal_rcc.c ****           {
 1176              		.loc 1 1181 30 discriminator 1 view .LVU401
 1177 0194 801B     		subs	r0, r0, r6
1181:Drivers/STM32H5xx_HAL_Driver/Src/stm32h5xx_hal_rcc.c ****           {
 1178              		.loc 1 1181 14 discriminator 1 view .LVU402
 1179 0196 41F28833 		movw	r3, #5000
 1180 019a 9842     		cmp	r0, r3
 1181 019c F2D9     		bls	.L76
1183:Drivers/STM32H5xx_HAL_Driver/Src/stm32h5xx_hal_rcc.c ****           }
 1182              		.loc 1 1183 20 view .LVU403
 1183 019e 0320     		movs	r0, #3
 1184 01a0 67E0     		b	.L59
 1185              	.LVL78:
 1186              	.L65:
1202:Drivers/STM32H5xx_HAL_Driver/Src/stm32h5xx_hal_rcc.c ****   {
 1187              		.loc 1 1202 3 is_stmt 1 view .LVU404
1202:Drivers/STM32H5xx_HAL_Driver/Src/stm32h5xx_hal_rcc.c ****   {
 1188              		.loc 1 1202 23 is_stmt 0 view .LVU405
 1189 01a2 2368     		ldr	r3, [r4]
1202:Drivers/STM32H5xx_HAL_Driver/Src/stm32h5xx_hal_rcc.c ****   {
 1190              		.loc 1 1202 6 view .LVU406
 1191 01a4 13F0020F 		tst	r3, #2
ARM GAS  C:\Users\sapph\AppData\Local\Temp\ccD3KfzI.s 			page 52


 1192 01a8 0CD0     		beq	.L80
1204:Drivers/STM32H5xx_HAL_Driver/Src/stm32h5xx_hal_rcc.c ****     {
 1193              		.loc 1 1204 5 is_stmt 1 view .LVU407
1204:Drivers/STM32H5xx_HAL_Driver/Src/stm32h5xx_hal_rcc.c ****     {
 1194              		.loc 1 1204 24 is_stmt 0 view .LVU408
 1195 01aa A268     		ldr	r2, [r4, #8]
1204:Drivers/STM32H5xx_HAL_Driver/Src/stm32h5xx_hal_rcc.c ****     {
 1196              		.loc 1 1204 47 view .LVU409
 1197 01ac 364B     		ldr	r3, .L106+4
 1198 01ae 1B6A     		ldr	r3, [r3, #32]
1204:Drivers/STM32H5xx_HAL_Driver/Src/stm32h5xx_hal_rcc.c ****     {
 1199              		.loc 1 1204 55 view .LVU410
 1200 01b0 03F00F03 		and	r3, r3, #15
1204:Drivers/STM32H5xx_HAL_Driver/Src/stm32h5xx_hal_rcc.c ****     {
 1201              		.loc 1 1204 8 view .LVU411
 1202 01b4 9A42     		cmp	r2, r3
 1203 01b6 05D2     		bcs	.L80
1206:Drivers/STM32H5xx_HAL_Driver/Src/stm32h5xx_hal_rcc.c ****       MODIFY_REG(RCC->CFGR2, RCC_CFGR2_HPRE, pClkInitStruct->AHBCLKDivider);
 1204              		.loc 1 1206 7 is_stmt 1 view .LVU412
1207:Drivers/STM32H5xx_HAL_Driver/Src/stm32h5xx_hal_rcc.c ****     }
 1205              		.loc 1 1207 7 view .LVU413
 1206 01b8 3349     		ldr	r1, .L106+4
 1207 01ba 0B6A     		ldr	r3, [r1, #32]
 1208 01bc 23F00F03 		bic	r3, r3, #15
 1209 01c0 1A43     		orrs	r2, r2, r3
 1210 01c2 0A62     		str	r2, [r1, #32]
 1211              	.L80:
1212:Drivers/STM32H5xx_HAL_Driver/Src/stm32h5xx_hal_rcc.c ****   {
 1212              		.loc 1 1212 3 view .LVU414
1212:Drivers/STM32H5xx_HAL_Driver/Src/stm32h5xx_hal_rcc.c ****   {
 1213              		.loc 1 1212 18 is_stmt 0 view .LVU415
 1214 01c4 2F4B     		ldr	r3, .L106
 1215 01c6 1B68     		ldr	r3, [r3]
 1216 01c8 03F00F03 		and	r3, r3, #15
1212:Drivers/STM32H5xx_HAL_Driver/Src/stm32h5xx_hal_rcc.c ****   {
 1217              		.loc 1 1212 6 view .LVU416
 1218 01cc AB42     		cmp	r3, r5
 1219 01ce 0AD9     		bls	.L81
1215:Drivers/STM32H5xx_HAL_Driver/Src/stm32h5xx_hal_rcc.c **** 
 1220              		.loc 1 1215 5 is_stmt 1 view .LVU417
 1221 01d0 2C4A     		ldr	r2, .L106
 1222 01d2 1368     		ldr	r3, [r2]
 1223 01d4 23F00F03 		bic	r3, r3, #15
 1224 01d8 2B43     		orrs	r3, r3, r5
 1225 01da 1360     		str	r3, [r2]
1219:Drivers/STM32H5xx_HAL_Driver/Src/stm32h5xx_hal_rcc.c ****     {
 1226              		.loc 1 1219 5 view .LVU418
1219:Drivers/STM32H5xx_HAL_Driver/Src/stm32h5xx_hal_rcc.c ****     {
 1227              		.loc 1 1219 9 is_stmt 0 view .LVU419
 1228 01dc 1368     		ldr	r3, [r2]
 1229 01de 03F00F03 		and	r3, r3, #15
1219:Drivers/STM32H5xx_HAL_Driver/Src/stm32h5xx_hal_rcc.c ****     {
 1230              		.loc 1 1219 8 view .LVU420
 1231 01e2 AB42     		cmp	r3, r5
 1232 01e4 4CD1     		bne	.L95
 1233              	.L81:
1226:Drivers/STM32H5xx_HAL_Driver/Src/stm32h5xx_hal_rcc.c ****   {
ARM GAS  C:\Users\sapph\AppData\Local\Temp\ccD3KfzI.s 			page 53


 1234              		.loc 1 1226 3 is_stmt 1 view .LVU421
1226:Drivers/STM32H5xx_HAL_Driver/Src/stm32h5xx_hal_rcc.c ****   {
 1235              		.loc 1 1226 23 is_stmt 0 view .LVU422
 1236 01e6 2368     		ldr	r3, [r4]
1226:Drivers/STM32H5xx_HAL_Driver/Src/stm32h5xx_hal_rcc.c ****   {
 1237              		.loc 1 1226 6 view .LVU423
 1238 01e8 13F0040F 		tst	r3, #4
 1239 01ec 0CD0     		beq	.L82
1228:Drivers/STM32H5xx_HAL_Driver/Src/stm32h5xx_hal_rcc.c ****     {
 1240              		.loc 1 1228 5 is_stmt 1 view .LVU424
1228:Drivers/STM32H5xx_HAL_Driver/Src/stm32h5xx_hal_rcc.c ****     {
 1241              		.loc 1 1228 24 is_stmt 0 view .LVU425
 1242 01ee E268     		ldr	r2, [r4, #12]
1228:Drivers/STM32H5xx_HAL_Driver/Src/stm32h5xx_hal_rcc.c ****     {
 1243              		.loc 1 1228 48 view .LVU426
 1244 01f0 254B     		ldr	r3, .L106+4
 1245 01f2 1B6A     		ldr	r3, [r3, #32]
1228:Drivers/STM32H5xx_HAL_Driver/Src/stm32h5xx_hal_rcc.c ****     {
 1246              		.loc 1 1228 56 view .LVU427
 1247 01f4 03F07003 		and	r3, r3, #112
1228:Drivers/STM32H5xx_HAL_Driver/Src/stm32h5xx_hal_rcc.c ****     {
 1248              		.loc 1 1228 8 view .LVU428
 1249 01f8 9A42     		cmp	r2, r3
 1250 01fa 05D2     		bcs	.L82
1230:Drivers/STM32H5xx_HAL_Driver/Src/stm32h5xx_hal_rcc.c ****       MODIFY_REG(RCC->CFGR2, RCC_CFGR2_PPRE1, pClkInitStruct->APB1CLKDivider);
 1251              		.loc 1 1230 7 is_stmt 1 view .LVU429
1231:Drivers/STM32H5xx_HAL_Driver/Src/stm32h5xx_hal_rcc.c ****     }
 1252              		.loc 1 1231 7 view .LVU430
 1253 01fc 2249     		ldr	r1, .L106+4
 1254 01fe 0B6A     		ldr	r3, [r1, #32]
 1255 0200 23F07003 		bic	r3, r3, #112
 1256 0204 1A43     		orrs	r2, r2, r3
 1257 0206 0A62     		str	r2, [r1, #32]
 1258              	.L82:
1236:Drivers/STM32H5xx_HAL_Driver/Src/stm32h5xx_hal_rcc.c ****   {
 1259              		.loc 1 1236 3 view .LVU431
1236:Drivers/STM32H5xx_HAL_Driver/Src/stm32h5xx_hal_rcc.c ****   {
 1260              		.loc 1 1236 23 is_stmt 0 view .LVU432
 1261 0208 2368     		ldr	r3, [r4]
1236:Drivers/STM32H5xx_HAL_Driver/Src/stm32h5xx_hal_rcc.c ****   {
 1262              		.loc 1 1236 6 view .LVU433
 1263 020a 13F0080F 		tst	r3, #8
 1264 020e 0ED0     		beq	.L83
1238:Drivers/STM32H5xx_HAL_Driver/Src/stm32h5xx_hal_rcc.c ****     {
 1265              		.loc 1 1238 5 is_stmt 1 view .LVU434
1238:Drivers/STM32H5xx_HAL_Driver/Src/stm32h5xx_hal_rcc.c ****     {
 1266              		.loc 1 1238 24 is_stmt 0 view .LVU435
 1267 0210 2269     		ldr	r2, [r4, #16]
1238:Drivers/STM32H5xx_HAL_Driver/Src/stm32h5xx_hal_rcc.c ****     {
 1268              		.loc 1 1238 49 view .LVU436
 1269 0212 1D4B     		ldr	r3, .L106+4
 1270 0214 1B6A     		ldr	r3, [r3, #32]
1238:Drivers/STM32H5xx_HAL_Driver/Src/stm32h5xx_hal_rcc.c ****     {
 1271              		.loc 1 1238 76 view .LVU437
 1272 0216 1B09     		lsrs	r3, r3, #4
 1273 0218 03F07003 		and	r3, r3, #112
1238:Drivers/STM32H5xx_HAL_Driver/Src/stm32h5xx_hal_rcc.c ****     {
ARM GAS  C:\Users\sapph\AppData\Local\Temp\ccD3KfzI.s 			page 54


 1274              		.loc 1 1238 8 view .LVU438
 1275 021c 9A42     		cmp	r2, r3
 1276 021e 06D2     		bcs	.L83
1240:Drivers/STM32H5xx_HAL_Driver/Src/stm32h5xx_hal_rcc.c ****       MODIFY_REG(RCC->CFGR2, RCC_CFGR2_PPRE2, ((pClkInitStruct->APB2CLKDivider) << 4));
 1277              		.loc 1 1240 7 is_stmt 1 view .LVU439
1241:Drivers/STM32H5xx_HAL_Driver/Src/stm32h5xx_hal_rcc.c ****     }
 1278              		.loc 1 1241 7 view .LVU440
 1279 0220 1949     		ldr	r1, .L106+4
 1280 0222 0B6A     		ldr	r3, [r1, #32]
 1281 0224 23F4E063 		bic	r3, r3, #1792
 1282 0228 43EA0213 		orr	r3, r3, r2, lsl #4
 1283 022c 0B62     		str	r3, [r1, #32]
 1284              	.L83:
1246:Drivers/STM32H5xx_HAL_Driver/Src/stm32h5xx_hal_rcc.c ****   {
 1285              		.loc 1 1246 3 view .LVU441
1246:Drivers/STM32H5xx_HAL_Driver/Src/stm32h5xx_hal_rcc.c ****   {
 1286              		.loc 1 1246 23 is_stmt 0 view .LVU442
 1287 022e 2368     		ldr	r3, [r4]
1246:Drivers/STM32H5xx_HAL_Driver/Src/stm32h5xx_hal_rcc.c ****   {
 1288              		.loc 1 1246 6 view .LVU443
 1289 0230 13F0100F 		tst	r3, #16
 1290 0234 0ED0     		beq	.L84
1248:Drivers/STM32H5xx_HAL_Driver/Src/stm32h5xx_hal_rcc.c ****     {
 1291              		.loc 1 1248 5 is_stmt 1 view .LVU444
1248:Drivers/STM32H5xx_HAL_Driver/Src/stm32h5xx_hal_rcc.c ****     {
 1292              		.loc 1 1248 24 is_stmt 0 view .LVU445
 1293 0236 6269     		ldr	r2, [r4, #20]
1248:Drivers/STM32H5xx_HAL_Driver/Src/stm32h5xx_hal_rcc.c ****     {
 1294              		.loc 1 1248 49 view .LVU446
 1295 0238 134B     		ldr	r3, .L106+4
 1296 023a 1B6A     		ldr	r3, [r3, #32]
1248:Drivers/STM32H5xx_HAL_Driver/Src/stm32h5xx_hal_rcc.c ****     {
 1297              		.loc 1 1248 76 view .LVU447
 1298 023c 1B0A     		lsrs	r3, r3, #8
 1299 023e 03F07003 		and	r3, r3, #112
1248:Drivers/STM32H5xx_HAL_Driver/Src/stm32h5xx_hal_rcc.c ****     {
 1300              		.loc 1 1248 8 view .LVU448
 1301 0242 9A42     		cmp	r2, r3
 1302 0244 06D2     		bcs	.L84
1250:Drivers/STM32H5xx_HAL_Driver/Src/stm32h5xx_hal_rcc.c ****       MODIFY_REG(RCC->CFGR2, RCC_CFGR2_PPRE3, ((pClkInitStruct->APB3CLKDivider) << 8));
 1303              		.loc 1 1250 7 is_stmt 1 view .LVU449
1251:Drivers/STM32H5xx_HAL_Driver/Src/stm32h5xx_hal_rcc.c ****     }
 1304              		.loc 1 1251 7 view .LVU450
 1305 0246 1049     		ldr	r1, .L106+4
 1306 0248 0B6A     		ldr	r3, [r1, #32]
 1307 024a 23F4E043 		bic	r3, r3, #28672
 1308 024e 43EA0223 		orr	r3, r3, r2, lsl #8
 1309 0252 0B62     		str	r3, [r1, #32]
 1310              	.L84:
1256:Drivers/STM32H5xx_HAL_Driver/Src/stm32h5xx_hal_rcc.c **** 
 1311              		.loc 1 1256 3 view .LVU451
1256:Drivers/STM32H5xx_HAL_Driver/Src/stm32h5xx_hal_rcc.c **** 
 1312              		.loc 1 1256 21 is_stmt 0 view .LVU452
 1313 0254 FFF7FEFF 		bl	HAL_RCC_GetSysClockFreq
 1314              	.LVL79:
1256:Drivers/STM32H5xx_HAL_Driver/Src/stm32h5xx_hal_rcc.c **** 
 1315              		.loc 1 1256 68 discriminator 1 view .LVU453
ARM GAS  C:\Users\sapph\AppData\Local\Temp\ccD3KfzI.s 			page 55


 1316 0258 0B4B     		ldr	r3, .L106+4
 1317 025a 1B6A     		ldr	r3, [r3, #32]
1256:Drivers/STM32H5xx_HAL_Driver/Src/stm32h5xx_hal_rcc.c **** 
 1318              		.loc 1 1256 94 discriminator 1 view .LVU454
 1319 025c 03F00F03 		and	r3, r3, #15
1256:Drivers/STM32H5xx_HAL_Driver/Src/stm32h5xx_hal_rcc.c **** 
 1320              		.loc 1 1256 63 discriminator 1 view .LVU455
 1321 0260 0A4A     		ldr	r2, .L106+8
 1322 0262 D35C     		ldrb	r3, [r2, r3]	@ zero_extendqisi2
1256:Drivers/STM32H5xx_HAL_Driver/Src/stm32h5xx_hal_rcc.c **** 
 1323              		.loc 1 1256 47 discriminator 1 view .LVU456
 1324 0264 D840     		lsrs	r0, r0, r3
1256:Drivers/STM32H5xx_HAL_Driver/Src/stm32h5xx_hal_rcc.c **** 
 1325              		.loc 1 1256 19 discriminator 1 view .LVU457
 1326 0266 0A4B     		ldr	r3, .L106+12
 1327 0268 1860     		str	r0, [r3]
1259:Drivers/STM32H5xx_HAL_Driver/Src/stm32h5xx_hal_rcc.c **** 
 1328              		.loc 1 1259 3 is_stmt 1 view .LVU458
1259:Drivers/STM32H5xx_HAL_Driver/Src/stm32h5xx_hal_rcc.c **** 
 1329              		.loc 1 1259 15 is_stmt 0 view .LVU459
 1330 026a 0A4B     		ldr	r3, .L106+16
 1331 026c 1868     		ldr	r0, [r3]
 1332 026e FFF7FEFF 		bl	HAL_InitTick
 1333              	.LVL80:
1261:Drivers/STM32H5xx_HAL_Driver/Src/stm32h5xx_hal_rcc.c **** }
 1334              		.loc 1 1261 3 is_stmt 1 view .LVU460
 1335              	.L59:
1262:Drivers/STM32H5xx_HAL_Driver/Src/stm32h5xx_hal_rcc.c **** 
 1336              		.loc 1 1262 1 is_stmt 0 view .LVU461
 1337 0272 70BD     		pop	{r4, r5, r6, pc}
 1338              	.LVL81:
 1339              	.L85:
 1340              		.cfi_def_cfa_offset 0
 1341              		.cfi_restore 4
 1342              		.cfi_restore 5
 1343              		.cfi_restore 6
 1344              		.cfi_restore 14
1040:Drivers/STM32H5xx_HAL_Driver/Src/stm32h5xx_hal_rcc.c ****   }
 1345              		.loc 1 1040 12 view .LVU462
 1346 0274 0120     		movs	r0, #1
 1347              	.LVL82:
1262:Drivers/STM32H5xx_HAL_Driver/Src/stm32h5xx_hal_rcc.c **** 
 1348              		.loc 1 1262 1 view .LVU463
 1349 0276 7047     		bx	lr
 1350              	.LVL83:
 1351              	.L86:
 1352              		.cfi_def_cfa_offset 16
 1353              		.cfi_offset 4, -16
 1354              		.cfi_offset 5, -12
 1355              		.cfi_offset 6, -8
 1356              		.cfi_offset 14, -4
1061:Drivers/STM32H5xx_HAL_Driver/Src/stm32h5xx_hal_rcc.c ****     }
 1357              		.loc 1 1061 14 view .LVU464
 1358 0278 0120     		movs	r0, #1
 1359              	.LVL84:
1061:Drivers/STM32H5xx_HAL_Driver/Src/stm32h5xx_hal_rcc.c ****     }
 1360              		.loc 1 1061 14 view .LVU465
ARM GAS  C:\Users\sapph\AppData\Local\Temp\ccD3KfzI.s 			page 56


 1361 027a FAE7     		b	.L59
 1362              	.LVL85:
 1363              	.L105:
1116:Drivers/STM32H5xx_HAL_Driver/Src/stm32h5xx_hal_rcc.c ****       }
 1364              		.loc 1 1116 16 view .LVU466
 1365 027c 0120     		movs	r0, #1
 1366              	.LVL86:
1116:Drivers/STM32H5xx_HAL_Driver/Src/stm32h5xx_hal_rcc.c ****       }
 1367              		.loc 1 1116 16 view .LVU467
 1368 027e F8E7     		b	.L59
 1369              	.L95:
1221:Drivers/STM32H5xx_HAL_Driver/Src/stm32h5xx_hal_rcc.c ****     }
 1370              		.loc 1 1221 14 view .LVU468
 1371 0280 0120     		movs	r0, #1
 1372 0282 F6E7     		b	.L59
 1373              	.L107:
 1374              		.align	2
 1375              	.L106:
 1376 0284 00200240 		.word	1073881088
 1377 0288 000C0244 		.word	1140984832
 1378 028c 00000000 		.word	AHBPrescTable
 1379 0290 00000000 		.word	SystemCoreClock
 1380 0294 00000000 		.word	uwTickPrio
 1381              		.cfi_endproc
 1382              	.LFE162:
 1384              		.section	.text.HAL_RCC_GetHCLKFreq,"ax",%progbits
 1385              		.align	1
 1386              		.global	HAL_RCC_GetHCLKFreq
 1387              		.syntax unified
 1388              		.thumb
 1389              		.thumb_func
 1391              	HAL_RCC_GetHCLKFreq:
 1392              	.LFB165:
1487:Drivers/STM32H5xx_HAL_Driver/Src/stm32h5xx_hal_rcc.c **** 
1488:Drivers/STM32H5xx_HAL_Driver/Src/stm32h5xx_hal_rcc.c **** /**
1489:Drivers/STM32H5xx_HAL_Driver/Src/stm32h5xx_hal_rcc.c ****   * @brief  Return the HCLK frequency.
1490:Drivers/STM32H5xx_HAL_Driver/Src/stm32h5xx_hal_rcc.c ****   * @note   Each time HCLK changes, this function must be called to update the
1491:Drivers/STM32H5xx_HAL_Driver/Src/stm32h5xx_hal_rcc.c ****   *         right HCLK value. Otherwise, any configuration based on this function will be incorrect
1492:Drivers/STM32H5xx_HAL_Driver/Src/stm32h5xx_hal_rcc.c ****   *
1493:Drivers/STM32H5xx_HAL_Driver/Src/stm32h5xx_hal_rcc.c ****   * @note   The SystemCoreClock CMSIS variable is used to store System Clock Frequency.
1494:Drivers/STM32H5xx_HAL_Driver/Src/stm32h5xx_hal_rcc.c ****   * @retval HCLK frequency in Hz
1495:Drivers/STM32H5xx_HAL_Driver/Src/stm32h5xx_hal_rcc.c ****   */
1496:Drivers/STM32H5xx_HAL_Driver/Src/stm32h5xx_hal_rcc.c **** uint32_t HAL_RCC_GetHCLKFreq(void)
1497:Drivers/STM32H5xx_HAL_Driver/Src/stm32h5xx_hal_rcc.c **** {
 1393              		.loc 1 1497 1 is_stmt 1 view -0
 1394              		.cfi_startproc
 1395              		@ args = 0, pretend = 0, frame = 0
 1396              		@ frame_needed = 0, uses_anonymous_args = 0
 1397 0000 08B5     		push	{r3, lr}
 1398              		.cfi_def_cfa_offset 8
 1399              		.cfi_offset 3, -8
 1400              		.cfi_offset 14, -4
1498:Drivers/STM32H5xx_HAL_Driver/Src/stm32h5xx_hal_rcc.c **** 
1499:Drivers/STM32H5xx_HAL_Driver/Src/stm32h5xx_hal_rcc.c ****   SystemCoreClock = HAL_RCC_GetSysClockFreq() >> (AHBPrescTable[(RCC->CFGR2 & RCC_CFGR2_HPRE) \
 1401              		.loc 1 1499 3 view .LVU470
 1402              		.loc 1 1499 21 is_stmt 0 view .LVU471
 1403 0002 FFF7FEFF 		bl	HAL_RCC_GetSysClockFreq
ARM GAS  C:\Users\sapph\AppData\Local\Temp\ccD3KfzI.s 			page 57


 1404              	.LVL87:
 1405              		.loc 1 1499 69 discriminator 1 view .LVU472
 1406 0006 064B     		ldr	r3, .L110
 1407 0008 1B6A     		ldr	r3, [r3, #32]
1500:Drivers/STM32H5xx_HAL_Driver/Src/stm32h5xx_hal_rcc.c ****                                                                 >> RCC_CFGR2_HPRE_Pos] & 0x1FU);
 1408              		.loc 1 1500 65 view .LVU473
 1409 000a 03F00F03 		and	r3, r3, #15
1499:Drivers/STM32H5xx_HAL_Driver/Src/stm32h5xx_hal_rcc.c ****                                                                 >> RCC_CFGR2_HPRE_Pos] & 0x1FU);
 1410              		.loc 1 1499 64 view .LVU474
 1411 000e 054A     		ldr	r2, .L110+4
 1412 0010 D35C     		ldrb	r3, [r2, r3]	@ zero_extendqisi2
 1413              		.loc 1 1500 88 view .LVU475
 1414 0012 03F01F03 		and	r3, r3, #31
1499:Drivers/STM32H5xx_HAL_Driver/Src/stm32h5xx_hal_rcc.c ****                                                                 >> RCC_CFGR2_HPRE_Pos] & 0x1FU);
 1415              		.loc 1 1499 47 view .LVU476
 1416 0016 D840     		lsrs	r0, r0, r3
1499:Drivers/STM32H5xx_HAL_Driver/Src/stm32h5xx_hal_rcc.c ****                                                                 >> RCC_CFGR2_HPRE_Pos] & 0x1FU);
 1417              		.loc 1 1499 19 view .LVU477
 1418 0018 034B     		ldr	r3, .L110+8
 1419 001a 1860     		str	r0, [r3]
1501:Drivers/STM32H5xx_HAL_Driver/Src/stm32h5xx_hal_rcc.c **** 
1502:Drivers/STM32H5xx_HAL_Driver/Src/stm32h5xx_hal_rcc.c ****   return SystemCoreClock;
 1420              		.loc 1 1502 3 is_stmt 1 view .LVU478
1503:Drivers/STM32H5xx_HAL_Driver/Src/stm32h5xx_hal_rcc.c **** }
 1421              		.loc 1 1503 1 is_stmt 0 view .LVU479
 1422 001c 08BD     		pop	{r3, pc}
 1423              	.L111:
 1424 001e 00BF     		.align	2
 1425              	.L110:
 1426 0020 000C0244 		.word	1140984832
 1427 0024 00000000 		.word	AHBPrescTable
 1428 0028 00000000 		.word	SystemCoreClock
 1429              		.cfi_endproc
 1430              	.LFE165:
 1432              		.section	.text.HAL_RCC_OscConfig,"ax",%progbits
 1433              		.align	1
 1434              		.global	HAL_RCC_OscConfig
 1435              		.syntax unified
 1436              		.thumb
 1437              		.thumb_func
 1439              	HAL_RCC_OscConfig:
 1440              	.LVL88:
 1441              	.LFB161:
 461:Drivers/STM32H5xx_HAL_Driver/Src/stm32h5xx_hal_rcc.c ****   uint32_t tickstart;
 1442              		.loc 1 461 1 is_stmt 1 view -0
 1443              		.cfi_startproc
 1444              		@ args = 0, pretend = 0, frame = 0
 1445              		@ frame_needed = 0, uses_anonymous_args = 0
 462:Drivers/STM32H5xx_HAL_Driver/Src/stm32h5xx_hal_rcc.c ****   uint32_t temp_sysclksrc;
 1446              		.loc 1 462 3 view .LVU481
 463:Drivers/STM32H5xx_HAL_Driver/Src/stm32h5xx_hal_rcc.c ****   uint32_t temp_pllckselr;
 1447              		.loc 1 463 3 view .LVU482
 464:Drivers/STM32H5xx_HAL_Driver/Src/stm32h5xx_hal_rcc.c ****   uint32_t temp1_pllckcfg;
 1448              		.loc 1 464 3 view .LVU483
 465:Drivers/STM32H5xx_HAL_Driver/Src/stm32h5xx_hal_rcc.c ****   uint32_t temp2_pllckcfg;
 1449              		.loc 1 465 3 view .LVU484
 466:Drivers/STM32H5xx_HAL_Driver/Src/stm32h5xx_hal_rcc.c **** 
ARM GAS  C:\Users\sapph\AppData\Local\Temp\ccD3KfzI.s 			page 58


 1450              		.loc 1 466 3 view .LVU485
 469:Drivers/STM32H5xx_HAL_Driver/Src/stm32h5xx_hal_rcc.c ****   {
 1451              		.loc 1 469 3 view .LVU486
 469:Drivers/STM32H5xx_HAL_Driver/Src/stm32h5xx_hal_rcc.c ****   {
 1452              		.loc 1 469 6 is_stmt 0 view .LVU487
 1453 0000 0028     		cmp	r0, #0
 1454 0002 00F02883 		beq	.L181
 461:Drivers/STM32H5xx_HAL_Driver/Src/stm32h5xx_hal_rcc.c ****   uint32_t tickstart;
 1455              		.loc 1 461 1 view .LVU488
 1456 0006 F8B5     		push	{r3, r4, r5, r6, r7, lr}
 1457              		.cfi_def_cfa_offset 24
 1458              		.cfi_offset 3, -24
 1459              		.cfi_offset 4, -20
 1460              		.cfi_offset 5, -16
 1461              		.cfi_offset 6, -12
 1462              		.cfi_offset 7, -8
 1463              		.cfi_offset 14, -4
 1464 0008 0446     		mov	r4, r0
 475:Drivers/STM32H5xx_HAL_Driver/Src/stm32h5xx_hal_rcc.c ****   temp_sysclksrc = __HAL_RCC_GET_SYSCLK_SOURCE();
 1465              		.loc 1 475 3 is_stmt 1 view .LVU489
 476:Drivers/STM32H5xx_HAL_Driver/Src/stm32h5xx_hal_rcc.c ****   temp_pllckselr = __HAL_RCC_GET_PLL1_OSCSOURCE();
 1466              		.loc 1 476 3 view .LVU490
 476:Drivers/STM32H5xx_HAL_Driver/Src/stm32h5xx_hal_rcc.c ****   temp_pllckselr = __HAL_RCC_GET_PLL1_OSCSOURCE();
 1467              		.loc 1 476 20 is_stmt 0 view .LVU491
 1468 000a A24B     		ldr	r3, .L236
 1469 000c DD69     		ldr	r5, [r3, #28]
 476:Drivers/STM32H5xx_HAL_Driver/Src/stm32h5xx_hal_rcc.c ****   temp_pllckselr = __HAL_RCC_GET_PLL1_OSCSOURCE();
 1470              		.loc 1 476 18 view .LVU492
 1471 000e 05F01805 		and	r5, r5, #24
 1472              	.LVL89:
 477:Drivers/STM32H5xx_HAL_Driver/Src/stm32h5xx_hal_rcc.c **** 
 1473              		.loc 1 477 3 is_stmt 1 view .LVU493
 477:Drivers/STM32H5xx_HAL_Driver/Src/stm32h5xx_hal_rcc.c **** 
 1474              		.loc 1 477 20 is_stmt 0 view .LVU494
 1475 0012 9E6A     		ldr	r6, [r3, #40]
 477:Drivers/STM32H5xx_HAL_Driver/Src/stm32h5xx_hal_rcc.c **** 
 1476              		.loc 1 477 18 view .LVU495
 1477 0014 06F00306 		and	r6, r6, #3
 1478              	.LVL90:
 480:Drivers/STM32H5xx_HAL_Driver/Src/stm32h5xx_hal_rcc.c ****   {
 1479              		.loc 1 480 3 is_stmt 1 view .LVU496
 480:Drivers/STM32H5xx_HAL_Driver/Src/stm32h5xx_hal_rcc.c ****   {
 1480              		.loc 1 480 23 is_stmt 0 view .LVU497
 1481 0018 0368     		ldr	r3, [r0]
 480:Drivers/STM32H5xx_HAL_Driver/Src/stm32h5xx_hal_rcc.c ****   {
 1482              		.loc 1 480 6 view .LVU498
 1483 001a 13F0100F 		tst	r3, #16
 1484 001e 28D0     		beq	.L114
 483:Drivers/STM32H5xx_HAL_Driver/Src/stm32h5xx_hal_rcc.c ****     assert_param(IS_RCC_CSICALIBRATION_VALUE(pOscInitStruct->CSICalibrationValue));
 1485              		.loc 1 483 5 is_stmt 1 view .LVU499
 484:Drivers/STM32H5xx_HAL_Driver/Src/stm32h5xx_hal_rcc.c **** 
 1486              		.loc 1 484 5 view .LVU500
 487:Drivers/STM32H5xx_HAL_Driver/Src/stm32h5xx_hal_rcc.c ****         ((temp_sysclksrc == RCC_SYSCLKSOURCE_STATUS_PLLCLK) && (temp_pllckselr == RCC_PLL1_SOURCE_C
 1487              		.loc 1 487 5 view .LVU501
 487:Drivers/STM32H5xx_HAL_Driver/Src/stm32h5xx_hal_rcc.c ****         ((temp_sysclksrc == RCC_SYSCLKSOURCE_STATUS_PLLCLK) && (temp_pllckselr == RCC_PLL1_SOURCE_C
 1488              		.loc 1 487 8 is_stmt 0 view .LVU502
 1489 0020 082D     		cmp	r5, #8
ARM GAS  C:\Users\sapph\AppData\Local\Temp\ccD3KfzI.s 			page 59


 1490 0022 1AD0     		beq	.L115
 487:Drivers/STM32H5xx_HAL_Driver/Src/stm32h5xx_hal_rcc.c ****         ((temp_sysclksrc == RCC_SYSCLKSOURCE_STATUS_PLLCLK) && (temp_pllckselr == RCC_PLL1_SOURCE_C
 1491              		.loc 1 487 57 discriminator 1 view .LVU503
 1492 0024 182D     		cmp	r5, #24
 1493 0026 16D0     		beq	.L216
 1494              	.L116:
 505:Drivers/STM32H5xx_HAL_Driver/Src/stm32h5xx_hal_rcc.c ****       {
 1495              		.loc 1 505 7 is_stmt 1 view .LVU504
 505:Drivers/STM32H5xx_HAL_Driver/Src/stm32h5xx_hal_rcc.c ****       {
 1496              		.loc 1 505 26 is_stmt 0 view .LVU505
 1497 0028 E369     		ldr	r3, [r4, #28]
 505:Drivers/STM32H5xx_HAL_Driver/Src/stm32h5xx_hal_rcc.c ****       {
 1498              		.loc 1 505 10 view .LVU506
 1499 002a 002B     		cmp	r3, #0
 1500 002c 46D0     		beq	.L117
 508:Drivers/STM32H5xx_HAL_Driver/Src/stm32h5xx_hal_rcc.c **** 
 1501              		.loc 1 508 9 is_stmt 1 view .LVU507
 1502 002e 994A     		ldr	r2, .L236
 1503 0030 1368     		ldr	r3, [r2]
 1504 0032 43F48073 		orr	r3, r3, #256
 1505 0036 1360     		str	r3, [r2]
 511:Drivers/STM32H5xx_HAL_Driver/Src/stm32h5xx_hal_rcc.c **** 
 1506              		.loc 1 511 9 view .LVU508
 511:Drivers/STM32H5xx_HAL_Driver/Src/stm32h5xx_hal_rcc.c **** 
 1507              		.loc 1 511 21 is_stmt 0 view .LVU509
 1508 0038 FFF7FEFF 		bl	HAL_GetTick
 1509              	.LVL91:
 511:Drivers/STM32H5xx_HAL_Driver/Src/stm32h5xx_hal_rcc.c **** 
 1510              		.loc 1 511 21 view .LVU510
 1511 003c 0746     		mov	r7, r0
 1512              	.LVL92:
 514:Drivers/STM32H5xx_HAL_Driver/Src/stm32h5xx_hal_rcc.c ****         {
 1513              		.loc 1 514 9 is_stmt 1 view .LVU511
 1514              	.L118:
 514:Drivers/STM32H5xx_HAL_Driver/Src/stm32h5xx_hal_rcc.c ****         {
 1515              		.loc 1 514 49 view .LVU512
 514:Drivers/STM32H5xx_HAL_Driver/Src/stm32h5xx_hal_rcc.c ****         {
 1516              		.loc 1 514 16 is_stmt 0 view .LVU513
 1517 003e 954B     		ldr	r3, .L236
 1518 0040 1B68     		ldr	r3, [r3]
 514:Drivers/STM32H5xx_HAL_Driver/Src/stm32h5xx_hal_rcc.c ****         {
 1519              		.loc 1 514 49 view .LVU514
 1520 0042 13F4007F 		tst	r3, #512
 1521 0046 30D1     		bne	.L217
 516:Drivers/STM32H5xx_HAL_Driver/Src/stm32h5xx_hal_rcc.c ****           {
 1522              		.loc 1 516 11 is_stmt 1 view .LVU515
 516:Drivers/STM32H5xx_HAL_Driver/Src/stm32h5xx_hal_rcc.c ****           {
 1523              		.loc 1 516 16 is_stmt 0 view .LVU516
 1524 0048 FFF7FEFF 		bl	HAL_GetTick
 1525              	.LVL93:
 516:Drivers/STM32H5xx_HAL_Driver/Src/stm32h5xx_hal_rcc.c ****           {
 1526              		.loc 1 516 30 discriminator 1 view .LVU517
 1527 004c C01B     		subs	r0, r0, r7
 516:Drivers/STM32H5xx_HAL_Driver/Src/stm32h5xx_hal_rcc.c ****           {
 1528              		.loc 1 516 14 discriminator 1 view .LVU518
 1529 004e 0228     		cmp	r0, #2
 1530 0050 F5D9     		bls	.L118
ARM GAS  C:\Users\sapph\AppData\Local\Temp\ccD3KfzI.s 			page 60


 518:Drivers/STM32H5xx_HAL_Driver/Src/stm32h5xx_hal_rcc.c ****           }
 1531              		.loc 1 518 20 view .LVU519
 1532 0052 0320     		movs	r0, #3
 1533 0054 08E3     		b	.L113
 1534              	.LVL94:
 1535              	.L216:
 488:Drivers/STM32H5xx_HAL_Driver/Src/stm32h5xx_hal_rcc.c ****     {
 1536              		.loc 1 488 61 view .LVU520
 1537 0056 022E     		cmp	r6, #2
 1538 0058 E6D1     		bne	.L116
 1539              	.L115:
 490:Drivers/STM32H5xx_HAL_Driver/Src/stm32h5xx_hal_rcc.c ****       {
 1540              		.loc 1 490 7 is_stmt 1 view .LVU521
 490:Drivers/STM32H5xx_HAL_Driver/Src/stm32h5xx_hal_rcc.c ****       {
 1541              		.loc 1 490 25 is_stmt 0 view .LVU522
 1542 005a E369     		ldr	r3, [r4, #28]
 490:Drivers/STM32H5xx_HAL_Driver/Src/stm32h5xx_hal_rcc.c ****       {
 1543              		.loc 1 490 10 view .LVU523
 1544 005c 002B     		cmp	r3, #0
 1545 005e 00F0FC82 		beq	.L182
 499:Drivers/STM32H5xx_HAL_Driver/Src/stm32h5xx_hal_rcc.c ****       }
 1546              		.loc 1 499 9 is_stmt 1 view .LVU524
 499:Drivers/STM32H5xx_HAL_Driver/Src/stm32h5xx_hal_rcc.c ****       }
 1547              		.loc 1 499 9 view .LVU525
 1548 0062 8C4A     		ldr	r2, .L236
 1549 0064 9369     		ldr	r3, [r2, #24]
 1550 0066 23F47C13 		bic	r3, r3, #4128768
 1551 006a 216A     		ldr	r1, [r4, #32]
 1552 006c 43EA0143 		orr	r3, r3, r1, lsl #16
 1553 0070 9361     		str	r3, [r2, #24]
 499:Drivers/STM32H5xx_HAL_Driver/Src/stm32h5xx_hal_rcc.c ****       }
 1554              		.loc 1 499 9 view .LVU526
 1555              	.LVL95:
 1556              	.L114:
 545:Drivers/STM32H5xx_HAL_Driver/Src/stm32h5xx_hal_rcc.c ****   {
 1557              		.loc 1 545 3 view .LVU527
 545:Drivers/STM32H5xx_HAL_Driver/Src/stm32h5xx_hal_rcc.c ****   {
 1558              		.loc 1 545 23 is_stmt 0 view .LVU528
 1559 0072 2368     		ldr	r3, [r4]
 545:Drivers/STM32H5xx_HAL_Driver/Src/stm32h5xx_hal_rcc.c ****   {
 1560              		.loc 1 545 6 view .LVU529
 1561 0074 13F0010F 		tst	r3, #1
 1562 0078 3AD0     		beq	.L122
 548:Drivers/STM32H5xx_HAL_Driver/Src/stm32h5xx_hal_rcc.c **** 
 1563              		.loc 1 548 5 is_stmt 1 view .LVU530
 551:Drivers/STM32H5xx_HAL_Driver/Src/stm32h5xx_hal_rcc.c ****         ((temp_sysclksrc == RCC_SYSCLKSOURCE_STATUS_PLLCLK) && (temp_pllckselr == RCC_PLL1_SOURCE_H
 1564              		.loc 1 551 5 view .LVU531
 551:Drivers/STM32H5xx_HAL_Driver/Src/stm32h5xx_hal_rcc.c ****         ((temp_sysclksrc == RCC_SYSCLKSOURCE_STATUS_PLLCLK) && (temp_pllckselr == RCC_PLL1_SOURCE_H
 1565              		.loc 1 551 8 is_stmt 0 view .LVU532
 1566 007a 102D     		cmp	r5, #16
 1567 007c 34D0     		beq	.L123
 551:Drivers/STM32H5xx_HAL_Driver/Src/stm32h5xx_hal_rcc.c ****         ((temp_sysclksrc == RCC_SYSCLKSOURCE_STATUS_PLLCLK) && (temp_pllckselr == RCC_PLL1_SOURCE_H
 1568              		.loc 1 551 57 discriminator 1 view .LVU533
 1569 007e 182D     		cmp	r5, #24
 1570 0080 30D0     		beq	.L218
 1571              	.L124:
 562:Drivers/STM32H5xx_HAL_Driver/Src/stm32h5xx_hal_rcc.c **** 
ARM GAS  C:\Users\sapph\AppData\Local\Temp\ccD3KfzI.s 			page 61


 1572              		.loc 1 562 7 is_stmt 1 view .LVU534
 562:Drivers/STM32H5xx_HAL_Driver/Src/stm32h5xx_hal_rcc.c **** 
 1573              		.loc 1 562 7 view .LVU535
 1574 0082 6368     		ldr	r3, [r4, #4]
 1575 0084 B3F5803F 		cmp	r3, #65536
 1576 0088 5AD0     		beq	.L219
 562:Drivers/STM32H5xx_HAL_Driver/Src/stm32h5xx_hal_rcc.c **** 
 1577              		.loc 1 562 7 discriminator 2 view .LVU536
 1578 008a 002B     		cmp	r3, #0
 1579 008c 6FD1     		bne	.L127
 562:Drivers/STM32H5xx_HAL_Driver/Src/stm32h5xx_hal_rcc.c **** 
 1580              		.loc 1 562 7 discriminator 4 view .LVU537
 1581 008e 814B     		ldr	r3, .L236
 1582 0090 1A68     		ldr	r2, [r3]
 1583 0092 22F48032 		bic	r2, r2, #65536
 1584 0096 1A60     		str	r2, [r3]
 562:Drivers/STM32H5xx_HAL_Driver/Src/stm32h5xx_hal_rcc.c **** 
 1585              		.loc 1 562 7 discriminator 4 view .LVU538
 1586 0098 1A68     		ldr	r2, [r3]
 1587 009a 22F48012 		bic	r2, r2, #1048576
 1588 009e 1A60     		str	r2, [r3]
 562:Drivers/STM32H5xx_HAL_Driver/Src/stm32h5xx_hal_rcc.c **** 
 1589              		.loc 1 562 7 discriminator 4 view .LVU539
 1590 00a0 1A68     		ldr	r2, [r3]
 1591 00a2 22F48022 		bic	r2, r2, #262144
 1592 00a6 1A60     		str	r2, [r3]
 1593 00a8 4FE0     		b	.L126
 1594              	.LVL96:
 1595              	.L217:
 523:Drivers/STM32H5xx_HAL_Driver/Src/stm32h5xx_hal_rcc.c ****       }
 1596              		.loc 1 523 9 view .LVU540
 523:Drivers/STM32H5xx_HAL_Driver/Src/stm32h5xx_hal_rcc.c ****       }
 1597              		.loc 1 523 9 view .LVU541
 1598 00aa 7A4A     		ldr	r2, .L236
 1599 00ac 9369     		ldr	r3, [r2, #24]
 1600 00ae 23F47C13 		bic	r3, r3, #4128768
 1601 00b2 216A     		ldr	r1, [r4, #32]
 1602 00b4 43EA0143 		orr	r3, r3, r1, lsl #16
 1603 00b8 9361     		str	r3, [r2, #24]
 523:Drivers/STM32H5xx_HAL_Driver/Src/stm32h5xx_hal_rcc.c ****       }
 1604              		.loc 1 523 9 view .LVU542
 1605 00ba DAE7     		b	.L114
 1606              	.LVL97:
 1607              	.L117:
 528:Drivers/STM32H5xx_HAL_Driver/Src/stm32h5xx_hal_rcc.c **** 
 1608              		.loc 1 528 9 view .LVU543
 1609 00bc 754A     		ldr	r2, .L236
 1610 00be 1368     		ldr	r3, [r2]
 1611 00c0 23F48073 		bic	r3, r3, #256
 1612 00c4 1360     		str	r3, [r2]
 531:Drivers/STM32H5xx_HAL_Driver/Src/stm32h5xx_hal_rcc.c **** 
 1613              		.loc 1 531 9 view .LVU544
 531:Drivers/STM32H5xx_HAL_Driver/Src/stm32h5xx_hal_rcc.c **** 
 1614              		.loc 1 531 21 is_stmt 0 view .LVU545
 1615 00c6 FFF7FEFF 		bl	HAL_GetTick
 1616              	.LVL98:
 531:Drivers/STM32H5xx_HAL_Driver/Src/stm32h5xx_hal_rcc.c **** 
ARM GAS  C:\Users\sapph\AppData\Local\Temp\ccD3KfzI.s 			page 62


 1617              		.loc 1 531 21 view .LVU546
 1618 00ca 0746     		mov	r7, r0
 1619              	.LVL99:
 534:Drivers/STM32H5xx_HAL_Driver/Src/stm32h5xx_hal_rcc.c ****         {
 1620              		.loc 1 534 9 is_stmt 1 view .LVU547
 1621              	.L120:
 534:Drivers/STM32H5xx_HAL_Driver/Src/stm32h5xx_hal_rcc.c ****         {
 1622              		.loc 1 534 49 view .LVU548
 534:Drivers/STM32H5xx_HAL_Driver/Src/stm32h5xx_hal_rcc.c ****         {
 1623              		.loc 1 534 16 is_stmt 0 view .LVU549
 1624 00cc 714B     		ldr	r3, .L236
 1625 00ce 1B68     		ldr	r3, [r3]
 534:Drivers/STM32H5xx_HAL_Driver/Src/stm32h5xx_hal_rcc.c ****         {
 1626              		.loc 1 534 49 view .LVU550
 1627 00d0 13F4007F 		tst	r3, #512
 1628 00d4 CDD0     		beq	.L114
 536:Drivers/STM32H5xx_HAL_Driver/Src/stm32h5xx_hal_rcc.c ****           {
 1629              		.loc 1 536 11 is_stmt 1 view .LVU551
 536:Drivers/STM32H5xx_HAL_Driver/Src/stm32h5xx_hal_rcc.c ****           {
 1630              		.loc 1 536 16 is_stmt 0 view .LVU552
 1631 00d6 FFF7FEFF 		bl	HAL_GetTick
 1632              	.LVL100:
 536:Drivers/STM32H5xx_HAL_Driver/Src/stm32h5xx_hal_rcc.c ****           {
 1633              		.loc 1 536 30 discriminator 1 view .LVU553
 1634 00da C01B     		subs	r0, r0, r7
 536:Drivers/STM32H5xx_HAL_Driver/Src/stm32h5xx_hal_rcc.c ****           {
 1635              		.loc 1 536 14 discriminator 1 view .LVU554
 1636 00dc 0228     		cmp	r0, #2
 1637 00de F5D9     		bls	.L120
 538:Drivers/STM32H5xx_HAL_Driver/Src/stm32h5xx_hal_rcc.c ****           }
 1638              		.loc 1 538 20 view .LVU555
 1639 00e0 0320     		movs	r0, #3
 1640 00e2 C1E2     		b	.L113
 1641              	.LVL101:
 1642              	.L218:
 552:Drivers/STM32H5xx_HAL_Driver/Src/stm32h5xx_hal_rcc.c ****     {
 1643              		.loc 1 552 61 view .LVU556
 1644 00e4 032E     		cmp	r6, #3
 1645 00e6 CCD1     		bne	.L124
 1646              	.L123:
 554:Drivers/STM32H5xx_HAL_Driver/Src/stm32h5xx_hal_rcc.c ****       {
 1647              		.loc 1 554 7 is_stmt 1 view .LVU557
 554:Drivers/STM32H5xx_HAL_Driver/Src/stm32h5xx_hal_rcc.c ****       {
 1648              		.loc 1 554 25 is_stmt 0 view .LVU558
 1649 00e8 6368     		ldr	r3, [r4, #4]
 554:Drivers/STM32H5xx_HAL_Driver/Src/stm32h5xx_hal_rcc.c ****       {
 1650              		.loc 1 554 10 view .LVU559
 1651 00ea 002B     		cmp	r3, #0
 1652 00ec 00F0B782 		beq	.L220
 1653              	.L122:
 596:Drivers/STM32H5xx_HAL_Driver/Src/stm32h5xx_hal_rcc.c ****   {
 1654              		.loc 1 596 3 is_stmt 1 view .LVU560
 596:Drivers/STM32H5xx_HAL_Driver/Src/stm32h5xx_hal_rcc.c ****   {
 1655              		.loc 1 596 23 is_stmt 0 view .LVU561
 1656 00f0 2368     		ldr	r3, [r4]
 596:Drivers/STM32H5xx_HAL_Driver/Src/stm32h5xx_hal_rcc.c ****   {
 1657              		.loc 1 596 6 view .LVU562
ARM GAS  C:\Users\sapph\AppData\Local\Temp\ccD3KfzI.s 			page 63


 1658 00f2 13F0020F 		tst	r3, #2
 1659 00f6 00F0AE80 		beq	.L135
 599:Drivers/STM32H5xx_HAL_Driver/Src/stm32h5xx_hal_rcc.c ****     assert_param(IS_RCC_HSIDIV(pOscInitStruct->HSIDiv));
 1660              		.loc 1 599 5 is_stmt 1 view .LVU563
 600:Drivers/STM32H5xx_HAL_Driver/Src/stm32h5xx_hal_rcc.c ****     assert_param(IS_RCC_HSI_CALIBRATION_VALUE(pOscInitStruct->HSICalibrationValue));
 1661              		.loc 1 600 5 view .LVU564
 601:Drivers/STM32H5xx_HAL_Driver/Src/stm32h5xx_hal_rcc.c **** 
 1662              		.loc 1 601 5 view .LVU565
 604:Drivers/STM32H5xx_HAL_Driver/Src/stm32h5xx_hal_rcc.c ****         ((temp_sysclksrc == RCC_SYSCLKSOURCE_STATUS_PLLCLK) && (temp_pllckselr == RCC_PLL1_SOURCE_H
 1663              		.loc 1 604 5 view .LVU566
 604:Drivers/STM32H5xx_HAL_Driver/Src/stm32h5xx_hal_rcc.c ****         ((temp_sysclksrc == RCC_SYSCLKSOURCE_STATUS_PLLCLK) && (temp_pllckselr == RCC_PLL1_SOURCE_H
 1664              		.loc 1 604 8 is_stmt 0 view .LVU567
 1665 00fa 002D     		cmp	r5, #0
 1666 00fc 78D0     		beq	.L136
 604:Drivers/STM32H5xx_HAL_Driver/Src/stm32h5xx_hal_rcc.c ****         ((temp_sysclksrc == RCC_SYSCLKSOURCE_STATUS_PLLCLK) && (temp_pllckselr == RCC_PLL1_SOURCE_H
 1667              		.loc 1 604 57 discriminator 1 view .LVU568
 1668 00fe 182D     		cmp	r5, #24
 1669 0100 74D0     		beq	.L221
 1670              	.L137:
 653:Drivers/STM32H5xx_HAL_Driver/Src/stm32h5xx_hal_rcc.c ****       {
 1671              		.loc 1 653 7 is_stmt 1 view .LVU569
 653:Drivers/STM32H5xx_HAL_Driver/Src/stm32h5xx_hal_rcc.c ****       {
 1672              		.loc 1 653 25 is_stmt 0 view .LVU570
 1673 0102 E368     		ldr	r3, [r4, #12]
 653:Drivers/STM32H5xx_HAL_Driver/Src/stm32h5xx_hal_rcc.c ****       {
 1674              		.loc 1 653 10 view .LVU571
 1675 0104 002B     		cmp	r3, #0
 1676 0106 00F0D280 		beq	.L141
 656:Drivers/STM32H5xx_HAL_Driver/Src/stm32h5xx_hal_rcc.c **** 
 1677              		.loc 1 656 9 is_stmt 1 view .LVU572
 1678 010a 624A     		ldr	r2, .L236
 1679 010c 1368     		ldr	r3, [r2]
 1680 010e 23F01803 		bic	r3, r3, #24
 1681 0112 2169     		ldr	r1, [r4, #16]
 1682 0114 0B43     		orrs	r3, r3, r1
 1683 0116 1360     		str	r3, [r2]
 659:Drivers/STM32H5xx_HAL_Driver/Src/stm32h5xx_hal_rcc.c **** 
 1684              		.loc 1 659 9 view .LVU573
 1685 0118 1368     		ldr	r3, [r2]
 1686 011a 43F00103 		orr	r3, r3, #1
 1687 011e 1360     		str	r3, [r2]
 662:Drivers/STM32H5xx_HAL_Driver/Src/stm32h5xx_hal_rcc.c **** 
 1688              		.loc 1 662 9 view .LVU574
 662:Drivers/STM32H5xx_HAL_Driver/Src/stm32h5xx_hal_rcc.c **** 
 1689              		.loc 1 662 21 is_stmt 0 view .LVU575
 1690 0120 FFF7FEFF 		bl	HAL_GetTick
 1691              	.LVL102:
 1692 0124 0646     		mov	r6, r0
 1693              	.LVL103:
 665:Drivers/STM32H5xx_HAL_Driver/Src/stm32h5xx_hal_rcc.c ****         {
 1694              		.loc 1 665 9 is_stmt 1 view .LVU576
 1695              	.L142:
 665:Drivers/STM32H5xx_HAL_Driver/Src/stm32h5xx_hal_rcc.c ****         {
 1696              		.loc 1 665 49 view .LVU577
 665:Drivers/STM32H5xx_HAL_Driver/Src/stm32h5xx_hal_rcc.c ****         {
 1697              		.loc 1 665 16 is_stmt 0 view .LVU578
 1698 0126 5B4B     		ldr	r3, .L236
ARM GAS  C:\Users\sapph\AppData\Local\Temp\ccD3KfzI.s 			page 64


 1699 0128 1B68     		ldr	r3, [r3]
 665:Drivers/STM32H5xx_HAL_Driver/Src/stm32h5xx_hal_rcc.c ****         {
 1700              		.loc 1 665 49 view .LVU579
 1701 012a 13F0020F 		tst	r3, #2
 1702 012e 40F0B580 		bne	.L222
 667:Drivers/STM32H5xx_HAL_Driver/Src/stm32h5xx_hal_rcc.c ****           {
 1703              		.loc 1 667 11 is_stmt 1 view .LVU580
 667:Drivers/STM32H5xx_HAL_Driver/Src/stm32h5xx_hal_rcc.c ****           {
 1704              		.loc 1 667 16 is_stmt 0 view .LVU581
 1705 0132 FFF7FEFF 		bl	HAL_GetTick
 1706              	.LVL104:
 667:Drivers/STM32H5xx_HAL_Driver/Src/stm32h5xx_hal_rcc.c ****           {
 1707              		.loc 1 667 30 discriminator 1 view .LVU582
 1708 0136 801B     		subs	r0, r0, r6
 667:Drivers/STM32H5xx_HAL_Driver/Src/stm32h5xx_hal_rcc.c ****           {
 1709              		.loc 1 667 14 discriminator 1 view .LVU583
 1710 0138 0228     		cmp	r0, #2
 1711 013a F4D9     		bls	.L142
 669:Drivers/STM32H5xx_HAL_Driver/Src/stm32h5xx_hal_rcc.c ****           }
 1712              		.loc 1 669 20 view .LVU584
 1713 013c 0320     		movs	r0, #3
 1714 013e 93E2     		b	.L113
 1715              	.LVL105:
 1716              	.L219:
 562:Drivers/STM32H5xx_HAL_Driver/Src/stm32h5xx_hal_rcc.c **** 
 1717              		.loc 1 562 7 is_stmt 1 discriminator 1 view .LVU585
 1718 0140 544A     		ldr	r2, .L236
 1719 0142 1368     		ldr	r3, [r2]
 1720 0144 43F48033 		orr	r3, r3, #65536
 1721 0148 1360     		str	r3, [r2]
 1722              	.L126:
 562:Drivers/STM32H5xx_HAL_Driver/Src/stm32h5xx_hal_rcc.c **** 
 1723              		.loc 1 562 7 discriminator 13 view .LVU586
 565:Drivers/STM32H5xx_HAL_Driver/Src/stm32h5xx_hal_rcc.c ****       {
 1724              		.loc 1 565 7 view .LVU587
 565:Drivers/STM32H5xx_HAL_Driver/Src/stm32h5xx_hal_rcc.c ****       {
 1725              		.loc 1 565 25 is_stmt 0 view .LVU588
 1726 014a 6368     		ldr	r3, [r4, #4]
 565:Drivers/STM32H5xx_HAL_Driver/Src/stm32h5xx_hal_rcc.c ****       {
 1727              		.loc 1 565 10 view .LVU589
 1728 014c 002B     		cmp	r3, #0
 1729 014e 3ED0     		beq	.L130
 568:Drivers/STM32H5xx_HAL_Driver/Src/stm32h5xx_hal_rcc.c **** 
 1730              		.loc 1 568 9 is_stmt 1 view .LVU590
 568:Drivers/STM32H5xx_HAL_Driver/Src/stm32h5xx_hal_rcc.c **** 
 1731              		.loc 1 568 21 is_stmt 0 view .LVU591
 1732 0150 FFF7FEFF 		bl	HAL_GetTick
 1733              	.LVL106:
 1734 0154 0746     		mov	r7, r0
 1735              	.LVL107:
 571:Drivers/STM32H5xx_HAL_Driver/Src/stm32h5xx_hal_rcc.c ****         {
 1736              		.loc 1 571 9 is_stmt 1 view .LVU592
 1737              	.L131:
 571:Drivers/STM32H5xx_HAL_Driver/Src/stm32h5xx_hal_rcc.c ****         {
 1738              		.loc 1 571 49 view .LVU593
 571:Drivers/STM32H5xx_HAL_Driver/Src/stm32h5xx_hal_rcc.c ****         {
 1739              		.loc 1 571 16 is_stmt 0 view .LVU594
ARM GAS  C:\Users\sapph\AppData\Local\Temp\ccD3KfzI.s 			page 65


 1740 0156 4F4B     		ldr	r3, .L236
 1741 0158 1B68     		ldr	r3, [r3]
 571:Drivers/STM32H5xx_HAL_Driver/Src/stm32h5xx_hal_rcc.c ****         {
 1742              		.loc 1 571 49 view .LVU595
 1743 015a 13F4003F 		tst	r3, #131072
 1744 015e C7D1     		bne	.L122
 573:Drivers/STM32H5xx_HAL_Driver/Src/stm32h5xx_hal_rcc.c ****           {
 1745              		.loc 1 573 11 is_stmt 1 view .LVU596
 573:Drivers/STM32H5xx_HAL_Driver/Src/stm32h5xx_hal_rcc.c ****           {
 1746              		.loc 1 573 16 is_stmt 0 view .LVU597
 1747 0160 FFF7FEFF 		bl	HAL_GetTick
 1748              	.LVL108:
 573:Drivers/STM32H5xx_HAL_Driver/Src/stm32h5xx_hal_rcc.c ****           {
 1749              		.loc 1 573 30 discriminator 1 view .LVU598
 1750 0164 C01B     		subs	r0, r0, r7
 573:Drivers/STM32H5xx_HAL_Driver/Src/stm32h5xx_hal_rcc.c ****           {
 1751              		.loc 1 573 14 discriminator 1 view .LVU599
 1752 0166 6428     		cmp	r0, #100
 1753 0168 F5D9     		bls	.L131
 575:Drivers/STM32H5xx_HAL_Driver/Src/stm32h5xx_hal_rcc.c ****           }
 1754              		.loc 1 575 20 view .LVU600
 1755 016a 0320     		movs	r0, #3
 1756 016c 7CE2     		b	.L113
 1757              	.LVL109:
 1758              	.L127:
 562:Drivers/STM32H5xx_HAL_Driver/Src/stm32h5xx_hal_rcc.c **** 
 1759              		.loc 1 562 7 is_stmt 1 discriminator 5 view .LVU601
 1760 016e B3F5A02F 		cmp	r3, #327680
 1761 0172 10D0     		beq	.L223
 562:Drivers/STM32H5xx_HAL_Driver/Src/stm32h5xx_hal_rcc.c **** 
 1762              		.loc 1 562 7 discriminator 8 view .LVU602
 1763 0174 B3F5A81F 		cmp	r3, #1376256
 1764 0178 1BD0     		beq	.L224
 562:Drivers/STM32H5xx_HAL_Driver/Src/stm32h5xx_hal_rcc.c **** 
 1765              		.loc 1 562 7 discriminator 11 view .LVU603
 1766 017a 464B     		ldr	r3, .L236
 1767 017c 1A68     		ldr	r2, [r3]
 1768 017e 22F48032 		bic	r2, r2, #65536
 1769 0182 1A60     		str	r2, [r3]
 562:Drivers/STM32H5xx_HAL_Driver/Src/stm32h5xx_hal_rcc.c **** 
 1770              		.loc 1 562 7 discriminator 11 view .LVU604
 1771 0184 1A68     		ldr	r2, [r3]
 1772 0186 22F48022 		bic	r2, r2, #262144
 1773 018a 1A60     		str	r2, [r3]
 562:Drivers/STM32H5xx_HAL_Driver/Src/stm32h5xx_hal_rcc.c **** 
 1774              		.loc 1 562 7 discriminator 11 view .LVU605
 1775 018c 1A68     		ldr	r2, [r3]
 1776 018e 22F48012 		bic	r2, r2, #1048576
 1777 0192 1A60     		str	r2, [r3]
 1778 0194 D9E7     		b	.L126
 1779              	.L223:
 562:Drivers/STM32H5xx_HAL_Driver/Src/stm32h5xx_hal_rcc.c **** 
 1780              		.loc 1 562 7 discriminator 7 view .LVU606
 1781 0196 3F4B     		ldr	r3, .L236
 1782 0198 1A68     		ldr	r2, [r3]
 1783 019a 42F48022 		orr	r2, r2, #262144
 1784 019e 1A60     		str	r2, [r3]
ARM GAS  C:\Users\sapph\AppData\Local\Temp\ccD3KfzI.s 			page 66


 562:Drivers/STM32H5xx_HAL_Driver/Src/stm32h5xx_hal_rcc.c **** 
 1785              		.loc 1 562 7 discriminator 7 view .LVU607
 1786 01a0 1A68     		ldr	r2, [r3]
 1787 01a2 22F48012 		bic	r2, r2, #1048576
 1788 01a6 1A60     		str	r2, [r3]
 562:Drivers/STM32H5xx_HAL_Driver/Src/stm32h5xx_hal_rcc.c **** 
 1789              		.loc 1 562 7 discriminator 7 view .LVU608
 1790 01a8 1A68     		ldr	r2, [r3]
 1791 01aa 42F48032 		orr	r2, r2, #65536
 1792 01ae 1A60     		str	r2, [r3]
 1793 01b0 CBE7     		b	.L126
 1794              	.L224:
 562:Drivers/STM32H5xx_HAL_Driver/Src/stm32h5xx_hal_rcc.c **** 
 1795              		.loc 1 562 7 discriminator 10 view .LVU609
 1796 01b2 384B     		ldr	r3, .L236
 1797 01b4 1A68     		ldr	r2, [r3]
 1798 01b6 42F48022 		orr	r2, r2, #262144
 1799 01ba 1A60     		str	r2, [r3]
 562:Drivers/STM32H5xx_HAL_Driver/Src/stm32h5xx_hal_rcc.c **** 
 1800              		.loc 1 562 7 discriminator 10 view .LVU610
 1801 01bc 1A68     		ldr	r2, [r3]
 1802 01be 42F48012 		orr	r2, r2, #1048576
 1803 01c2 1A60     		str	r2, [r3]
 562:Drivers/STM32H5xx_HAL_Driver/Src/stm32h5xx_hal_rcc.c **** 
 1804              		.loc 1 562 7 discriminator 10 view .LVU611
 1805 01c4 1A68     		ldr	r2, [r3]
 1806 01c6 42F48032 		orr	r2, r2, #65536
 1807 01ca 1A60     		str	r2, [r3]
 1808 01cc BDE7     		b	.L126
 1809              	.L130:
 582:Drivers/STM32H5xx_HAL_Driver/Src/stm32h5xx_hal_rcc.c **** 
 1810              		.loc 1 582 9 view .LVU612
 582:Drivers/STM32H5xx_HAL_Driver/Src/stm32h5xx_hal_rcc.c **** 
 1811              		.loc 1 582 21 is_stmt 0 view .LVU613
 1812 01ce FFF7FEFF 		bl	HAL_GetTick
 1813              	.LVL110:
 1814 01d2 0746     		mov	r7, r0
 1815              	.LVL111:
 585:Drivers/STM32H5xx_HAL_Driver/Src/stm32h5xx_hal_rcc.c ****         {
 1816              		.loc 1 585 9 is_stmt 1 view .LVU614
 1817              	.L133:
 585:Drivers/STM32H5xx_HAL_Driver/Src/stm32h5xx_hal_rcc.c ****         {
 1818              		.loc 1 585 49 view .LVU615
 585:Drivers/STM32H5xx_HAL_Driver/Src/stm32h5xx_hal_rcc.c ****         {
 1819              		.loc 1 585 16 is_stmt 0 view .LVU616
 1820 01d4 2F4B     		ldr	r3, .L236
 1821 01d6 1B68     		ldr	r3, [r3]
 585:Drivers/STM32H5xx_HAL_Driver/Src/stm32h5xx_hal_rcc.c ****         {
 1822              		.loc 1 585 49 view .LVU617
 1823 01d8 13F4003F 		tst	r3, #131072
 1824 01dc 88D0     		beq	.L122
 587:Drivers/STM32H5xx_HAL_Driver/Src/stm32h5xx_hal_rcc.c ****           {
 1825              		.loc 1 587 11 is_stmt 1 view .LVU618
 587:Drivers/STM32H5xx_HAL_Driver/Src/stm32h5xx_hal_rcc.c ****           {
 1826              		.loc 1 587 16 is_stmt 0 view .LVU619
 1827 01de FFF7FEFF 		bl	HAL_GetTick
 1828              	.LVL112:
ARM GAS  C:\Users\sapph\AppData\Local\Temp\ccD3KfzI.s 			page 67


 587:Drivers/STM32H5xx_HAL_Driver/Src/stm32h5xx_hal_rcc.c ****           {
 1829              		.loc 1 587 30 discriminator 1 view .LVU620
 1830 01e2 C01B     		subs	r0, r0, r7
 587:Drivers/STM32H5xx_HAL_Driver/Src/stm32h5xx_hal_rcc.c ****           {
 1831              		.loc 1 587 14 discriminator 1 view .LVU621
 1832 01e4 6428     		cmp	r0, #100
 1833 01e6 F5D9     		bls	.L133
 589:Drivers/STM32H5xx_HAL_Driver/Src/stm32h5xx_hal_rcc.c ****           }
 1834              		.loc 1 589 20 view .LVU622
 1835 01e8 0320     		movs	r0, #3
 1836 01ea 3DE2     		b	.L113
 1837              	.LVL113:
 1838              	.L221:
 605:Drivers/STM32H5xx_HAL_Driver/Src/stm32h5xx_hal_rcc.c ****     {
 1839              		.loc 1 605 61 view .LVU623
 1840 01ec 012E     		cmp	r6, #1
 1841 01ee 88D1     		bne	.L137
 1842              	.L136:
 608:Drivers/STM32H5xx_HAL_Driver/Src/stm32h5xx_hal_rcc.c ****       {
 1843              		.loc 1 608 7 is_stmt 1 view .LVU624
 608:Drivers/STM32H5xx_HAL_Driver/Src/stm32h5xx_hal_rcc.c ****       {
 1844              		.loc 1 608 25 is_stmt 0 view .LVU625
 1845 01f0 E368     		ldr	r3, [r4, #12]
 608:Drivers/STM32H5xx_HAL_Driver/Src/stm32h5xx_hal_rcc.c ****       {
 1846              		.loc 1 608 10 view .LVU626
 1847 01f2 002B     		cmp	r3, #0
 1848 01f4 00F03582 		beq	.L188
 617:Drivers/STM32H5xx_HAL_Driver/Src/stm32h5xx_hal_rcc.c ****         {
 1849              		.loc 1 617 9 is_stmt 1 view .LVU627
 617:Drivers/STM32H5xx_HAL_Driver/Src/stm32h5xx_hal_rcc.c ****         {
 1850              		.loc 1 617 12 is_stmt 0 view .LVU628
 1851 01f8 35B9     		cbnz	r5, .L138
 619:Drivers/STM32H5xx_HAL_Driver/Src/stm32h5xx_hal_rcc.c ****           {
 1852              		.loc 1 619 11 is_stmt 1 view .LVU629
 619:Drivers/STM32H5xx_HAL_Driver/Src/stm32h5xx_hal_rcc.c ****           {
 1853              		.loc 1 619 15 is_stmt 0 view .LVU630
 1854 01fa 264B     		ldr	r3, .L236
 1855 01fc 1B68     		ldr	r3, [r3]
 1856 01fe 03F01803 		and	r3, r3, #24
 619:Drivers/STM32H5xx_HAL_Driver/Src/stm32h5xx_hal_rcc.c ****           {
 1857              		.loc 1 619 61 view .LVU631
 1858 0202 2269     		ldr	r2, [r4, #16]
 619:Drivers/STM32H5xx_HAL_Driver/Src/stm32h5xx_hal_rcc.c ****           {
 1859              		.loc 1 619 14 view .LVU632
 1860 0204 9342     		cmp	r3, r2
 1861 0206 0ED1     		bne	.L225
 1862              	.L138:
 636:Drivers/STM32H5xx_HAL_Driver/Src/stm32h5xx_hal_rcc.c **** 
 1863              		.loc 1 636 9 is_stmt 1 view .LVU633
 636:Drivers/STM32H5xx_HAL_Driver/Src/stm32h5xx_hal_rcc.c **** 
 1864              		.loc 1 636 21 is_stmt 0 view .LVU634
 1865 0208 FFF7FEFF 		bl	HAL_GetTick
 1866              	.LVL114:
 1867 020c 0646     		mov	r6, r0
 1868              	.LVL115:
 639:Drivers/STM32H5xx_HAL_Driver/Src/stm32h5xx_hal_rcc.c ****         {
 1869              		.loc 1 639 9 is_stmt 1 view .LVU635
ARM GAS  C:\Users\sapph\AppData\Local\Temp\ccD3KfzI.s 			page 68


 1870              	.L139:
 639:Drivers/STM32H5xx_HAL_Driver/Src/stm32h5xx_hal_rcc.c ****         {
 1871              		.loc 1 639 49 view .LVU636
 639:Drivers/STM32H5xx_HAL_Driver/Src/stm32h5xx_hal_rcc.c ****         {
 1872              		.loc 1 639 16 is_stmt 0 view .LVU637
 1873 020e 214B     		ldr	r3, .L236
 1874 0210 1B68     		ldr	r3, [r3]
 639:Drivers/STM32H5xx_HAL_Driver/Src/stm32h5xx_hal_rcc.c ****         {
 1875              		.loc 1 639 49 view .LVU638
 1876 0212 13F0020F 		tst	r3, #2
 1877 0216 16D1     		bne	.L226
 641:Drivers/STM32H5xx_HAL_Driver/Src/stm32h5xx_hal_rcc.c ****           {
 1878              		.loc 1 641 11 is_stmt 1 view .LVU639
 641:Drivers/STM32H5xx_HAL_Driver/Src/stm32h5xx_hal_rcc.c ****           {
 1879              		.loc 1 641 16 is_stmt 0 view .LVU640
 1880 0218 FFF7FEFF 		bl	HAL_GetTick
 1881              	.LVL116:
 641:Drivers/STM32H5xx_HAL_Driver/Src/stm32h5xx_hal_rcc.c ****           {
 1882              		.loc 1 641 30 discriminator 1 view .LVU641
 1883 021c 801B     		subs	r0, r0, r6
 641:Drivers/STM32H5xx_HAL_Driver/Src/stm32h5xx_hal_rcc.c ****           {
 1884              		.loc 1 641 14 discriminator 1 view .LVU642
 1885 021e 0228     		cmp	r0, #2
 1886 0220 F5D9     		bls	.L139
 643:Drivers/STM32H5xx_HAL_Driver/Src/stm32h5xx_hal_rcc.c ****           }
 1887              		.loc 1 643 20 view .LVU643
 1888 0222 0320     		movs	r0, #3
 1889 0224 20E2     		b	.L113
 1890              	.LVL117:
 1891              	.L225:
 622:Drivers/STM32H5xx_HAL_Driver/Src/stm32h5xx_hal_rcc.c **** 
 1892              		.loc 1 622 13 is_stmt 1 view .LVU644
 1893 0226 1B49     		ldr	r1, .L236
 1894 0228 0B68     		ldr	r3, [r1]
 1895 022a 23F01803 		bic	r3, r3, #24
 1896 022e 1A43     		orrs	r2, r2, r3
 1897 0230 0A60     		str	r2, [r1]
 625:Drivers/STM32H5xx_HAL_Driver/Src/stm32h5xx_hal_rcc.c **** 
 1898              		.loc 1 625 13 view .LVU645
 625:Drivers/STM32H5xx_HAL_Driver/Src/stm32h5xx_hal_rcc.c **** 
 1899              		.loc 1 625 20 is_stmt 0 view .LVU646
 1900 0232 FFF7FEFF 		bl	HAL_RCC_GetHCLKFreq
 1901              	.LVL118:
 628:Drivers/STM32H5xx_HAL_Driver/Src/stm32h5xx_hal_rcc.c ****             {
 1902              		.loc 1 628 13 is_stmt 1 view .LVU647
 628:Drivers/STM32H5xx_HAL_Driver/Src/stm32h5xx_hal_rcc.c ****             {
 1903              		.loc 1 628 17 is_stmt 0 view .LVU648
 1904 0236 184B     		ldr	r3, .L236+4
 1905 0238 1868     		ldr	r0, [r3]
 1906 023a FFF7FEFF 		bl	HAL_InitTick
 1907              	.LVL119:
 628:Drivers/STM32H5xx_HAL_Driver/Src/stm32h5xx_hal_rcc.c ****             {
 1908              		.loc 1 628 16 discriminator 1 view .LVU649
 1909 023e 0028     		cmp	r0, #0
 1910 0240 E2D0     		beq	.L138
 630:Drivers/STM32H5xx_HAL_Driver/Src/stm32h5xx_hal_rcc.c ****             }
 1911              		.loc 1 630 22 view .LVU650
ARM GAS  C:\Users\sapph\AppData\Local\Temp\ccD3KfzI.s 			page 69


 1912 0242 0120     		movs	r0, #1
 1913 0244 10E2     		b	.L113
 1914              	.LVL120:
 1915              	.L226:
 647:Drivers/STM32H5xx_HAL_Driver/Src/stm32h5xx_hal_rcc.c ****       }
 1916              		.loc 1 647 9 is_stmt 1 view .LVU651
 1917 0246 134A     		ldr	r2, .L236
 1918 0248 1369     		ldr	r3, [r2, #16]
 1919 024a 23F4FE03 		bic	r3, r3, #8323072
 1920 024e 6169     		ldr	r1, [r4, #20]
 1921 0250 43EA0143 		orr	r3, r3, r1, lsl #16
 1922 0254 1361     		str	r3, [r2, #16]
 1923              	.LVL121:
 1924              	.L135:
 696:Drivers/STM32H5xx_HAL_Driver/Src/stm32h5xx_hal_rcc.c ****   {
 1925              		.loc 1 696 3 view .LVU652
 696:Drivers/STM32H5xx_HAL_Driver/Src/stm32h5xx_hal_rcc.c ****   {
 1926              		.loc 1 696 23 is_stmt 0 view .LVU653
 1927 0256 2368     		ldr	r3, [r4]
 696:Drivers/STM32H5xx_HAL_Driver/Src/stm32h5xx_hal_rcc.c ****   {
 1928              		.loc 1 696 6 view .LVU654
 1929 0258 13F0080F 		tst	r3, #8
 1930 025c 52D0     		beq	.L146
 700:Drivers/STM32H5xx_HAL_Driver/Src/stm32h5xx_hal_rcc.c **** 
 1931              		.loc 1 700 5 is_stmt 1 view .LVU655
 705:Drivers/STM32H5xx_HAL_Driver/Src/stm32h5xx_hal_rcc.c ****     {
 1932              		.loc 1 705 5 view .LVU656
 705:Drivers/STM32H5xx_HAL_Driver/Src/stm32h5xx_hal_rcc.c ****     {
 1933              		.loc 1 705 23 is_stmt 0 view .LVU657
 1934 025e A369     		ldr	r3, [r4, #24]
 705:Drivers/STM32H5xx_HAL_Driver/Src/stm32h5xx_hal_rcc.c ****     {
 1935              		.loc 1 705 8 view .LVU658
 1936 0260 002B     		cmp	r3, #0
 1937 0262 38D0     		beq	.L147
 708:Drivers/STM32H5xx_HAL_Driver/Src/stm32h5xx_hal_rcc.c **** 
 1938              		.loc 1 708 7 is_stmt 1 view .LVU659
 1939 0264 0B4A     		ldr	r2, .L236
 1940 0266 D2F8F030 		ldr	r3, [r2, #240]
 1941 026a 43F08063 		orr	r3, r3, #67108864
 1942 026e C2F8F030 		str	r3, [r2, #240]
 711:Drivers/STM32H5xx_HAL_Driver/Src/stm32h5xx_hal_rcc.c **** 
 1943              		.loc 1 711 7 view .LVU660
 711:Drivers/STM32H5xx_HAL_Driver/Src/stm32h5xx_hal_rcc.c **** 
 1944              		.loc 1 711 19 is_stmt 0 view .LVU661
 1945 0272 FFF7FEFF 		bl	HAL_GetTick
 1946              	.LVL122:
 1947 0276 0646     		mov	r6, r0
 1948              	.LVL123:
 714:Drivers/STM32H5xx_HAL_Driver/Src/stm32h5xx_hal_rcc.c ****       {
 1949              		.loc 1 714 7 is_stmt 1 view .LVU662
 1950              	.L148:
 714:Drivers/STM32H5xx_HAL_Driver/Src/stm32h5xx_hal_rcc.c ****       {
 1951              		.loc 1 714 51 view .LVU663
 714:Drivers/STM32H5xx_HAL_Driver/Src/stm32h5xx_hal_rcc.c ****       {
 1952              		.loc 1 714 14 is_stmt 0 view .LVU664
 1953 0278 064B     		ldr	r3, .L236
 1954 027a D3F8F030 		ldr	r3, [r3, #240]
ARM GAS  C:\Users\sapph\AppData\Local\Temp\ccD3KfzI.s 			page 70


 714:Drivers/STM32H5xx_HAL_Driver/Src/stm32h5xx_hal_rcc.c ****       {
 1955              		.loc 1 714 51 view .LVU665
 1956 027e 13F0006F 		tst	r3, #134217728
 1957 0282 3FD1     		bne	.L146
 716:Drivers/STM32H5xx_HAL_Driver/Src/stm32h5xx_hal_rcc.c ****         {
 1958              		.loc 1 716 9 is_stmt 1 view .LVU666
 716:Drivers/STM32H5xx_HAL_Driver/Src/stm32h5xx_hal_rcc.c ****         {
 1959              		.loc 1 716 14 is_stmt 0 view .LVU667
 1960 0284 FFF7FEFF 		bl	HAL_GetTick
 1961              	.LVL124:
 716:Drivers/STM32H5xx_HAL_Driver/Src/stm32h5xx_hal_rcc.c ****         {
 1962              		.loc 1 716 28 discriminator 1 view .LVU668
 1963 0288 801B     		subs	r0, r0, r6
 716:Drivers/STM32H5xx_HAL_Driver/Src/stm32h5xx_hal_rcc.c ****         {
 1964              		.loc 1 716 12 discriminator 1 view .LVU669
 1965 028a 0228     		cmp	r0, #2
 1966 028c F4D9     		bls	.L148
 718:Drivers/STM32H5xx_HAL_Driver/Src/stm32h5xx_hal_rcc.c ****         }
 1967              		.loc 1 718 18 view .LVU670
 1968 028e 0320     		movs	r0, #3
 1969 0290 EAE1     		b	.L113
 1970              	.L237:
 1971 0292 00BF     		.align	2
 1972              	.L236:
 1973 0294 000C0244 		.word	1140984832
 1974 0298 00000000 		.word	uwTickPrio
 1975              	.L222:
 674:Drivers/STM32H5xx_HAL_Driver/Src/stm32h5xx_hal_rcc.c ****       }
 1976              		.loc 1 674 9 is_stmt 1 view .LVU671
 1977 029c 9B4A     		ldr	r2, .L238
 1978 029e 1369     		ldr	r3, [r2, #16]
 1979 02a0 23F4FE03 		bic	r3, r3, #8323072
 1980 02a4 6169     		ldr	r1, [r4, #20]
 1981 02a6 43EA0143 		orr	r3, r3, r1, lsl #16
 1982 02aa 1361     		str	r3, [r2, #16]
 1983 02ac D3E7     		b	.L135
 1984              	.LVL125:
 1985              	.L141:
 679:Drivers/STM32H5xx_HAL_Driver/Src/stm32h5xx_hal_rcc.c **** 
 1986              		.loc 1 679 9 view .LVU672
 1987 02ae 974A     		ldr	r2, .L238
 1988 02b0 1368     		ldr	r3, [r2]
 1989 02b2 23F00103 		bic	r3, r3, #1
 1990 02b6 1360     		str	r3, [r2]
 682:Drivers/STM32H5xx_HAL_Driver/Src/stm32h5xx_hal_rcc.c **** 
 1991              		.loc 1 682 9 view .LVU673
 682:Drivers/STM32H5xx_HAL_Driver/Src/stm32h5xx_hal_rcc.c **** 
 1992              		.loc 1 682 21 is_stmt 0 view .LVU674
 1993 02b8 FFF7FEFF 		bl	HAL_GetTick
 1994              	.LVL126:
 1995 02bc 0646     		mov	r6, r0
 1996              	.LVL127:
 685:Drivers/STM32H5xx_HAL_Driver/Src/stm32h5xx_hal_rcc.c ****         {
 1997              		.loc 1 685 9 is_stmt 1 view .LVU675
 1998              	.L144:
 685:Drivers/STM32H5xx_HAL_Driver/Src/stm32h5xx_hal_rcc.c ****         {
 1999              		.loc 1 685 49 view .LVU676
ARM GAS  C:\Users\sapph\AppData\Local\Temp\ccD3KfzI.s 			page 71


 685:Drivers/STM32H5xx_HAL_Driver/Src/stm32h5xx_hal_rcc.c ****         {
 2000              		.loc 1 685 16 is_stmt 0 view .LVU677
 2001 02be 934B     		ldr	r3, .L238
 2002 02c0 1B68     		ldr	r3, [r3]
 685:Drivers/STM32H5xx_HAL_Driver/Src/stm32h5xx_hal_rcc.c ****         {
 2003              		.loc 1 685 49 view .LVU678
 2004 02c2 13F0020F 		tst	r3, #2
 2005 02c6 C6D0     		beq	.L135
 687:Drivers/STM32H5xx_HAL_Driver/Src/stm32h5xx_hal_rcc.c ****           {
 2006              		.loc 1 687 11 is_stmt 1 view .LVU679
 687:Drivers/STM32H5xx_HAL_Driver/Src/stm32h5xx_hal_rcc.c ****           {
 2007              		.loc 1 687 16 is_stmt 0 view .LVU680
 2008 02c8 FFF7FEFF 		bl	HAL_GetTick
 2009              	.LVL128:
 687:Drivers/STM32H5xx_HAL_Driver/Src/stm32h5xx_hal_rcc.c ****           {
 2010              		.loc 1 687 30 discriminator 1 view .LVU681
 2011 02cc 801B     		subs	r0, r0, r6
 687:Drivers/STM32H5xx_HAL_Driver/Src/stm32h5xx_hal_rcc.c ****           {
 2012              		.loc 1 687 14 discriminator 1 view .LVU682
 2013 02ce 0228     		cmp	r0, #2
 2014 02d0 F5D9     		bls	.L144
 689:Drivers/STM32H5xx_HAL_Driver/Src/stm32h5xx_hal_rcc.c ****           }
 2015              		.loc 1 689 20 view .LVU683
 2016 02d2 0320     		movs	r0, #3
 2017 02d4 C8E1     		b	.L113
 2018              	.LVL129:
 2019              	.L147:
 725:Drivers/STM32H5xx_HAL_Driver/Src/stm32h5xx_hal_rcc.c **** 
 2020              		.loc 1 725 7 is_stmt 1 view .LVU684
 2021 02d6 8D4A     		ldr	r2, .L238
 2022 02d8 D2F8F030 		ldr	r3, [r2, #240]
 2023 02dc 23F08063 		bic	r3, r3, #67108864
 2024 02e0 C2F8F030 		str	r3, [r2, #240]
 728:Drivers/STM32H5xx_HAL_Driver/Src/stm32h5xx_hal_rcc.c **** 
 2025              		.loc 1 728 7 view .LVU685
 728:Drivers/STM32H5xx_HAL_Driver/Src/stm32h5xx_hal_rcc.c **** 
 2026              		.loc 1 728 19 is_stmt 0 view .LVU686
 2027 02e4 FFF7FEFF 		bl	HAL_GetTick
 2028              	.LVL130:
 2029 02e8 0646     		mov	r6, r0
 2030              	.LVL131:
 731:Drivers/STM32H5xx_HAL_Driver/Src/stm32h5xx_hal_rcc.c ****       {
 2031              		.loc 1 731 7 is_stmt 1 view .LVU687
 2032              	.L150:
 731:Drivers/STM32H5xx_HAL_Driver/Src/stm32h5xx_hal_rcc.c ****       {
 2033              		.loc 1 731 51 view .LVU688
 731:Drivers/STM32H5xx_HAL_Driver/Src/stm32h5xx_hal_rcc.c ****       {
 2034              		.loc 1 731 14 is_stmt 0 view .LVU689
 2035 02ea 884B     		ldr	r3, .L238
 2036 02ec D3F8F030 		ldr	r3, [r3, #240]
 731:Drivers/STM32H5xx_HAL_Driver/Src/stm32h5xx_hal_rcc.c ****       {
 2037              		.loc 1 731 51 view .LVU690
 2038 02f0 13F0006F 		tst	r3, #134217728
 2039 02f4 06D0     		beq	.L146
 733:Drivers/STM32H5xx_HAL_Driver/Src/stm32h5xx_hal_rcc.c ****         {
 2040              		.loc 1 733 9 is_stmt 1 view .LVU691
 733:Drivers/STM32H5xx_HAL_Driver/Src/stm32h5xx_hal_rcc.c ****         {
ARM GAS  C:\Users\sapph\AppData\Local\Temp\ccD3KfzI.s 			page 72


 2041              		.loc 1 733 14 is_stmt 0 view .LVU692
 2042 02f6 FFF7FEFF 		bl	HAL_GetTick
 2043              	.LVL132:
 733:Drivers/STM32H5xx_HAL_Driver/Src/stm32h5xx_hal_rcc.c ****         {
 2044              		.loc 1 733 28 discriminator 1 view .LVU693
 2045 02fa 801B     		subs	r0, r0, r6
 733:Drivers/STM32H5xx_HAL_Driver/Src/stm32h5xx_hal_rcc.c ****         {
 2046              		.loc 1 733 12 discriminator 1 view .LVU694
 2047 02fc 0228     		cmp	r0, #2
 2048 02fe F4D9     		bls	.L150
 735:Drivers/STM32H5xx_HAL_Driver/Src/stm32h5xx_hal_rcc.c ****         }
 2049              		.loc 1 735 18 view .LVU695
 2050 0300 0320     		movs	r0, #3
 2051 0302 B1E1     		b	.L113
 2052              	.LVL133:
 2053              	.L146:
 742:Drivers/STM32H5xx_HAL_Driver/Src/stm32h5xx_hal_rcc.c ****   {
 2054              		.loc 1 742 3 is_stmt 1 view .LVU696
 742:Drivers/STM32H5xx_HAL_Driver/Src/stm32h5xx_hal_rcc.c ****   {
 2055              		.loc 1 742 23 is_stmt 0 view .LVU697
 2056 0304 2368     		ldr	r3, [r4]
 742:Drivers/STM32H5xx_HAL_Driver/Src/stm32h5xx_hal_rcc.c ****   {
 2057              		.loc 1 742 6 view .LVU698
 2058 0306 13F0040F 		tst	r3, #4
 2059 030a 00F0A080 		beq	.L152
 746:Drivers/STM32H5xx_HAL_Driver/Src/stm32h5xx_hal_rcc.c **** 
 2060              		.loc 1 746 5 is_stmt 1 view .LVU699
 750:Drivers/STM32H5xx_HAL_Driver/Src/stm32h5xx_hal_rcc.c ****     {
 2061              		.loc 1 750 5 view .LVU700
 750:Drivers/STM32H5xx_HAL_Driver/Src/stm32h5xx_hal_rcc.c ****     {
 2062              		.loc 1 750 9 is_stmt 0 view .LVU701
 2063 030e 804B     		ldr	r3, .L238+4
 2064 0310 5B6A     		ldr	r3, [r3, #36]
 750:Drivers/STM32H5xx_HAL_Driver/Src/stm32h5xx_hal_rcc.c ****     {
 2065              		.loc 1 750 8 view .LVU702
 2066 0312 13F0010F 		tst	r3, #1
 2067 0316 18D0     		beq	.L227
 2068              	.L153:
 768:Drivers/STM32H5xx_HAL_Driver/Src/stm32h5xx_hal_rcc.c **** 
 2069              		.loc 1 768 5 is_stmt 1 view .LVU703
 768:Drivers/STM32H5xx_HAL_Driver/Src/stm32h5xx_hal_rcc.c **** 
 2070              		.loc 1 768 5 view .LVU704
 2071 0318 A368     		ldr	r3, [r4, #8]
 2072 031a 012B     		cmp	r3, #1
 2073 031c 29D0     		beq	.L228
 768:Drivers/STM32H5xx_HAL_Driver/Src/stm32h5xx_hal_rcc.c **** 
 2074              		.loc 1 768 5 discriminator 2 view .LVU705
 2075 031e 002B     		cmp	r3, #0
 2076 0320 43D1     		bne	.L158
 768:Drivers/STM32H5xx_HAL_Driver/Src/stm32h5xx_hal_rcc.c **** 
 2077              		.loc 1 768 5 discriminator 4 view .LVU706
 2078 0322 7A4B     		ldr	r3, .L238
 2079 0324 D3F8F020 		ldr	r2, [r3, #240]
 2080 0328 22F00102 		bic	r2, r2, #1
 2081 032c C3F8F020 		str	r2, [r3, #240]
 768:Drivers/STM32H5xx_HAL_Driver/Src/stm32h5xx_hal_rcc.c **** 
 2082              		.loc 1 768 5 discriminator 4 view .LVU707
ARM GAS  C:\Users\sapph\AppData\Local\Temp\ccD3KfzI.s 			page 73


 2083 0330 D3F8F020 		ldr	r2, [r3, #240]
 2084 0334 22F08002 		bic	r2, r2, #128
 2085 0338 C3F8F020 		str	r2, [r3, #240]
 768:Drivers/STM32H5xx_HAL_Driver/Src/stm32h5xx_hal_rcc.c **** 
 2086              		.loc 1 768 5 discriminator 4 view .LVU708
 2087 033c D3F8F020 		ldr	r2, [r3, #240]
 2088 0340 22F00402 		bic	r2, r2, #4
 2089 0344 C3F8F020 		str	r2, [r3, #240]
 2090 0348 1AE0     		b	.L157
 2091              	.L227:
 753:Drivers/STM32H5xx_HAL_Driver/Src/stm32h5xx_hal_rcc.c **** 
 2092              		.loc 1 753 7 view .LVU709
 2093 034a 714A     		ldr	r2, .L238+4
 2094 034c 536A     		ldr	r3, [r2, #36]
 2095 034e 43F00103 		orr	r3, r3, #1
 2096 0352 5362     		str	r3, [r2, #36]
 756:Drivers/STM32H5xx_HAL_Driver/Src/stm32h5xx_hal_rcc.c **** 
 2097              		.loc 1 756 7 view .LVU710
 756:Drivers/STM32H5xx_HAL_Driver/Src/stm32h5xx_hal_rcc.c **** 
 2098              		.loc 1 756 19 is_stmt 0 view .LVU711
 2099 0354 FFF7FEFF 		bl	HAL_GetTick
 2100              	.LVL134:
 2101 0358 0646     		mov	r6, r0
 2102              	.LVL135:
 758:Drivers/STM32H5xx_HAL_Driver/Src/stm32h5xx_hal_rcc.c ****       {
 2103              		.loc 1 758 7 is_stmt 1 view .LVU712
 2104              	.L154:
 758:Drivers/STM32H5xx_HAL_Driver/Src/stm32h5xx_hal_rcc.c ****       {
 2105              		.loc 1 758 14 view .LVU713
 2106 035a 6D4B     		ldr	r3, .L238+4
 2107 035c 5B6A     		ldr	r3, [r3, #36]
 2108 035e 13F0010F 		tst	r3, #1
 2109 0362 D9D1     		bne	.L153
 760:Drivers/STM32H5xx_HAL_Driver/Src/stm32h5xx_hal_rcc.c ****         {
 2110              		.loc 1 760 9 view .LVU714
 760:Drivers/STM32H5xx_HAL_Driver/Src/stm32h5xx_hal_rcc.c ****         {
 2111              		.loc 1 760 14 is_stmt 0 view .LVU715
 2112 0364 FFF7FEFF 		bl	HAL_GetTick
 2113              	.LVL136:
 760:Drivers/STM32H5xx_HAL_Driver/Src/stm32h5xx_hal_rcc.c ****         {
 2114              		.loc 1 760 28 discriminator 1 view .LVU716
 2115 0368 801B     		subs	r0, r0, r6
 760:Drivers/STM32H5xx_HAL_Driver/Src/stm32h5xx_hal_rcc.c ****         {
 2116              		.loc 1 760 12 discriminator 1 view .LVU717
 2117 036a 0228     		cmp	r0, #2
 2118 036c F5D9     		bls	.L154
 762:Drivers/STM32H5xx_HAL_Driver/Src/stm32h5xx_hal_rcc.c ****         }
 2119              		.loc 1 762 18 view .LVU718
 2120 036e 0320     		movs	r0, #3
 2121 0370 7AE1     		b	.L113
 2122              	.LVL137:
 2123              	.L228:
 768:Drivers/STM32H5xx_HAL_Driver/Src/stm32h5xx_hal_rcc.c **** 
 2124              		.loc 1 768 5 is_stmt 1 discriminator 1 view .LVU719
 2125 0372 664A     		ldr	r2, .L238
 2126 0374 D2F8F030 		ldr	r3, [r2, #240]
 2127 0378 43F00103 		orr	r3, r3, #1
ARM GAS  C:\Users\sapph\AppData\Local\Temp\ccD3KfzI.s 			page 74


 2128 037c C2F8F030 		str	r3, [r2, #240]
 2129              	.L157:
 768:Drivers/STM32H5xx_HAL_Driver/Src/stm32h5xx_hal_rcc.c **** 
 2130              		.loc 1 768 5 discriminator 13 view .LVU720
 771:Drivers/STM32H5xx_HAL_Driver/Src/stm32h5xx_hal_rcc.c ****     {
 2131              		.loc 1 771 5 view .LVU721
 771:Drivers/STM32H5xx_HAL_Driver/Src/stm32h5xx_hal_rcc.c ****     {
 2132              		.loc 1 771 23 is_stmt 0 view .LVU722
 2133 0380 A368     		ldr	r3, [r4, #8]
 771:Drivers/STM32H5xx_HAL_Driver/Src/stm32h5xx_hal_rcc.c ****     {
 2134              		.loc 1 771 8 view .LVU723
 2135 0382 002B     		cmp	r3, #0
 2136 0384 51D0     		beq	.L161
 774:Drivers/STM32H5xx_HAL_Driver/Src/stm32h5xx_hal_rcc.c **** 
 2137              		.loc 1 774 7 is_stmt 1 view .LVU724
 774:Drivers/STM32H5xx_HAL_Driver/Src/stm32h5xx_hal_rcc.c **** 
 2138              		.loc 1 774 19 is_stmt 0 view .LVU725
 2139 0386 FFF7FEFF 		bl	HAL_GetTick
 2140              	.LVL138:
 2141 038a 0646     		mov	r6, r0
 2142              	.LVL139:
 777:Drivers/STM32H5xx_HAL_Driver/Src/stm32h5xx_hal_rcc.c ****       {
 2143              		.loc 1 777 7 is_stmt 1 view .LVU726
 2144              	.L162:
 777:Drivers/STM32H5xx_HAL_Driver/Src/stm32h5xx_hal_rcc.c ****       {
 2145              		.loc 1 777 51 view .LVU727
 777:Drivers/STM32H5xx_HAL_Driver/Src/stm32h5xx_hal_rcc.c ****       {
 2146              		.loc 1 777 14 is_stmt 0 view .LVU728
 2147 038c 5F4B     		ldr	r3, .L238
 2148 038e D3F8F030 		ldr	r3, [r3, #240]
 777:Drivers/STM32H5xx_HAL_Driver/Src/stm32h5xx_hal_rcc.c ****       {
 2149              		.loc 1 777 51 view .LVU729
 2150 0392 13F0020F 		tst	r3, #2
 2151 0396 5AD1     		bne	.L152
 779:Drivers/STM32H5xx_HAL_Driver/Src/stm32h5xx_hal_rcc.c ****         {
 2152              		.loc 1 779 9 is_stmt 1 view .LVU730
 779:Drivers/STM32H5xx_HAL_Driver/Src/stm32h5xx_hal_rcc.c ****         {
 2153              		.loc 1 779 14 is_stmt 0 view .LVU731
 2154 0398 FFF7FEFF 		bl	HAL_GetTick
 2155              	.LVL140:
 779:Drivers/STM32H5xx_HAL_Driver/Src/stm32h5xx_hal_rcc.c ****         {
 2156              		.loc 1 779 28 discriminator 1 view .LVU732
 2157 039c 801B     		subs	r0, r0, r6
 779:Drivers/STM32H5xx_HAL_Driver/Src/stm32h5xx_hal_rcc.c ****         {
 2158              		.loc 1 779 12 discriminator 1 view .LVU733
 2159 039e 41F28833 		movw	r3, #5000
 2160 03a2 9842     		cmp	r0, r3
 2161 03a4 F2D9     		bls	.L162
 781:Drivers/STM32H5xx_HAL_Driver/Src/stm32h5xx_hal_rcc.c ****         }
 2162              		.loc 1 781 18 view .LVU734
 2163 03a6 0320     		movs	r0, #3
 2164 03a8 5EE1     		b	.L113
 2165              	.LVL141:
 2166              	.L158:
 768:Drivers/STM32H5xx_HAL_Driver/Src/stm32h5xx_hal_rcc.c **** 
 2167              		.loc 1 768 5 is_stmt 1 discriminator 5 view .LVU735
 2168 03aa 052B     		cmp	r3, #5
ARM GAS  C:\Users\sapph\AppData\Local\Temp\ccD3KfzI.s 			page 75


 2169 03ac 15D0     		beq	.L229
 768:Drivers/STM32H5xx_HAL_Driver/Src/stm32h5xx_hal_rcc.c **** 
 2170              		.loc 1 768 5 discriminator 8 view .LVU736
 2171 03ae 852B     		cmp	r3, #133
 2172 03b0 27D0     		beq	.L230
 768:Drivers/STM32H5xx_HAL_Driver/Src/stm32h5xx_hal_rcc.c **** 
 2173              		.loc 1 768 5 discriminator 11 view .LVU737
 2174 03b2 564B     		ldr	r3, .L238
 2175 03b4 D3F8F020 		ldr	r2, [r3, #240]
 2176 03b8 22F00102 		bic	r2, r2, #1
 2177 03bc C3F8F020 		str	r2, [r3, #240]
 768:Drivers/STM32H5xx_HAL_Driver/Src/stm32h5xx_hal_rcc.c **** 
 2178              		.loc 1 768 5 discriminator 11 view .LVU738
 2179 03c0 D3F8F020 		ldr	r2, [r3, #240]
 2180 03c4 22F00402 		bic	r2, r2, #4
 2181 03c8 C3F8F020 		str	r2, [r3, #240]
 768:Drivers/STM32H5xx_HAL_Driver/Src/stm32h5xx_hal_rcc.c **** 
 2182              		.loc 1 768 5 discriminator 11 view .LVU739
 2183 03cc D3F8F020 		ldr	r2, [r3, #240]
 2184 03d0 22F08002 		bic	r2, r2, #128
 2185 03d4 C3F8F020 		str	r2, [r3, #240]
 2186 03d8 D2E7     		b	.L157
 2187              	.L229:
 768:Drivers/STM32H5xx_HAL_Driver/Src/stm32h5xx_hal_rcc.c **** 
 2188              		.loc 1 768 5 discriminator 7 view .LVU740
 2189 03da 4C4B     		ldr	r3, .L238
 2190 03dc D3F8F020 		ldr	r2, [r3, #240]
 2191 03e0 42F00402 		orr	r2, r2, #4
 2192 03e4 C3F8F020 		str	r2, [r3, #240]
 768:Drivers/STM32H5xx_HAL_Driver/Src/stm32h5xx_hal_rcc.c **** 
 2193              		.loc 1 768 5 discriminator 7 view .LVU741
 2194 03e8 D3F8F020 		ldr	r2, [r3, #240]
 2195 03ec 22F08002 		bic	r2, r2, #128
 2196 03f0 C3F8F020 		str	r2, [r3, #240]
 768:Drivers/STM32H5xx_HAL_Driver/Src/stm32h5xx_hal_rcc.c **** 
 2197              		.loc 1 768 5 discriminator 7 view .LVU742
 2198 03f4 D3F8F020 		ldr	r2, [r3, #240]
 2199 03f8 42F00102 		orr	r2, r2, #1
 2200 03fc C3F8F020 		str	r2, [r3, #240]
 2201 0400 BEE7     		b	.L157
 2202              	.L230:
 768:Drivers/STM32H5xx_HAL_Driver/Src/stm32h5xx_hal_rcc.c **** 
 2203              		.loc 1 768 5 discriminator 10 view .LVU743
 2204 0402 424B     		ldr	r3, .L238
 2205 0404 D3F8F020 		ldr	r2, [r3, #240]
 2206 0408 42F00402 		orr	r2, r2, #4
 2207 040c C3F8F020 		str	r2, [r3, #240]
 768:Drivers/STM32H5xx_HAL_Driver/Src/stm32h5xx_hal_rcc.c **** 
 2208              		.loc 1 768 5 discriminator 10 view .LVU744
 2209 0410 D3F8F020 		ldr	r2, [r3, #240]
 2210 0414 42F08002 		orr	r2, r2, #128
 2211 0418 C3F8F020 		str	r2, [r3, #240]
 768:Drivers/STM32H5xx_HAL_Driver/Src/stm32h5xx_hal_rcc.c **** 
 2212              		.loc 1 768 5 discriminator 10 view .LVU745
 2213 041c D3F8F020 		ldr	r2, [r3, #240]
 2214 0420 42F00102 		orr	r2, r2, #1
 2215 0424 C3F8F020 		str	r2, [r3, #240]
ARM GAS  C:\Users\sapph\AppData\Local\Temp\ccD3KfzI.s 			page 76


 2216 0428 AAE7     		b	.L157
 2217              	.L161:
 788:Drivers/STM32H5xx_HAL_Driver/Src/stm32h5xx_hal_rcc.c **** 
 2218              		.loc 1 788 7 view .LVU746
 788:Drivers/STM32H5xx_HAL_Driver/Src/stm32h5xx_hal_rcc.c **** 
 2219              		.loc 1 788 19 is_stmt 0 view .LVU747
 2220 042a FFF7FEFF 		bl	HAL_GetTick
 2221              	.LVL142:
 2222 042e 0646     		mov	r6, r0
 2223              	.LVL143:
 791:Drivers/STM32H5xx_HAL_Driver/Src/stm32h5xx_hal_rcc.c ****       {
 2224              		.loc 1 791 7 is_stmt 1 view .LVU748
 2225              	.L164:
 791:Drivers/STM32H5xx_HAL_Driver/Src/stm32h5xx_hal_rcc.c ****       {
 2226              		.loc 1 791 51 view .LVU749
 791:Drivers/STM32H5xx_HAL_Driver/Src/stm32h5xx_hal_rcc.c ****       {
 2227              		.loc 1 791 14 is_stmt 0 view .LVU750
 2228 0430 364B     		ldr	r3, .L238
 2229 0432 D3F8F030 		ldr	r3, [r3, #240]
 791:Drivers/STM32H5xx_HAL_Driver/Src/stm32h5xx_hal_rcc.c ****       {
 2230              		.loc 1 791 51 view .LVU751
 2231 0436 13F0020F 		tst	r3, #2
 2232 043a 08D0     		beq	.L152
 793:Drivers/STM32H5xx_HAL_Driver/Src/stm32h5xx_hal_rcc.c ****         {
 2233              		.loc 1 793 9 is_stmt 1 view .LVU752
 793:Drivers/STM32H5xx_HAL_Driver/Src/stm32h5xx_hal_rcc.c ****         {
 2234              		.loc 1 793 14 is_stmt 0 view .LVU753
 2235 043c FFF7FEFF 		bl	HAL_GetTick
 2236              	.LVL144:
 793:Drivers/STM32H5xx_HAL_Driver/Src/stm32h5xx_hal_rcc.c ****         {
 2237              		.loc 1 793 28 discriminator 1 view .LVU754
 2238 0440 801B     		subs	r0, r0, r6
 793:Drivers/STM32H5xx_HAL_Driver/Src/stm32h5xx_hal_rcc.c ****         {
 2239              		.loc 1 793 12 discriminator 1 view .LVU755
 2240 0442 41F28833 		movw	r3, #5000
 2241 0446 9842     		cmp	r0, r3
 2242 0448 F2D9     		bls	.L164
 795:Drivers/STM32H5xx_HAL_Driver/Src/stm32h5xx_hal_rcc.c ****         }
 2243              		.loc 1 795 18 view .LVU756
 2244 044a 0320     		movs	r0, #3
 2245 044c 0CE1     		b	.L113
 2246              	.LVL145:
 2247              	.L152:
 802:Drivers/STM32H5xx_HAL_Driver/Src/stm32h5xx_hal_rcc.c ****   {
 2248              		.loc 1 802 3 is_stmt 1 view .LVU757
 802:Drivers/STM32H5xx_HAL_Driver/Src/stm32h5xx_hal_rcc.c ****   {
 2249              		.loc 1 802 23 is_stmt 0 view .LVU758
 2250 044e 2368     		ldr	r3, [r4]
 802:Drivers/STM32H5xx_HAL_Driver/Src/stm32h5xx_hal_rcc.c ****   {
 2251              		.loc 1 802 6 view .LVU759
 2252 0450 13F0200F 		tst	r3, #32
 2253 0454 29D0     		beq	.L166
 805:Drivers/STM32H5xx_HAL_Driver/Src/stm32h5xx_hal_rcc.c **** 
 2254              		.loc 1 805 5 is_stmt 1 view .LVU760
 808:Drivers/STM32H5xx_HAL_Driver/Src/stm32h5xx_hal_rcc.c ****     {
 2255              		.loc 1 808 5 view .LVU761
 808:Drivers/STM32H5xx_HAL_Driver/Src/stm32h5xx_hal_rcc.c ****     {
ARM GAS  C:\Users\sapph\AppData\Local\Temp\ccD3KfzI.s 			page 77


 2256              		.loc 1 808 23 is_stmt 0 view .LVU762
 2257 0456 636A     		ldr	r3, [r4, #36]
 808:Drivers/STM32H5xx_HAL_Driver/Src/stm32h5xx_hal_rcc.c ****     {
 2258              		.loc 1 808 8 view .LVU763
 2259 0458 9BB1     		cbz	r3, .L167
 811:Drivers/STM32H5xx_HAL_Driver/Src/stm32h5xx_hal_rcc.c **** 
 2260              		.loc 1 811 7 is_stmt 1 view .LVU764
 2261 045a 2C4A     		ldr	r2, .L238
 2262 045c 1368     		ldr	r3, [r2]
 2263 045e 43F48053 		orr	r3, r3, #4096
 2264 0462 1360     		str	r3, [r2]
 814:Drivers/STM32H5xx_HAL_Driver/Src/stm32h5xx_hal_rcc.c **** 
 2265              		.loc 1 814 7 view .LVU765
 814:Drivers/STM32H5xx_HAL_Driver/Src/stm32h5xx_hal_rcc.c **** 
 2266              		.loc 1 814 19 is_stmt 0 view .LVU766
 2267 0464 FFF7FEFF 		bl	HAL_GetTick
 2268              	.LVL146:
 2269 0468 0646     		mov	r6, r0
 2270              	.LVL147:
 817:Drivers/STM32H5xx_HAL_Driver/Src/stm32h5xx_hal_rcc.c ****       {
 2271              		.loc 1 817 7 is_stmt 1 view .LVU767
 2272              	.L168:
 817:Drivers/STM32H5xx_HAL_Driver/Src/stm32h5xx_hal_rcc.c ****       {
 2273              		.loc 1 817 49 view .LVU768
 817:Drivers/STM32H5xx_HAL_Driver/Src/stm32h5xx_hal_rcc.c ****       {
 2274              		.loc 1 817 14 is_stmt 0 view .LVU769
 2275 046a 284B     		ldr	r3, .L238
 2276 046c 1B68     		ldr	r3, [r3]
 817:Drivers/STM32H5xx_HAL_Driver/Src/stm32h5xx_hal_rcc.c ****       {
 2277              		.loc 1 817 49 view .LVU770
 2278 046e 13F4005F 		tst	r3, #8192
 2279 0472 1AD1     		bne	.L166
 819:Drivers/STM32H5xx_HAL_Driver/Src/stm32h5xx_hal_rcc.c ****         {
 2280              		.loc 1 819 9 is_stmt 1 view .LVU771
 819:Drivers/STM32H5xx_HAL_Driver/Src/stm32h5xx_hal_rcc.c ****         {
 2281              		.loc 1 819 14 is_stmt 0 view .LVU772
 2282 0474 FFF7FEFF 		bl	HAL_GetTick
 2283              	.LVL148:
 819:Drivers/STM32H5xx_HAL_Driver/Src/stm32h5xx_hal_rcc.c ****         {
 2284              		.loc 1 819 28 discriminator 1 view .LVU773
 2285 0478 801B     		subs	r0, r0, r6
 819:Drivers/STM32H5xx_HAL_Driver/Src/stm32h5xx_hal_rcc.c ****         {
 2286              		.loc 1 819 12 discriminator 1 view .LVU774
 2287 047a 0228     		cmp	r0, #2
 2288 047c F5D9     		bls	.L168
 821:Drivers/STM32H5xx_HAL_Driver/Src/stm32h5xx_hal_rcc.c ****         }
 2289              		.loc 1 821 18 view .LVU775
 2290 047e 0320     		movs	r0, #3
 2291 0480 F2E0     		b	.L113
 2292              	.LVL149:
 2293              	.L167:
 828:Drivers/STM32H5xx_HAL_Driver/Src/stm32h5xx_hal_rcc.c **** 
 2294              		.loc 1 828 7 is_stmt 1 view .LVU776
 2295 0482 224A     		ldr	r2, .L238
 2296 0484 1368     		ldr	r3, [r2]
 2297 0486 23F48053 		bic	r3, r3, #4096
 2298 048a 1360     		str	r3, [r2]
ARM GAS  C:\Users\sapph\AppData\Local\Temp\ccD3KfzI.s 			page 78


 831:Drivers/STM32H5xx_HAL_Driver/Src/stm32h5xx_hal_rcc.c **** 
 2299              		.loc 1 831 7 view .LVU777
 831:Drivers/STM32H5xx_HAL_Driver/Src/stm32h5xx_hal_rcc.c **** 
 2300              		.loc 1 831 19 is_stmt 0 view .LVU778
 2301 048c FFF7FEFF 		bl	HAL_GetTick
 2302              	.LVL150:
 2303 0490 0646     		mov	r6, r0
 2304              	.LVL151:
 834:Drivers/STM32H5xx_HAL_Driver/Src/stm32h5xx_hal_rcc.c ****       {
 2305              		.loc 1 834 7 is_stmt 1 view .LVU779
 2306              	.L170:
 834:Drivers/STM32H5xx_HAL_Driver/Src/stm32h5xx_hal_rcc.c ****       {
 2307              		.loc 1 834 49 view .LVU780
 834:Drivers/STM32H5xx_HAL_Driver/Src/stm32h5xx_hal_rcc.c ****       {
 2308              		.loc 1 834 14 is_stmt 0 view .LVU781
 2309 0492 1E4B     		ldr	r3, .L238
 2310 0494 1B68     		ldr	r3, [r3]
 834:Drivers/STM32H5xx_HAL_Driver/Src/stm32h5xx_hal_rcc.c ****       {
 2311              		.loc 1 834 49 view .LVU782
 2312 0496 13F4005F 		tst	r3, #8192
 2313 049a 06D0     		beq	.L166
 836:Drivers/STM32H5xx_HAL_Driver/Src/stm32h5xx_hal_rcc.c ****         {
 2314              		.loc 1 836 9 is_stmt 1 view .LVU783
 836:Drivers/STM32H5xx_HAL_Driver/Src/stm32h5xx_hal_rcc.c ****         {
 2315              		.loc 1 836 14 is_stmt 0 view .LVU784
 2316 049c FFF7FEFF 		bl	HAL_GetTick
 2317              	.LVL152:
 836:Drivers/STM32H5xx_HAL_Driver/Src/stm32h5xx_hal_rcc.c ****         {
 2318              		.loc 1 836 28 discriminator 1 view .LVU785
 2319 04a0 801B     		subs	r0, r0, r6
 836:Drivers/STM32H5xx_HAL_Driver/Src/stm32h5xx_hal_rcc.c ****         {
 2320              		.loc 1 836 12 discriminator 1 view .LVU786
 2321 04a2 0228     		cmp	r0, #2
 2322 04a4 F5D9     		bls	.L170
 838:Drivers/STM32H5xx_HAL_Driver/Src/stm32h5xx_hal_rcc.c ****         }
 2323              		.loc 1 838 18 view .LVU787
 2324 04a6 0320     		movs	r0, #3
 2325 04a8 DEE0     		b	.L113
 2326              	.LVL153:
 2327              	.L166:
 846:Drivers/STM32H5xx_HAL_Driver/Src/stm32h5xx_hal_rcc.c **** 
 2328              		.loc 1 846 3 is_stmt 1 view .LVU788
 848:Drivers/STM32H5xx_HAL_Driver/Src/stm32h5xx_hal_rcc.c ****   {
 2329              		.loc 1 848 3 view .LVU789
 848:Drivers/STM32H5xx_HAL_Driver/Src/stm32h5xx_hal_rcc.c ****   {
 2330              		.loc 1 848 27 is_stmt 0 view .LVU790
 2331 04aa A36A     		ldr	r3, [r4, #40]
 848:Drivers/STM32H5xx_HAL_Driver/Src/stm32h5xx_hal_rcc.c ****   {
 2332              		.loc 1 848 6 view .LVU791
 2333 04ac 002B     		cmp	r3, #0
 2334 04ae 00F0DA80 		beq	.L200
 851:Drivers/STM32H5xx_HAL_Driver/Src/stm32h5xx_hal_rcc.c ****     {
 2335              		.loc 1 851 5 is_stmt 1 view .LVU792
 851:Drivers/STM32H5xx_HAL_Driver/Src/stm32h5xx_hal_rcc.c ****     {
 2336              		.loc 1 851 8 is_stmt 0 view .LVU793
 2337 04b2 182D     		cmp	r5, #24
 2338 04b4 00F08980 		beq	.L172
ARM GAS  C:\Users\sapph\AppData\Local\Temp\ccD3KfzI.s 			page 79


 853:Drivers/STM32H5xx_HAL_Driver/Src/stm32h5xx_hal_rcc.c ****       {
 2339              		.loc 1 853 7 is_stmt 1 view .LVU794
 853:Drivers/STM32H5xx_HAL_Driver/Src/stm32h5xx_hal_rcc.c ****       {
 2340              		.loc 1 853 10 is_stmt 0 view .LVU795
 2341 04b8 022B     		cmp	r3, #2
 2342 04ba 13D0     		beq	.L231
 928:Drivers/STM32H5xx_HAL_Driver/Src/stm32h5xx_hal_rcc.c **** 
 2343              		.loc 1 928 9 is_stmt 1 view .LVU796
 2344 04bc 134A     		ldr	r2, .L238
 2345 04be 1368     		ldr	r3, [r2]
 2346 04c0 23F08073 		bic	r3, r3, #16777216
 2347 04c4 1360     		str	r3, [r2]
 931:Drivers/STM32H5xx_HAL_Driver/Src/stm32h5xx_hal_rcc.c **** 
 2348              		.loc 1 931 9 view .LVU797
 931:Drivers/STM32H5xx_HAL_Driver/Src/stm32h5xx_hal_rcc.c **** 
 2349              		.loc 1 931 21 is_stmt 0 view .LVU798
 2350 04c6 FFF7FEFF 		bl	HAL_GetTick
 2351              	.LVL154:
 2352 04ca 0446     		mov	r4, r0
 2353              	.LVL155:
 934:Drivers/STM32H5xx_HAL_Driver/Src/stm32h5xx_hal_rcc.c ****         {
 2354              		.loc 1 934 9 is_stmt 1 view .LVU799
 2355              	.L178:
 934:Drivers/STM32H5xx_HAL_Driver/Src/stm32h5xx_hal_rcc.c ****         {
 2356              		.loc 1 934 50 view .LVU800
 934:Drivers/STM32H5xx_HAL_Driver/Src/stm32h5xx_hal_rcc.c ****         {
 2357              		.loc 1 934 16 is_stmt 0 view .LVU801
 2358 04cc 0F4B     		ldr	r3, .L238
 2359 04ce 1B68     		ldr	r3, [r3]
 934:Drivers/STM32H5xx_HAL_Driver/Src/stm32h5xx_hal_rcc.c ****         {
 2360              		.loc 1 934 50 view .LVU802
 2361 04d0 13F0007F 		tst	r3, #33554432
 2362 04d4 70D0     		beq	.L232
 936:Drivers/STM32H5xx_HAL_Driver/Src/stm32h5xx_hal_rcc.c ****           {
 2363              		.loc 1 936 11 is_stmt 1 view .LVU803
 936:Drivers/STM32H5xx_HAL_Driver/Src/stm32h5xx_hal_rcc.c ****           {
 2364              		.loc 1 936 16 is_stmt 0 view .LVU804
 2365 04d6 FFF7FEFF 		bl	HAL_GetTick
 2366              	.LVL156:
 936:Drivers/STM32H5xx_HAL_Driver/Src/stm32h5xx_hal_rcc.c ****           {
 2367              		.loc 1 936 30 discriminator 1 view .LVU805
 2368 04da 001B     		subs	r0, r0, r4
 936:Drivers/STM32H5xx_HAL_Driver/Src/stm32h5xx_hal_rcc.c ****           {
 2369              		.loc 1 936 14 discriminator 1 view .LVU806
 2370 04dc 0228     		cmp	r0, #2
 2371 04de F5D9     		bls	.L178
 938:Drivers/STM32H5xx_HAL_Driver/Src/stm32h5xx_hal_rcc.c ****           }
 2372              		.loc 1 938 20 view .LVU807
 2373 04e0 0320     		movs	r0, #3
 2374 04e2 C1E0     		b	.L113
 2375              	.LVL157:
 2376              	.L231:
 856:Drivers/STM32H5xx_HAL_Driver/Src/stm32h5xx_hal_rcc.c ****         assert_param(IS_RCC_PLL1_DIVM_VALUE(pOscInitStruct->PLL.PLLM));
 2377              		.loc 1 856 9 is_stmt 1 view .LVU808
 857:Drivers/STM32H5xx_HAL_Driver/Src/stm32h5xx_hal_rcc.c ****         assert_param(IS_RCC_PLL1_MULN_VALUE(pOscInitStruct->PLL.PLLN));
 2378              		.loc 1 857 9 view .LVU809
 858:Drivers/STM32H5xx_HAL_Driver/Src/stm32h5xx_hal_rcc.c ****         assert_param(IS_RCC_PLL1_DIVP_VALUE(pOscInitStruct->PLL.PLLP));
ARM GAS  C:\Users\sapph\AppData\Local\Temp\ccD3KfzI.s 			page 80


 2379              		.loc 1 858 9 view .LVU810
 859:Drivers/STM32H5xx_HAL_Driver/Src/stm32h5xx_hal_rcc.c ****         assert_param(IS_RCC_PLL1_DIVQ_VALUE(pOscInitStruct->PLL.PLLQ));
 2380              		.loc 1 859 9 view .LVU811
 860:Drivers/STM32H5xx_HAL_Driver/Src/stm32h5xx_hal_rcc.c ****         assert_param(IS_RCC_PLL1_DIVR_VALUE(pOscInitStruct->PLL.PLLR));
 2381              		.loc 1 860 9 view .LVU812
 861:Drivers/STM32H5xx_HAL_Driver/Src/stm32h5xx_hal_rcc.c **** 
 2382              		.loc 1 861 9 view .LVU813
 864:Drivers/STM32H5xx_HAL_Driver/Src/stm32h5xx_hal_rcc.c **** 
 2383              		.loc 1 864 9 view .LVU814
 2384 04e4 094A     		ldr	r2, .L238
 2385 04e6 1368     		ldr	r3, [r2]
 2386 04e8 23F08073 		bic	r3, r3, #16777216
 2387 04ec 1360     		str	r3, [r2]
 867:Drivers/STM32H5xx_HAL_Driver/Src/stm32h5xx_hal_rcc.c **** 
 2388              		.loc 1 867 9 view .LVU815
 867:Drivers/STM32H5xx_HAL_Driver/Src/stm32h5xx_hal_rcc.c **** 
 2389              		.loc 1 867 21 is_stmt 0 view .LVU816
 2390 04ee FFF7FEFF 		bl	HAL_GetTick
 2391              	.LVL158:
 2392 04f2 0546     		mov	r5, r0
 2393              	.LVL159:
 870:Drivers/STM32H5xx_HAL_Driver/Src/stm32h5xx_hal_rcc.c ****         {
 2394              		.loc 1 870 9 is_stmt 1 view .LVU817
 2395              	.L174:
 870:Drivers/STM32H5xx_HAL_Driver/Src/stm32h5xx_hal_rcc.c ****         {
 2396              		.loc 1 870 50 view .LVU818
 870:Drivers/STM32H5xx_HAL_Driver/Src/stm32h5xx_hal_rcc.c ****         {
 2397              		.loc 1 870 16 is_stmt 0 view .LVU819
 2398 04f4 054B     		ldr	r3, .L238
 2399 04f6 1B68     		ldr	r3, [r3]
 870:Drivers/STM32H5xx_HAL_Driver/Src/stm32h5xx_hal_rcc.c ****         {
 2400              		.loc 1 870 50 view .LVU820
 2401 04f8 13F0007F 		tst	r3, #33554432
 2402 04fc 0AD0     		beq	.L233
 872:Drivers/STM32H5xx_HAL_Driver/Src/stm32h5xx_hal_rcc.c ****           {
 2403              		.loc 1 872 11 is_stmt 1 view .LVU821
 872:Drivers/STM32H5xx_HAL_Driver/Src/stm32h5xx_hal_rcc.c ****           {
 2404              		.loc 1 872 16 is_stmt 0 view .LVU822
 2405 04fe FFF7FEFF 		bl	HAL_GetTick
 2406              	.LVL160:
 872:Drivers/STM32H5xx_HAL_Driver/Src/stm32h5xx_hal_rcc.c ****           {
 2407              		.loc 1 872 30 discriminator 1 view .LVU823
 2408 0502 401B     		subs	r0, r0, r5
 872:Drivers/STM32H5xx_HAL_Driver/Src/stm32h5xx_hal_rcc.c ****           {
 2409              		.loc 1 872 14 discriminator 1 view .LVU824
 2410 0504 0228     		cmp	r0, #2
 2411 0506 F5D9     		bls	.L174
 874:Drivers/STM32H5xx_HAL_Driver/Src/stm32h5xx_hal_rcc.c ****           }
 2412              		.loc 1 874 20 view .LVU825
 2413 0508 0320     		movs	r0, #3
 2414 050a ADE0     		b	.L113
 2415              	.L239:
 2416              		.align	2
 2417              	.L238:
 2418 050c 000C0244 		.word	1140984832
 2419 0510 00080244 		.word	1140983808
 2420              	.L233:
ARM GAS  C:\Users\sapph\AppData\Local\Temp\ccD3KfzI.s 			page 81


 879:Drivers/STM32H5xx_HAL_Driver/Src/stm32h5xx_hal_rcc.c ****                               pOscInitStruct->PLL.PLLM,
 2421              		.loc 1 879 9 is_stmt 1 view .LVU826
 879:Drivers/STM32H5xx_HAL_Driver/Src/stm32h5xx_hal_rcc.c ****                               pOscInitStruct->PLL.PLLM,
 2422              		.loc 1 879 9 view .LVU827
 2423 0514 5C4B     		ldr	r3, .L240
 2424 0516 9A6A     		ldr	r2, [r3, #40]
 2425 0518 22F47C52 		bic	r2, r2, #16128
 2426 051c 22F00302 		bic	r2, r2, #3
 2427 0520 E16A     		ldr	r1, [r4, #44]
 2428 0522 206B     		ldr	r0, [r4, #48]
 2429 0524 41EA0021 		orr	r1, r1, r0, lsl #8
 2430 0528 0A43     		orrs	r2, r2, r1
 2431 052a 9A62     		str	r2, [r3, #40]
 879:Drivers/STM32H5xx_HAL_Driver/Src/stm32h5xx_hal_rcc.c ****                               pOscInitStruct->PLL.PLLM,
 2432              		.loc 1 879 9 view .LVU828
 2433 052c 626B     		ldr	r2, [r4, #52]
 2434 052e 013A     		subs	r2, r2, #1
 2435 0530 C2F30802 		ubfx	r2, r2, #0, #9
 2436 0534 A16B     		ldr	r1, [r4, #56]
 2437 0536 0139     		subs	r1, r1, #1
 2438 0538 4902     		lsls	r1, r1, #9
 2439 053a 89B2     		uxth	r1, r1
 2440 053c 0A43     		orrs	r2, r2, r1
 2441 053e E16B     		ldr	r1, [r4, #60]
 2442 0540 0139     		subs	r1, r1, #1
 2443 0542 0904     		lsls	r1, r1, #16
 2444 0544 01F4FE01 		and	r1, r1, #8323072
 2445 0548 0A43     		orrs	r2, r2, r1
 2446 054a 216C     		ldr	r1, [r4, #64]
 2447 054c 0139     		subs	r1, r1, #1
 2448 054e 0906     		lsls	r1, r1, #24
 2449 0550 01F0FE41 		and	r1, r1, #2130706432
 2450 0554 0A43     		orrs	r2, r2, r1
 2451 0556 5A63     		str	r2, [r3, #52]
 879:Drivers/STM32H5xx_HAL_Driver/Src/stm32h5xx_hal_rcc.c ****                               pOscInitStruct->PLL.PLLM,
 2452              		.loc 1 879 9 view .LVU829
 886:Drivers/STM32H5xx_HAL_Driver/Src/stm32h5xx_hal_rcc.c **** 
 2453              		.loc 1 886 9 view .LVU830
 889:Drivers/STM32H5xx_HAL_Driver/Src/stm32h5xx_hal_rcc.c **** 
 2454              		.loc 1 889 9 view .LVU831
 2455 0558 9A6A     		ldr	r2, [r3, #40]
 2456 055a 22F01002 		bic	r2, r2, #16
 2457 055e 9A62     		str	r2, [r3, #40]
 892:Drivers/STM32H5xx_HAL_Driver/Src/stm32h5xx_hal_rcc.c **** 
 2458              		.loc 1 892 9 view .LVU832
 2459 0560 E26C     		ldr	r2, [r4, #76]
 2460 0562 D200     		lsls	r2, r2, #3
 2461 0564 9A63     		str	r2, [r3, #56]
 895:Drivers/STM32H5xx_HAL_Driver/Src/stm32h5xx_hal_rcc.c **** 
 2462              		.loc 1 895 9 view .LVU833
 2463 0566 9A6A     		ldr	r2, [r3, #40]
 2464 0568 42F01002 		orr	r2, r2, #16
 2465 056c 9A62     		str	r2, [r3, #40]
 897:Drivers/STM32H5xx_HAL_Driver/Src/stm32h5xx_hal_rcc.c **** 
 2466              		.loc 1 897 9 view .LVU834
 900:Drivers/STM32H5xx_HAL_Driver/Src/stm32h5xx_hal_rcc.c **** 
 2467              		.loc 1 900 9 view .LVU835
ARM GAS  C:\Users\sapph\AppData\Local\Temp\ccD3KfzI.s 			page 82


 2468 056e 9A6A     		ldr	r2, [r3, #40]
 2469 0570 22F00C02 		bic	r2, r2, #12
 2470 0574 616C     		ldr	r1, [r4, #68]
 2471 0576 0A43     		orrs	r2, r2, r1
 2472 0578 9A62     		str	r2, [r3, #40]
 902:Drivers/STM32H5xx_HAL_Driver/Src/stm32h5xx_hal_rcc.c **** 
 2473              		.loc 1 902 9 view .LVU836
 905:Drivers/STM32H5xx_HAL_Driver/Src/stm32h5xx_hal_rcc.c **** 
 2474              		.loc 1 905 9 view .LVU837
 2475 057a 9A6A     		ldr	r2, [r3, #40]
 2476 057c 22F02002 		bic	r2, r2, #32
 2477 0580 A16C     		ldr	r1, [r4, #72]
 2478 0582 0A43     		orrs	r2, r2, r1
 2479 0584 9A62     		str	r2, [r3, #40]
 908:Drivers/STM32H5xx_HAL_Driver/Src/stm32h5xx_hal_rcc.c **** 
 2480              		.loc 1 908 9 view .LVU838
 2481 0586 9A6A     		ldr	r2, [r3, #40]
 2482 0588 42F48032 		orr	r2, r2, #65536
 2483 058c 9A62     		str	r2, [r3, #40]
 911:Drivers/STM32H5xx_HAL_Driver/Src/stm32h5xx_hal_rcc.c **** 
 2484              		.loc 1 911 9 view .LVU839
 2485 058e 1A68     		ldr	r2, [r3]
 2486 0590 42F08072 		orr	r2, r2, #16777216
 2487 0594 1A60     		str	r2, [r3]
 914:Drivers/STM32H5xx_HAL_Driver/Src/stm32h5xx_hal_rcc.c **** 
 2488              		.loc 1 914 9 view .LVU840
 914:Drivers/STM32H5xx_HAL_Driver/Src/stm32h5xx_hal_rcc.c **** 
 2489              		.loc 1 914 21 is_stmt 0 view .LVU841
 2490 0596 FFF7FEFF 		bl	HAL_GetTick
 2491              	.LVL161:
 2492 059a 0446     		mov	r4, r0
 2493              	.LVL162:
 917:Drivers/STM32H5xx_HAL_Driver/Src/stm32h5xx_hal_rcc.c ****         {
 2494              		.loc 1 917 9 is_stmt 1 view .LVU842
 2495              	.L176:
 917:Drivers/STM32H5xx_HAL_Driver/Src/stm32h5xx_hal_rcc.c ****         {
 2496              		.loc 1 917 50 view .LVU843
 917:Drivers/STM32H5xx_HAL_Driver/Src/stm32h5xx_hal_rcc.c ****         {
 2497              		.loc 1 917 16 is_stmt 0 view .LVU844
 2498 059c 3A4B     		ldr	r3, .L240
 2499 059e 1B68     		ldr	r3, [r3]
 917:Drivers/STM32H5xx_HAL_Driver/Src/stm32h5xx_hal_rcc.c ****         {
 2500              		.loc 1 917 50 view .LVU845
 2501 05a0 13F0007F 		tst	r3, #33554432
 2502 05a4 06D1     		bne	.L234
 919:Drivers/STM32H5xx_HAL_Driver/Src/stm32h5xx_hal_rcc.c ****           {
 2503              		.loc 1 919 11 is_stmt 1 view .LVU846
 919:Drivers/STM32H5xx_HAL_Driver/Src/stm32h5xx_hal_rcc.c ****           {
 2504              		.loc 1 919 16 is_stmt 0 view .LVU847
 2505 05a6 FFF7FEFF 		bl	HAL_GetTick
 2506              	.LVL163:
 919:Drivers/STM32H5xx_HAL_Driver/Src/stm32h5xx_hal_rcc.c ****           {
 2507              		.loc 1 919 30 discriminator 1 view .LVU848
 2508 05aa 001B     		subs	r0, r0, r4
 919:Drivers/STM32H5xx_HAL_Driver/Src/stm32h5xx_hal_rcc.c ****           {
 2509              		.loc 1 919 14 discriminator 1 view .LVU849
 2510 05ac 0228     		cmp	r0, #2
ARM GAS  C:\Users\sapph\AppData\Local\Temp\ccD3KfzI.s 			page 83


 2511 05ae F5D9     		bls	.L176
 921:Drivers/STM32H5xx_HAL_Driver/Src/stm32h5xx_hal_rcc.c ****           }
 2512              		.loc 1 921 20 view .LVU850
 2513 05b0 0320     		movs	r0, #3
 2514 05b2 59E0     		b	.L113
 2515              	.L234:
 994:Drivers/STM32H5xx_HAL_Driver/Src/stm32h5xx_hal_rcc.c **** }
 2516              		.loc 1 994 10 view .LVU851
 2517 05b4 0020     		movs	r0, #0
 2518 05b6 57E0     		b	.L113
 2519              	.LVL164:
 2520              	.L232:
 943:Drivers/STM32H5xx_HAL_Driver/Src/stm32h5xx_hal_rcc.c **** 
 2521              		.loc 1 943 9 is_stmt 1 view .LVU852
 943:Drivers/STM32H5xx_HAL_Driver/Src/stm32h5xx_hal_rcc.c **** 
 2522              		.loc 1 943 12 is_stmt 0 view .LVU853
 2523 05b8 334A     		ldr	r2, .L240
 2524 05ba 936A     		ldr	r3, [r2, #40]
 943:Drivers/STM32H5xx_HAL_Driver/Src/stm32h5xx_hal_rcc.c **** 
 2525              		.loc 1 943 23 view .LVU854
 2526 05bc 23F4E023 		bic	r3, r3, #458752
 2527 05c0 23F00303 		bic	r3, r3, #3
 2528 05c4 9362     		str	r3, [r2, #40]
 994:Drivers/STM32H5xx_HAL_Driver/Src/stm32h5xx_hal_rcc.c **** }
 2529              		.loc 1 994 10 view .LVU855
 2530 05c6 0020     		movs	r0, #0
 2531 05c8 4EE0     		b	.L113
 2532              	.LVL165:
 2533              	.L172:
 950:Drivers/STM32H5xx_HAL_Driver/Src/stm32h5xx_hal_rcc.c ****       temp2_pllckcfg = RCC->PLL1DIVR;
 2534              		.loc 1 950 7 is_stmt 1 view .LVU856
 950:Drivers/STM32H5xx_HAL_Driver/Src/stm32h5xx_hal_rcc.c ****       temp2_pllckcfg = RCC->PLL1DIVR;
 2535              		.loc 1 950 22 is_stmt 0 view .LVU857
 2536 05ca 2F4A     		ldr	r2, .L240
 2537 05cc 916A     		ldr	r1, [r2, #40]
 2538              	.LVL166:
 951:Drivers/STM32H5xx_HAL_Driver/Src/stm32h5xx_hal_rcc.c ****       if (((pOscInitStruct->PLL.PLLState) == RCC_PLL_OFF) ||
 2539              		.loc 1 951 7 is_stmt 1 view .LVU858
 951:Drivers/STM32H5xx_HAL_Driver/Src/stm32h5xx_hal_rcc.c ****       if (((pOscInitStruct->PLL.PLLState) == RCC_PLL_OFF) ||
 2540              		.loc 1 951 22 is_stmt 0 view .LVU859
 2541 05ce 506B     		ldr	r0, [r2, #52]
 2542              	.LVL167:
 952:Drivers/STM32H5xx_HAL_Driver/Src/stm32h5xx_hal_rcc.c ****           (READ_BIT(temp1_pllckcfg, RCC_PLL1CFGR_PLL1SRC) != pOscInitStruct->PLL.PLLSource) ||
 2543              		.loc 1 952 7 is_stmt 1 view .LVU860
 952:Drivers/STM32H5xx_HAL_Driver/Src/stm32h5xx_hal_rcc.c ****           (READ_BIT(temp1_pllckcfg, RCC_PLL1CFGR_PLL1SRC) != pOscInitStruct->PLL.PLLSource) ||
 2544              		.loc 1 952 10 is_stmt 0 view .LVU861
 2545 05d0 012B     		cmp	r3, #1
 2546 05d2 4AD0     		beq	.L204
 953:Drivers/STM32H5xx_HAL_Driver/Src/stm32h5xx_hal_rcc.c ****           ((READ_BIT(temp1_pllckcfg, RCC_PLL1CFGR_PLL1M) >> \
 2547              		.loc 1 953 12 view .LVU862
 2548 05d4 01F00303 		and	r3, r1, #3
 953:Drivers/STM32H5xx_HAL_Driver/Src/stm32h5xx_hal_rcc.c ****           ((READ_BIT(temp1_pllckcfg, RCC_PLL1CFGR_PLL1M) >> \
 2549              		.loc 1 953 81 view .LVU863
 2550 05d8 E26A     		ldr	r2, [r4, #44]
 952:Drivers/STM32H5xx_HAL_Driver/Src/stm32h5xx_hal_rcc.c ****           (READ_BIT(temp1_pllckcfg, RCC_PLL1CFGR_PLL1SRC) != pOscInitStruct->PLL.PLLSource) ||
 2551              		.loc 1 952 59 discriminator 1 view .LVU864
 2552 05da 9342     		cmp	r3, r2
ARM GAS  C:\Users\sapph\AppData\Local\Temp\ccD3KfzI.s 			page 84


 2553 05dc 47D1     		bne	.L205
 954:Drivers/STM32H5xx_HAL_Driver/Src/stm32h5xx_hal_rcc.c ****             RCC_PLL1CFGR_PLL1M_Pos) != (pOscInitStruct->PLL.PLLM)) ||
 2554              		.loc 1 954 58 view .LVU865
 2555 05de C1F30521 		ubfx	r1, r1, #8, #6
 2556              	.LVL168:
 955:Drivers/STM32H5xx_HAL_Driver/Src/stm32h5xx_hal_rcc.c ****           (READ_BIT(temp2_pllckcfg, RCC_PLL1DIVR_PLL1N) != (pOscInitStruct->PLL.PLLN - 1U)) ||
 2557              		.loc 1 955 60 view .LVU866
 2558 05e2 236B     		ldr	r3, [r4, #48]
 953:Drivers/STM32H5xx_HAL_Driver/Src/stm32h5xx_hal_rcc.c ****           ((READ_BIT(temp1_pllckcfg, RCC_PLL1CFGR_PLL1M) >> \
 2559              		.loc 1 953 93 view .LVU867
 2560 05e4 9942     		cmp	r1, r3
 2561 05e6 44D1     		bne	.L206
 956:Drivers/STM32H5xx_HAL_Driver/Src/stm32h5xx_hal_rcc.c ****           ((READ_BIT(temp2_pllckcfg, RCC_PLL1DIVR_PLL1P) >> \
 2562              		.loc 1 956 12 view .LVU868
 2563 05e8 C0F30802 		ubfx	r2, r0, #0, #9
 956:Drivers/STM32H5xx_HAL_Driver/Src/stm32h5xx_hal_rcc.c ****           ((READ_BIT(temp2_pllckcfg, RCC_PLL1DIVR_PLL1P) >> \
 2564              		.loc 1 956 80 view .LVU869
 2565 05ec 636B     		ldr	r3, [r4, #52]
 956:Drivers/STM32H5xx_HAL_Driver/Src/stm32h5xx_hal_rcc.c ****           ((READ_BIT(temp2_pllckcfg, RCC_PLL1DIVR_PLL1P) >> \
 2566              		.loc 1 956 86 view .LVU870
 2567 05ee 013B     		subs	r3, r3, #1
 955:Drivers/STM32H5xx_HAL_Driver/Src/stm32h5xx_hal_rcc.c ****           (READ_BIT(temp2_pllckcfg, RCC_PLL1DIVR_PLL1N) != (pOscInitStruct->PLL.PLLN - 1U)) ||
 2568              		.loc 1 955 68 view .LVU871
 2569 05f0 9A42     		cmp	r2, r3
 2570 05f2 40D1     		bne	.L207
 957:Drivers/STM32H5xx_HAL_Driver/Src/stm32h5xx_hal_rcc.c ****             RCC_PLL1DIVR_PLL1P_Pos) != (pOscInitStruct->PLL.PLLP - 1U)) ||
 2571              		.loc 1 957 58 view .LVU872
 2572 05f4 C0F34622 		ubfx	r2, r0, #9, #7
 958:Drivers/STM32H5xx_HAL_Driver/Src/stm32h5xx_hal_rcc.c ****           ((READ_BIT(temp2_pllckcfg, RCC_PLL1DIVR_PLL1Q) >> \
 2573              		.loc 1 958 60 view .LVU873
 2574 05f8 A36B     		ldr	r3, [r4, #56]
 958:Drivers/STM32H5xx_HAL_Driver/Src/stm32h5xx_hal_rcc.c ****           ((READ_BIT(temp2_pllckcfg, RCC_PLL1DIVR_PLL1Q) >> \
 2575              		.loc 1 958 66 view .LVU874
 2576 05fa 013B     		subs	r3, r3, #1
 956:Drivers/STM32H5xx_HAL_Driver/Src/stm32h5xx_hal_rcc.c ****           ((READ_BIT(temp2_pllckcfg, RCC_PLL1DIVR_PLL1P) >> \
 2577              		.loc 1 956 93 view .LVU875
 2578 05fc 9A42     		cmp	r2, r3
 2579 05fe 3CD1     		bne	.L208
 959:Drivers/STM32H5xx_HAL_Driver/Src/stm32h5xx_hal_rcc.c ****             RCC_PLL1DIVR_PLL1Q_Pos) != (pOscInitStruct->PLL.PLLQ - 1U)) ||
 2580              		.loc 1 959 58 view .LVU876
 2581 0600 C0F30642 		ubfx	r2, r0, #16, #7
 960:Drivers/STM32H5xx_HAL_Driver/Src/stm32h5xx_hal_rcc.c ****           ((READ_BIT(temp2_pllckcfg, RCC_PLL1DIVR_PLL1R) >> \
 2582              		.loc 1 960 60 view .LVU877
 2583 0604 E36B     		ldr	r3, [r4, #60]
 960:Drivers/STM32H5xx_HAL_Driver/Src/stm32h5xx_hal_rcc.c ****           ((READ_BIT(temp2_pllckcfg, RCC_PLL1DIVR_PLL1R) >> \
 2584              		.loc 1 960 66 view .LVU878
 2585 0606 013B     		subs	r3, r3, #1
 958:Drivers/STM32H5xx_HAL_Driver/Src/stm32h5xx_hal_rcc.c ****           ((READ_BIT(temp2_pllckcfg, RCC_PLL1DIVR_PLL1Q) >> \
 2586              		.loc 1 958 73 view .LVU879
 2587 0608 9A42     		cmp	r2, r3
 2588 060a 38D1     		bne	.L209
 961:Drivers/STM32H5xx_HAL_Driver/Src/stm32h5xx_hal_rcc.c ****             RCC_PLL1DIVR_PLL1R_Pos) != (pOscInitStruct->PLL.PLLR - 1U)))
 2589              		.loc 1 961 58 view .LVU880
 2590 060c C0F30660 		ubfx	r0, r0, #24, #7
 2591              	.LVL169:
 962:Drivers/STM32H5xx_HAL_Driver/Src/stm32h5xx_hal_rcc.c ****       {
 2592              		.loc 1 962 60 view .LVU881
ARM GAS  C:\Users\sapph\AppData\Local\Temp\ccD3KfzI.s 			page 85


 2593 0610 236C     		ldr	r3, [r4, #64]
 962:Drivers/STM32H5xx_HAL_Driver/Src/stm32h5xx_hal_rcc.c ****       {
 2594              		.loc 1 962 66 view .LVU882
 2595 0612 013B     		subs	r3, r3, #1
 960:Drivers/STM32H5xx_HAL_Driver/Src/stm32h5xx_hal_rcc.c ****           ((READ_BIT(temp2_pllckcfg, RCC_PLL1DIVR_PLL1R) >> \
 2596              		.loc 1 960 73 view .LVU883
 2597 0614 9842     		cmp	r0, r3
 2598 0616 34D1     		bne	.L210
 968:Drivers/STM32H5xx_HAL_Driver/Src/stm32h5xx_hal_rcc.c ****            RCC_PLL1FRACR_PLL1FRACN_Pos) != (pOscInitStruct->PLL.PLLFRACN))
 2599              		.loc 1 968 7 is_stmt 1 view .LVU884
 968:Drivers/STM32H5xx_HAL_Driver/Src/stm32h5xx_hal_rcc.c ****            RCC_PLL1FRACR_PLL1FRACN_Pos) != (pOscInitStruct->PLL.PLLFRACN))
 2600              		.loc 1 968 12 is_stmt 0 view .LVU885
 2601 0618 1B4B     		ldr	r3, .L240
 2602 061a 9B6B     		ldr	r3, [r3, #56]
 968:Drivers/STM32H5xx_HAL_Driver/Src/stm32h5xx_hal_rcc.c ****            RCC_PLL1FRACR_PLL1FRACN_Pos) != (pOscInitStruct->PLL.PLLFRACN))
 2603              		.loc 1 968 62 view .LVU886
 2604 061c C3F3CC03 		ubfx	r3, r3, #3, #13
 969:Drivers/STM32H5xx_HAL_Driver/Src/stm32h5xx_hal_rcc.c ****       {
 2605              		.loc 1 969 64 view .LVU887
 2606 0620 E26C     		ldr	r2, [r4, #76]
 968:Drivers/STM32H5xx_HAL_Driver/Src/stm32h5xx_hal_rcc.c ****            RCC_PLL1FRACR_PLL1FRACN_Pos) != (pOscInitStruct->PLL.PLLFRACN))
 2607              		.loc 1 968 10 view .LVU888
 2608 0622 9342     		cmp	r3, r2
 2609 0624 01D1     		bne	.L235
 994:Drivers/STM32H5xx_HAL_Driver/Src/stm32h5xx_hal_rcc.c **** }
 2610              		.loc 1 994 10 view .LVU889
 2611 0626 0020     		movs	r0, #0
 2612 0628 1EE0     		b	.L113
 2613              	.L235:
 971:Drivers/STM32H5xx_HAL_Driver/Src/stm32h5xx_hal_rcc.c **** 
 2614              		.loc 1 971 9 is_stmt 1 view .LVU890
 974:Drivers/STM32H5xx_HAL_Driver/Src/stm32h5xx_hal_rcc.c **** 
 2615              		.loc 1 974 9 view .LVU891
 2616 062a 174A     		ldr	r2, .L240
 2617 062c 936A     		ldr	r3, [r2, #40]
 2618 062e 23F01003 		bic	r3, r3, #16
 2619 0632 9362     		str	r3, [r2, #40]
 977:Drivers/STM32H5xx_HAL_Driver/Src/stm32h5xx_hal_rcc.c **** 
 2620              		.loc 1 977 9 view .LVU892
 977:Drivers/STM32H5xx_HAL_Driver/Src/stm32h5xx_hal_rcc.c **** 
 2621              		.loc 1 977 21 is_stmt 0 view .LVU893
 2622 0634 FFF7FEFF 		bl	HAL_GetTick
 2623              	.LVL170:
 2624 0638 0546     		mov	r5, r0
 2625              	.LVL171:
 981:Drivers/STM32H5xx_HAL_Driver/Src/stm32h5xx_hal_rcc.c ****         {
 2626              		.loc 1 981 9 is_stmt 1 view .LVU894
 2627              	.L180:
 983:Drivers/STM32H5xx_HAL_Driver/Src/stm32h5xx_hal_rcc.c **** 
 2628              		.loc 1 983 9 view .LVU895
 981:Drivers/STM32H5xx_HAL_Driver/Src/stm32h5xx_hal_rcc.c ****         {
 2629              		.loc 1 981 44 discriminator 1 view .LVU896
 981:Drivers/STM32H5xx_HAL_Driver/Src/stm32h5xx_hal_rcc.c ****         {
 2630              		.loc 1 981 17 is_stmt 0 discriminator 1 view .LVU897
 2631 063a FFF7FEFF 		bl	HAL_GetTick
 2632              	.LVL172:
 981:Drivers/STM32H5xx_HAL_Driver/Src/stm32h5xx_hal_rcc.c ****         {
ARM GAS  C:\Users\sapph\AppData\Local\Temp\ccD3KfzI.s 			page 86


 2633              		.loc 1 981 44 discriminator 1 view .LVU898
 2634 063e A842     		cmp	r0, r5
 2635 0640 FBD0     		beq	.L180
 986:Drivers/STM32H5xx_HAL_Driver/Src/stm32h5xx_hal_rcc.c **** 
 2636              		.loc 1 986 9 is_stmt 1 view .LVU899
 2637 0642 E26C     		ldr	r2, [r4, #76]
 2638 0644 D200     		lsls	r2, r2, #3
 2639 0646 104B     		ldr	r3, .L240
 2640 0648 9A63     		str	r2, [r3, #56]
 989:Drivers/STM32H5xx_HAL_Driver/Src/stm32h5xx_hal_rcc.c ****       }
 2641              		.loc 1 989 9 view .LVU900
 2642 064a 9A6A     		ldr	r2, [r3, #40]
 2643 064c 42F01002 		orr	r2, r2, #16
 2644 0650 9A62     		str	r2, [r3, #40]
 994:Drivers/STM32H5xx_HAL_Driver/Src/stm32h5xx_hal_rcc.c **** }
 2645              		.loc 1 994 10 is_stmt 0 view .LVU901
 2646 0652 0020     		movs	r0, #0
 2647 0654 08E0     		b	.L113
 2648              	.LVL173:
 2649              	.L181:
 2650              		.cfi_def_cfa_offset 0
 2651              		.cfi_restore 3
 2652              		.cfi_restore 4
 2653              		.cfi_restore 5
 2654              		.cfi_restore 6
 2655              		.cfi_restore 7
 2656              		.cfi_restore 14
 471:Drivers/STM32H5xx_HAL_Driver/Src/stm32h5xx_hal_rcc.c ****   }
 2657              		.loc 1 471 12 view .LVU902
 2658 0656 0120     		movs	r0, #1
 2659              	.LVL174:
 995:Drivers/STM32H5xx_HAL_Driver/Src/stm32h5xx_hal_rcc.c **** 
 2660              		.loc 1 995 1 view .LVU903
 2661 0658 7047     		bx	lr
 2662              	.LVL175:
 2663              	.L182:
 2664              		.cfi_def_cfa_offset 24
 2665              		.cfi_offset 3, -24
 2666              		.cfi_offset 4, -20
 2667              		.cfi_offset 5, -16
 2668              		.cfi_offset 6, -12
 2669              		.cfi_offset 7, -8
 2670              		.cfi_offset 14, -4
 492:Drivers/STM32H5xx_HAL_Driver/Src/stm32h5xx_hal_rcc.c ****       }
 2671              		.loc 1 492 16 view .LVU904
 2672 065a 0120     		movs	r0, #1
 2673              	.LVL176:
 492:Drivers/STM32H5xx_HAL_Driver/Src/stm32h5xx_hal_rcc.c ****       }
 2674              		.loc 1 492 16 view .LVU905
 2675 065c 04E0     		b	.L113
 2676              	.L220:
 556:Drivers/STM32H5xx_HAL_Driver/Src/stm32h5xx_hal_rcc.c ****       }
 2677              		.loc 1 556 16 view .LVU906
 2678 065e 0120     		movs	r0, #1
 2679 0660 02E0     		b	.L113
 2680              	.L188:
 610:Drivers/STM32H5xx_HAL_Driver/Src/stm32h5xx_hal_rcc.c ****       }
ARM GAS  C:\Users\sapph\AppData\Local\Temp\ccD3KfzI.s 			page 87


 2681              		.loc 1 610 16 view .LVU907
 2682 0662 0120     		movs	r0, #1
 2683 0664 00E0     		b	.L113
 2684              	.LVL177:
 2685              	.L200:
 994:Drivers/STM32H5xx_HAL_Driver/Src/stm32h5xx_hal_rcc.c **** }
 2686              		.loc 1 994 10 view .LVU908
 2687 0666 0020     		movs	r0, #0
 2688              	.LVL178:
 2689              	.L113:
 995:Drivers/STM32H5xx_HAL_Driver/Src/stm32h5xx_hal_rcc.c **** 
 2690              		.loc 1 995 1 view .LVU909
 2691 0668 F8BD     		pop	{r3, r4, r5, r6, r7, pc}
 2692              	.LVL179:
 2693              	.L204:
 964:Drivers/STM32H5xx_HAL_Driver/Src/stm32h5xx_hal_rcc.c ****       }
 2694              		.loc 1 964 16 view .LVU910
 2695 066a 0120     		movs	r0, #1
 2696              	.LVL180:
 964:Drivers/STM32H5xx_HAL_Driver/Src/stm32h5xx_hal_rcc.c ****       }
 2697              		.loc 1 964 16 view .LVU911
 2698 066c FCE7     		b	.L113
 2699              	.LVL181:
 2700              	.L205:
 964:Drivers/STM32H5xx_HAL_Driver/Src/stm32h5xx_hal_rcc.c ****       }
 2701              		.loc 1 964 16 view .LVU912
 2702 066e 0120     		movs	r0, #1
 2703              	.LVL182:
 964:Drivers/STM32H5xx_HAL_Driver/Src/stm32h5xx_hal_rcc.c ****       }
 2704              		.loc 1 964 16 view .LVU913
 2705 0670 FAE7     		b	.L113
 2706              	.LVL183:
 2707              	.L206:
 964:Drivers/STM32H5xx_HAL_Driver/Src/stm32h5xx_hal_rcc.c ****       }
 2708              		.loc 1 964 16 view .LVU914
 2709 0672 0120     		movs	r0, #1
 2710              	.LVL184:
 964:Drivers/STM32H5xx_HAL_Driver/Src/stm32h5xx_hal_rcc.c ****       }
 2711              		.loc 1 964 16 view .LVU915
 2712 0674 F8E7     		b	.L113
 2713              	.LVL185:
 2714              	.L207:
 964:Drivers/STM32H5xx_HAL_Driver/Src/stm32h5xx_hal_rcc.c ****       }
 2715              		.loc 1 964 16 view .LVU916
 2716 0676 0120     		movs	r0, #1
 2717              	.LVL186:
 964:Drivers/STM32H5xx_HAL_Driver/Src/stm32h5xx_hal_rcc.c ****       }
 2718              		.loc 1 964 16 view .LVU917
 2719 0678 F6E7     		b	.L113
 2720              	.LVL187:
 2721              	.L208:
 964:Drivers/STM32H5xx_HAL_Driver/Src/stm32h5xx_hal_rcc.c ****       }
 2722              		.loc 1 964 16 view .LVU918
 2723 067a 0120     		movs	r0, #1
 2724              	.LVL188:
 964:Drivers/STM32H5xx_HAL_Driver/Src/stm32h5xx_hal_rcc.c ****       }
 2725              		.loc 1 964 16 view .LVU919
ARM GAS  C:\Users\sapph\AppData\Local\Temp\ccD3KfzI.s 			page 88


 2726 067c F4E7     		b	.L113
 2727              	.LVL189:
 2728              	.L209:
 964:Drivers/STM32H5xx_HAL_Driver/Src/stm32h5xx_hal_rcc.c ****       }
 2729              		.loc 1 964 16 view .LVU920
 2730 067e 0120     		movs	r0, #1
 2731              	.LVL190:
 964:Drivers/STM32H5xx_HAL_Driver/Src/stm32h5xx_hal_rcc.c ****       }
 2732              		.loc 1 964 16 view .LVU921
 2733 0680 F2E7     		b	.L113
 2734              	.L210:
 2735 0682 0120     		movs	r0, #1
 2736 0684 F0E7     		b	.L113
 2737              	.L241:
 2738 0686 00BF     		.align	2
 2739              	.L240:
 2740 0688 000C0244 		.word	1140984832
 2741              		.cfi_endproc
 2742              	.LFE161:
 2744              		.section	.text.HAL_RCC_GetPCLK1Freq,"ax",%progbits
 2745              		.align	1
 2746              		.global	HAL_RCC_GetPCLK1Freq
 2747              		.syntax unified
 2748              		.thumb
 2749              		.thumb_func
 2751              	HAL_RCC_GetPCLK1Freq:
 2752              	.LFB166:
1504:Drivers/STM32H5xx_HAL_Driver/Src/stm32h5xx_hal_rcc.c **** 
1505:Drivers/STM32H5xx_HAL_Driver/Src/stm32h5xx_hal_rcc.c **** /**
1506:Drivers/STM32H5xx_HAL_Driver/Src/stm32h5xx_hal_rcc.c ****   * @brief  Return the PCLK1 frequency.
1507:Drivers/STM32H5xx_HAL_Driver/Src/stm32h5xx_hal_rcc.c ****   * @note   Each time PCLK1 changes, this function must be called to update the
1508:Drivers/STM32H5xx_HAL_Driver/Src/stm32h5xx_hal_rcc.c ****   *         right PCLK1 value. Otherwise, any configuration based on this function will be incorrec
1509:Drivers/STM32H5xx_HAL_Driver/Src/stm32h5xx_hal_rcc.c ****   * @retval PCLK1 frequency in Hz
1510:Drivers/STM32H5xx_HAL_Driver/Src/stm32h5xx_hal_rcc.c ****   */
1511:Drivers/STM32H5xx_HAL_Driver/Src/stm32h5xx_hal_rcc.c **** uint32_t HAL_RCC_GetPCLK1Freq(void)
1512:Drivers/STM32H5xx_HAL_Driver/Src/stm32h5xx_hal_rcc.c **** {
 2753              		.loc 1 1512 1 is_stmt 1 view -0
 2754              		.cfi_startproc
 2755              		@ args = 0, pretend = 0, frame = 0
 2756              		@ frame_needed = 0, uses_anonymous_args = 0
 2757 0000 08B5     		push	{r3, lr}
 2758              		.cfi_def_cfa_offset 8
 2759              		.cfi_offset 3, -8
 2760              		.cfi_offset 14, -4
1513:Drivers/STM32H5xx_HAL_Driver/Src/stm32h5xx_hal_rcc.c ****   /* Get HCLK source and Compute PCLK1 frequency ---------------------------*/
1514:Drivers/STM32H5xx_HAL_Driver/Src/stm32h5xx_hal_rcc.c ****   return (HAL_RCC_GetHCLKFreq() >> ((APBPrescTable[(RCC->CFGR2 & RCC_CFGR2_PPRE1) >> RCC_CFGR2_PPRE
 2761              		.loc 1 1514 3 view .LVU923
 2762              		.loc 1 1514 11 is_stmt 0 view .LVU924
 2763 0002 FFF7FEFF 		bl	HAL_RCC_GetHCLKFreq
 2764              	.LVL191:
 2765              		.loc 1 1514 56 discriminator 1 view .LVU925
 2766 0006 054B     		ldr	r3, .L244
 2767 0008 1B6A     		ldr	r3, [r3, #32]
 2768              		.loc 1 1514 83 discriminator 1 view .LVU926
 2769 000a C3F30213 		ubfx	r3, r3, #4, #3
 2770              		.loc 1 1514 51 discriminator 1 view .LVU927
 2771 000e 044A     		ldr	r2, .L244+4
ARM GAS  C:\Users\sapph\AppData\Local\Temp\ccD3KfzI.s 			page 89


 2772 0010 D35C     		ldrb	r3, [r2, r3]	@ zero_extendqisi2
 2773              		.loc 1 1514 108 discriminator 1 view .LVU928
 2774 0012 03F01F03 		and	r3, r3, #31
1515:Drivers/STM32H5xx_HAL_Driver/Src/stm32h5xx_hal_rcc.c **** }
 2775              		.loc 1 1515 1 view .LVU929
 2776 0016 D840     		lsrs	r0, r0, r3
 2777 0018 08BD     		pop	{r3, pc}
 2778              	.L245:
 2779 001a 00BF     		.align	2
 2780              	.L244:
 2781 001c 000C0244 		.word	1140984832
 2782 0020 00000000 		.word	APBPrescTable
 2783              		.cfi_endproc
 2784              	.LFE166:
 2786              		.section	.text.HAL_RCC_GetPCLK2Freq,"ax",%progbits
 2787              		.align	1
 2788              		.global	HAL_RCC_GetPCLK2Freq
 2789              		.syntax unified
 2790              		.thumb
 2791              		.thumb_func
 2793              	HAL_RCC_GetPCLK2Freq:
 2794              	.LFB167:
1516:Drivers/STM32H5xx_HAL_Driver/Src/stm32h5xx_hal_rcc.c **** 
1517:Drivers/STM32H5xx_HAL_Driver/Src/stm32h5xx_hal_rcc.c **** /**
1518:Drivers/STM32H5xx_HAL_Driver/Src/stm32h5xx_hal_rcc.c ****   * @brief  Return the PCLK2 frequency.
1519:Drivers/STM32H5xx_HAL_Driver/Src/stm32h5xx_hal_rcc.c ****   * @note   Each time PCLK2 changes, this function must be called to update the
1520:Drivers/STM32H5xx_HAL_Driver/Src/stm32h5xx_hal_rcc.c ****   *         right PCLK2 value. Otherwise, any configuration based on this function will be incorrec
1521:Drivers/STM32H5xx_HAL_Driver/Src/stm32h5xx_hal_rcc.c ****   * @retval PCLK2 frequency in Hz
1522:Drivers/STM32H5xx_HAL_Driver/Src/stm32h5xx_hal_rcc.c ****   */
1523:Drivers/STM32H5xx_HAL_Driver/Src/stm32h5xx_hal_rcc.c **** uint32_t HAL_RCC_GetPCLK2Freq(void)
1524:Drivers/STM32H5xx_HAL_Driver/Src/stm32h5xx_hal_rcc.c **** {
 2795              		.loc 1 1524 1 is_stmt 1 view -0
 2796              		.cfi_startproc
 2797              		@ args = 0, pretend = 0, frame = 0
 2798              		@ frame_needed = 0, uses_anonymous_args = 0
 2799 0000 08B5     		push	{r3, lr}
 2800              		.cfi_def_cfa_offset 8
 2801              		.cfi_offset 3, -8
 2802              		.cfi_offset 14, -4
1525:Drivers/STM32H5xx_HAL_Driver/Src/stm32h5xx_hal_rcc.c ****   /* Get HCLK source and Compute PCLK2 frequency ---------------------------*/
1526:Drivers/STM32H5xx_HAL_Driver/Src/stm32h5xx_hal_rcc.c ****   return (HAL_RCC_GetHCLKFreq() >> ((APBPrescTable[(RCC->CFGR2 & RCC_CFGR2_PPRE2) >> RCC_CFGR2_PPRE
 2803              		.loc 1 1526 3 view .LVU931
 2804              		.loc 1 1526 11 is_stmt 0 view .LVU932
 2805 0002 FFF7FEFF 		bl	HAL_RCC_GetHCLKFreq
 2806              	.LVL192:
 2807              		.loc 1 1526 56 discriminator 1 view .LVU933
 2808 0006 054B     		ldr	r3, .L248
 2809 0008 1B6A     		ldr	r3, [r3, #32]
 2810              		.loc 1 1526 83 discriminator 1 view .LVU934
 2811 000a C3F30223 		ubfx	r3, r3, #8, #3
 2812              		.loc 1 1526 51 discriminator 1 view .LVU935
 2813 000e 044A     		ldr	r2, .L248+4
 2814 0010 D35C     		ldrb	r3, [r2, r3]	@ zero_extendqisi2
 2815              		.loc 1 1526 108 discriminator 1 view .LVU936
 2816 0012 03F01F03 		and	r3, r3, #31
1527:Drivers/STM32H5xx_HAL_Driver/Src/stm32h5xx_hal_rcc.c **** }
 2817              		.loc 1 1527 1 view .LVU937
ARM GAS  C:\Users\sapph\AppData\Local\Temp\ccD3KfzI.s 			page 90


 2818 0016 D840     		lsrs	r0, r0, r3
 2819 0018 08BD     		pop	{r3, pc}
 2820              	.L249:
 2821 001a 00BF     		.align	2
 2822              	.L248:
 2823 001c 000C0244 		.word	1140984832
 2824 0020 00000000 		.word	APBPrescTable
 2825              		.cfi_endproc
 2826              	.LFE167:
 2828              		.section	.text.HAL_RCC_GetPCLK3Freq,"ax",%progbits
 2829              		.align	1
 2830              		.global	HAL_RCC_GetPCLK3Freq
 2831              		.syntax unified
 2832              		.thumb
 2833              		.thumb_func
 2835              	HAL_RCC_GetPCLK3Freq:
 2836              	.LFB168:
1528:Drivers/STM32H5xx_HAL_Driver/Src/stm32h5xx_hal_rcc.c **** 
1529:Drivers/STM32H5xx_HAL_Driver/Src/stm32h5xx_hal_rcc.c **** /**
1530:Drivers/STM32H5xx_HAL_Driver/Src/stm32h5xx_hal_rcc.c ****   * @brief  Return the PCLK3 frequency.
1531:Drivers/STM32H5xx_HAL_Driver/Src/stm32h5xx_hal_rcc.c ****   * @note   Each time PCLK3 changes, this function must be called to update the
1532:Drivers/STM32H5xx_HAL_Driver/Src/stm32h5xx_hal_rcc.c ****   *         right PCLK3 value. Otherwise, any configuration based on this function will be incorrec
1533:Drivers/STM32H5xx_HAL_Driver/Src/stm32h5xx_hal_rcc.c ****   * @retval PCLK3 frequency in Hz
1534:Drivers/STM32H5xx_HAL_Driver/Src/stm32h5xx_hal_rcc.c ****   */
1535:Drivers/STM32H5xx_HAL_Driver/Src/stm32h5xx_hal_rcc.c **** uint32_t HAL_RCC_GetPCLK3Freq(void)
1536:Drivers/STM32H5xx_HAL_Driver/Src/stm32h5xx_hal_rcc.c **** {
 2837              		.loc 1 1536 1 is_stmt 1 view -0
 2838              		.cfi_startproc
 2839              		@ args = 0, pretend = 0, frame = 0
 2840              		@ frame_needed = 0, uses_anonymous_args = 0
 2841 0000 08B5     		push	{r3, lr}
 2842              		.cfi_def_cfa_offset 8
 2843              		.cfi_offset 3, -8
 2844              		.cfi_offset 14, -4
1537:Drivers/STM32H5xx_HAL_Driver/Src/stm32h5xx_hal_rcc.c ****   /* Get HCLK source and Compute PCLK3 frequency ---------------------------*/
1538:Drivers/STM32H5xx_HAL_Driver/Src/stm32h5xx_hal_rcc.c ****   return (HAL_RCC_GetHCLKFreq() >> ((APBPrescTable[(RCC->CFGR2 & RCC_CFGR2_PPRE3) >> RCC_CFGR2_PPRE
 2845              		.loc 1 1538 3 view .LVU939
 2846              		.loc 1 1538 11 is_stmt 0 view .LVU940
 2847 0002 FFF7FEFF 		bl	HAL_RCC_GetHCLKFreq
 2848              	.LVL193:
 2849              		.loc 1 1538 56 discriminator 1 view .LVU941
 2850 0006 054B     		ldr	r3, .L252
 2851 0008 1B6A     		ldr	r3, [r3, #32]
 2852              		.loc 1 1538 83 discriminator 1 view .LVU942
 2853 000a C3F30233 		ubfx	r3, r3, #12, #3
 2854              		.loc 1 1538 51 discriminator 1 view .LVU943
 2855 000e 044A     		ldr	r2, .L252+4
 2856 0010 D35C     		ldrb	r3, [r2, r3]	@ zero_extendqisi2
 2857              		.loc 1 1538 108 discriminator 1 view .LVU944
 2858 0012 03F01F03 		and	r3, r3, #31
1539:Drivers/STM32H5xx_HAL_Driver/Src/stm32h5xx_hal_rcc.c **** }
 2859              		.loc 1 1539 1 view .LVU945
 2860 0016 D840     		lsrs	r0, r0, r3
 2861 0018 08BD     		pop	{r3, pc}
 2862              	.L253:
 2863 001a 00BF     		.align	2
 2864              	.L252:
ARM GAS  C:\Users\sapph\AppData\Local\Temp\ccD3KfzI.s 			page 91


 2865 001c 000C0244 		.word	1140984832
 2866 0020 00000000 		.word	APBPrescTable
 2867              		.cfi_endproc
 2868              	.LFE168:
 2870              		.section	.text.HAL_RCC_GetOscConfig,"ax",%progbits
 2871              		.align	1
 2872              		.global	HAL_RCC_GetOscConfig
 2873              		.syntax unified
 2874              		.thumb
 2875              		.thumb_func
 2877              	HAL_RCC_GetOscConfig:
 2878              	.LVL194:
 2879              	.LFB169:
1540:Drivers/STM32H5xx_HAL_Driver/Src/stm32h5xx_hal_rcc.c **** /**
1541:Drivers/STM32H5xx_HAL_Driver/Src/stm32h5xx_hal_rcc.c ****   * @brief  Configure the pOscInitStruct according to the internal
1542:Drivers/STM32H5xx_HAL_Driver/Src/stm32h5xx_hal_rcc.c ****   *         RCC configuration registers.
1543:Drivers/STM32H5xx_HAL_Driver/Src/stm32h5xx_hal_rcc.c ****   * @param  pOscInitStruct  pointer to an RCC_OscInitTypeDef structure that
1544:Drivers/STM32H5xx_HAL_Driver/Src/stm32h5xx_hal_rcc.c ****   *         will be configured.
1545:Drivers/STM32H5xx_HAL_Driver/Src/stm32h5xx_hal_rcc.c ****   * @retval None
1546:Drivers/STM32H5xx_HAL_Driver/Src/stm32h5xx_hal_rcc.c ****   */
1547:Drivers/STM32H5xx_HAL_Driver/Src/stm32h5xx_hal_rcc.c **** void HAL_RCC_GetOscConfig(RCC_OscInitTypeDef  *pOscInitStruct)
1548:Drivers/STM32H5xx_HAL_Driver/Src/stm32h5xx_hal_rcc.c **** {
 2880              		.loc 1 1548 1 is_stmt 1 view -0
 2881              		.cfi_startproc
 2882              		@ args = 0, pretend = 0, frame = 0
 2883              		@ frame_needed = 0, uses_anonymous_args = 0
 2884              		@ link register save eliminated.
 2885              		.loc 1 1548 1 is_stmt 0 view .LVU947
 2886 0000 10B4     		push	{r4}
 2887              		.cfi_def_cfa_offset 4
 2888              		.cfi_offset 4, -4
1549:Drivers/STM32H5xx_HAL_Driver/Src/stm32h5xx_hal_rcc.c ****   uint32_t regval;
 2889              		.loc 1 1549 3 is_stmt 1 view .LVU948
1550:Drivers/STM32H5xx_HAL_Driver/Src/stm32h5xx_hal_rcc.c ****   uint32_t reg1val;
 2890              		.loc 1 1550 3 view .LVU949
1551:Drivers/STM32H5xx_HAL_Driver/Src/stm32h5xx_hal_rcc.c ****   uint32_t reg2val;
 2891              		.loc 1 1551 3 view .LVU950
1552:Drivers/STM32H5xx_HAL_Driver/Src/stm32h5xx_hal_rcc.c **** 
1553:Drivers/STM32H5xx_HAL_Driver/Src/stm32h5xx_hal_rcc.c ****   /* Check the parameters */
1554:Drivers/STM32H5xx_HAL_Driver/Src/stm32h5xx_hal_rcc.c ****   assert_param(pOscInitStruct != (void *)NULL);
 2892              		.loc 1 1554 3 view .LVU951
1555:Drivers/STM32H5xx_HAL_Driver/Src/stm32h5xx_hal_rcc.c **** 
1556:Drivers/STM32H5xx_HAL_Driver/Src/stm32h5xx_hal_rcc.c ****   /* Set all possible values for the Oscillator type parameter ---------------*/
1557:Drivers/STM32H5xx_HAL_Driver/Src/stm32h5xx_hal_rcc.c ****   pOscInitStruct->OscillatorType = RCC_OSCILLATORTYPE_HSE | RCC_OSCILLATORTYPE_HSI | RCC_OSCILLATOR
 2893              		.loc 1 1557 3 view .LVU952
 2894              		.loc 1 1557 34 is_stmt 0 view .LVU953
 2895 0002 3F23     		movs	r3, #63
 2896 0004 0360     		str	r3, [r0]
1558:Drivers/STM32H5xx_HAL_Driver/Src/stm32h5xx_hal_rcc.c ****                                    RCC_OSCILLATORTYPE_LSE | RCC_OSCILLATORTYPE_LSI | RCC_OSCILLATOR
1559:Drivers/STM32H5xx_HAL_Driver/Src/stm32h5xx_hal_rcc.c **** 
1560:Drivers/STM32H5xx_HAL_Driver/Src/stm32h5xx_hal_rcc.c ****   /* Get Control register */
1561:Drivers/STM32H5xx_HAL_Driver/Src/stm32h5xx_hal_rcc.c ****   regval = RCC->CR;
 2897              		.loc 1 1561 3 is_stmt 1 view .LVU954
 2898              		.loc 1 1561 10 is_stmt 0 view .LVU955
 2899 0006 264A     		ldr	r2, .L258
 2900 0008 1368     		ldr	r3, [r2]
 2901              	.LVL195:
ARM GAS  C:\Users\sapph\AppData\Local\Temp\ccD3KfzI.s 			page 92


1562:Drivers/STM32H5xx_HAL_Driver/Src/stm32h5xx_hal_rcc.c **** 
1563:Drivers/STM32H5xx_HAL_Driver/Src/stm32h5xx_hal_rcc.c ****   /* Get the HSE configuration -----------------------------------------------*/
1564:Drivers/STM32H5xx_HAL_Driver/Src/stm32h5xx_hal_rcc.c ****   pOscInitStruct->HSEState = (regval & (RCC_CR_HSEON | RCC_CR_HSEBYP | RCC_CR_HSEEXT));
 2902              		.loc 1 1564 3 is_stmt 1 view .LVU956
 2903              		.loc 1 1564 38 is_stmt 0 view .LVU957
 2904 000a 03F4A811 		and	r1, r3, #1376256
 2905              		.loc 1 1564 28 view .LVU958
 2906 000e 4160     		str	r1, [r0, #4]
1565:Drivers/STM32H5xx_HAL_Driver/Src/stm32h5xx_hal_rcc.c **** 
1566:Drivers/STM32H5xx_HAL_Driver/Src/stm32h5xx_hal_rcc.c ****   /* Get the CSI configuration -----------------------------------------------*/
1567:Drivers/STM32H5xx_HAL_Driver/Src/stm32h5xx_hal_rcc.c ****   pOscInitStruct->CSIState = regval & RCC_CR_CSION;
 2907              		.loc 1 1567 3 is_stmt 1 view .LVU959
 2908              		.loc 1 1567 37 is_stmt 0 view .LVU960
 2909 0010 03F48071 		and	r1, r3, #256
 2910              		.loc 1 1567 28 view .LVU961
 2911 0014 C161     		str	r1, [r0, #28]
1568:Drivers/STM32H5xx_HAL_Driver/Src/stm32h5xx_hal_rcc.c **** 
1569:Drivers/STM32H5xx_HAL_Driver/Src/stm32h5xx_hal_rcc.c ****   /* Get the HSI configuration -----------------------------------------------*/
1570:Drivers/STM32H5xx_HAL_Driver/Src/stm32h5xx_hal_rcc.c ****   pOscInitStruct->HSIState = regval & RCC_CR_HSION;
 2912              		.loc 1 1570 3 is_stmt 1 view .LVU962
 2913              		.loc 1 1570 37 is_stmt 0 view .LVU963
 2914 0016 03F00101 		and	r1, r3, #1
 2915              		.loc 1 1570 28 view .LVU964
 2916 001a C160     		str	r1, [r0, #12]
1571:Drivers/STM32H5xx_HAL_Driver/Src/stm32h5xx_hal_rcc.c ****   pOscInitStruct->HSIDiv = regval & RCC_CR_HSIDIV;
 2917              		.loc 1 1571 3 is_stmt 1 view .LVU965
 2918              		.loc 1 1571 35 is_stmt 0 view .LVU966
 2919 001c 03F01803 		and	r3, r3, #24
 2920              	.LVL196:
 2921              		.loc 1 1571 26 view .LVU967
 2922 0020 0361     		str	r3, [r0, #16]
1572:Drivers/STM32H5xx_HAL_Driver/Src/stm32h5xx_hal_rcc.c ****   pOscInitStruct->HSICalibrationValue = (uint32_t)(READ_BIT(RCC->HSICFGR, \
 2923              		.loc 1 1572 3 is_stmt 1 view .LVU968
 2924              		.loc 1 1572 52 is_stmt 0 view .LVU969
 2925 0022 1369     		ldr	r3, [r2, #16]
 2926              		.loc 1 1572 41 view .LVU970
 2927 0024 C3F30643 		ubfx	r3, r3, #16, #7
 2928              		.loc 1 1572 39 view .LVU971
 2929 0028 4361     		str	r3, [r0, #20]
1573:Drivers/STM32H5xx_HAL_Driver/Src/stm32h5xx_hal_rcc.c ****                                                             RCC_HSICFGR_HSITRIM) >> RCC_HSICFGR_HSI
1574:Drivers/STM32H5xx_HAL_Driver/Src/stm32h5xx_hal_rcc.c **** 
1575:Drivers/STM32H5xx_HAL_Driver/Src/stm32h5xx_hal_rcc.c ****   /* Get BDCR register */
1576:Drivers/STM32H5xx_HAL_Driver/Src/stm32h5xx_hal_rcc.c ****   regval = RCC->BDCR;
 2930              		.loc 1 1576 3 is_stmt 1 view .LVU972
 2931              		.loc 1 1576 10 is_stmt 0 view .LVU973
 2932 002a D2F8F030 		ldr	r3, [r2, #240]
 2933              	.LVL197:
1577:Drivers/STM32H5xx_HAL_Driver/Src/stm32h5xx_hal_rcc.c **** 
1578:Drivers/STM32H5xx_HAL_Driver/Src/stm32h5xx_hal_rcc.c ****   /* Get the LSE configuration -----------------------------------------------*/
1579:Drivers/STM32H5xx_HAL_Driver/Src/stm32h5xx_hal_rcc.c ****   pOscInitStruct->LSEState = (regval & (RCC_BDCR_LSEON | RCC_BDCR_LSEBYP | RCC_BDCR_LSEEXT));
 2934              		.loc 1 1579 3 is_stmt 1 view .LVU974
 2935              		.loc 1 1579 38 is_stmt 0 view .LVU975
 2936 002e 03F08501 		and	r1, r3, #133
 2937              		.loc 1 1579 28 view .LVU976
 2938 0032 8160     		str	r1, [r0, #8]
1580:Drivers/STM32H5xx_HAL_Driver/Src/stm32h5xx_hal_rcc.c **** 
1581:Drivers/STM32H5xx_HAL_Driver/Src/stm32h5xx_hal_rcc.c ****   /* Get the LSI configuration -----------------------------------------------*/
ARM GAS  C:\Users\sapph\AppData\Local\Temp\ccD3KfzI.s 			page 93


1582:Drivers/STM32H5xx_HAL_Driver/Src/stm32h5xx_hal_rcc.c ****   pOscInitStruct->LSIState = regval & RCC_BDCR_LSION;
 2939              		.loc 1 1582 3 is_stmt 1 view .LVU977
 2940              		.loc 1 1582 37 is_stmt 0 view .LVU978
 2941 0034 03F08063 		and	r3, r3, #67108864
 2942              	.LVL198:
 2943              		.loc 1 1582 28 view .LVU979
 2944 0038 8361     		str	r3, [r0, #24]
1583:Drivers/STM32H5xx_HAL_Driver/Src/stm32h5xx_hal_rcc.c **** 
1584:Drivers/STM32H5xx_HAL_Driver/Src/stm32h5xx_hal_rcc.c ****   /* Get Control register */
1585:Drivers/STM32H5xx_HAL_Driver/Src/stm32h5xx_hal_rcc.c ****   regval = RCC->CR;
 2945              		.loc 1 1585 3 is_stmt 1 view .LVU980
 2946              		.loc 1 1585 10 is_stmt 0 view .LVU981
 2947 003a 1368     		ldr	r3, [r2]
 2948              	.LVL199:
1586:Drivers/STM32H5xx_HAL_Driver/Src/stm32h5xx_hal_rcc.c **** 
1587:Drivers/STM32H5xx_HAL_Driver/Src/stm32h5xx_hal_rcc.c ****   /* Get the HSI48 configuration ---------------------------------------------*/
1588:Drivers/STM32H5xx_HAL_Driver/Src/stm32h5xx_hal_rcc.c ****   pOscInitStruct->HSI48State = regval & RCC_CR_HSI48ON;
 2949              		.loc 1 1588 3 is_stmt 1 view .LVU982
 2950              		.loc 1 1588 39 is_stmt 0 view .LVU983
 2951 003c 03F48052 		and	r2, r3, #4096
 2952              		.loc 1 1588 30 view .LVU984
 2953 0040 4262     		str	r2, [r0, #36]
1589:Drivers/STM32H5xx_HAL_Driver/Src/stm32h5xx_hal_rcc.c **** 
1590:Drivers/STM32H5xx_HAL_Driver/Src/stm32h5xx_hal_rcc.c ****   /* Get the PLL configuration -----------------------------------------------*/
1591:Drivers/STM32H5xx_HAL_Driver/Src/stm32h5xx_hal_rcc.c ****   if ((regval & RCC_CR_PLL1ON) == RCC_CR_PLL1ON)
 2954              		.loc 1 1591 3 is_stmt 1 view .LVU985
 2955              		.loc 1 1591 6 is_stmt 0 view .LVU986
 2956 0042 13F0807F 		tst	r3, #16777216
 2957 0046 27D0     		beq	.L255
1592:Drivers/STM32H5xx_HAL_Driver/Src/stm32h5xx_hal_rcc.c ****   {
1593:Drivers/STM32H5xx_HAL_Driver/Src/stm32h5xx_hal_rcc.c ****     pOscInitStruct->PLL.PLLState = RCC_PLL_ON;
 2958              		.loc 1 1593 5 is_stmt 1 view .LVU987
 2959              		.loc 1 1593 34 is_stmt 0 view .LVU988
 2960 0048 0223     		movs	r3, #2
 2961              	.LVL200:
 2962              		.loc 1 1593 34 view .LVU989
 2963 004a 8362     		str	r3, [r0, #40]
 2964              	.L256:
1594:Drivers/STM32H5xx_HAL_Driver/Src/stm32h5xx_hal_rcc.c ****   }
1595:Drivers/STM32H5xx_HAL_Driver/Src/stm32h5xx_hal_rcc.c ****   else
1596:Drivers/STM32H5xx_HAL_Driver/Src/stm32h5xx_hal_rcc.c ****   {
1597:Drivers/STM32H5xx_HAL_Driver/Src/stm32h5xx_hal_rcc.c ****     pOscInitStruct->PLL.PLLState = RCC_PLL_OFF;
1598:Drivers/STM32H5xx_HAL_Driver/Src/stm32h5xx_hal_rcc.c ****   }
1599:Drivers/STM32H5xx_HAL_Driver/Src/stm32h5xx_hal_rcc.c **** 
1600:Drivers/STM32H5xx_HAL_Driver/Src/stm32h5xx_hal_rcc.c ****   /* Get PLL configuration register */
1601:Drivers/STM32H5xx_HAL_Driver/Src/stm32h5xx_hal_rcc.c ****   reg1val = RCC->PLL1CFGR;
 2965              		.loc 1 1601 3 is_stmt 1 view .LVU990
 2966              		.loc 1 1601 11 is_stmt 0 view .LVU991
 2967 004c 1449     		ldr	r1, .L258
 2968 004e 8A6A     		ldr	r2, [r1, #40]
 2969              	.LVL201:
1602:Drivers/STM32H5xx_HAL_Driver/Src/stm32h5xx_hal_rcc.c ****   reg2val = RCC->PLL1DIVR;
 2970              		.loc 1 1602 3 is_stmt 1 view .LVU992
 2971              		.loc 1 1602 11 is_stmt 0 view .LVU993
 2972 0050 4B6B     		ldr	r3, [r1, #52]
 2973              	.LVL202:
1603:Drivers/STM32H5xx_HAL_Driver/Src/stm32h5xx_hal_rcc.c **** 
ARM GAS  C:\Users\sapph\AppData\Local\Temp\ccD3KfzI.s 			page 94


1604:Drivers/STM32H5xx_HAL_Driver/Src/stm32h5xx_hal_rcc.c ****   pOscInitStruct->PLL.PLLSource = (uint32_t)(reg1val & RCC_PLL1CFGR_PLL1SRC);
 2974              		.loc 1 1604 3 is_stmt 1 view .LVU994
 2975              		.loc 1 1604 35 is_stmt 0 view .LVU995
 2976 0052 02F00304 		and	r4, r2, #3
 2977              		.loc 1 1604 33 view .LVU996
 2978 0056 C462     		str	r4, [r0, #44]
1605:Drivers/STM32H5xx_HAL_Driver/Src/stm32h5xx_hal_rcc.c ****   pOscInitStruct->PLL.PLLM = (uint32_t)((reg1val & RCC_PLL1CFGR_PLL1M) >> RCC_PLL1CFGR_PLL1M_Pos);
 2979              		.loc 1 1605 3 is_stmt 1 view .LVU997
 2980              		.loc 1 1605 30 is_stmt 0 view .LVU998
 2981 0058 C2F30524 		ubfx	r4, r2, #8, #6
 2982              		.loc 1 1605 28 view .LVU999
 2983 005c 0463     		str	r4, [r0, #48]
1606:Drivers/STM32H5xx_HAL_Driver/Src/stm32h5xx_hal_rcc.c ****   pOscInitStruct->PLL.PLLN = (uint32_t)(((reg2val & RCC_PLL1DIVR_PLL1N) >> RCC_PLL1DIVR_PLL1N_Pos) 
 2984              		.loc 1 1606 3 is_stmt 1 view .LVU1000
 2985              		.loc 1 1606 73 is_stmt 0 view .LVU1001
 2986 005e C3F30804 		ubfx	r4, r3, #0, #9
 2987              		.loc 1 1606 30 view .LVU1002
 2988 0062 0134     		adds	r4, r4, #1
 2989              		.loc 1 1606 28 view .LVU1003
 2990 0064 4463     		str	r4, [r0, #52]
1607:Drivers/STM32H5xx_HAL_Driver/Src/stm32h5xx_hal_rcc.c ****   pOscInitStruct->PLL.PLLQ = (uint32_t)(((reg2val & RCC_PLL1DIVR_PLL1Q) >> RCC_PLL1DIVR_PLL1Q_Pos) 
 2991              		.loc 1 1607 3 is_stmt 1 view .LVU1004
 2992              		.loc 1 1607 73 is_stmt 0 view .LVU1005
 2993 0066 C3F30644 		ubfx	r4, r3, #16, #7
 2994              		.loc 1 1607 30 view .LVU1006
 2995 006a 0134     		adds	r4, r4, #1
 2996              		.loc 1 1607 28 view .LVU1007
 2997 006c C463     		str	r4, [r0, #60]
1608:Drivers/STM32H5xx_HAL_Driver/Src/stm32h5xx_hal_rcc.c ****   pOscInitStruct->PLL.PLLR = (uint32_t)(((reg2val & RCC_PLL1DIVR_PLL1R) >> RCC_PLL1DIVR_PLL1R_Pos) 
 2998              		.loc 1 1608 3 is_stmt 1 view .LVU1008
 2999              		.loc 1 1608 73 is_stmt 0 view .LVU1009
 3000 006e C3F30664 		ubfx	r4, r3, #24, #7
 3001              		.loc 1 1608 30 view .LVU1010
 3002 0072 0134     		adds	r4, r4, #1
 3003              		.loc 1 1608 28 view .LVU1011
 3004 0074 0464     		str	r4, [r0, #64]
1609:Drivers/STM32H5xx_HAL_Driver/Src/stm32h5xx_hal_rcc.c ****   pOscInitStruct->PLL.PLLP = (uint32_t)(((reg2val & RCC_PLL1DIVR_PLL1P) >> RCC_PLL1DIVR_PLL1P_Pos) 
 3005              		.loc 1 1609 3 is_stmt 1 view .LVU1012
 3006              		.loc 1 1609 73 is_stmt 0 view .LVU1013
 3007 0076 C3F34623 		ubfx	r3, r3, #9, #7
 3008              	.LVL203:
 3009              		.loc 1 1609 30 view .LVU1014
 3010 007a 0133     		adds	r3, r3, #1
 3011              		.loc 1 1609 28 view .LVU1015
 3012 007c 8363     		str	r3, [r0, #56]
1610:Drivers/STM32H5xx_HAL_Driver/Src/stm32h5xx_hal_rcc.c ****   pOscInitStruct->PLL.PLLRGE = (uint32_t)((reg1val & RCC_PLL1CFGR_PLL1RGE));
 3013              		.loc 1 1610 3 is_stmt 1 view .LVU1016
 3014              		.loc 1 1610 32 is_stmt 0 view .LVU1017
 3015 007e 02F00C03 		and	r3, r2, #12
 3016              		.loc 1 1610 30 view .LVU1018
 3017 0082 4364     		str	r3, [r0, #68]
1611:Drivers/STM32H5xx_HAL_Driver/Src/stm32h5xx_hal_rcc.c ****   pOscInitStruct->PLL.PLLVCOSEL = (uint32_t)((reg1val & RCC_PLL1CFGR_PLL1VCOSEL) >> RCC_PLL1CFGR_PL
 3018              		.loc 1 1611 3 is_stmt 1 view .LVU1019
 3019              		.loc 1 1611 35 is_stmt 0 view .LVU1020
 3020 0084 C2F34012 		ubfx	r2, r2, #5, #1
 3021              	.LVL204:
 3022              		.loc 1 1611 33 view .LVU1021
ARM GAS  C:\Users\sapph\AppData\Local\Temp\ccD3KfzI.s 			page 95


 3023 0088 8264     		str	r2, [r0, #72]
1612:Drivers/STM32H5xx_HAL_Driver/Src/stm32h5xx_hal_rcc.c ****   pOscInitStruct->PLL.PLLFRACN = (uint32_t)(((RCC->PLL1FRACR & RCC_PLL1FRACR_PLL1FRACN) \
 3024              		.loc 1 1612 3 is_stmt 1 view .LVU1022
 3025              		.loc 1 1612 50 is_stmt 0 view .LVU1023
 3026 008a 8B6B     		ldr	r3, [r1, #56]
 3027              		.loc 1 1612 34 view .LVU1024
 3028 008c C3F3CC03 		ubfx	r3, r3, #3, #13
 3029              		.loc 1 1612 32 view .LVU1025
 3030 0090 C364     		str	r3, [r0, #76]
1613:Drivers/STM32H5xx_HAL_Driver/Src/stm32h5xx_hal_rcc.c ****                                              >> RCC_PLL1FRACR_PLL1FRACN_Pos));
1614:Drivers/STM32H5xx_HAL_Driver/Src/stm32h5xx_hal_rcc.c **** }
 3031              		.loc 1 1614 1 view .LVU1026
 3032 0092 5DF8044B 		ldr	r4, [sp], #4
 3033              		.cfi_remember_state
 3034              		.cfi_restore 4
 3035              		.cfi_def_cfa_offset 0
 3036 0096 7047     		bx	lr
 3037              	.LVL205:
 3038              	.L255:
 3039              		.cfi_restore_state
1597:Drivers/STM32H5xx_HAL_Driver/Src/stm32h5xx_hal_rcc.c ****   }
 3040              		.loc 1 1597 5 is_stmt 1 view .LVU1027
1597:Drivers/STM32H5xx_HAL_Driver/Src/stm32h5xx_hal_rcc.c ****   }
 3041              		.loc 1 1597 34 is_stmt 0 view .LVU1028
 3042 0098 0123     		movs	r3, #1
 3043              	.LVL206:
1597:Drivers/STM32H5xx_HAL_Driver/Src/stm32h5xx_hal_rcc.c ****   }
 3044              		.loc 1 1597 34 view .LVU1029
 3045 009a 8362     		str	r3, [r0, #40]
 3046 009c D6E7     		b	.L256
 3047              	.L259:
 3048 009e 00BF     		.align	2
 3049              	.L258:
 3050 00a0 000C0244 		.word	1140984832
 3051              		.cfi_endproc
 3052              	.LFE169:
 3054              		.section	.text.HAL_RCC_GetClockConfig,"ax",%progbits
 3055              		.align	1
 3056              		.global	HAL_RCC_GetClockConfig
 3057              		.syntax unified
 3058              		.thumb
 3059              		.thumb_func
 3061              	HAL_RCC_GetClockConfig:
 3062              	.LVL207:
 3063              	.LFB170:
1615:Drivers/STM32H5xx_HAL_Driver/Src/stm32h5xx_hal_rcc.c **** 
1616:Drivers/STM32H5xx_HAL_Driver/Src/stm32h5xx_hal_rcc.c **** /**
1617:Drivers/STM32H5xx_HAL_Driver/Src/stm32h5xx_hal_rcc.c ****   * @brief  Configure the pClkInitStruct according to the internal
1618:Drivers/STM32H5xx_HAL_Driver/Src/stm32h5xx_hal_rcc.c ****   *         RCC configuration registers.
1619:Drivers/STM32H5xx_HAL_Driver/Src/stm32h5xx_hal_rcc.c ****   * @param  pClkInitStruct  pointer to an RCC_ClkInitTypeDef structure that
1620:Drivers/STM32H5xx_HAL_Driver/Src/stm32h5xx_hal_rcc.c ****   *         will be configured.
1621:Drivers/STM32H5xx_HAL_Driver/Src/stm32h5xx_hal_rcc.c ****   * @param  pFLatency  Pointer on the Flash Latency.
1622:Drivers/STM32H5xx_HAL_Driver/Src/stm32h5xx_hal_rcc.c ****   * @retval None
1623:Drivers/STM32H5xx_HAL_Driver/Src/stm32h5xx_hal_rcc.c ****   */
1624:Drivers/STM32H5xx_HAL_Driver/Src/stm32h5xx_hal_rcc.c **** void HAL_RCC_GetClockConfig(RCC_ClkInitTypeDef  *pClkInitStruct, uint32_t *pFLatency)
1625:Drivers/STM32H5xx_HAL_Driver/Src/stm32h5xx_hal_rcc.c **** {
 3064              		.loc 1 1625 1 is_stmt 1 view -0
ARM GAS  C:\Users\sapph\AppData\Local\Temp\ccD3KfzI.s 			page 96


 3065              		.cfi_startproc
 3066              		@ args = 0, pretend = 0, frame = 0
 3067              		@ frame_needed = 0, uses_anonymous_args = 0
 3068              		@ link register save eliminated.
1626:Drivers/STM32H5xx_HAL_Driver/Src/stm32h5xx_hal_rcc.c ****   uint32_t regval;
 3069              		.loc 1 1626 3 view .LVU1031
1627:Drivers/STM32H5xx_HAL_Driver/Src/stm32h5xx_hal_rcc.c **** 
1628:Drivers/STM32H5xx_HAL_Driver/Src/stm32h5xx_hal_rcc.c ****   /* Check the parameters */
1629:Drivers/STM32H5xx_HAL_Driver/Src/stm32h5xx_hal_rcc.c ****   assert_param(pClkInitStruct != (void *)NULL);
 3070              		.loc 1 1629 3 view .LVU1032
1630:Drivers/STM32H5xx_HAL_Driver/Src/stm32h5xx_hal_rcc.c ****   assert_param(pFLatency != (void *)NULL);
 3071              		.loc 1 1630 3 view .LVU1033
1631:Drivers/STM32H5xx_HAL_Driver/Src/stm32h5xx_hal_rcc.c **** 
1632:Drivers/STM32H5xx_HAL_Driver/Src/stm32h5xx_hal_rcc.c ****   /* Set all possible values for the Clock type parameter --------------------*/
1633:Drivers/STM32H5xx_HAL_Driver/Src/stm32h5xx_hal_rcc.c ****   pClkInitStruct->ClockType = RCC_CLOCKTYPE_SYSCLK | RCC_CLOCKTYPE_HCLK | RCC_CLOCKTYPE_PCLK1 | RCC
 3072              		.loc 1 1633 3 view .LVU1034
 3073              		.loc 1 1633 29 is_stmt 0 view .LVU1035
 3074 0000 1F23     		movs	r3, #31
 3075 0002 0360     		str	r3, [r0]
1634:Drivers/STM32H5xx_HAL_Driver/Src/stm32h5xx_hal_rcc.c ****                               RCC_CLOCKTYPE_PCLK3;
1635:Drivers/STM32H5xx_HAL_Driver/Src/stm32h5xx_hal_rcc.c **** 
1636:Drivers/STM32H5xx_HAL_Driver/Src/stm32h5xx_hal_rcc.c ****   /* Get the SYSCLK configuration --------------------------------------------*/
1637:Drivers/STM32H5xx_HAL_Driver/Src/stm32h5xx_hal_rcc.c ****   pClkInitStruct->SYSCLKSource = (uint32_t)(RCC->CFGR1 & RCC_CFGR1_SW);
 3076              		.loc 1 1637 3 is_stmt 1 view .LVU1036
 3077              		.loc 1 1637 48 is_stmt 0 view .LVU1037
 3078 0004 0C4A     		ldr	r2, .L261
 3079 0006 D369     		ldr	r3, [r2, #28]
 3080              		.loc 1 1637 34 view .LVU1038
 3081 0008 03F00303 		and	r3, r3, #3
 3082              		.loc 1 1637 32 view .LVU1039
 3083 000c 4360     		str	r3, [r0, #4]
1638:Drivers/STM32H5xx_HAL_Driver/Src/stm32h5xx_hal_rcc.c **** 
1639:Drivers/STM32H5xx_HAL_Driver/Src/stm32h5xx_hal_rcc.c ****   /* Get the HCLK configuration ----------------------------------------------*/
1640:Drivers/STM32H5xx_HAL_Driver/Src/stm32h5xx_hal_rcc.c ****   regval = RCC->CFGR2;
 3084              		.loc 1 1640 3 is_stmt 1 view .LVU1040
 3085              		.loc 1 1640 10 is_stmt 0 view .LVU1041
 3086 000e 136A     		ldr	r3, [r2, #32]
 3087              	.LVL208:
1641:Drivers/STM32H5xx_HAL_Driver/Src/stm32h5xx_hal_rcc.c ****   pClkInitStruct->AHBCLKDivider = (uint32_t)(regval & RCC_CFGR2_HPRE);
 3088              		.loc 1 1641 3 is_stmt 1 view .LVU1042
 3089              		.loc 1 1641 35 is_stmt 0 view .LVU1043
 3090 0010 03F00F02 		and	r2, r3, #15
 3091              		.loc 1 1641 33 view .LVU1044
 3092 0014 8260     		str	r2, [r0, #8]
1642:Drivers/STM32H5xx_HAL_Driver/Src/stm32h5xx_hal_rcc.c **** 
1643:Drivers/STM32H5xx_HAL_Driver/Src/stm32h5xx_hal_rcc.c ****   /* Get the APB1 configuration ----------------------------------------------*/
1644:Drivers/STM32H5xx_HAL_Driver/Src/stm32h5xx_hal_rcc.c ****   pClkInitStruct->APB1CLKDivider = (uint32_t)(regval & RCC_CFGR2_PPRE1);
 3093              		.loc 1 1644 3 is_stmt 1 view .LVU1045
 3094              		.loc 1 1644 36 is_stmt 0 view .LVU1046
 3095 0016 03F07002 		and	r2, r3, #112
 3096              		.loc 1 1644 34 view .LVU1047
 3097 001a C260     		str	r2, [r0, #12]
1645:Drivers/STM32H5xx_HAL_Driver/Src/stm32h5xx_hal_rcc.c **** 
1646:Drivers/STM32H5xx_HAL_Driver/Src/stm32h5xx_hal_rcc.c ****   /* Get the APB2 configuration ----------------------------------------------*/
1647:Drivers/STM32H5xx_HAL_Driver/Src/stm32h5xx_hal_rcc.c ****   pClkInitStruct->APB2CLKDivider = (uint32_t)((regval & RCC_CFGR2_PPRE2) >> 4);
 3098              		.loc 1 1647 3 is_stmt 1 view .LVU1048
 3099              		.loc 1 1647 36 is_stmt 0 view .LVU1049
ARM GAS  C:\Users\sapph\AppData\Local\Temp\ccD3KfzI.s 			page 97


 3100 001c 1A09     		lsrs	r2, r3, #4
 3101 001e 02F07002 		and	r2, r2, #112
 3102              		.loc 1 1647 34 view .LVU1050
 3103 0022 0261     		str	r2, [r0, #16]
1648:Drivers/STM32H5xx_HAL_Driver/Src/stm32h5xx_hal_rcc.c **** 
1649:Drivers/STM32H5xx_HAL_Driver/Src/stm32h5xx_hal_rcc.c ****   /* Get the APB3 configuration ----------------------------------------------*/
1650:Drivers/STM32H5xx_HAL_Driver/Src/stm32h5xx_hal_rcc.c ****   pClkInitStruct->APB3CLKDivider = (uint32_t)((regval & RCC_CFGR2_PPRE3) >> 8);
 3104              		.loc 1 1650 3 is_stmt 1 view .LVU1051
 3105              		.loc 1 1650 36 is_stmt 0 view .LVU1052
 3106 0024 1B0A     		lsrs	r3, r3, #8
 3107              	.LVL209:
 3108              		.loc 1 1650 36 view .LVU1053
 3109 0026 03F07003 		and	r3, r3, #112
 3110              		.loc 1 1650 34 view .LVU1054
 3111 002a 4361     		str	r3, [r0, #20]
1651:Drivers/STM32H5xx_HAL_Driver/Src/stm32h5xx_hal_rcc.c **** 
1652:Drivers/STM32H5xx_HAL_Driver/Src/stm32h5xx_hal_rcc.c ****   /* Get the Flash Wait State (Latency) configuration ------------------------*/
1653:Drivers/STM32H5xx_HAL_Driver/Src/stm32h5xx_hal_rcc.c ****   *pFLatency = (uint32_t)(FLASH->ACR & FLASH_ACR_LATENCY);
 3112              		.loc 1 1653 3 is_stmt 1 view .LVU1055
 3113              		.loc 1 1653 32 is_stmt 0 view .LVU1056
 3114 002c 034B     		ldr	r3, .L261+4
 3115 002e 1B68     		ldr	r3, [r3]
 3116              		.loc 1 1653 16 view .LVU1057
 3117 0030 03F00F03 		and	r3, r3, #15
 3118              		.loc 1 1653 14 view .LVU1058
 3119 0034 0B60     		str	r3, [r1]
1654:Drivers/STM32H5xx_HAL_Driver/Src/stm32h5xx_hal_rcc.c **** }
 3120              		.loc 1 1654 1 view .LVU1059
 3121 0036 7047     		bx	lr
 3122              	.L262:
 3123              		.align	2
 3124              	.L261:
 3125 0038 000C0244 		.word	1140984832
 3126 003c 00200240 		.word	1073881088
 3127              		.cfi_endproc
 3128              	.LFE170:
 3130              		.section	.text.HAL_RCC_GetResetSource,"ax",%progbits
 3131              		.align	1
 3132              		.global	HAL_RCC_GetResetSource
 3133              		.syntax unified
 3134              		.thumb
 3135              		.thumb_func
 3137              	HAL_RCC_GetResetSource:
 3138              	.LFB171:
1655:Drivers/STM32H5xx_HAL_Driver/Src/stm32h5xx_hal_rcc.c **** 
1656:Drivers/STM32H5xx_HAL_Driver/Src/stm32h5xx_hal_rcc.c **** /**
1657:Drivers/STM32H5xx_HAL_Driver/Src/stm32h5xx_hal_rcc.c ****   * @brief  Get and clear reset flags
1658:Drivers/STM32H5xx_HAL_Driver/Src/stm32h5xx_hal_rcc.c ****   * @note   Once reset flags are retrieved, this API is clearing them in order
1659:Drivers/STM32H5xx_HAL_Driver/Src/stm32h5xx_hal_rcc.c ****   *         to isolate next reset reason.
1660:Drivers/STM32H5xx_HAL_Driver/Src/stm32h5xx_hal_rcc.c ****   * @retval can be a combination of @ref RCC_Reset_Flag
1661:Drivers/STM32H5xx_HAL_Driver/Src/stm32h5xx_hal_rcc.c ****   */
1662:Drivers/STM32H5xx_HAL_Driver/Src/stm32h5xx_hal_rcc.c **** uint32_t HAL_RCC_GetResetSource(void)
1663:Drivers/STM32H5xx_HAL_Driver/Src/stm32h5xx_hal_rcc.c **** {
 3139              		.loc 1 1663 1 is_stmt 1 view -0
 3140              		.cfi_startproc
 3141              		@ args = 0, pretend = 0, frame = 0
 3142              		@ frame_needed = 0, uses_anonymous_args = 0
ARM GAS  C:\Users\sapph\AppData\Local\Temp\ccD3KfzI.s 			page 98


 3143              		@ link register save eliminated.
1664:Drivers/STM32H5xx_HAL_Driver/Src/stm32h5xx_hal_rcc.c ****   uint32_t reset;
 3144              		.loc 1 1664 3 view .LVU1061
1665:Drivers/STM32H5xx_HAL_Driver/Src/stm32h5xx_hal_rcc.c **** 
1666:Drivers/STM32H5xx_HAL_Driver/Src/stm32h5xx_hal_rcc.c ****   /* Get all reset flags */
1667:Drivers/STM32H5xx_HAL_Driver/Src/stm32h5xx_hal_rcc.c ****   reset = RCC->RSR & RCC_RESET_FLAG_ALL;
 3145              		.loc 1 1667 3 view .LVU1062
 3146              		.loc 1 1667 14 is_stmt 0 view .LVU1063
 3147 0000 054B     		ldr	r3, .L264
 3148 0002 D3F8F400 		ldr	r0, [r3, #244]
 3149              	.LVL210:
1668:Drivers/STM32H5xx_HAL_Driver/Src/stm32h5xx_hal_rcc.c **** 
1669:Drivers/STM32H5xx_HAL_Driver/Src/stm32h5xx_hal_rcc.c ****   /* Clear Reset flags */
1670:Drivers/STM32H5xx_HAL_Driver/Src/stm32h5xx_hal_rcc.c ****   RCC->RSR |= RCC_RSR_RMVF;
 3150              		.loc 1 1670 3 is_stmt 1 view .LVU1064
 3151              		.loc 1 1670 6 is_stmt 0 view .LVU1065
 3152 0006 D3F8F420 		ldr	r2, [r3, #244]
 3153              		.loc 1 1670 12 view .LVU1066
 3154 000a 42F40002 		orr	r2, r2, #8388608
 3155 000e C3F8F420 		str	r2, [r3, #244]
1671:Drivers/STM32H5xx_HAL_Driver/Src/stm32h5xx_hal_rcc.c **** 
1672:Drivers/STM32H5xx_HAL_Driver/Src/stm32h5xx_hal_rcc.c ****   return reset;
 3156              		.loc 1 1672 3 is_stmt 1 view .LVU1067
1673:Drivers/STM32H5xx_HAL_Driver/Src/stm32h5xx_hal_rcc.c **** }
 3157              		.loc 1 1673 1 is_stmt 0 view .LVU1068
 3158 0012 00F07C40 		and	r0, r0, #-67108864
 3159              	.LVL211:
 3160              		.loc 1 1673 1 view .LVU1069
 3161 0016 7047     		bx	lr
 3162              	.L265:
 3163              		.align	2
 3164              	.L264:
 3165 0018 000C0244 		.word	1140984832
 3166              		.cfi_endproc
 3167              	.LFE171:
 3169              		.section	.text.HAL_RCC_EnableCSS,"ax",%progbits
 3170              		.align	1
 3171              		.global	HAL_RCC_EnableCSS
 3172              		.syntax unified
 3173              		.thumb
 3174              		.thumb_func
 3176              	HAL_RCC_EnableCSS:
 3177              	.LFB172:
1674:Drivers/STM32H5xx_HAL_Driver/Src/stm32h5xx_hal_rcc.c **** 
1675:Drivers/STM32H5xx_HAL_Driver/Src/stm32h5xx_hal_rcc.c **** /**
1676:Drivers/STM32H5xx_HAL_Driver/Src/stm32h5xx_hal_rcc.c ****   * @brief  Enable the HSE Clock Security System.
1677:Drivers/STM32H5xx_HAL_Driver/Src/stm32h5xx_hal_rcc.c ****   * @note   If a failure is detected on the HSE oscillator clock, this oscillator
1678:Drivers/STM32H5xx_HAL_Driver/Src/stm32h5xx_hal_rcc.c ****   *         is automatically disabled and an interrupt is generated to inform the
1679:Drivers/STM32H5xx_HAL_Driver/Src/stm32h5xx_hal_rcc.c ****   *         software about the failure (Clock Security System Interrupt, CSSI),
1680:Drivers/STM32H5xx_HAL_Driver/Src/stm32h5xx_hal_rcc.c ****   *         allowing the MCU to perform rescue operations. The CSSI is linked to
1681:Drivers/STM32H5xx_HAL_Driver/Src/stm32h5xx_hal_rcc.c ****   *         the Cortex-M NMI (Non-Maskable Interrupt) exception vector.
1682:Drivers/STM32H5xx_HAL_Driver/Src/stm32h5xx_hal_rcc.c ****   * @note   The Clock Security System can only be cleared by reset.
1683:Drivers/STM32H5xx_HAL_Driver/Src/stm32h5xx_hal_rcc.c ****   * @retval None
1684:Drivers/STM32H5xx_HAL_Driver/Src/stm32h5xx_hal_rcc.c ****   */
1685:Drivers/STM32H5xx_HAL_Driver/Src/stm32h5xx_hal_rcc.c **** void HAL_RCC_EnableCSS(void)
1686:Drivers/STM32H5xx_HAL_Driver/Src/stm32h5xx_hal_rcc.c **** {
 3178              		.loc 1 1686 1 is_stmt 1 view -0
ARM GAS  C:\Users\sapph\AppData\Local\Temp\ccD3KfzI.s 			page 99


 3179              		.cfi_startproc
 3180              		@ args = 0, pretend = 0, frame = 0
 3181              		@ frame_needed = 0, uses_anonymous_args = 0
 3182              		@ link register save eliminated.
1687:Drivers/STM32H5xx_HAL_Driver/Src/stm32h5xx_hal_rcc.c ****   SET_BIT(RCC->CR, RCC_CR_HSECSSON);
 3183              		.loc 1 1687 3 view .LVU1071
 3184 0000 024A     		ldr	r2, .L267
 3185 0002 1368     		ldr	r3, [r2]
 3186 0004 43F40023 		orr	r3, r3, #524288
 3187 0008 1360     		str	r3, [r2]
1688:Drivers/STM32H5xx_HAL_Driver/Src/stm32h5xx_hal_rcc.c **** }
 3188              		.loc 1 1688 1 is_stmt 0 view .LVU1072
 3189 000a 7047     		bx	lr
 3190              	.L268:
 3191              		.align	2
 3192              	.L267:
 3193 000c 000C0244 		.word	1140984832
 3194              		.cfi_endproc
 3195              	.LFE172:
 3197              		.section	.text.HAL_RCC_CSSCallback,"ax",%progbits
 3198              		.align	1
 3199              		.weak	HAL_RCC_CSSCallback
 3200              		.syntax unified
 3201              		.thumb
 3202              		.thumb_func
 3204              	HAL_RCC_CSSCallback:
 3205              	.LFB174:
1689:Drivers/STM32H5xx_HAL_Driver/Src/stm32h5xx_hal_rcc.c **** 
1690:Drivers/STM32H5xx_HAL_Driver/Src/stm32h5xx_hal_rcc.c **** /**
1691:Drivers/STM32H5xx_HAL_Driver/Src/stm32h5xx_hal_rcc.c ****   * @brief Handle the RCC Clock Security System interrupt request.
1692:Drivers/STM32H5xx_HAL_Driver/Src/stm32h5xx_hal_rcc.c ****   * @note This API should be called under the NMI_Handler().
1693:Drivers/STM32H5xx_HAL_Driver/Src/stm32h5xx_hal_rcc.c ****   * @retval None
1694:Drivers/STM32H5xx_HAL_Driver/Src/stm32h5xx_hal_rcc.c ****   */
1695:Drivers/STM32H5xx_HAL_Driver/Src/stm32h5xx_hal_rcc.c **** void HAL_RCC_NMI_IRQHandler(void)
1696:Drivers/STM32H5xx_HAL_Driver/Src/stm32h5xx_hal_rcc.c **** {
1697:Drivers/STM32H5xx_HAL_Driver/Src/stm32h5xx_hal_rcc.c ****   /* Check RCC CSSF interrupt flag  */
1698:Drivers/STM32H5xx_HAL_Driver/Src/stm32h5xx_hal_rcc.c ****   if (__HAL_RCC_GET_IT(RCC_IT_HSECSS))
1699:Drivers/STM32H5xx_HAL_Driver/Src/stm32h5xx_hal_rcc.c ****   {
1700:Drivers/STM32H5xx_HAL_Driver/Src/stm32h5xx_hal_rcc.c ****     /* Clear RCC CSS pending bit */
1701:Drivers/STM32H5xx_HAL_Driver/Src/stm32h5xx_hal_rcc.c ****     __HAL_RCC_CLEAR_IT(RCC_IT_HSECSS);
1702:Drivers/STM32H5xx_HAL_Driver/Src/stm32h5xx_hal_rcc.c **** 
1703:Drivers/STM32H5xx_HAL_Driver/Src/stm32h5xx_hal_rcc.c ****     /* RCC Clock Security System interrupt user callback */
1704:Drivers/STM32H5xx_HAL_Driver/Src/stm32h5xx_hal_rcc.c ****     HAL_RCC_CSSCallback();
1705:Drivers/STM32H5xx_HAL_Driver/Src/stm32h5xx_hal_rcc.c ****   }
1706:Drivers/STM32H5xx_HAL_Driver/Src/stm32h5xx_hal_rcc.c **** }
1707:Drivers/STM32H5xx_HAL_Driver/Src/stm32h5xx_hal_rcc.c **** 
1708:Drivers/STM32H5xx_HAL_Driver/Src/stm32h5xx_hal_rcc.c **** /**
1709:Drivers/STM32H5xx_HAL_Driver/Src/stm32h5xx_hal_rcc.c ****   * @brief  RCC HSE Clock Security System interrupt callback.
1710:Drivers/STM32H5xx_HAL_Driver/Src/stm32h5xx_hal_rcc.c ****   * @retval none
1711:Drivers/STM32H5xx_HAL_Driver/Src/stm32h5xx_hal_rcc.c ****   */
1712:Drivers/STM32H5xx_HAL_Driver/Src/stm32h5xx_hal_rcc.c **** __weak void HAL_RCC_CSSCallback(void)
1713:Drivers/STM32H5xx_HAL_Driver/Src/stm32h5xx_hal_rcc.c **** {
 3206              		.loc 1 1713 1 is_stmt 1 view -0
 3207              		.cfi_startproc
 3208              		@ args = 0, pretend = 0, frame = 0
 3209              		@ frame_needed = 0, uses_anonymous_args = 0
 3210              		@ link register save eliminated.
ARM GAS  C:\Users\sapph\AppData\Local\Temp\ccD3KfzI.s 			page 100


1714:Drivers/STM32H5xx_HAL_Driver/Src/stm32h5xx_hal_rcc.c ****   /* NOTE : This function should not be modified, when the callback is needed,
1715:Drivers/STM32H5xx_HAL_Driver/Src/stm32h5xx_hal_rcc.c ****             the HAL_RCC_CSSCallback should be implemented in the user file
1716:Drivers/STM32H5xx_HAL_Driver/Src/stm32h5xx_hal_rcc.c ****    */
1717:Drivers/STM32H5xx_HAL_Driver/Src/stm32h5xx_hal_rcc.c **** }
 3211              		.loc 1 1717 1 view .LVU1074
 3212 0000 7047     		bx	lr
 3213              		.cfi_endproc
 3214              	.LFE174:
 3216              		.section	.text.HAL_RCC_NMI_IRQHandler,"ax",%progbits
 3217              		.align	1
 3218              		.global	HAL_RCC_NMI_IRQHandler
 3219              		.syntax unified
 3220              		.thumb
 3221              		.thumb_func
 3223              	HAL_RCC_NMI_IRQHandler:
 3224              	.LFB173:
1696:Drivers/STM32H5xx_HAL_Driver/Src/stm32h5xx_hal_rcc.c ****   /* Check RCC CSSF interrupt flag  */
 3225              		.loc 1 1696 1 view -0
 3226              		.cfi_startproc
 3227              		@ args = 0, pretend = 0, frame = 0
 3228              		@ frame_needed = 0, uses_anonymous_args = 0
 3229 0000 08B5     		push	{r3, lr}
 3230              		.cfi_def_cfa_offset 8
 3231              		.cfi_offset 3, -8
 3232              		.cfi_offset 14, -4
1698:Drivers/STM32H5xx_HAL_Driver/Src/stm32h5xx_hal_rcc.c ****   {
 3233              		.loc 1 1698 3 view .LVU1076
1698:Drivers/STM32H5xx_HAL_Driver/Src/stm32h5xx_hal_rcc.c ****   {
 3234              		.loc 1 1698 7 is_stmt 0 view .LVU1077
 3235 0002 064B     		ldr	r3, .L274
 3236 0004 5B6D     		ldr	r3, [r3, #84]
1698:Drivers/STM32H5xx_HAL_Driver/Src/stm32h5xx_hal_rcc.c ****   {
 3237              		.loc 1 1698 6 view .LVU1078
 3238 0006 13F4806F 		tst	r3, #1024
 3239 000a 00D1     		bne	.L273
 3240              	.L270:
1706:Drivers/STM32H5xx_HAL_Driver/Src/stm32h5xx_hal_rcc.c **** 
 3241              		.loc 1 1706 1 view .LVU1079
 3242 000c 08BD     		pop	{r3, pc}
 3243              	.L273:
1701:Drivers/STM32H5xx_HAL_Driver/Src/stm32h5xx_hal_rcc.c **** 
 3244              		.loc 1 1701 5 is_stmt 1 view .LVU1080
 3245 000e 034B     		ldr	r3, .L274
 3246 0010 4FF48062 		mov	r2, #1024
 3247 0014 9A65     		str	r2, [r3, #88]
1704:Drivers/STM32H5xx_HAL_Driver/Src/stm32h5xx_hal_rcc.c ****   }
 3248              		.loc 1 1704 5 view .LVU1081
 3249 0016 FFF7FEFF 		bl	HAL_RCC_CSSCallback
 3250              	.LVL212:
1706:Drivers/STM32H5xx_HAL_Driver/Src/stm32h5xx_hal_rcc.c **** 
 3251              		.loc 1 1706 1 is_stmt 0 view .LVU1082
 3252 001a F7E7     		b	.L270
 3253              	.L275:
 3254              		.align	2
 3255              	.L274:
 3256 001c 000C0244 		.word	1140984832
 3257              		.cfi_endproc
ARM GAS  C:\Users\sapph\AppData\Local\Temp\ccD3KfzI.s 			page 101


 3258              	.LFE173:
 3260              		.section	.text.HAL_RCC_ConfigAttributes,"ax",%progbits
 3261              		.align	1
 3262              		.global	HAL_RCC_ConfigAttributes
 3263              		.syntax unified
 3264              		.thumb
 3265              		.thumb_func
 3267              	HAL_RCC_ConfigAttributes:
 3268              	.LVL213:
 3269              	.LFB175:
1718:Drivers/STM32H5xx_HAL_Driver/Src/stm32h5xx_hal_rcc.c **** 
1719:Drivers/STM32H5xx_HAL_Driver/Src/stm32h5xx_hal_rcc.c **** /**
1720:Drivers/STM32H5xx_HAL_Driver/Src/stm32h5xx_hal_rcc.c ****   * @}
1721:Drivers/STM32H5xx_HAL_Driver/Src/stm32h5xx_hal_rcc.c ****   */
1722:Drivers/STM32H5xx_HAL_Driver/Src/stm32h5xx_hal_rcc.c **** 
1723:Drivers/STM32H5xx_HAL_Driver/Src/stm32h5xx_hal_rcc.c **** /** @defgroup RCC_Exported_Functions_Group3 Attributes management functions
1724:Drivers/STM32H5xx_HAL_Driver/Src/stm32h5xx_hal_rcc.c ****   *  @brief Attributes management functions.
1725:Drivers/STM32H5xx_HAL_Driver/Src/stm32h5xx_hal_rcc.c ****   *
1726:Drivers/STM32H5xx_HAL_Driver/Src/stm32h5xx_hal_rcc.c **** @verbatim
1727:Drivers/STM32H5xx_HAL_Driver/Src/stm32h5xx_hal_rcc.c ****  ===============================================================================
1728:Drivers/STM32H5xx_HAL_Driver/Src/stm32h5xx_hal_rcc.c ****                        ##### RCC attributes functions #####
1729:Drivers/STM32H5xx_HAL_Driver/Src/stm32h5xx_hal_rcc.c ****  ===============================================================================
1730:Drivers/STM32H5xx_HAL_Driver/Src/stm32h5xx_hal_rcc.c ****     [..]
1731:Drivers/STM32H5xx_HAL_Driver/Src/stm32h5xx_hal_rcc.c ****     This subsection provides a set of functions allowing to:
1732:Drivers/STM32H5xx_HAL_Driver/Src/stm32h5xx_hal_rcc.c **** 
1733:Drivers/STM32H5xx_HAL_Driver/Src/stm32h5xx_hal_rcc.c ****     (+) Configure the RCC item(s) attributes.
1734:Drivers/STM32H5xx_HAL_Driver/Src/stm32h5xx_hal_rcc.c ****     (+) Get the attribute of an RCC item.
1735:Drivers/STM32H5xx_HAL_Driver/Src/stm32h5xx_hal_rcc.c **** 
1736:Drivers/STM32H5xx_HAL_Driver/Src/stm32h5xx_hal_rcc.c **** @endverbatim
1737:Drivers/STM32H5xx_HAL_Driver/Src/stm32h5xx_hal_rcc.c ****   * @{
1738:Drivers/STM32H5xx_HAL_Driver/Src/stm32h5xx_hal_rcc.c ****   */
1739:Drivers/STM32H5xx_HAL_Driver/Src/stm32h5xx_hal_rcc.c **** /**
1740:Drivers/STM32H5xx_HAL_Driver/Src/stm32h5xx_hal_rcc.c ****   * @brief  Configure the RCC item(s) attribute(s).
1741:Drivers/STM32H5xx_HAL_Driver/Src/stm32h5xx_hal_rcc.c ****   * @note   Available attributes are to secure items and set RCC as privileged (*).
1742:Drivers/STM32H5xx_HAL_Driver/Src/stm32h5xx_hal_rcc.c ****   *         Default state is non-secure and unprivileged access allowed.
1743:Drivers/STM32H5xx_HAL_Driver/Src/stm32h5xx_hal_rcc.c ****   * @note   Secure and non-secure attributes can only be set from the secure
1744:Drivers/STM32H5xx_HAL_Driver/Src/stm32h5xx_hal_rcc.c ****   *         state when the system implements the security (TZEN=1).
1745:Drivers/STM32H5xx_HAL_Driver/Src/stm32h5xx_hal_rcc.c ****   * @param  Item Item(s) to set attributes on.
1746:Drivers/STM32H5xx_HAL_Driver/Src/stm32h5xx_hal_rcc.c ****   *         This parameter can be a one or a combination of @ref RCC_items (**).
1747:Drivers/STM32H5xx_HAL_Driver/Src/stm32h5xx_hal_rcc.c ****   * @param  Attributes specifies the RCC secure/privilege attributes.
1748:Drivers/STM32H5xx_HAL_Driver/Src/stm32h5xx_hal_rcc.c ****   *         This parameter can be a value of  @ref RCC_attributes
1749:Drivers/STM32H5xx_HAL_Driver/Src/stm32h5xx_hal_rcc.c ****   * @retval None
1750:Drivers/STM32H5xx_HAL_Driver/Src/stm32h5xx_hal_rcc.c ****   *
1751:Drivers/STM32H5xx_HAL_Driver/Src/stm32h5xx_hal_rcc.c ****   * (*)   : For stm32h503xx devices, attributes specifies the privilege attribute only (no items).
1752:Drivers/STM32H5xx_HAL_Driver/Src/stm32h5xx_hal_rcc.c ****   * (**)  : For stm32h503xx devices, this parameter is unused, it can take 0 or any other numerical
1753:Drivers/STM32H5xx_HAL_Driver/Src/stm32h5xx_hal_rcc.c ****   */
1754:Drivers/STM32H5xx_HAL_Driver/Src/stm32h5xx_hal_rcc.c **** void HAL_RCC_ConfigAttributes(uint32_t Item, uint32_t Attributes)
1755:Drivers/STM32H5xx_HAL_Driver/Src/stm32h5xx_hal_rcc.c **** {
 3270              		.loc 1 1755 1 is_stmt 1 view -0
 3271              		.cfi_startproc
 3272              		@ args = 0, pretend = 0, frame = 0
 3273              		@ frame_needed = 0, uses_anonymous_args = 0
 3274              		@ link register save eliminated.
1756:Drivers/STM32H5xx_HAL_Driver/Src/stm32h5xx_hal_rcc.c **** 
1757:Drivers/STM32H5xx_HAL_Driver/Src/stm32h5xx_hal_rcc.c ****   /* Check the parameters */
1758:Drivers/STM32H5xx_HAL_Driver/Src/stm32h5xx_hal_rcc.c ****   assert_param(IS_RCC_ATTRIBUTES(Attributes));
 3275              		.loc 1 1758 3 view .LVU1084
ARM GAS  C:\Users\sapph\AppData\Local\Temp\ccD3KfzI.s 			page 102


1759:Drivers/STM32H5xx_HAL_Driver/Src/stm32h5xx_hal_rcc.c **** 
1760:Drivers/STM32H5xx_HAL_Driver/Src/stm32h5xx_hal_rcc.c **** #if defined(RCC_SECCFGR_HSISEC)
1761:Drivers/STM32H5xx_HAL_Driver/Src/stm32h5xx_hal_rcc.c ****   assert_param(IS_RCC_ITEM_ATTRIBUTES(Item));
 3276              		.loc 1 1761 3 view .LVU1085
1762:Drivers/STM32H5xx_HAL_Driver/Src/stm32h5xx_hal_rcc.c **** 
1763:Drivers/STM32H5xx_HAL_Driver/Src/stm32h5xx_hal_rcc.c ****   switch (Attributes)
 3277              		.loc 1 1763 3 view .LVU1086
 3278 0000 0129     		cmp	r1, #1
 3279 0002 02D0     		beq	.L277
 3280 0004 0229     		cmp	r1, #2
 3281 0006 08D0     		beq	.L278
 3282 0008 7047     		bx	lr
 3283              	.L277:
1764:Drivers/STM32H5xx_HAL_Driver/Src/stm32h5xx_hal_rcc.c ****   {
1765:Drivers/STM32H5xx_HAL_Driver/Src/stm32h5xx_hal_rcc.c **** #if defined (__ARM_FEATURE_CMSE) && (__ARM_FEATURE_CMSE == 3U)
1766:Drivers/STM32H5xx_HAL_Driver/Src/stm32h5xx_hal_rcc.c ****     /* Secure Privilege attribute */
1767:Drivers/STM32H5xx_HAL_Driver/Src/stm32h5xx_hal_rcc.c ****     case RCC_SEC_PRIV:
1768:Drivers/STM32H5xx_HAL_Driver/Src/stm32h5xx_hal_rcc.c ****       SET_BIT(RCC->SECCFGR, Item);
1769:Drivers/STM32H5xx_HAL_Driver/Src/stm32h5xx_hal_rcc.c ****       SET_BIT(RCC->PRIVCFGR, RCC_PRIVCFGR_SPRIV);
1770:Drivers/STM32H5xx_HAL_Driver/Src/stm32h5xx_hal_rcc.c ****       break;
1771:Drivers/STM32H5xx_HAL_Driver/Src/stm32h5xx_hal_rcc.c ****     /* Secure Non-Privilege attribute */
1772:Drivers/STM32H5xx_HAL_Driver/Src/stm32h5xx_hal_rcc.c ****     case RCC_SEC_NPRIV:
1773:Drivers/STM32H5xx_HAL_Driver/Src/stm32h5xx_hal_rcc.c ****       SET_BIT(RCC->SECCFGR, Item);
1774:Drivers/STM32H5xx_HAL_Driver/Src/stm32h5xx_hal_rcc.c ****       CLEAR_BIT(RCC->PRIVCFGR, RCC_PRIVCFGR_SPRIV);
1775:Drivers/STM32H5xx_HAL_Driver/Src/stm32h5xx_hal_rcc.c ****       break;
1776:Drivers/STM32H5xx_HAL_Driver/Src/stm32h5xx_hal_rcc.c ****     /* Non-secure Privilege attribute */
1777:Drivers/STM32H5xx_HAL_Driver/Src/stm32h5xx_hal_rcc.c ****     case RCC_NSEC_PRIV:
1778:Drivers/STM32H5xx_HAL_Driver/Src/stm32h5xx_hal_rcc.c ****       CLEAR_BIT(RCC->SECCFGR, Item);
1779:Drivers/STM32H5xx_HAL_Driver/Src/stm32h5xx_hal_rcc.c ****       SET_BIT(RCC->PRIVCFGR, RCC_PRIVCFGR_NSPRIV);
1780:Drivers/STM32H5xx_HAL_Driver/Src/stm32h5xx_hal_rcc.c ****       break;
1781:Drivers/STM32H5xx_HAL_Driver/Src/stm32h5xx_hal_rcc.c ****     /* Non-secure Non-Privilege attribute */
1782:Drivers/STM32H5xx_HAL_Driver/Src/stm32h5xx_hal_rcc.c ****     case RCC_NSEC_NPRIV:
1783:Drivers/STM32H5xx_HAL_Driver/Src/stm32h5xx_hal_rcc.c ****       CLEAR_BIT(RCC->SECCFGR, Item);
1784:Drivers/STM32H5xx_HAL_Driver/Src/stm32h5xx_hal_rcc.c ****       CLEAR_BIT(RCC->PRIVCFGR, RCC_PRIVCFGR_NSPRIV);
1785:Drivers/STM32H5xx_HAL_Driver/Src/stm32h5xx_hal_rcc.c ****       break;
1786:Drivers/STM32H5xx_HAL_Driver/Src/stm32h5xx_hal_rcc.c **** #else /* __ARM_FEATURE_CMSE */
1787:Drivers/STM32H5xx_HAL_Driver/Src/stm32h5xx_hal_rcc.c ****     /* Non-secure Privilege attribute */
1788:Drivers/STM32H5xx_HAL_Driver/Src/stm32h5xx_hal_rcc.c ****     case RCC_NSEC_PRIV:
1789:Drivers/STM32H5xx_HAL_Driver/Src/stm32h5xx_hal_rcc.c ****       SET_BIT(RCC->PRIVCFGR, RCC_PRIVCFGR_NSPRIV);
 3284              		.loc 1 1789 7 view .LVU1087
 3285 000a 084A     		ldr	r2, .L280
 3286 000c D2F81431 		ldr	r3, [r2, #276]
 3287 0010 43F00203 		orr	r3, r3, #2
 3288 0014 C2F81431 		str	r3, [r2, #276]
1790:Drivers/STM32H5xx_HAL_Driver/Src/stm32h5xx_hal_rcc.c ****       break;
 3289              		.loc 1 1790 7 view .LVU1088
 3290 0018 7047     		bx	lr
 3291              	.L278:
1791:Drivers/STM32H5xx_HAL_Driver/Src/stm32h5xx_hal_rcc.c ****     /* Non-secure Non-Privilege attribute */
1792:Drivers/STM32H5xx_HAL_Driver/Src/stm32h5xx_hal_rcc.c ****     case RCC_NSEC_NPRIV:
1793:Drivers/STM32H5xx_HAL_Driver/Src/stm32h5xx_hal_rcc.c ****       CLEAR_BIT(RCC->PRIVCFGR, RCC_PRIVCFGR_NSPRIV);
 3292              		.loc 1 1793 7 view .LVU1089
 3293 001a 044A     		ldr	r2, .L280
 3294 001c D2F81431 		ldr	r3, [r2, #276]
 3295 0020 23F00203 		bic	r3, r3, #2
 3296 0024 C2F81431 		str	r3, [r2, #276]
1794:Drivers/STM32H5xx_HAL_Driver/Src/stm32h5xx_hal_rcc.c ****       break;
ARM GAS  C:\Users\sapph\AppData\Local\Temp\ccD3KfzI.s 			page 103


 3297              		.loc 1 1794 7 view .LVU1090
1795:Drivers/STM32H5xx_HAL_Driver/Src/stm32h5xx_hal_rcc.c **** #endif /* __ARM_FEATURE_CMSE */
1796:Drivers/STM32H5xx_HAL_Driver/Src/stm32h5xx_hal_rcc.c ****     default:
1797:Drivers/STM32H5xx_HAL_Driver/Src/stm32h5xx_hal_rcc.c ****       /* Nothing to do */
1798:Drivers/STM32H5xx_HAL_Driver/Src/stm32h5xx_hal_rcc.c ****       break;
1799:Drivers/STM32H5xx_HAL_Driver/Src/stm32h5xx_hal_rcc.c ****   }
1800:Drivers/STM32H5xx_HAL_Driver/Src/stm32h5xx_hal_rcc.c **** 
1801:Drivers/STM32H5xx_HAL_Driver/Src/stm32h5xx_hal_rcc.c **** #else /* RCC_SECCFGR_HSISEC */
1802:Drivers/STM32H5xx_HAL_Driver/Src/stm32h5xx_hal_rcc.c **** 
1803:Drivers/STM32H5xx_HAL_Driver/Src/stm32h5xx_hal_rcc.c ****   UNUSED(Item);
1804:Drivers/STM32H5xx_HAL_Driver/Src/stm32h5xx_hal_rcc.c **** 
1805:Drivers/STM32H5xx_HAL_Driver/Src/stm32h5xx_hal_rcc.c ****   switch (Attributes)
1806:Drivers/STM32H5xx_HAL_Driver/Src/stm32h5xx_hal_rcc.c ****   {
1807:Drivers/STM32H5xx_HAL_Driver/Src/stm32h5xx_hal_rcc.c ****     /* Privilege attribute */
1808:Drivers/STM32H5xx_HAL_Driver/Src/stm32h5xx_hal_rcc.c ****     case RCC_PRIV:
1809:Drivers/STM32H5xx_HAL_Driver/Src/stm32h5xx_hal_rcc.c ****       SET_BIT(RCC->PRIVCFGR, RCC_PRIVCFGR_PRIV);
1810:Drivers/STM32H5xx_HAL_Driver/Src/stm32h5xx_hal_rcc.c ****       break;
1811:Drivers/STM32H5xx_HAL_Driver/Src/stm32h5xx_hal_rcc.c ****     /* Non-secure Non-Privilege attribute */
1812:Drivers/STM32H5xx_HAL_Driver/Src/stm32h5xx_hal_rcc.c ****     case RCC_NPRIV:
1813:Drivers/STM32H5xx_HAL_Driver/Src/stm32h5xx_hal_rcc.c ****       CLEAR_BIT(RCC->PRIVCFGR, RCC_PRIVCFGR_PRIV);
1814:Drivers/STM32H5xx_HAL_Driver/Src/stm32h5xx_hal_rcc.c ****       break;
1815:Drivers/STM32H5xx_HAL_Driver/Src/stm32h5xx_hal_rcc.c ****     default:
1816:Drivers/STM32H5xx_HAL_Driver/Src/stm32h5xx_hal_rcc.c ****       /* Nothing to do */
1817:Drivers/STM32H5xx_HAL_Driver/Src/stm32h5xx_hal_rcc.c ****       break;
1818:Drivers/STM32H5xx_HAL_Driver/Src/stm32h5xx_hal_rcc.c ****   }
1819:Drivers/STM32H5xx_HAL_Driver/Src/stm32h5xx_hal_rcc.c **** 
1820:Drivers/STM32H5xx_HAL_Driver/Src/stm32h5xx_hal_rcc.c **** #endif /* RCC_SECCFGR_HSISEC */
1821:Drivers/STM32H5xx_HAL_Driver/Src/stm32h5xx_hal_rcc.c **** }
 3298              		.loc 1 1821 1 is_stmt 0 view .LVU1091
 3299 0028 7047     		bx	lr
 3300              	.L281:
 3301 002a 00BF     		.align	2
 3302              	.L280:
 3303 002c 000C0244 		.word	1140984832
 3304              		.cfi_endproc
 3305              	.LFE175:
 3307              		.section	.text.HAL_RCC_GetConfigAttributes,"ax",%progbits
 3308              		.align	1
 3309              		.global	HAL_RCC_GetConfigAttributes
 3310              		.syntax unified
 3311              		.thumb
 3312              		.thumb_func
 3314              	HAL_RCC_GetConfigAttributes:
 3315              	.LVL214:
 3316              	.LFB176:
1822:Drivers/STM32H5xx_HAL_Driver/Src/stm32h5xx_hal_rcc.c **** 
1823:Drivers/STM32H5xx_HAL_Driver/Src/stm32h5xx_hal_rcc.c **** /**
1824:Drivers/STM32H5xx_HAL_Driver/Src/stm32h5xx_hal_rcc.c ****   * @brief  Get the attribute of an RCC item.
1825:Drivers/STM32H5xx_HAL_Driver/Src/stm32h5xx_hal_rcc.c ****   * @note   Secure and non-secure attributes are only available from secure state
1826:Drivers/STM32H5xx_HAL_Driver/Src/stm32h5xx_hal_rcc.c ****   *         when the system implements the security (TZEN=1)
1827:Drivers/STM32H5xx_HAL_Driver/Src/stm32h5xx_hal_rcc.c ****   * @param  Item Single item to get secure/non-secure and privilege/non-privilege attribute from.
1828:Drivers/STM32H5xx_HAL_Driver/Src/stm32h5xx_hal_rcc.c ****   *         This parameter can be a one value of @ref RCC_items except RCC_ALL. (*)
1829:Drivers/STM32H5xx_HAL_Driver/Src/stm32h5xx_hal_rcc.c ****   * @param  pAttributes pointer to return the attributes.
1830:Drivers/STM32H5xx_HAL_Driver/Src/stm32h5xx_hal_rcc.c ****   * @retval HAL Status.
1831:Drivers/STM32H5xx_HAL_Driver/Src/stm32h5xx_hal_rcc.c ****   *
1832:Drivers/STM32H5xx_HAL_Driver/Src/stm32h5xx_hal_rcc.c ****   * (*)  : This parameter is unused for stm32h503xx devices, it can take 0 or any other numerical v
1833:Drivers/STM32H5xx_HAL_Driver/Src/stm32h5xx_hal_rcc.c ****   */
ARM GAS  C:\Users\sapph\AppData\Local\Temp\ccD3KfzI.s 			page 104


1834:Drivers/STM32H5xx_HAL_Driver/Src/stm32h5xx_hal_rcc.c **** HAL_StatusTypeDef HAL_RCC_GetConfigAttributes(uint32_t Item, uint32_t *pAttributes)
1835:Drivers/STM32H5xx_HAL_Driver/Src/stm32h5xx_hal_rcc.c **** {
 3317              		.loc 1 1835 1 is_stmt 1 view -0
 3318              		.cfi_startproc
 3319              		@ args = 0, pretend = 0, frame = 0
 3320              		@ frame_needed = 0, uses_anonymous_args = 0
 3321              		@ link register save eliminated.
1836:Drivers/STM32H5xx_HAL_Driver/Src/stm32h5xx_hal_rcc.c ****   uint32_t attributes;
 3322              		.loc 1 1836 3 view .LVU1093
1837:Drivers/STM32H5xx_HAL_Driver/Src/stm32h5xx_hal_rcc.c **** 
1838:Drivers/STM32H5xx_HAL_Driver/Src/stm32h5xx_hal_rcc.c ****   /* Check null pointer */
1839:Drivers/STM32H5xx_HAL_Driver/Src/stm32h5xx_hal_rcc.c ****   if (pAttributes == NULL)
 3323              		.loc 1 1839 3 view .LVU1094
 3324              		.loc 1 1839 6 is_stmt 0 view .LVU1095
 3325 0000 0B46     		mov	r3, r1
 3326 0002 59B1     		cbz	r1, .L285
1840:Drivers/STM32H5xx_HAL_Driver/Src/stm32h5xx_hal_rcc.c ****   {
1841:Drivers/STM32H5xx_HAL_Driver/Src/stm32h5xx_hal_rcc.c ****     return HAL_ERROR;
1842:Drivers/STM32H5xx_HAL_Driver/Src/stm32h5xx_hal_rcc.c ****   }
1843:Drivers/STM32H5xx_HAL_Driver/Src/stm32h5xx_hal_rcc.c **** 
1844:Drivers/STM32H5xx_HAL_Driver/Src/stm32h5xx_hal_rcc.c **** #if defined(RCC_SECCFGR_HSISEC)
1845:Drivers/STM32H5xx_HAL_Driver/Src/stm32h5xx_hal_rcc.c ****   /* Check the parameters */
1846:Drivers/STM32H5xx_HAL_Driver/Src/stm32h5xx_hal_rcc.c ****   assert_param(IS_RCC_SINGLE_ITEM_ATTRIBUTES(Item));
 3327              		.loc 1 1846 3 is_stmt 1 view .LVU1096
1847:Drivers/STM32H5xx_HAL_Driver/Src/stm32h5xx_hal_rcc.c **** 
1848:Drivers/STM32H5xx_HAL_Driver/Src/stm32h5xx_hal_rcc.c **** #if defined (__ARM_FEATURE_CMSE) && (__ARM_FEATURE_CMSE == 3U)
1849:Drivers/STM32H5xx_HAL_Driver/Src/stm32h5xx_hal_rcc.c **** 
1850:Drivers/STM32H5xx_HAL_Driver/Src/stm32h5xx_hal_rcc.c ****   /* Check item security */
1851:Drivers/STM32H5xx_HAL_Driver/Src/stm32h5xx_hal_rcc.c ****   if ((RCC->SECCFGR & Item) == Item)
1852:Drivers/STM32H5xx_HAL_Driver/Src/stm32h5xx_hal_rcc.c ****   {
1853:Drivers/STM32H5xx_HAL_Driver/Src/stm32h5xx_hal_rcc.c ****     /* Get Secure privileges attribute */
1854:Drivers/STM32H5xx_HAL_Driver/Src/stm32h5xx_hal_rcc.c ****     attributes = ((RCC->PRIVCFGR & RCC_PRIVCFGR_SPRIV) == 0U) ? RCC_SEC_NPRIV : RCC_SEC_PRIV;
1855:Drivers/STM32H5xx_HAL_Driver/Src/stm32h5xx_hal_rcc.c ****   }
1856:Drivers/STM32H5xx_HAL_Driver/Src/stm32h5xx_hal_rcc.c ****   else
1857:Drivers/STM32H5xx_HAL_Driver/Src/stm32h5xx_hal_rcc.c ****   {
1858:Drivers/STM32H5xx_HAL_Driver/Src/stm32h5xx_hal_rcc.c ****     /* Get Non-Secure privileges attribute */
1859:Drivers/STM32H5xx_HAL_Driver/Src/stm32h5xx_hal_rcc.c ****     attributes = ((RCC->PRIVCFGR & RCC_PRIVCFGR_NSPRIV) == 0U) ? RCC_NSEC_NPRIV : RCC_NSEC_PRIV;
1860:Drivers/STM32H5xx_HAL_Driver/Src/stm32h5xx_hal_rcc.c ****   }
1861:Drivers/STM32H5xx_HAL_Driver/Src/stm32h5xx_hal_rcc.c **** #else  /* __ARM_FEATURE_CMSE */
1862:Drivers/STM32H5xx_HAL_Driver/Src/stm32h5xx_hal_rcc.c ****   attributes = ((RCC->PRIVCFGR & RCC_PRIVCFGR_NSPRIV) == 0U) ? RCC_NSEC_NPRIV : RCC_NSEC_PRIV;
 3328              		.loc 1 1862 3 view .LVU1097
 3329              		.loc 1 1862 21 is_stmt 0 view .LVU1098
 3330 0004 064A     		ldr	r2, .L287
 3331 0006 D2F81421 		ldr	r2, [r2, #276]
 3332              		.loc 1 1862 79 view .LVU1099
 3333 000a 12F0020F 		tst	r2, #2
 3334 000e 03D1     		bne	.L286
 3335              		.loc 1 1862 79 discriminator 1 view .LVU1100
 3336 0010 0222     		movs	r2, #2
 3337              	.L284:
 3338              	.LVL215:
1863:Drivers/STM32H5xx_HAL_Driver/Src/stm32h5xx_hal_rcc.c **** #endif /* __ARM_FEATURE_CMSE */
1864:Drivers/STM32H5xx_HAL_Driver/Src/stm32h5xx_hal_rcc.c **** 
1865:Drivers/STM32H5xx_HAL_Driver/Src/stm32h5xx_hal_rcc.c **** #else /* RCC_SECCFGR_HSISEC */
1866:Drivers/STM32H5xx_HAL_Driver/Src/stm32h5xx_hal_rcc.c ****   UNUSED(Item);
1867:Drivers/STM32H5xx_HAL_Driver/Src/stm32h5xx_hal_rcc.c ****   /* Get privileges attribute */
1868:Drivers/STM32H5xx_HAL_Driver/Src/stm32h5xx_hal_rcc.c ****   attributes = ((RCC->PRIVCFGR & RCC_PRIVCFGR_PRIV) == 0U) ? RCC_NPRIV : RCC_PRIV;
ARM GAS  C:\Users\sapph\AppData\Local\Temp\ccD3KfzI.s 			page 105


1869:Drivers/STM32H5xx_HAL_Driver/Src/stm32h5xx_hal_rcc.c **** #endif /* RCC_SECCFGR_HSISEC */
1870:Drivers/STM32H5xx_HAL_Driver/Src/stm32h5xx_hal_rcc.c **** 
1871:Drivers/STM32H5xx_HAL_Driver/Src/stm32h5xx_hal_rcc.c ****   /* return value */
1872:Drivers/STM32H5xx_HAL_Driver/Src/stm32h5xx_hal_rcc.c ****   *pAttributes = attributes;
 3339              		.loc 1 1872 3 is_stmt 1 view .LVU1101
 3340              		.loc 1 1872 16 is_stmt 0 view .LVU1102
 3341 0012 1A60     		str	r2, [r3]
1873:Drivers/STM32H5xx_HAL_Driver/Src/stm32h5xx_hal_rcc.c **** 
1874:Drivers/STM32H5xx_HAL_Driver/Src/stm32h5xx_hal_rcc.c ****   return HAL_OK;
 3342              		.loc 1 1874 3 is_stmt 1 view .LVU1103
 3343              		.loc 1 1874 10 is_stmt 0 view .LVU1104
 3344 0014 0020     		movs	r0, #0
 3345              	.LVL216:
 3346              		.loc 1 1874 10 view .LVU1105
 3347 0016 7047     		bx	lr
 3348              	.LVL217:
 3349              	.L286:
1862:Drivers/STM32H5xx_HAL_Driver/Src/stm32h5xx_hal_rcc.c **** #endif /* __ARM_FEATURE_CMSE */
 3350              		.loc 1 1862 79 discriminator 2 view .LVU1106
 3351 0018 0122     		movs	r2, #1
 3352 001a FAE7     		b	.L284
 3353              	.L285:
1841:Drivers/STM32H5xx_HAL_Driver/Src/stm32h5xx_hal_rcc.c ****   }
 3354              		.loc 1 1841 12 view .LVU1107
 3355 001c 0120     		movs	r0, #1
 3356              	.LVL218:
1875:Drivers/STM32H5xx_HAL_Driver/Src/stm32h5xx_hal_rcc.c **** }
 3357              		.loc 1 1875 1 view .LVU1108
 3358 001e 7047     		bx	lr
 3359              	.L288:
 3360              		.align	2
 3361              	.L287:
 3362 0020 000C0244 		.word	1140984832
 3363              		.cfi_endproc
 3364              	.LFE176:
 3366              		.text
 3367              	.Letext0:
 3368              		.file 2 "C:/Users/sapph/AppData/Roaming/Code/User/globalStorage/bmd.stm32-for-vscode/@xpack-dev-to
 3369              		.file 3 "C:/Users/sapph/AppData/Roaming/Code/User/globalStorage/bmd.stm32-for-vscode/@xpack-dev-to
 3370              		.file 4 "C:/Users/sapph/AppData/Roaming/Code/User/globalStorage/bmd.stm32-for-vscode/@xpack-dev-to
 3371              		.file 5 "Drivers/CMSIS/Device/ST/STM32H5xx/Include/system_stm32h5xx.h"
 3372              		.file 6 "Drivers/CMSIS/Device/ST/STM32H5xx/Include/stm32h533xx.h"
 3373              		.file 7 "Drivers/STM32H5xx_HAL_Driver/Inc/stm32h5xx_hal_def.h"
 3374              		.file 8 "Drivers/STM32H5xx_HAL_Driver/Inc/stm32h5xx_hal_rcc.h"
 3375              		.file 9 "Drivers/STM32H5xx_HAL_Driver/Inc/stm32h5xx_hal_gpio.h"
 3376              		.file 10 "Drivers/STM32H5xx_HAL_Driver/Inc/stm32h5xx_hal.h"
ARM GAS  C:\Users\sapph\AppData\Local\Temp\ccD3KfzI.s 			page 106


DEFINED SYMBOLS
                            *ABS*:00000000 stm32h5xx_hal_rcc.c
C:\Users\sapph\AppData\Local\Temp\ccD3KfzI.s:22     .text.HAL_RCC_DeInit:00000000 $t
C:\Users\sapph\AppData\Local\Temp\ccD3KfzI.s:28     .text.HAL_RCC_DeInit:00000000 HAL_RCC_DeInit
C:\Users\sapph\AppData\Local\Temp\ccD3KfzI.s:349    .text.HAL_RCC_DeInit:00000190 $d
C:\Users\sapph\AppData\Local\Temp\ccD3KfzI.s:360    .text.HAL_RCC_MCOConfig:00000000 $t
C:\Users\sapph\AppData\Local\Temp\ccD3KfzI.s:366    .text.HAL_RCC_MCOConfig:00000000 HAL_RCC_MCOConfig
C:\Users\sapph\AppData\Local\Temp\ccD3KfzI.s:512    .text.HAL_RCC_MCOConfig:00000098 $d
C:\Users\sapph\AppData\Local\Temp\ccD3KfzI.s:519    .text.HAL_RCC_GetSysClockFreq:00000000 $t
C:\Users\sapph\AppData\Local\Temp\ccD3KfzI.s:525    .text.HAL_RCC_GetSysClockFreq:00000000 HAL_RCC_GetSysClockFreq
C:\Users\sapph\AppData\Local\Temp\ccD3KfzI.s:830    .text.HAL_RCC_GetSysClockFreq:000001b8 $d
C:\Users\sapph\AppData\Local\Temp\ccD3KfzI.s:842    .text.HAL_RCC_ClockConfig:00000000 $t
C:\Users\sapph\AppData\Local\Temp\ccD3KfzI.s:848    .text.HAL_RCC_ClockConfig:00000000 HAL_RCC_ClockConfig
C:\Users\sapph\AppData\Local\Temp\ccD3KfzI.s:1376   .text.HAL_RCC_ClockConfig:00000284 $d
C:\Users\sapph\AppData\Local\Temp\ccD3KfzI.s:1385   .text.HAL_RCC_GetHCLKFreq:00000000 $t
C:\Users\sapph\AppData\Local\Temp\ccD3KfzI.s:1391   .text.HAL_RCC_GetHCLKFreq:00000000 HAL_RCC_GetHCLKFreq
C:\Users\sapph\AppData\Local\Temp\ccD3KfzI.s:1426   .text.HAL_RCC_GetHCLKFreq:00000020 $d
C:\Users\sapph\AppData\Local\Temp\ccD3KfzI.s:1433   .text.HAL_RCC_OscConfig:00000000 $t
C:\Users\sapph\AppData\Local\Temp\ccD3KfzI.s:1439   .text.HAL_RCC_OscConfig:00000000 HAL_RCC_OscConfig
C:\Users\sapph\AppData\Local\Temp\ccD3KfzI.s:1973   .text.HAL_RCC_OscConfig:00000294 $d
C:\Users\sapph\AppData\Local\Temp\ccD3KfzI.s:1977   .text.HAL_RCC_OscConfig:0000029c $t
C:\Users\sapph\AppData\Local\Temp\ccD3KfzI.s:2418   .text.HAL_RCC_OscConfig:0000050c $d
C:\Users\sapph\AppData\Local\Temp\ccD3KfzI.s:2423   .text.HAL_RCC_OscConfig:00000514 $t
C:\Users\sapph\AppData\Local\Temp\ccD3KfzI.s:2740   .text.HAL_RCC_OscConfig:00000688 $d
C:\Users\sapph\AppData\Local\Temp\ccD3KfzI.s:2745   .text.HAL_RCC_GetPCLK1Freq:00000000 $t
C:\Users\sapph\AppData\Local\Temp\ccD3KfzI.s:2751   .text.HAL_RCC_GetPCLK1Freq:00000000 HAL_RCC_GetPCLK1Freq
C:\Users\sapph\AppData\Local\Temp\ccD3KfzI.s:2781   .text.HAL_RCC_GetPCLK1Freq:0000001c $d
C:\Users\sapph\AppData\Local\Temp\ccD3KfzI.s:2787   .text.HAL_RCC_GetPCLK2Freq:00000000 $t
C:\Users\sapph\AppData\Local\Temp\ccD3KfzI.s:2793   .text.HAL_RCC_GetPCLK2Freq:00000000 HAL_RCC_GetPCLK2Freq
C:\Users\sapph\AppData\Local\Temp\ccD3KfzI.s:2823   .text.HAL_RCC_GetPCLK2Freq:0000001c $d
C:\Users\sapph\AppData\Local\Temp\ccD3KfzI.s:2829   .text.HAL_RCC_GetPCLK3Freq:00000000 $t
C:\Users\sapph\AppData\Local\Temp\ccD3KfzI.s:2835   .text.HAL_RCC_GetPCLK3Freq:00000000 HAL_RCC_GetPCLK3Freq
C:\Users\sapph\AppData\Local\Temp\ccD3KfzI.s:2865   .text.HAL_RCC_GetPCLK3Freq:0000001c $d
C:\Users\sapph\AppData\Local\Temp\ccD3KfzI.s:2871   .text.HAL_RCC_GetOscConfig:00000000 $t
C:\Users\sapph\AppData\Local\Temp\ccD3KfzI.s:2877   .text.HAL_RCC_GetOscConfig:00000000 HAL_RCC_GetOscConfig
C:\Users\sapph\AppData\Local\Temp\ccD3KfzI.s:3050   .text.HAL_RCC_GetOscConfig:000000a0 $d
C:\Users\sapph\AppData\Local\Temp\ccD3KfzI.s:3055   .text.HAL_RCC_GetClockConfig:00000000 $t
C:\Users\sapph\AppData\Local\Temp\ccD3KfzI.s:3061   .text.HAL_RCC_GetClockConfig:00000000 HAL_RCC_GetClockConfig
C:\Users\sapph\AppData\Local\Temp\ccD3KfzI.s:3125   .text.HAL_RCC_GetClockConfig:00000038 $d
C:\Users\sapph\AppData\Local\Temp\ccD3KfzI.s:3131   .text.HAL_RCC_GetResetSource:00000000 $t
C:\Users\sapph\AppData\Local\Temp\ccD3KfzI.s:3137   .text.HAL_RCC_GetResetSource:00000000 HAL_RCC_GetResetSource
C:\Users\sapph\AppData\Local\Temp\ccD3KfzI.s:3165   .text.HAL_RCC_GetResetSource:00000018 $d
C:\Users\sapph\AppData\Local\Temp\ccD3KfzI.s:3170   .text.HAL_RCC_EnableCSS:00000000 $t
C:\Users\sapph\AppData\Local\Temp\ccD3KfzI.s:3176   .text.HAL_RCC_EnableCSS:00000000 HAL_RCC_EnableCSS
C:\Users\sapph\AppData\Local\Temp\ccD3KfzI.s:3193   .text.HAL_RCC_EnableCSS:0000000c $d
C:\Users\sapph\AppData\Local\Temp\ccD3KfzI.s:3198   .text.HAL_RCC_CSSCallback:00000000 $t
C:\Users\sapph\AppData\Local\Temp\ccD3KfzI.s:3204   .text.HAL_RCC_CSSCallback:00000000 HAL_RCC_CSSCallback
C:\Users\sapph\AppData\Local\Temp\ccD3KfzI.s:3217   .text.HAL_RCC_NMI_IRQHandler:00000000 $t
C:\Users\sapph\AppData\Local\Temp\ccD3KfzI.s:3223   .text.HAL_RCC_NMI_IRQHandler:00000000 HAL_RCC_NMI_IRQHandler
C:\Users\sapph\AppData\Local\Temp\ccD3KfzI.s:3256   .text.HAL_RCC_NMI_IRQHandler:0000001c $d
C:\Users\sapph\AppData\Local\Temp\ccD3KfzI.s:3261   .text.HAL_RCC_ConfigAttributes:00000000 $t
C:\Users\sapph\AppData\Local\Temp\ccD3KfzI.s:3267   .text.HAL_RCC_ConfigAttributes:00000000 HAL_RCC_ConfigAttributes
C:\Users\sapph\AppData\Local\Temp\ccD3KfzI.s:3303   .text.HAL_RCC_ConfigAttributes:0000002c $d
C:\Users\sapph\AppData\Local\Temp\ccD3KfzI.s:3308   .text.HAL_RCC_GetConfigAttributes:00000000 $t
C:\Users\sapph\AppData\Local\Temp\ccD3KfzI.s:3314   .text.HAL_RCC_GetConfigAttributes:00000000 HAL_RCC_GetConfigAttributes
C:\Users\sapph\AppData\Local\Temp\ccD3KfzI.s:3362   .text.HAL_RCC_GetConfigAttributes:00000020 $d

ARM GAS  C:\Users\sapph\AppData\Local\Temp\ccD3KfzI.s 			page 107


UNDEFINED SYMBOLS
HAL_GetTick
HAL_InitTick
uwTickPrio
SystemCoreClock
HAL_GPIO_Init
AHBPrescTable
APBPrescTable
