ARM GAS  C:\Users\xhex8\AppData\Local\Temp\ccvcBrdy.s 			page 1


   1              		.cpu cortex-m0
   2              		.arch armv6s-m
   3              		.fpu softvfp
   4              		.eabi_attribute 20, 1
   5              		.eabi_attribute 21, 1
   6              		.eabi_attribute 23, 3
   7              		.eabi_attribute 24, 1
   8              		.eabi_attribute 25, 1
   9              		.eabi_attribute 26, 1
  10              		.eabi_attribute 30, 1
  11              		.eabi_attribute 34, 0
  12              		.eabi_attribute 18, 4
  13              		.file	"stm32f0xx_hal_can.c"
  14              		.text
  15              	.Ltext0:
  16              		.cfi_sections	.debug_frame
  17              		.file 1 "Drivers/STM32F0xx_HAL_Driver/Src/stm32f0xx_hal_can.c"
  18              		.section	.text.HAL_CAN_MspInit,"ax",%progbits
  19              		.align	1
  20              		.weak	HAL_CAN_MspInit
  21              		.syntax unified
  22              		.code	16
  23              		.thumb_func
  25              	HAL_CAN_MspInit:
  26              	.LVL0:
  27              	.LFB42:
   1:Drivers/STM32F0xx_HAL_Driver/Src/stm32f0xx_hal_can.c **** /**
   2:Drivers/STM32F0xx_HAL_Driver/Src/stm32f0xx_hal_can.c ****   ******************************************************************************
   3:Drivers/STM32F0xx_HAL_Driver/Src/stm32f0xx_hal_can.c ****   * @file    stm32f0xx_hal_can.c
   4:Drivers/STM32F0xx_HAL_Driver/Src/stm32f0xx_hal_can.c ****   * @author  MCD Application Team
   5:Drivers/STM32F0xx_HAL_Driver/Src/stm32f0xx_hal_can.c ****   * @brief   CAN HAL module driver.
   6:Drivers/STM32F0xx_HAL_Driver/Src/stm32f0xx_hal_can.c ****   *          This file provides firmware functions to manage the following
   7:Drivers/STM32F0xx_HAL_Driver/Src/stm32f0xx_hal_can.c ****   *          functionalities of the Controller Area Network (CAN) peripheral:
   8:Drivers/STM32F0xx_HAL_Driver/Src/stm32f0xx_hal_can.c ****   *           + Initialization and de-initialization functions
   9:Drivers/STM32F0xx_HAL_Driver/Src/stm32f0xx_hal_can.c ****   *           + Configuration functions
  10:Drivers/STM32F0xx_HAL_Driver/Src/stm32f0xx_hal_can.c ****   *           + Control functions
  11:Drivers/STM32F0xx_HAL_Driver/Src/stm32f0xx_hal_can.c ****   *           + Interrupts management
  12:Drivers/STM32F0xx_HAL_Driver/Src/stm32f0xx_hal_can.c ****   *           + Callbacks functions
  13:Drivers/STM32F0xx_HAL_Driver/Src/stm32f0xx_hal_can.c ****   *           + Peripheral State and Error functions
  14:Drivers/STM32F0xx_HAL_Driver/Src/stm32f0xx_hal_can.c ****   *
  15:Drivers/STM32F0xx_HAL_Driver/Src/stm32f0xx_hal_can.c ****   ******************************************************************************
  16:Drivers/STM32F0xx_HAL_Driver/Src/stm32f0xx_hal_can.c ****   * @attention
  17:Drivers/STM32F0xx_HAL_Driver/Src/stm32f0xx_hal_can.c ****   *
  18:Drivers/STM32F0xx_HAL_Driver/Src/stm32f0xx_hal_can.c ****   * Copyright (c) 2016 STMicroelectronics.
  19:Drivers/STM32F0xx_HAL_Driver/Src/stm32f0xx_hal_can.c ****   * All rights reserved.
  20:Drivers/STM32F0xx_HAL_Driver/Src/stm32f0xx_hal_can.c ****   *
  21:Drivers/STM32F0xx_HAL_Driver/Src/stm32f0xx_hal_can.c ****   * This software is licensed under terms that can be found in the LICENSE file
  22:Drivers/STM32F0xx_HAL_Driver/Src/stm32f0xx_hal_can.c ****   * in the root directory of this software component.
  23:Drivers/STM32F0xx_HAL_Driver/Src/stm32f0xx_hal_can.c ****   * If no LICENSE file comes with this software, it is provided AS-IS.
  24:Drivers/STM32F0xx_HAL_Driver/Src/stm32f0xx_hal_can.c ****   *
  25:Drivers/STM32F0xx_HAL_Driver/Src/stm32f0xx_hal_can.c ****   ******************************************************************************
  26:Drivers/STM32F0xx_HAL_Driver/Src/stm32f0xx_hal_can.c ****   @verbatim
  27:Drivers/STM32F0xx_HAL_Driver/Src/stm32f0xx_hal_can.c ****   ==============================================================================
  28:Drivers/STM32F0xx_HAL_Driver/Src/stm32f0xx_hal_can.c ****                         ##### How to use this driver #####
  29:Drivers/STM32F0xx_HAL_Driver/Src/stm32f0xx_hal_can.c ****   ==============================================================================
  30:Drivers/STM32F0xx_HAL_Driver/Src/stm32f0xx_hal_can.c ****     [..]
  31:Drivers/STM32F0xx_HAL_Driver/Src/stm32f0xx_hal_can.c ****       (#) Initialize the CAN low level resources by implementing the
ARM GAS  C:\Users\xhex8\AppData\Local\Temp\ccvcBrdy.s 			page 2


  32:Drivers/STM32F0xx_HAL_Driver/Src/stm32f0xx_hal_can.c ****           HAL_CAN_MspInit():
  33:Drivers/STM32F0xx_HAL_Driver/Src/stm32f0xx_hal_can.c ****          (++) Enable the CAN interface clock using __HAL_RCC_CANx_CLK_ENABLE()
  34:Drivers/STM32F0xx_HAL_Driver/Src/stm32f0xx_hal_can.c ****          (++) Configure CAN pins
  35:Drivers/STM32F0xx_HAL_Driver/Src/stm32f0xx_hal_can.c ****              (+++) Enable the clock for the CAN GPIOs
  36:Drivers/STM32F0xx_HAL_Driver/Src/stm32f0xx_hal_can.c ****              (+++) Configure CAN pins as alternate function
  37:Drivers/STM32F0xx_HAL_Driver/Src/stm32f0xx_hal_can.c ****          (++) In case of using interrupts (e.g. HAL_CAN_ActivateNotification())
  38:Drivers/STM32F0xx_HAL_Driver/Src/stm32f0xx_hal_can.c ****              (+++) Configure the CAN interrupt priority using
  39:Drivers/STM32F0xx_HAL_Driver/Src/stm32f0xx_hal_can.c ****                    HAL_NVIC_SetPriority()
  40:Drivers/STM32F0xx_HAL_Driver/Src/stm32f0xx_hal_can.c ****              (+++) Enable the CAN IRQ handler using HAL_NVIC_EnableIRQ()
  41:Drivers/STM32F0xx_HAL_Driver/Src/stm32f0xx_hal_can.c ****              (+++) In CAN IRQ handler, call HAL_CAN_IRQHandler()
  42:Drivers/STM32F0xx_HAL_Driver/Src/stm32f0xx_hal_can.c **** 
  43:Drivers/STM32F0xx_HAL_Driver/Src/stm32f0xx_hal_can.c ****       (#) Initialize the CAN peripheral using HAL_CAN_Init() function. This
  44:Drivers/STM32F0xx_HAL_Driver/Src/stm32f0xx_hal_can.c ****           function resorts to HAL_CAN_MspInit() for low-level initialization.
  45:Drivers/STM32F0xx_HAL_Driver/Src/stm32f0xx_hal_can.c **** 
  46:Drivers/STM32F0xx_HAL_Driver/Src/stm32f0xx_hal_can.c ****       (#) Configure the reception filters using the following configuration
  47:Drivers/STM32F0xx_HAL_Driver/Src/stm32f0xx_hal_can.c ****           functions:
  48:Drivers/STM32F0xx_HAL_Driver/Src/stm32f0xx_hal_can.c ****             (++) HAL_CAN_ConfigFilter()
  49:Drivers/STM32F0xx_HAL_Driver/Src/stm32f0xx_hal_can.c **** 
  50:Drivers/STM32F0xx_HAL_Driver/Src/stm32f0xx_hal_can.c ****       (#) Start the CAN module using HAL_CAN_Start() function. At this level
  51:Drivers/STM32F0xx_HAL_Driver/Src/stm32f0xx_hal_can.c ****           the node is active on the bus: it receive messages, and can send
  52:Drivers/STM32F0xx_HAL_Driver/Src/stm32f0xx_hal_can.c ****           messages.
  53:Drivers/STM32F0xx_HAL_Driver/Src/stm32f0xx_hal_can.c **** 
  54:Drivers/STM32F0xx_HAL_Driver/Src/stm32f0xx_hal_can.c ****       (#) To manage messages transmission, the following Tx control functions
  55:Drivers/STM32F0xx_HAL_Driver/Src/stm32f0xx_hal_can.c ****           can be used:
  56:Drivers/STM32F0xx_HAL_Driver/Src/stm32f0xx_hal_can.c ****             (++) HAL_CAN_AddTxMessage() to request transmission of a new
  57:Drivers/STM32F0xx_HAL_Driver/Src/stm32f0xx_hal_can.c ****                  message.
  58:Drivers/STM32F0xx_HAL_Driver/Src/stm32f0xx_hal_can.c ****             (++) HAL_CAN_AbortTxRequest() to abort transmission of a pending
  59:Drivers/STM32F0xx_HAL_Driver/Src/stm32f0xx_hal_can.c ****                  message.
  60:Drivers/STM32F0xx_HAL_Driver/Src/stm32f0xx_hal_can.c ****             (++) HAL_CAN_GetTxMailboxesFreeLevel() to get the number of free Tx
  61:Drivers/STM32F0xx_HAL_Driver/Src/stm32f0xx_hal_can.c ****                  mailboxes.
  62:Drivers/STM32F0xx_HAL_Driver/Src/stm32f0xx_hal_can.c ****             (++) HAL_CAN_IsTxMessagePending() to check if a message is pending
  63:Drivers/STM32F0xx_HAL_Driver/Src/stm32f0xx_hal_can.c ****                  in a Tx mailbox.
  64:Drivers/STM32F0xx_HAL_Driver/Src/stm32f0xx_hal_can.c ****             (++) HAL_CAN_GetTxTimestamp() to get the timestamp of Tx message
  65:Drivers/STM32F0xx_HAL_Driver/Src/stm32f0xx_hal_can.c ****                  sent, if time triggered communication mode is enabled.
  66:Drivers/STM32F0xx_HAL_Driver/Src/stm32f0xx_hal_can.c **** 
  67:Drivers/STM32F0xx_HAL_Driver/Src/stm32f0xx_hal_can.c ****       (#) When a message is received into the CAN Rx FIFOs, it can be retrieved
  68:Drivers/STM32F0xx_HAL_Driver/Src/stm32f0xx_hal_can.c ****           using the HAL_CAN_GetRxMessage() function. The function
  69:Drivers/STM32F0xx_HAL_Driver/Src/stm32f0xx_hal_can.c ****           HAL_CAN_GetRxFifoFillLevel() allows to know how many Rx message are
  70:Drivers/STM32F0xx_HAL_Driver/Src/stm32f0xx_hal_can.c ****           stored in the Rx Fifo.
  71:Drivers/STM32F0xx_HAL_Driver/Src/stm32f0xx_hal_can.c **** 
  72:Drivers/STM32F0xx_HAL_Driver/Src/stm32f0xx_hal_can.c ****       (#) Calling the HAL_CAN_Stop() function stops the CAN module.
  73:Drivers/STM32F0xx_HAL_Driver/Src/stm32f0xx_hal_can.c **** 
  74:Drivers/STM32F0xx_HAL_Driver/Src/stm32f0xx_hal_can.c ****       (#) The deinitialization is achieved with HAL_CAN_DeInit() function.
  75:Drivers/STM32F0xx_HAL_Driver/Src/stm32f0xx_hal_can.c **** 
  76:Drivers/STM32F0xx_HAL_Driver/Src/stm32f0xx_hal_can.c **** 
  77:Drivers/STM32F0xx_HAL_Driver/Src/stm32f0xx_hal_can.c ****       *** Polling mode operation ***
  78:Drivers/STM32F0xx_HAL_Driver/Src/stm32f0xx_hal_can.c ****       ==============================
  79:Drivers/STM32F0xx_HAL_Driver/Src/stm32f0xx_hal_can.c ****     [..]
  80:Drivers/STM32F0xx_HAL_Driver/Src/stm32f0xx_hal_can.c ****       (#) Reception:
  81:Drivers/STM32F0xx_HAL_Driver/Src/stm32f0xx_hal_can.c ****             (++) Monitor reception of message using HAL_CAN_GetRxFifoFillLevel()
  82:Drivers/STM32F0xx_HAL_Driver/Src/stm32f0xx_hal_can.c ****                  until at least one message is received.
  83:Drivers/STM32F0xx_HAL_Driver/Src/stm32f0xx_hal_can.c ****             (++) Then get the message using HAL_CAN_GetRxMessage().
  84:Drivers/STM32F0xx_HAL_Driver/Src/stm32f0xx_hal_can.c **** 
  85:Drivers/STM32F0xx_HAL_Driver/Src/stm32f0xx_hal_can.c ****       (#) Transmission:
  86:Drivers/STM32F0xx_HAL_Driver/Src/stm32f0xx_hal_can.c ****             (++) Monitor the Tx mailboxes availability until at least one Tx
  87:Drivers/STM32F0xx_HAL_Driver/Src/stm32f0xx_hal_can.c ****                  mailbox is free, using HAL_CAN_GetTxMailboxesFreeLevel().
  88:Drivers/STM32F0xx_HAL_Driver/Src/stm32f0xx_hal_can.c ****             (++) Then request transmission of a message using
ARM GAS  C:\Users\xhex8\AppData\Local\Temp\ccvcBrdy.s 			page 3


  89:Drivers/STM32F0xx_HAL_Driver/Src/stm32f0xx_hal_can.c ****                  HAL_CAN_AddTxMessage().
  90:Drivers/STM32F0xx_HAL_Driver/Src/stm32f0xx_hal_can.c **** 
  91:Drivers/STM32F0xx_HAL_Driver/Src/stm32f0xx_hal_can.c **** 
  92:Drivers/STM32F0xx_HAL_Driver/Src/stm32f0xx_hal_can.c ****       *** Interrupt mode operation ***
  93:Drivers/STM32F0xx_HAL_Driver/Src/stm32f0xx_hal_can.c ****       ================================
  94:Drivers/STM32F0xx_HAL_Driver/Src/stm32f0xx_hal_can.c ****     [..]
  95:Drivers/STM32F0xx_HAL_Driver/Src/stm32f0xx_hal_can.c ****       (#) Notifications are activated using HAL_CAN_ActivateNotification()
  96:Drivers/STM32F0xx_HAL_Driver/Src/stm32f0xx_hal_can.c ****           function. Then, the process can be controlled through the
  97:Drivers/STM32F0xx_HAL_Driver/Src/stm32f0xx_hal_can.c ****           available user callbacks: HAL_CAN_xxxCallback(), using same APIs
  98:Drivers/STM32F0xx_HAL_Driver/Src/stm32f0xx_hal_can.c ****           HAL_CAN_GetRxMessage() and HAL_CAN_AddTxMessage().
  99:Drivers/STM32F0xx_HAL_Driver/Src/stm32f0xx_hal_can.c **** 
 100:Drivers/STM32F0xx_HAL_Driver/Src/stm32f0xx_hal_can.c ****       (#) Notifications can be deactivated using
 101:Drivers/STM32F0xx_HAL_Driver/Src/stm32f0xx_hal_can.c ****           HAL_CAN_DeactivateNotification() function.
 102:Drivers/STM32F0xx_HAL_Driver/Src/stm32f0xx_hal_can.c **** 
 103:Drivers/STM32F0xx_HAL_Driver/Src/stm32f0xx_hal_can.c ****       (#) Special care should be taken for CAN_IT_RX_FIFO0_MSG_PENDING and
 104:Drivers/STM32F0xx_HAL_Driver/Src/stm32f0xx_hal_can.c ****           CAN_IT_RX_FIFO1_MSG_PENDING notifications. These notifications trig
 105:Drivers/STM32F0xx_HAL_Driver/Src/stm32f0xx_hal_can.c ****           the callbacks HAL_CAN_RxFIFO0MsgPendingCallback() and
 106:Drivers/STM32F0xx_HAL_Driver/Src/stm32f0xx_hal_can.c ****           HAL_CAN_RxFIFO1MsgPendingCallback(). User has two possible options
 107:Drivers/STM32F0xx_HAL_Driver/Src/stm32f0xx_hal_can.c ****           here.
 108:Drivers/STM32F0xx_HAL_Driver/Src/stm32f0xx_hal_can.c ****             (++) Directly get the Rx message in the callback, using
 109:Drivers/STM32F0xx_HAL_Driver/Src/stm32f0xx_hal_can.c ****                  HAL_CAN_GetRxMessage().
 110:Drivers/STM32F0xx_HAL_Driver/Src/stm32f0xx_hal_can.c ****             (++) Or deactivate the notification in the callback without
 111:Drivers/STM32F0xx_HAL_Driver/Src/stm32f0xx_hal_can.c ****                  getting the Rx message. The Rx message can then be got later
 112:Drivers/STM32F0xx_HAL_Driver/Src/stm32f0xx_hal_can.c ****                  using HAL_CAN_GetRxMessage(). Once the Rx message have been
 113:Drivers/STM32F0xx_HAL_Driver/Src/stm32f0xx_hal_can.c ****                  read, the notification can be activated again.
 114:Drivers/STM32F0xx_HAL_Driver/Src/stm32f0xx_hal_can.c **** 
 115:Drivers/STM32F0xx_HAL_Driver/Src/stm32f0xx_hal_can.c **** 
 116:Drivers/STM32F0xx_HAL_Driver/Src/stm32f0xx_hal_can.c ****       *** Sleep mode ***
 117:Drivers/STM32F0xx_HAL_Driver/Src/stm32f0xx_hal_can.c ****       ==================
 118:Drivers/STM32F0xx_HAL_Driver/Src/stm32f0xx_hal_can.c ****     [..]
 119:Drivers/STM32F0xx_HAL_Driver/Src/stm32f0xx_hal_can.c ****       (#) The CAN peripheral can be put in sleep mode (low power), using
 120:Drivers/STM32F0xx_HAL_Driver/Src/stm32f0xx_hal_can.c ****           HAL_CAN_RequestSleep(). The sleep mode will be entered as soon as the
 121:Drivers/STM32F0xx_HAL_Driver/Src/stm32f0xx_hal_can.c ****           current CAN activity (transmission or reception of a CAN frame) will
 122:Drivers/STM32F0xx_HAL_Driver/Src/stm32f0xx_hal_can.c ****           be completed.
 123:Drivers/STM32F0xx_HAL_Driver/Src/stm32f0xx_hal_can.c **** 
 124:Drivers/STM32F0xx_HAL_Driver/Src/stm32f0xx_hal_can.c ****       (#) A notification can be activated to be informed when the sleep mode
 125:Drivers/STM32F0xx_HAL_Driver/Src/stm32f0xx_hal_can.c ****           will be entered.
 126:Drivers/STM32F0xx_HAL_Driver/Src/stm32f0xx_hal_can.c **** 
 127:Drivers/STM32F0xx_HAL_Driver/Src/stm32f0xx_hal_can.c ****       (#) It can be checked if the sleep mode is entered using
 128:Drivers/STM32F0xx_HAL_Driver/Src/stm32f0xx_hal_can.c ****           HAL_CAN_IsSleepActive().
 129:Drivers/STM32F0xx_HAL_Driver/Src/stm32f0xx_hal_can.c ****           Note that the CAN state (accessible from the API HAL_CAN_GetState())
 130:Drivers/STM32F0xx_HAL_Driver/Src/stm32f0xx_hal_can.c ****           is HAL_CAN_STATE_SLEEP_PENDING as soon as the sleep mode request is
 131:Drivers/STM32F0xx_HAL_Driver/Src/stm32f0xx_hal_can.c ****           submitted (the sleep mode is not yet entered), and become
 132:Drivers/STM32F0xx_HAL_Driver/Src/stm32f0xx_hal_can.c ****           HAL_CAN_STATE_SLEEP_ACTIVE when the sleep mode is effective.
 133:Drivers/STM32F0xx_HAL_Driver/Src/stm32f0xx_hal_can.c **** 
 134:Drivers/STM32F0xx_HAL_Driver/Src/stm32f0xx_hal_can.c ****       (#) The wake-up from sleep mode can be triggered by two ways:
 135:Drivers/STM32F0xx_HAL_Driver/Src/stm32f0xx_hal_can.c ****             (++) Using HAL_CAN_WakeUp(). When returning from this function,
 136:Drivers/STM32F0xx_HAL_Driver/Src/stm32f0xx_hal_can.c ****                  the sleep mode is exited (if return status is HAL_OK).
 137:Drivers/STM32F0xx_HAL_Driver/Src/stm32f0xx_hal_can.c ****             (++) When a start of Rx CAN frame is detected by the CAN peripheral,
 138:Drivers/STM32F0xx_HAL_Driver/Src/stm32f0xx_hal_can.c ****                  if automatic wake up mode is enabled.
 139:Drivers/STM32F0xx_HAL_Driver/Src/stm32f0xx_hal_can.c **** 
 140:Drivers/STM32F0xx_HAL_Driver/Src/stm32f0xx_hal_can.c ****   *** Callback registration ***
 141:Drivers/STM32F0xx_HAL_Driver/Src/stm32f0xx_hal_can.c ****   =============================================
 142:Drivers/STM32F0xx_HAL_Driver/Src/stm32f0xx_hal_can.c **** 
 143:Drivers/STM32F0xx_HAL_Driver/Src/stm32f0xx_hal_can.c ****   The compilation define  USE_HAL_CAN_REGISTER_CALLBACKS when set to 1
 144:Drivers/STM32F0xx_HAL_Driver/Src/stm32f0xx_hal_can.c ****   allows the user to configure dynamically the driver callbacks.
 145:Drivers/STM32F0xx_HAL_Driver/Src/stm32f0xx_hal_can.c ****   Use Function HAL_CAN_RegisterCallback() to register an interrupt callback.
ARM GAS  C:\Users\xhex8\AppData\Local\Temp\ccvcBrdy.s 			page 4


 146:Drivers/STM32F0xx_HAL_Driver/Src/stm32f0xx_hal_can.c **** 
 147:Drivers/STM32F0xx_HAL_Driver/Src/stm32f0xx_hal_can.c ****   Function HAL_CAN_RegisterCallback() allows to register following callbacks:
 148:Drivers/STM32F0xx_HAL_Driver/Src/stm32f0xx_hal_can.c ****     (+) TxMailbox0CompleteCallback   : Tx Mailbox 0 Complete Callback.
 149:Drivers/STM32F0xx_HAL_Driver/Src/stm32f0xx_hal_can.c ****     (+) TxMailbox1CompleteCallback   : Tx Mailbox 1 Complete Callback.
 150:Drivers/STM32F0xx_HAL_Driver/Src/stm32f0xx_hal_can.c ****     (+) TxMailbox2CompleteCallback   : Tx Mailbox 2 Complete Callback.
 151:Drivers/STM32F0xx_HAL_Driver/Src/stm32f0xx_hal_can.c ****     (+) TxMailbox0AbortCallback      : Tx Mailbox 0 Abort Callback.
 152:Drivers/STM32F0xx_HAL_Driver/Src/stm32f0xx_hal_can.c ****     (+) TxMailbox1AbortCallback      : Tx Mailbox 1 Abort Callback.
 153:Drivers/STM32F0xx_HAL_Driver/Src/stm32f0xx_hal_can.c ****     (+) TxMailbox2AbortCallback      : Tx Mailbox 2 Abort Callback.
 154:Drivers/STM32F0xx_HAL_Driver/Src/stm32f0xx_hal_can.c ****     (+) RxFifo0MsgPendingCallback    : Rx Fifo 0 Message Pending Callback.
 155:Drivers/STM32F0xx_HAL_Driver/Src/stm32f0xx_hal_can.c ****     (+) RxFifo0FullCallback          : Rx Fifo 0 Full Callback.
 156:Drivers/STM32F0xx_HAL_Driver/Src/stm32f0xx_hal_can.c ****     (+) RxFifo1MsgPendingCallback    : Rx Fifo 1 Message Pending Callback.
 157:Drivers/STM32F0xx_HAL_Driver/Src/stm32f0xx_hal_can.c ****     (+) RxFifo1FullCallback          : Rx Fifo 1 Full Callback.
 158:Drivers/STM32F0xx_HAL_Driver/Src/stm32f0xx_hal_can.c ****     (+) SleepCallback                : Sleep Callback.
 159:Drivers/STM32F0xx_HAL_Driver/Src/stm32f0xx_hal_can.c ****     (+) WakeUpFromRxMsgCallback      : Wake Up From Rx Message Callback.
 160:Drivers/STM32F0xx_HAL_Driver/Src/stm32f0xx_hal_can.c ****     (+) ErrorCallback                : Error Callback.
 161:Drivers/STM32F0xx_HAL_Driver/Src/stm32f0xx_hal_can.c ****     (+) MspInitCallback              : CAN MspInit.
 162:Drivers/STM32F0xx_HAL_Driver/Src/stm32f0xx_hal_can.c ****     (+) MspDeInitCallback            : CAN MspDeInit.
 163:Drivers/STM32F0xx_HAL_Driver/Src/stm32f0xx_hal_can.c ****   This function takes as parameters the HAL peripheral handle, the Callback ID
 164:Drivers/STM32F0xx_HAL_Driver/Src/stm32f0xx_hal_can.c ****   and a pointer to the user callback function.
 165:Drivers/STM32F0xx_HAL_Driver/Src/stm32f0xx_hal_can.c **** 
 166:Drivers/STM32F0xx_HAL_Driver/Src/stm32f0xx_hal_can.c ****   Use function HAL_CAN_UnRegisterCallback() to reset a callback to the default
 167:Drivers/STM32F0xx_HAL_Driver/Src/stm32f0xx_hal_can.c ****   weak function.
 168:Drivers/STM32F0xx_HAL_Driver/Src/stm32f0xx_hal_can.c ****   HAL_CAN_UnRegisterCallback takes as parameters the HAL peripheral handle,
 169:Drivers/STM32F0xx_HAL_Driver/Src/stm32f0xx_hal_can.c ****   and the Callback ID.
 170:Drivers/STM32F0xx_HAL_Driver/Src/stm32f0xx_hal_can.c ****   This function allows to reset following callbacks:
 171:Drivers/STM32F0xx_HAL_Driver/Src/stm32f0xx_hal_can.c ****     (+) TxMailbox0CompleteCallback   : Tx Mailbox 0 Complete Callback.
 172:Drivers/STM32F0xx_HAL_Driver/Src/stm32f0xx_hal_can.c ****     (+) TxMailbox1CompleteCallback   : Tx Mailbox 1 Complete Callback.
 173:Drivers/STM32F0xx_HAL_Driver/Src/stm32f0xx_hal_can.c ****     (+) TxMailbox2CompleteCallback   : Tx Mailbox 2 Complete Callback.
 174:Drivers/STM32F0xx_HAL_Driver/Src/stm32f0xx_hal_can.c ****     (+) TxMailbox0AbortCallback      : Tx Mailbox 0 Abort Callback.
 175:Drivers/STM32F0xx_HAL_Driver/Src/stm32f0xx_hal_can.c ****     (+) TxMailbox1AbortCallback      : Tx Mailbox 1 Abort Callback.
 176:Drivers/STM32F0xx_HAL_Driver/Src/stm32f0xx_hal_can.c ****     (+) TxMailbox2AbortCallback      : Tx Mailbox 2 Abort Callback.
 177:Drivers/STM32F0xx_HAL_Driver/Src/stm32f0xx_hal_can.c ****     (+) RxFifo0MsgPendingCallback    : Rx Fifo 0 Message Pending Callback.
 178:Drivers/STM32F0xx_HAL_Driver/Src/stm32f0xx_hal_can.c ****     (+) RxFifo0FullCallback          : Rx Fifo 0 Full Callback.
 179:Drivers/STM32F0xx_HAL_Driver/Src/stm32f0xx_hal_can.c ****     (+) RxFifo1MsgPendingCallback    : Rx Fifo 1 Message Pending Callback.
 180:Drivers/STM32F0xx_HAL_Driver/Src/stm32f0xx_hal_can.c ****     (+) RxFifo1FullCallback          : Rx Fifo 1 Full Callback.
 181:Drivers/STM32F0xx_HAL_Driver/Src/stm32f0xx_hal_can.c ****     (+) SleepCallback                : Sleep Callback.
 182:Drivers/STM32F0xx_HAL_Driver/Src/stm32f0xx_hal_can.c ****     (+) WakeUpFromRxMsgCallback      : Wake Up From Rx Message Callback.
 183:Drivers/STM32F0xx_HAL_Driver/Src/stm32f0xx_hal_can.c ****     (+) ErrorCallback                : Error Callback.
 184:Drivers/STM32F0xx_HAL_Driver/Src/stm32f0xx_hal_can.c ****     (+) MspInitCallback              : CAN MspInit.
 185:Drivers/STM32F0xx_HAL_Driver/Src/stm32f0xx_hal_can.c ****     (+) MspDeInitCallback            : CAN MspDeInit.
 186:Drivers/STM32F0xx_HAL_Driver/Src/stm32f0xx_hal_can.c **** 
 187:Drivers/STM32F0xx_HAL_Driver/Src/stm32f0xx_hal_can.c ****   By default, after the HAL_CAN_Init() and when the state is HAL_CAN_STATE_RESET,
 188:Drivers/STM32F0xx_HAL_Driver/Src/stm32f0xx_hal_can.c ****   all callbacks are set to the corresponding weak functions:
 189:Drivers/STM32F0xx_HAL_Driver/Src/stm32f0xx_hal_can.c ****   example HAL_CAN_ErrorCallback().
 190:Drivers/STM32F0xx_HAL_Driver/Src/stm32f0xx_hal_can.c ****   Exception done for MspInit and MspDeInit functions that are
 191:Drivers/STM32F0xx_HAL_Driver/Src/stm32f0xx_hal_can.c ****   reset to the legacy weak function in the HAL_CAN_Init()/ HAL_CAN_DeInit() only when
 192:Drivers/STM32F0xx_HAL_Driver/Src/stm32f0xx_hal_can.c ****   these callbacks are null (not registered beforehand).
 193:Drivers/STM32F0xx_HAL_Driver/Src/stm32f0xx_hal_can.c ****   if not, MspInit or MspDeInit are not null, the HAL_CAN_Init()/ HAL_CAN_DeInit()
 194:Drivers/STM32F0xx_HAL_Driver/Src/stm32f0xx_hal_can.c ****   keep and use the user MspInit/MspDeInit callbacks (registered beforehand)
 195:Drivers/STM32F0xx_HAL_Driver/Src/stm32f0xx_hal_can.c **** 
 196:Drivers/STM32F0xx_HAL_Driver/Src/stm32f0xx_hal_can.c ****   Callbacks can be registered/unregistered in HAL_CAN_STATE_READY state only.
 197:Drivers/STM32F0xx_HAL_Driver/Src/stm32f0xx_hal_can.c ****   Exception done MspInit/MspDeInit that can be registered/unregistered
 198:Drivers/STM32F0xx_HAL_Driver/Src/stm32f0xx_hal_can.c ****   in HAL_CAN_STATE_READY or HAL_CAN_STATE_RESET state,
 199:Drivers/STM32F0xx_HAL_Driver/Src/stm32f0xx_hal_can.c ****   thus registered (user) MspInit/DeInit callbacks can be used during the Init/DeInit.
 200:Drivers/STM32F0xx_HAL_Driver/Src/stm32f0xx_hal_can.c ****   In that case first register the MspInit/MspDeInit user callbacks
 201:Drivers/STM32F0xx_HAL_Driver/Src/stm32f0xx_hal_can.c ****   using HAL_CAN_RegisterCallback() before calling HAL_CAN_DeInit()
 202:Drivers/STM32F0xx_HAL_Driver/Src/stm32f0xx_hal_can.c ****   or HAL_CAN_Init() function.
ARM GAS  C:\Users\xhex8\AppData\Local\Temp\ccvcBrdy.s 			page 5


 203:Drivers/STM32F0xx_HAL_Driver/Src/stm32f0xx_hal_can.c **** 
 204:Drivers/STM32F0xx_HAL_Driver/Src/stm32f0xx_hal_can.c ****   When The compilation define USE_HAL_CAN_REGISTER_CALLBACKS is set to 0 or
 205:Drivers/STM32F0xx_HAL_Driver/Src/stm32f0xx_hal_can.c ****   not defined, the callback registration feature is not available and all callbacks
 206:Drivers/STM32F0xx_HAL_Driver/Src/stm32f0xx_hal_can.c ****   are set to the corresponding weak functions.
 207:Drivers/STM32F0xx_HAL_Driver/Src/stm32f0xx_hal_can.c **** 
 208:Drivers/STM32F0xx_HAL_Driver/Src/stm32f0xx_hal_can.c ****   @endverbatim
 209:Drivers/STM32F0xx_HAL_Driver/Src/stm32f0xx_hal_can.c ****   ******************************************************************************
 210:Drivers/STM32F0xx_HAL_Driver/Src/stm32f0xx_hal_can.c ****   */
 211:Drivers/STM32F0xx_HAL_Driver/Src/stm32f0xx_hal_can.c **** 
 212:Drivers/STM32F0xx_HAL_Driver/Src/stm32f0xx_hal_can.c **** /* Includes ------------------------------------------------------------------*/
 213:Drivers/STM32F0xx_HAL_Driver/Src/stm32f0xx_hal_can.c **** #include "stm32f0xx_hal.h"
 214:Drivers/STM32F0xx_HAL_Driver/Src/stm32f0xx_hal_can.c **** 
 215:Drivers/STM32F0xx_HAL_Driver/Src/stm32f0xx_hal_can.c **** /** @addtogroup STM32F0xx_HAL_Driver
 216:Drivers/STM32F0xx_HAL_Driver/Src/stm32f0xx_hal_can.c ****   * @{
 217:Drivers/STM32F0xx_HAL_Driver/Src/stm32f0xx_hal_can.c ****   */
 218:Drivers/STM32F0xx_HAL_Driver/Src/stm32f0xx_hal_can.c **** 
 219:Drivers/STM32F0xx_HAL_Driver/Src/stm32f0xx_hal_can.c **** #if defined(CAN)
 220:Drivers/STM32F0xx_HAL_Driver/Src/stm32f0xx_hal_can.c **** 
 221:Drivers/STM32F0xx_HAL_Driver/Src/stm32f0xx_hal_can.c **** /** @defgroup CAN CAN
 222:Drivers/STM32F0xx_HAL_Driver/Src/stm32f0xx_hal_can.c ****   * @brief CAN driver modules
 223:Drivers/STM32F0xx_HAL_Driver/Src/stm32f0xx_hal_can.c ****   * @{
 224:Drivers/STM32F0xx_HAL_Driver/Src/stm32f0xx_hal_can.c ****   */
 225:Drivers/STM32F0xx_HAL_Driver/Src/stm32f0xx_hal_can.c **** 
 226:Drivers/STM32F0xx_HAL_Driver/Src/stm32f0xx_hal_can.c **** #ifdef HAL_CAN_MODULE_ENABLED
 227:Drivers/STM32F0xx_HAL_Driver/Src/stm32f0xx_hal_can.c **** 
 228:Drivers/STM32F0xx_HAL_Driver/Src/stm32f0xx_hal_can.c **** #ifdef HAL_CAN_LEGACY_MODULE_ENABLED
 229:Drivers/STM32F0xx_HAL_Driver/Src/stm32f0xx_hal_can.c **** #error "The CAN driver cannot be used with its legacy, Please enable only one CAN module at once"
 230:Drivers/STM32F0xx_HAL_Driver/Src/stm32f0xx_hal_can.c **** #endif /* HAL_CAN_LEGACY_MODULE_ENABLED */
 231:Drivers/STM32F0xx_HAL_Driver/Src/stm32f0xx_hal_can.c **** 
 232:Drivers/STM32F0xx_HAL_Driver/Src/stm32f0xx_hal_can.c **** /* Private typedef -----------------------------------------------------------*/
 233:Drivers/STM32F0xx_HAL_Driver/Src/stm32f0xx_hal_can.c **** /* Private define ------------------------------------------------------------*/
 234:Drivers/STM32F0xx_HAL_Driver/Src/stm32f0xx_hal_can.c **** /** @defgroup CAN_Private_Constants CAN Private Constants
 235:Drivers/STM32F0xx_HAL_Driver/Src/stm32f0xx_hal_can.c ****   * @{
 236:Drivers/STM32F0xx_HAL_Driver/Src/stm32f0xx_hal_can.c ****   */
 237:Drivers/STM32F0xx_HAL_Driver/Src/stm32f0xx_hal_can.c **** #define CAN_TIMEOUT_VALUE 10U
 238:Drivers/STM32F0xx_HAL_Driver/Src/stm32f0xx_hal_can.c **** #define CAN_WAKEUP_TIMEOUT_COUNTER 1000000U
 239:Drivers/STM32F0xx_HAL_Driver/Src/stm32f0xx_hal_can.c **** /**
 240:Drivers/STM32F0xx_HAL_Driver/Src/stm32f0xx_hal_can.c ****   * @}
 241:Drivers/STM32F0xx_HAL_Driver/Src/stm32f0xx_hal_can.c ****   */
 242:Drivers/STM32F0xx_HAL_Driver/Src/stm32f0xx_hal_can.c **** /* Private macro -------------------------------------------------------------*/
 243:Drivers/STM32F0xx_HAL_Driver/Src/stm32f0xx_hal_can.c **** /* Private variables ---------------------------------------------------------*/
 244:Drivers/STM32F0xx_HAL_Driver/Src/stm32f0xx_hal_can.c **** /* Private function prototypes -----------------------------------------------*/
 245:Drivers/STM32F0xx_HAL_Driver/Src/stm32f0xx_hal_can.c **** /* Exported functions --------------------------------------------------------*/
 246:Drivers/STM32F0xx_HAL_Driver/Src/stm32f0xx_hal_can.c **** 
 247:Drivers/STM32F0xx_HAL_Driver/Src/stm32f0xx_hal_can.c **** /** @defgroup CAN_Exported_Functions CAN Exported Functions
 248:Drivers/STM32F0xx_HAL_Driver/Src/stm32f0xx_hal_can.c ****   * @{
 249:Drivers/STM32F0xx_HAL_Driver/Src/stm32f0xx_hal_can.c ****   */
 250:Drivers/STM32F0xx_HAL_Driver/Src/stm32f0xx_hal_can.c **** 
 251:Drivers/STM32F0xx_HAL_Driver/Src/stm32f0xx_hal_can.c **** /** @defgroup CAN_Exported_Functions_Group1 Initialization and de-initialization functions
 252:Drivers/STM32F0xx_HAL_Driver/Src/stm32f0xx_hal_can.c ****   * @brief    Initialization and Configuration functions
 253:Drivers/STM32F0xx_HAL_Driver/Src/stm32f0xx_hal_can.c ****   *
 254:Drivers/STM32F0xx_HAL_Driver/Src/stm32f0xx_hal_can.c **** @verbatim
 255:Drivers/STM32F0xx_HAL_Driver/Src/stm32f0xx_hal_can.c ****   ==============================================================================
 256:Drivers/STM32F0xx_HAL_Driver/Src/stm32f0xx_hal_can.c ****               ##### Initialization and de-initialization functions #####
 257:Drivers/STM32F0xx_HAL_Driver/Src/stm32f0xx_hal_can.c ****   ==============================================================================
 258:Drivers/STM32F0xx_HAL_Driver/Src/stm32f0xx_hal_can.c ****     [..]  This section provides functions allowing to:
 259:Drivers/STM32F0xx_HAL_Driver/Src/stm32f0xx_hal_can.c ****       (+) HAL_CAN_Init                       : Initialize and configure the CAN.
ARM GAS  C:\Users\xhex8\AppData\Local\Temp\ccvcBrdy.s 			page 6


 260:Drivers/STM32F0xx_HAL_Driver/Src/stm32f0xx_hal_can.c ****       (+) HAL_CAN_DeInit                     : De-initialize the CAN.
 261:Drivers/STM32F0xx_HAL_Driver/Src/stm32f0xx_hal_can.c ****       (+) HAL_CAN_MspInit                    : Initialize the CAN MSP.
 262:Drivers/STM32F0xx_HAL_Driver/Src/stm32f0xx_hal_can.c ****       (+) HAL_CAN_MspDeInit                  : DeInitialize the CAN MSP.
 263:Drivers/STM32F0xx_HAL_Driver/Src/stm32f0xx_hal_can.c **** 
 264:Drivers/STM32F0xx_HAL_Driver/Src/stm32f0xx_hal_can.c **** @endverbatim
 265:Drivers/STM32F0xx_HAL_Driver/Src/stm32f0xx_hal_can.c ****   * @{
 266:Drivers/STM32F0xx_HAL_Driver/Src/stm32f0xx_hal_can.c ****   */
 267:Drivers/STM32F0xx_HAL_Driver/Src/stm32f0xx_hal_can.c **** 
 268:Drivers/STM32F0xx_HAL_Driver/Src/stm32f0xx_hal_can.c **** /**
 269:Drivers/STM32F0xx_HAL_Driver/Src/stm32f0xx_hal_can.c ****   * @brief  Initializes the CAN peripheral according to the specified
 270:Drivers/STM32F0xx_HAL_Driver/Src/stm32f0xx_hal_can.c ****   *         parameters in the CAN_InitStruct.
 271:Drivers/STM32F0xx_HAL_Driver/Src/stm32f0xx_hal_can.c ****   * @param  hcan pointer to a CAN_HandleTypeDef structure that contains
 272:Drivers/STM32F0xx_HAL_Driver/Src/stm32f0xx_hal_can.c ****   *         the configuration information for the specified CAN.
 273:Drivers/STM32F0xx_HAL_Driver/Src/stm32f0xx_hal_can.c ****   * @retval HAL status
 274:Drivers/STM32F0xx_HAL_Driver/Src/stm32f0xx_hal_can.c ****   */
 275:Drivers/STM32F0xx_HAL_Driver/Src/stm32f0xx_hal_can.c **** HAL_StatusTypeDef HAL_CAN_Init(CAN_HandleTypeDef *hcan)
 276:Drivers/STM32F0xx_HAL_Driver/Src/stm32f0xx_hal_can.c **** {
 277:Drivers/STM32F0xx_HAL_Driver/Src/stm32f0xx_hal_can.c ****   uint32_t tickstart;
 278:Drivers/STM32F0xx_HAL_Driver/Src/stm32f0xx_hal_can.c **** 
 279:Drivers/STM32F0xx_HAL_Driver/Src/stm32f0xx_hal_can.c ****   /* Check CAN handle */
 280:Drivers/STM32F0xx_HAL_Driver/Src/stm32f0xx_hal_can.c ****   if (hcan == NULL)
 281:Drivers/STM32F0xx_HAL_Driver/Src/stm32f0xx_hal_can.c ****   {
 282:Drivers/STM32F0xx_HAL_Driver/Src/stm32f0xx_hal_can.c ****     return HAL_ERROR;
 283:Drivers/STM32F0xx_HAL_Driver/Src/stm32f0xx_hal_can.c ****   }
 284:Drivers/STM32F0xx_HAL_Driver/Src/stm32f0xx_hal_can.c **** 
 285:Drivers/STM32F0xx_HAL_Driver/Src/stm32f0xx_hal_can.c ****   /* Check the parameters */
 286:Drivers/STM32F0xx_HAL_Driver/Src/stm32f0xx_hal_can.c ****   assert_param(IS_CAN_ALL_INSTANCE(hcan->Instance));
 287:Drivers/STM32F0xx_HAL_Driver/Src/stm32f0xx_hal_can.c ****   assert_param(IS_FUNCTIONAL_STATE(hcan->Init.TimeTriggeredMode));
 288:Drivers/STM32F0xx_HAL_Driver/Src/stm32f0xx_hal_can.c ****   assert_param(IS_FUNCTIONAL_STATE(hcan->Init.AutoBusOff));
 289:Drivers/STM32F0xx_HAL_Driver/Src/stm32f0xx_hal_can.c ****   assert_param(IS_FUNCTIONAL_STATE(hcan->Init.AutoWakeUp));
 290:Drivers/STM32F0xx_HAL_Driver/Src/stm32f0xx_hal_can.c ****   assert_param(IS_FUNCTIONAL_STATE(hcan->Init.AutoRetransmission));
 291:Drivers/STM32F0xx_HAL_Driver/Src/stm32f0xx_hal_can.c ****   assert_param(IS_FUNCTIONAL_STATE(hcan->Init.ReceiveFifoLocked));
 292:Drivers/STM32F0xx_HAL_Driver/Src/stm32f0xx_hal_can.c ****   assert_param(IS_FUNCTIONAL_STATE(hcan->Init.TransmitFifoPriority));
 293:Drivers/STM32F0xx_HAL_Driver/Src/stm32f0xx_hal_can.c ****   assert_param(IS_CAN_MODE(hcan->Init.Mode));
 294:Drivers/STM32F0xx_HAL_Driver/Src/stm32f0xx_hal_can.c ****   assert_param(IS_CAN_SJW(hcan->Init.SyncJumpWidth));
 295:Drivers/STM32F0xx_HAL_Driver/Src/stm32f0xx_hal_can.c ****   assert_param(IS_CAN_BS1(hcan->Init.TimeSeg1));
 296:Drivers/STM32F0xx_HAL_Driver/Src/stm32f0xx_hal_can.c ****   assert_param(IS_CAN_BS2(hcan->Init.TimeSeg2));
 297:Drivers/STM32F0xx_HAL_Driver/Src/stm32f0xx_hal_can.c ****   assert_param(IS_CAN_PRESCALER(hcan->Init.Prescaler));
 298:Drivers/STM32F0xx_HAL_Driver/Src/stm32f0xx_hal_can.c **** 
 299:Drivers/STM32F0xx_HAL_Driver/Src/stm32f0xx_hal_can.c **** #if USE_HAL_CAN_REGISTER_CALLBACKS == 1
 300:Drivers/STM32F0xx_HAL_Driver/Src/stm32f0xx_hal_can.c ****   if (hcan->State == HAL_CAN_STATE_RESET)
 301:Drivers/STM32F0xx_HAL_Driver/Src/stm32f0xx_hal_can.c ****   {
 302:Drivers/STM32F0xx_HAL_Driver/Src/stm32f0xx_hal_can.c ****     /* Reset callbacks to legacy functions */
 303:Drivers/STM32F0xx_HAL_Driver/Src/stm32f0xx_hal_can.c ****     hcan->RxFifo0MsgPendingCallback  =  HAL_CAN_RxFifo0MsgPendingCallback;  /* Legacy weak RxFifo0M
 304:Drivers/STM32F0xx_HAL_Driver/Src/stm32f0xx_hal_can.c ****     hcan->RxFifo0FullCallback        =  HAL_CAN_RxFifo0FullCallback;        /* Legacy weak RxFifo0F
 305:Drivers/STM32F0xx_HAL_Driver/Src/stm32f0xx_hal_can.c ****     hcan->RxFifo1MsgPendingCallback  =  HAL_CAN_RxFifo1MsgPendingCallback;  /* Legacy weak RxFifo1M
 306:Drivers/STM32F0xx_HAL_Driver/Src/stm32f0xx_hal_can.c ****     hcan->RxFifo1FullCallback        =  HAL_CAN_RxFifo1FullCallback;        /* Legacy weak RxFifo1F
 307:Drivers/STM32F0xx_HAL_Driver/Src/stm32f0xx_hal_can.c ****     hcan->TxMailbox0CompleteCallback =  HAL_CAN_TxMailbox0CompleteCallback; /* Legacy weak TxMailbo
 308:Drivers/STM32F0xx_HAL_Driver/Src/stm32f0xx_hal_can.c ****     hcan->TxMailbox1CompleteCallback =  HAL_CAN_TxMailbox1CompleteCallback; /* Legacy weak TxMailbo
 309:Drivers/STM32F0xx_HAL_Driver/Src/stm32f0xx_hal_can.c ****     hcan->TxMailbox2CompleteCallback =  HAL_CAN_TxMailbox2CompleteCallback; /* Legacy weak TxMailbo
 310:Drivers/STM32F0xx_HAL_Driver/Src/stm32f0xx_hal_can.c ****     hcan->TxMailbox0AbortCallback    =  HAL_CAN_TxMailbox0AbortCallback;    /* Legacy weak TxMailbo
 311:Drivers/STM32F0xx_HAL_Driver/Src/stm32f0xx_hal_can.c ****     hcan->TxMailbox1AbortCallback    =  HAL_CAN_TxMailbox1AbortCallback;    /* Legacy weak TxMailbo
 312:Drivers/STM32F0xx_HAL_Driver/Src/stm32f0xx_hal_can.c ****     hcan->TxMailbox2AbortCallback    =  HAL_CAN_TxMailbox2AbortCallback;    /* Legacy weak TxMailbo
 313:Drivers/STM32F0xx_HAL_Driver/Src/stm32f0xx_hal_can.c ****     hcan->SleepCallback              =  HAL_CAN_SleepCallback;              /* Legacy weak SleepCal
 314:Drivers/STM32F0xx_HAL_Driver/Src/stm32f0xx_hal_can.c ****     hcan->WakeUpFromRxMsgCallback    =  HAL_CAN_WakeUpFromRxMsgCallback;    /* Legacy weak WakeUpFr
 315:Drivers/STM32F0xx_HAL_Driver/Src/stm32f0xx_hal_can.c ****     hcan->ErrorCallback              =  HAL_CAN_ErrorCallback;              /* Legacy weak ErrorCal
 316:Drivers/STM32F0xx_HAL_Driver/Src/stm32f0xx_hal_can.c **** 
ARM GAS  C:\Users\xhex8\AppData\Local\Temp\ccvcBrdy.s 			page 7


 317:Drivers/STM32F0xx_HAL_Driver/Src/stm32f0xx_hal_can.c ****     if (hcan->MspInitCallback == NULL)
 318:Drivers/STM32F0xx_HAL_Driver/Src/stm32f0xx_hal_can.c ****     {
 319:Drivers/STM32F0xx_HAL_Driver/Src/stm32f0xx_hal_can.c ****       hcan->MspInitCallback = HAL_CAN_MspInit; /* Legacy weak MspInit */
 320:Drivers/STM32F0xx_HAL_Driver/Src/stm32f0xx_hal_can.c ****     }
 321:Drivers/STM32F0xx_HAL_Driver/Src/stm32f0xx_hal_can.c **** 
 322:Drivers/STM32F0xx_HAL_Driver/Src/stm32f0xx_hal_can.c ****     /* Init the low level hardware: CLOCK, NVIC */
 323:Drivers/STM32F0xx_HAL_Driver/Src/stm32f0xx_hal_can.c ****     hcan->MspInitCallback(hcan);
 324:Drivers/STM32F0xx_HAL_Driver/Src/stm32f0xx_hal_can.c ****   }
 325:Drivers/STM32F0xx_HAL_Driver/Src/stm32f0xx_hal_can.c **** 
 326:Drivers/STM32F0xx_HAL_Driver/Src/stm32f0xx_hal_can.c **** #else
 327:Drivers/STM32F0xx_HAL_Driver/Src/stm32f0xx_hal_can.c ****   if (hcan->State == HAL_CAN_STATE_RESET)
 328:Drivers/STM32F0xx_HAL_Driver/Src/stm32f0xx_hal_can.c ****   {
 329:Drivers/STM32F0xx_HAL_Driver/Src/stm32f0xx_hal_can.c ****     /* Init the low level hardware: CLOCK, NVIC */
 330:Drivers/STM32F0xx_HAL_Driver/Src/stm32f0xx_hal_can.c ****     HAL_CAN_MspInit(hcan);
 331:Drivers/STM32F0xx_HAL_Driver/Src/stm32f0xx_hal_can.c ****   }
 332:Drivers/STM32F0xx_HAL_Driver/Src/stm32f0xx_hal_can.c **** #endif /* USE_HAL_CAN_REGISTER_CALLBACKS */
 333:Drivers/STM32F0xx_HAL_Driver/Src/stm32f0xx_hal_can.c **** 
 334:Drivers/STM32F0xx_HAL_Driver/Src/stm32f0xx_hal_can.c ****   /* Request initialisation */
 335:Drivers/STM32F0xx_HAL_Driver/Src/stm32f0xx_hal_can.c ****   SET_BIT(hcan->Instance->MCR, CAN_MCR_INRQ);
 336:Drivers/STM32F0xx_HAL_Driver/Src/stm32f0xx_hal_can.c **** 
 337:Drivers/STM32F0xx_HAL_Driver/Src/stm32f0xx_hal_can.c ****   /* Get tick */
 338:Drivers/STM32F0xx_HAL_Driver/Src/stm32f0xx_hal_can.c ****   tickstart = HAL_GetTick();
 339:Drivers/STM32F0xx_HAL_Driver/Src/stm32f0xx_hal_can.c **** 
 340:Drivers/STM32F0xx_HAL_Driver/Src/stm32f0xx_hal_can.c ****   /* Wait initialisation acknowledge */
 341:Drivers/STM32F0xx_HAL_Driver/Src/stm32f0xx_hal_can.c ****   while ((hcan->Instance->MSR & CAN_MSR_INAK) == 0U)
 342:Drivers/STM32F0xx_HAL_Driver/Src/stm32f0xx_hal_can.c ****   {
 343:Drivers/STM32F0xx_HAL_Driver/Src/stm32f0xx_hal_can.c ****     if ((HAL_GetTick() - tickstart) > CAN_TIMEOUT_VALUE)
 344:Drivers/STM32F0xx_HAL_Driver/Src/stm32f0xx_hal_can.c ****     {
 345:Drivers/STM32F0xx_HAL_Driver/Src/stm32f0xx_hal_can.c ****       /* Update error code */
 346:Drivers/STM32F0xx_HAL_Driver/Src/stm32f0xx_hal_can.c ****       hcan->ErrorCode |= HAL_CAN_ERROR_TIMEOUT;
 347:Drivers/STM32F0xx_HAL_Driver/Src/stm32f0xx_hal_can.c **** 
 348:Drivers/STM32F0xx_HAL_Driver/Src/stm32f0xx_hal_can.c ****       /* Change CAN state */
 349:Drivers/STM32F0xx_HAL_Driver/Src/stm32f0xx_hal_can.c ****       hcan->State = HAL_CAN_STATE_ERROR;
 350:Drivers/STM32F0xx_HAL_Driver/Src/stm32f0xx_hal_can.c **** 
 351:Drivers/STM32F0xx_HAL_Driver/Src/stm32f0xx_hal_can.c ****       return HAL_ERROR;
 352:Drivers/STM32F0xx_HAL_Driver/Src/stm32f0xx_hal_can.c ****     }
 353:Drivers/STM32F0xx_HAL_Driver/Src/stm32f0xx_hal_can.c ****   }
 354:Drivers/STM32F0xx_HAL_Driver/Src/stm32f0xx_hal_can.c **** 
 355:Drivers/STM32F0xx_HAL_Driver/Src/stm32f0xx_hal_can.c ****   /* Exit from sleep mode */
 356:Drivers/STM32F0xx_HAL_Driver/Src/stm32f0xx_hal_can.c ****   CLEAR_BIT(hcan->Instance->MCR, CAN_MCR_SLEEP);
 357:Drivers/STM32F0xx_HAL_Driver/Src/stm32f0xx_hal_can.c **** 
 358:Drivers/STM32F0xx_HAL_Driver/Src/stm32f0xx_hal_can.c ****   /* Get tick */
 359:Drivers/STM32F0xx_HAL_Driver/Src/stm32f0xx_hal_can.c ****   tickstart = HAL_GetTick();
 360:Drivers/STM32F0xx_HAL_Driver/Src/stm32f0xx_hal_can.c **** 
 361:Drivers/STM32F0xx_HAL_Driver/Src/stm32f0xx_hal_can.c ****   /* Check Sleep mode leave acknowledge */
 362:Drivers/STM32F0xx_HAL_Driver/Src/stm32f0xx_hal_can.c ****   while ((hcan->Instance->MSR & CAN_MSR_SLAK) != 0U)
 363:Drivers/STM32F0xx_HAL_Driver/Src/stm32f0xx_hal_can.c ****   {
 364:Drivers/STM32F0xx_HAL_Driver/Src/stm32f0xx_hal_can.c ****     if ((HAL_GetTick() - tickstart) > CAN_TIMEOUT_VALUE)
 365:Drivers/STM32F0xx_HAL_Driver/Src/stm32f0xx_hal_can.c ****     {
 366:Drivers/STM32F0xx_HAL_Driver/Src/stm32f0xx_hal_can.c ****       /* Update error code */
 367:Drivers/STM32F0xx_HAL_Driver/Src/stm32f0xx_hal_can.c ****       hcan->ErrorCode |= HAL_CAN_ERROR_TIMEOUT;
 368:Drivers/STM32F0xx_HAL_Driver/Src/stm32f0xx_hal_can.c **** 
 369:Drivers/STM32F0xx_HAL_Driver/Src/stm32f0xx_hal_can.c ****       /* Change CAN state */
 370:Drivers/STM32F0xx_HAL_Driver/Src/stm32f0xx_hal_can.c ****       hcan->State = HAL_CAN_STATE_ERROR;
 371:Drivers/STM32F0xx_HAL_Driver/Src/stm32f0xx_hal_can.c **** 
 372:Drivers/STM32F0xx_HAL_Driver/Src/stm32f0xx_hal_can.c ****       return HAL_ERROR;
 373:Drivers/STM32F0xx_HAL_Driver/Src/stm32f0xx_hal_can.c ****     }
ARM GAS  C:\Users\xhex8\AppData\Local\Temp\ccvcBrdy.s 			page 8


 374:Drivers/STM32F0xx_HAL_Driver/Src/stm32f0xx_hal_can.c ****   }
 375:Drivers/STM32F0xx_HAL_Driver/Src/stm32f0xx_hal_can.c **** 
 376:Drivers/STM32F0xx_HAL_Driver/Src/stm32f0xx_hal_can.c ****   /* Set the time triggered communication mode */
 377:Drivers/STM32F0xx_HAL_Driver/Src/stm32f0xx_hal_can.c ****   if (hcan->Init.TimeTriggeredMode == ENABLE)
 378:Drivers/STM32F0xx_HAL_Driver/Src/stm32f0xx_hal_can.c ****   {
 379:Drivers/STM32F0xx_HAL_Driver/Src/stm32f0xx_hal_can.c ****     SET_BIT(hcan->Instance->MCR, CAN_MCR_TTCM);
 380:Drivers/STM32F0xx_HAL_Driver/Src/stm32f0xx_hal_can.c ****   }
 381:Drivers/STM32F0xx_HAL_Driver/Src/stm32f0xx_hal_can.c ****   else
 382:Drivers/STM32F0xx_HAL_Driver/Src/stm32f0xx_hal_can.c ****   {
 383:Drivers/STM32F0xx_HAL_Driver/Src/stm32f0xx_hal_can.c ****     CLEAR_BIT(hcan->Instance->MCR, CAN_MCR_TTCM);
 384:Drivers/STM32F0xx_HAL_Driver/Src/stm32f0xx_hal_can.c ****   }
 385:Drivers/STM32F0xx_HAL_Driver/Src/stm32f0xx_hal_can.c **** 
 386:Drivers/STM32F0xx_HAL_Driver/Src/stm32f0xx_hal_can.c ****   /* Set the automatic bus-off management */
 387:Drivers/STM32F0xx_HAL_Driver/Src/stm32f0xx_hal_can.c ****   if (hcan->Init.AutoBusOff == ENABLE)
 388:Drivers/STM32F0xx_HAL_Driver/Src/stm32f0xx_hal_can.c ****   {
 389:Drivers/STM32F0xx_HAL_Driver/Src/stm32f0xx_hal_can.c ****     SET_BIT(hcan->Instance->MCR, CAN_MCR_ABOM);
 390:Drivers/STM32F0xx_HAL_Driver/Src/stm32f0xx_hal_can.c ****   }
 391:Drivers/STM32F0xx_HAL_Driver/Src/stm32f0xx_hal_can.c ****   else
 392:Drivers/STM32F0xx_HAL_Driver/Src/stm32f0xx_hal_can.c ****   {
 393:Drivers/STM32F0xx_HAL_Driver/Src/stm32f0xx_hal_can.c ****     CLEAR_BIT(hcan->Instance->MCR, CAN_MCR_ABOM);
 394:Drivers/STM32F0xx_HAL_Driver/Src/stm32f0xx_hal_can.c ****   }
 395:Drivers/STM32F0xx_HAL_Driver/Src/stm32f0xx_hal_can.c **** 
 396:Drivers/STM32F0xx_HAL_Driver/Src/stm32f0xx_hal_can.c ****   /* Set the automatic wake-up mode */
 397:Drivers/STM32F0xx_HAL_Driver/Src/stm32f0xx_hal_can.c ****   if (hcan->Init.AutoWakeUp == ENABLE)
 398:Drivers/STM32F0xx_HAL_Driver/Src/stm32f0xx_hal_can.c ****   {
 399:Drivers/STM32F0xx_HAL_Driver/Src/stm32f0xx_hal_can.c ****     SET_BIT(hcan->Instance->MCR, CAN_MCR_AWUM);
 400:Drivers/STM32F0xx_HAL_Driver/Src/stm32f0xx_hal_can.c ****   }
 401:Drivers/STM32F0xx_HAL_Driver/Src/stm32f0xx_hal_can.c ****   else
 402:Drivers/STM32F0xx_HAL_Driver/Src/stm32f0xx_hal_can.c ****   {
 403:Drivers/STM32F0xx_HAL_Driver/Src/stm32f0xx_hal_can.c ****     CLEAR_BIT(hcan->Instance->MCR, CAN_MCR_AWUM);
 404:Drivers/STM32F0xx_HAL_Driver/Src/stm32f0xx_hal_can.c ****   }
 405:Drivers/STM32F0xx_HAL_Driver/Src/stm32f0xx_hal_can.c **** 
 406:Drivers/STM32F0xx_HAL_Driver/Src/stm32f0xx_hal_can.c ****   /* Set the automatic retransmission */
 407:Drivers/STM32F0xx_HAL_Driver/Src/stm32f0xx_hal_can.c ****   if (hcan->Init.AutoRetransmission == ENABLE)
 408:Drivers/STM32F0xx_HAL_Driver/Src/stm32f0xx_hal_can.c ****   {
 409:Drivers/STM32F0xx_HAL_Driver/Src/stm32f0xx_hal_can.c ****     CLEAR_BIT(hcan->Instance->MCR, CAN_MCR_NART);
 410:Drivers/STM32F0xx_HAL_Driver/Src/stm32f0xx_hal_can.c ****   }
 411:Drivers/STM32F0xx_HAL_Driver/Src/stm32f0xx_hal_can.c ****   else
 412:Drivers/STM32F0xx_HAL_Driver/Src/stm32f0xx_hal_can.c ****   {
 413:Drivers/STM32F0xx_HAL_Driver/Src/stm32f0xx_hal_can.c ****     SET_BIT(hcan->Instance->MCR, CAN_MCR_NART);
 414:Drivers/STM32F0xx_HAL_Driver/Src/stm32f0xx_hal_can.c ****   }
 415:Drivers/STM32F0xx_HAL_Driver/Src/stm32f0xx_hal_can.c **** 
 416:Drivers/STM32F0xx_HAL_Driver/Src/stm32f0xx_hal_can.c ****   /* Set the receive FIFO locked mode */
 417:Drivers/STM32F0xx_HAL_Driver/Src/stm32f0xx_hal_can.c ****   if (hcan->Init.ReceiveFifoLocked == ENABLE)
 418:Drivers/STM32F0xx_HAL_Driver/Src/stm32f0xx_hal_can.c ****   {
 419:Drivers/STM32F0xx_HAL_Driver/Src/stm32f0xx_hal_can.c ****     SET_BIT(hcan->Instance->MCR, CAN_MCR_RFLM);
 420:Drivers/STM32F0xx_HAL_Driver/Src/stm32f0xx_hal_can.c ****   }
 421:Drivers/STM32F0xx_HAL_Driver/Src/stm32f0xx_hal_can.c ****   else
 422:Drivers/STM32F0xx_HAL_Driver/Src/stm32f0xx_hal_can.c ****   {
 423:Drivers/STM32F0xx_HAL_Driver/Src/stm32f0xx_hal_can.c ****     CLEAR_BIT(hcan->Instance->MCR, CAN_MCR_RFLM);
 424:Drivers/STM32F0xx_HAL_Driver/Src/stm32f0xx_hal_can.c ****   }
 425:Drivers/STM32F0xx_HAL_Driver/Src/stm32f0xx_hal_can.c **** 
 426:Drivers/STM32F0xx_HAL_Driver/Src/stm32f0xx_hal_can.c ****   /* Set the transmit FIFO priority */
 427:Drivers/STM32F0xx_HAL_Driver/Src/stm32f0xx_hal_can.c ****   if (hcan->Init.TransmitFifoPriority == ENABLE)
 428:Drivers/STM32F0xx_HAL_Driver/Src/stm32f0xx_hal_can.c ****   {
 429:Drivers/STM32F0xx_HAL_Driver/Src/stm32f0xx_hal_can.c ****     SET_BIT(hcan->Instance->MCR, CAN_MCR_TXFP);
 430:Drivers/STM32F0xx_HAL_Driver/Src/stm32f0xx_hal_can.c ****   }
ARM GAS  C:\Users\xhex8\AppData\Local\Temp\ccvcBrdy.s 			page 9


 431:Drivers/STM32F0xx_HAL_Driver/Src/stm32f0xx_hal_can.c ****   else
 432:Drivers/STM32F0xx_HAL_Driver/Src/stm32f0xx_hal_can.c ****   {
 433:Drivers/STM32F0xx_HAL_Driver/Src/stm32f0xx_hal_can.c ****     CLEAR_BIT(hcan->Instance->MCR, CAN_MCR_TXFP);
 434:Drivers/STM32F0xx_HAL_Driver/Src/stm32f0xx_hal_can.c ****   }
 435:Drivers/STM32F0xx_HAL_Driver/Src/stm32f0xx_hal_can.c **** 
 436:Drivers/STM32F0xx_HAL_Driver/Src/stm32f0xx_hal_can.c ****   /* Set the bit timing register */
 437:Drivers/STM32F0xx_HAL_Driver/Src/stm32f0xx_hal_can.c ****   WRITE_REG(hcan->Instance->BTR, (uint32_t)(hcan->Init.Mode           |
 438:Drivers/STM32F0xx_HAL_Driver/Src/stm32f0xx_hal_can.c ****                                             hcan->Init.SyncJumpWidth  |
 439:Drivers/STM32F0xx_HAL_Driver/Src/stm32f0xx_hal_can.c ****                                             hcan->Init.TimeSeg1       |
 440:Drivers/STM32F0xx_HAL_Driver/Src/stm32f0xx_hal_can.c ****                                             hcan->Init.TimeSeg2       |
 441:Drivers/STM32F0xx_HAL_Driver/Src/stm32f0xx_hal_can.c ****                                             (hcan->Init.Prescaler - 1U)));
 442:Drivers/STM32F0xx_HAL_Driver/Src/stm32f0xx_hal_can.c **** 
 443:Drivers/STM32F0xx_HAL_Driver/Src/stm32f0xx_hal_can.c ****   /* Initialize the error code */
 444:Drivers/STM32F0xx_HAL_Driver/Src/stm32f0xx_hal_can.c ****   hcan->ErrorCode = HAL_CAN_ERROR_NONE;
 445:Drivers/STM32F0xx_HAL_Driver/Src/stm32f0xx_hal_can.c **** 
 446:Drivers/STM32F0xx_HAL_Driver/Src/stm32f0xx_hal_can.c ****   /* Initialize the CAN state */
 447:Drivers/STM32F0xx_HAL_Driver/Src/stm32f0xx_hal_can.c ****   hcan->State = HAL_CAN_STATE_READY;
 448:Drivers/STM32F0xx_HAL_Driver/Src/stm32f0xx_hal_can.c **** 
 449:Drivers/STM32F0xx_HAL_Driver/Src/stm32f0xx_hal_can.c ****   /* Return function status */
 450:Drivers/STM32F0xx_HAL_Driver/Src/stm32f0xx_hal_can.c ****   return HAL_OK;
 451:Drivers/STM32F0xx_HAL_Driver/Src/stm32f0xx_hal_can.c **** }
 452:Drivers/STM32F0xx_HAL_Driver/Src/stm32f0xx_hal_can.c **** 
 453:Drivers/STM32F0xx_HAL_Driver/Src/stm32f0xx_hal_can.c **** /**
 454:Drivers/STM32F0xx_HAL_Driver/Src/stm32f0xx_hal_can.c ****   * @brief  Deinitializes the CAN peripheral registers to their default
 455:Drivers/STM32F0xx_HAL_Driver/Src/stm32f0xx_hal_can.c ****   *         reset values.
 456:Drivers/STM32F0xx_HAL_Driver/Src/stm32f0xx_hal_can.c ****   * @param  hcan pointer to a CAN_HandleTypeDef structure that contains
 457:Drivers/STM32F0xx_HAL_Driver/Src/stm32f0xx_hal_can.c ****   *         the configuration information for the specified CAN.
 458:Drivers/STM32F0xx_HAL_Driver/Src/stm32f0xx_hal_can.c ****   * @retval HAL status
 459:Drivers/STM32F0xx_HAL_Driver/Src/stm32f0xx_hal_can.c ****   */
 460:Drivers/STM32F0xx_HAL_Driver/Src/stm32f0xx_hal_can.c **** HAL_StatusTypeDef HAL_CAN_DeInit(CAN_HandleTypeDef *hcan)
 461:Drivers/STM32F0xx_HAL_Driver/Src/stm32f0xx_hal_can.c **** {
 462:Drivers/STM32F0xx_HAL_Driver/Src/stm32f0xx_hal_can.c ****   /* Check CAN handle */
 463:Drivers/STM32F0xx_HAL_Driver/Src/stm32f0xx_hal_can.c ****   if (hcan == NULL)
 464:Drivers/STM32F0xx_HAL_Driver/Src/stm32f0xx_hal_can.c ****   {
 465:Drivers/STM32F0xx_HAL_Driver/Src/stm32f0xx_hal_can.c ****     return HAL_ERROR;
 466:Drivers/STM32F0xx_HAL_Driver/Src/stm32f0xx_hal_can.c ****   }
 467:Drivers/STM32F0xx_HAL_Driver/Src/stm32f0xx_hal_can.c **** 
 468:Drivers/STM32F0xx_HAL_Driver/Src/stm32f0xx_hal_can.c ****   /* Check the parameters */
 469:Drivers/STM32F0xx_HAL_Driver/Src/stm32f0xx_hal_can.c ****   assert_param(IS_CAN_ALL_INSTANCE(hcan->Instance));
 470:Drivers/STM32F0xx_HAL_Driver/Src/stm32f0xx_hal_can.c **** 
 471:Drivers/STM32F0xx_HAL_Driver/Src/stm32f0xx_hal_can.c ****   /* Stop the CAN module */
 472:Drivers/STM32F0xx_HAL_Driver/Src/stm32f0xx_hal_can.c ****   (void)HAL_CAN_Stop(hcan);
 473:Drivers/STM32F0xx_HAL_Driver/Src/stm32f0xx_hal_can.c **** 
 474:Drivers/STM32F0xx_HAL_Driver/Src/stm32f0xx_hal_can.c **** #if USE_HAL_CAN_REGISTER_CALLBACKS == 1
 475:Drivers/STM32F0xx_HAL_Driver/Src/stm32f0xx_hal_can.c ****   if (hcan->MspDeInitCallback == NULL)
 476:Drivers/STM32F0xx_HAL_Driver/Src/stm32f0xx_hal_can.c ****   {
 477:Drivers/STM32F0xx_HAL_Driver/Src/stm32f0xx_hal_can.c ****     hcan->MspDeInitCallback = HAL_CAN_MspDeInit; /* Legacy weak MspDeInit */
 478:Drivers/STM32F0xx_HAL_Driver/Src/stm32f0xx_hal_can.c ****   }
 479:Drivers/STM32F0xx_HAL_Driver/Src/stm32f0xx_hal_can.c **** 
 480:Drivers/STM32F0xx_HAL_Driver/Src/stm32f0xx_hal_can.c ****   /* DeInit the low level hardware: CLOCK, NVIC */
 481:Drivers/STM32F0xx_HAL_Driver/Src/stm32f0xx_hal_can.c ****   hcan->MspDeInitCallback(hcan);
 482:Drivers/STM32F0xx_HAL_Driver/Src/stm32f0xx_hal_can.c **** 
 483:Drivers/STM32F0xx_HAL_Driver/Src/stm32f0xx_hal_can.c **** #else
 484:Drivers/STM32F0xx_HAL_Driver/Src/stm32f0xx_hal_can.c ****   /* DeInit the low level hardware: CLOCK, NVIC */
 485:Drivers/STM32F0xx_HAL_Driver/Src/stm32f0xx_hal_can.c ****   HAL_CAN_MspDeInit(hcan);
 486:Drivers/STM32F0xx_HAL_Driver/Src/stm32f0xx_hal_can.c **** #endif /* USE_HAL_CAN_REGISTER_CALLBACKS */
 487:Drivers/STM32F0xx_HAL_Driver/Src/stm32f0xx_hal_can.c **** 
ARM GAS  C:\Users\xhex8\AppData\Local\Temp\ccvcBrdy.s 			page 10


 488:Drivers/STM32F0xx_HAL_Driver/Src/stm32f0xx_hal_can.c ****   /* Reset the CAN peripheral */
 489:Drivers/STM32F0xx_HAL_Driver/Src/stm32f0xx_hal_can.c ****   SET_BIT(hcan->Instance->MCR, CAN_MCR_RESET);
 490:Drivers/STM32F0xx_HAL_Driver/Src/stm32f0xx_hal_can.c **** 
 491:Drivers/STM32F0xx_HAL_Driver/Src/stm32f0xx_hal_can.c ****   /* Reset the CAN ErrorCode */
 492:Drivers/STM32F0xx_HAL_Driver/Src/stm32f0xx_hal_can.c ****   hcan->ErrorCode = HAL_CAN_ERROR_NONE;
 493:Drivers/STM32F0xx_HAL_Driver/Src/stm32f0xx_hal_can.c **** 
 494:Drivers/STM32F0xx_HAL_Driver/Src/stm32f0xx_hal_can.c ****   /* Change CAN state */
 495:Drivers/STM32F0xx_HAL_Driver/Src/stm32f0xx_hal_can.c ****   hcan->State = HAL_CAN_STATE_RESET;
 496:Drivers/STM32F0xx_HAL_Driver/Src/stm32f0xx_hal_can.c **** 
 497:Drivers/STM32F0xx_HAL_Driver/Src/stm32f0xx_hal_can.c ****   /* Return function status */
 498:Drivers/STM32F0xx_HAL_Driver/Src/stm32f0xx_hal_can.c ****   return HAL_OK;
 499:Drivers/STM32F0xx_HAL_Driver/Src/stm32f0xx_hal_can.c **** }
 500:Drivers/STM32F0xx_HAL_Driver/Src/stm32f0xx_hal_can.c **** 
 501:Drivers/STM32F0xx_HAL_Driver/Src/stm32f0xx_hal_can.c **** /**
 502:Drivers/STM32F0xx_HAL_Driver/Src/stm32f0xx_hal_can.c ****   * @brief  Initializes the CAN MSP.
 503:Drivers/STM32F0xx_HAL_Driver/Src/stm32f0xx_hal_can.c ****   * @param  hcan pointer to a CAN_HandleTypeDef structure that contains
 504:Drivers/STM32F0xx_HAL_Driver/Src/stm32f0xx_hal_can.c ****   *         the configuration information for the specified CAN.
 505:Drivers/STM32F0xx_HAL_Driver/Src/stm32f0xx_hal_can.c ****   * @retval None
 506:Drivers/STM32F0xx_HAL_Driver/Src/stm32f0xx_hal_can.c ****   */
 507:Drivers/STM32F0xx_HAL_Driver/Src/stm32f0xx_hal_can.c **** __weak void HAL_CAN_MspInit(CAN_HandleTypeDef *hcan)
 508:Drivers/STM32F0xx_HAL_Driver/Src/stm32f0xx_hal_can.c **** {
  28              		.loc 1 508 1 view -0
  29              		.cfi_startproc
  30              		@ args = 0, pretend = 0, frame = 0
  31              		@ frame_needed = 0, uses_anonymous_args = 0
  32              		@ link register save eliminated.
 509:Drivers/STM32F0xx_HAL_Driver/Src/stm32f0xx_hal_can.c ****   /* Prevent unused argument(s) compilation warning */
 510:Drivers/STM32F0xx_HAL_Driver/Src/stm32f0xx_hal_can.c ****   UNUSED(hcan);
  33              		.loc 1 510 3 view .LVU1
 511:Drivers/STM32F0xx_HAL_Driver/Src/stm32f0xx_hal_can.c **** 
 512:Drivers/STM32F0xx_HAL_Driver/Src/stm32f0xx_hal_can.c ****   /* NOTE : This function Should not be modified, when the callback is needed,
 513:Drivers/STM32F0xx_HAL_Driver/Src/stm32f0xx_hal_can.c ****             the HAL_CAN_MspInit could be implemented in the user file
 514:Drivers/STM32F0xx_HAL_Driver/Src/stm32f0xx_hal_can.c ****    */
 515:Drivers/STM32F0xx_HAL_Driver/Src/stm32f0xx_hal_can.c **** }
  34              		.loc 1 515 1 is_stmt 0 view .LVU2
  35              		@ sp needed
  36 0000 7047     		bx	lr
  37              		.cfi_endproc
  38              	.LFE42:
  40              		.section	.text.HAL_CAN_Init,"ax",%progbits
  41              		.align	1
  42              		.global	HAL_CAN_Init
  43              		.syntax unified
  44              		.code	16
  45              		.thumb_func
  47              	HAL_CAN_Init:
  48              	.LVL1:
  49              	.LFB40:
 276:Drivers/STM32F0xx_HAL_Driver/Src/stm32f0xx_hal_can.c ****   uint32_t tickstart;
  50              		.loc 1 276 1 is_stmt 1 view -0
  51              		.cfi_startproc
  52              		@ args = 0, pretend = 0, frame = 0
  53              		@ frame_needed = 0, uses_anonymous_args = 0
 276:Drivers/STM32F0xx_HAL_Driver/Src/stm32f0xx_hal_can.c ****   uint32_t tickstart;
  54              		.loc 1 276 1 is_stmt 0 view .LVU4
  55 0000 70B5     		push	{r4, r5, r6, lr}
  56              		.cfi_def_cfa_offset 16
ARM GAS  C:\Users\xhex8\AppData\Local\Temp\ccvcBrdy.s 			page 11


  57              		.cfi_offset 4, -16
  58              		.cfi_offset 5, -12
  59              		.cfi_offset 6, -8
  60              		.cfi_offset 14, -4
  61 0002 041E     		subs	r4, r0, #0
 277:Drivers/STM32F0xx_HAL_Driver/Src/stm32f0xx_hal_can.c **** 
  62              		.loc 1 277 3 is_stmt 1 view .LVU5
 280:Drivers/STM32F0xx_HAL_Driver/Src/stm32f0xx_hal_can.c ****   {
  63              		.loc 1 280 3 view .LVU6
 280:Drivers/STM32F0xx_HAL_Driver/Src/stm32f0xx_hal_can.c ****   {
  64              		.loc 1 280 6 is_stmt 0 view .LVU7
  65 0004 00D1     		bne	.LCB27
  66 0006 A0E0     		b	.L21	@long jump
  67              	.LCB27:
 286:Drivers/STM32F0xx_HAL_Driver/Src/stm32f0xx_hal_can.c ****   assert_param(IS_FUNCTIONAL_STATE(hcan->Init.TimeTriggeredMode));
  68              		.loc 1 286 3 is_stmt 1 view .LVU8
 287:Drivers/STM32F0xx_HAL_Driver/Src/stm32f0xx_hal_can.c ****   assert_param(IS_FUNCTIONAL_STATE(hcan->Init.AutoBusOff));
  69              		.loc 1 287 3 view .LVU9
 288:Drivers/STM32F0xx_HAL_Driver/Src/stm32f0xx_hal_can.c ****   assert_param(IS_FUNCTIONAL_STATE(hcan->Init.AutoWakeUp));
  70              		.loc 1 288 3 view .LVU10
 289:Drivers/STM32F0xx_HAL_Driver/Src/stm32f0xx_hal_can.c ****   assert_param(IS_FUNCTIONAL_STATE(hcan->Init.AutoRetransmission));
  71              		.loc 1 289 3 view .LVU11
 290:Drivers/STM32F0xx_HAL_Driver/Src/stm32f0xx_hal_can.c ****   assert_param(IS_FUNCTIONAL_STATE(hcan->Init.ReceiveFifoLocked));
  72              		.loc 1 290 3 view .LVU12
 291:Drivers/STM32F0xx_HAL_Driver/Src/stm32f0xx_hal_can.c ****   assert_param(IS_FUNCTIONAL_STATE(hcan->Init.TransmitFifoPriority));
  73              		.loc 1 291 3 view .LVU13
 292:Drivers/STM32F0xx_HAL_Driver/Src/stm32f0xx_hal_can.c ****   assert_param(IS_CAN_MODE(hcan->Init.Mode));
  74              		.loc 1 292 3 view .LVU14
 293:Drivers/STM32F0xx_HAL_Driver/Src/stm32f0xx_hal_can.c ****   assert_param(IS_CAN_SJW(hcan->Init.SyncJumpWidth));
  75              		.loc 1 293 3 view .LVU15
 294:Drivers/STM32F0xx_HAL_Driver/Src/stm32f0xx_hal_can.c ****   assert_param(IS_CAN_BS1(hcan->Init.TimeSeg1));
  76              		.loc 1 294 3 view .LVU16
 295:Drivers/STM32F0xx_HAL_Driver/Src/stm32f0xx_hal_can.c ****   assert_param(IS_CAN_BS2(hcan->Init.TimeSeg2));
  77              		.loc 1 295 3 view .LVU17
 296:Drivers/STM32F0xx_HAL_Driver/Src/stm32f0xx_hal_can.c ****   assert_param(IS_CAN_PRESCALER(hcan->Init.Prescaler));
  78              		.loc 1 296 3 view .LVU18
 297:Drivers/STM32F0xx_HAL_Driver/Src/stm32f0xx_hal_can.c **** 
  79              		.loc 1 297 3 view .LVU19
 327:Drivers/STM32F0xx_HAL_Driver/Src/stm32f0xx_hal_can.c ****   {
  80              		.loc 1 327 3 view .LVU20
 327:Drivers/STM32F0xx_HAL_Driver/Src/stm32f0xx_hal_can.c ****   {
  81              		.loc 1 327 11 is_stmt 0 view .LVU21
  82 0008 2023     		movs	r3, #32
  83 000a C35C     		ldrb	r3, [r0, r3]
 327:Drivers/STM32F0xx_HAL_Driver/Src/stm32f0xx_hal_can.c ****   {
  84              		.loc 1 327 6 view .LVU22
  85 000c 002B     		cmp	r3, #0
  86 000e 1AD0     		beq	.L22
  87              	.LVL2:
  88              	.L4:
 335:Drivers/STM32F0xx_HAL_Driver/Src/stm32f0xx_hal_can.c **** 
  89              		.loc 1 335 3 is_stmt 1 view .LVU23
  90 0010 2268     		ldr	r2, [r4]
  91 0012 1368     		ldr	r3, [r2]
  92 0014 0121     		movs	r1, #1
  93 0016 0B43     		orrs	r3, r1
  94 0018 1360     		str	r3, [r2]
ARM GAS  C:\Users\xhex8\AppData\Local\Temp\ccvcBrdy.s 			page 12


 338:Drivers/STM32F0xx_HAL_Driver/Src/stm32f0xx_hal_can.c **** 
  95              		.loc 1 338 3 view .LVU24
 338:Drivers/STM32F0xx_HAL_Driver/Src/stm32f0xx_hal_can.c **** 
  96              		.loc 1 338 15 is_stmt 0 view .LVU25
  97 001a FFF7FEFF 		bl	HAL_GetTick
  98              	.LVL3:
  99 001e 0500     		movs	r5, r0
 100              	.LVL4:
 341:Drivers/STM32F0xx_HAL_Driver/Src/stm32f0xx_hal_can.c ****   {
 101              		.loc 1 341 3 is_stmt 1 view .LVU26
 102              	.L5:
 341:Drivers/STM32F0xx_HAL_Driver/Src/stm32f0xx_hal_can.c ****   {
 103              		.loc 1 341 47 view .LVU27
 341:Drivers/STM32F0xx_HAL_Driver/Src/stm32f0xx_hal_can.c ****   {
 104              		.loc 1 341 15 is_stmt 0 view .LVU28
 105 0020 2268     		ldr	r2, [r4]
 341:Drivers/STM32F0xx_HAL_Driver/Src/stm32f0xx_hal_can.c ****   {
 106              		.loc 1 341 25 view .LVU29
 107 0022 5368     		ldr	r3, [r2, #4]
 341:Drivers/STM32F0xx_HAL_Driver/Src/stm32f0xx_hal_can.c ****   {
 108              		.loc 1 341 47 view .LVU30
 109 0024 DB07     		lsls	r3, r3, #31
 110 0026 11D4     		bmi	.L23
 343:Drivers/STM32F0xx_HAL_Driver/Src/stm32f0xx_hal_can.c ****     {
 111              		.loc 1 343 5 is_stmt 1 view .LVU31
 343:Drivers/STM32F0xx_HAL_Driver/Src/stm32f0xx_hal_can.c ****     {
 112              		.loc 1 343 10 is_stmt 0 view .LVU32
 113 0028 FFF7FEFF 		bl	HAL_GetTick
 114              	.LVL5:
 343:Drivers/STM32F0xx_HAL_Driver/Src/stm32f0xx_hal_can.c ****     {
 115              		.loc 1 343 24 view .LVU33
 116 002c 401B     		subs	r0, r0, r5
 343:Drivers/STM32F0xx_HAL_Driver/Src/stm32f0xx_hal_can.c ****     {
 117              		.loc 1 343 8 view .LVU34
 118 002e 0A28     		cmp	r0, #10
 119 0030 F6D9     		bls	.L5
 346:Drivers/STM32F0xx_HAL_Driver/Src/stm32f0xx_hal_can.c **** 
 120              		.loc 1 346 7 is_stmt 1 view .LVU35
 346:Drivers/STM32F0xx_HAL_Driver/Src/stm32f0xx_hal_can.c **** 
 121              		.loc 1 346 11 is_stmt 0 view .LVU36
 122 0032 626A     		ldr	r2, [r4, #36]
 346:Drivers/STM32F0xx_HAL_Driver/Src/stm32f0xx_hal_can.c **** 
 123              		.loc 1 346 23 view .LVU37
 124 0034 8023     		movs	r3, #128
 125 0036 9B02     		lsls	r3, r3, #10
 126 0038 1343     		orrs	r3, r2
 127 003a 6362     		str	r3, [r4, #36]
 349:Drivers/STM32F0xx_HAL_Driver/Src/stm32f0xx_hal_can.c **** 
 128              		.loc 1 349 7 is_stmt 1 view .LVU38
 349:Drivers/STM32F0xx_HAL_Driver/Src/stm32f0xx_hal_can.c **** 
 129              		.loc 1 349 19 is_stmt 0 view .LVU39
 130 003c 2023     		movs	r3, #32
 131 003e 0522     		movs	r2, #5
 132 0040 E254     		strb	r2, [r4, r3]
 351:Drivers/STM32F0xx_HAL_Driver/Src/stm32f0xx_hal_can.c ****     }
 133              		.loc 1 351 7 is_stmt 1 view .LVU40
 351:Drivers/STM32F0xx_HAL_Driver/Src/stm32f0xx_hal_can.c ****     }
ARM GAS  C:\Users\xhex8\AppData\Local\Temp\ccvcBrdy.s 			page 13


 134              		.loc 1 351 14 is_stmt 0 view .LVU41
 135 0042 0120     		movs	r0, #1
 136              	.LVL6:
 137              	.L3:
 451:Drivers/STM32F0xx_HAL_Driver/Src/stm32f0xx_hal_can.c **** 
 138              		.loc 1 451 1 view .LVU42
 139              		@ sp needed
 140              	.LVL7:
 451:Drivers/STM32F0xx_HAL_Driver/Src/stm32f0xx_hal_can.c **** 
 141              		.loc 1 451 1 view .LVU43
 142 0044 70BD     		pop	{r4, r5, r6, pc}
 143              	.LVL8:
 144              	.L22:
 330:Drivers/STM32F0xx_HAL_Driver/Src/stm32f0xx_hal_can.c ****   }
 145              		.loc 1 330 5 is_stmt 1 view .LVU44
 146 0046 FFF7FEFF 		bl	HAL_CAN_MspInit
 147              	.LVL9:
 330:Drivers/STM32F0xx_HAL_Driver/Src/stm32f0xx_hal_can.c ****   }
 148              		.loc 1 330 5 is_stmt 0 view .LVU45
 149 004a E1E7     		b	.L4
 150              	.LVL10:
 151              	.L23:
 356:Drivers/STM32F0xx_HAL_Driver/Src/stm32f0xx_hal_can.c **** 
 152              		.loc 1 356 3 is_stmt 1 view .LVU46
 153 004c 1368     		ldr	r3, [r2]
 154 004e 0221     		movs	r1, #2
 155 0050 8B43     		bics	r3, r1
 156 0052 1360     		str	r3, [r2]
 359:Drivers/STM32F0xx_HAL_Driver/Src/stm32f0xx_hal_can.c **** 
 157              		.loc 1 359 3 view .LVU47
 359:Drivers/STM32F0xx_HAL_Driver/Src/stm32f0xx_hal_can.c **** 
 158              		.loc 1 359 15 is_stmt 0 view .LVU48
 159 0054 FFF7FEFF 		bl	HAL_GetTick
 160              	.LVL11:
 161 0058 0500     		movs	r5, r0
 162              	.LVL12:
 362:Drivers/STM32F0xx_HAL_Driver/Src/stm32f0xx_hal_can.c ****   {
 163              		.loc 1 362 3 is_stmt 1 view .LVU49
 164              	.L7:
 362:Drivers/STM32F0xx_HAL_Driver/Src/stm32f0xx_hal_can.c ****   {
 165              		.loc 1 362 47 view .LVU50
 362:Drivers/STM32F0xx_HAL_Driver/Src/stm32f0xx_hal_can.c ****   {
 166              		.loc 1 362 15 is_stmt 0 view .LVU51
 167 005a 2268     		ldr	r2, [r4]
 362:Drivers/STM32F0xx_HAL_Driver/Src/stm32f0xx_hal_can.c ****   {
 168              		.loc 1 362 25 view .LVU52
 169 005c 5368     		ldr	r3, [r2, #4]
 362:Drivers/STM32F0xx_HAL_Driver/Src/stm32f0xx_hal_can.c ****   {
 170              		.loc 1 362 47 view .LVU53
 171 005e 9B07     		lsls	r3, r3, #30
 172 0060 0ED5     		bpl	.L24
 364:Drivers/STM32F0xx_HAL_Driver/Src/stm32f0xx_hal_can.c ****     {
 173              		.loc 1 364 5 is_stmt 1 view .LVU54
 364:Drivers/STM32F0xx_HAL_Driver/Src/stm32f0xx_hal_can.c ****     {
 174              		.loc 1 364 10 is_stmt 0 view .LVU55
 175 0062 FFF7FEFF 		bl	HAL_GetTick
 176              	.LVL13:
ARM GAS  C:\Users\xhex8\AppData\Local\Temp\ccvcBrdy.s 			page 14


 364:Drivers/STM32F0xx_HAL_Driver/Src/stm32f0xx_hal_can.c ****     {
 177              		.loc 1 364 24 view .LVU56
 178 0066 401B     		subs	r0, r0, r5
 364:Drivers/STM32F0xx_HAL_Driver/Src/stm32f0xx_hal_can.c ****     {
 179              		.loc 1 364 8 view .LVU57
 180 0068 0A28     		cmp	r0, #10
 181 006a F6D9     		bls	.L7
 367:Drivers/STM32F0xx_HAL_Driver/Src/stm32f0xx_hal_can.c **** 
 182              		.loc 1 367 7 is_stmt 1 view .LVU58
 367:Drivers/STM32F0xx_HAL_Driver/Src/stm32f0xx_hal_can.c **** 
 183              		.loc 1 367 11 is_stmt 0 view .LVU59
 184 006c 626A     		ldr	r2, [r4, #36]
 367:Drivers/STM32F0xx_HAL_Driver/Src/stm32f0xx_hal_can.c **** 
 185              		.loc 1 367 23 view .LVU60
 186 006e 8023     		movs	r3, #128
 187 0070 9B02     		lsls	r3, r3, #10
 188 0072 1343     		orrs	r3, r2
 189 0074 6362     		str	r3, [r4, #36]
 370:Drivers/STM32F0xx_HAL_Driver/Src/stm32f0xx_hal_can.c **** 
 190              		.loc 1 370 7 is_stmt 1 view .LVU61
 370:Drivers/STM32F0xx_HAL_Driver/Src/stm32f0xx_hal_can.c **** 
 191              		.loc 1 370 19 is_stmt 0 view .LVU62
 192 0076 2023     		movs	r3, #32
 193 0078 0522     		movs	r2, #5
 194 007a E254     		strb	r2, [r4, r3]
 372:Drivers/STM32F0xx_HAL_Driver/Src/stm32f0xx_hal_can.c ****     }
 195              		.loc 1 372 7 is_stmt 1 view .LVU63
 372:Drivers/STM32F0xx_HAL_Driver/Src/stm32f0xx_hal_can.c ****     }
 196              		.loc 1 372 14 is_stmt 0 view .LVU64
 197 007c 0120     		movs	r0, #1
 198 007e E1E7     		b	.L3
 199              	.L24:
 377:Drivers/STM32F0xx_HAL_Driver/Src/stm32f0xx_hal_can.c ****   {
 200              		.loc 1 377 3 is_stmt 1 view .LVU65
 377:Drivers/STM32F0xx_HAL_Driver/Src/stm32f0xx_hal_can.c ****   {
 201              		.loc 1 377 17 is_stmt 0 view .LVU66
 202 0080 237E     		ldrb	r3, [r4, #24]
 377:Drivers/STM32F0xx_HAL_Driver/Src/stm32f0xx_hal_can.c ****   {
 203              		.loc 1 377 6 view .LVU67
 204 0082 012B     		cmp	r3, #1
 205 0084 3ED0     		beq	.L25
 383:Drivers/STM32F0xx_HAL_Driver/Src/stm32f0xx_hal_can.c ****   }
 206              		.loc 1 383 5 is_stmt 1 view .LVU68
 207 0086 1368     		ldr	r3, [r2]
 208 0088 8021     		movs	r1, #128
 209 008a 8B43     		bics	r3, r1
 210 008c 1360     		str	r3, [r2]
 211              	.L10:
 387:Drivers/STM32F0xx_HAL_Driver/Src/stm32f0xx_hal_can.c ****   {
 212              		.loc 1 387 3 view .LVU69
 387:Drivers/STM32F0xx_HAL_Driver/Src/stm32f0xx_hal_can.c ****   {
 213              		.loc 1 387 17 is_stmt 0 view .LVU70
 214 008e 637E     		ldrb	r3, [r4, #25]
 387:Drivers/STM32F0xx_HAL_Driver/Src/stm32f0xx_hal_can.c ****   {
 215              		.loc 1 387 6 view .LVU71
 216 0090 012B     		cmp	r3, #1
 217 0092 3CD0     		beq	.L26
ARM GAS  C:\Users\xhex8\AppData\Local\Temp\ccvcBrdy.s 			page 15


 393:Drivers/STM32F0xx_HAL_Driver/Src/stm32f0xx_hal_can.c ****   }
 218              		.loc 1 393 5 is_stmt 1 view .LVU72
 219 0094 2268     		ldr	r2, [r4]
 220 0096 1368     		ldr	r3, [r2]
 221 0098 4021     		movs	r1, #64
 222 009a 8B43     		bics	r3, r1
 223 009c 1360     		str	r3, [r2]
 224              	.L12:
 397:Drivers/STM32F0xx_HAL_Driver/Src/stm32f0xx_hal_can.c ****   {
 225              		.loc 1 397 3 view .LVU73
 397:Drivers/STM32F0xx_HAL_Driver/Src/stm32f0xx_hal_can.c ****   {
 226              		.loc 1 397 17 is_stmt 0 view .LVU74
 227 009e A37E     		ldrb	r3, [r4, #26]
 397:Drivers/STM32F0xx_HAL_Driver/Src/stm32f0xx_hal_can.c ****   {
 228              		.loc 1 397 6 view .LVU75
 229 00a0 012B     		cmp	r3, #1
 230 00a2 3AD0     		beq	.L27
 403:Drivers/STM32F0xx_HAL_Driver/Src/stm32f0xx_hal_can.c ****   }
 231              		.loc 1 403 5 is_stmt 1 view .LVU76
 232 00a4 2268     		ldr	r2, [r4]
 233 00a6 1368     		ldr	r3, [r2]
 234 00a8 2021     		movs	r1, #32
 235 00aa 8B43     		bics	r3, r1
 236 00ac 1360     		str	r3, [r2]
 237              	.L14:
 407:Drivers/STM32F0xx_HAL_Driver/Src/stm32f0xx_hal_can.c ****   {
 238              		.loc 1 407 3 view .LVU77
 407:Drivers/STM32F0xx_HAL_Driver/Src/stm32f0xx_hal_can.c ****   {
 239              		.loc 1 407 17 is_stmt 0 view .LVU78
 240 00ae E37E     		ldrb	r3, [r4, #27]
 407:Drivers/STM32F0xx_HAL_Driver/Src/stm32f0xx_hal_can.c ****   {
 241              		.loc 1 407 6 view .LVU79
 242 00b0 012B     		cmp	r3, #1
 243 00b2 38D0     		beq	.L28
 413:Drivers/STM32F0xx_HAL_Driver/Src/stm32f0xx_hal_can.c ****   }
 244              		.loc 1 413 5 is_stmt 1 view .LVU80
 245 00b4 2268     		ldr	r2, [r4]
 246 00b6 1368     		ldr	r3, [r2]
 247 00b8 1021     		movs	r1, #16
 248 00ba 0B43     		orrs	r3, r1
 249 00bc 1360     		str	r3, [r2]
 250              	.L16:
 417:Drivers/STM32F0xx_HAL_Driver/Src/stm32f0xx_hal_can.c ****   {
 251              		.loc 1 417 3 view .LVU81
 417:Drivers/STM32F0xx_HAL_Driver/Src/stm32f0xx_hal_can.c ****   {
 252              		.loc 1 417 17 is_stmt 0 view .LVU82
 253 00be 237F     		ldrb	r3, [r4, #28]
 417:Drivers/STM32F0xx_HAL_Driver/Src/stm32f0xx_hal_can.c ****   {
 254              		.loc 1 417 6 view .LVU83
 255 00c0 012B     		cmp	r3, #1
 256 00c2 36D0     		beq	.L29
 423:Drivers/STM32F0xx_HAL_Driver/Src/stm32f0xx_hal_can.c ****   }
 257              		.loc 1 423 5 is_stmt 1 view .LVU84
 258 00c4 2268     		ldr	r2, [r4]
 259 00c6 1368     		ldr	r3, [r2]
 260 00c8 0821     		movs	r1, #8
 261 00ca 8B43     		bics	r3, r1
ARM GAS  C:\Users\xhex8\AppData\Local\Temp\ccvcBrdy.s 			page 16


 262 00cc 1360     		str	r3, [r2]
 263              	.L18:
 427:Drivers/STM32F0xx_HAL_Driver/Src/stm32f0xx_hal_can.c ****   {
 264              		.loc 1 427 3 view .LVU85
 427:Drivers/STM32F0xx_HAL_Driver/Src/stm32f0xx_hal_can.c ****   {
 265              		.loc 1 427 17 is_stmt 0 view .LVU86
 266 00ce 637F     		ldrb	r3, [r4, #29]
 427:Drivers/STM32F0xx_HAL_Driver/Src/stm32f0xx_hal_can.c ****   {
 267              		.loc 1 427 6 view .LVU87
 268 00d0 012B     		cmp	r3, #1
 269 00d2 34D0     		beq	.L30
 433:Drivers/STM32F0xx_HAL_Driver/Src/stm32f0xx_hal_can.c ****   }
 270              		.loc 1 433 5 is_stmt 1 view .LVU88
 271 00d4 2268     		ldr	r2, [r4]
 272 00d6 1368     		ldr	r3, [r2]
 273 00d8 0421     		movs	r1, #4
 274 00da 8B43     		bics	r3, r1
 275 00dc 1360     		str	r3, [r2]
 276              	.L20:
 437:Drivers/STM32F0xx_HAL_Driver/Src/stm32f0xx_hal_can.c ****                                             hcan->Init.SyncJumpWidth  |
 277              		.loc 1 437 3 view .LVU89
 278 00de A368     		ldr	r3, [r4, #8]
 279 00e0 E268     		ldr	r2, [r4, #12]
 280 00e2 1343     		orrs	r3, r2
 281 00e4 2269     		ldr	r2, [r4, #16]
 282 00e6 1343     		orrs	r3, r2
 283 00e8 6269     		ldr	r2, [r4, #20]
 284 00ea 1343     		orrs	r3, r2
 285 00ec 6268     		ldr	r2, [r4, #4]
 286 00ee 013A     		subs	r2, r2, #1
 287 00f0 2168     		ldr	r1, [r4]
 288 00f2 1343     		orrs	r3, r2
 289 00f4 CB61     		str	r3, [r1, #28]
 444:Drivers/STM32F0xx_HAL_Driver/Src/stm32f0xx_hal_can.c **** 
 290              		.loc 1 444 3 view .LVU90
 444:Drivers/STM32F0xx_HAL_Driver/Src/stm32f0xx_hal_can.c **** 
 291              		.loc 1 444 19 is_stmt 0 view .LVU91
 292 00f6 0023     		movs	r3, #0
 293 00f8 6362     		str	r3, [r4, #36]
 447:Drivers/STM32F0xx_HAL_Driver/Src/stm32f0xx_hal_can.c **** 
 294              		.loc 1 447 3 is_stmt 1 view .LVU92
 447:Drivers/STM32F0xx_HAL_Driver/Src/stm32f0xx_hal_can.c **** 
 295              		.loc 1 447 15 is_stmt 0 view .LVU93
 296 00fa 2033     		adds	r3, r3, #32
 297 00fc 0122     		movs	r2, #1
 298 00fe E254     		strb	r2, [r4, r3]
 450:Drivers/STM32F0xx_HAL_Driver/Src/stm32f0xx_hal_can.c **** }
 299              		.loc 1 450 3 is_stmt 1 view .LVU94
 450:Drivers/STM32F0xx_HAL_Driver/Src/stm32f0xx_hal_can.c **** }
 300              		.loc 1 450 10 is_stmt 0 view .LVU95
 301 0100 0020     		movs	r0, #0
 302 0102 9FE7     		b	.L3
 303              	.L25:
 379:Drivers/STM32F0xx_HAL_Driver/Src/stm32f0xx_hal_can.c ****   }
 304              		.loc 1 379 5 is_stmt 1 view .LVU96
 305 0104 1368     		ldr	r3, [r2]
 306 0106 8021     		movs	r1, #128
ARM GAS  C:\Users\xhex8\AppData\Local\Temp\ccvcBrdy.s 			page 17


 307 0108 0B43     		orrs	r3, r1
 308 010a 1360     		str	r3, [r2]
 309 010c BFE7     		b	.L10
 310              	.L26:
 389:Drivers/STM32F0xx_HAL_Driver/Src/stm32f0xx_hal_can.c ****   }
 311              		.loc 1 389 5 view .LVU97
 312 010e 2268     		ldr	r2, [r4]
 313 0110 1368     		ldr	r3, [r2]
 314 0112 4021     		movs	r1, #64
 315 0114 0B43     		orrs	r3, r1
 316 0116 1360     		str	r3, [r2]
 317 0118 C1E7     		b	.L12
 318              	.L27:
 399:Drivers/STM32F0xx_HAL_Driver/Src/stm32f0xx_hal_can.c ****   }
 319              		.loc 1 399 5 view .LVU98
 320 011a 2268     		ldr	r2, [r4]
 321 011c 1368     		ldr	r3, [r2]
 322 011e 2021     		movs	r1, #32
 323 0120 0B43     		orrs	r3, r1
 324 0122 1360     		str	r3, [r2]
 325 0124 C3E7     		b	.L14
 326              	.L28:
 409:Drivers/STM32F0xx_HAL_Driver/Src/stm32f0xx_hal_can.c ****   }
 327              		.loc 1 409 5 view .LVU99
 328 0126 2268     		ldr	r2, [r4]
 329 0128 1368     		ldr	r3, [r2]
 330 012a 1021     		movs	r1, #16
 331 012c 8B43     		bics	r3, r1
 332 012e 1360     		str	r3, [r2]
 333 0130 C5E7     		b	.L16
 334              	.L29:
 419:Drivers/STM32F0xx_HAL_Driver/Src/stm32f0xx_hal_can.c ****   }
 335              		.loc 1 419 5 view .LVU100
 336 0132 2268     		ldr	r2, [r4]
 337 0134 1368     		ldr	r3, [r2]
 338 0136 0821     		movs	r1, #8
 339 0138 0B43     		orrs	r3, r1
 340 013a 1360     		str	r3, [r2]
 341 013c C7E7     		b	.L18
 342              	.L30:
 429:Drivers/STM32F0xx_HAL_Driver/Src/stm32f0xx_hal_can.c ****   }
 343              		.loc 1 429 5 view .LVU101
 344 013e 2268     		ldr	r2, [r4]
 345 0140 1368     		ldr	r3, [r2]
 346 0142 0421     		movs	r1, #4
 347 0144 0B43     		orrs	r3, r1
 348 0146 1360     		str	r3, [r2]
 349 0148 C9E7     		b	.L20
 350              	.LVL14:
 351              	.L21:
 282:Drivers/STM32F0xx_HAL_Driver/Src/stm32f0xx_hal_can.c ****   }
 352              		.loc 1 282 12 is_stmt 0 view .LVU102
 353 014a 0120     		movs	r0, #1
 354              	.LVL15:
 282:Drivers/STM32F0xx_HAL_Driver/Src/stm32f0xx_hal_can.c ****   }
 355              		.loc 1 282 12 view .LVU103
 356 014c 7AE7     		b	.L3
ARM GAS  C:\Users\xhex8\AppData\Local\Temp\ccvcBrdy.s 			page 18


 357              		.cfi_endproc
 358              	.LFE40:
 360              		.section	.text.HAL_CAN_MspDeInit,"ax",%progbits
 361              		.align	1
 362              		.weak	HAL_CAN_MspDeInit
 363              		.syntax unified
 364              		.code	16
 365              		.thumb_func
 367              	HAL_CAN_MspDeInit:
 368              	.LVL16:
 369              	.LFB43:
 516:Drivers/STM32F0xx_HAL_Driver/Src/stm32f0xx_hal_can.c **** 
 517:Drivers/STM32F0xx_HAL_Driver/Src/stm32f0xx_hal_can.c **** /**
 518:Drivers/STM32F0xx_HAL_Driver/Src/stm32f0xx_hal_can.c ****   * @brief  DeInitializes the CAN MSP.
 519:Drivers/STM32F0xx_HAL_Driver/Src/stm32f0xx_hal_can.c ****   * @param  hcan pointer to a CAN_HandleTypeDef structure that contains
 520:Drivers/STM32F0xx_HAL_Driver/Src/stm32f0xx_hal_can.c ****   *         the configuration information for the specified CAN.
 521:Drivers/STM32F0xx_HAL_Driver/Src/stm32f0xx_hal_can.c ****   * @retval None
 522:Drivers/STM32F0xx_HAL_Driver/Src/stm32f0xx_hal_can.c ****   */
 523:Drivers/STM32F0xx_HAL_Driver/Src/stm32f0xx_hal_can.c **** __weak void HAL_CAN_MspDeInit(CAN_HandleTypeDef *hcan)
 524:Drivers/STM32F0xx_HAL_Driver/Src/stm32f0xx_hal_can.c **** {
 370              		.loc 1 524 1 is_stmt 1 view -0
 371              		.cfi_startproc
 372              		@ args = 0, pretend = 0, frame = 0
 373              		@ frame_needed = 0, uses_anonymous_args = 0
 374              		@ link register save eliminated.
 525:Drivers/STM32F0xx_HAL_Driver/Src/stm32f0xx_hal_can.c ****   /* Prevent unused argument(s) compilation warning */
 526:Drivers/STM32F0xx_HAL_Driver/Src/stm32f0xx_hal_can.c ****   UNUSED(hcan);
 375              		.loc 1 526 3 view .LVU105
 527:Drivers/STM32F0xx_HAL_Driver/Src/stm32f0xx_hal_can.c **** 
 528:Drivers/STM32F0xx_HAL_Driver/Src/stm32f0xx_hal_can.c ****   /* NOTE : This function Should not be modified, when the callback is needed,
 529:Drivers/STM32F0xx_HAL_Driver/Src/stm32f0xx_hal_can.c ****             the HAL_CAN_MspDeInit could be implemented in the user file
 530:Drivers/STM32F0xx_HAL_Driver/Src/stm32f0xx_hal_can.c ****    */
 531:Drivers/STM32F0xx_HAL_Driver/Src/stm32f0xx_hal_can.c **** }
 376              		.loc 1 531 1 is_stmt 0 view .LVU106
 377              		@ sp needed
 378 0000 7047     		bx	lr
 379              		.cfi_endproc
 380              	.LFE43:
 382              		.section	.text.HAL_CAN_ConfigFilter,"ax",%progbits
 383              		.align	1
 384              		.global	HAL_CAN_ConfigFilter
 385              		.syntax unified
 386              		.code	16
 387              		.thumb_func
 389              	HAL_CAN_ConfigFilter:
 390              	.LVL17:
 391              	.LFB44:
 532:Drivers/STM32F0xx_HAL_Driver/Src/stm32f0xx_hal_can.c **** 
 533:Drivers/STM32F0xx_HAL_Driver/Src/stm32f0xx_hal_can.c **** #if USE_HAL_CAN_REGISTER_CALLBACKS == 1
 534:Drivers/STM32F0xx_HAL_Driver/Src/stm32f0xx_hal_can.c **** /**
 535:Drivers/STM32F0xx_HAL_Driver/Src/stm32f0xx_hal_can.c ****   * @brief  Register a CAN CallBack.
 536:Drivers/STM32F0xx_HAL_Driver/Src/stm32f0xx_hal_can.c ****   *         To be used instead of the weak predefined callback
 537:Drivers/STM32F0xx_HAL_Driver/Src/stm32f0xx_hal_can.c ****   * @param  hcan pointer to a CAN_HandleTypeDef structure that contains
 538:Drivers/STM32F0xx_HAL_Driver/Src/stm32f0xx_hal_can.c ****   *         the configuration information for CAN module
 539:Drivers/STM32F0xx_HAL_Driver/Src/stm32f0xx_hal_can.c ****   * @param  CallbackID ID of the callback to be registered
 540:Drivers/STM32F0xx_HAL_Driver/Src/stm32f0xx_hal_can.c ****   *         This parameter can be one of the following values:
 541:Drivers/STM32F0xx_HAL_Driver/Src/stm32f0xx_hal_can.c ****   *           @arg @ref HAL_CAN_TX_MAILBOX0_COMPLETE_CB_ID Tx Mailbox 0 Complete callback ID
ARM GAS  C:\Users\xhex8\AppData\Local\Temp\ccvcBrdy.s 			page 19


 542:Drivers/STM32F0xx_HAL_Driver/Src/stm32f0xx_hal_can.c ****   *           @arg @ref HAL_CAN_TX_MAILBOX1_COMPLETE_CB_ID Tx Mailbox 1 Complete callback ID
 543:Drivers/STM32F0xx_HAL_Driver/Src/stm32f0xx_hal_can.c ****   *           @arg @ref HAL_CAN_TX_MAILBOX2_COMPLETE_CB_ID Tx Mailbox 2 Complete callback ID
 544:Drivers/STM32F0xx_HAL_Driver/Src/stm32f0xx_hal_can.c ****   *           @arg @ref HAL_CAN_TX_MAILBOX0_ABORT_CB_ID Tx Mailbox 0 Abort callback ID
 545:Drivers/STM32F0xx_HAL_Driver/Src/stm32f0xx_hal_can.c ****   *           @arg @ref HAL_CAN_TX_MAILBOX1_ABORT_CB_ID Tx Mailbox 1 Abort callback ID
 546:Drivers/STM32F0xx_HAL_Driver/Src/stm32f0xx_hal_can.c ****   *           @arg @ref HAL_CAN_TX_MAILBOX2_ABORT_CB_ID Tx Mailbox 2 Abort callback ID
 547:Drivers/STM32F0xx_HAL_Driver/Src/stm32f0xx_hal_can.c ****   *           @arg @ref HAL_CAN_RX_FIFO0_MSG_PENDING_CB_ID Rx Fifo 0 message pending callback ID
 548:Drivers/STM32F0xx_HAL_Driver/Src/stm32f0xx_hal_can.c ****   *           @arg @ref HAL_CAN_RX_FIFO0_FULL_CB_ID Rx Fifo 0 full callback ID
 549:Drivers/STM32F0xx_HAL_Driver/Src/stm32f0xx_hal_can.c ****   *           @arg @ref HAL_CAN_RX_FIFO1_MSG_PENDING_CB_ID Rx Fifo 1 message pending callback ID
 550:Drivers/STM32F0xx_HAL_Driver/Src/stm32f0xx_hal_can.c ****   *           @arg @ref HAL_CAN_RX_FIFO1_FULL_CB_ID Rx Fifo 1 full callback ID
 551:Drivers/STM32F0xx_HAL_Driver/Src/stm32f0xx_hal_can.c ****   *           @arg @ref HAL_CAN_SLEEP_CB_ID Sleep callback ID
 552:Drivers/STM32F0xx_HAL_Driver/Src/stm32f0xx_hal_can.c ****   *           @arg @ref HAL_CAN_WAKEUP_FROM_RX_MSG_CB_ID Wake Up from Rx message callback ID
 553:Drivers/STM32F0xx_HAL_Driver/Src/stm32f0xx_hal_can.c ****   *           @arg @ref HAL_CAN_ERROR_CB_ID Error callback ID
 554:Drivers/STM32F0xx_HAL_Driver/Src/stm32f0xx_hal_can.c ****   *           @arg @ref HAL_CAN_MSPINIT_CB_ID MspInit callback ID
 555:Drivers/STM32F0xx_HAL_Driver/Src/stm32f0xx_hal_can.c ****   *           @arg @ref HAL_CAN_MSPDEINIT_CB_ID MspDeInit callback ID
 556:Drivers/STM32F0xx_HAL_Driver/Src/stm32f0xx_hal_can.c ****   * @param  pCallback pointer to the Callback function
 557:Drivers/STM32F0xx_HAL_Driver/Src/stm32f0xx_hal_can.c ****   * @retval HAL status
 558:Drivers/STM32F0xx_HAL_Driver/Src/stm32f0xx_hal_can.c ****   */
 559:Drivers/STM32F0xx_HAL_Driver/Src/stm32f0xx_hal_can.c **** HAL_StatusTypeDef HAL_CAN_RegisterCallback(CAN_HandleTypeDef *hcan, HAL_CAN_CallbackIDTypeDef Callb
 560:Drivers/STM32F0xx_HAL_Driver/Src/stm32f0xx_hal_can.c ****                                            void (* pCallback)(CAN_HandleTypeDef *_hcan))
 561:Drivers/STM32F0xx_HAL_Driver/Src/stm32f0xx_hal_can.c **** {
 562:Drivers/STM32F0xx_HAL_Driver/Src/stm32f0xx_hal_can.c ****   HAL_StatusTypeDef status = HAL_OK;
 563:Drivers/STM32F0xx_HAL_Driver/Src/stm32f0xx_hal_can.c **** 
 564:Drivers/STM32F0xx_HAL_Driver/Src/stm32f0xx_hal_can.c ****   if (pCallback == NULL)
 565:Drivers/STM32F0xx_HAL_Driver/Src/stm32f0xx_hal_can.c ****   {
 566:Drivers/STM32F0xx_HAL_Driver/Src/stm32f0xx_hal_can.c ****     /* Update the error code */
 567:Drivers/STM32F0xx_HAL_Driver/Src/stm32f0xx_hal_can.c ****     hcan->ErrorCode |= HAL_CAN_ERROR_INVALID_CALLBACK;
 568:Drivers/STM32F0xx_HAL_Driver/Src/stm32f0xx_hal_can.c **** 
 569:Drivers/STM32F0xx_HAL_Driver/Src/stm32f0xx_hal_can.c ****     return HAL_ERROR;
 570:Drivers/STM32F0xx_HAL_Driver/Src/stm32f0xx_hal_can.c ****   }
 571:Drivers/STM32F0xx_HAL_Driver/Src/stm32f0xx_hal_can.c **** 
 572:Drivers/STM32F0xx_HAL_Driver/Src/stm32f0xx_hal_can.c ****   if (hcan->State == HAL_CAN_STATE_READY)
 573:Drivers/STM32F0xx_HAL_Driver/Src/stm32f0xx_hal_can.c ****   {
 574:Drivers/STM32F0xx_HAL_Driver/Src/stm32f0xx_hal_can.c ****     switch (CallbackID)
 575:Drivers/STM32F0xx_HAL_Driver/Src/stm32f0xx_hal_can.c ****     {
 576:Drivers/STM32F0xx_HAL_Driver/Src/stm32f0xx_hal_can.c ****       case HAL_CAN_TX_MAILBOX0_COMPLETE_CB_ID :
 577:Drivers/STM32F0xx_HAL_Driver/Src/stm32f0xx_hal_can.c ****         hcan->TxMailbox0CompleteCallback = pCallback;
 578:Drivers/STM32F0xx_HAL_Driver/Src/stm32f0xx_hal_can.c ****         break;
 579:Drivers/STM32F0xx_HAL_Driver/Src/stm32f0xx_hal_can.c **** 
 580:Drivers/STM32F0xx_HAL_Driver/Src/stm32f0xx_hal_can.c ****       case HAL_CAN_TX_MAILBOX1_COMPLETE_CB_ID :
 581:Drivers/STM32F0xx_HAL_Driver/Src/stm32f0xx_hal_can.c ****         hcan->TxMailbox1CompleteCallback = pCallback;
 582:Drivers/STM32F0xx_HAL_Driver/Src/stm32f0xx_hal_can.c ****         break;
 583:Drivers/STM32F0xx_HAL_Driver/Src/stm32f0xx_hal_can.c **** 
 584:Drivers/STM32F0xx_HAL_Driver/Src/stm32f0xx_hal_can.c ****       case HAL_CAN_TX_MAILBOX2_COMPLETE_CB_ID :
 585:Drivers/STM32F0xx_HAL_Driver/Src/stm32f0xx_hal_can.c ****         hcan->TxMailbox2CompleteCallback = pCallback;
 586:Drivers/STM32F0xx_HAL_Driver/Src/stm32f0xx_hal_can.c ****         break;
 587:Drivers/STM32F0xx_HAL_Driver/Src/stm32f0xx_hal_can.c **** 
 588:Drivers/STM32F0xx_HAL_Driver/Src/stm32f0xx_hal_can.c ****       case HAL_CAN_TX_MAILBOX0_ABORT_CB_ID :
 589:Drivers/STM32F0xx_HAL_Driver/Src/stm32f0xx_hal_can.c ****         hcan->TxMailbox0AbortCallback = pCallback;
 590:Drivers/STM32F0xx_HAL_Driver/Src/stm32f0xx_hal_can.c ****         break;
 591:Drivers/STM32F0xx_HAL_Driver/Src/stm32f0xx_hal_can.c **** 
 592:Drivers/STM32F0xx_HAL_Driver/Src/stm32f0xx_hal_can.c ****       case HAL_CAN_TX_MAILBOX1_ABORT_CB_ID :
 593:Drivers/STM32F0xx_HAL_Driver/Src/stm32f0xx_hal_can.c ****         hcan->TxMailbox1AbortCallback = pCallback;
 594:Drivers/STM32F0xx_HAL_Driver/Src/stm32f0xx_hal_can.c ****         break;
 595:Drivers/STM32F0xx_HAL_Driver/Src/stm32f0xx_hal_can.c **** 
 596:Drivers/STM32F0xx_HAL_Driver/Src/stm32f0xx_hal_can.c ****       case HAL_CAN_TX_MAILBOX2_ABORT_CB_ID :
 597:Drivers/STM32F0xx_HAL_Driver/Src/stm32f0xx_hal_can.c ****         hcan->TxMailbox2AbortCallback = pCallback;
 598:Drivers/STM32F0xx_HAL_Driver/Src/stm32f0xx_hal_can.c ****         break;
ARM GAS  C:\Users\xhex8\AppData\Local\Temp\ccvcBrdy.s 			page 20


 599:Drivers/STM32F0xx_HAL_Driver/Src/stm32f0xx_hal_can.c **** 
 600:Drivers/STM32F0xx_HAL_Driver/Src/stm32f0xx_hal_can.c ****       case HAL_CAN_RX_FIFO0_MSG_PENDING_CB_ID :
 601:Drivers/STM32F0xx_HAL_Driver/Src/stm32f0xx_hal_can.c ****         hcan->RxFifo0MsgPendingCallback = pCallback;
 602:Drivers/STM32F0xx_HAL_Driver/Src/stm32f0xx_hal_can.c ****         break;
 603:Drivers/STM32F0xx_HAL_Driver/Src/stm32f0xx_hal_can.c **** 
 604:Drivers/STM32F0xx_HAL_Driver/Src/stm32f0xx_hal_can.c ****       case HAL_CAN_RX_FIFO0_FULL_CB_ID :
 605:Drivers/STM32F0xx_HAL_Driver/Src/stm32f0xx_hal_can.c ****         hcan->RxFifo0FullCallback = pCallback;
 606:Drivers/STM32F0xx_HAL_Driver/Src/stm32f0xx_hal_can.c ****         break;
 607:Drivers/STM32F0xx_HAL_Driver/Src/stm32f0xx_hal_can.c **** 
 608:Drivers/STM32F0xx_HAL_Driver/Src/stm32f0xx_hal_can.c ****       case HAL_CAN_RX_FIFO1_MSG_PENDING_CB_ID :
 609:Drivers/STM32F0xx_HAL_Driver/Src/stm32f0xx_hal_can.c ****         hcan->RxFifo1MsgPendingCallback = pCallback;
 610:Drivers/STM32F0xx_HAL_Driver/Src/stm32f0xx_hal_can.c ****         break;
 611:Drivers/STM32F0xx_HAL_Driver/Src/stm32f0xx_hal_can.c **** 
 612:Drivers/STM32F0xx_HAL_Driver/Src/stm32f0xx_hal_can.c ****       case HAL_CAN_RX_FIFO1_FULL_CB_ID :
 613:Drivers/STM32F0xx_HAL_Driver/Src/stm32f0xx_hal_can.c ****         hcan->RxFifo1FullCallback = pCallback;
 614:Drivers/STM32F0xx_HAL_Driver/Src/stm32f0xx_hal_can.c ****         break;
 615:Drivers/STM32F0xx_HAL_Driver/Src/stm32f0xx_hal_can.c **** 
 616:Drivers/STM32F0xx_HAL_Driver/Src/stm32f0xx_hal_can.c ****       case HAL_CAN_SLEEP_CB_ID :
 617:Drivers/STM32F0xx_HAL_Driver/Src/stm32f0xx_hal_can.c ****         hcan->SleepCallback = pCallback;
 618:Drivers/STM32F0xx_HAL_Driver/Src/stm32f0xx_hal_can.c ****         break;
 619:Drivers/STM32F0xx_HAL_Driver/Src/stm32f0xx_hal_can.c **** 
 620:Drivers/STM32F0xx_HAL_Driver/Src/stm32f0xx_hal_can.c ****       case HAL_CAN_WAKEUP_FROM_RX_MSG_CB_ID :
 621:Drivers/STM32F0xx_HAL_Driver/Src/stm32f0xx_hal_can.c ****         hcan->WakeUpFromRxMsgCallback = pCallback;
 622:Drivers/STM32F0xx_HAL_Driver/Src/stm32f0xx_hal_can.c ****         break;
 623:Drivers/STM32F0xx_HAL_Driver/Src/stm32f0xx_hal_can.c **** 
 624:Drivers/STM32F0xx_HAL_Driver/Src/stm32f0xx_hal_can.c ****       case HAL_CAN_ERROR_CB_ID :
 625:Drivers/STM32F0xx_HAL_Driver/Src/stm32f0xx_hal_can.c ****         hcan->ErrorCallback = pCallback;
 626:Drivers/STM32F0xx_HAL_Driver/Src/stm32f0xx_hal_can.c ****         break;
 627:Drivers/STM32F0xx_HAL_Driver/Src/stm32f0xx_hal_can.c **** 
 628:Drivers/STM32F0xx_HAL_Driver/Src/stm32f0xx_hal_can.c ****       case HAL_CAN_MSPINIT_CB_ID :
 629:Drivers/STM32F0xx_HAL_Driver/Src/stm32f0xx_hal_can.c ****         hcan->MspInitCallback = pCallback;
 630:Drivers/STM32F0xx_HAL_Driver/Src/stm32f0xx_hal_can.c ****         break;
 631:Drivers/STM32F0xx_HAL_Driver/Src/stm32f0xx_hal_can.c **** 
 632:Drivers/STM32F0xx_HAL_Driver/Src/stm32f0xx_hal_can.c ****       case HAL_CAN_MSPDEINIT_CB_ID :
 633:Drivers/STM32F0xx_HAL_Driver/Src/stm32f0xx_hal_can.c ****         hcan->MspDeInitCallback = pCallback;
 634:Drivers/STM32F0xx_HAL_Driver/Src/stm32f0xx_hal_can.c ****         break;
 635:Drivers/STM32F0xx_HAL_Driver/Src/stm32f0xx_hal_can.c **** 
 636:Drivers/STM32F0xx_HAL_Driver/Src/stm32f0xx_hal_can.c ****       default :
 637:Drivers/STM32F0xx_HAL_Driver/Src/stm32f0xx_hal_can.c ****         /* Update the error code */
 638:Drivers/STM32F0xx_HAL_Driver/Src/stm32f0xx_hal_can.c ****         hcan->ErrorCode |= HAL_CAN_ERROR_INVALID_CALLBACK;
 639:Drivers/STM32F0xx_HAL_Driver/Src/stm32f0xx_hal_can.c **** 
 640:Drivers/STM32F0xx_HAL_Driver/Src/stm32f0xx_hal_can.c ****         /* Return error status */
 641:Drivers/STM32F0xx_HAL_Driver/Src/stm32f0xx_hal_can.c ****         status =  HAL_ERROR;
 642:Drivers/STM32F0xx_HAL_Driver/Src/stm32f0xx_hal_can.c ****         break;
 643:Drivers/STM32F0xx_HAL_Driver/Src/stm32f0xx_hal_can.c ****     }
 644:Drivers/STM32F0xx_HAL_Driver/Src/stm32f0xx_hal_can.c ****   }
 645:Drivers/STM32F0xx_HAL_Driver/Src/stm32f0xx_hal_can.c ****   else if (hcan->State == HAL_CAN_STATE_RESET)
 646:Drivers/STM32F0xx_HAL_Driver/Src/stm32f0xx_hal_can.c ****   {
 647:Drivers/STM32F0xx_HAL_Driver/Src/stm32f0xx_hal_can.c ****     switch (CallbackID)
 648:Drivers/STM32F0xx_HAL_Driver/Src/stm32f0xx_hal_can.c ****     {
 649:Drivers/STM32F0xx_HAL_Driver/Src/stm32f0xx_hal_can.c ****       case HAL_CAN_MSPINIT_CB_ID :
 650:Drivers/STM32F0xx_HAL_Driver/Src/stm32f0xx_hal_can.c ****         hcan->MspInitCallback = pCallback;
 651:Drivers/STM32F0xx_HAL_Driver/Src/stm32f0xx_hal_can.c ****         break;
 652:Drivers/STM32F0xx_HAL_Driver/Src/stm32f0xx_hal_can.c **** 
 653:Drivers/STM32F0xx_HAL_Driver/Src/stm32f0xx_hal_can.c ****       case HAL_CAN_MSPDEINIT_CB_ID :
 654:Drivers/STM32F0xx_HAL_Driver/Src/stm32f0xx_hal_can.c ****         hcan->MspDeInitCallback = pCallback;
 655:Drivers/STM32F0xx_HAL_Driver/Src/stm32f0xx_hal_can.c ****         break;
ARM GAS  C:\Users\xhex8\AppData\Local\Temp\ccvcBrdy.s 			page 21


 656:Drivers/STM32F0xx_HAL_Driver/Src/stm32f0xx_hal_can.c **** 
 657:Drivers/STM32F0xx_HAL_Driver/Src/stm32f0xx_hal_can.c ****       default :
 658:Drivers/STM32F0xx_HAL_Driver/Src/stm32f0xx_hal_can.c ****         /* Update the error code */
 659:Drivers/STM32F0xx_HAL_Driver/Src/stm32f0xx_hal_can.c ****         hcan->ErrorCode |= HAL_CAN_ERROR_INVALID_CALLBACK;
 660:Drivers/STM32F0xx_HAL_Driver/Src/stm32f0xx_hal_can.c **** 
 661:Drivers/STM32F0xx_HAL_Driver/Src/stm32f0xx_hal_can.c ****         /* Return error status */
 662:Drivers/STM32F0xx_HAL_Driver/Src/stm32f0xx_hal_can.c ****         status =  HAL_ERROR;
 663:Drivers/STM32F0xx_HAL_Driver/Src/stm32f0xx_hal_can.c ****         break;
 664:Drivers/STM32F0xx_HAL_Driver/Src/stm32f0xx_hal_can.c ****     }
 665:Drivers/STM32F0xx_HAL_Driver/Src/stm32f0xx_hal_can.c ****   }
 666:Drivers/STM32F0xx_HAL_Driver/Src/stm32f0xx_hal_can.c ****   else
 667:Drivers/STM32F0xx_HAL_Driver/Src/stm32f0xx_hal_can.c ****   {
 668:Drivers/STM32F0xx_HAL_Driver/Src/stm32f0xx_hal_can.c ****     /* Update the error code */
 669:Drivers/STM32F0xx_HAL_Driver/Src/stm32f0xx_hal_can.c ****     hcan->ErrorCode |= HAL_CAN_ERROR_INVALID_CALLBACK;
 670:Drivers/STM32F0xx_HAL_Driver/Src/stm32f0xx_hal_can.c **** 
 671:Drivers/STM32F0xx_HAL_Driver/Src/stm32f0xx_hal_can.c ****     /* Return error status */
 672:Drivers/STM32F0xx_HAL_Driver/Src/stm32f0xx_hal_can.c ****     status =  HAL_ERROR;
 673:Drivers/STM32F0xx_HAL_Driver/Src/stm32f0xx_hal_can.c ****   }
 674:Drivers/STM32F0xx_HAL_Driver/Src/stm32f0xx_hal_can.c **** 
 675:Drivers/STM32F0xx_HAL_Driver/Src/stm32f0xx_hal_can.c ****   return status;
 676:Drivers/STM32F0xx_HAL_Driver/Src/stm32f0xx_hal_can.c **** }
 677:Drivers/STM32F0xx_HAL_Driver/Src/stm32f0xx_hal_can.c **** 
 678:Drivers/STM32F0xx_HAL_Driver/Src/stm32f0xx_hal_can.c **** /**
 679:Drivers/STM32F0xx_HAL_Driver/Src/stm32f0xx_hal_can.c ****   * @brief  Unregister a CAN CallBack.
 680:Drivers/STM32F0xx_HAL_Driver/Src/stm32f0xx_hal_can.c ****   *         CAN callback is redirected to the weak predefined callback
 681:Drivers/STM32F0xx_HAL_Driver/Src/stm32f0xx_hal_can.c ****   * @param  hcan pointer to a CAN_HandleTypeDef structure that contains
 682:Drivers/STM32F0xx_HAL_Driver/Src/stm32f0xx_hal_can.c ****   *         the configuration information for CAN module
 683:Drivers/STM32F0xx_HAL_Driver/Src/stm32f0xx_hal_can.c ****   * @param  CallbackID ID of the callback to be unregistered
 684:Drivers/STM32F0xx_HAL_Driver/Src/stm32f0xx_hal_can.c ****   *         This parameter can be one of the following values:
 685:Drivers/STM32F0xx_HAL_Driver/Src/stm32f0xx_hal_can.c ****   *           @arg @ref HAL_CAN_TX_MAILBOX0_COMPLETE_CB_ID Tx Mailbox 0 Complete callback ID
 686:Drivers/STM32F0xx_HAL_Driver/Src/stm32f0xx_hal_can.c ****   *           @arg @ref HAL_CAN_TX_MAILBOX1_COMPLETE_CB_ID Tx Mailbox 1 Complete callback ID
 687:Drivers/STM32F0xx_HAL_Driver/Src/stm32f0xx_hal_can.c ****   *           @arg @ref HAL_CAN_TX_MAILBOX2_COMPLETE_CB_ID Tx Mailbox 2 Complete callback ID
 688:Drivers/STM32F0xx_HAL_Driver/Src/stm32f0xx_hal_can.c ****   *           @arg @ref HAL_CAN_TX_MAILBOX0_ABORT_CB_ID Tx Mailbox 0 Abort callback ID
 689:Drivers/STM32F0xx_HAL_Driver/Src/stm32f0xx_hal_can.c ****   *           @arg @ref HAL_CAN_TX_MAILBOX1_ABORT_CB_ID Tx Mailbox 1 Abort callback ID
 690:Drivers/STM32F0xx_HAL_Driver/Src/stm32f0xx_hal_can.c ****   *           @arg @ref HAL_CAN_TX_MAILBOX2_ABORT_CB_ID Tx Mailbox 2 Abort callback ID
 691:Drivers/STM32F0xx_HAL_Driver/Src/stm32f0xx_hal_can.c ****   *           @arg @ref HAL_CAN_RX_FIFO0_MSG_PENDING_CB_ID Rx Fifo 0 message pending callback ID
 692:Drivers/STM32F0xx_HAL_Driver/Src/stm32f0xx_hal_can.c ****   *           @arg @ref HAL_CAN_RX_FIFO0_FULL_CB_ID Rx Fifo 0 full callback ID
 693:Drivers/STM32F0xx_HAL_Driver/Src/stm32f0xx_hal_can.c ****   *           @arg @ref HAL_CAN_RX_FIFO1_MSG_PENDING_CB_ID Rx Fifo 1 message pending callback ID
 694:Drivers/STM32F0xx_HAL_Driver/Src/stm32f0xx_hal_can.c ****   *           @arg @ref HAL_CAN_RX_FIFO1_FULL_CB_ID Rx Fifo 1 full callback ID
 695:Drivers/STM32F0xx_HAL_Driver/Src/stm32f0xx_hal_can.c ****   *           @arg @ref HAL_CAN_SLEEP_CB_ID Sleep callback ID
 696:Drivers/STM32F0xx_HAL_Driver/Src/stm32f0xx_hal_can.c ****   *           @arg @ref HAL_CAN_WAKEUP_FROM_RX_MSG_CB_ID Wake Up from Rx message callback ID
 697:Drivers/STM32F0xx_HAL_Driver/Src/stm32f0xx_hal_can.c ****   *           @arg @ref HAL_CAN_ERROR_CB_ID Error callback ID
 698:Drivers/STM32F0xx_HAL_Driver/Src/stm32f0xx_hal_can.c ****   *           @arg @ref HAL_CAN_MSPINIT_CB_ID MspInit callback ID
 699:Drivers/STM32F0xx_HAL_Driver/Src/stm32f0xx_hal_can.c ****   *           @arg @ref HAL_CAN_MSPDEINIT_CB_ID MspDeInit callback ID
 700:Drivers/STM32F0xx_HAL_Driver/Src/stm32f0xx_hal_can.c ****   * @retval HAL status
 701:Drivers/STM32F0xx_HAL_Driver/Src/stm32f0xx_hal_can.c ****   */
 702:Drivers/STM32F0xx_HAL_Driver/Src/stm32f0xx_hal_can.c **** HAL_StatusTypeDef HAL_CAN_UnRegisterCallback(CAN_HandleTypeDef *hcan, HAL_CAN_CallbackIDTypeDef Cal
 703:Drivers/STM32F0xx_HAL_Driver/Src/stm32f0xx_hal_can.c **** {
 704:Drivers/STM32F0xx_HAL_Driver/Src/stm32f0xx_hal_can.c ****   HAL_StatusTypeDef status = HAL_OK;
 705:Drivers/STM32F0xx_HAL_Driver/Src/stm32f0xx_hal_can.c **** 
 706:Drivers/STM32F0xx_HAL_Driver/Src/stm32f0xx_hal_can.c ****   if (hcan->State == HAL_CAN_STATE_READY)
 707:Drivers/STM32F0xx_HAL_Driver/Src/stm32f0xx_hal_can.c ****   {
 708:Drivers/STM32F0xx_HAL_Driver/Src/stm32f0xx_hal_can.c ****     switch (CallbackID)
 709:Drivers/STM32F0xx_HAL_Driver/Src/stm32f0xx_hal_can.c ****     {
 710:Drivers/STM32F0xx_HAL_Driver/Src/stm32f0xx_hal_can.c ****       case HAL_CAN_TX_MAILBOX0_COMPLETE_CB_ID :
 711:Drivers/STM32F0xx_HAL_Driver/Src/stm32f0xx_hal_can.c ****         hcan->TxMailbox0CompleteCallback = HAL_CAN_TxMailbox0CompleteCallback;
 712:Drivers/STM32F0xx_HAL_Driver/Src/stm32f0xx_hal_can.c ****         break;
ARM GAS  C:\Users\xhex8\AppData\Local\Temp\ccvcBrdy.s 			page 22


 713:Drivers/STM32F0xx_HAL_Driver/Src/stm32f0xx_hal_can.c **** 
 714:Drivers/STM32F0xx_HAL_Driver/Src/stm32f0xx_hal_can.c ****       case HAL_CAN_TX_MAILBOX1_COMPLETE_CB_ID :
 715:Drivers/STM32F0xx_HAL_Driver/Src/stm32f0xx_hal_can.c ****         hcan->TxMailbox1CompleteCallback = HAL_CAN_TxMailbox1CompleteCallback;
 716:Drivers/STM32F0xx_HAL_Driver/Src/stm32f0xx_hal_can.c ****         break;
 717:Drivers/STM32F0xx_HAL_Driver/Src/stm32f0xx_hal_can.c **** 
 718:Drivers/STM32F0xx_HAL_Driver/Src/stm32f0xx_hal_can.c ****       case HAL_CAN_TX_MAILBOX2_COMPLETE_CB_ID :
 719:Drivers/STM32F0xx_HAL_Driver/Src/stm32f0xx_hal_can.c ****         hcan->TxMailbox2CompleteCallback = HAL_CAN_TxMailbox2CompleteCallback;
 720:Drivers/STM32F0xx_HAL_Driver/Src/stm32f0xx_hal_can.c ****         break;
 721:Drivers/STM32F0xx_HAL_Driver/Src/stm32f0xx_hal_can.c **** 
 722:Drivers/STM32F0xx_HAL_Driver/Src/stm32f0xx_hal_can.c ****       case HAL_CAN_TX_MAILBOX0_ABORT_CB_ID :
 723:Drivers/STM32F0xx_HAL_Driver/Src/stm32f0xx_hal_can.c ****         hcan->TxMailbox0AbortCallback = HAL_CAN_TxMailbox0AbortCallback;
 724:Drivers/STM32F0xx_HAL_Driver/Src/stm32f0xx_hal_can.c ****         break;
 725:Drivers/STM32F0xx_HAL_Driver/Src/stm32f0xx_hal_can.c **** 
 726:Drivers/STM32F0xx_HAL_Driver/Src/stm32f0xx_hal_can.c ****       case HAL_CAN_TX_MAILBOX1_ABORT_CB_ID :
 727:Drivers/STM32F0xx_HAL_Driver/Src/stm32f0xx_hal_can.c ****         hcan->TxMailbox1AbortCallback = HAL_CAN_TxMailbox1AbortCallback;
 728:Drivers/STM32F0xx_HAL_Driver/Src/stm32f0xx_hal_can.c ****         break;
 729:Drivers/STM32F0xx_HAL_Driver/Src/stm32f0xx_hal_can.c **** 
 730:Drivers/STM32F0xx_HAL_Driver/Src/stm32f0xx_hal_can.c ****       case HAL_CAN_TX_MAILBOX2_ABORT_CB_ID :
 731:Drivers/STM32F0xx_HAL_Driver/Src/stm32f0xx_hal_can.c ****         hcan->TxMailbox2AbortCallback = HAL_CAN_TxMailbox2AbortCallback;
 732:Drivers/STM32F0xx_HAL_Driver/Src/stm32f0xx_hal_can.c ****         break;
 733:Drivers/STM32F0xx_HAL_Driver/Src/stm32f0xx_hal_can.c **** 
 734:Drivers/STM32F0xx_HAL_Driver/Src/stm32f0xx_hal_can.c ****       case HAL_CAN_RX_FIFO0_MSG_PENDING_CB_ID :
 735:Drivers/STM32F0xx_HAL_Driver/Src/stm32f0xx_hal_can.c ****         hcan->RxFifo0MsgPendingCallback = HAL_CAN_RxFifo0MsgPendingCallback;
 736:Drivers/STM32F0xx_HAL_Driver/Src/stm32f0xx_hal_can.c ****         break;
 737:Drivers/STM32F0xx_HAL_Driver/Src/stm32f0xx_hal_can.c **** 
 738:Drivers/STM32F0xx_HAL_Driver/Src/stm32f0xx_hal_can.c ****       case HAL_CAN_RX_FIFO0_FULL_CB_ID :
 739:Drivers/STM32F0xx_HAL_Driver/Src/stm32f0xx_hal_can.c ****         hcan->RxFifo0FullCallback = HAL_CAN_RxFifo0FullCallback;
 740:Drivers/STM32F0xx_HAL_Driver/Src/stm32f0xx_hal_can.c ****         break;
 741:Drivers/STM32F0xx_HAL_Driver/Src/stm32f0xx_hal_can.c **** 
 742:Drivers/STM32F0xx_HAL_Driver/Src/stm32f0xx_hal_can.c ****       case HAL_CAN_RX_FIFO1_MSG_PENDING_CB_ID :
 743:Drivers/STM32F0xx_HAL_Driver/Src/stm32f0xx_hal_can.c ****         hcan->RxFifo1MsgPendingCallback = HAL_CAN_RxFifo1MsgPendingCallback;
 744:Drivers/STM32F0xx_HAL_Driver/Src/stm32f0xx_hal_can.c ****         break;
 745:Drivers/STM32F0xx_HAL_Driver/Src/stm32f0xx_hal_can.c **** 
 746:Drivers/STM32F0xx_HAL_Driver/Src/stm32f0xx_hal_can.c ****       case HAL_CAN_RX_FIFO1_FULL_CB_ID :
 747:Drivers/STM32F0xx_HAL_Driver/Src/stm32f0xx_hal_can.c ****         hcan->RxFifo1FullCallback = HAL_CAN_RxFifo1FullCallback;
 748:Drivers/STM32F0xx_HAL_Driver/Src/stm32f0xx_hal_can.c ****         break;
 749:Drivers/STM32F0xx_HAL_Driver/Src/stm32f0xx_hal_can.c **** 
 750:Drivers/STM32F0xx_HAL_Driver/Src/stm32f0xx_hal_can.c ****       case HAL_CAN_SLEEP_CB_ID :
 751:Drivers/STM32F0xx_HAL_Driver/Src/stm32f0xx_hal_can.c ****         hcan->SleepCallback = HAL_CAN_SleepCallback;
 752:Drivers/STM32F0xx_HAL_Driver/Src/stm32f0xx_hal_can.c ****         break;
 753:Drivers/STM32F0xx_HAL_Driver/Src/stm32f0xx_hal_can.c **** 
 754:Drivers/STM32F0xx_HAL_Driver/Src/stm32f0xx_hal_can.c ****       case HAL_CAN_WAKEUP_FROM_RX_MSG_CB_ID :
 755:Drivers/STM32F0xx_HAL_Driver/Src/stm32f0xx_hal_can.c ****         hcan->WakeUpFromRxMsgCallback = HAL_CAN_WakeUpFromRxMsgCallback;
 756:Drivers/STM32F0xx_HAL_Driver/Src/stm32f0xx_hal_can.c ****         break;
 757:Drivers/STM32F0xx_HAL_Driver/Src/stm32f0xx_hal_can.c **** 
 758:Drivers/STM32F0xx_HAL_Driver/Src/stm32f0xx_hal_can.c ****       case HAL_CAN_ERROR_CB_ID :
 759:Drivers/STM32F0xx_HAL_Driver/Src/stm32f0xx_hal_can.c ****         hcan->ErrorCallback = HAL_CAN_ErrorCallback;
 760:Drivers/STM32F0xx_HAL_Driver/Src/stm32f0xx_hal_can.c ****         break;
 761:Drivers/STM32F0xx_HAL_Driver/Src/stm32f0xx_hal_can.c **** 
 762:Drivers/STM32F0xx_HAL_Driver/Src/stm32f0xx_hal_can.c ****       case HAL_CAN_MSPINIT_CB_ID :
 763:Drivers/STM32F0xx_HAL_Driver/Src/stm32f0xx_hal_can.c ****         hcan->MspInitCallback = HAL_CAN_MspInit;
 764:Drivers/STM32F0xx_HAL_Driver/Src/stm32f0xx_hal_can.c ****         break;
 765:Drivers/STM32F0xx_HAL_Driver/Src/stm32f0xx_hal_can.c **** 
 766:Drivers/STM32F0xx_HAL_Driver/Src/stm32f0xx_hal_can.c ****       case HAL_CAN_MSPDEINIT_CB_ID :
 767:Drivers/STM32F0xx_HAL_Driver/Src/stm32f0xx_hal_can.c ****         hcan->MspDeInitCallback = HAL_CAN_MspDeInit;
 768:Drivers/STM32F0xx_HAL_Driver/Src/stm32f0xx_hal_can.c ****         break;
 769:Drivers/STM32F0xx_HAL_Driver/Src/stm32f0xx_hal_can.c **** 
ARM GAS  C:\Users\xhex8\AppData\Local\Temp\ccvcBrdy.s 			page 23


 770:Drivers/STM32F0xx_HAL_Driver/Src/stm32f0xx_hal_can.c ****       default :
 771:Drivers/STM32F0xx_HAL_Driver/Src/stm32f0xx_hal_can.c ****         /* Update the error code */
 772:Drivers/STM32F0xx_HAL_Driver/Src/stm32f0xx_hal_can.c ****         hcan->ErrorCode |= HAL_CAN_ERROR_INVALID_CALLBACK;
 773:Drivers/STM32F0xx_HAL_Driver/Src/stm32f0xx_hal_can.c **** 
 774:Drivers/STM32F0xx_HAL_Driver/Src/stm32f0xx_hal_can.c ****         /* Return error status */
 775:Drivers/STM32F0xx_HAL_Driver/Src/stm32f0xx_hal_can.c ****         status =  HAL_ERROR;
 776:Drivers/STM32F0xx_HAL_Driver/Src/stm32f0xx_hal_can.c ****         break;
 777:Drivers/STM32F0xx_HAL_Driver/Src/stm32f0xx_hal_can.c ****     }
 778:Drivers/STM32F0xx_HAL_Driver/Src/stm32f0xx_hal_can.c ****   }
 779:Drivers/STM32F0xx_HAL_Driver/Src/stm32f0xx_hal_can.c ****   else if (hcan->State == HAL_CAN_STATE_RESET)
 780:Drivers/STM32F0xx_HAL_Driver/Src/stm32f0xx_hal_can.c ****   {
 781:Drivers/STM32F0xx_HAL_Driver/Src/stm32f0xx_hal_can.c ****     switch (CallbackID)
 782:Drivers/STM32F0xx_HAL_Driver/Src/stm32f0xx_hal_can.c ****     {
 783:Drivers/STM32F0xx_HAL_Driver/Src/stm32f0xx_hal_can.c ****       case HAL_CAN_MSPINIT_CB_ID :
 784:Drivers/STM32F0xx_HAL_Driver/Src/stm32f0xx_hal_can.c ****         hcan->MspInitCallback = HAL_CAN_MspInit;
 785:Drivers/STM32F0xx_HAL_Driver/Src/stm32f0xx_hal_can.c ****         break;
 786:Drivers/STM32F0xx_HAL_Driver/Src/stm32f0xx_hal_can.c **** 
 787:Drivers/STM32F0xx_HAL_Driver/Src/stm32f0xx_hal_can.c ****       case HAL_CAN_MSPDEINIT_CB_ID :
 788:Drivers/STM32F0xx_HAL_Driver/Src/stm32f0xx_hal_can.c ****         hcan->MspDeInitCallback = HAL_CAN_MspDeInit;
 789:Drivers/STM32F0xx_HAL_Driver/Src/stm32f0xx_hal_can.c ****         break;
 790:Drivers/STM32F0xx_HAL_Driver/Src/stm32f0xx_hal_can.c **** 
 791:Drivers/STM32F0xx_HAL_Driver/Src/stm32f0xx_hal_can.c ****       default :
 792:Drivers/STM32F0xx_HAL_Driver/Src/stm32f0xx_hal_can.c ****         /* Update the error code */
 793:Drivers/STM32F0xx_HAL_Driver/Src/stm32f0xx_hal_can.c ****         hcan->ErrorCode |= HAL_CAN_ERROR_INVALID_CALLBACK;
 794:Drivers/STM32F0xx_HAL_Driver/Src/stm32f0xx_hal_can.c **** 
 795:Drivers/STM32F0xx_HAL_Driver/Src/stm32f0xx_hal_can.c ****         /* Return error status */
 796:Drivers/STM32F0xx_HAL_Driver/Src/stm32f0xx_hal_can.c ****         status =  HAL_ERROR;
 797:Drivers/STM32F0xx_HAL_Driver/Src/stm32f0xx_hal_can.c ****         break;
 798:Drivers/STM32F0xx_HAL_Driver/Src/stm32f0xx_hal_can.c ****     }
 799:Drivers/STM32F0xx_HAL_Driver/Src/stm32f0xx_hal_can.c ****   }
 800:Drivers/STM32F0xx_HAL_Driver/Src/stm32f0xx_hal_can.c ****   else
 801:Drivers/STM32F0xx_HAL_Driver/Src/stm32f0xx_hal_can.c ****   {
 802:Drivers/STM32F0xx_HAL_Driver/Src/stm32f0xx_hal_can.c ****     /* Update the error code */
 803:Drivers/STM32F0xx_HAL_Driver/Src/stm32f0xx_hal_can.c ****     hcan->ErrorCode |= HAL_CAN_ERROR_INVALID_CALLBACK;
 804:Drivers/STM32F0xx_HAL_Driver/Src/stm32f0xx_hal_can.c **** 
 805:Drivers/STM32F0xx_HAL_Driver/Src/stm32f0xx_hal_can.c ****     /* Return error status */
 806:Drivers/STM32F0xx_HAL_Driver/Src/stm32f0xx_hal_can.c ****     status =  HAL_ERROR;
 807:Drivers/STM32F0xx_HAL_Driver/Src/stm32f0xx_hal_can.c ****   }
 808:Drivers/STM32F0xx_HAL_Driver/Src/stm32f0xx_hal_can.c **** 
 809:Drivers/STM32F0xx_HAL_Driver/Src/stm32f0xx_hal_can.c ****   return status;
 810:Drivers/STM32F0xx_HAL_Driver/Src/stm32f0xx_hal_can.c **** }
 811:Drivers/STM32F0xx_HAL_Driver/Src/stm32f0xx_hal_can.c **** #endif /* USE_HAL_CAN_REGISTER_CALLBACKS */
 812:Drivers/STM32F0xx_HAL_Driver/Src/stm32f0xx_hal_can.c **** 
 813:Drivers/STM32F0xx_HAL_Driver/Src/stm32f0xx_hal_can.c **** /**
 814:Drivers/STM32F0xx_HAL_Driver/Src/stm32f0xx_hal_can.c ****   * @}
 815:Drivers/STM32F0xx_HAL_Driver/Src/stm32f0xx_hal_can.c ****   */
 816:Drivers/STM32F0xx_HAL_Driver/Src/stm32f0xx_hal_can.c **** 
 817:Drivers/STM32F0xx_HAL_Driver/Src/stm32f0xx_hal_can.c **** /** @defgroup CAN_Exported_Functions_Group2 Configuration functions
 818:Drivers/STM32F0xx_HAL_Driver/Src/stm32f0xx_hal_can.c ****   * @brief    Configuration functions.
 819:Drivers/STM32F0xx_HAL_Driver/Src/stm32f0xx_hal_can.c ****   *
 820:Drivers/STM32F0xx_HAL_Driver/Src/stm32f0xx_hal_can.c **** @verbatim
 821:Drivers/STM32F0xx_HAL_Driver/Src/stm32f0xx_hal_can.c ****   ==============================================================================
 822:Drivers/STM32F0xx_HAL_Driver/Src/stm32f0xx_hal_can.c ****               ##### Configuration functions #####
 823:Drivers/STM32F0xx_HAL_Driver/Src/stm32f0xx_hal_can.c ****   ==============================================================================
 824:Drivers/STM32F0xx_HAL_Driver/Src/stm32f0xx_hal_can.c ****     [..]  This section provides functions allowing to:
 825:Drivers/STM32F0xx_HAL_Driver/Src/stm32f0xx_hal_can.c ****       (+) HAL_CAN_ConfigFilter            : Configure the CAN reception filters
 826:Drivers/STM32F0xx_HAL_Driver/Src/stm32f0xx_hal_can.c **** 
ARM GAS  C:\Users\xhex8\AppData\Local\Temp\ccvcBrdy.s 			page 24


 827:Drivers/STM32F0xx_HAL_Driver/Src/stm32f0xx_hal_can.c **** @endverbatim
 828:Drivers/STM32F0xx_HAL_Driver/Src/stm32f0xx_hal_can.c ****   * @{
 829:Drivers/STM32F0xx_HAL_Driver/Src/stm32f0xx_hal_can.c ****   */
 830:Drivers/STM32F0xx_HAL_Driver/Src/stm32f0xx_hal_can.c **** 
 831:Drivers/STM32F0xx_HAL_Driver/Src/stm32f0xx_hal_can.c **** /**
 832:Drivers/STM32F0xx_HAL_Driver/Src/stm32f0xx_hal_can.c ****   * @brief  Configures the CAN reception filter according to the specified
 833:Drivers/STM32F0xx_HAL_Driver/Src/stm32f0xx_hal_can.c ****   *         parameters in the CAN_FilterInitStruct.
 834:Drivers/STM32F0xx_HAL_Driver/Src/stm32f0xx_hal_can.c ****   * @param  hcan pointer to a CAN_HandleTypeDef structure that contains
 835:Drivers/STM32F0xx_HAL_Driver/Src/stm32f0xx_hal_can.c ****   *         the configuration information for the specified CAN.
 836:Drivers/STM32F0xx_HAL_Driver/Src/stm32f0xx_hal_can.c ****   * @param  sFilterConfig pointer to a CAN_FilterTypeDef structure that
 837:Drivers/STM32F0xx_HAL_Driver/Src/stm32f0xx_hal_can.c ****   *         contains the filter configuration information.
 838:Drivers/STM32F0xx_HAL_Driver/Src/stm32f0xx_hal_can.c ****   * @retval None
 839:Drivers/STM32F0xx_HAL_Driver/Src/stm32f0xx_hal_can.c ****   */
 840:Drivers/STM32F0xx_HAL_Driver/Src/stm32f0xx_hal_can.c **** HAL_StatusTypeDef HAL_CAN_ConfigFilter(CAN_HandleTypeDef *hcan, const CAN_FilterTypeDef *sFilterCon
 841:Drivers/STM32F0xx_HAL_Driver/Src/stm32f0xx_hal_can.c **** {
 392              		.loc 1 841 1 is_stmt 1 view -0
 393              		.cfi_startproc
 394              		@ args = 0, pretend = 0, frame = 0
 395              		@ frame_needed = 0, uses_anonymous_args = 0
 396              		.loc 1 841 1 is_stmt 0 view .LVU108
 397 0000 70B5     		push	{r4, r5, r6, lr}
 398              		.cfi_def_cfa_offset 16
 399              		.cfi_offset 4, -16
 400              		.cfi_offset 5, -12
 401              		.cfi_offset 6, -8
 402              		.cfi_offset 14, -4
 842:Drivers/STM32F0xx_HAL_Driver/Src/stm32f0xx_hal_can.c ****   uint32_t filternbrbitpos;
 403              		.loc 1 842 3 is_stmt 1 view .LVU109
 843:Drivers/STM32F0xx_HAL_Driver/Src/stm32f0xx_hal_can.c ****   CAN_TypeDef *can_ip = hcan->Instance;
 404              		.loc 1 843 3 view .LVU110
 405              		.loc 1 843 16 is_stmt 0 view .LVU111
 406 0002 0268     		ldr	r2, [r0]
 407              	.LVL18:
 844:Drivers/STM32F0xx_HAL_Driver/Src/stm32f0xx_hal_can.c ****   HAL_CAN_StateTypeDef state = hcan->State;
 408              		.loc 1 844 3 is_stmt 1 view .LVU112
 409              		.loc 1 844 24 is_stmt 0 view .LVU113
 410 0004 2023     		movs	r3, #32
 411 0006 C35C     		ldrb	r3, [r0, r3]
 412              	.LVL19:
 845:Drivers/STM32F0xx_HAL_Driver/Src/stm32f0xx_hal_can.c **** 
 846:Drivers/STM32F0xx_HAL_Driver/Src/stm32f0xx_hal_can.c ****   if ((state == HAL_CAN_STATE_READY) ||
 413              		.loc 1 846 3 is_stmt 1 view .LVU114
 414              		.loc 1 846 38 is_stmt 0 view .LVU115
 415 0008 013B     		subs	r3, r3, #1
 416              	.LVL20:
 417              		.loc 1 846 38 view .LVU116
 418 000a DBB2     		uxtb	r3, r3
 419              		.loc 1 846 6 view .LVU117
 420 000c 012B     		cmp	r3, #1
 421 000e 06D9     		bls	.L42
 847:Drivers/STM32F0xx_HAL_Driver/Src/stm32f0xx_hal_can.c ****       (state == HAL_CAN_STATE_LISTENING))
 848:Drivers/STM32F0xx_HAL_Driver/Src/stm32f0xx_hal_can.c ****   {
 849:Drivers/STM32F0xx_HAL_Driver/Src/stm32f0xx_hal_can.c ****     /* Check the parameters */
 850:Drivers/STM32F0xx_HAL_Driver/Src/stm32f0xx_hal_can.c ****     assert_param(IS_CAN_FILTER_ID_HALFWORD(sFilterConfig->FilterIdHigh));
 851:Drivers/STM32F0xx_HAL_Driver/Src/stm32f0xx_hal_can.c ****     assert_param(IS_CAN_FILTER_ID_HALFWORD(sFilterConfig->FilterIdLow));
 852:Drivers/STM32F0xx_HAL_Driver/Src/stm32f0xx_hal_can.c ****     assert_param(IS_CAN_FILTER_ID_HALFWORD(sFilterConfig->FilterMaskIdHigh));
 853:Drivers/STM32F0xx_HAL_Driver/Src/stm32f0xx_hal_can.c ****     assert_param(IS_CAN_FILTER_ID_HALFWORD(sFilterConfig->FilterMaskIdLow));
ARM GAS  C:\Users\xhex8\AppData\Local\Temp\ccvcBrdy.s 			page 25


 854:Drivers/STM32F0xx_HAL_Driver/Src/stm32f0xx_hal_can.c ****     assert_param(IS_CAN_FILTER_MODE(sFilterConfig->FilterMode));
 855:Drivers/STM32F0xx_HAL_Driver/Src/stm32f0xx_hal_can.c ****     assert_param(IS_CAN_FILTER_SCALE(sFilterConfig->FilterScale));
 856:Drivers/STM32F0xx_HAL_Driver/Src/stm32f0xx_hal_can.c ****     assert_param(IS_CAN_FILTER_FIFO(sFilterConfig->FilterFIFOAssignment));
 857:Drivers/STM32F0xx_HAL_Driver/Src/stm32f0xx_hal_can.c ****     assert_param(IS_CAN_FILTER_ACTIVATION(sFilterConfig->FilterActivation));
 858:Drivers/STM32F0xx_HAL_Driver/Src/stm32f0xx_hal_can.c **** 
 859:Drivers/STM32F0xx_HAL_Driver/Src/stm32f0xx_hal_can.c ****     /* CAN is single instance with 14 dedicated filters banks */
 860:Drivers/STM32F0xx_HAL_Driver/Src/stm32f0xx_hal_can.c **** 
 861:Drivers/STM32F0xx_HAL_Driver/Src/stm32f0xx_hal_can.c ****     /* Check the parameters */
 862:Drivers/STM32F0xx_HAL_Driver/Src/stm32f0xx_hal_can.c ****     assert_param(IS_CAN_FILTER_BANK_SINGLE(sFilterConfig->FilterBank));
 863:Drivers/STM32F0xx_HAL_Driver/Src/stm32f0xx_hal_can.c **** 
 864:Drivers/STM32F0xx_HAL_Driver/Src/stm32f0xx_hal_can.c ****     /* Initialisation mode for the filter */
 865:Drivers/STM32F0xx_HAL_Driver/Src/stm32f0xx_hal_can.c ****     SET_BIT(can_ip->FMR, CAN_FMR_FINIT);
 866:Drivers/STM32F0xx_HAL_Driver/Src/stm32f0xx_hal_can.c **** 
 867:Drivers/STM32F0xx_HAL_Driver/Src/stm32f0xx_hal_can.c ****     /* Convert filter number into bit position */
 868:Drivers/STM32F0xx_HAL_Driver/Src/stm32f0xx_hal_can.c ****     filternbrbitpos = (uint32_t)1 << (sFilterConfig->FilterBank & 0x1FU);
 869:Drivers/STM32F0xx_HAL_Driver/Src/stm32f0xx_hal_can.c **** 
 870:Drivers/STM32F0xx_HAL_Driver/Src/stm32f0xx_hal_can.c ****     /* Filter Deactivation */
 871:Drivers/STM32F0xx_HAL_Driver/Src/stm32f0xx_hal_can.c ****     CLEAR_BIT(can_ip->FA1R, filternbrbitpos);
 872:Drivers/STM32F0xx_HAL_Driver/Src/stm32f0xx_hal_can.c **** 
 873:Drivers/STM32F0xx_HAL_Driver/Src/stm32f0xx_hal_can.c ****     /* Filter Scale */
 874:Drivers/STM32F0xx_HAL_Driver/Src/stm32f0xx_hal_can.c ****     if (sFilterConfig->FilterScale == CAN_FILTERSCALE_16BIT)
 875:Drivers/STM32F0xx_HAL_Driver/Src/stm32f0xx_hal_can.c ****     {
 876:Drivers/STM32F0xx_HAL_Driver/Src/stm32f0xx_hal_can.c ****       /* 16-bit scale for the filter */
 877:Drivers/STM32F0xx_HAL_Driver/Src/stm32f0xx_hal_can.c ****       CLEAR_BIT(can_ip->FS1R, filternbrbitpos);
 878:Drivers/STM32F0xx_HAL_Driver/Src/stm32f0xx_hal_can.c **** 
 879:Drivers/STM32F0xx_HAL_Driver/Src/stm32f0xx_hal_can.c ****       /* First 16-bit identifier and First 16-bit mask */
 880:Drivers/STM32F0xx_HAL_Driver/Src/stm32f0xx_hal_can.c ****       /* Or First 16-bit identifier and Second 16-bit identifier */
 881:Drivers/STM32F0xx_HAL_Driver/Src/stm32f0xx_hal_can.c ****       can_ip->sFilterRegister[sFilterConfig->FilterBank].FR1 =
 882:Drivers/STM32F0xx_HAL_Driver/Src/stm32f0xx_hal_can.c ****         ((0x0000FFFFU & (uint32_t)sFilterConfig->FilterMaskIdLow) << 16U) |
 883:Drivers/STM32F0xx_HAL_Driver/Src/stm32f0xx_hal_can.c ****         (0x0000FFFFU & (uint32_t)sFilterConfig->FilterIdLow);
 884:Drivers/STM32F0xx_HAL_Driver/Src/stm32f0xx_hal_can.c **** 
 885:Drivers/STM32F0xx_HAL_Driver/Src/stm32f0xx_hal_can.c ****       /* Second 16-bit identifier and Second 16-bit mask */
 886:Drivers/STM32F0xx_HAL_Driver/Src/stm32f0xx_hal_can.c ****       /* Or Third 16-bit identifier and Fourth 16-bit identifier */
 887:Drivers/STM32F0xx_HAL_Driver/Src/stm32f0xx_hal_can.c ****       can_ip->sFilterRegister[sFilterConfig->FilterBank].FR2 =
 888:Drivers/STM32F0xx_HAL_Driver/Src/stm32f0xx_hal_can.c ****         ((0x0000FFFFU & (uint32_t)sFilterConfig->FilterMaskIdHigh) << 16U) |
 889:Drivers/STM32F0xx_HAL_Driver/Src/stm32f0xx_hal_can.c ****         (0x0000FFFFU & (uint32_t)sFilterConfig->FilterIdHigh);
 890:Drivers/STM32F0xx_HAL_Driver/Src/stm32f0xx_hal_can.c ****     }
 891:Drivers/STM32F0xx_HAL_Driver/Src/stm32f0xx_hal_can.c **** 
 892:Drivers/STM32F0xx_HAL_Driver/Src/stm32f0xx_hal_can.c ****     if (sFilterConfig->FilterScale == CAN_FILTERSCALE_32BIT)
 893:Drivers/STM32F0xx_HAL_Driver/Src/stm32f0xx_hal_can.c ****     {
 894:Drivers/STM32F0xx_HAL_Driver/Src/stm32f0xx_hal_can.c ****       /* 32-bit scale for the filter */
 895:Drivers/STM32F0xx_HAL_Driver/Src/stm32f0xx_hal_can.c ****       SET_BIT(can_ip->FS1R, filternbrbitpos);
 896:Drivers/STM32F0xx_HAL_Driver/Src/stm32f0xx_hal_can.c **** 
 897:Drivers/STM32F0xx_HAL_Driver/Src/stm32f0xx_hal_can.c ****       /* 32-bit identifier or First 32-bit identifier */
 898:Drivers/STM32F0xx_HAL_Driver/Src/stm32f0xx_hal_can.c ****       can_ip->sFilterRegister[sFilterConfig->FilterBank].FR1 =
 899:Drivers/STM32F0xx_HAL_Driver/Src/stm32f0xx_hal_can.c ****         ((0x0000FFFFU & (uint32_t)sFilterConfig->FilterIdHigh) << 16U) |
 900:Drivers/STM32F0xx_HAL_Driver/Src/stm32f0xx_hal_can.c ****         (0x0000FFFFU & (uint32_t)sFilterConfig->FilterIdLow);
 901:Drivers/STM32F0xx_HAL_Driver/Src/stm32f0xx_hal_can.c **** 
 902:Drivers/STM32F0xx_HAL_Driver/Src/stm32f0xx_hal_can.c ****       /* 32-bit mask or Second 32-bit identifier */
 903:Drivers/STM32F0xx_HAL_Driver/Src/stm32f0xx_hal_can.c ****       can_ip->sFilterRegister[sFilterConfig->FilterBank].FR2 =
 904:Drivers/STM32F0xx_HAL_Driver/Src/stm32f0xx_hal_can.c ****         ((0x0000FFFFU & (uint32_t)sFilterConfig->FilterMaskIdHigh) << 16U) |
 905:Drivers/STM32F0xx_HAL_Driver/Src/stm32f0xx_hal_can.c ****         (0x0000FFFFU & (uint32_t)sFilterConfig->FilterMaskIdLow);
 906:Drivers/STM32F0xx_HAL_Driver/Src/stm32f0xx_hal_can.c ****     }
 907:Drivers/STM32F0xx_HAL_Driver/Src/stm32f0xx_hal_can.c **** 
 908:Drivers/STM32F0xx_HAL_Driver/Src/stm32f0xx_hal_can.c ****     /* Filter Mode */
 909:Drivers/STM32F0xx_HAL_Driver/Src/stm32f0xx_hal_can.c ****     if (sFilterConfig->FilterMode == CAN_FILTERMODE_IDMASK)
 910:Drivers/STM32F0xx_HAL_Driver/Src/stm32f0xx_hal_can.c ****     {
ARM GAS  C:\Users\xhex8\AppData\Local\Temp\ccvcBrdy.s 			page 26


 911:Drivers/STM32F0xx_HAL_Driver/Src/stm32f0xx_hal_can.c ****       /* Id/Mask mode for the filter*/
 912:Drivers/STM32F0xx_HAL_Driver/Src/stm32f0xx_hal_can.c ****       CLEAR_BIT(can_ip->FM1R, filternbrbitpos);
 913:Drivers/STM32F0xx_HAL_Driver/Src/stm32f0xx_hal_can.c ****     }
 914:Drivers/STM32F0xx_HAL_Driver/Src/stm32f0xx_hal_can.c ****     else /* CAN_FilterInitStruct->CAN_FilterMode == CAN_FilterMode_IdList */
 915:Drivers/STM32F0xx_HAL_Driver/Src/stm32f0xx_hal_can.c ****     {
 916:Drivers/STM32F0xx_HAL_Driver/Src/stm32f0xx_hal_can.c ****       /* Identifier list mode for the filter*/
 917:Drivers/STM32F0xx_HAL_Driver/Src/stm32f0xx_hal_can.c ****       SET_BIT(can_ip->FM1R, filternbrbitpos);
 918:Drivers/STM32F0xx_HAL_Driver/Src/stm32f0xx_hal_can.c ****     }
 919:Drivers/STM32F0xx_HAL_Driver/Src/stm32f0xx_hal_can.c **** 
 920:Drivers/STM32F0xx_HAL_Driver/Src/stm32f0xx_hal_can.c ****     /* Filter FIFO assignment */
 921:Drivers/STM32F0xx_HAL_Driver/Src/stm32f0xx_hal_can.c ****     if (sFilterConfig->FilterFIFOAssignment == CAN_FILTER_FIFO0)
 922:Drivers/STM32F0xx_HAL_Driver/Src/stm32f0xx_hal_can.c ****     {
 923:Drivers/STM32F0xx_HAL_Driver/Src/stm32f0xx_hal_can.c ****       /* FIFO 0 assignation for the filter */
 924:Drivers/STM32F0xx_HAL_Driver/Src/stm32f0xx_hal_can.c ****       CLEAR_BIT(can_ip->FFA1R, filternbrbitpos);
 925:Drivers/STM32F0xx_HAL_Driver/Src/stm32f0xx_hal_can.c ****     }
 926:Drivers/STM32F0xx_HAL_Driver/Src/stm32f0xx_hal_can.c ****     else
 927:Drivers/STM32F0xx_HAL_Driver/Src/stm32f0xx_hal_can.c ****     {
 928:Drivers/STM32F0xx_HAL_Driver/Src/stm32f0xx_hal_can.c ****       /* FIFO 1 assignation for the filter */
 929:Drivers/STM32F0xx_HAL_Driver/Src/stm32f0xx_hal_can.c ****       SET_BIT(can_ip->FFA1R, filternbrbitpos);
 930:Drivers/STM32F0xx_HAL_Driver/Src/stm32f0xx_hal_can.c ****     }
 931:Drivers/STM32F0xx_HAL_Driver/Src/stm32f0xx_hal_can.c **** 
 932:Drivers/STM32F0xx_HAL_Driver/Src/stm32f0xx_hal_can.c ****     /* Filter activation */
 933:Drivers/STM32F0xx_HAL_Driver/Src/stm32f0xx_hal_can.c ****     if (sFilterConfig->FilterActivation == CAN_FILTER_ENABLE)
 934:Drivers/STM32F0xx_HAL_Driver/Src/stm32f0xx_hal_can.c ****     {
 935:Drivers/STM32F0xx_HAL_Driver/Src/stm32f0xx_hal_can.c ****       SET_BIT(can_ip->FA1R, filternbrbitpos);
 936:Drivers/STM32F0xx_HAL_Driver/Src/stm32f0xx_hal_can.c ****     }
 937:Drivers/STM32F0xx_HAL_Driver/Src/stm32f0xx_hal_can.c **** 
 938:Drivers/STM32F0xx_HAL_Driver/Src/stm32f0xx_hal_can.c ****     /* Leave the initialisation mode for the filter */
 939:Drivers/STM32F0xx_HAL_Driver/Src/stm32f0xx_hal_can.c ****     CLEAR_BIT(can_ip->FMR, CAN_FMR_FINIT);
 940:Drivers/STM32F0xx_HAL_Driver/Src/stm32f0xx_hal_can.c **** 
 941:Drivers/STM32F0xx_HAL_Driver/Src/stm32f0xx_hal_can.c ****     /* Return function status */
 942:Drivers/STM32F0xx_HAL_Driver/Src/stm32f0xx_hal_can.c ****     return HAL_OK;
 943:Drivers/STM32F0xx_HAL_Driver/Src/stm32f0xx_hal_can.c ****   }
 944:Drivers/STM32F0xx_HAL_Driver/Src/stm32f0xx_hal_can.c ****   else
 945:Drivers/STM32F0xx_HAL_Driver/Src/stm32f0xx_hal_can.c ****   {
 946:Drivers/STM32F0xx_HAL_Driver/Src/stm32f0xx_hal_can.c ****     /* Update error code */
 947:Drivers/STM32F0xx_HAL_Driver/Src/stm32f0xx_hal_can.c ****     hcan->ErrorCode |= HAL_CAN_ERROR_NOT_INITIALIZED;
 422              		.loc 1 947 5 is_stmt 1 view .LVU118
 423              		.loc 1 947 9 is_stmt 0 view .LVU119
 424 0010 426A     		ldr	r2, [r0, #36]
 425              	.LVL21:
 426              		.loc 1 947 21 view .LVU120
 427 0012 8023     		movs	r3, #128
 428 0014 DB02     		lsls	r3, r3, #11
 429 0016 1343     		orrs	r3, r2
 430 0018 4362     		str	r3, [r0, #36]
 948:Drivers/STM32F0xx_HAL_Driver/Src/stm32f0xx_hal_can.c **** 
 949:Drivers/STM32F0xx_HAL_Driver/Src/stm32f0xx_hal_can.c ****     return HAL_ERROR;
 431              		.loc 1 949 5 is_stmt 1 view .LVU121
 432              		.loc 1 949 12 is_stmt 0 view .LVU122
 433 001a 0120     		movs	r0, #1
 434              	.LVL22:
 435              	.L41:
 950:Drivers/STM32F0xx_HAL_Driver/Src/stm32f0xx_hal_can.c ****   }
 951:Drivers/STM32F0xx_HAL_Driver/Src/stm32f0xx_hal_can.c **** }
 436              		.loc 1 951 1 view .LVU123
 437              		@ sp needed
ARM GAS  C:\Users\xhex8\AppData\Local\Temp\ccvcBrdy.s 			page 27


 438 001c 70BD     		pop	{r4, r5, r6, pc}
 439              	.LVL23:
 440              	.L42:
 850:Drivers/STM32F0xx_HAL_Driver/Src/stm32f0xx_hal_can.c ****     assert_param(IS_CAN_FILTER_ID_HALFWORD(sFilterConfig->FilterIdLow));
 441              		.loc 1 850 5 is_stmt 1 view .LVU124
 851:Drivers/STM32F0xx_HAL_Driver/Src/stm32f0xx_hal_can.c ****     assert_param(IS_CAN_FILTER_ID_HALFWORD(sFilterConfig->FilterMaskIdHigh));
 442              		.loc 1 851 5 view .LVU125
 852:Drivers/STM32F0xx_HAL_Driver/Src/stm32f0xx_hal_can.c ****     assert_param(IS_CAN_FILTER_ID_HALFWORD(sFilterConfig->FilterMaskIdLow));
 443              		.loc 1 852 5 view .LVU126
 853:Drivers/STM32F0xx_HAL_Driver/Src/stm32f0xx_hal_can.c ****     assert_param(IS_CAN_FILTER_MODE(sFilterConfig->FilterMode));
 444              		.loc 1 853 5 view .LVU127
 854:Drivers/STM32F0xx_HAL_Driver/Src/stm32f0xx_hal_can.c ****     assert_param(IS_CAN_FILTER_SCALE(sFilterConfig->FilterScale));
 445              		.loc 1 854 5 view .LVU128
 855:Drivers/STM32F0xx_HAL_Driver/Src/stm32f0xx_hal_can.c ****     assert_param(IS_CAN_FILTER_FIFO(sFilterConfig->FilterFIFOAssignment));
 446              		.loc 1 855 5 view .LVU129
 856:Drivers/STM32F0xx_HAL_Driver/Src/stm32f0xx_hal_can.c ****     assert_param(IS_CAN_FILTER_ACTIVATION(sFilterConfig->FilterActivation));
 447              		.loc 1 856 5 view .LVU130
 857:Drivers/STM32F0xx_HAL_Driver/Src/stm32f0xx_hal_can.c **** 
 448              		.loc 1 857 5 view .LVU131
 862:Drivers/STM32F0xx_HAL_Driver/Src/stm32f0xx_hal_can.c **** 
 449              		.loc 1 862 5 view .LVU132
 865:Drivers/STM32F0xx_HAL_Driver/Src/stm32f0xx_hal_can.c **** 
 450              		.loc 1 865 5 view .LVU133
 451 001e 8024     		movs	r4, #128
 452 0020 A400     		lsls	r4, r4, #2
 453 0022 1059     		ldr	r0, [r2, r4]
 454              	.LVL24:
 865:Drivers/STM32F0xx_HAL_Driver/Src/stm32f0xx_hal_can.c **** 
 455              		.loc 1 865 5 is_stmt 0 view .LVU134
 456 0024 0123     		movs	r3, #1
 457 0026 1843     		orrs	r0, r3
 458 0028 1051     		str	r0, [r2, r4]
 868:Drivers/STM32F0xx_HAL_Driver/Src/stm32f0xx_hal_can.c **** 
 459              		.loc 1 868 5 is_stmt 1 view .LVU135
 868:Drivers/STM32F0xx_HAL_Driver/Src/stm32f0xx_hal_can.c **** 
 460              		.loc 1 868 52 is_stmt 0 view .LVU136
 461 002a 4C69     		ldr	r4, [r1, #20]
 868:Drivers/STM32F0xx_HAL_Driver/Src/stm32f0xx_hal_can.c **** 
 462              		.loc 1 868 65 view .LVU137
 463 002c 1F20     		movs	r0, #31
 464 002e 2040     		ands	r0, r4
 868:Drivers/STM32F0xx_HAL_Driver/Src/stm32f0xx_hal_can.c **** 
 465              		.loc 1 868 21 view .LVU138
 466 0030 8340     		lsls	r3, r3, r0
 467              	.LVL25:
 871:Drivers/STM32F0xx_HAL_Driver/Src/stm32f0xx_hal_can.c **** 
 468              		.loc 1 871 5 is_stmt 1 view .LVU139
 469 0032 8724     		movs	r4, #135
 470 0034 A400     		lsls	r4, r4, #2
 471 0036 1059     		ldr	r0, [r2, r4]
 472 0038 DD43     		mvns	r5, r3
 473 003a 9843     		bics	r0, r3
 474 003c 1051     		str	r0, [r2, r4]
 874:Drivers/STM32F0xx_HAL_Driver/Src/stm32f0xx_hal_can.c ****     {
 475              		.loc 1 874 5 view .LVU140
 874:Drivers/STM32F0xx_HAL_Driver/Src/stm32f0xx_hal_can.c ****     {
 476              		.loc 1 874 22 is_stmt 0 view .LVU141
ARM GAS  C:\Users\xhex8\AppData\Local\Temp\ccvcBrdy.s 			page 28


 477 003e C869     		ldr	r0, [r1, #28]
 874:Drivers/STM32F0xx_HAL_Driver/Src/stm32f0xx_hal_can.c ****     {
 478              		.loc 1 874 8 view .LVU142
 479 0040 0028     		cmp	r0, #0
 480 0042 18D1     		bne	.L34
 877:Drivers/STM32F0xx_HAL_Driver/Src/stm32f0xx_hal_can.c **** 
 481              		.loc 1 877 7 is_stmt 1 view .LVU143
 482 0044 103C     		subs	r4, r4, #16
 483 0046 1059     		ldr	r0, [r2, r4]
 484 0048 2840     		ands	r0, r5
 485 004a 1051     		str	r0, [r2, r4]
 881:Drivers/STM32F0xx_HAL_Driver/Src/stm32f0xx_hal_can.c ****         ((0x0000FFFFU & (uint32_t)sFilterConfig->FilterMaskIdLow) << 16U) |
 486              		.loc 1 881 7 view .LVU144
 882:Drivers/STM32F0xx_HAL_Driver/Src/stm32f0xx_hal_can.c ****         (0x0000FFFFU & (uint32_t)sFilterConfig->FilterIdLow);
 487              		.loc 1 882 48 is_stmt 0 view .LVU145
 488 004c CC68     		ldr	r4, [r1, #12]
 882:Drivers/STM32F0xx_HAL_Driver/Src/stm32f0xx_hal_can.c ****         (0x0000FFFFU & (uint32_t)sFilterConfig->FilterIdLow);
 489              		.loc 1 882 67 view .LVU146
 490 004e 2404     		lsls	r4, r4, #16
 883:Drivers/STM32F0xx_HAL_Driver/Src/stm32f0xx_hal_can.c **** 
 491              		.loc 1 883 47 view .LVU147
 492 0050 4E68     		ldr	r6, [r1, #4]
 883:Drivers/STM32F0xx_HAL_Driver/Src/stm32f0xx_hal_can.c **** 
 493              		.loc 1 883 22 view .LVU148
 494 0052 3604     		lsls	r6, r6, #16
 495 0054 360C     		lsrs	r6, r6, #16
 881:Drivers/STM32F0xx_HAL_Driver/Src/stm32f0xx_hal_can.c ****         ((0x0000FFFFU & (uint32_t)sFilterConfig->FilterMaskIdLow) << 16U) |
 496              		.loc 1 881 44 view .LVU149
 497 0056 4869     		ldr	r0, [r1, #20]
 882:Drivers/STM32F0xx_HAL_Driver/Src/stm32f0xx_hal_can.c ****         (0x0000FFFFU & (uint32_t)sFilterConfig->FilterIdLow);
 498              		.loc 1 882 75 view .LVU150
 499 0058 3443     		orrs	r4, r6
 881:Drivers/STM32F0xx_HAL_Driver/Src/stm32f0xx_hal_can.c ****         ((0x0000FFFFU & (uint32_t)sFilterConfig->FilterMaskIdLow) << 16U) |
 500              		.loc 1 881 62 view .LVU151
 501 005a 4830     		adds	r0, r0, #72
 502 005c C000     		lsls	r0, r0, #3
 503 005e 8450     		str	r4, [r0, r2]
 887:Drivers/STM32F0xx_HAL_Driver/Src/stm32f0xx_hal_can.c ****         ((0x0000FFFFU & (uint32_t)sFilterConfig->FilterMaskIdHigh) << 16U) |
 504              		.loc 1 887 7 is_stmt 1 view .LVU152
 888:Drivers/STM32F0xx_HAL_Driver/Src/stm32f0xx_hal_can.c ****         (0x0000FFFFU & (uint32_t)sFilterConfig->FilterIdHigh);
 505              		.loc 1 888 48 is_stmt 0 view .LVU153
 506 0060 8C68     		ldr	r4, [r1, #8]
 888:Drivers/STM32F0xx_HAL_Driver/Src/stm32f0xx_hal_can.c ****         (0x0000FFFFU & (uint32_t)sFilterConfig->FilterIdHigh);
 507              		.loc 1 888 68 view .LVU154
 508 0062 2404     		lsls	r4, r4, #16
 889:Drivers/STM32F0xx_HAL_Driver/Src/stm32f0xx_hal_can.c ****     }
 509              		.loc 1 889 47 view .LVU155
 510 0064 0E68     		ldr	r6, [r1]
 889:Drivers/STM32F0xx_HAL_Driver/Src/stm32f0xx_hal_can.c ****     }
 511              		.loc 1 889 22 view .LVU156
 512 0066 3604     		lsls	r6, r6, #16
 513 0068 360C     		lsrs	r6, r6, #16
 887:Drivers/STM32F0xx_HAL_Driver/Src/stm32f0xx_hal_can.c ****         ((0x0000FFFFU & (uint32_t)sFilterConfig->FilterMaskIdHigh) << 16U) |
 514              		.loc 1 887 44 view .LVU157
 515 006a 4869     		ldr	r0, [r1, #20]
 888:Drivers/STM32F0xx_HAL_Driver/Src/stm32f0xx_hal_can.c ****         (0x0000FFFFU & (uint32_t)sFilterConfig->FilterIdHigh);
 516              		.loc 1 888 76 view .LVU158
ARM GAS  C:\Users\xhex8\AppData\Local\Temp\ccvcBrdy.s 			page 29


 517 006c 3443     		orrs	r4, r6
 887:Drivers/STM32F0xx_HAL_Driver/Src/stm32f0xx_hal_can.c ****         ((0x0000FFFFU & (uint32_t)sFilterConfig->FilterMaskIdHigh) << 16U) |
 518              		.loc 1 887 62 view .LVU159
 519 006e 4830     		adds	r0, r0, #72
 520 0070 C000     		lsls	r0, r0, #3
 521 0072 1018     		adds	r0, r2, r0
 522 0074 4460     		str	r4, [r0, #4]
 523              	.L34:
 892:Drivers/STM32F0xx_HAL_Driver/Src/stm32f0xx_hal_can.c ****     {
 524              		.loc 1 892 5 is_stmt 1 view .LVU160
 892:Drivers/STM32F0xx_HAL_Driver/Src/stm32f0xx_hal_can.c ****     {
 525              		.loc 1 892 22 is_stmt 0 view .LVU161
 526 0076 C869     		ldr	r0, [r1, #28]
 892:Drivers/STM32F0xx_HAL_Driver/Src/stm32f0xx_hal_can.c ****     {
 527              		.loc 1 892 8 view .LVU162
 528 0078 0128     		cmp	r0, #1
 529 007a 1AD0     		beq	.L43
 530              	.L35:
 909:Drivers/STM32F0xx_HAL_Driver/Src/stm32f0xx_hal_can.c ****     {
 531              		.loc 1 909 5 is_stmt 1 view .LVU163
 909:Drivers/STM32F0xx_HAL_Driver/Src/stm32f0xx_hal_can.c ****     {
 532              		.loc 1 909 22 is_stmt 0 view .LVU164
 533 007c 8869     		ldr	r0, [r1, #24]
 909:Drivers/STM32F0xx_HAL_Driver/Src/stm32f0xx_hal_can.c ****     {
 534              		.loc 1 909 8 view .LVU165
 535 007e 0028     		cmp	r0, #0
 536 0080 32D1     		bne	.L36
 912:Drivers/STM32F0xx_HAL_Driver/Src/stm32f0xx_hal_can.c ****     }
 537              		.loc 1 912 7 is_stmt 1 view .LVU166
 538 0082 8124     		movs	r4, #129
 539 0084 A400     		lsls	r4, r4, #2
 540 0086 1059     		ldr	r0, [r2, r4]
 541 0088 2840     		ands	r0, r5
 542 008a 1051     		str	r0, [r2, r4]
 543              	.L37:
 921:Drivers/STM32F0xx_HAL_Driver/Src/stm32f0xx_hal_can.c ****     {
 544              		.loc 1 921 5 view .LVU167
 921:Drivers/STM32F0xx_HAL_Driver/Src/stm32f0xx_hal_can.c ****     {
 545              		.loc 1 921 22 is_stmt 0 view .LVU168
 546 008c 0869     		ldr	r0, [r1, #16]
 921:Drivers/STM32F0xx_HAL_Driver/Src/stm32f0xx_hal_can.c ****     {
 547              		.loc 1 921 8 view .LVU169
 548 008e 0028     		cmp	r0, #0
 549 0090 30D1     		bne	.L38
 924:Drivers/STM32F0xx_HAL_Driver/Src/stm32f0xx_hal_can.c ****     }
 550              		.loc 1 924 7 is_stmt 1 view .LVU170
 551 0092 8524     		movs	r4, #133
 552 0094 A400     		lsls	r4, r4, #2
 553 0096 1059     		ldr	r0, [r2, r4]
 554 0098 2840     		ands	r0, r5
 555 009a 1051     		str	r0, [r2, r4]
 556              	.L39:
 933:Drivers/STM32F0xx_HAL_Driver/Src/stm32f0xx_hal_can.c ****     {
 557              		.loc 1 933 5 view .LVU171
 933:Drivers/STM32F0xx_HAL_Driver/Src/stm32f0xx_hal_can.c ****     {
 558              		.loc 1 933 22 is_stmt 0 view .LVU172
 559 009c 096A     		ldr	r1, [r1, #32]
ARM GAS  C:\Users\xhex8\AppData\Local\Temp\ccvcBrdy.s 			page 30


 560              	.LVL26:
 933:Drivers/STM32F0xx_HAL_Driver/Src/stm32f0xx_hal_can.c ****     {
 561              		.loc 1 933 8 view .LVU173
 562 009e 0129     		cmp	r1, #1
 563 00a0 2ED0     		beq	.L44
 564              	.LVL27:
 565              	.L40:
 939:Drivers/STM32F0xx_HAL_Driver/Src/stm32f0xx_hal_can.c **** 
 566              		.loc 1 939 5 is_stmt 1 view .LVU174
 567 00a2 8021     		movs	r1, #128
 568 00a4 8900     		lsls	r1, r1, #2
 569 00a6 5358     		ldr	r3, [r2, r1]
 570 00a8 0120     		movs	r0, #1
 571 00aa 8343     		bics	r3, r0
 572 00ac 5350     		str	r3, [r2, r1]
 942:Drivers/STM32F0xx_HAL_Driver/Src/stm32f0xx_hal_can.c ****   }
 573              		.loc 1 942 5 view .LVU175
 942:Drivers/STM32F0xx_HAL_Driver/Src/stm32f0xx_hal_can.c ****   }
 574              		.loc 1 942 12 is_stmt 0 view .LVU176
 575 00ae 0020     		movs	r0, #0
 576 00b0 B4E7     		b	.L41
 577              	.LVL28:
 578              	.L43:
 895:Drivers/STM32F0xx_HAL_Driver/Src/stm32f0xx_hal_can.c **** 
 579              		.loc 1 895 7 is_stmt 1 view .LVU177
 580 00b2 8324     		movs	r4, #131
 581 00b4 A400     		lsls	r4, r4, #2
 582 00b6 1059     		ldr	r0, [r2, r4]
 583 00b8 1843     		orrs	r0, r3
 584 00ba 1051     		str	r0, [r2, r4]
 898:Drivers/STM32F0xx_HAL_Driver/Src/stm32f0xx_hal_can.c ****         ((0x0000FFFFU & (uint32_t)sFilterConfig->FilterIdHigh) << 16U) |
 585              		.loc 1 898 7 view .LVU178
 899:Drivers/STM32F0xx_HAL_Driver/Src/stm32f0xx_hal_can.c ****         (0x0000FFFFU & (uint32_t)sFilterConfig->FilterIdLow);
 586              		.loc 1 899 48 is_stmt 0 view .LVU179
 587 00bc 0C68     		ldr	r4, [r1]
 899:Drivers/STM32F0xx_HAL_Driver/Src/stm32f0xx_hal_can.c ****         (0x0000FFFFU & (uint32_t)sFilterConfig->FilterIdLow);
 588              		.loc 1 899 64 view .LVU180
 589 00be 2404     		lsls	r4, r4, #16
 900:Drivers/STM32F0xx_HAL_Driver/Src/stm32f0xx_hal_can.c **** 
 590              		.loc 1 900 47 view .LVU181
 591 00c0 4E68     		ldr	r6, [r1, #4]
 900:Drivers/STM32F0xx_HAL_Driver/Src/stm32f0xx_hal_can.c **** 
 592              		.loc 1 900 22 view .LVU182
 593 00c2 3604     		lsls	r6, r6, #16
 594 00c4 360C     		lsrs	r6, r6, #16
 898:Drivers/STM32F0xx_HAL_Driver/Src/stm32f0xx_hal_can.c ****         ((0x0000FFFFU & (uint32_t)sFilterConfig->FilterIdHigh) << 16U) |
 595              		.loc 1 898 44 view .LVU183
 596 00c6 4869     		ldr	r0, [r1, #20]
 899:Drivers/STM32F0xx_HAL_Driver/Src/stm32f0xx_hal_can.c ****         (0x0000FFFFU & (uint32_t)sFilterConfig->FilterIdLow);
 597              		.loc 1 899 72 view .LVU184
 598 00c8 3443     		orrs	r4, r6
 898:Drivers/STM32F0xx_HAL_Driver/Src/stm32f0xx_hal_can.c ****         ((0x0000FFFFU & (uint32_t)sFilterConfig->FilterIdHigh) << 16U) |
 599              		.loc 1 898 62 view .LVU185
 600 00ca 4830     		adds	r0, r0, #72
 601 00cc C000     		lsls	r0, r0, #3
 602 00ce 8450     		str	r4, [r0, r2]
 903:Drivers/STM32F0xx_HAL_Driver/Src/stm32f0xx_hal_can.c ****         ((0x0000FFFFU & (uint32_t)sFilterConfig->FilterMaskIdHigh) << 16U) |
ARM GAS  C:\Users\xhex8\AppData\Local\Temp\ccvcBrdy.s 			page 31


 603              		.loc 1 903 7 is_stmt 1 view .LVU186
 904:Drivers/STM32F0xx_HAL_Driver/Src/stm32f0xx_hal_can.c ****         (0x0000FFFFU & (uint32_t)sFilterConfig->FilterMaskIdLow);
 604              		.loc 1 904 48 is_stmt 0 view .LVU187
 605 00d0 8C68     		ldr	r4, [r1, #8]
 904:Drivers/STM32F0xx_HAL_Driver/Src/stm32f0xx_hal_can.c ****         (0x0000FFFFU & (uint32_t)sFilterConfig->FilterMaskIdLow);
 606              		.loc 1 904 68 view .LVU188
 607 00d2 2404     		lsls	r4, r4, #16
 905:Drivers/STM32F0xx_HAL_Driver/Src/stm32f0xx_hal_can.c ****     }
 608              		.loc 1 905 47 view .LVU189
 609 00d4 CE68     		ldr	r6, [r1, #12]
 905:Drivers/STM32F0xx_HAL_Driver/Src/stm32f0xx_hal_can.c ****     }
 610              		.loc 1 905 22 view .LVU190
 611 00d6 3604     		lsls	r6, r6, #16
 612 00d8 360C     		lsrs	r6, r6, #16
 903:Drivers/STM32F0xx_HAL_Driver/Src/stm32f0xx_hal_can.c ****         ((0x0000FFFFU & (uint32_t)sFilterConfig->FilterMaskIdHigh) << 16U) |
 613              		.loc 1 903 44 view .LVU191
 614 00da 4869     		ldr	r0, [r1, #20]
 904:Drivers/STM32F0xx_HAL_Driver/Src/stm32f0xx_hal_can.c ****         (0x0000FFFFU & (uint32_t)sFilterConfig->FilterMaskIdLow);
 615              		.loc 1 904 76 view .LVU192
 616 00dc 3443     		orrs	r4, r6
 903:Drivers/STM32F0xx_HAL_Driver/Src/stm32f0xx_hal_can.c ****         ((0x0000FFFFU & (uint32_t)sFilterConfig->FilterMaskIdHigh) << 16U) |
 617              		.loc 1 903 62 view .LVU193
 618 00de 4830     		adds	r0, r0, #72
 619 00e0 C000     		lsls	r0, r0, #3
 620 00e2 1018     		adds	r0, r2, r0
 621 00e4 4460     		str	r4, [r0, #4]
 622 00e6 C9E7     		b	.L35
 623              	.L36:
 917:Drivers/STM32F0xx_HAL_Driver/Src/stm32f0xx_hal_can.c ****     }
 624              		.loc 1 917 7 is_stmt 1 view .LVU194
 625 00e8 8124     		movs	r4, #129
 626 00ea A400     		lsls	r4, r4, #2
 627 00ec 1059     		ldr	r0, [r2, r4]
 628 00ee 1843     		orrs	r0, r3
 629 00f0 1051     		str	r0, [r2, r4]
 630 00f2 CBE7     		b	.L37
 631              	.L38:
 929:Drivers/STM32F0xx_HAL_Driver/Src/stm32f0xx_hal_can.c ****     }
 632              		.loc 1 929 7 view .LVU195
 633 00f4 8524     		movs	r4, #133
 634 00f6 A400     		lsls	r4, r4, #2
 635 00f8 1059     		ldr	r0, [r2, r4]
 636 00fa 1843     		orrs	r0, r3
 637 00fc 1051     		str	r0, [r2, r4]
 638 00fe CDE7     		b	.L39
 639              	.LVL29:
 640              	.L44:
 935:Drivers/STM32F0xx_HAL_Driver/Src/stm32f0xx_hal_can.c ****     }
 641              		.loc 1 935 7 view .LVU196
 642 0100 8720     		movs	r0, #135
 643 0102 8000     		lsls	r0, r0, #2
 644 0104 1158     		ldr	r1, [r2, r0]
 645 0106 0B43     		orrs	r3, r1
 646              	.LVL30:
 935:Drivers/STM32F0xx_HAL_Driver/Src/stm32f0xx_hal_can.c ****     }
 647              		.loc 1 935 7 is_stmt 0 view .LVU197
 648 0108 1350     		str	r3, [r2, r0]
ARM GAS  C:\Users\xhex8\AppData\Local\Temp\ccvcBrdy.s 			page 32


 649 010a CAE7     		b	.L40
 650              		.cfi_endproc
 651              	.LFE44:
 653              		.section	.text.HAL_CAN_Start,"ax",%progbits
 654              		.align	1
 655              		.global	HAL_CAN_Start
 656              		.syntax unified
 657              		.code	16
 658              		.thumb_func
 660              	HAL_CAN_Start:
 661              	.LVL31:
 662              	.LFB45:
 952:Drivers/STM32F0xx_HAL_Driver/Src/stm32f0xx_hal_can.c **** 
 953:Drivers/STM32F0xx_HAL_Driver/Src/stm32f0xx_hal_can.c **** /**
 954:Drivers/STM32F0xx_HAL_Driver/Src/stm32f0xx_hal_can.c ****   * @}
 955:Drivers/STM32F0xx_HAL_Driver/Src/stm32f0xx_hal_can.c ****   */
 956:Drivers/STM32F0xx_HAL_Driver/Src/stm32f0xx_hal_can.c **** 
 957:Drivers/STM32F0xx_HAL_Driver/Src/stm32f0xx_hal_can.c **** /** @defgroup CAN_Exported_Functions_Group3 Control functions
 958:Drivers/STM32F0xx_HAL_Driver/Src/stm32f0xx_hal_can.c ****   * @brief    Control functions
 959:Drivers/STM32F0xx_HAL_Driver/Src/stm32f0xx_hal_can.c ****   *
 960:Drivers/STM32F0xx_HAL_Driver/Src/stm32f0xx_hal_can.c **** @verbatim
 961:Drivers/STM32F0xx_HAL_Driver/Src/stm32f0xx_hal_can.c ****   ==============================================================================
 962:Drivers/STM32F0xx_HAL_Driver/Src/stm32f0xx_hal_can.c ****                       ##### Control functions #####
 963:Drivers/STM32F0xx_HAL_Driver/Src/stm32f0xx_hal_can.c ****   ==============================================================================
 964:Drivers/STM32F0xx_HAL_Driver/Src/stm32f0xx_hal_can.c ****     [..]  This section provides functions allowing to:
 965:Drivers/STM32F0xx_HAL_Driver/Src/stm32f0xx_hal_can.c ****       (+) HAL_CAN_Start                    : Start the CAN module
 966:Drivers/STM32F0xx_HAL_Driver/Src/stm32f0xx_hal_can.c ****       (+) HAL_CAN_Stop                     : Stop the CAN module
 967:Drivers/STM32F0xx_HAL_Driver/Src/stm32f0xx_hal_can.c ****       (+) HAL_CAN_RequestSleep             : Request sleep mode entry.
 968:Drivers/STM32F0xx_HAL_Driver/Src/stm32f0xx_hal_can.c ****       (+) HAL_CAN_WakeUp                   : Wake up from sleep mode.
 969:Drivers/STM32F0xx_HAL_Driver/Src/stm32f0xx_hal_can.c ****       (+) HAL_CAN_IsSleepActive            : Check is sleep mode is active.
 970:Drivers/STM32F0xx_HAL_Driver/Src/stm32f0xx_hal_can.c ****       (+) HAL_CAN_AddTxMessage             : Add a message to the Tx mailboxes
 971:Drivers/STM32F0xx_HAL_Driver/Src/stm32f0xx_hal_can.c ****                                              and activate the corresponding
 972:Drivers/STM32F0xx_HAL_Driver/Src/stm32f0xx_hal_can.c ****                                              transmission request
 973:Drivers/STM32F0xx_HAL_Driver/Src/stm32f0xx_hal_can.c ****       (+) HAL_CAN_AbortTxRequest           : Abort transmission request
 974:Drivers/STM32F0xx_HAL_Driver/Src/stm32f0xx_hal_can.c ****       (+) HAL_CAN_GetTxMailboxesFreeLevel  : Return Tx mailboxes free level
 975:Drivers/STM32F0xx_HAL_Driver/Src/stm32f0xx_hal_can.c ****       (+) HAL_CAN_IsTxMessagePending       : Check if a transmission request is
 976:Drivers/STM32F0xx_HAL_Driver/Src/stm32f0xx_hal_can.c ****                                              pending on the selected Tx mailbox
 977:Drivers/STM32F0xx_HAL_Driver/Src/stm32f0xx_hal_can.c ****       (+) HAL_CAN_GetRxMessage             : Get a CAN frame from the Rx FIFO
 978:Drivers/STM32F0xx_HAL_Driver/Src/stm32f0xx_hal_can.c ****       (+) HAL_CAN_GetRxFifoFillLevel       : Return Rx FIFO fill level
 979:Drivers/STM32F0xx_HAL_Driver/Src/stm32f0xx_hal_can.c **** 
 980:Drivers/STM32F0xx_HAL_Driver/Src/stm32f0xx_hal_can.c **** @endverbatim
 981:Drivers/STM32F0xx_HAL_Driver/Src/stm32f0xx_hal_can.c ****   * @{
 982:Drivers/STM32F0xx_HAL_Driver/Src/stm32f0xx_hal_can.c ****   */
 983:Drivers/STM32F0xx_HAL_Driver/Src/stm32f0xx_hal_can.c **** 
 984:Drivers/STM32F0xx_HAL_Driver/Src/stm32f0xx_hal_can.c **** /**
 985:Drivers/STM32F0xx_HAL_Driver/Src/stm32f0xx_hal_can.c ****   * @brief  Start the CAN module.
 986:Drivers/STM32F0xx_HAL_Driver/Src/stm32f0xx_hal_can.c ****   * @param  hcan pointer to an CAN_HandleTypeDef structure that contains
 987:Drivers/STM32F0xx_HAL_Driver/Src/stm32f0xx_hal_can.c ****   *         the configuration information for the specified CAN.
 988:Drivers/STM32F0xx_HAL_Driver/Src/stm32f0xx_hal_can.c ****   * @retval HAL status
 989:Drivers/STM32F0xx_HAL_Driver/Src/stm32f0xx_hal_can.c ****   */
 990:Drivers/STM32F0xx_HAL_Driver/Src/stm32f0xx_hal_can.c **** HAL_StatusTypeDef HAL_CAN_Start(CAN_HandleTypeDef *hcan)
 991:Drivers/STM32F0xx_HAL_Driver/Src/stm32f0xx_hal_can.c **** {
 663              		.loc 1 991 1 is_stmt 1 view -0
 664              		.cfi_startproc
 665              		@ args = 0, pretend = 0, frame = 0
 666              		@ frame_needed = 0, uses_anonymous_args = 0
 667              		.loc 1 991 1 is_stmt 0 view .LVU199
ARM GAS  C:\Users\xhex8\AppData\Local\Temp\ccvcBrdy.s 			page 33


 668 0000 70B5     		push	{r4, r5, r6, lr}
 669              		.cfi_def_cfa_offset 16
 670              		.cfi_offset 4, -16
 671              		.cfi_offset 5, -12
 672              		.cfi_offset 6, -8
 673              		.cfi_offset 14, -4
 674 0002 0400     		movs	r4, r0
 992:Drivers/STM32F0xx_HAL_Driver/Src/stm32f0xx_hal_can.c ****   uint32_t tickstart;
 675              		.loc 1 992 3 is_stmt 1 view .LVU200
 993:Drivers/STM32F0xx_HAL_Driver/Src/stm32f0xx_hal_can.c **** 
 994:Drivers/STM32F0xx_HAL_Driver/Src/stm32f0xx_hal_can.c ****   if (hcan->State == HAL_CAN_STATE_READY)
 676              		.loc 1 994 3 view .LVU201
 677              		.loc 1 994 11 is_stmt 0 view .LVU202
 678 0004 2023     		movs	r3, #32
 679 0006 C35C     		ldrb	r3, [r0, r3]
 680 0008 DEB2     		uxtb	r6, r3
 681              		.loc 1 994 6 view .LVU203
 682 000a 012B     		cmp	r3, #1
 683 000c 07D0     		beq	.L50
 995:Drivers/STM32F0xx_HAL_Driver/Src/stm32f0xx_hal_can.c ****   {
 996:Drivers/STM32F0xx_HAL_Driver/Src/stm32f0xx_hal_can.c ****     /* Change CAN peripheral state */
 997:Drivers/STM32F0xx_HAL_Driver/Src/stm32f0xx_hal_can.c ****     hcan->State = HAL_CAN_STATE_LISTENING;
 998:Drivers/STM32F0xx_HAL_Driver/Src/stm32f0xx_hal_can.c **** 
 999:Drivers/STM32F0xx_HAL_Driver/Src/stm32f0xx_hal_can.c ****     /* Request leave initialisation */
1000:Drivers/STM32F0xx_HAL_Driver/Src/stm32f0xx_hal_can.c ****     CLEAR_BIT(hcan->Instance->MCR, CAN_MCR_INRQ);
1001:Drivers/STM32F0xx_HAL_Driver/Src/stm32f0xx_hal_can.c **** 
1002:Drivers/STM32F0xx_HAL_Driver/Src/stm32f0xx_hal_can.c ****     /* Get tick */
1003:Drivers/STM32F0xx_HAL_Driver/Src/stm32f0xx_hal_can.c ****     tickstart = HAL_GetTick();
1004:Drivers/STM32F0xx_HAL_Driver/Src/stm32f0xx_hal_can.c **** 
1005:Drivers/STM32F0xx_HAL_Driver/Src/stm32f0xx_hal_can.c ****     /* Wait the acknowledge */
1006:Drivers/STM32F0xx_HAL_Driver/Src/stm32f0xx_hal_can.c ****     while ((hcan->Instance->MSR & CAN_MSR_INAK) != 0U)
1007:Drivers/STM32F0xx_HAL_Driver/Src/stm32f0xx_hal_can.c ****     {
1008:Drivers/STM32F0xx_HAL_Driver/Src/stm32f0xx_hal_can.c ****       /* Check for the Timeout */
1009:Drivers/STM32F0xx_HAL_Driver/Src/stm32f0xx_hal_can.c ****       if ((HAL_GetTick() - tickstart) > CAN_TIMEOUT_VALUE)
1010:Drivers/STM32F0xx_HAL_Driver/Src/stm32f0xx_hal_can.c ****       {
1011:Drivers/STM32F0xx_HAL_Driver/Src/stm32f0xx_hal_can.c ****         /* Update error code */
1012:Drivers/STM32F0xx_HAL_Driver/Src/stm32f0xx_hal_can.c ****         hcan->ErrorCode |= HAL_CAN_ERROR_TIMEOUT;
1013:Drivers/STM32F0xx_HAL_Driver/Src/stm32f0xx_hal_can.c **** 
1014:Drivers/STM32F0xx_HAL_Driver/Src/stm32f0xx_hal_can.c ****         /* Change CAN state */
1015:Drivers/STM32F0xx_HAL_Driver/Src/stm32f0xx_hal_can.c ****         hcan->State = HAL_CAN_STATE_ERROR;
1016:Drivers/STM32F0xx_HAL_Driver/Src/stm32f0xx_hal_can.c **** 
1017:Drivers/STM32F0xx_HAL_Driver/Src/stm32f0xx_hal_can.c ****         return HAL_ERROR;
1018:Drivers/STM32F0xx_HAL_Driver/Src/stm32f0xx_hal_can.c ****       }
1019:Drivers/STM32F0xx_HAL_Driver/Src/stm32f0xx_hal_can.c ****     }
1020:Drivers/STM32F0xx_HAL_Driver/Src/stm32f0xx_hal_can.c **** 
1021:Drivers/STM32F0xx_HAL_Driver/Src/stm32f0xx_hal_can.c ****     /* Reset the CAN ErrorCode */
1022:Drivers/STM32F0xx_HAL_Driver/Src/stm32f0xx_hal_can.c ****     hcan->ErrorCode = HAL_CAN_ERROR_NONE;
1023:Drivers/STM32F0xx_HAL_Driver/Src/stm32f0xx_hal_can.c **** 
1024:Drivers/STM32F0xx_HAL_Driver/Src/stm32f0xx_hal_can.c ****     /* Return function status */
1025:Drivers/STM32F0xx_HAL_Driver/Src/stm32f0xx_hal_can.c ****     return HAL_OK;
1026:Drivers/STM32F0xx_HAL_Driver/Src/stm32f0xx_hal_can.c ****   }
1027:Drivers/STM32F0xx_HAL_Driver/Src/stm32f0xx_hal_can.c ****   else
1028:Drivers/STM32F0xx_HAL_Driver/Src/stm32f0xx_hal_can.c ****   {
1029:Drivers/STM32F0xx_HAL_Driver/Src/stm32f0xx_hal_can.c ****     /* Update error code */
1030:Drivers/STM32F0xx_HAL_Driver/Src/stm32f0xx_hal_can.c ****     hcan->ErrorCode |= HAL_CAN_ERROR_NOT_READY;
 684              		.loc 1 1030 5 is_stmt 1 view .LVU204
 685              		.loc 1 1030 9 is_stmt 0 view .LVU205
ARM GAS  C:\Users\xhex8\AppData\Local\Temp\ccvcBrdy.s 			page 34


 686 000e 426A     		ldr	r2, [r0, #36]
 687              		.loc 1 1030 21 view .LVU206
 688 0010 8023     		movs	r3, #128
 689 0012 1B03     		lsls	r3, r3, #12
 690 0014 1343     		orrs	r3, r2
 691 0016 4362     		str	r3, [r0, #36]
1031:Drivers/STM32F0xx_HAL_Driver/Src/stm32f0xx_hal_can.c **** 
1032:Drivers/STM32F0xx_HAL_Driver/Src/stm32f0xx_hal_can.c ****     return HAL_ERROR;
 692              		.loc 1 1032 5 is_stmt 1 view .LVU207
 693              		.loc 1 1032 12 is_stmt 0 view .LVU208
 694 0018 0126     		movs	r6, #1
 695              	.LVL32:
 696              	.L48:
1033:Drivers/STM32F0xx_HAL_Driver/Src/stm32f0xx_hal_can.c ****   }
1034:Drivers/STM32F0xx_HAL_Driver/Src/stm32f0xx_hal_can.c **** }
 697              		.loc 1 1034 1 view .LVU209
 698 001a 3000     		movs	r0, r6
 699              		@ sp needed
 700              	.LVL33:
 701              		.loc 1 1034 1 view .LVU210
 702 001c 70BD     		pop	{r4, r5, r6, pc}
 703              	.LVL34:
 704              	.L50:
 997:Drivers/STM32F0xx_HAL_Driver/Src/stm32f0xx_hal_can.c **** 
 705              		.loc 1 997 5 is_stmt 1 view .LVU211
 997:Drivers/STM32F0xx_HAL_Driver/Src/stm32f0xx_hal_can.c **** 
 706              		.loc 1 997 17 is_stmt 0 view .LVU212
 707 001e 1F33     		adds	r3, r3, #31
 708 0020 0222     		movs	r2, #2
 709 0022 C254     		strb	r2, [r0, r3]
1000:Drivers/STM32F0xx_HAL_Driver/Src/stm32f0xx_hal_can.c **** 
 710              		.loc 1 1000 5 is_stmt 1 view .LVU213
 711 0024 0268     		ldr	r2, [r0]
 712 0026 1368     		ldr	r3, [r2]
 713 0028 0121     		movs	r1, #1
 714 002a 8B43     		bics	r3, r1
 715 002c 1360     		str	r3, [r2]
1003:Drivers/STM32F0xx_HAL_Driver/Src/stm32f0xx_hal_can.c **** 
 716              		.loc 1 1003 5 view .LVU214
1003:Drivers/STM32F0xx_HAL_Driver/Src/stm32f0xx_hal_can.c **** 
 717              		.loc 1 1003 17 is_stmt 0 view .LVU215
 718 002e FFF7FEFF 		bl	HAL_GetTick
 719              	.LVL35:
1003:Drivers/STM32F0xx_HAL_Driver/Src/stm32f0xx_hal_can.c **** 
 720              		.loc 1 1003 17 view .LVU216
 721 0032 0500     		movs	r5, r0
 722              	.LVL36:
1006:Drivers/STM32F0xx_HAL_Driver/Src/stm32f0xx_hal_can.c ****     {
 723              		.loc 1 1006 5 is_stmt 1 view .LVU217
 724              	.L47:
1006:Drivers/STM32F0xx_HAL_Driver/Src/stm32f0xx_hal_can.c ****     {
 725              		.loc 1 1006 49 view .LVU218
1006:Drivers/STM32F0xx_HAL_Driver/Src/stm32f0xx_hal_can.c ****     {
 726              		.loc 1 1006 17 is_stmt 0 view .LVU219
 727 0034 2368     		ldr	r3, [r4]
1006:Drivers/STM32F0xx_HAL_Driver/Src/stm32f0xx_hal_can.c ****     {
 728              		.loc 1 1006 27 view .LVU220
ARM GAS  C:\Users\xhex8\AppData\Local\Temp\ccvcBrdy.s 			page 35


 729 0036 5B68     		ldr	r3, [r3, #4]
1006:Drivers/STM32F0xx_HAL_Driver/Src/stm32f0xx_hal_can.c ****     {
 730              		.loc 1 1006 49 view .LVU221
 731 0038 DB07     		lsls	r3, r3, #31
 732 003a 0DD5     		bpl	.L51
1009:Drivers/STM32F0xx_HAL_Driver/Src/stm32f0xx_hal_can.c ****       {
 733              		.loc 1 1009 7 is_stmt 1 view .LVU222
1009:Drivers/STM32F0xx_HAL_Driver/Src/stm32f0xx_hal_can.c ****       {
 734              		.loc 1 1009 12 is_stmt 0 view .LVU223
 735 003c FFF7FEFF 		bl	HAL_GetTick
 736              	.LVL37:
1009:Drivers/STM32F0xx_HAL_Driver/Src/stm32f0xx_hal_can.c ****       {
 737              		.loc 1 1009 26 view .LVU224
 738 0040 401B     		subs	r0, r0, r5
1009:Drivers/STM32F0xx_HAL_Driver/Src/stm32f0xx_hal_can.c ****       {
 739              		.loc 1 1009 10 view .LVU225
 740 0042 0A28     		cmp	r0, #10
 741 0044 F6D9     		bls	.L47
1012:Drivers/STM32F0xx_HAL_Driver/Src/stm32f0xx_hal_can.c **** 
 742              		.loc 1 1012 9 is_stmt 1 view .LVU226
1012:Drivers/STM32F0xx_HAL_Driver/Src/stm32f0xx_hal_can.c **** 
 743              		.loc 1 1012 13 is_stmt 0 view .LVU227
 744 0046 626A     		ldr	r2, [r4, #36]
1012:Drivers/STM32F0xx_HAL_Driver/Src/stm32f0xx_hal_can.c **** 
 745              		.loc 1 1012 25 view .LVU228
 746 0048 8023     		movs	r3, #128
 747 004a 9B02     		lsls	r3, r3, #10
 748 004c 1343     		orrs	r3, r2
 749 004e 6362     		str	r3, [r4, #36]
1015:Drivers/STM32F0xx_HAL_Driver/Src/stm32f0xx_hal_can.c **** 
 750              		.loc 1 1015 9 is_stmt 1 view .LVU229
1015:Drivers/STM32F0xx_HAL_Driver/Src/stm32f0xx_hal_can.c **** 
 751              		.loc 1 1015 21 is_stmt 0 view .LVU230
 752 0050 2023     		movs	r3, #32
 753 0052 0522     		movs	r2, #5
 754 0054 E254     		strb	r2, [r4, r3]
1017:Drivers/STM32F0xx_HAL_Driver/Src/stm32f0xx_hal_can.c ****       }
 755              		.loc 1 1017 9 is_stmt 1 view .LVU231
1017:Drivers/STM32F0xx_HAL_Driver/Src/stm32f0xx_hal_can.c ****       }
 756              		.loc 1 1017 16 is_stmt 0 view .LVU232
 757 0056 E0E7     		b	.L48
 758              	.L51:
1022:Drivers/STM32F0xx_HAL_Driver/Src/stm32f0xx_hal_can.c **** 
 759              		.loc 1 1022 5 is_stmt 1 view .LVU233
1022:Drivers/STM32F0xx_HAL_Driver/Src/stm32f0xx_hal_can.c **** 
 760              		.loc 1 1022 21 is_stmt 0 view .LVU234
 761 0058 0023     		movs	r3, #0
 762 005a 6362     		str	r3, [r4, #36]
1025:Drivers/STM32F0xx_HAL_Driver/Src/stm32f0xx_hal_can.c ****   }
 763              		.loc 1 1025 5 is_stmt 1 view .LVU235
1025:Drivers/STM32F0xx_HAL_Driver/Src/stm32f0xx_hal_can.c ****   }
 764              		.loc 1 1025 12 is_stmt 0 view .LVU236
 765 005c 0026     		movs	r6, #0
 766 005e DCE7     		b	.L48
 767              		.cfi_endproc
 768              	.LFE45:
 770              		.section	.text.HAL_CAN_Stop,"ax",%progbits
ARM GAS  C:\Users\xhex8\AppData\Local\Temp\ccvcBrdy.s 			page 36


 771              		.align	1
 772              		.global	HAL_CAN_Stop
 773              		.syntax unified
 774              		.code	16
 775              		.thumb_func
 777              	HAL_CAN_Stop:
 778              	.LVL38:
 779              	.LFB46:
1035:Drivers/STM32F0xx_HAL_Driver/Src/stm32f0xx_hal_can.c **** 
1036:Drivers/STM32F0xx_HAL_Driver/Src/stm32f0xx_hal_can.c **** /**
1037:Drivers/STM32F0xx_HAL_Driver/Src/stm32f0xx_hal_can.c ****   * @brief  Stop the CAN module and enable access to configuration registers.
1038:Drivers/STM32F0xx_HAL_Driver/Src/stm32f0xx_hal_can.c ****   * @param  hcan pointer to an CAN_HandleTypeDef structure that contains
1039:Drivers/STM32F0xx_HAL_Driver/Src/stm32f0xx_hal_can.c ****   *         the configuration information for the specified CAN.
1040:Drivers/STM32F0xx_HAL_Driver/Src/stm32f0xx_hal_can.c ****   * @retval HAL status
1041:Drivers/STM32F0xx_HAL_Driver/Src/stm32f0xx_hal_can.c ****   */
1042:Drivers/STM32F0xx_HAL_Driver/Src/stm32f0xx_hal_can.c **** HAL_StatusTypeDef HAL_CAN_Stop(CAN_HandleTypeDef *hcan)
1043:Drivers/STM32F0xx_HAL_Driver/Src/stm32f0xx_hal_can.c **** {
 780              		.loc 1 1043 1 is_stmt 1 view -0
 781              		.cfi_startproc
 782              		@ args = 0, pretend = 0, frame = 0
 783              		@ frame_needed = 0, uses_anonymous_args = 0
 784              		.loc 1 1043 1 is_stmt 0 view .LVU238
 785 0000 70B5     		push	{r4, r5, r6, lr}
 786              		.cfi_def_cfa_offset 16
 787              		.cfi_offset 4, -16
 788              		.cfi_offset 5, -12
 789              		.cfi_offset 6, -8
 790              		.cfi_offset 14, -4
 791 0002 0400     		movs	r4, r0
1044:Drivers/STM32F0xx_HAL_Driver/Src/stm32f0xx_hal_can.c ****   uint32_t tickstart;
 792              		.loc 1 1044 3 is_stmt 1 view .LVU239
1045:Drivers/STM32F0xx_HAL_Driver/Src/stm32f0xx_hal_can.c **** 
1046:Drivers/STM32F0xx_HAL_Driver/Src/stm32f0xx_hal_can.c ****   if (hcan->State == HAL_CAN_STATE_LISTENING)
 793              		.loc 1 1046 3 view .LVU240
 794              		.loc 1 1046 11 is_stmt 0 view .LVU241
 795 0004 2023     		movs	r3, #32
 796 0006 C35C     		ldrb	r3, [r0, r3]
 797              		.loc 1 1046 6 view .LVU242
 798 0008 022B     		cmp	r3, #2
 799 000a 06D0     		beq	.L57
1047:Drivers/STM32F0xx_HAL_Driver/Src/stm32f0xx_hal_can.c ****   {
1048:Drivers/STM32F0xx_HAL_Driver/Src/stm32f0xx_hal_can.c ****     /* Request initialisation */
1049:Drivers/STM32F0xx_HAL_Driver/Src/stm32f0xx_hal_can.c ****     SET_BIT(hcan->Instance->MCR, CAN_MCR_INRQ);
1050:Drivers/STM32F0xx_HAL_Driver/Src/stm32f0xx_hal_can.c **** 
1051:Drivers/STM32F0xx_HAL_Driver/Src/stm32f0xx_hal_can.c ****     /* Get tick */
1052:Drivers/STM32F0xx_HAL_Driver/Src/stm32f0xx_hal_can.c ****     tickstart = HAL_GetTick();
1053:Drivers/STM32F0xx_HAL_Driver/Src/stm32f0xx_hal_can.c **** 
1054:Drivers/STM32F0xx_HAL_Driver/Src/stm32f0xx_hal_can.c ****     /* Wait the acknowledge */
1055:Drivers/STM32F0xx_HAL_Driver/Src/stm32f0xx_hal_can.c ****     while ((hcan->Instance->MSR & CAN_MSR_INAK) == 0U)
1056:Drivers/STM32F0xx_HAL_Driver/Src/stm32f0xx_hal_can.c ****     {
1057:Drivers/STM32F0xx_HAL_Driver/Src/stm32f0xx_hal_can.c ****       /* Check for the Timeout */
1058:Drivers/STM32F0xx_HAL_Driver/Src/stm32f0xx_hal_can.c ****       if ((HAL_GetTick() - tickstart) > CAN_TIMEOUT_VALUE)
1059:Drivers/STM32F0xx_HAL_Driver/Src/stm32f0xx_hal_can.c ****       {
1060:Drivers/STM32F0xx_HAL_Driver/Src/stm32f0xx_hal_can.c ****         /* Update error code */
1061:Drivers/STM32F0xx_HAL_Driver/Src/stm32f0xx_hal_can.c ****         hcan->ErrorCode |= HAL_CAN_ERROR_TIMEOUT;
1062:Drivers/STM32F0xx_HAL_Driver/Src/stm32f0xx_hal_can.c **** 
1063:Drivers/STM32F0xx_HAL_Driver/Src/stm32f0xx_hal_can.c ****         /* Change CAN state */
ARM GAS  C:\Users\xhex8\AppData\Local\Temp\ccvcBrdy.s 			page 37


1064:Drivers/STM32F0xx_HAL_Driver/Src/stm32f0xx_hal_can.c ****         hcan->State = HAL_CAN_STATE_ERROR;
1065:Drivers/STM32F0xx_HAL_Driver/Src/stm32f0xx_hal_can.c **** 
1066:Drivers/STM32F0xx_HAL_Driver/Src/stm32f0xx_hal_can.c ****         return HAL_ERROR;
1067:Drivers/STM32F0xx_HAL_Driver/Src/stm32f0xx_hal_can.c ****       }
1068:Drivers/STM32F0xx_HAL_Driver/Src/stm32f0xx_hal_can.c ****     }
1069:Drivers/STM32F0xx_HAL_Driver/Src/stm32f0xx_hal_can.c **** 
1070:Drivers/STM32F0xx_HAL_Driver/Src/stm32f0xx_hal_can.c ****     /* Exit from sleep mode */
1071:Drivers/STM32F0xx_HAL_Driver/Src/stm32f0xx_hal_can.c ****     CLEAR_BIT(hcan->Instance->MCR, CAN_MCR_SLEEP);
1072:Drivers/STM32F0xx_HAL_Driver/Src/stm32f0xx_hal_can.c **** 
1073:Drivers/STM32F0xx_HAL_Driver/Src/stm32f0xx_hal_can.c ****     /* Change CAN peripheral state */
1074:Drivers/STM32F0xx_HAL_Driver/Src/stm32f0xx_hal_can.c ****     hcan->State = HAL_CAN_STATE_READY;
1075:Drivers/STM32F0xx_HAL_Driver/Src/stm32f0xx_hal_can.c **** 
1076:Drivers/STM32F0xx_HAL_Driver/Src/stm32f0xx_hal_can.c ****     /* Return function status */
1077:Drivers/STM32F0xx_HAL_Driver/Src/stm32f0xx_hal_can.c ****     return HAL_OK;
1078:Drivers/STM32F0xx_HAL_Driver/Src/stm32f0xx_hal_can.c ****   }
1079:Drivers/STM32F0xx_HAL_Driver/Src/stm32f0xx_hal_can.c ****   else
1080:Drivers/STM32F0xx_HAL_Driver/Src/stm32f0xx_hal_can.c ****   {
1081:Drivers/STM32F0xx_HAL_Driver/Src/stm32f0xx_hal_can.c ****     /* Update error code */
1082:Drivers/STM32F0xx_HAL_Driver/Src/stm32f0xx_hal_can.c ****     hcan->ErrorCode |= HAL_CAN_ERROR_NOT_STARTED;
 800              		.loc 1 1082 5 is_stmt 1 view .LVU243
 801              		.loc 1 1082 9 is_stmt 0 view .LVU244
 802 000c 426A     		ldr	r2, [r0, #36]
 803              		.loc 1 1082 21 view .LVU245
 804 000e 8023     		movs	r3, #128
 805 0010 5B03     		lsls	r3, r3, #13
 806 0012 1343     		orrs	r3, r2
 807 0014 4362     		str	r3, [r0, #36]
1083:Drivers/STM32F0xx_HAL_Driver/Src/stm32f0xx_hal_can.c **** 
1084:Drivers/STM32F0xx_HAL_Driver/Src/stm32f0xx_hal_can.c ****     return HAL_ERROR;
 808              		.loc 1 1084 5 is_stmt 1 view .LVU246
 809              		.loc 1 1084 12 is_stmt 0 view .LVU247
 810 0016 0120     		movs	r0, #1
 811              	.LVL39:
 812              	.L55:
1085:Drivers/STM32F0xx_HAL_Driver/Src/stm32f0xx_hal_can.c ****   }
1086:Drivers/STM32F0xx_HAL_Driver/Src/stm32f0xx_hal_can.c **** }
 813              		.loc 1 1086 1 view .LVU248
 814              		@ sp needed
 815              	.LVL40:
 816              		.loc 1 1086 1 view .LVU249
 817 0018 70BD     		pop	{r4, r5, r6, pc}
 818              	.LVL41:
 819              	.L57:
1049:Drivers/STM32F0xx_HAL_Driver/Src/stm32f0xx_hal_can.c **** 
 820              		.loc 1 1049 5 is_stmt 1 view .LVU250
 821 001a 0268     		ldr	r2, [r0]
 822 001c 1368     		ldr	r3, [r2]
 823 001e 0121     		movs	r1, #1
 824 0020 0B43     		orrs	r3, r1
 825 0022 1360     		str	r3, [r2]
1052:Drivers/STM32F0xx_HAL_Driver/Src/stm32f0xx_hal_can.c **** 
 826              		.loc 1 1052 5 view .LVU251
1052:Drivers/STM32F0xx_HAL_Driver/Src/stm32f0xx_hal_can.c **** 
 827              		.loc 1 1052 17 is_stmt 0 view .LVU252
 828 0024 FFF7FEFF 		bl	HAL_GetTick
 829              	.LVL42:
1052:Drivers/STM32F0xx_HAL_Driver/Src/stm32f0xx_hal_can.c **** 
ARM GAS  C:\Users\xhex8\AppData\Local\Temp\ccvcBrdy.s 			page 38


 830              		.loc 1 1052 17 view .LVU253
 831 0028 0500     		movs	r5, r0
 832              	.LVL43:
1055:Drivers/STM32F0xx_HAL_Driver/Src/stm32f0xx_hal_can.c ****     {
 833              		.loc 1 1055 5 is_stmt 1 view .LVU254
 834              	.L54:
1055:Drivers/STM32F0xx_HAL_Driver/Src/stm32f0xx_hal_can.c ****     {
 835              		.loc 1 1055 49 view .LVU255
1055:Drivers/STM32F0xx_HAL_Driver/Src/stm32f0xx_hal_can.c ****     {
 836              		.loc 1 1055 17 is_stmt 0 view .LVU256
 837 002a 2268     		ldr	r2, [r4]
1055:Drivers/STM32F0xx_HAL_Driver/Src/stm32f0xx_hal_can.c ****     {
 838              		.loc 1 1055 27 view .LVU257
 839 002c 5368     		ldr	r3, [r2, #4]
1055:Drivers/STM32F0xx_HAL_Driver/Src/stm32f0xx_hal_can.c ****     {
 840              		.loc 1 1055 49 view .LVU258
 841 002e DB07     		lsls	r3, r3, #31
 842 0030 0ED4     		bmi	.L58
1058:Drivers/STM32F0xx_HAL_Driver/Src/stm32f0xx_hal_can.c ****       {
 843              		.loc 1 1058 7 is_stmt 1 view .LVU259
1058:Drivers/STM32F0xx_HAL_Driver/Src/stm32f0xx_hal_can.c ****       {
 844              		.loc 1 1058 12 is_stmt 0 view .LVU260
 845 0032 FFF7FEFF 		bl	HAL_GetTick
 846              	.LVL44:
1058:Drivers/STM32F0xx_HAL_Driver/Src/stm32f0xx_hal_can.c ****       {
 847              		.loc 1 1058 26 view .LVU261
 848 0036 401B     		subs	r0, r0, r5
1058:Drivers/STM32F0xx_HAL_Driver/Src/stm32f0xx_hal_can.c ****       {
 849              		.loc 1 1058 10 view .LVU262
 850 0038 0A28     		cmp	r0, #10
 851 003a F6D9     		bls	.L54
1061:Drivers/STM32F0xx_HAL_Driver/Src/stm32f0xx_hal_can.c **** 
 852              		.loc 1 1061 9 is_stmt 1 view .LVU263
1061:Drivers/STM32F0xx_HAL_Driver/Src/stm32f0xx_hal_can.c **** 
 853              		.loc 1 1061 13 is_stmt 0 view .LVU264
 854 003c 626A     		ldr	r2, [r4, #36]
1061:Drivers/STM32F0xx_HAL_Driver/Src/stm32f0xx_hal_can.c **** 
 855              		.loc 1 1061 25 view .LVU265
 856 003e 8023     		movs	r3, #128
 857 0040 9B02     		lsls	r3, r3, #10
 858 0042 1343     		orrs	r3, r2
 859 0044 6362     		str	r3, [r4, #36]
1064:Drivers/STM32F0xx_HAL_Driver/Src/stm32f0xx_hal_can.c **** 
 860              		.loc 1 1064 9 is_stmt 1 view .LVU266
1064:Drivers/STM32F0xx_HAL_Driver/Src/stm32f0xx_hal_can.c **** 
 861              		.loc 1 1064 21 is_stmt 0 view .LVU267
 862 0046 2023     		movs	r3, #32
 863 0048 0522     		movs	r2, #5
 864 004a E254     		strb	r2, [r4, r3]
1066:Drivers/STM32F0xx_HAL_Driver/Src/stm32f0xx_hal_can.c ****       }
 865              		.loc 1 1066 9 is_stmt 1 view .LVU268
1066:Drivers/STM32F0xx_HAL_Driver/Src/stm32f0xx_hal_can.c ****       }
 866              		.loc 1 1066 16 is_stmt 0 view .LVU269
 867 004c 0120     		movs	r0, #1
 868 004e E3E7     		b	.L55
 869              	.L58:
1071:Drivers/STM32F0xx_HAL_Driver/Src/stm32f0xx_hal_can.c **** 
ARM GAS  C:\Users\xhex8\AppData\Local\Temp\ccvcBrdy.s 			page 39


 870              		.loc 1 1071 5 is_stmt 1 view .LVU270
 871 0050 1368     		ldr	r3, [r2]
 872 0052 0221     		movs	r1, #2
 873 0054 8B43     		bics	r3, r1
 874 0056 1360     		str	r3, [r2]
1074:Drivers/STM32F0xx_HAL_Driver/Src/stm32f0xx_hal_can.c **** 
 875              		.loc 1 1074 5 view .LVU271
1074:Drivers/STM32F0xx_HAL_Driver/Src/stm32f0xx_hal_can.c **** 
 876              		.loc 1 1074 17 is_stmt 0 view .LVU272
 877 0058 2023     		movs	r3, #32
 878 005a 0122     		movs	r2, #1
 879 005c E254     		strb	r2, [r4, r3]
1077:Drivers/STM32F0xx_HAL_Driver/Src/stm32f0xx_hal_can.c ****   }
 880              		.loc 1 1077 5 is_stmt 1 view .LVU273
1077:Drivers/STM32F0xx_HAL_Driver/Src/stm32f0xx_hal_can.c ****   }
 881              		.loc 1 1077 12 is_stmt 0 view .LVU274
 882 005e 0020     		movs	r0, #0
 883 0060 DAE7     		b	.L55
 884              		.cfi_endproc
 885              	.LFE46:
 887              		.section	.text.HAL_CAN_DeInit,"ax",%progbits
 888              		.align	1
 889              		.global	HAL_CAN_DeInit
 890              		.syntax unified
 891              		.code	16
 892              		.thumb_func
 894              	HAL_CAN_DeInit:
 895              	.LVL45:
 896              	.LFB41:
 461:Drivers/STM32F0xx_HAL_Driver/Src/stm32f0xx_hal_can.c ****   /* Check CAN handle */
 897              		.loc 1 461 1 is_stmt 1 view -0
 898              		.cfi_startproc
 899              		@ args = 0, pretend = 0, frame = 0
 900              		@ frame_needed = 0, uses_anonymous_args = 0
 461:Drivers/STM32F0xx_HAL_Driver/Src/stm32f0xx_hal_can.c ****   /* Check CAN handle */
 901              		.loc 1 461 1 is_stmt 0 view .LVU276
 902 0000 10B5     		push	{r4, lr}
 903              		.cfi_def_cfa_offset 8
 904              		.cfi_offset 4, -8
 905              		.cfi_offset 14, -4
 906 0002 041E     		subs	r4, r0, #0
 463:Drivers/STM32F0xx_HAL_Driver/Src/stm32f0xx_hal_can.c ****   {
 907              		.loc 1 463 3 is_stmt 1 view .LVU277
 463:Drivers/STM32F0xx_HAL_Driver/Src/stm32f0xx_hal_can.c ****   {
 908              		.loc 1 463 6 is_stmt 0 view .LVU278
 909 0004 10D0     		beq	.L61
 469:Drivers/STM32F0xx_HAL_Driver/Src/stm32f0xx_hal_can.c **** 
 910              		.loc 1 469 3 is_stmt 1 view .LVU279
 472:Drivers/STM32F0xx_HAL_Driver/Src/stm32f0xx_hal_can.c **** 
 911              		.loc 1 472 3 view .LVU280
 472:Drivers/STM32F0xx_HAL_Driver/Src/stm32f0xx_hal_can.c **** 
 912              		.loc 1 472 9 is_stmt 0 view .LVU281
 913 0006 FFF7FEFF 		bl	HAL_CAN_Stop
 914              	.LVL46:
 485:Drivers/STM32F0xx_HAL_Driver/Src/stm32f0xx_hal_can.c **** #endif /* USE_HAL_CAN_REGISTER_CALLBACKS */
 915              		.loc 1 485 3 is_stmt 1 view .LVU282
 916 000a 2000     		movs	r0, r4
ARM GAS  C:\Users\xhex8\AppData\Local\Temp\ccvcBrdy.s 			page 40


 917 000c FFF7FEFF 		bl	HAL_CAN_MspDeInit
 918              	.LVL47:
 489:Drivers/STM32F0xx_HAL_Driver/Src/stm32f0xx_hal_can.c **** 
 919              		.loc 1 489 3 view .LVU283
 920 0010 2268     		ldr	r2, [r4]
 921 0012 1168     		ldr	r1, [r2]
 922 0014 8023     		movs	r3, #128
 923 0016 1B02     		lsls	r3, r3, #8
 924 0018 0B43     		orrs	r3, r1
 925 001a 1360     		str	r3, [r2]
 492:Drivers/STM32F0xx_HAL_Driver/Src/stm32f0xx_hal_can.c **** 
 926              		.loc 1 492 3 view .LVU284
 492:Drivers/STM32F0xx_HAL_Driver/Src/stm32f0xx_hal_can.c **** 
 927              		.loc 1 492 19 is_stmt 0 view .LVU285
 928 001c 0023     		movs	r3, #0
 929 001e 6362     		str	r3, [r4, #36]
 495:Drivers/STM32F0xx_HAL_Driver/Src/stm32f0xx_hal_can.c **** 
 930              		.loc 1 495 3 is_stmt 1 view .LVU286
 495:Drivers/STM32F0xx_HAL_Driver/Src/stm32f0xx_hal_can.c **** 
 931              		.loc 1 495 15 is_stmt 0 view .LVU287
 932 0020 2022     		movs	r2, #32
 933 0022 A354     		strb	r3, [r4, r2]
 498:Drivers/STM32F0xx_HAL_Driver/Src/stm32f0xx_hal_can.c **** }
 934              		.loc 1 498 3 is_stmt 1 view .LVU288
 498:Drivers/STM32F0xx_HAL_Driver/Src/stm32f0xx_hal_can.c **** }
 935              		.loc 1 498 10 is_stmt 0 view .LVU289
 936 0024 0020     		movs	r0, #0
 937              	.L60:
 499:Drivers/STM32F0xx_HAL_Driver/Src/stm32f0xx_hal_can.c **** 
 938              		.loc 1 499 1 view .LVU290
 939              		@ sp needed
 940              	.LVL48:
 499:Drivers/STM32F0xx_HAL_Driver/Src/stm32f0xx_hal_can.c **** 
 941              		.loc 1 499 1 view .LVU291
 942 0026 10BD     		pop	{r4, pc}
 943              	.LVL49:
 944              	.L61:
 465:Drivers/STM32F0xx_HAL_Driver/Src/stm32f0xx_hal_can.c ****   }
 945              		.loc 1 465 12 view .LVU292
 946 0028 0120     		movs	r0, #1
 947              	.LVL50:
 465:Drivers/STM32F0xx_HAL_Driver/Src/stm32f0xx_hal_can.c ****   }
 948              		.loc 1 465 12 view .LVU293
 949 002a FCE7     		b	.L60
 950              		.cfi_endproc
 951              	.LFE41:
 953              		.section	.text.HAL_CAN_RequestSleep,"ax",%progbits
 954              		.align	1
 955              		.global	HAL_CAN_RequestSleep
 956              		.syntax unified
 957              		.code	16
 958              		.thumb_func
 960              	HAL_CAN_RequestSleep:
 961              	.LVL51:
 962              	.LFB47:
1087:Drivers/STM32F0xx_HAL_Driver/Src/stm32f0xx_hal_can.c **** 
1088:Drivers/STM32F0xx_HAL_Driver/Src/stm32f0xx_hal_can.c **** /**
ARM GAS  C:\Users\xhex8\AppData\Local\Temp\ccvcBrdy.s 			page 41


1089:Drivers/STM32F0xx_HAL_Driver/Src/stm32f0xx_hal_can.c ****   * @brief  Request the sleep mode (low power) entry.
1090:Drivers/STM32F0xx_HAL_Driver/Src/stm32f0xx_hal_can.c ****   *         When returning from this function, Sleep mode will be entered
1091:Drivers/STM32F0xx_HAL_Driver/Src/stm32f0xx_hal_can.c ****   *         as soon as the current CAN activity (transmission or reception
1092:Drivers/STM32F0xx_HAL_Driver/Src/stm32f0xx_hal_can.c ****   *         of a CAN frame) has been completed.
1093:Drivers/STM32F0xx_HAL_Driver/Src/stm32f0xx_hal_can.c ****   * @param  hcan pointer to a CAN_HandleTypeDef structure that contains
1094:Drivers/STM32F0xx_HAL_Driver/Src/stm32f0xx_hal_can.c ****   *         the configuration information for the specified CAN.
1095:Drivers/STM32F0xx_HAL_Driver/Src/stm32f0xx_hal_can.c ****   * @retval HAL status.
1096:Drivers/STM32F0xx_HAL_Driver/Src/stm32f0xx_hal_can.c ****   */
1097:Drivers/STM32F0xx_HAL_Driver/Src/stm32f0xx_hal_can.c **** HAL_StatusTypeDef HAL_CAN_RequestSleep(CAN_HandleTypeDef *hcan)
1098:Drivers/STM32F0xx_HAL_Driver/Src/stm32f0xx_hal_can.c **** {
 963              		.loc 1 1098 1 is_stmt 1 view -0
 964              		.cfi_startproc
 965              		@ args = 0, pretend = 0, frame = 0
 966              		@ frame_needed = 0, uses_anonymous_args = 0
 967              		@ link register save eliminated.
1099:Drivers/STM32F0xx_HAL_Driver/Src/stm32f0xx_hal_can.c ****   HAL_CAN_StateTypeDef state = hcan->State;
 968              		.loc 1 1099 3 view .LVU295
 969              		.loc 1 1099 24 is_stmt 0 view .LVU296
 970 0000 2023     		movs	r3, #32
 971 0002 C35C     		ldrb	r3, [r0, r3]
 972              	.LVL52:
1100:Drivers/STM32F0xx_HAL_Driver/Src/stm32f0xx_hal_can.c **** 
1101:Drivers/STM32F0xx_HAL_Driver/Src/stm32f0xx_hal_can.c ****   if ((state == HAL_CAN_STATE_READY) ||
 973              		.loc 1 1101 3 is_stmt 1 view .LVU297
 974              		.loc 1 1101 38 is_stmt 0 view .LVU298
 975 0004 013B     		subs	r3, r3, #1
 976              	.LVL53:
 977              		.loc 1 1101 38 view .LVU299
 978 0006 DBB2     		uxtb	r3, r3
 979              		.loc 1 1101 6 view .LVU300
 980 0008 012B     		cmp	r3, #1
 981 000a 06D9     		bls	.L65
1102:Drivers/STM32F0xx_HAL_Driver/Src/stm32f0xx_hal_can.c ****       (state == HAL_CAN_STATE_LISTENING))
1103:Drivers/STM32F0xx_HAL_Driver/Src/stm32f0xx_hal_can.c ****   {
1104:Drivers/STM32F0xx_HAL_Driver/Src/stm32f0xx_hal_can.c ****     /* Request Sleep mode */
1105:Drivers/STM32F0xx_HAL_Driver/Src/stm32f0xx_hal_can.c ****     SET_BIT(hcan->Instance->MCR, CAN_MCR_SLEEP);
1106:Drivers/STM32F0xx_HAL_Driver/Src/stm32f0xx_hal_can.c **** 
1107:Drivers/STM32F0xx_HAL_Driver/Src/stm32f0xx_hal_can.c ****     /* Return function status */
1108:Drivers/STM32F0xx_HAL_Driver/Src/stm32f0xx_hal_can.c ****     return HAL_OK;
1109:Drivers/STM32F0xx_HAL_Driver/Src/stm32f0xx_hal_can.c ****   }
1110:Drivers/STM32F0xx_HAL_Driver/Src/stm32f0xx_hal_can.c ****   else
1111:Drivers/STM32F0xx_HAL_Driver/Src/stm32f0xx_hal_can.c ****   {
1112:Drivers/STM32F0xx_HAL_Driver/Src/stm32f0xx_hal_can.c ****     /* Update error code */
1113:Drivers/STM32F0xx_HAL_Driver/Src/stm32f0xx_hal_can.c ****     hcan->ErrorCode |= HAL_CAN_ERROR_NOT_INITIALIZED;
 982              		.loc 1 1113 5 is_stmt 1 view .LVU301
 983              		.loc 1 1113 9 is_stmt 0 view .LVU302
 984 000c 426A     		ldr	r2, [r0, #36]
 985              		.loc 1 1113 21 view .LVU303
 986 000e 8023     		movs	r3, #128
 987 0010 DB02     		lsls	r3, r3, #11
 988 0012 1343     		orrs	r3, r2
 989 0014 4362     		str	r3, [r0, #36]
1114:Drivers/STM32F0xx_HAL_Driver/Src/stm32f0xx_hal_can.c **** 
1115:Drivers/STM32F0xx_HAL_Driver/Src/stm32f0xx_hal_can.c ****     /* Return function status */
1116:Drivers/STM32F0xx_HAL_Driver/Src/stm32f0xx_hal_can.c ****     return HAL_ERROR;
 990              		.loc 1 1116 5 is_stmt 1 view .LVU304
 991              		.loc 1 1116 12 is_stmt 0 view .LVU305
ARM GAS  C:\Users\xhex8\AppData\Local\Temp\ccvcBrdy.s 			page 42


 992 0016 0120     		movs	r0, #1
 993              	.LVL54:
 994              	.L64:
1117:Drivers/STM32F0xx_HAL_Driver/Src/stm32f0xx_hal_can.c ****   }
1118:Drivers/STM32F0xx_HAL_Driver/Src/stm32f0xx_hal_can.c **** }
 995              		.loc 1 1118 1 view .LVU306
 996              		@ sp needed
 997 0018 7047     		bx	lr
 998              	.LVL55:
 999              	.L65:
1105:Drivers/STM32F0xx_HAL_Driver/Src/stm32f0xx_hal_can.c **** 
 1000              		.loc 1 1105 5 is_stmt 1 view .LVU307
 1001 001a 0268     		ldr	r2, [r0]
 1002 001c 1368     		ldr	r3, [r2]
 1003 001e 0221     		movs	r1, #2
 1004 0020 0B43     		orrs	r3, r1
 1005 0022 1360     		str	r3, [r2]
1108:Drivers/STM32F0xx_HAL_Driver/Src/stm32f0xx_hal_can.c ****   }
 1006              		.loc 1 1108 5 view .LVU308
1108:Drivers/STM32F0xx_HAL_Driver/Src/stm32f0xx_hal_can.c ****   }
 1007              		.loc 1 1108 12 is_stmt 0 view .LVU309
 1008 0024 0020     		movs	r0, #0
 1009              	.LVL56:
1108:Drivers/STM32F0xx_HAL_Driver/Src/stm32f0xx_hal_can.c ****   }
 1010              		.loc 1 1108 12 view .LVU310
 1011 0026 F7E7     		b	.L64
 1012              		.cfi_endproc
 1013              	.LFE47:
 1015              		.section	.text.HAL_CAN_WakeUp,"ax",%progbits
 1016              		.align	1
 1017              		.global	HAL_CAN_WakeUp
 1018              		.syntax unified
 1019              		.code	16
 1020              		.thumb_func
 1022              	HAL_CAN_WakeUp:
 1023              	.LVL57:
 1024              	.LFB48:
1119:Drivers/STM32F0xx_HAL_Driver/Src/stm32f0xx_hal_can.c **** 
1120:Drivers/STM32F0xx_HAL_Driver/Src/stm32f0xx_hal_can.c **** /**
1121:Drivers/STM32F0xx_HAL_Driver/Src/stm32f0xx_hal_can.c ****   * @brief  Wake up from sleep mode.
1122:Drivers/STM32F0xx_HAL_Driver/Src/stm32f0xx_hal_can.c ****   *         When returning with HAL_OK status from this function, Sleep mode
1123:Drivers/STM32F0xx_HAL_Driver/Src/stm32f0xx_hal_can.c ****   *         is exited.
1124:Drivers/STM32F0xx_HAL_Driver/Src/stm32f0xx_hal_can.c ****   * @param  hcan pointer to a CAN_HandleTypeDef structure that contains
1125:Drivers/STM32F0xx_HAL_Driver/Src/stm32f0xx_hal_can.c ****   *         the configuration information for the specified CAN.
1126:Drivers/STM32F0xx_HAL_Driver/Src/stm32f0xx_hal_can.c ****   * @retval HAL status.
1127:Drivers/STM32F0xx_HAL_Driver/Src/stm32f0xx_hal_can.c ****   */
1128:Drivers/STM32F0xx_HAL_Driver/Src/stm32f0xx_hal_can.c **** HAL_StatusTypeDef HAL_CAN_WakeUp(CAN_HandleTypeDef *hcan)
1129:Drivers/STM32F0xx_HAL_Driver/Src/stm32f0xx_hal_can.c **** {
 1025              		.loc 1 1129 1 is_stmt 1 view -0
 1026              		.cfi_startproc
 1027              		@ args = 0, pretend = 0, frame = 8
 1028              		@ frame_needed = 0, uses_anonymous_args = 0
 1029              		@ link register save eliminated.
 1030              		.loc 1 1129 1 is_stmt 0 view .LVU312
 1031 0000 82B0     		sub	sp, sp, #8
 1032              		.cfi_def_cfa_offset 8
1130:Drivers/STM32F0xx_HAL_Driver/Src/stm32f0xx_hal_can.c ****   __IO uint32_t count = 0;
ARM GAS  C:\Users\xhex8\AppData\Local\Temp\ccvcBrdy.s 			page 43


 1033              		.loc 1 1130 3 is_stmt 1 view .LVU313
 1034              		.loc 1 1130 17 is_stmt 0 view .LVU314
 1035 0002 0023     		movs	r3, #0
 1036 0004 0193     		str	r3, [sp, #4]
1131:Drivers/STM32F0xx_HAL_Driver/Src/stm32f0xx_hal_can.c ****   HAL_CAN_StateTypeDef state = hcan->State;
 1037              		.loc 1 1131 3 is_stmt 1 view .LVU315
 1038              		.loc 1 1131 24 is_stmt 0 view .LVU316
 1039 0006 2033     		adds	r3, r3, #32
 1040 0008 C35C     		ldrb	r3, [r0, r3]
 1041              	.LVL58:
1132:Drivers/STM32F0xx_HAL_Driver/Src/stm32f0xx_hal_can.c **** 
1133:Drivers/STM32F0xx_HAL_Driver/Src/stm32f0xx_hal_can.c ****   if ((state == HAL_CAN_STATE_READY) ||
 1042              		.loc 1 1133 3 is_stmt 1 view .LVU317
 1043              		.loc 1 1133 38 is_stmt 0 view .LVU318
 1044 000a 013B     		subs	r3, r3, #1
 1045              	.LVL59:
 1046              		.loc 1 1133 38 view .LVU319
 1047 000c DBB2     		uxtb	r3, r3
 1048              		.loc 1 1133 6 view .LVU320
 1049 000e 012B     		cmp	r3, #1
 1050 0010 18D8     		bhi	.L67
1134:Drivers/STM32F0xx_HAL_Driver/Src/stm32f0xx_hal_can.c ****       (state == HAL_CAN_STATE_LISTENING))
1135:Drivers/STM32F0xx_HAL_Driver/Src/stm32f0xx_hal_can.c ****   {
1136:Drivers/STM32F0xx_HAL_Driver/Src/stm32f0xx_hal_can.c ****     /* Wake up request */
1137:Drivers/STM32F0xx_HAL_Driver/Src/stm32f0xx_hal_can.c ****     CLEAR_BIT(hcan->Instance->MCR, CAN_MCR_SLEEP);
 1051              		.loc 1 1137 5 is_stmt 1 view .LVU321
 1052 0012 0268     		ldr	r2, [r0]
 1053 0014 1368     		ldr	r3, [r2]
 1054 0016 0221     		movs	r1, #2
 1055 0018 8B43     		bics	r3, r1
 1056 001a 1360     		str	r3, [r2]
 1057              	.L70:
1138:Drivers/STM32F0xx_HAL_Driver/Src/stm32f0xx_hal_can.c **** 
1139:Drivers/STM32F0xx_HAL_Driver/Src/stm32f0xx_hal_can.c ****     /* Wait sleep mode is exited */
1140:Drivers/STM32F0xx_HAL_Driver/Src/stm32f0xx_hal_can.c ****     do
 1058              		.loc 1 1140 5 view .LVU322
1141:Drivers/STM32F0xx_HAL_Driver/Src/stm32f0xx_hal_can.c ****     {
1142:Drivers/STM32F0xx_HAL_Driver/Src/stm32f0xx_hal_can.c ****       /* Increment counter */
1143:Drivers/STM32F0xx_HAL_Driver/Src/stm32f0xx_hal_can.c ****       count++;
 1059              		.loc 1 1143 7 view .LVU323
 1060              		.loc 1 1143 12 is_stmt 0 view .LVU324
 1061 001c 019B     		ldr	r3, [sp, #4]
 1062 001e 0133     		adds	r3, r3, #1
 1063 0020 0193     		str	r3, [sp, #4]
1144:Drivers/STM32F0xx_HAL_Driver/Src/stm32f0xx_hal_can.c **** 
1145:Drivers/STM32F0xx_HAL_Driver/Src/stm32f0xx_hal_can.c ****       /* Check if timeout is reached */
1146:Drivers/STM32F0xx_HAL_Driver/Src/stm32f0xx_hal_can.c ****       if (count > CAN_WAKEUP_TIMEOUT_COUNTER)
 1064              		.loc 1 1146 7 is_stmt 1 view .LVU325
 1065              		.loc 1 1146 17 is_stmt 0 view .LVU326
 1066 0022 019A     		ldr	r2, [sp, #4]
 1067              		.loc 1 1146 10 view .LVU327
 1068 0024 0B4B     		ldr	r3, .L73
 1069 0026 9A42     		cmp	r2, r3
 1070 0028 05D8     		bhi	.L72
1147:Drivers/STM32F0xx_HAL_Driver/Src/stm32f0xx_hal_can.c ****       {
1148:Drivers/STM32F0xx_HAL_Driver/Src/stm32f0xx_hal_can.c ****         /* Update error code */
1149:Drivers/STM32F0xx_HAL_Driver/Src/stm32f0xx_hal_can.c ****         hcan->ErrorCode |= HAL_CAN_ERROR_TIMEOUT;
ARM GAS  C:\Users\xhex8\AppData\Local\Temp\ccvcBrdy.s 			page 44


1150:Drivers/STM32F0xx_HAL_Driver/Src/stm32f0xx_hal_can.c **** 
1151:Drivers/STM32F0xx_HAL_Driver/Src/stm32f0xx_hal_can.c ****         return HAL_ERROR;
1152:Drivers/STM32F0xx_HAL_Driver/Src/stm32f0xx_hal_can.c ****       }
1153:Drivers/STM32F0xx_HAL_Driver/Src/stm32f0xx_hal_can.c ****     } while ((hcan->Instance->MSR & CAN_MSR_SLAK) != 0U);
 1071              		.loc 1 1153 51 is_stmt 1 view .LVU328
 1072              		.loc 1 1153 19 is_stmt 0 view .LVU329
 1073 002a 0368     		ldr	r3, [r0]
 1074              		.loc 1 1153 29 view .LVU330
 1075 002c 5B68     		ldr	r3, [r3, #4]
 1076              		.loc 1 1153 51 view .LVU331
 1077 002e 9B07     		lsls	r3, r3, #30
 1078 0030 F4D4     		bmi	.L70
1154:Drivers/STM32F0xx_HAL_Driver/Src/stm32f0xx_hal_can.c **** 
1155:Drivers/STM32F0xx_HAL_Driver/Src/stm32f0xx_hal_can.c ****     /* Return function status */
1156:Drivers/STM32F0xx_HAL_Driver/Src/stm32f0xx_hal_can.c ****     return HAL_OK;
 1079              		.loc 1 1156 12 view .LVU332
 1080 0032 0020     		movs	r0, #0
 1081              	.LVL60:
 1082              		.loc 1 1156 12 view .LVU333
 1083 0034 0CE0     		b	.L69
 1084              	.LVL61:
 1085              	.L72:
1149:Drivers/STM32F0xx_HAL_Driver/Src/stm32f0xx_hal_can.c **** 
 1086              		.loc 1 1149 9 is_stmt 1 view .LVU334
1149:Drivers/STM32F0xx_HAL_Driver/Src/stm32f0xx_hal_can.c **** 
 1087              		.loc 1 1149 13 is_stmt 0 view .LVU335
 1088 0036 426A     		ldr	r2, [r0, #36]
1149:Drivers/STM32F0xx_HAL_Driver/Src/stm32f0xx_hal_can.c **** 
 1089              		.loc 1 1149 25 view .LVU336
 1090 0038 8023     		movs	r3, #128
 1091 003a 9B02     		lsls	r3, r3, #10
 1092 003c 1343     		orrs	r3, r2
 1093 003e 4362     		str	r3, [r0, #36]
1151:Drivers/STM32F0xx_HAL_Driver/Src/stm32f0xx_hal_can.c ****       }
 1094              		.loc 1 1151 9 is_stmt 1 view .LVU337
1151:Drivers/STM32F0xx_HAL_Driver/Src/stm32f0xx_hal_can.c ****       }
 1095              		.loc 1 1151 16 is_stmt 0 view .LVU338
 1096 0040 0120     		movs	r0, #1
 1097              	.LVL62:
1151:Drivers/STM32F0xx_HAL_Driver/Src/stm32f0xx_hal_can.c ****       }
 1098              		.loc 1 1151 16 view .LVU339
 1099 0042 05E0     		b	.L69
 1100              	.LVL63:
 1101              	.L67:
1157:Drivers/STM32F0xx_HAL_Driver/Src/stm32f0xx_hal_can.c ****   }
1158:Drivers/STM32F0xx_HAL_Driver/Src/stm32f0xx_hal_can.c ****   else
1159:Drivers/STM32F0xx_HAL_Driver/Src/stm32f0xx_hal_can.c ****   {
1160:Drivers/STM32F0xx_HAL_Driver/Src/stm32f0xx_hal_can.c ****     /* Update error code */
1161:Drivers/STM32F0xx_HAL_Driver/Src/stm32f0xx_hal_can.c ****     hcan->ErrorCode |= HAL_CAN_ERROR_NOT_INITIALIZED;
 1102              		.loc 1 1161 5 is_stmt 1 view .LVU340
 1103              		.loc 1 1161 9 is_stmt 0 view .LVU341
 1104 0044 426A     		ldr	r2, [r0, #36]
 1105              		.loc 1 1161 21 view .LVU342
 1106 0046 8023     		movs	r3, #128
 1107 0048 DB02     		lsls	r3, r3, #11
 1108 004a 1343     		orrs	r3, r2
 1109 004c 4362     		str	r3, [r0, #36]
ARM GAS  C:\Users\xhex8\AppData\Local\Temp\ccvcBrdy.s 			page 45


1162:Drivers/STM32F0xx_HAL_Driver/Src/stm32f0xx_hal_can.c **** 
1163:Drivers/STM32F0xx_HAL_Driver/Src/stm32f0xx_hal_can.c ****     return HAL_ERROR;
 1110              		.loc 1 1163 5 is_stmt 1 view .LVU343
 1111              		.loc 1 1163 12 is_stmt 0 view .LVU344
 1112 004e 0120     		movs	r0, #1
 1113              	.LVL64:
 1114              	.L69:
1164:Drivers/STM32F0xx_HAL_Driver/Src/stm32f0xx_hal_can.c ****   }
1165:Drivers/STM32F0xx_HAL_Driver/Src/stm32f0xx_hal_can.c **** }
 1115              		.loc 1 1165 1 view .LVU345
 1116 0050 02B0     		add	sp, sp, #8
 1117              		@ sp needed
 1118 0052 7047     		bx	lr
 1119              	.L74:
 1120              		.align	2
 1121              	.L73:
 1122 0054 40420F00 		.word	1000000
 1123              		.cfi_endproc
 1124              	.LFE48:
 1126              		.section	.text.HAL_CAN_IsSleepActive,"ax",%progbits
 1127              		.align	1
 1128              		.global	HAL_CAN_IsSleepActive
 1129              		.syntax unified
 1130              		.code	16
 1131              		.thumb_func
 1133              	HAL_CAN_IsSleepActive:
 1134              	.LVL65:
 1135              	.LFB49:
1166:Drivers/STM32F0xx_HAL_Driver/Src/stm32f0xx_hal_can.c **** 
1167:Drivers/STM32F0xx_HAL_Driver/Src/stm32f0xx_hal_can.c **** /**
1168:Drivers/STM32F0xx_HAL_Driver/Src/stm32f0xx_hal_can.c ****   * @brief  Check is sleep mode is active.
1169:Drivers/STM32F0xx_HAL_Driver/Src/stm32f0xx_hal_can.c ****   * @param  hcan pointer to a CAN_HandleTypeDef structure that contains
1170:Drivers/STM32F0xx_HAL_Driver/Src/stm32f0xx_hal_can.c ****   *         the configuration information for the specified CAN.
1171:Drivers/STM32F0xx_HAL_Driver/Src/stm32f0xx_hal_can.c ****   * @retval Status
1172:Drivers/STM32F0xx_HAL_Driver/Src/stm32f0xx_hal_can.c ****   *          - 0 : Sleep mode is not active.
1173:Drivers/STM32F0xx_HAL_Driver/Src/stm32f0xx_hal_can.c ****   *          - 1 : Sleep mode is active.
1174:Drivers/STM32F0xx_HAL_Driver/Src/stm32f0xx_hal_can.c ****   */
1175:Drivers/STM32F0xx_HAL_Driver/Src/stm32f0xx_hal_can.c **** uint32_t HAL_CAN_IsSleepActive(const CAN_HandleTypeDef *hcan)
1176:Drivers/STM32F0xx_HAL_Driver/Src/stm32f0xx_hal_can.c **** {
 1136              		.loc 1 1176 1 is_stmt 1 view -0
 1137              		.cfi_startproc
 1138              		@ args = 0, pretend = 0, frame = 0
 1139              		@ frame_needed = 0, uses_anonymous_args = 0
 1140              		@ link register save eliminated.
1177:Drivers/STM32F0xx_HAL_Driver/Src/stm32f0xx_hal_can.c ****   uint32_t status = 0U;
 1141              		.loc 1 1177 3 view .LVU347
1178:Drivers/STM32F0xx_HAL_Driver/Src/stm32f0xx_hal_can.c ****   HAL_CAN_StateTypeDef state = hcan->State;
 1142              		.loc 1 1178 3 view .LVU348
 1143              		.loc 1 1178 24 is_stmt 0 view .LVU349
 1144 0000 2023     		movs	r3, #32
 1145 0002 C35C     		ldrb	r3, [r0, r3]
 1146              	.LVL66:
1179:Drivers/STM32F0xx_HAL_Driver/Src/stm32f0xx_hal_can.c **** 
1180:Drivers/STM32F0xx_HAL_Driver/Src/stm32f0xx_hal_can.c ****   if ((state == HAL_CAN_STATE_READY) ||
 1147              		.loc 1 1180 3 is_stmt 1 view .LVU350
 1148              		.loc 1 1180 38 is_stmt 0 view .LVU351
 1149 0004 013B     		subs	r3, r3, #1
ARM GAS  C:\Users\xhex8\AppData\Local\Temp\ccvcBrdy.s 			page 46


 1150              	.LVL67:
 1151              		.loc 1 1180 38 view .LVU352
 1152 0006 DBB2     		uxtb	r3, r3
 1153              		.loc 1 1180 6 view .LVU353
 1154 0008 012B     		cmp	r3, #1
 1155 000a 01D9     		bls	.L79
1177:Drivers/STM32F0xx_HAL_Driver/Src/stm32f0xx_hal_can.c ****   HAL_CAN_StateTypeDef state = hcan->State;
 1156              		.loc 1 1177 12 view .LVU354
 1157 000c 0020     		movs	r0, #0
 1158              	.LVL68:
 1159              	.L75:
1181:Drivers/STM32F0xx_HAL_Driver/Src/stm32f0xx_hal_can.c ****       (state == HAL_CAN_STATE_LISTENING))
1182:Drivers/STM32F0xx_HAL_Driver/Src/stm32f0xx_hal_can.c ****   {
1183:Drivers/STM32F0xx_HAL_Driver/Src/stm32f0xx_hal_can.c ****     /* Check Sleep mode */
1184:Drivers/STM32F0xx_HAL_Driver/Src/stm32f0xx_hal_can.c ****     if ((hcan->Instance->MSR & CAN_MSR_SLAK) != 0U)
1185:Drivers/STM32F0xx_HAL_Driver/Src/stm32f0xx_hal_can.c ****     {
1186:Drivers/STM32F0xx_HAL_Driver/Src/stm32f0xx_hal_can.c ****       status = 1U;
1187:Drivers/STM32F0xx_HAL_Driver/Src/stm32f0xx_hal_can.c ****     }
1188:Drivers/STM32F0xx_HAL_Driver/Src/stm32f0xx_hal_can.c ****   }
1189:Drivers/STM32F0xx_HAL_Driver/Src/stm32f0xx_hal_can.c **** 
1190:Drivers/STM32F0xx_HAL_Driver/Src/stm32f0xx_hal_can.c ****   /* Return function status */
1191:Drivers/STM32F0xx_HAL_Driver/Src/stm32f0xx_hal_can.c ****   return status;
1192:Drivers/STM32F0xx_HAL_Driver/Src/stm32f0xx_hal_can.c **** }
 1160              		.loc 1 1192 1 view .LVU355
 1161              		@ sp needed
 1162 000e 7047     		bx	lr
 1163              	.LVL69:
 1164              	.L79:
1184:Drivers/STM32F0xx_HAL_Driver/Src/stm32f0xx_hal_can.c ****     {
 1165              		.loc 1 1184 5 is_stmt 1 view .LVU356
1184:Drivers/STM32F0xx_HAL_Driver/Src/stm32f0xx_hal_can.c ****     {
 1166              		.loc 1 1184 14 is_stmt 0 view .LVU357
 1167 0010 0368     		ldr	r3, [r0]
1184:Drivers/STM32F0xx_HAL_Driver/Src/stm32f0xx_hal_can.c ****     {
 1168              		.loc 1 1184 24 view .LVU358
 1169 0012 5B68     		ldr	r3, [r3, #4]
1184:Drivers/STM32F0xx_HAL_Driver/Src/stm32f0xx_hal_can.c ****     {
 1170              		.loc 1 1184 30 view .LVU359
 1171 0014 0222     		movs	r2, #2
 1172 0016 1000     		movs	r0, r2
 1173              	.LVL70:
1184:Drivers/STM32F0xx_HAL_Driver/Src/stm32f0xx_hal_can.c ****     {
 1174              		.loc 1 1184 30 view .LVU360
 1175 0018 1840     		ands	r0, r3
1184:Drivers/STM32F0xx_HAL_Driver/Src/stm32f0xx_hal_can.c ****     {
 1176              		.loc 1 1184 8 view .LVU361
 1177 001a 1A42     		tst	r2, r3
 1178 001c F7D0     		beq	.L75
1186:Drivers/STM32F0xx_HAL_Driver/Src/stm32f0xx_hal_can.c ****     }
 1179              		.loc 1 1186 14 view .LVU362
 1180 001e 0120     		movs	r0, #1
 1181              	.LVL71:
1191:Drivers/STM32F0xx_HAL_Driver/Src/stm32f0xx_hal_can.c **** }
 1182              		.loc 1 1191 3 is_stmt 1 view .LVU363
1191:Drivers/STM32F0xx_HAL_Driver/Src/stm32f0xx_hal_can.c **** }
 1183              		.loc 1 1191 10 is_stmt 0 view .LVU364
 1184 0020 F5E7     		b	.L75
ARM GAS  C:\Users\xhex8\AppData\Local\Temp\ccvcBrdy.s 			page 47


 1185              		.cfi_endproc
 1186              	.LFE49:
 1188              		.section	.text.HAL_CAN_AddTxMessage,"ax",%progbits
 1189              		.align	1
 1190              		.global	HAL_CAN_AddTxMessage
 1191              		.syntax unified
 1192              		.code	16
 1193              		.thumb_func
 1195              	HAL_CAN_AddTxMessage:
 1196              	.LVL72:
 1197              	.LFB50:
1193:Drivers/STM32F0xx_HAL_Driver/Src/stm32f0xx_hal_can.c **** 
1194:Drivers/STM32F0xx_HAL_Driver/Src/stm32f0xx_hal_can.c **** /**
1195:Drivers/STM32F0xx_HAL_Driver/Src/stm32f0xx_hal_can.c ****   * @brief  Add a message to the first free Tx mailbox and activate the
1196:Drivers/STM32F0xx_HAL_Driver/Src/stm32f0xx_hal_can.c ****   *         corresponding transmission request.
1197:Drivers/STM32F0xx_HAL_Driver/Src/stm32f0xx_hal_can.c ****   * @param  hcan pointer to a CAN_HandleTypeDef structure that contains
1198:Drivers/STM32F0xx_HAL_Driver/Src/stm32f0xx_hal_can.c ****   *         the configuration information for the specified CAN.
1199:Drivers/STM32F0xx_HAL_Driver/Src/stm32f0xx_hal_can.c ****   * @param  pHeader pointer to a CAN_TxHeaderTypeDef structure.
1200:Drivers/STM32F0xx_HAL_Driver/Src/stm32f0xx_hal_can.c ****   * @param  aData array containing the payload of the Tx frame.
1201:Drivers/STM32F0xx_HAL_Driver/Src/stm32f0xx_hal_can.c ****   * @param  pTxMailbox pointer to a variable where the function will return
1202:Drivers/STM32F0xx_HAL_Driver/Src/stm32f0xx_hal_can.c ****   *         the TxMailbox used to store the Tx message.
1203:Drivers/STM32F0xx_HAL_Driver/Src/stm32f0xx_hal_can.c ****   *         This parameter can be a value of @arg CAN_Tx_Mailboxes.
1204:Drivers/STM32F0xx_HAL_Driver/Src/stm32f0xx_hal_can.c ****   * @retval HAL status
1205:Drivers/STM32F0xx_HAL_Driver/Src/stm32f0xx_hal_can.c ****   */
1206:Drivers/STM32F0xx_HAL_Driver/Src/stm32f0xx_hal_can.c **** HAL_StatusTypeDef HAL_CAN_AddTxMessage(CAN_HandleTypeDef *hcan, const CAN_TxHeaderTypeDef *pHeader,
1207:Drivers/STM32F0xx_HAL_Driver/Src/stm32f0xx_hal_can.c ****                                        const uint8_t aData[], uint32_t *pTxMailbox)
1208:Drivers/STM32F0xx_HAL_Driver/Src/stm32f0xx_hal_can.c **** {
 1198              		.loc 1 1208 1 is_stmt 1 view -0
 1199              		.cfi_startproc
 1200              		@ args = 0, pretend = 0, frame = 0
 1201              		@ frame_needed = 0, uses_anonymous_args = 0
 1202              		.loc 1 1208 1 is_stmt 0 view .LVU366
 1203 0000 70B5     		push	{r4, r5, r6, lr}
 1204              		.cfi_def_cfa_offset 16
 1205              		.cfi_offset 4, -16
 1206              		.cfi_offset 5, -12
 1207              		.cfi_offset 6, -8
 1208              		.cfi_offset 14, -4
1209:Drivers/STM32F0xx_HAL_Driver/Src/stm32f0xx_hal_can.c ****   uint32_t transmitmailbox;
 1209              		.loc 1 1209 3 is_stmt 1 view .LVU367
1210:Drivers/STM32F0xx_HAL_Driver/Src/stm32f0xx_hal_can.c ****   HAL_CAN_StateTypeDef state = hcan->State;
 1210              		.loc 1 1210 3 view .LVU368
 1211              		.loc 1 1210 24 is_stmt 0 view .LVU369
 1212 0002 2024     		movs	r4, #32
 1213 0004 045D     		ldrb	r4, [r0, r4]
 1214              	.LVL73:
1211:Drivers/STM32F0xx_HAL_Driver/Src/stm32f0xx_hal_can.c ****   uint32_t tsr = READ_REG(hcan->Instance->TSR);
 1215              		.loc 1 1211 3 is_stmt 1 view .LVU370
 1216              		.loc 1 1211 18 is_stmt 0 view .LVU371
 1217 0006 0568     		ldr	r5, [r0]
 1218              		.loc 1 1211 12 view .LVU372
 1219 0008 AD68     		ldr	r5, [r5, #8]
 1220              	.LVL74:
1212:Drivers/STM32F0xx_HAL_Driver/Src/stm32f0xx_hal_can.c **** 
1213:Drivers/STM32F0xx_HAL_Driver/Src/stm32f0xx_hal_can.c ****   /* Check the parameters */
1214:Drivers/STM32F0xx_HAL_Driver/Src/stm32f0xx_hal_can.c ****   assert_param(IS_CAN_IDTYPE(pHeader->IDE));
 1221              		.loc 1 1214 3 is_stmt 1 view .LVU373
ARM GAS  C:\Users\xhex8\AppData\Local\Temp\ccvcBrdy.s 			page 48


1215:Drivers/STM32F0xx_HAL_Driver/Src/stm32f0xx_hal_can.c ****   assert_param(IS_CAN_RTR(pHeader->RTR));
 1222              		.loc 1 1215 3 view .LVU374
1216:Drivers/STM32F0xx_HAL_Driver/Src/stm32f0xx_hal_can.c ****   assert_param(IS_CAN_DLC(pHeader->DLC));
 1223              		.loc 1 1216 3 view .LVU375
1217:Drivers/STM32F0xx_HAL_Driver/Src/stm32f0xx_hal_can.c ****   if (pHeader->IDE == CAN_ID_STD)
 1224              		.loc 1 1217 3 view .LVU376
1218:Drivers/STM32F0xx_HAL_Driver/Src/stm32f0xx_hal_can.c ****   {
1219:Drivers/STM32F0xx_HAL_Driver/Src/stm32f0xx_hal_can.c ****     assert_param(IS_CAN_STDID(pHeader->StdId));
1220:Drivers/STM32F0xx_HAL_Driver/Src/stm32f0xx_hal_can.c ****   }
1221:Drivers/STM32F0xx_HAL_Driver/Src/stm32f0xx_hal_can.c ****   else
1222:Drivers/STM32F0xx_HAL_Driver/Src/stm32f0xx_hal_can.c ****   {
1223:Drivers/STM32F0xx_HAL_Driver/Src/stm32f0xx_hal_can.c ****     assert_param(IS_CAN_EXTID(pHeader->ExtId));
 1225              		.loc 1 1223 5 view .LVU377
1224:Drivers/STM32F0xx_HAL_Driver/Src/stm32f0xx_hal_can.c ****   }
1225:Drivers/STM32F0xx_HAL_Driver/Src/stm32f0xx_hal_can.c ****   assert_param(IS_FUNCTIONAL_STATE(pHeader->TransmitGlobalTime));
 1226              		.loc 1 1225 3 view .LVU378
1226:Drivers/STM32F0xx_HAL_Driver/Src/stm32f0xx_hal_can.c **** 
1227:Drivers/STM32F0xx_HAL_Driver/Src/stm32f0xx_hal_can.c ****   if ((state == HAL_CAN_STATE_READY) ||
 1227              		.loc 1 1227 3 view .LVU379
 1228              		.loc 1 1227 38 is_stmt 0 view .LVU380
 1229 000a 013C     		subs	r4, r4, #1
 1230              	.LVL75:
 1231              		.loc 1 1227 38 view .LVU381
 1232 000c E4B2     		uxtb	r4, r4
 1233              		.loc 1 1227 6 view .LVU382
 1234 000e 012C     		cmp	r4, #1
 1235 0010 61D8     		bhi	.L81
1228:Drivers/STM32F0xx_HAL_Driver/Src/stm32f0xx_hal_can.c ****       (state == HAL_CAN_STATE_LISTENING))
1229:Drivers/STM32F0xx_HAL_Driver/Src/stm32f0xx_hal_can.c ****   {
1230:Drivers/STM32F0xx_HAL_Driver/Src/stm32f0xx_hal_can.c ****     /* Check that all the Tx mailboxes are not full */
1231:Drivers/STM32F0xx_HAL_Driver/Src/stm32f0xx_hal_can.c ****     if (((tsr & CAN_TSR_TME0) != 0U) ||
 1236              		.loc 1 1231 5 is_stmt 1 view .LVU383
1232:Drivers/STM32F0xx_HAL_Driver/Src/stm32f0xx_hal_can.c ****         ((tsr & CAN_TSR_TME1) != 0U) ||
 1237              		.loc 1 1232 38 is_stmt 0 view .LVU384
 1238 0012 E024     		movs	r4, #224
 1239 0014 6405     		lsls	r4, r4, #21
1231:Drivers/STM32F0xx_HAL_Driver/Src/stm32f0xx_hal_can.c ****         ((tsr & CAN_TSR_TME1) != 0U) ||
 1240              		.loc 1 1231 8 view .LVU385
 1241 0016 2542     		tst	r5, r4
 1242 0018 56D0     		beq	.L82
1233:Drivers/STM32F0xx_HAL_Driver/Src/stm32f0xx_hal_can.c ****         ((tsr & CAN_TSR_TME2) != 0U))
1234:Drivers/STM32F0xx_HAL_Driver/Src/stm32f0xx_hal_can.c ****     {
1235:Drivers/STM32F0xx_HAL_Driver/Src/stm32f0xx_hal_can.c ****       /* Select an empty transmit mailbox */
1236:Drivers/STM32F0xx_HAL_Driver/Src/stm32f0xx_hal_can.c ****       transmitmailbox = (tsr & CAN_TSR_CODE) >> CAN_TSR_CODE_Pos;
 1243              		.loc 1 1236 7 is_stmt 1 view .LVU386
 1244              		.loc 1 1236 46 is_stmt 0 view .LVU387
 1245 001a 2D0E     		lsrs	r5, r5, #24
 1246              	.LVL76:
 1247              		.loc 1 1236 23 view .LVU388
 1248 001c 0324     		movs	r4, #3
 1249 001e 2C40     		ands	r4, r5
 1250              	.LVL77:
1237:Drivers/STM32F0xx_HAL_Driver/Src/stm32f0xx_hal_can.c **** 
1238:Drivers/STM32F0xx_HAL_Driver/Src/stm32f0xx_hal_can.c ****       /* Store the Tx mailbox */
1239:Drivers/STM32F0xx_HAL_Driver/Src/stm32f0xx_hal_can.c ****       *pTxMailbox = (uint32_t)1 << transmitmailbox;
 1251              		.loc 1 1239 7 is_stmt 1 view .LVU389
 1252              		.loc 1 1239 33 is_stmt 0 view .LVU390
ARM GAS  C:\Users\xhex8\AppData\Local\Temp\ccvcBrdy.s 			page 49


 1253 0020 0125     		movs	r5, #1
 1254 0022 A540     		lsls	r5, r5, r4
 1255              		.loc 1 1239 19 view .LVU391
 1256 0024 1D60     		str	r5, [r3]
1240:Drivers/STM32F0xx_HAL_Driver/Src/stm32f0xx_hal_can.c **** 
1241:Drivers/STM32F0xx_HAL_Driver/Src/stm32f0xx_hal_can.c ****       /* Set up the Id */
1242:Drivers/STM32F0xx_HAL_Driver/Src/stm32f0xx_hal_can.c ****       if (pHeader->IDE == CAN_ID_STD)
 1257              		.loc 1 1242 7 is_stmt 1 view .LVU392
 1258              		.loc 1 1242 18 is_stmt 0 view .LVU393
 1259 0026 8B68     		ldr	r3, [r1, #8]
 1260              	.LVL78:
 1261              		.loc 1 1242 10 view .LVU394
 1262 0028 002B     		cmp	r3, #0
 1263 002a 3AD1     		bne	.L83
1243:Drivers/STM32F0xx_HAL_Driver/Src/stm32f0xx_hal_can.c ****       {
1244:Drivers/STM32F0xx_HAL_Driver/Src/stm32f0xx_hal_can.c ****         hcan->Instance->sTxMailBox[transmitmailbox].TIR = ((pHeader->StdId << CAN_TI0R_STID_Pos) |
 1264              		.loc 1 1244 9 is_stmt 1 view .LVU395
 1265              		.loc 1 1244 68 is_stmt 0 view .LVU396
 1266 002c 0B68     		ldr	r3, [r1]
 1267              		.loc 1 1244 76 view .LVU397
 1268 002e 5B05     		lsls	r3, r3, #21
1245:Drivers/STM32F0xx_HAL_Driver/Src/stm32f0xx_hal_can.c ****                                                            pHeader->RTR);
 1269              		.loc 1 1245 67 view .LVU398
 1270 0030 CD68     		ldr	r5, [r1, #12]
1244:Drivers/STM32F0xx_HAL_Driver/Src/stm32f0xx_hal_can.c ****                                                            pHeader->RTR);
 1271              		.loc 1 1244 13 view .LVU399
 1272 0032 0668     		ldr	r6, [r0]
1244:Drivers/STM32F0xx_HAL_Driver/Src/stm32f0xx_hal_can.c ****                                                            pHeader->RTR);
 1273              		.loc 1 1244 98 view .LVU400
 1274 0034 2B43     		orrs	r3, r5
1244:Drivers/STM32F0xx_HAL_Driver/Src/stm32f0xx_hal_can.c ****                                                            pHeader->RTR);
 1275              		.loc 1 1244 57 view .LVU401
 1276 0036 2500     		movs	r5, r4
 1277 0038 1835     		adds	r5, r5, #24
 1278 003a 2D01     		lsls	r5, r5, #4
 1279 003c AB51     		str	r3, [r5, r6]
 1280              	.L84:
1246:Drivers/STM32F0xx_HAL_Driver/Src/stm32f0xx_hal_can.c ****       }
1247:Drivers/STM32F0xx_HAL_Driver/Src/stm32f0xx_hal_can.c ****       else
1248:Drivers/STM32F0xx_HAL_Driver/Src/stm32f0xx_hal_can.c ****       {
1249:Drivers/STM32F0xx_HAL_Driver/Src/stm32f0xx_hal_can.c ****         hcan->Instance->sTxMailBox[transmitmailbox].TIR = ((pHeader->ExtId << CAN_TI0R_EXID_Pos) |
1250:Drivers/STM32F0xx_HAL_Driver/Src/stm32f0xx_hal_can.c ****                                                            pHeader->IDE |
1251:Drivers/STM32F0xx_HAL_Driver/Src/stm32f0xx_hal_can.c ****                                                            pHeader->RTR);
1252:Drivers/STM32F0xx_HAL_Driver/Src/stm32f0xx_hal_can.c ****       }
1253:Drivers/STM32F0xx_HAL_Driver/Src/stm32f0xx_hal_can.c **** 
1254:Drivers/STM32F0xx_HAL_Driver/Src/stm32f0xx_hal_can.c ****       /* Set up the DLC */
1255:Drivers/STM32F0xx_HAL_Driver/Src/stm32f0xx_hal_can.c ****       hcan->Instance->sTxMailBox[transmitmailbox].TDTR = (pHeader->DLC);
 1281              		.loc 1 1255 7 is_stmt 1 view .LVU402
 1282              		.loc 1 1255 11 is_stmt 0 view .LVU403
 1283 003e 0368     		ldr	r3, [r0]
 1284              		.loc 1 1255 66 view .LVU404
 1285 0040 0E69     		ldr	r6, [r1, #16]
 1286              		.loc 1 1255 56 view .LVU405
 1287 0042 2500     		movs	r5, r4
 1288 0044 1835     		adds	r5, r5, #24
 1289 0046 2D01     		lsls	r5, r5, #4
 1290 0048 5B19     		adds	r3, r3, r5
ARM GAS  C:\Users\xhex8\AppData\Local\Temp\ccvcBrdy.s 			page 50


 1291 004a 5E60     		str	r6, [r3, #4]
1256:Drivers/STM32F0xx_HAL_Driver/Src/stm32f0xx_hal_can.c **** 
1257:Drivers/STM32F0xx_HAL_Driver/Src/stm32f0xx_hal_can.c ****       /* Set up the Transmit Global Time mode */
1258:Drivers/STM32F0xx_HAL_Driver/Src/stm32f0xx_hal_can.c ****       if (pHeader->TransmitGlobalTime == ENABLE)
 1292              		.loc 1 1258 7 is_stmt 1 view .LVU406
 1293              		.loc 1 1258 18 is_stmt 0 view .LVU407
 1294 004c 0B7D     		ldrb	r3, [r1, #20]
 1295              		.loc 1 1258 10 view .LVU408
 1296 004e 012B     		cmp	r3, #1
 1297 0050 32D0     		beq	.L87
 1298              	.LVL79:
 1299              	.L85:
1259:Drivers/STM32F0xx_HAL_Driver/Src/stm32f0xx_hal_can.c ****       {
1260:Drivers/STM32F0xx_HAL_Driver/Src/stm32f0xx_hal_can.c ****         SET_BIT(hcan->Instance->sTxMailBox[transmitmailbox].TDTR, CAN_TDT0R_TGT);
1261:Drivers/STM32F0xx_HAL_Driver/Src/stm32f0xx_hal_can.c ****       }
1262:Drivers/STM32F0xx_HAL_Driver/Src/stm32f0xx_hal_can.c **** 
1263:Drivers/STM32F0xx_HAL_Driver/Src/stm32f0xx_hal_can.c ****       /* Set up the data field */
1264:Drivers/STM32F0xx_HAL_Driver/Src/stm32f0xx_hal_can.c ****       WRITE_REG(hcan->Instance->sTxMailBox[transmitmailbox].TDHR,
 1300              		.loc 1 1264 7 is_stmt 1 view .LVU409
 1301 0052 D379     		ldrb	r3, [r2, #7]
 1302 0054 1B06     		lsls	r3, r3, #24
 1303 0056 9179     		ldrb	r1, [r2, #6]
 1304 0058 0904     		lsls	r1, r1, #16
 1305 005a 0B43     		orrs	r3, r1
 1306 005c 5179     		ldrb	r1, [r2, #5]
 1307 005e 0902     		lsls	r1, r1, #8
 1308 0060 0B43     		orrs	r3, r1
 1309 0062 1579     		ldrb	r5, [r2, #4]
 1310 0064 0168     		ldr	r1, [r0]
 1311 0066 2B43     		orrs	r3, r5
 1312 0068 2501     		lsls	r5, r4, #4
 1313 006a 4919     		adds	r1, r1, r5
 1314 006c 8D31     		adds	r1, r1, #141
 1315 006e FF31     		adds	r1, r1, #255
 1316 0070 0B60     		str	r3, [r1]
1265:Drivers/STM32F0xx_HAL_Driver/Src/stm32f0xx_hal_can.c ****                 ((uint32_t)aData[7] << CAN_TDH0R_DATA7_Pos) |
1266:Drivers/STM32F0xx_HAL_Driver/Src/stm32f0xx_hal_can.c ****                 ((uint32_t)aData[6] << CAN_TDH0R_DATA6_Pos) |
1267:Drivers/STM32F0xx_HAL_Driver/Src/stm32f0xx_hal_can.c ****                 ((uint32_t)aData[5] << CAN_TDH0R_DATA5_Pos) |
1268:Drivers/STM32F0xx_HAL_Driver/Src/stm32f0xx_hal_can.c ****                 ((uint32_t)aData[4] << CAN_TDH0R_DATA4_Pos));
1269:Drivers/STM32F0xx_HAL_Driver/Src/stm32f0xx_hal_can.c ****       WRITE_REG(hcan->Instance->sTxMailBox[transmitmailbox].TDLR,
 1317              		.loc 1 1269 7 view .LVU410
 1318 0072 D378     		ldrb	r3, [r2, #3]
 1319 0074 1B06     		lsls	r3, r3, #24
 1320 0076 9178     		ldrb	r1, [r2, #2]
 1321 0078 0904     		lsls	r1, r1, #16
 1322 007a 0B43     		orrs	r3, r1
 1323 007c 5178     		ldrb	r1, [r2, #1]
 1324 007e 0902     		lsls	r1, r1, #8
 1325 0080 0B43     		orrs	r3, r1
 1326 0082 1178     		ldrb	r1, [r2]
 1327 0084 0268     		ldr	r2, [r0]
 1328              	.LVL80:
 1329              		.loc 1 1269 7 is_stmt 0 view .LVU411
 1330 0086 0B43     		orrs	r3, r1
 1331 0088 5219     		adds	r2, r2, r5
 1332 008a 8932     		adds	r2, r2, #137
 1333 008c FF32     		adds	r2, r2, #255
ARM GAS  C:\Users\xhex8\AppData\Local\Temp\ccvcBrdy.s 			page 51


 1334 008e 1360     		str	r3, [r2]
1270:Drivers/STM32F0xx_HAL_Driver/Src/stm32f0xx_hal_can.c ****                 ((uint32_t)aData[3] << CAN_TDL0R_DATA3_Pos) |
1271:Drivers/STM32F0xx_HAL_Driver/Src/stm32f0xx_hal_can.c ****                 ((uint32_t)aData[2] << CAN_TDL0R_DATA2_Pos) |
1272:Drivers/STM32F0xx_HAL_Driver/Src/stm32f0xx_hal_can.c ****                 ((uint32_t)aData[1] << CAN_TDL0R_DATA1_Pos) |
1273:Drivers/STM32F0xx_HAL_Driver/Src/stm32f0xx_hal_can.c ****                 ((uint32_t)aData[0] << CAN_TDL0R_DATA0_Pos));
1274:Drivers/STM32F0xx_HAL_Driver/Src/stm32f0xx_hal_can.c **** 
1275:Drivers/STM32F0xx_HAL_Driver/Src/stm32f0xx_hal_can.c ****       /* Request transmission */
1276:Drivers/STM32F0xx_HAL_Driver/Src/stm32f0xx_hal_can.c ****       SET_BIT(hcan->Instance->sTxMailBox[transmitmailbox].TIR, CAN_TI0R_TXRQ);
 1335              		.loc 1 1276 7 is_stmt 1 view .LVU412
 1336 0090 0268     		ldr	r2, [r0]
 1337 0092 1834     		adds	r4, r4, #24
 1338              	.LVL81:
 1339              		.loc 1 1276 7 is_stmt 0 view .LVU413
 1340 0094 2401     		lsls	r4, r4, #4
 1341              	.LVL82:
 1342              		.loc 1 1276 7 view .LVU414
 1343 0096 A358     		ldr	r3, [r4, r2]
 1344 0098 0121     		movs	r1, #1
 1345 009a 0B43     		orrs	r3, r1
 1346 009c A350     		str	r3, [r4, r2]
1277:Drivers/STM32F0xx_HAL_Driver/Src/stm32f0xx_hal_can.c **** 
1278:Drivers/STM32F0xx_HAL_Driver/Src/stm32f0xx_hal_can.c ****       /* Return function status */
1279:Drivers/STM32F0xx_HAL_Driver/Src/stm32f0xx_hal_can.c ****       return HAL_OK;
 1347              		.loc 1 1279 7 is_stmt 1 view .LVU415
 1348              		.loc 1 1279 14 is_stmt 0 view .LVU416
 1349 009e 0020     		movs	r0, #0
 1350              	.LVL83:
 1351              		.loc 1 1279 14 view .LVU417
 1352 00a0 1FE0     		b	.L86
 1353              	.LVL84:
 1354              	.L83:
1249:Drivers/STM32F0xx_HAL_Driver/Src/stm32f0xx_hal_can.c ****                                                            pHeader->IDE |
 1355              		.loc 1 1249 9 is_stmt 1 view .LVU418
1249:Drivers/STM32F0xx_HAL_Driver/Src/stm32f0xx_hal_can.c ****                                                            pHeader->IDE |
 1356              		.loc 1 1249 68 is_stmt 0 view .LVU419
 1357 00a2 4D68     		ldr	r5, [r1, #4]
1249:Drivers/STM32F0xx_HAL_Driver/Src/stm32f0xx_hal_can.c ****                                                            pHeader->IDE |
 1358              		.loc 1 1249 76 view .LVU420
 1359 00a4 ED00     		lsls	r5, r5, #3
1249:Drivers/STM32F0xx_HAL_Driver/Src/stm32f0xx_hal_can.c ****                                                            pHeader->IDE |
 1360              		.loc 1 1249 98 view .LVU421
 1361 00a6 2B43     		orrs	r3, r5
1251:Drivers/STM32F0xx_HAL_Driver/Src/stm32f0xx_hal_can.c ****       }
 1362              		.loc 1 1251 67 view .LVU422
 1363 00a8 CD68     		ldr	r5, [r1, #12]
1249:Drivers/STM32F0xx_HAL_Driver/Src/stm32f0xx_hal_can.c ****                                                            pHeader->IDE |
 1364              		.loc 1 1249 13 view .LVU423
 1365 00aa 0668     		ldr	r6, [r0]
1250:Drivers/STM32F0xx_HAL_Driver/Src/stm32f0xx_hal_can.c ****                                                            pHeader->RTR);
 1366              		.loc 1 1250 73 view .LVU424
 1367 00ac 2B43     		orrs	r3, r5
1249:Drivers/STM32F0xx_HAL_Driver/Src/stm32f0xx_hal_can.c ****                                                            pHeader->IDE |
 1368              		.loc 1 1249 57 view .LVU425
 1369 00ae 2500     		movs	r5, r4
 1370 00b0 1835     		adds	r5, r5, #24
 1371 00b2 2D01     		lsls	r5, r5, #4
 1372 00b4 AB51     		str	r3, [r5, r6]
ARM GAS  C:\Users\xhex8\AppData\Local\Temp\ccvcBrdy.s 			page 52


 1373 00b6 C2E7     		b	.L84
 1374              	.L87:
1260:Drivers/STM32F0xx_HAL_Driver/Src/stm32f0xx_hal_can.c ****       }
 1375              		.loc 1 1260 9 is_stmt 1 view .LVU426
 1376 00b8 0368     		ldr	r3, [r0]
 1377 00ba 5B19     		adds	r3, r3, r5
 1378 00bc 5D68     		ldr	r5, [r3, #4]
 1379 00be 8021     		movs	r1, #128
 1380              	.LVL85:
1260:Drivers/STM32F0xx_HAL_Driver/Src/stm32f0xx_hal_can.c ****       }
 1381              		.loc 1 1260 9 is_stmt 0 view .LVU427
 1382 00c0 4900     		lsls	r1, r1, #1
 1383 00c2 2943     		orrs	r1, r5
 1384 00c4 5960     		str	r1, [r3, #4]
 1385 00c6 C4E7     		b	.L85
 1386              	.LVL86:
 1387              	.L82:
1280:Drivers/STM32F0xx_HAL_Driver/Src/stm32f0xx_hal_can.c ****     }
1281:Drivers/STM32F0xx_HAL_Driver/Src/stm32f0xx_hal_can.c ****     else
1282:Drivers/STM32F0xx_HAL_Driver/Src/stm32f0xx_hal_can.c ****     {
1283:Drivers/STM32F0xx_HAL_Driver/Src/stm32f0xx_hal_can.c ****       /* Update error code */
1284:Drivers/STM32F0xx_HAL_Driver/Src/stm32f0xx_hal_can.c ****       hcan->ErrorCode |= HAL_CAN_ERROR_PARAM;
 1388              		.loc 1 1284 7 is_stmt 1 view .LVU428
 1389              		.loc 1 1284 11 is_stmt 0 view .LVU429
 1390 00c8 426A     		ldr	r2, [r0, #36]
 1391              	.LVL87:
 1392              		.loc 1 1284 23 view .LVU430
 1393 00ca 8023     		movs	r3, #128
 1394              	.LVL88:
 1395              		.loc 1 1284 23 view .LVU431
 1396 00cc 9B03     		lsls	r3, r3, #14
 1397 00ce 1343     		orrs	r3, r2
 1398 00d0 4362     		str	r3, [r0, #36]
1285:Drivers/STM32F0xx_HAL_Driver/Src/stm32f0xx_hal_can.c **** 
1286:Drivers/STM32F0xx_HAL_Driver/Src/stm32f0xx_hal_can.c ****       return HAL_ERROR;
 1399              		.loc 1 1286 7 is_stmt 1 view .LVU432
 1400              		.loc 1 1286 14 is_stmt 0 view .LVU433
 1401 00d2 0120     		movs	r0, #1
 1402              	.LVL89:
 1403              		.loc 1 1286 14 view .LVU434
 1404 00d4 05E0     		b	.L86
 1405              	.LVL90:
 1406              	.L81:
1287:Drivers/STM32F0xx_HAL_Driver/Src/stm32f0xx_hal_can.c ****     }
1288:Drivers/STM32F0xx_HAL_Driver/Src/stm32f0xx_hal_can.c ****   }
1289:Drivers/STM32F0xx_HAL_Driver/Src/stm32f0xx_hal_can.c ****   else
1290:Drivers/STM32F0xx_HAL_Driver/Src/stm32f0xx_hal_can.c ****   {
1291:Drivers/STM32F0xx_HAL_Driver/Src/stm32f0xx_hal_can.c ****     /* Update error code */
1292:Drivers/STM32F0xx_HAL_Driver/Src/stm32f0xx_hal_can.c ****     hcan->ErrorCode |= HAL_CAN_ERROR_NOT_INITIALIZED;
 1407              		.loc 1 1292 5 is_stmt 1 view .LVU435
 1408              		.loc 1 1292 9 is_stmt 0 view .LVU436
 1409 00d6 426A     		ldr	r2, [r0, #36]
 1410              	.LVL91:
 1411              		.loc 1 1292 21 view .LVU437
 1412 00d8 8023     		movs	r3, #128
 1413              	.LVL92:
 1414              		.loc 1 1292 21 view .LVU438
ARM GAS  C:\Users\xhex8\AppData\Local\Temp\ccvcBrdy.s 			page 53


 1415 00da DB02     		lsls	r3, r3, #11
 1416 00dc 1343     		orrs	r3, r2
 1417 00de 4362     		str	r3, [r0, #36]
1293:Drivers/STM32F0xx_HAL_Driver/Src/stm32f0xx_hal_can.c **** 
1294:Drivers/STM32F0xx_HAL_Driver/Src/stm32f0xx_hal_can.c ****     return HAL_ERROR;
 1418              		.loc 1 1294 5 is_stmt 1 view .LVU439
 1419              		.loc 1 1294 12 is_stmt 0 view .LVU440
 1420 00e0 0120     		movs	r0, #1
 1421              	.LVL93:
 1422              	.L86:
1295:Drivers/STM32F0xx_HAL_Driver/Src/stm32f0xx_hal_can.c ****   }
1296:Drivers/STM32F0xx_HAL_Driver/Src/stm32f0xx_hal_can.c **** }
 1423              		.loc 1 1296 1 view .LVU441
 1424              		@ sp needed
 1425 00e2 70BD     		pop	{r4, r5, r6, pc}
 1426              		.cfi_endproc
 1427              	.LFE50:
 1429              		.section	.text.HAL_CAN_AbortTxRequest,"ax",%progbits
 1430              		.align	1
 1431              		.global	HAL_CAN_AbortTxRequest
 1432              		.syntax unified
 1433              		.code	16
 1434              		.thumb_func
 1436              	HAL_CAN_AbortTxRequest:
 1437              	.LVL94:
 1438              	.LFB51:
1297:Drivers/STM32F0xx_HAL_Driver/Src/stm32f0xx_hal_can.c **** 
1298:Drivers/STM32F0xx_HAL_Driver/Src/stm32f0xx_hal_can.c **** /**
1299:Drivers/STM32F0xx_HAL_Driver/Src/stm32f0xx_hal_can.c ****   * @brief  Abort transmission requests
1300:Drivers/STM32F0xx_HAL_Driver/Src/stm32f0xx_hal_can.c ****   * @param  hcan pointer to an CAN_HandleTypeDef structure that contains
1301:Drivers/STM32F0xx_HAL_Driver/Src/stm32f0xx_hal_can.c ****   *         the configuration information for the specified CAN.
1302:Drivers/STM32F0xx_HAL_Driver/Src/stm32f0xx_hal_can.c ****   * @param  TxMailboxes List of the Tx Mailboxes to abort.
1303:Drivers/STM32F0xx_HAL_Driver/Src/stm32f0xx_hal_can.c ****   *         This parameter can be any combination of @arg CAN_Tx_Mailboxes.
1304:Drivers/STM32F0xx_HAL_Driver/Src/stm32f0xx_hal_can.c ****   * @retval HAL status
1305:Drivers/STM32F0xx_HAL_Driver/Src/stm32f0xx_hal_can.c ****   */
1306:Drivers/STM32F0xx_HAL_Driver/Src/stm32f0xx_hal_can.c **** HAL_StatusTypeDef HAL_CAN_AbortTxRequest(CAN_HandleTypeDef *hcan, uint32_t TxMailboxes)
1307:Drivers/STM32F0xx_HAL_Driver/Src/stm32f0xx_hal_can.c **** {
 1439              		.loc 1 1307 1 is_stmt 1 view -0
 1440              		.cfi_startproc
 1441              		@ args = 0, pretend = 0, frame = 0
 1442              		@ frame_needed = 0, uses_anonymous_args = 0
 1443              		.loc 1 1307 1 is_stmt 0 view .LVU443
 1444 0000 10B5     		push	{r4, lr}
 1445              		.cfi_def_cfa_offset 8
 1446              		.cfi_offset 4, -8
 1447              		.cfi_offset 14, -4
1308:Drivers/STM32F0xx_HAL_Driver/Src/stm32f0xx_hal_can.c ****   HAL_CAN_StateTypeDef state = hcan->State;
 1448              		.loc 1 1308 3 is_stmt 1 view .LVU444
 1449              		.loc 1 1308 24 is_stmt 0 view .LVU445
 1450 0002 2023     		movs	r3, #32
 1451 0004 C35C     		ldrb	r3, [r0, r3]
 1452              	.LVL95:
1309:Drivers/STM32F0xx_HAL_Driver/Src/stm32f0xx_hal_can.c **** 
1310:Drivers/STM32F0xx_HAL_Driver/Src/stm32f0xx_hal_can.c ****   /* Check function parameters */
1311:Drivers/STM32F0xx_HAL_Driver/Src/stm32f0xx_hal_can.c ****   assert_param(IS_CAN_TX_MAILBOX_LIST(TxMailboxes));
 1453              		.loc 1 1311 3 is_stmt 1 view .LVU446
1312:Drivers/STM32F0xx_HAL_Driver/Src/stm32f0xx_hal_can.c **** 
ARM GAS  C:\Users\xhex8\AppData\Local\Temp\ccvcBrdy.s 			page 54


1313:Drivers/STM32F0xx_HAL_Driver/Src/stm32f0xx_hal_can.c ****   if ((state == HAL_CAN_STATE_READY) ||
 1454              		.loc 1 1313 3 view .LVU447
 1455              		.loc 1 1313 38 is_stmt 0 view .LVU448
 1456 0006 013B     		subs	r3, r3, #1
 1457              	.LVL96:
 1458              		.loc 1 1313 38 view .LVU449
 1459 0008 DBB2     		uxtb	r3, r3
 1460              		.loc 1 1313 6 view .LVU450
 1461 000a 012B     		cmp	r3, #1
 1462 000c 06D9     		bls	.L97
1314:Drivers/STM32F0xx_HAL_Driver/Src/stm32f0xx_hal_can.c ****       (state == HAL_CAN_STATE_LISTENING))
1315:Drivers/STM32F0xx_HAL_Driver/Src/stm32f0xx_hal_can.c ****   {
1316:Drivers/STM32F0xx_HAL_Driver/Src/stm32f0xx_hal_can.c ****     /* Check Tx Mailbox 0 */
1317:Drivers/STM32F0xx_HAL_Driver/Src/stm32f0xx_hal_can.c ****     if ((TxMailboxes & CAN_TX_MAILBOX0) != 0U)
1318:Drivers/STM32F0xx_HAL_Driver/Src/stm32f0xx_hal_can.c ****     {
1319:Drivers/STM32F0xx_HAL_Driver/Src/stm32f0xx_hal_can.c ****       /* Add cancellation request for Tx Mailbox 0 */
1320:Drivers/STM32F0xx_HAL_Driver/Src/stm32f0xx_hal_can.c ****       SET_BIT(hcan->Instance->TSR, CAN_TSR_ABRQ0);
1321:Drivers/STM32F0xx_HAL_Driver/Src/stm32f0xx_hal_can.c ****     }
1322:Drivers/STM32F0xx_HAL_Driver/Src/stm32f0xx_hal_can.c **** 
1323:Drivers/STM32F0xx_HAL_Driver/Src/stm32f0xx_hal_can.c ****     /* Check Tx Mailbox 1 */
1324:Drivers/STM32F0xx_HAL_Driver/Src/stm32f0xx_hal_can.c ****     if ((TxMailboxes & CAN_TX_MAILBOX1) != 0U)
1325:Drivers/STM32F0xx_HAL_Driver/Src/stm32f0xx_hal_can.c ****     {
1326:Drivers/STM32F0xx_HAL_Driver/Src/stm32f0xx_hal_can.c ****       /* Add cancellation request for Tx Mailbox 1 */
1327:Drivers/STM32F0xx_HAL_Driver/Src/stm32f0xx_hal_can.c ****       SET_BIT(hcan->Instance->TSR, CAN_TSR_ABRQ1);
1328:Drivers/STM32F0xx_HAL_Driver/Src/stm32f0xx_hal_can.c ****     }
1329:Drivers/STM32F0xx_HAL_Driver/Src/stm32f0xx_hal_can.c **** 
1330:Drivers/STM32F0xx_HAL_Driver/Src/stm32f0xx_hal_can.c ****     /* Check Tx Mailbox 2 */
1331:Drivers/STM32F0xx_HAL_Driver/Src/stm32f0xx_hal_can.c ****     if ((TxMailboxes & CAN_TX_MAILBOX2) != 0U)
1332:Drivers/STM32F0xx_HAL_Driver/Src/stm32f0xx_hal_can.c ****     {
1333:Drivers/STM32F0xx_HAL_Driver/Src/stm32f0xx_hal_can.c ****       /* Add cancellation request for Tx Mailbox 2 */
1334:Drivers/STM32F0xx_HAL_Driver/Src/stm32f0xx_hal_can.c ****       SET_BIT(hcan->Instance->TSR, CAN_TSR_ABRQ2);
1335:Drivers/STM32F0xx_HAL_Driver/Src/stm32f0xx_hal_can.c ****     }
1336:Drivers/STM32F0xx_HAL_Driver/Src/stm32f0xx_hal_can.c **** 
1337:Drivers/STM32F0xx_HAL_Driver/Src/stm32f0xx_hal_can.c ****     /* Return function status */
1338:Drivers/STM32F0xx_HAL_Driver/Src/stm32f0xx_hal_can.c ****     return HAL_OK;
1339:Drivers/STM32F0xx_HAL_Driver/Src/stm32f0xx_hal_can.c ****   }
1340:Drivers/STM32F0xx_HAL_Driver/Src/stm32f0xx_hal_can.c ****   else
1341:Drivers/STM32F0xx_HAL_Driver/Src/stm32f0xx_hal_can.c ****   {
1342:Drivers/STM32F0xx_HAL_Driver/Src/stm32f0xx_hal_can.c ****     /* Update error code */
1343:Drivers/STM32F0xx_HAL_Driver/Src/stm32f0xx_hal_can.c ****     hcan->ErrorCode |= HAL_CAN_ERROR_NOT_INITIALIZED;
 1463              		.loc 1 1343 5 is_stmt 1 view .LVU451
 1464              		.loc 1 1343 9 is_stmt 0 view .LVU452
 1465 000e 426A     		ldr	r2, [r0, #36]
 1466              		.loc 1 1343 21 view .LVU453
 1467 0010 8023     		movs	r3, #128
 1468 0012 DB02     		lsls	r3, r3, #11
 1469 0014 1343     		orrs	r3, r2
 1470 0016 4362     		str	r3, [r0, #36]
1344:Drivers/STM32F0xx_HAL_Driver/Src/stm32f0xx_hal_can.c **** 
1345:Drivers/STM32F0xx_HAL_Driver/Src/stm32f0xx_hal_can.c ****     return HAL_ERROR;
 1471              		.loc 1 1345 5 is_stmt 1 view .LVU454
 1472              		.loc 1 1345 12 is_stmt 0 view .LVU455
 1473 0018 0120     		movs	r0, #1
 1474              	.LVL97:
 1475              	.L93:
1346:Drivers/STM32F0xx_HAL_Driver/Src/stm32f0xx_hal_can.c ****   }
1347:Drivers/STM32F0xx_HAL_Driver/Src/stm32f0xx_hal_can.c **** }
ARM GAS  C:\Users\xhex8\AppData\Local\Temp\ccvcBrdy.s 			page 55


 1476              		.loc 1 1347 1 view .LVU456
 1477              		@ sp needed
 1478 001a 10BD     		pop	{r4, pc}
 1479              	.LVL98:
 1480              	.L97:
1317:Drivers/STM32F0xx_HAL_Driver/Src/stm32f0xx_hal_can.c ****     {
 1481              		.loc 1 1317 5 is_stmt 1 view .LVU457
1317:Drivers/STM32F0xx_HAL_Driver/Src/stm32f0xx_hal_can.c ****     {
 1482              		.loc 1 1317 8 is_stmt 0 view .LVU458
 1483 001c CB07     		lsls	r3, r1, #31
 1484 001e 04D5     		bpl	.L90
1320:Drivers/STM32F0xx_HAL_Driver/Src/stm32f0xx_hal_can.c ****     }
 1485              		.loc 1 1320 7 is_stmt 1 view .LVU459
 1486 0020 0268     		ldr	r2, [r0]
 1487 0022 9368     		ldr	r3, [r2, #8]
 1488 0024 8024     		movs	r4, #128
 1489 0026 2343     		orrs	r3, r4
 1490 0028 9360     		str	r3, [r2, #8]
 1491              	.L90:
1324:Drivers/STM32F0xx_HAL_Driver/Src/stm32f0xx_hal_can.c ****     {
 1492              		.loc 1 1324 5 view .LVU460
1324:Drivers/STM32F0xx_HAL_Driver/Src/stm32f0xx_hal_can.c ****     {
 1493              		.loc 1 1324 8 is_stmt 0 view .LVU461
 1494 002a 8B07     		lsls	r3, r1, #30
 1495 002c 05D5     		bpl	.L91
1327:Drivers/STM32F0xx_HAL_Driver/Src/stm32f0xx_hal_can.c ****     }
 1496              		.loc 1 1327 7 is_stmt 1 view .LVU462
 1497 002e 0268     		ldr	r2, [r0]
 1498 0030 9468     		ldr	r4, [r2, #8]
 1499 0032 8023     		movs	r3, #128
 1500 0034 1B02     		lsls	r3, r3, #8
 1501 0036 2343     		orrs	r3, r4
 1502 0038 9360     		str	r3, [r2, #8]
 1503              	.L91:
1331:Drivers/STM32F0xx_HAL_Driver/Src/stm32f0xx_hal_can.c ****     {
 1504              		.loc 1 1331 5 view .LVU463
1331:Drivers/STM32F0xx_HAL_Driver/Src/stm32f0xx_hal_can.c ****     {
 1505              		.loc 1 1331 8 is_stmt 0 view .LVU464
 1506 003a 4907     		lsls	r1, r1, #29
 1507 003c 05D5     		bpl	.L92
 1508              	.LVL99:
1334:Drivers/STM32F0xx_HAL_Driver/Src/stm32f0xx_hal_can.c ****     }
 1509              		.loc 1 1334 7 is_stmt 1 view .LVU465
 1510 003e 0268     		ldr	r2, [r0]
 1511 0040 9168     		ldr	r1, [r2, #8]
 1512 0042 8023     		movs	r3, #128
 1513 0044 1B04     		lsls	r3, r3, #16
 1514 0046 0B43     		orrs	r3, r1
 1515 0048 9360     		str	r3, [r2, #8]
 1516              	.L92:
1338:Drivers/STM32F0xx_HAL_Driver/Src/stm32f0xx_hal_can.c ****   }
 1517              		.loc 1 1338 5 view .LVU466
1338:Drivers/STM32F0xx_HAL_Driver/Src/stm32f0xx_hal_can.c ****   }
 1518              		.loc 1 1338 12 is_stmt 0 view .LVU467
 1519 004a 0020     		movs	r0, #0
 1520              	.LVL100:
1338:Drivers/STM32F0xx_HAL_Driver/Src/stm32f0xx_hal_can.c ****   }
ARM GAS  C:\Users\xhex8\AppData\Local\Temp\ccvcBrdy.s 			page 56


 1521              		.loc 1 1338 12 view .LVU468
 1522 004c E5E7     		b	.L93
 1523              		.cfi_endproc
 1524              	.LFE51:
 1526              		.section	.text.HAL_CAN_GetTxMailboxesFreeLevel,"ax",%progbits
 1527              		.align	1
 1528              		.global	HAL_CAN_GetTxMailboxesFreeLevel
 1529              		.syntax unified
 1530              		.code	16
 1531              		.thumb_func
 1533              	HAL_CAN_GetTxMailboxesFreeLevel:
 1534              	.LVL101:
 1535              	.LFB52:
1348:Drivers/STM32F0xx_HAL_Driver/Src/stm32f0xx_hal_can.c **** 
1349:Drivers/STM32F0xx_HAL_Driver/Src/stm32f0xx_hal_can.c **** /**
1350:Drivers/STM32F0xx_HAL_Driver/Src/stm32f0xx_hal_can.c ****   * @brief  Return Tx Mailboxes free level: number of free Tx Mailboxes.
1351:Drivers/STM32F0xx_HAL_Driver/Src/stm32f0xx_hal_can.c ****   * @param  hcan pointer to a CAN_HandleTypeDef structure that contains
1352:Drivers/STM32F0xx_HAL_Driver/Src/stm32f0xx_hal_can.c ****   *         the configuration information for the specified CAN.
1353:Drivers/STM32F0xx_HAL_Driver/Src/stm32f0xx_hal_can.c ****   * @retval Number of free Tx Mailboxes.
1354:Drivers/STM32F0xx_HAL_Driver/Src/stm32f0xx_hal_can.c ****   */
1355:Drivers/STM32F0xx_HAL_Driver/Src/stm32f0xx_hal_can.c **** uint32_t HAL_CAN_GetTxMailboxesFreeLevel(const CAN_HandleTypeDef *hcan)
1356:Drivers/STM32F0xx_HAL_Driver/Src/stm32f0xx_hal_can.c **** {
 1536              		.loc 1 1356 1 is_stmt 1 view -0
 1537              		.cfi_startproc
 1538              		@ args = 0, pretend = 0, frame = 0
 1539              		@ frame_needed = 0, uses_anonymous_args = 0
 1540              		@ link register save eliminated.
1357:Drivers/STM32F0xx_HAL_Driver/Src/stm32f0xx_hal_can.c ****   uint32_t freelevel = 0U;
 1541              		.loc 1 1357 3 view .LVU470
1358:Drivers/STM32F0xx_HAL_Driver/Src/stm32f0xx_hal_can.c ****   HAL_CAN_StateTypeDef state = hcan->State;
 1542              		.loc 1 1358 3 view .LVU471
 1543              		.loc 1 1358 24 is_stmt 0 view .LVU472
 1544 0000 2023     		movs	r3, #32
 1545 0002 C35C     		ldrb	r3, [r0, r3]
 1546              	.LVL102:
1359:Drivers/STM32F0xx_HAL_Driver/Src/stm32f0xx_hal_can.c **** 
1360:Drivers/STM32F0xx_HAL_Driver/Src/stm32f0xx_hal_can.c ****   if ((state == HAL_CAN_STATE_READY) ||
 1547              		.loc 1 1360 3 is_stmt 1 view .LVU473
 1548              		.loc 1 1360 38 is_stmt 0 view .LVU474
 1549 0004 013B     		subs	r3, r3, #1
 1550              	.LVL103:
 1551              		.loc 1 1360 38 view .LVU475
 1552 0006 DBB2     		uxtb	r3, r3
 1553              		.loc 1 1360 6 view .LVU476
 1554 0008 012B     		cmp	r3, #1
 1555 000a 01D9     		bls	.L106
1357:Drivers/STM32F0xx_HAL_Driver/Src/stm32f0xx_hal_can.c ****   HAL_CAN_StateTypeDef state = hcan->State;
 1556              		.loc 1 1357 12 view .LVU477
 1557 000c 0020     		movs	r0, #0
 1558              	.LVL104:
1361:Drivers/STM32F0xx_HAL_Driver/Src/stm32f0xx_hal_can.c ****       (state == HAL_CAN_STATE_LISTENING))
1362:Drivers/STM32F0xx_HAL_Driver/Src/stm32f0xx_hal_can.c ****   {
1363:Drivers/STM32F0xx_HAL_Driver/Src/stm32f0xx_hal_can.c ****     /* Check Tx Mailbox 0 status */
1364:Drivers/STM32F0xx_HAL_Driver/Src/stm32f0xx_hal_can.c ****     if ((hcan->Instance->TSR & CAN_TSR_TME0) != 0U)
1365:Drivers/STM32F0xx_HAL_Driver/Src/stm32f0xx_hal_can.c ****     {
1366:Drivers/STM32F0xx_HAL_Driver/Src/stm32f0xx_hal_can.c ****       freelevel++;
1367:Drivers/STM32F0xx_HAL_Driver/Src/stm32f0xx_hal_can.c ****     }
ARM GAS  C:\Users\xhex8\AppData\Local\Temp\ccvcBrdy.s 			page 57


1368:Drivers/STM32F0xx_HAL_Driver/Src/stm32f0xx_hal_can.c **** 
1369:Drivers/STM32F0xx_HAL_Driver/Src/stm32f0xx_hal_can.c ****     /* Check Tx Mailbox 1 status */
1370:Drivers/STM32F0xx_HAL_Driver/Src/stm32f0xx_hal_can.c ****     if ((hcan->Instance->TSR & CAN_TSR_TME1) != 0U)
1371:Drivers/STM32F0xx_HAL_Driver/Src/stm32f0xx_hal_can.c ****     {
1372:Drivers/STM32F0xx_HAL_Driver/Src/stm32f0xx_hal_can.c ****       freelevel++;
1373:Drivers/STM32F0xx_HAL_Driver/Src/stm32f0xx_hal_can.c ****     }
1374:Drivers/STM32F0xx_HAL_Driver/Src/stm32f0xx_hal_can.c **** 
1375:Drivers/STM32F0xx_HAL_Driver/Src/stm32f0xx_hal_can.c ****     /* Check Tx Mailbox 2 status */
1376:Drivers/STM32F0xx_HAL_Driver/Src/stm32f0xx_hal_can.c ****     if ((hcan->Instance->TSR & CAN_TSR_TME2) != 0U)
1377:Drivers/STM32F0xx_HAL_Driver/Src/stm32f0xx_hal_can.c ****     {
1378:Drivers/STM32F0xx_HAL_Driver/Src/stm32f0xx_hal_can.c ****       freelevel++;
1379:Drivers/STM32F0xx_HAL_Driver/Src/stm32f0xx_hal_can.c ****     }
1380:Drivers/STM32F0xx_HAL_Driver/Src/stm32f0xx_hal_can.c ****   }
1381:Drivers/STM32F0xx_HAL_Driver/Src/stm32f0xx_hal_can.c **** 
1382:Drivers/STM32F0xx_HAL_Driver/Src/stm32f0xx_hal_can.c ****   /* Return Tx Mailboxes free level */
1383:Drivers/STM32F0xx_HAL_Driver/Src/stm32f0xx_hal_can.c ****   return freelevel;
 1559              		.loc 1 1383 3 is_stmt 1 view .LVU478
 1560              	.L98:
1384:Drivers/STM32F0xx_HAL_Driver/Src/stm32f0xx_hal_can.c **** }
 1561              		.loc 1 1384 1 is_stmt 0 view .LVU479
 1562              		@ sp needed
 1563 000e 7047     		bx	lr
 1564              	.LVL105:
 1565              	.L106:
1364:Drivers/STM32F0xx_HAL_Driver/Src/stm32f0xx_hal_can.c ****     {
 1566              		.loc 1 1364 5 is_stmt 1 view .LVU480
1364:Drivers/STM32F0xx_HAL_Driver/Src/stm32f0xx_hal_can.c ****     {
 1567              		.loc 1 1364 14 is_stmt 0 view .LVU481
 1568 0010 0368     		ldr	r3, [r0]
1364:Drivers/STM32F0xx_HAL_Driver/Src/stm32f0xx_hal_can.c ****     {
 1569              		.loc 1 1364 24 view .LVU482
 1570 0012 9968     		ldr	r1, [r3, #8]
1364:Drivers/STM32F0xx_HAL_Driver/Src/stm32f0xx_hal_can.c ****     {
 1571              		.loc 1 1364 30 view .LVU483
 1572 0014 8022     		movs	r2, #128
 1573 0016 D204     		lsls	r2, r2, #19
 1574 0018 0800     		movs	r0, r1
 1575              	.LVL106:
1364:Drivers/STM32F0xx_HAL_Driver/Src/stm32f0xx_hal_can.c ****     {
 1576              		.loc 1 1364 30 view .LVU484
 1577 001a 1040     		ands	r0, r2
1364:Drivers/STM32F0xx_HAL_Driver/Src/stm32f0xx_hal_can.c ****     {
 1578              		.loc 1 1364 8 view .LVU485
 1579 001c 1142     		tst	r1, r2
 1580 001e 00D0     		beq	.L100
1366:Drivers/STM32F0xx_HAL_Driver/Src/stm32f0xx_hal_can.c ****     }
 1581              		.loc 1 1366 16 view .LVU486
 1582 0020 0120     		movs	r0, #1
 1583              	.L100:
 1584              	.LVL107:
1370:Drivers/STM32F0xx_HAL_Driver/Src/stm32f0xx_hal_can.c ****     {
 1585              		.loc 1 1370 5 is_stmt 1 view .LVU487
1370:Drivers/STM32F0xx_HAL_Driver/Src/stm32f0xx_hal_can.c ****     {
 1586              		.loc 1 1370 24 is_stmt 0 view .LVU488
 1587 0022 9A68     		ldr	r2, [r3, #8]
1370:Drivers/STM32F0xx_HAL_Driver/Src/stm32f0xx_hal_can.c ****     {
 1588              		.loc 1 1370 8 view .LVU489
ARM GAS  C:\Users\xhex8\AppData\Local\Temp\ccvcBrdy.s 			page 58


 1589 0024 1201     		lsls	r2, r2, #4
 1590 0026 00D5     		bpl	.L101
1372:Drivers/STM32F0xx_HAL_Driver/Src/stm32f0xx_hal_can.c ****     }
 1591              		.loc 1 1372 7 is_stmt 1 view .LVU490
1372:Drivers/STM32F0xx_HAL_Driver/Src/stm32f0xx_hal_can.c ****     }
 1592              		.loc 1 1372 16 is_stmt 0 view .LVU491
 1593 0028 0130     		adds	r0, r0, #1
 1594              	.LVL108:
 1595              	.L101:
1376:Drivers/STM32F0xx_HAL_Driver/Src/stm32f0xx_hal_can.c ****     {
 1596              		.loc 1 1376 5 is_stmt 1 view .LVU492
1376:Drivers/STM32F0xx_HAL_Driver/Src/stm32f0xx_hal_can.c ****     {
 1597              		.loc 1 1376 24 is_stmt 0 view .LVU493
 1598 002a 9B68     		ldr	r3, [r3, #8]
1376:Drivers/STM32F0xx_HAL_Driver/Src/stm32f0xx_hal_can.c ****     {
 1599              		.loc 1 1376 8 view .LVU494
 1600 002c DB00     		lsls	r3, r3, #3
 1601 002e EED5     		bpl	.L98
1378:Drivers/STM32F0xx_HAL_Driver/Src/stm32f0xx_hal_can.c ****     }
 1602              		.loc 1 1378 7 is_stmt 1 view .LVU495
1378:Drivers/STM32F0xx_HAL_Driver/Src/stm32f0xx_hal_can.c ****     }
 1603              		.loc 1 1378 16 is_stmt 0 view .LVU496
 1604 0030 0130     		adds	r0, r0, #1
 1605              	.LVL109:
1378:Drivers/STM32F0xx_HAL_Driver/Src/stm32f0xx_hal_can.c ****     }
 1606              		.loc 1 1378 16 view .LVU497
 1607 0032 ECE7     		b	.L98
 1608              		.cfi_endproc
 1609              	.LFE52:
 1611              		.section	.text.HAL_CAN_IsTxMessagePending,"ax",%progbits
 1612              		.align	1
 1613              		.global	HAL_CAN_IsTxMessagePending
 1614              		.syntax unified
 1615              		.code	16
 1616              		.thumb_func
 1618              	HAL_CAN_IsTxMessagePending:
 1619              	.LVL110:
 1620              	.LFB53:
1385:Drivers/STM32F0xx_HAL_Driver/Src/stm32f0xx_hal_can.c **** 
1386:Drivers/STM32F0xx_HAL_Driver/Src/stm32f0xx_hal_can.c **** /**
1387:Drivers/STM32F0xx_HAL_Driver/Src/stm32f0xx_hal_can.c ****   * @brief  Check if a transmission request is pending on the selected Tx
1388:Drivers/STM32F0xx_HAL_Driver/Src/stm32f0xx_hal_can.c ****   *         Mailboxes.
1389:Drivers/STM32F0xx_HAL_Driver/Src/stm32f0xx_hal_can.c ****   * @param  hcan pointer to an CAN_HandleTypeDef structure that contains
1390:Drivers/STM32F0xx_HAL_Driver/Src/stm32f0xx_hal_can.c ****   *         the configuration information for the specified CAN.
1391:Drivers/STM32F0xx_HAL_Driver/Src/stm32f0xx_hal_can.c ****   * @param  TxMailboxes List of Tx Mailboxes to check.
1392:Drivers/STM32F0xx_HAL_Driver/Src/stm32f0xx_hal_can.c ****   *         This parameter can be any combination of @arg CAN_Tx_Mailboxes.
1393:Drivers/STM32F0xx_HAL_Driver/Src/stm32f0xx_hal_can.c ****   * @retval Status
1394:Drivers/STM32F0xx_HAL_Driver/Src/stm32f0xx_hal_can.c ****   *          - 0 : No pending transmission request on any selected Tx Mailboxes.
1395:Drivers/STM32F0xx_HAL_Driver/Src/stm32f0xx_hal_can.c ****   *          - 1 : Pending transmission request on at least one of the selected
1396:Drivers/STM32F0xx_HAL_Driver/Src/stm32f0xx_hal_can.c ****   *                Tx Mailbox.
1397:Drivers/STM32F0xx_HAL_Driver/Src/stm32f0xx_hal_can.c ****   */
1398:Drivers/STM32F0xx_HAL_Driver/Src/stm32f0xx_hal_can.c **** uint32_t HAL_CAN_IsTxMessagePending(const CAN_HandleTypeDef *hcan, uint32_t TxMailboxes)
1399:Drivers/STM32F0xx_HAL_Driver/Src/stm32f0xx_hal_can.c **** {
 1621              		.loc 1 1399 1 is_stmt 1 view -0
 1622              		.cfi_startproc
 1623              		@ args = 0, pretend = 0, frame = 0
 1624              		@ frame_needed = 0, uses_anonymous_args = 0
ARM GAS  C:\Users\xhex8\AppData\Local\Temp\ccvcBrdy.s 			page 59


 1625              		@ link register save eliminated.
1400:Drivers/STM32F0xx_HAL_Driver/Src/stm32f0xx_hal_can.c ****   uint32_t status = 0U;
 1626              		.loc 1 1400 3 view .LVU499
1401:Drivers/STM32F0xx_HAL_Driver/Src/stm32f0xx_hal_can.c ****   HAL_CAN_StateTypeDef state = hcan->State;
 1627              		.loc 1 1401 3 view .LVU500
 1628              		.loc 1 1401 24 is_stmt 0 view .LVU501
 1629 0000 2023     		movs	r3, #32
 1630 0002 C35C     		ldrb	r3, [r0, r3]
 1631              	.LVL111:
1402:Drivers/STM32F0xx_HAL_Driver/Src/stm32f0xx_hal_can.c **** 
1403:Drivers/STM32F0xx_HAL_Driver/Src/stm32f0xx_hal_can.c ****   /* Check function parameters */
1404:Drivers/STM32F0xx_HAL_Driver/Src/stm32f0xx_hal_can.c ****   assert_param(IS_CAN_TX_MAILBOX_LIST(TxMailboxes));
 1632              		.loc 1 1404 3 is_stmt 1 view .LVU502
1405:Drivers/STM32F0xx_HAL_Driver/Src/stm32f0xx_hal_can.c **** 
1406:Drivers/STM32F0xx_HAL_Driver/Src/stm32f0xx_hal_can.c ****   if ((state == HAL_CAN_STATE_READY) ||
 1633              		.loc 1 1406 3 view .LVU503
 1634              		.loc 1 1406 38 is_stmt 0 view .LVU504
 1635 0004 013B     		subs	r3, r3, #1
 1636              	.LVL112:
 1637              		.loc 1 1406 38 view .LVU505
 1638 0006 DBB2     		uxtb	r3, r3
 1639              		.loc 1 1406 6 view .LVU506
 1640 0008 012B     		cmp	r3, #1
 1641 000a 01D9     		bls	.L111
1400:Drivers/STM32F0xx_HAL_Driver/Src/stm32f0xx_hal_can.c ****   HAL_CAN_StateTypeDef state = hcan->State;
 1642              		.loc 1 1400 12 view .LVU507
 1643 000c 0020     		movs	r0, #0
 1644              	.LVL113:
 1645              	.L107:
1407:Drivers/STM32F0xx_HAL_Driver/Src/stm32f0xx_hal_can.c ****       (state == HAL_CAN_STATE_LISTENING))
1408:Drivers/STM32F0xx_HAL_Driver/Src/stm32f0xx_hal_can.c ****   {
1409:Drivers/STM32F0xx_HAL_Driver/Src/stm32f0xx_hal_can.c ****     /* Check pending transmission request on the selected Tx Mailboxes */
1410:Drivers/STM32F0xx_HAL_Driver/Src/stm32f0xx_hal_can.c ****     if ((hcan->Instance->TSR & (TxMailboxes << CAN_TSR_TME0_Pos)) != (TxMailboxes << CAN_TSR_TME0_P
1411:Drivers/STM32F0xx_HAL_Driver/Src/stm32f0xx_hal_can.c ****     {
1412:Drivers/STM32F0xx_HAL_Driver/Src/stm32f0xx_hal_can.c ****       status = 1U;
1413:Drivers/STM32F0xx_HAL_Driver/Src/stm32f0xx_hal_can.c ****     }
1414:Drivers/STM32F0xx_HAL_Driver/Src/stm32f0xx_hal_can.c ****   }
1415:Drivers/STM32F0xx_HAL_Driver/Src/stm32f0xx_hal_can.c **** 
1416:Drivers/STM32F0xx_HAL_Driver/Src/stm32f0xx_hal_can.c ****   /* Return status */
1417:Drivers/STM32F0xx_HAL_Driver/Src/stm32f0xx_hal_can.c ****   return status;
1418:Drivers/STM32F0xx_HAL_Driver/Src/stm32f0xx_hal_can.c **** }
 1646              		.loc 1 1418 1 view .LVU508
 1647              		@ sp needed
 1648 000e 7047     		bx	lr
 1649              	.LVL114:
 1650              	.L111:
1410:Drivers/STM32F0xx_HAL_Driver/Src/stm32f0xx_hal_can.c ****     {
 1651              		.loc 1 1410 5 is_stmt 1 view .LVU509
1410:Drivers/STM32F0xx_HAL_Driver/Src/stm32f0xx_hal_can.c ****     {
 1652              		.loc 1 1410 14 is_stmt 0 view .LVU510
 1653 0010 0368     		ldr	r3, [r0]
1410:Drivers/STM32F0xx_HAL_Driver/Src/stm32f0xx_hal_can.c ****     {
 1654              		.loc 1 1410 24 view .LVU511
 1655 0012 9B68     		ldr	r3, [r3, #8]
1410:Drivers/STM32F0xx_HAL_Driver/Src/stm32f0xx_hal_can.c ****     {
 1656              		.loc 1 1410 45 view .LVU512
 1657 0014 8906     		lsls	r1, r1, #26
ARM GAS  C:\Users\xhex8\AppData\Local\Temp\ccvcBrdy.s 			page 60


 1658              	.LVL115:
1410:Drivers/STM32F0xx_HAL_Driver/Src/stm32f0xx_hal_can.c ****     {
 1659              		.loc 1 1410 30 view .LVU513
 1660 0016 0B40     		ands	r3, r1
1410:Drivers/STM32F0xx_HAL_Driver/Src/stm32f0xx_hal_can.c ****     {
 1661              		.loc 1 1410 8 view .LVU514
 1662 0018 9942     		cmp	r1, r3
 1663 001a 01D0     		beq	.L112
1412:Drivers/STM32F0xx_HAL_Driver/Src/stm32f0xx_hal_can.c ****     }
 1664              		.loc 1 1412 14 view .LVU515
 1665 001c 0120     		movs	r0, #1
 1666              	.LVL116:
1417:Drivers/STM32F0xx_HAL_Driver/Src/stm32f0xx_hal_can.c **** }
 1667              		.loc 1 1417 3 is_stmt 1 view .LVU516
1417:Drivers/STM32F0xx_HAL_Driver/Src/stm32f0xx_hal_can.c **** }
 1668              		.loc 1 1417 10 is_stmt 0 view .LVU517
 1669 001e F6E7     		b	.L107
 1670              	.LVL117:
 1671              	.L112:
1400:Drivers/STM32F0xx_HAL_Driver/Src/stm32f0xx_hal_can.c ****   HAL_CAN_StateTypeDef state = hcan->State;
 1672              		.loc 1 1400 12 view .LVU518
 1673 0020 0020     		movs	r0, #0
 1674              	.LVL118:
1400:Drivers/STM32F0xx_HAL_Driver/Src/stm32f0xx_hal_can.c ****   HAL_CAN_StateTypeDef state = hcan->State;
 1675              		.loc 1 1400 12 view .LVU519
 1676 0022 F4E7     		b	.L107
 1677              		.cfi_endproc
 1678              	.LFE53:
 1680              		.section	.text.HAL_CAN_GetTxTimestamp,"ax",%progbits
 1681              		.align	1
 1682              		.global	HAL_CAN_GetTxTimestamp
 1683              		.syntax unified
 1684              		.code	16
 1685              		.thumb_func
 1687              	HAL_CAN_GetTxTimestamp:
 1688              	.LVL119:
 1689              	.LFB54:
1419:Drivers/STM32F0xx_HAL_Driver/Src/stm32f0xx_hal_can.c **** 
1420:Drivers/STM32F0xx_HAL_Driver/Src/stm32f0xx_hal_can.c **** /**
1421:Drivers/STM32F0xx_HAL_Driver/Src/stm32f0xx_hal_can.c ****   * @brief  Return timestamp of Tx message sent, if time triggered communication
1422:Drivers/STM32F0xx_HAL_Driver/Src/stm32f0xx_hal_can.c ****             mode is enabled.
1423:Drivers/STM32F0xx_HAL_Driver/Src/stm32f0xx_hal_can.c ****   * @param  hcan pointer to a CAN_HandleTypeDef structure that contains
1424:Drivers/STM32F0xx_HAL_Driver/Src/stm32f0xx_hal_can.c ****   *         the configuration information for the specified CAN.
1425:Drivers/STM32F0xx_HAL_Driver/Src/stm32f0xx_hal_can.c ****   * @param  TxMailbox Tx Mailbox where the timestamp of message sent will be
1426:Drivers/STM32F0xx_HAL_Driver/Src/stm32f0xx_hal_can.c ****   *         read.
1427:Drivers/STM32F0xx_HAL_Driver/Src/stm32f0xx_hal_can.c ****   *         This parameter can be one value of @arg CAN_Tx_Mailboxes.
1428:Drivers/STM32F0xx_HAL_Driver/Src/stm32f0xx_hal_can.c ****   * @retval Timestamp of message sent from Tx Mailbox.
1429:Drivers/STM32F0xx_HAL_Driver/Src/stm32f0xx_hal_can.c ****   */
1430:Drivers/STM32F0xx_HAL_Driver/Src/stm32f0xx_hal_can.c **** uint32_t HAL_CAN_GetTxTimestamp(const CAN_HandleTypeDef *hcan, uint32_t TxMailbox)
1431:Drivers/STM32F0xx_HAL_Driver/Src/stm32f0xx_hal_can.c **** {
 1690              		.loc 1 1431 1 is_stmt 1 view -0
 1691              		.cfi_startproc
 1692              		@ args = 0, pretend = 0, frame = 0
 1693              		@ frame_needed = 0, uses_anonymous_args = 0
 1694              		@ link register save eliminated.
1432:Drivers/STM32F0xx_HAL_Driver/Src/stm32f0xx_hal_can.c ****   uint32_t timestamp = 0U;
 1695              		.loc 1 1432 3 view .LVU521
ARM GAS  C:\Users\xhex8\AppData\Local\Temp\ccvcBrdy.s 			page 61


1433:Drivers/STM32F0xx_HAL_Driver/Src/stm32f0xx_hal_can.c ****   uint32_t transmitmailbox;
 1696              		.loc 1 1433 3 view .LVU522
1434:Drivers/STM32F0xx_HAL_Driver/Src/stm32f0xx_hal_can.c ****   HAL_CAN_StateTypeDef state = hcan->State;
 1697              		.loc 1 1434 3 view .LVU523
 1698              		.loc 1 1434 24 is_stmt 0 view .LVU524
 1699 0000 2023     		movs	r3, #32
 1700 0002 C35C     		ldrb	r3, [r0, r3]
 1701              	.LVL120:
1435:Drivers/STM32F0xx_HAL_Driver/Src/stm32f0xx_hal_can.c **** 
1436:Drivers/STM32F0xx_HAL_Driver/Src/stm32f0xx_hal_can.c ****   /* Check function parameters */
1437:Drivers/STM32F0xx_HAL_Driver/Src/stm32f0xx_hal_can.c ****   assert_param(IS_CAN_TX_MAILBOX(TxMailbox));
 1702              		.loc 1 1437 3 is_stmt 1 view .LVU525
1438:Drivers/STM32F0xx_HAL_Driver/Src/stm32f0xx_hal_can.c **** 
1439:Drivers/STM32F0xx_HAL_Driver/Src/stm32f0xx_hal_can.c ****   if ((state == HAL_CAN_STATE_READY) ||
 1703              		.loc 1 1439 3 view .LVU526
 1704              		.loc 1 1439 38 is_stmt 0 view .LVU527
 1705 0004 013B     		subs	r3, r3, #1
 1706              	.LVL121:
 1707              		.loc 1 1439 38 view .LVU528
 1708 0006 DBB2     		uxtb	r3, r3
 1709              		.loc 1 1439 6 view .LVU529
 1710 0008 012B     		cmp	r3, #1
 1711 000a 01D9     		bls	.L119
1432:Drivers/STM32F0xx_HAL_Driver/Src/stm32f0xx_hal_can.c ****   uint32_t transmitmailbox;
 1712              		.loc 1 1432 12 view .LVU530
 1713 000c 0020     		movs	r0, #0
 1714              	.LVL122:
1440:Drivers/STM32F0xx_HAL_Driver/Src/stm32f0xx_hal_can.c ****       (state == HAL_CAN_STATE_LISTENING))
1441:Drivers/STM32F0xx_HAL_Driver/Src/stm32f0xx_hal_can.c ****   {
1442:Drivers/STM32F0xx_HAL_Driver/Src/stm32f0xx_hal_can.c ****     /* Select the Tx mailbox */
1443:Drivers/STM32F0xx_HAL_Driver/Src/stm32f0xx_hal_can.c ****     /* Select the Tx mailbox */
1444:Drivers/STM32F0xx_HAL_Driver/Src/stm32f0xx_hal_can.c ****     if (TxMailbox == CAN_TX_MAILBOX0)
1445:Drivers/STM32F0xx_HAL_Driver/Src/stm32f0xx_hal_can.c ****     {
1446:Drivers/STM32F0xx_HAL_Driver/Src/stm32f0xx_hal_can.c ****       transmitmailbox = 0U;
1447:Drivers/STM32F0xx_HAL_Driver/Src/stm32f0xx_hal_can.c ****     }
1448:Drivers/STM32F0xx_HAL_Driver/Src/stm32f0xx_hal_can.c ****     else if (TxMailbox == CAN_TX_MAILBOX1)
1449:Drivers/STM32F0xx_HAL_Driver/Src/stm32f0xx_hal_can.c ****     {
1450:Drivers/STM32F0xx_HAL_Driver/Src/stm32f0xx_hal_can.c ****       transmitmailbox = 1U;
1451:Drivers/STM32F0xx_HAL_Driver/Src/stm32f0xx_hal_can.c ****     }
1452:Drivers/STM32F0xx_HAL_Driver/Src/stm32f0xx_hal_can.c ****     else /* (TxMailbox == CAN_TX_MAILBOX2) */
1453:Drivers/STM32F0xx_HAL_Driver/Src/stm32f0xx_hal_can.c ****     {
1454:Drivers/STM32F0xx_HAL_Driver/Src/stm32f0xx_hal_can.c ****       transmitmailbox = 2U;
1455:Drivers/STM32F0xx_HAL_Driver/Src/stm32f0xx_hal_can.c ****     }
1456:Drivers/STM32F0xx_HAL_Driver/Src/stm32f0xx_hal_can.c **** 
1457:Drivers/STM32F0xx_HAL_Driver/Src/stm32f0xx_hal_can.c ****     /* Get timestamp */
1458:Drivers/STM32F0xx_HAL_Driver/Src/stm32f0xx_hal_can.c ****     timestamp = (hcan->Instance->sTxMailBox[transmitmailbox].TDTR & CAN_TDT0R_TIME) >> CAN_TDT0R_TI
1459:Drivers/STM32F0xx_HAL_Driver/Src/stm32f0xx_hal_can.c ****   }
1460:Drivers/STM32F0xx_HAL_Driver/Src/stm32f0xx_hal_can.c **** 
1461:Drivers/STM32F0xx_HAL_Driver/Src/stm32f0xx_hal_can.c ****   /* Return the timestamp */
1462:Drivers/STM32F0xx_HAL_Driver/Src/stm32f0xx_hal_can.c ****   return timestamp;
 1715              		.loc 1 1462 3 is_stmt 1 view .LVU531
 1716              	.L113:
1463:Drivers/STM32F0xx_HAL_Driver/Src/stm32f0xx_hal_can.c **** }
 1717              		.loc 1 1463 1 is_stmt 0 view .LVU532
 1718              		@ sp needed
 1719 000e 7047     		bx	lr
 1720              	.LVL123:
ARM GAS  C:\Users\xhex8\AppData\Local\Temp\ccvcBrdy.s 			page 62


 1721              	.L119:
1444:Drivers/STM32F0xx_HAL_Driver/Src/stm32f0xx_hal_can.c ****     {
 1722              		.loc 1 1444 5 is_stmt 1 view .LVU533
1444:Drivers/STM32F0xx_HAL_Driver/Src/stm32f0xx_hal_can.c ****     {
 1723              		.loc 1 1444 8 is_stmt 0 view .LVU534
 1724 0010 0129     		cmp	r1, #1
 1725 0012 0BD0     		beq	.L117
1448:Drivers/STM32F0xx_HAL_Driver/Src/stm32f0xx_hal_can.c ****     {
 1726              		.loc 1 1448 10 is_stmt 1 view .LVU535
1448:Drivers/STM32F0xx_HAL_Driver/Src/stm32f0xx_hal_can.c ****     {
 1727              		.loc 1 1448 13 is_stmt 0 view .LVU536
 1728 0014 0229     		cmp	r1, #2
 1729 0016 07D0     		beq	.L120
1454:Drivers/STM32F0xx_HAL_Driver/Src/stm32f0xx_hal_can.c ****     }
 1730              		.loc 1 1454 23 view .LVU537
 1731 0018 0223     		movs	r3, #2
 1732              	.L115:
 1733              	.LVL124:
1458:Drivers/STM32F0xx_HAL_Driver/Src/stm32f0xx_hal_can.c ****   }
 1734              		.loc 1 1458 5 is_stmt 1 view .LVU538
1458:Drivers/STM32F0xx_HAL_Driver/Src/stm32f0xx_hal_can.c ****   }
 1735              		.loc 1 1458 22 is_stmt 0 view .LVU539
 1736 001a 0268     		ldr	r2, [r0]
1458:Drivers/STM32F0xx_HAL_Driver/Src/stm32f0xx_hal_can.c ****   }
 1737              		.loc 1 1458 61 view .LVU540
 1738 001c 1833     		adds	r3, r3, #24
 1739              	.LVL125:
1458:Drivers/STM32F0xx_HAL_Driver/Src/stm32f0xx_hal_can.c ****   }
 1740              		.loc 1 1458 61 view .LVU541
 1741 001e 1B01     		lsls	r3, r3, #4
 1742              	.LVL126:
1458:Drivers/STM32F0xx_HAL_Driver/Src/stm32f0xx_hal_can.c ****   }
 1743              		.loc 1 1458 61 view .LVU542
 1744 0020 D318     		adds	r3, r2, r3
 1745 0022 5868     		ldr	r0, [r3, #4]
 1746              	.LVL127:
1458:Drivers/STM32F0xx_HAL_Driver/Src/stm32f0xx_hal_can.c ****   }
 1747              		.loc 1 1458 85 view .LVU543
 1748 0024 000C     		lsrs	r0, r0, #16
 1749              	.LVL128:
1458:Drivers/STM32F0xx_HAL_Driver/Src/stm32f0xx_hal_can.c ****   }
 1750              		.loc 1 1458 85 view .LVU544
 1751 0026 F2E7     		b	.L113
 1752              	.LVL129:
 1753              	.L120:
1450:Drivers/STM32F0xx_HAL_Driver/Src/stm32f0xx_hal_can.c ****     }
 1754              		.loc 1 1450 23 view .LVU545
 1755 0028 0123     		movs	r3, #1
 1756 002a F6E7     		b	.L115
 1757              	.L117:
1446:Drivers/STM32F0xx_HAL_Driver/Src/stm32f0xx_hal_can.c ****     }
 1758              		.loc 1 1446 23 view .LVU546
 1759 002c 0023     		movs	r3, #0
 1760 002e F4E7     		b	.L115
 1761              		.cfi_endproc
 1762              	.LFE54:
 1764              		.section	.text.HAL_CAN_GetRxMessage,"ax",%progbits
ARM GAS  C:\Users\xhex8\AppData\Local\Temp\ccvcBrdy.s 			page 63


 1765              		.align	1
 1766              		.global	HAL_CAN_GetRxMessage
 1767              		.syntax unified
 1768              		.code	16
 1769              		.thumb_func
 1771              	HAL_CAN_GetRxMessage:
 1772              	.LVL130:
 1773              	.LFB55:
1464:Drivers/STM32F0xx_HAL_Driver/Src/stm32f0xx_hal_can.c **** 
1465:Drivers/STM32F0xx_HAL_Driver/Src/stm32f0xx_hal_can.c **** /**
1466:Drivers/STM32F0xx_HAL_Driver/Src/stm32f0xx_hal_can.c ****   * @brief  Get an CAN frame from the Rx FIFO zone into the message RAM.
1467:Drivers/STM32F0xx_HAL_Driver/Src/stm32f0xx_hal_can.c ****   * @param  hcan pointer to an CAN_HandleTypeDef structure that contains
1468:Drivers/STM32F0xx_HAL_Driver/Src/stm32f0xx_hal_can.c ****   *         the configuration information for the specified CAN.
1469:Drivers/STM32F0xx_HAL_Driver/Src/stm32f0xx_hal_can.c ****   * @param  RxFifo Fifo number of the received message to be read.
1470:Drivers/STM32F0xx_HAL_Driver/Src/stm32f0xx_hal_can.c ****   *         This parameter can be a value of @arg CAN_receive_FIFO_number.
1471:Drivers/STM32F0xx_HAL_Driver/Src/stm32f0xx_hal_can.c ****   * @param  pHeader pointer to a CAN_RxHeaderTypeDef structure where the header
1472:Drivers/STM32F0xx_HAL_Driver/Src/stm32f0xx_hal_can.c ****   *         of the Rx frame will be stored.
1473:Drivers/STM32F0xx_HAL_Driver/Src/stm32f0xx_hal_can.c ****   * @param  aData array where the payload of the Rx frame will be stored.
1474:Drivers/STM32F0xx_HAL_Driver/Src/stm32f0xx_hal_can.c ****   * @retval HAL status
1475:Drivers/STM32F0xx_HAL_Driver/Src/stm32f0xx_hal_can.c ****   */
1476:Drivers/STM32F0xx_HAL_Driver/Src/stm32f0xx_hal_can.c **** HAL_StatusTypeDef HAL_CAN_GetRxMessage(CAN_HandleTypeDef *hcan, uint32_t RxFifo,
1477:Drivers/STM32F0xx_HAL_Driver/Src/stm32f0xx_hal_can.c ****                                        CAN_RxHeaderTypeDef *pHeader, uint8_t aData[])
1478:Drivers/STM32F0xx_HAL_Driver/Src/stm32f0xx_hal_can.c **** {
 1774              		.loc 1 1478 1 is_stmt 1 view -0
 1775              		.cfi_startproc
 1776              		@ args = 0, pretend = 0, frame = 0
 1777              		@ frame_needed = 0, uses_anonymous_args = 0
 1778              		.loc 1 1478 1 is_stmt 0 view .LVU548
 1779 0000 70B5     		push	{r4, r5, r6, lr}
 1780              		.cfi_def_cfa_offset 16
 1781              		.cfi_offset 4, -16
 1782              		.cfi_offset 5, -12
 1783              		.cfi_offset 6, -8
 1784              		.cfi_offset 14, -4
1479:Drivers/STM32F0xx_HAL_Driver/Src/stm32f0xx_hal_can.c ****   HAL_CAN_StateTypeDef state = hcan->State;
 1785              		.loc 1 1479 3 is_stmt 1 view .LVU549
 1786              		.loc 1 1479 24 is_stmt 0 view .LVU550
 1787 0002 2024     		movs	r4, #32
 1788 0004 045D     		ldrb	r4, [r0, r4]
 1789              	.LVL131:
1480:Drivers/STM32F0xx_HAL_Driver/Src/stm32f0xx_hal_can.c **** 
1481:Drivers/STM32F0xx_HAL_Driver/Src/stm32f0xx_hal_can.c ****   assert_param(IS_CAN_RX_FIFO(RxFifo));
 1790              		.loc 1 1481 3 is_stmt 1 view .LVU551
1482:Drivers/STM32F0xx_HAL_Driver/Src/stm32f0xx_hal_can.c **** 
1483:Drivers/STM32F0xx_HAL_Driver/Src/stm32f0xx_hal_can.c ****   if ((state == HAL_CAN_STATE_READY) ||
 1791              		.loc 1 1483 3 view .LVU552
 1792              		.loc 1 1483 38 is_stmt 0 view .LVU553
 1793 0006 013C     		subs	r4, r4, #1
 1794              	.LVL132:
 1795              		.loc 1 1483 38 view .LVU554
 1796 0008 E4B2     		uxtb	r4, r4
 1797              		.loc 1 1483 6 view .LVU555
 1798 000a 012C     		cmp	r4, #1
 1799 000c 00D9     		bls	.LCB1574
 1800 000e 9CE0     		b	.L122	@long jump
 1801              	.LCB1574:
1484:Drivers/STM32F0xx_HAL_Driver/Src/stm32f0xx_hal_can.c ****       (state == HAL_CAN_STATE_LISTENING))
ARM GAS  C:\Users\xhex8\AppData\Local\Temp\ccvcBrdy.s 			page 64


1485:Drivers/STM32F0xx_HAL_Driver/Src/stm32f0xx_hal_can.c ****   {
1486:Drivers/STM32F0xx_HAL_Driver/Src/stm32f0xx_hal_can.c ****     /* Check the Rx FIFO */
1487:Drivers/STM32F0xx_HAL_Driver/Src/stm32f0xx_hal_can.c ****     if (RxFifo == CAN_RX_FIFO0) /* Rx element is assigned to Rx FIFO 0 */
 1802              		.loc 1 1487 5 is_stmt 1 view .LVU556
 1803              		.loc 1 1487 8 is_stmt 0 view .LVU557
 1804 0010 0029     		cmp	r1, #0
 1805 0012 0AD1     		bne	.L123
1488:Drivers/STM32F0xx_HAL_Driver/Src/stm32f0xx_hal_can.c ****     {
1489:Drivers/STM32F0xx_HAL_Driver/Src/stm32f0xx_hal_can.c ****       /* Check that the Rx FIFO 0 is not empty */
1490:Drivers/STM32F0xx_HAL_Driver/Src/stm32f0xx_hal_can.c ****       if ((hcan->Instance->RF0R & CAN_RF0R_FMP0) == 0U)
 1806              		.loc 1 1490 7 is_stmt 1 view .LVU558
 1807              		.loc 1 1490 16 is_stmt 0 view .LVU559
 1808 0014 0468     		ldr	r4, [r0]
 1809              		.loc 1 1490 26 view .LVU560
 1810 0016 E468     		ldr	r4, [r4, #12]
 1811              		.loc 1 1490 10 view .LVU561
 1812 0018 A407     		lsls	r4, r4, #30
 1813 001a 11D1     		bne	.L124
1491:Drivers/STM32F0xx_HAL_Driver/Src/stm32f0xx_hal_can.c ****       {
1492:Drivers/STM32F0xx_HAL_Driver/Src/stm32f0xx_hal_can.c ****         /* Update error code */
1493:Drivers/STM32F0xx_HAL_Driver/Src/stm32f0xx_hal_can.c ****         hcan->ErrorCode |= HAL_CAN_ERROR_PARAM;
 1814              		.loc 1 1493 9 is_stmt 1 view .LVU562
 1815              		.loc 1 1493 13 is_stmt 0 view .LVU563
 1816 001c 426A     		ldr	r2, [r0, #36]
 1817              	.LVL133:
 1818              		.loc 1 1493 25 view .LVU564
 1819 001e 8023     		movs	r3, #128
 1820              	.LVL134:
 1821              		.loc 1 1493 25 view .LVU565
 1822 0020 9B03     		lsls	r3, r3, #14
 1823 0022 1343     		orrs	r3, r2
 1824 0024 4362     		str	r3, [r0, #36]
1494:Drivers/STM32F0xx_HAL_Driver/Src/stm32f0xx_hal_can.c **** 
1495:Drivers/STM32F0xx_HAL_Driver/Src/stm32f0xx_hal_can.c ****         return HAL_ERROR;
 1825              		.loc 1 1495 9 is_stmt 1 view .LVU566
 1826              		.loc 1 1495 16 is_stmt 0 view .LVU567
 1827 0026 0120     		movs	r0, #1
 1828              	.LVL135:
 1829              		.loc 1 1495 16 view .LVU568
 1830 0028 95E0     		b	.L125
 1831              	.LVL136:
 1832              	.L123:
1496:Drivers/STM32F0xx_HAL_Driver/Src/stm32f0xx_hal_can.c ****       }
1497:Drivers/STM32F0xx_HAL_Driver/Src/stm32f0xx_hal_can.c ****     }
1498:Drivers/STM32F0xx_HAL_Driver/Src/stm32f0xx_hal_can.c ****     else /* Rx element is assigned to Rx FIFO 1 */
1499:Drivers/STM32F0xx_HAL_Driver/Src/stm32f0xx_hal_can.c ****     {
1500:Drivers/STM32F0xx_HAL_Driver/Src/stm32f0xx_hal_can.c ****       /* Check that the Rx FIFO 1 is not empty */
1501:Drivers/STM32F0xx_HAL_Driver/Src/stm32f0xx_hal_can.c ****       if ((hcan->Instance->RF1R & CAN_RF1R_FMP1) == 0U)
 1833              		.loc 1 1501 7 is_stmt 1 view .LVU569
 1834              		.loc 1 1501 16 is_stmt 0 view .LVU570
 1835 002a 0468     		ldr	r4, [r0]
 1836              		.loc 1 1501 26 view .LVU571
 1837 002c 2469     		ldr	r4, [r4, #16]
 1838              		.loc 1 1501 10 view .LVU572
 1839 002e A407     		lsls	r4, r4, #30
 1840 0030 06D1     		bne	.L124
1502:Drivers/STM32F0xx_HAL_Driver/Src/stm32f0xx_hal_can.c ****       {
