ARM GAS  C:\Users\xhex8\AppData\Local\Temp\ccXkJLMo.s 			page 1


   1              		.cpu cortex-m0
   2              		.arch armv6s-m
   3              		.fpu softvfp
   4              		.eabi_attribute 20, 1
   5              		.eabi_attribute 21, 1
   6              		.eabi_attribute 23, 3
   7              		.eabi_attribute 24, 1
   8              		.eabi_attribute 25, 1
   9              		.eabi_attribute 26, 1
  10              		.eabi_attribute 30, 1
  11              		.eabi_attribute 34, 0
  12              		.eabi_attribute 18, 4
  13              		.file	"stm32c0xx_hal.c"
  14              		.text
  15              	.Ltext0:
  16              		.cfi_sections	.debug_frame
  17              		.file 1 "Drivers/STM32C0xx_HAL_Driver/Src/stm32c0xx_hal.c"
  18              		.section	.text.HAL_MspInit,"ax",%progbits
  19              		.align	1
  20              		.weak	HAL_MspInit
  21              		.syntax unified
  22              		.code	16
  23              		.thumb_func
  25              	HAL_MspInit:
  26              	.LFB216:
   1:Drivers/STM32C0xx_HAL_Driver/Src/stm32c0xx_hal.c **** /**
   2:Drivers/STM32C0xx_HAL_Driver/Src/stm32c0xx_hal.c ****   ******************************************************************************
   3:Drivers/STM32C0xx_HAL_Driver/Src/stm32c0xx_hal.c ****   * @file    stm32c0xx_hal.c
   4:Drivers/STM32C0xx_HAL_Driver/Src/stm32c0xx_hal.c ****   * @author  MCD Application Team
   5:Drivers/STM32C0xx_HAL_Driver/Src/stm32c0xx_hal.c ****   * @brief   HAL module driver.
   6:Drivers/STM32C0xx_HAL_Driver/Src/stm32c0xx_hal.c ****   *          This is the common part of the HAL initialization
   7:Drivers/STM32C0xx_HAL_Driver/Src/stm32c0xx_hal.c ****   *
   8:Drivers/STM32C0xx_HAL_Driver/Src/stm32c0xx_hal.c ****   ******************************************************************************
   9:Drivers/STM32C0xx_HAL_Driver/Src/stm32c0xx_hal.c ****   * @attention
  10:Drivers/STM32C0xx_HAL_Driver/Src/stm32c0xx_hal.c ****   *
  11:Drivers/STM32C0xx_HAL_Driver/Src/stm32c0xx_hal.c ****   * Copyright (c) 2022 STMicroelectronics.
  12:Drivers/STM32C0xx_HAL_Driver/Src/stm32c0xx_hal.c ****   * All rights reserved.
  13:Drivers/STM32C0xx_HAL_Driver/Src/stm32c0xx_hal.c ****   *
  14:Drivers/STM32C0xx_HAL_Driver/Src/stm32c0xx_hal.c ****   * This software is licensed under terms that can be found in the LICENSE file
  15:Drivers/STM32C0xx_HAL_Driver/Src/stm32c0xx_hal.c ****   * in the root directory of this software component.
  16:Drivers/STM32C0xx_HAL_Driver/Src/stm32c0xx_hal.c ****   * If no LICENSE file comes with this software, it is provided AS-IS.
  17:Drivers/STM32C0xx_HAL_Driver/Src/stm32c0xx_hal.c ****   *
  18:Drivers/STM32C0xx_HAL_Driver/Src/stm32c0xx_hal.c ****   ******************************************************************************
  19:Drivers/STM32C0xx_HAL_Driver/Src/stm32c0xx_hal.c ****   @verbatim
  20:Drivers/STM32C0xx_HAL_Driver/Src/stm32c0xx_hal.c ****   ==============================================================================
  21:Drivers/STM32C0xx_HAL_Driver/Src/stm32c0xx_hal.c ****                      ##### How to use this driver #####
  22:Drivers/STM32C0xx_HAL_Driver/Src/stm32c0xx_hal.c ****   ==============================================================================
  23:Drivers/STM32C0xx_HAL_Driver/Src/stm32c0xx_hal.c ****     [..]
  24:Drivers/STM32C0xx_HAL_Driver/Src/stm32c0xx_hal.c ****     The common HAL driver contains a set of generic and common APIs that can be
  25:Drivers/STM32C0xx_HAL_Driver/Src/stm32c0xx_hal.c ****     used by the PPP peripheral drivers and the user to start using the HAL.
  26:Drivers/STM32C0xx_HAL_Driver/Src/stm32c0xx_hal.c ****     [..]
  27:Drivers/STM32C0xx_HAL_Driver/Src/stm32c0xx_hal.c ****     The HAL contains two APIs' categories:
  28:Drivers/STM32C0xx_HAL_Driver/Src/stm32c0xx_hal.c ****          (+) Common HAL APIs
  29:Drivers/STM32C0xx_HAL_Driver/Src/stm32c0xx_hal.c ****          (+) Services HAL APIs
  30:Drivers/STM32C0xx_HAL_Driver/Src/stm32c0xx_hal.c **** 
  31:Drivers/STM32C0xx_HAL_Driver/Src/stm32c0xx_hal.c ****   @endverbatim
  32:Drivers/STM32C0xx_HAL_Driver/Src/stm32c0xx_hal.c ****   ******************************************************************************
ARM GAS  C:\Users\xhex8\AppData\Local\Temp\ccXkJLMo.s 			page 2


  33:Drivers/STM32C0xx_HAL_Driver/Src/stm32c0xx_hal.c ****   */
  34:Drivers/STM32C0xx_HAL_Driver/Src/stm32c0xx_hal.c **** 
  35:Drivers/STM32C0xx_HAL_Driver/Src/stm32c0xx_hal.c **** /* Includes ------------------------------------------------------------------*/
  36:Drivers/STM32C0xx_HAL_Driver/Src/stm32c0xx_hal.c **** #include "stm32c0xx_hal.h"
  37:Drivers/STM32C0xx_HAL_Driver/Src/stm32c0xx_hal.c **** 
  38:Drivers/STM32C0xx_HAL_Driver/Src/stm32c0xx_hal.c **** /** @addtogroup STM32C0xx_HAL_Driver
  39:Drivers/STM32C0xx_HAL_Driver/Src/stm32c0xx_hal.c ****   * @{
  40:Drivers/STM32C0xx_HAL_Driver/Src/stm32c0xx_hal.c ****   */
  41:Drivers/STM32C0xx_HAL_Driver/Src/stm32c0xx_hal.c **** 
  42:Drivers/STM32C0xx_HAL_Driver/Src/stm32c0xx_hal.c **** /** @addtogroup HAL
  43:Drivers/STM32C0xx_HAL_Driver/Src/stm32c0xx_hal.c ****   * @brief HAL module driver
  44:Drivers/STM32C0xx_HAL_Driver/Src/stm32c0xx_hal.c ****   * @{
  45:Drivers/STM32C0xx_HAL_Driver/Src/stm32c0xx_hal.c ****   */
  46:Drivers/STM32C0xx_HAL_Driver/Src/stm32c0xx_hal.c **** 
  47:Drivers/STM32C0xx_HAL_Driver/Src/stm32c0xx_hal.c **** #ifdef HAL_MODULE_ENABLED
  48:Drivers/STM32C0xx_HAL_Driver/Src/stm32c0xx_hal.c **** 
  49:Drivers/STM32C0xx_HAL_Driver/Src/stm32c0xx_hal.c **** /* Private typedef -----------------------------------------------------------*/
  50:Drivers/STM32C0xx_HAL_Driver/Src/stm32c0xx_hal.c **** /* Private define ------------------------------------------------------------*/
  51:Drivers/STM32C0xx_HAL_Driver/Src/stm32c0xx_hal.c **** 
  52:Drivers/STM32C0xx_HAL_Driver/Src/stm32c0xx_hal.c **** /** @defgroup HAL_Private_Constants HAL Private Constants
  53:Drivers/STM32C0xx_HAL_Driver/Src/stm32c0xx_hal.c ****   * @{
  54:Drivers/STM32C0xx_HAL_Driver/Src/stm32c0xx_hal.c ****   */
  55:Drivers/STM32C0xx_HAL_Driver/Src/stm32c0xx_hal.c **** /**
  56:Drivers/STM32C0xx_HAL_Driver/Src/stm32c0xx_hal.c ****   * @brief STM32C0xx HAL Driver version number
  57:Drivers/STM32C0xx_HAL_Driver/Src/stm32c0xx_hal.c ****    */
  58:Drivers/STM32C0xx_HAL_Driver/Src/stm32c0xx_hal.c **** #define __STM32C0xx_HAL_VERSION_MAIN   (0x01U) /*!< [31:24] main version */
  59:Drivers/STM32C0xx_HAL_Driver/Src/stm32c0xx_hal.c **** #define __STM32C0xx_HAL_VERSION_SUB1   (0x01U) /*!< [23:16] sub1 version */
  60:Drivers/STM32C0xx_HAL_Driver/Src/stm32c0xx_hal.c **** #define __STM32C0xx_HAL_VERSION_SUB2   (0x00U) /*!< [15:8]  sub2 version */
  61:Drivers/STM32C0xx_HAL_Driver/Src/stm32c0xx_hal.c **** #define __STM32C0xx_HAL_VERSION_RC     (0x00U) /*!< [7:0]  release candidate */
  62:Drivers/STM32C0xx_HAL_Driver/Src/stm32c0xx_hal.c **** #define __STM32C0xx_HAL_VERSION         ((__STM32C0xx_HAL_VERSION_MAIN << 24U)\
  63:Drivers/STM32C0xx_HAL_Driver/Src/stm32c0xx_hal.c ****                                          |(__STM32C0xx_HAL_VERSION_SUB1 << 16U)\
  64:Drivers/STM32C0xx_HAL_Driver/Src/stm32c0xx_hal.c ****                                          |(__STM32C0xx_HAL_VERSION_SUB2 << 8U )\
  65:Drivers/STM32C0xx_HAL_Driver/Src/stm32c0xx_hal.c ****                                          |(__STM32C0xx_HAL_VERSION_RC))
  66:Drivers/STM32C0xx_HAL_Driver/Src/stm32c0xx_hal.c **** 
  67:Drivers/STM32C0xx_HAL_Driver/Src/stm32c0xx_hal.c **** /**
  68:Drivers/STM32C0xx_HAL_Driver/Src/stm32c0xx_hal.c ****   * @}
  69:Drivers/STM32C0xx_HAL_Driver/Src/stm32c0xx_hal.c ****   */
  70:Drivers/STM32C0xx_HAL_Driver/Src/stm32c0xx_hal.c **** 
  71:Drivers/STM32C0xx_HAL_Driver/Src/stm32c0xx_hal.c **** /* Private macro -------------------------------------------------------------*/
  72:Drivers/STM32C0xx_HAL_Driver/Src/stm32c0xx_hal.c **** /* Exported variables ---------------------------------------------------------*/
  73:Drivers/STM32C0xx_HAL_Driver/Src/stm32c0xx_hal.c **** /** @defgroup HAL_Exported_Variables HAL Exported Variables
  74:Drivers/STM32C0xx_HAL_Driver/Src/stm32c0xx_hal.c ****   * @{
  75:Drivers/STM32C0xx_HAL_Driver/Src/stm32c0xx_hal.c ****   */
  76:Drivers/STM32C0xx_HAL_Driver/Src/stm32c0xx_hal.c **** __IO uint32_t uwTick;
  77:Drivers/STM32C0xx_HAL_Driver/Src/stm32c0xx_hal.c **** uint32_t uwTickPrio = (1UL << __NVIC_PRIO_BITS); /* Invalid PRIO */
  78:Drivers/STM32C0xx_HAL_Driver/Src/stm32c0xx_hal.c **** HAL_TickFreqTypeDef uwTickFreq = HAL_TICK_FREQ_DEFAULT;  /* 1KHz */
  79:Drivers/STM32C0xx_HAL_Driver/Src/stm32c0xx_hal.c **** /**
  80:Drivers/STM32C0xx_HAL_Driver/Src/stm32c0xx_hal.c ****   * @}
  81:Drivers/STM32C0xx_HAL_Driver/Src/stm32c0xx_hal.c ****   */
  82:Drivers/STM32C0xx_HAL_Driver/Src/stm32c0xx_hal.c **** 
  83:Drivers/STM32C0xx_HAL_Driver/Src/stm32c0xx_hal.c **** /* Private function prototypes -----------------------------------------------*/
  84:Drivers/STM32C0xx_HAL_Driver/Src/stm32c0xx_hal.c **** /* Exported functions --------------------------------------------------------*/
  85:Drivers/STM32C0xx_HAL_Driver/Src/stm32c0xx_hal.c **** 
  86:Drivers/STM32C0xx_HAL_Driver/Src/stm32c0xx_hal.c **** /** @addtogroup HAL_Exported_Functions
  87:Drivers/STM32C0xx_HAL_Driver/Src/stm32c0xx_hal.c ****   * @{
  88:Drivers/STM32C0xx_HAL_Driver/Src/stm32c0xx_hal.c ****   */
  89:Drivers/STM32C0xx_HAL_Driver/Src/stm32c0xx_hal.c **** 
ARM GAS  C:\Users\xhex8\AppData\Local\Temp\ccXkJLMo.s 			page 3


  90:Drivers/STM32C0xx_HAL_Driver/Src/stm32c0xx_hal.c **** /** @addtogroup HAL_Exported_Functions_Group1
  91:Drivers/STM32C0xx_HAL_Driver/Src/stm32c0xx_hal.c ****   *  @brief    HAL Initialization and Configuration functions
  92:Drivers/STM32C0xx_HAL_Driver/Src/stm32c0xx_hal.c ****   *
  93:Drivers/STM32C0xx_HAL_Driver/Src/stm32c0xx_hal.c **** @verbatim
  94:Drivers/STM32C0xx_HAL_Driver/Src/stm32c0xx_hal.c ****  ===============================================================================
  95:Drivers/STM32C0xx_HAL_Driver/Src/stm32c0xx_hal.c ****            ##### HAL Initialization and Configuration functions #####
  96:Drivers/STM32C0xx_HAL_Driver/Src/stm32c0xx_hal.c ****  ===============================================================================
  97:Drivers/STM32C0xx_HAL_Driver/Src/stm32c0xx_hal.c ****     [..]  This section provides functions allowing to:
  98:Drivers/STM32C0xx_HAL_Driver/Src/stm32c0xx_hal.c ****       (+) Initialize the Flash interface the NVIC allocation and initial time base
  99:Drivers/STM32C0xx_HAL_Driver/Src/stm32c0xx_hal.c ****           clock configuration.
 100:Drivers/STM32C0xx_HAL_Driver/Src/stm32c0xx_hal.c ****       (+) De-initialize common part of the HAL.
 101:Drivers/STM32C0xx_HAL_Driver/Src/stm32c0xx_hal.c ****       (+) Configure the time base source to have 1ms time base with a dedicated
 102:Drivers/STM32C0xx_HAL_Driver/Src/stm32c0xx_hal.c ****           Tick interrupt priority.
 103:Drivers/STM32C0xx_HAL_Driver/Src/stm32c0xx_hal.c ****         (++) SysTick timer is used by default as source of time base, but user
 104:Drivers/STM32C0xx_HAL_Driver/Src/stm32c0xx_hal.c ****              can eventually implement his proper time base source (a general purpose
 105:Drivers/STM32C0xx_HAL_Driver/Src/stm32c0xx_hal.c ****              timer for example or other time source), keeping in mind that Time base
 106:Drivers/STM32C0xx_HAL_Driver/Src/stm32c0xx_hal.c ****              duration should be kept 1ms since PPP_TIMEOUT_VALUEs are defined and
 107:Drivers/STM32C0xx_HAL_Driver/Src/stm32c0xx_hal.c ****              handled in milliseconds basis.
 108:Drivers/STM32C0xx_HAL_Driver/Src/stm32c0xx_hal.c ****         (++) Time base configuration function (HAL_InitTick ()) is called automatically
 109:Drivers/STM32C0xx_HAL_Driver/Src/stm32c0xx_hal.c ****              at the beginning of the program after reset by HAL_Init() or at any time
 110:Drivers/STM32C0xx_HAL_Driver/Src/stm32c0xx_hal.c ****              when clock is configured, by HAL_RCC_ClockConfig().
 111:Drivers/STM32C0xx_HAL_Driver/Src/stm32c0xx_hal.c ****         (++) Source of time base is configured  to generate interrupts at regular
 112:Drivers/STM32C0xx_HAL_Driver/Src/stm32c0xx_hal.c ****              time intervals. Care must be taken if HAL_Delay() is called from a
 113:Drivers/STM32C0xx_HAL_Driver/Src/stm32c0xx_hal.c ****              peripheral ISR process, the Tick interrupt line must have higher priority
 114:Drivers/STM32C0xx_HAL_Driver/Src/stm32c0xx_hal.c ****             (numerically lower) than the peripheral interrupt. Otherwise the caller
 115:Drivers/STM32C0xx_HAL_Driver/Src/stm32c0xx_hal.c ****             ISR process will be blocked.
 116:Drivers/STM32C0xx_HAL_Driver/Src/stm32c0xx_hal.c ****        (++) functions affecting time base configurations are declared as __weak
 117:Drivers/STM32C0xx_HAL_Driver/Src/stm32c0xx_hal.c ****              to make  override possible  in case of other  implementations in user file.
 118:Drivers/STM32C0xx_HAL_Driver/Src/stm32c0xx_hal.c **** @endverbatim
 119:Drivers/STM32C0xx_HAL_Driver/Src/stm32c0xx_hal.c ****   * @{
 120:Drivers/STM32C0xx_HAL_Driver/Src/stm32c0xx_hal.c ****   */
 121:Drivers/STM32C0xx_HAL_Driver/Src/stm32c0xx_hal.c **** 
 122:Drivers/STM32C0xx_HAL_Driver/Src/stm32c0xx_hal.c **** /**
 123:Drivers/STM32C0xx_HAL_Driver/Src/stm32c0xx_hal.c ****   * @brief  Configure the Flash prefetch and the Instruction cache,
 124:Drivers/STM32C0xx_HAL_Driver/Src/stm32c0xx_hal.c ****   *         the time base source, NVIC and any required global low level hardware
 125:Drivers/STM32C0xx_HAL_Driver/Src/stm32c0xx_hal.c ****   *         by calling the HAL_MspInit() callback function to be optionally defined in user file
 126:Drivers/STM32C0xx_HAL_Driver/Src/stm32c0xx_hal.c ****   *         stm32c0xx_hal_msp.c.
 127:Drivers/STM32C0xx_HAL_Driver/Src/stm32c0xx_hal.c ****   *
 128:Drivers/STM32C0xx_HAL_Driver/Src/stm32c0xx_hal.c ****   * @note   HAL_Init() function is called at the beginning of program after reset and before
 129:Drivers/STM32C0xx_HAL_Driver/Src/stm32c0xx_hal.c ****   *         the clock configuration.
 130:Drivers/STM32C0xx_HAL_Driver/Src/stm32c0xx_hal.c ****   *
 131:Drivers/STM32C0xx_HAL_Driver/Src/stm32c0xx_hal.c ****   * @note   In the default implementation the System Timer (Systick) is used as source of time base
 132:Drivers/STM32C0xx_HAL_Driver/Src/stm32c0xx_hal.c ****   *         The Systick configuration is based on HSI clock, as HSI is the clock
 133:Drivers/STM32C0xx_HAL_Driver/Src/stm32c0xx_hal.c ****   *         used after a system Reset.
 134:Drivers/STM32C0xx_HAL_Driver/Src/stm32c0xx_hal.c ****   *         Once done, time base tick starts incrementing: the tick variable counter is incremented
 135:Drivers/STM32C0xx_HAL_Driver/Src/stm32c0xx_hal.c ****   *         each 1ms in the SysTick_Handler() interrupt handler.
 136:Drivers/STM32C0xx_HAL_Driver/Src/stm32c0xx_hal.c ****   *
 137:Drivers/STM32C0xx_HAL_Driver/Src/stm32c0xx_hal.c ****   * @retval HAL status
 138:Drivers/STM32C0xx_HAL_Driver/Src/stm32c0xx_hal.c ****   */
 139:Drivers/STM32C0xx_HAL_Driver/Src/stm32c0xx_hal.c **** HAL_StatusTypeDef HAL_Init(void)
 140:Drivers/STM32C0xx_HAL_Driver/Src/stm32c0xx_hal.c **** {
 141:Drivers/STM32C0xx_HAL_Driver/Src/stm32c0xx_hal.c ****   HAL_StatusTypeDef  status = HAL_OK;
 142:Drivers/STM32C0xx_HAL_Driver/Src/stm32c0xx_hal.c **** 
 143:Drivers/STM32C0xx_HAL_Driver/Src/stm32c0xx_hal.c ****   /* Configure Flash prefetch, Instruction cache             */
 144:Drivers/STM32C0xx_HAL_Driver/Src/stm32c0xx_hal.c ****   /* Default configuration at reset is:                      */
 145:Drivers/STM32C0xx_HAL_Driver/Src/stm32c0xx_hal.c ****   /* - Prefetch disabled                                     */
 146:Drivers/STM32C0xx_HAL_Driver/Src/stm32c0xx_hal.c ****   /* - Instruction cache enabled                             */
ARM GAS  C:\Users\xhex8\AppData\Local\Temp\ccXkJLMo.s 			page 4


 147:Drivers/STM32C0xx_HAL_Driver/Src/stm32c0xx_hal.c **** 
 148:Drivers/STM32C0xx_HAL_Driver/Src/stm32c0xx_hal.c **** #if (INSTRUCTION_CACHE_ENABLE == 0U)
 149:Drivers/STM32C0xx_HAL_Driver/Src/stm32c0xx_hal.c ****   __HAL_FLASH_INSTRUCTION_CACHE_DISABLE();
 150:Drivers/STM32C0xx_HAL_Driver/Src/stm32c0xx_hal.c **** #endif /* INSTRUCTION_CACHE_ENABLE */
 151:Drivers/STM32C0xx_HAL_Driver/Src/stm32c0xx_hal.c **** 
 152:Drivers/STM32C0xx_HAL_Driver/Src/stm32c0xx_hal.c **** #if (PREFETCH_ENABLE != 0U)
 153:Drivers/STM32C0xx_HAL_Driver/Src/stm32c0xx_hal.c ****   __HAL_FLASH_PREFETCH_BUFFER_ENABLE();
 154:Drivers/STM32C0xx_HAL_Driver/Src/stm32c0xx_hal.c **** #endif /* PREFETCH_ENABLE */
 155:Drivers/STM32C0xx_HAL_Driver/Src/stm32c0xx_hal.c **** 
 156:Drivers/STM32C0xx_HAL_Driver/Src/stm32c0xx_hal.c ****   /* Use SysTick as time base source and configure 1ms tick (default clock after Reset is HSI) */
 157:Drivers/STM32C0xx_HAL_Driver/Src/stm32c0xx_hal.c ****   if (HAL_InitTick(TICK_INT_PRIORITY) != HAL_OK)
 158:Drivers/STM32C0xx_HAL_Driver/Src/stm32c0xx_hal.c ****   {
 159:Drivers/STM32C0xx_HAL_Driver/Src/stm32c0xx_hal.c ****     status = HAL_ERROR;
 160:Drivers/STM32C0xx_HAL_Driver/Src/stm32c0xx_hal.c ****   }
 161:Drivers/STM32C0xx_HAL_Driver/Src/stm32c0xx_hal.c ****   else
 162:Drivers/STM32C0xx_HAL_Driver/Src/stm32c0xx_hal.c ****   {
 163:Drivers/STM32C0xx_HAL_Driver/Src/stm32c0xx_hal.c ****     /* Init the low level hardware */
 164:Drivers/STM32C0xx_HAL_Driver/Src/stm32c0xx_hal.c ****     HAL_MspInit();
 165:Drivers/STM32C0xx_HAL_Driver/Src/stm32c0xx_hal.c ****   }
 166:Drivers/STM32C0xx_HAL_Driver/Src/stm32c0xx_hal.c **** 
 167:Drivers/STM32C0xx_HAL_Driver/Src/stm32c0xx_hal.c ****   /* Return function status */
 168:Drivers/STM32C0xx_HAL_Driver/Src/stm32c0xx_hal.c ****   return status;
 169:Drivers/STM32C0xx_HAL_Driver/Src/stm32c0xx_hal.c **** }
 170:Drivers/STM32C0xx_HAL_Driver/Src/stm32c0xx_hal.c **** 
 171:Drivers/STM32C0xx_HAL_Driver/Src/stm32c0xx_hal.c **** /**
 172:Drivers/STM32C0xx_HAL_Driver/Src/stm32c0xx_hal.c ****   * @brief  This function de-Initializes common part of the HAL and stops the source of time base.
 173:Drivers/STM32C0xx_HAL_Driver/Src/stm32c0xx_hal.c ****   * @note   This function is optional.
 174:Drivers/STM32C0xx_HAL_Driver/Src/stm32c0xx_hal.c ****   * @retval HAL status
 175:Drivers/STM32C0xx_HAL_Driver/Src/stm32c0xx_hal.c ****   */
 176:Drivers/STM32C0xx_HAL_Driver/Src/stm32c0xx_hal.c **** HAL_StatusTypeDef HAL_DeInit(void)
 177:Drivers/STM32C0xx_HAL_Driver/Src/stm32c0xx_hal.c **** {
 178:Drivers/STM32C0xx_HAL_Driver/Src/stm32c0xx_hal.c ****   /* Reset of all peripherals */
 179:Drivers/STM32C0xx_HAL_Driver/Src/stm32c0xx_hal.c ****   __HAL_RCC_APB1_FORCE_RESET();
 180:Drivers/STM32C0xx_HAL_Driver/Src/stm32c0xx_hal.c ****   __HAL_RCC_APB1_RELEASE_RESET();
 181:Drivers/STM32C0xx_HAL_Driver/Src/stm32c0xx_hal.c **** 
 182:Drivers/STM32C0xx_HAL_Driver/Src/stm32c0xx_hal.c ****   __HAL_RCC_APB2_FORCE_RESET();
 183:Drivers/STM32C0xx_HAL_Driver/Src/stm32c0xx_hal.c ****   __HAL_RCC_APB2_RELEASE_RESET();
 184:Drivers/STM32C0xx_HAL_Driver/Src/stm32c0xx_hal.c **** 
 185:Drivers/STM32C0xx_HAL_Driver/Src/stm32c0xx_hal.c ****   __HAL_RCC_AHB_FORCE_RESET();
 186:Drivers/STM32C0xx_HAL_Driver/Src/stm32c0xx_hal.c ****   __HAL_RCC_AHB_RELEASE_RESET();
 187:Drivers/STM32C0xx_HAL_Driver/Src/stm32c0xx_hal.c **** 
 188:Drivers/STM32C0xx_HAL_Driver/Src/stm32c0xx_hal.c ****   __HAL_RCC_IOP_FORCE_RESET();
 189:Drivers/STM32C0xx_HAL_Driver/Src/stm32c0xx_hal.c ****   __HAL_RCC_IOP_RELEASE_RESET();
 190:Drivers/STM32C0xx_HAL_Driver/Src/stm32c0xx_hal.c **** 
 191:Drivers/STM32C0xx_HAL_Driver/Src/stm32c0xx_hal.c ****   /* De-Init the low level hardware */
 192:Drivers/STM32C0xx_HAL_Driver/Src/stm32c0xx_hal.c ****   HAL_MspDeInit();
 193:Drivers/STM32C0xx_HAL_Driver/Src/stm32c0xx_hal.c **** 
 194:Drivers/STM32C0xx_HAL_Driver/Src/stm32c0xx_hal.c ****   /* Return function status */
 195:Drivers/STM32C0xx_HAL_Driver/Src/stm32c0xx_hal.c ****   return HAL_OK;
 196:Drivers/STM32C0xx_HAL_Driver/Src/stm32c0xx_hal.c **** }
 197:Drivers/STM32C0xx_HAL_Driver/Src/stm32c0xx_hal.c **** 
 198:Drivers/STM32C0xx_HAL_Driver/Src/stm32c0xx_hal.c **** /**
 199:Drivers/STM32C0xx_HAL_Driver/Src/stm32c0xx_hal.c ****   * @brief  Initialize the MSP.
 200:Drivers/STM32C0xx_HAL_Driver/Src/stm32c0xx_hal.c ****   * @retval None
 201:Drivers/STM32C0xx_HAL_Driver/Src/stm32c0xx_hal.c ****   */
 202:Drivers/STM32C0xx_HAL_Driver/Src/stm32c0xx_hal.c **** __weak void HAL_MspInit(void)
 203:Drivers/STM32C0xx_HAL_Driver/Src/stm32c0xx_hal.c **** {
ARM GAS  C:\Users\xhex8\AppData\Local\Temp\ccXkJLMo.s 			page 5


  27              		.loc 1 203 1 view -0
  28              		.cfi_startproc
  29              		@ args = 0, pretend = 0, frame = 0
  30              		@ frame_needed = 0, uses_anonymous_args = 0
  31              		@ link register save eliminated.
 204:Drivers/STM32C0xx_HAL_Driver/Src/stm32c0xx_hal.c ****   /* NOTE : This function should not be modified, when the callback is needed,
 205:Drivers/STM32C0xx_HAL_Driver/Src/stm32c0xx_hal.c ****             the HAL_MspInit could be implemented in the user file
 206:Drivers/STM32C0xx_HAL_Driver/Src/stm32c0xx_hal.c ****    */
 207:Drivers/STM32C0xx_HAL_Driver/Src/stm32c0xx_hal.c **** }
  32              		.loc 1 207 1 view .LVU1
  33              		@ sp needed
  34 0000 7047     		bx	lr
  35              		.cfi_endproc
  36              	.LFE216:
  38              		.section	.text.HAL_MspDeInit,"ax",%progbits
  39              		.align	1
  40              		.weak	HAL_MspDeInit
  41              		.syntax unified
  42              		.code	16
  43              		.thumb_func
  45              	HAL_MspDeInit:
  46              	.LFB217:
 208:Drivers/STM32C0xx_HAL_Driver/Src/stm32c0xx_hal.c **** 
 209:Drivers/STM32C0xx_HAL_Driver/Src/stm32c0xx_hal.c **** /**
 210:Drivers/STM32C0xx_HAL_Driver/Src/stm32c0xx_hal.c ****   * @brief  DeInitializes the MSP.
 211:Drivers/STM32C0xx_HAL_Driver/Src/stm32c0xx_hal.c ****   * @retval None
 212:Drivers/STM32C0xx_HAL_Driver/Src/stm32c0xx_hal.c ****   */
 213:Drivers/STM32C0xx_HAL_Driver/Src/stm32c0xx_hal.c **** __weak void HAL_MspDeInit(void)
 214:Drivers/STM32C0xx_HAL_Driver/Src/stm32c0xx_hal.c **** {
  47              		.loc 1 214 1 view -0
  48              		.cfi_startproc
  49              		@ args = 0, pretend = 0, frame = 0
  50              		@ frame_needed = 0, uses_anonymous_args = 0
  51              		@ link register save eliminated.
 215:Drivers/STM32C0xx_HAL_Driver/Src/stm32c0xx_hal.c ****   /* NOTE : This function should not be modified, when the callback is needed,
 216:Drivers/STM32C0xx_HAL_Driver/Src/stm32c0xx_hal.c ****             the HAL_MspDeInit could be implemented in the user file
 217:Drivers/STM32C0xx_HAL_Driver/Src/stm32c0xx_hal.c ****    */
 218:Drivers/STM32C0xx_HAL_Driver/Src/stm32c0xx_hal.c **** }
  52              		.loc 1 218 1 view .LVU3
  53              		@ sp needed
  54 0000 7047     		bx	lr
  55              		.cfi_endproc
  56              	.LFE217:
  58              		.section	.text.HAL_DeInit,"ax",%progbits
  59              		.align	1
  60              		.global	HAL_DeInit
  61              		.syntax unified
  62              		.code	16
  63              		.thumb_func
  65              	HAL_DeInit:
  66              	.LFB215:
 177:Drivers/STM32C0xx_HAL_Driver/Src/stm32c0xx_hal.c ****   /* Reset of all peripherals */
  67              		.loc 1 177 1 view -0
  68              		.cfi_startproc
  69              		@ args = 0, pretend = 0, frame = 0
  70              		@ frame_needed = 0, uses_anonymous_args = 0
  71 0000 10B5     		push	{r4, lr}
ARM GAS  C:\Users\xhex8\AppData\Local\Temp\ccXkJLMo.s 			page 6


  72              		.cfi_def_cfa_offset 8
  73              		.cfi_offset 4, -8
  74              		.cfi_offset 14, -4
 179:Drivers/STM32C0xx_HAL_Driver/Src/stm32c0xx_hal.c ****   __HAL_RCC_APB1_RELEASE_RESET();
  75              		.loc 1 179 3 view .LVU5
  76 0002 084B     		ldr	r3, .L4
  77 0004 0121     		movs	r1, #1
  78 0006 4942     		rsbs	r1, r1, #0
  79 0008 D962     		str	r1, [r3, #44]
 180:Drivers/STM32C0xx_HAL_Driver/Src/stm32c0xx_hal.c **** 
  80              		.loc 1 180 3 view .LVU6
  81 000a 0022     		movs	r2, #0
  82 000c DA62     		str	r2, [r3, #44]
 182:Drivers/STM32C0xx_HAL_Driver/Src/stm32c0xx_hal.c ****   __HAL_RCC_APB2_RELEASE_RESET();
  83              		.loc 1 182 3 view .LVU7
  84 000e 1963     		str	r1, [r3, #48]
 183:Drivers/STM32C0xx_HAL_Driver/Src/stm32c0xx_hal.c **** 
  85              		.loc 1 183 3 view .LVU8
  86 0010 1A63     		str	r2, [r3, #48]
 185:Drivers/STM32C0xx_HAL_Driver/Src/stm32c0xx_hal.c ****   __HAL_RCC_AHB_RELEASE_RESET();
  87              		.loc 1 185 3 view .LVU9
  88 0012 9962     		str	r1, [r3, #40]
 186:Drivers/STM32C0xx_HAL_Driver/Src/stm32c0xx_hal.c **** 
  89              		.loc 1 186 3 view .LVU10
  90 0014 9A62     		str	r2, [r3, #40]
 188:Drivers/STM32C0xx_HAL_Driver/Src/stm32c0xx_hal.c ****   __HAL_RCC_IOP_RELEASE_RESET();
  91              		.loc 1 188 3 view .LVU11
  92 0016 5962     		str	r1, [r3, #36]
 189:Drivers/STM32C0xx_HAL_Driver/Src/stm32c0xx_hal.c **** 
  93              		.loc 1 189 3 view .LVU12
  94 0018 5A62     		str	r2, [r3, #36]
 192:Drivers/STM32C0xx_HAL_Driver/Src/stm32c0xx_hal.c **** 
  95              		.loc 1 192 3 view .LVU13
  96 001a FFF7FEFF 		bl	HAL_MspDeInit
  97              	.LVL0:
 195:Drivers/STM32C0xx_HAL_Driver/Src/stm32c0xx_hal.c **** }
  98              		.loc 1 195 3 view .LVU14
 196:Drivers/STM32C0xx_HAL_Driver/Src/stm32c0xx_hal.c **** 
  99              		.loc 1 196 1 is_stmt 0 view .LVU15
 100 001e 0020     		movs	r0, #0
 101              		@ sp needed
 102 0020 10BD     		pop	{r4, pc}
 103              	.L5:
 104 0022 C046     		.align	2
 105              	.L4:
 106 0024 00100240 		.word	1073876992
 107              		.cfi_endproc
 108              	.LFE215:
 110              		.global	__aeabi_uidiv
 111              		.section	.text.HAL_InitTick,"ax",%progbits
 112              		.align	1
 113              		.weak	HAL_InitTick
 114              		.syntax unified
 115              		.code	16
 116              		.thumb_func
 118              	HAL_InitTick:
 119              	.LVL1:
ARM GAS  C:\Users\xhex8\AppData\Local\Temp\ccXkJLMo.s 			page 7


 120              	.LFB218:
 219:Drivers/STM32C0xx_HAL_Driver/Src/stm32c0xx_hal.c **** 
 220:Drivers/STM32C0xx_HAL_Driver/Src/stm32c0xx_hal.c **** /**
 221:Drivers/STM32C0xx_HAL_Driver/Src/stm32c0xx_hal.c ****   * @brief This function configures the source of the time base:
 222:Drivers/STM32C0xx_HAL_Driver/Src/stm32c0xx_hal.c ****   *        The time source is configured  to have 1ms time base with a dedicated
 223:Drivers/STM32C0xx_HAL_Driver/Src/stm32c0xx_hal.c ****   *        Tick interrupt priority.
 224:Drivers/STM32C0xx_HAL_Driver/Src/stm32c0xx_hal.c ****   * @note This function is called  automatically at the beginning of program after
 225:Drivers/STM32C0xx_HAL_Driver/Src/stm32c0xx_hal.c ****   *       reset by HAL_Init() or at any time when clock is reconfigured  by HAL_RCC_ClockConfig().
 226:Drivers/STM32C0xx_HAL_Driver/Src/stm32c0xx_hal.c ****   * @note In the default implementation, SysTick timer is the source of time base.
 227:Drivers/STM32C0xx_HAL_Driver/Src/stm32c0xx_hal.c ****   *       It is used to generate interrupts at regular time intervals.
 228:Drivers/STM32C0xx_HAL_Driver/Src/stm32c0xx_hal.c ****   *       Care must be taken if HAL_Delay() is called from a peripheral ISR process,
 229:Drivers/STM32C0xx_HAL_Driver/Src/stm32c0xx_hal.c ****   *       The SysTick interrupt must have higher priority (numerically lower)
 230:Drivers/STM32C0xx_HAL_Driver/Src/stm32c0xx_hal.c ****   *       than the peripheral interrupt. Otherwise the caller ISR process will be blocked.
 231:Drivers/STM32C0xx_HAL_Driver/Src/stm32c0xx_hal.c ****   *       The function is declared as __weak  to be overwritten  in case of other
 232:Drivers/STM32C0xx_HAL_Driver/Src/stm32c0xx_hal.c ****   *       implementation  in user file.
 233:Drivers/STM32C0xx_HAL_Driver/Src/stm32c0xx_hal.c ****   * @param TickPriority Tick interrupt priority.
 234:Drivers/STM32C0xx_HAL_Driver/Src/stm32c0xx_hal.c ****   * @retval HAL status
 235:Drivers/STM32C0xx_HAL_Driver/Src/stm32c0xx_hal.c ****   */
 236:Drivers/STM32C0xx_HAL_Driver/Src/stm32c0xx_hal.c **** __weak HAL_StatusTypeDef HAL_InitTick(uint32_t TickPriority)
 237:Drivers/STM32C0xx_HAL_Driver/Src/stm32c0xx_hal.c **** {
 121              		.loc 1 237 1 is_stmt 1 view -0
 122              		.cfi_startproc
 123              		@ args = 0, pretend = 0, frame = 0
 124              		@ frame_needed = 0, uses_anonymous_args = 0
 125              		.loc 1 237 1 is_stmt 0 view .LVU17
 126 0000 10B5     		push	{r4, lr}
 127              		.cfi_def_cfa_offset 8
 128              		.cfi_offset 4, -8
 129              		.cfi_offset 14, -4
 130 0002 0400     		movs	r4, r0
 238:Drivers/STM32C0xx_HAL_Driver/Src/stm32c0xx_hal.c ****   HAL_StatusTypeDef  status = HAL_OK;
 131              		.loc 1 238 3 is_stmt 1 view .LVU18
 132              	.LVL2:
 239:Drivers/STM32C0xx_HAL_Driver/Src/stm32c0xx_hal.c **** 
 240:Drivers/STM32C0xx_HAL_Driver/Src/stm32c0xx_hal.c ****   if ((uint32_t)uwTickFreq != 0UL)
 133              		.loc 1 240 3 view .LVU19
 134              		.loc 1 240 28 is_stmt 0 view .LVU20
 135 0004 114B     		ldr	r3, .L13
 136 0006 1978     		ldrb	r1, [r3]
 137              		.loc 1 240 6 view .LVU21
 138 0008 0029     		cmp	r1, #0
 139 000a 01D1     		bne	.L11
 241:Drivers/STM32C0xx_HAL_Driver/Src/stm32c0xx_hal.c ****   {
 242:Drivers/STM32C0xx_HAL_Driver/Src/stm32c0xx_hal.c ****     /*Configure the SysTick to have interrupt in 1ms time basis*/
 243:Drivers/STM32C0xx_HAL_Driver/Src/stm32c0xx_hal.c ****     if (HAL_SYSTICK_Config(SystemCoreClock / (1000UL / (uint32_t)uwTickFreq)) == 0U)
 244:Drivers/STM32C0xx_HAL_Driver/Src/stm32c0xx_hal.c ****     {
 245:Drivers/STM32C0xx_HAL_Driver/Src/stm32c0xx_hal.c ****       /* Configure the SysTick IRQ priority */
 246:Drivers/STM32C0xx_HAL_Driver/Src/stm32c0xx_hal.c ****       if (TickPriority < (1UL << __NVIC_PRIO_BITS))
 247:Drivers/STM32C0xx_HAL_Driver/Src/stm32c0xx_hal.c ****       {
 248:Drivers/STM32C0xx_HAL_Driver/Src/stm32c0xx_hal.c ****         HAL_NVIC_SetPriority(SysTick_IRQn, TickPriority, 0U);
 249:Drivers/STM32C0xx_HAL_Driver/Src/stm32c0xx_hal.c ****         uwTickPrio = TickPriority;
 250:Drivers/STM32C0xx_HAL_Driver/Src/stm32c0xx_hal.c ****       }
 251:Drivers/STM32C0xx_HAL_Driver/Src/stm32c0xx_hal.c ****       else
 252:Drivers/STM32C0xx_HAL_Driver/Src/stm32c0xx_hal.c ****       {
 253:Drivers/STM32C0xx_HAL_Driver/Src/stm32c0xx_hal.c ****         status = HAL_ERROR;
 254:Drivers/STM32C0xx_HAL_Driver/Src/stm32c0xx_hal.c ****       }
 255:Drivers/STM32C0xx_HAL_Driver/Src/stm32c0xx_hal.c ****     }
ARM GAS  C:\Users\xhex8\AppData\Local\Temp\ccXkJLMo.s 			page 8


 256:Drivers/STM32C0xx_HAL_Driver/Src/stm32c0xx_hal.c ****     else
 257:Drivers/STM32C0xx_HAL_Driver/Src/stm32c0xx_hal.c ****     {
 258:Drivers/STM32C0xx_HAL_Driver/Src/stm32c0xx_hal.c ****       status = HAL_ERROR;
 259:Drivers/STM32C0xx_HAL_Driver/Src/stm32c0xx_hal.c ****     }
 260:Drivers/STM32C0xx_HAL_Driver/Src/stm32c0xx_hal.c ****   }
 261:Drivers/STM32C0xx_HAL_Driver/Src/stm32c0xx_hal.c ****   else
 262:Drivers/STM32C0xx_HAL_Driver/Src/stm32c0xx_hal.c ****   {
 263:Drivers/STM32C0xx_HAL_Driver/Src/stm32c0xx_hal.c ****     status = HAL_ERROR;
 140              		.loc 1 263 12 view .LVU22
 141 000c 0120     		movs	r0, #1
 142              	.LVL3:
 143              	.L7:
 264:Drivers/STM32C0xx_HAL_Driver/Src/stm32c0xx_hal.c ****   }
 265:Drivers/STM32C0xx_HAL_Driver/Src/stm32c0xx_hal.c **** 
 266:Drivers/STM32C0xx_HAL_Driver/Src/stm32c0xx_hal.c ****   /* Return function status */
 267:Drivers/STM32C0xx_HAL_Driver/Src/stm32c0xx_hal.c ****   return status;
 144              		.loc 1 267 3 is_stmt 1 view .LVU23
 268:Drivers/STM32C0xx_HAL_Driver/Src/stm32c0xx_hal.c **** }
 145              		.loc 1 268 1 is_stmt 0 view .LVU24
 146              		@ sp needed
 147              	.LVL4:
 148              		.loc 1 268 1 view .LVU25
 149 000e 10BD     		pop	{r4, pc}
 150              	.LVL5:
 151              	.L11:
 243:Drivers/STM32C0xx_HAL_Driver/Src/stm32c0xx_hal.c ****     {
 152              		.loc 1 243 5 is_stmt 1 view .LVU26
 243:Drivers/STM32C0xx_HAL_Driver/Src/stm32c0xx_hal.c ****     {
 153              		.loc 1 243 54 is_stmt 0 view .LVU27
 154 0010 FA20     		movs	r0, #250
 155              	.LVL6:
 243:Drivers/STM32C0xx_HAL_Driver/Src/stm32c0xx_hal.c ****     {
 156              		.loc 1 243 54 view .LVU28
 157 0012 8000     		lsls	r0, r0, #2
 158 0014 FFF7FEFF 		bl	__aeabi_uidiv
 159              	.LVL7:
 160 0018 0100     		movs	r1, r0
 243:Drivers/STM32C0xx_HAL_Driver/Src/stm32c0xx_hal.c ****     {
 161              		.loc 1 243 9 view .LVU29
 162 001a 0D4B     		ldr	r3, .L13+4
 163 001c 1868     		ldr	r0, [r3]
 164 001e FFF7FEFF 		bl	__aeabi_uidiv
 165              	.LVL8:
 166 0022 FFF7FEFF 		bl	HAL_SYSTICK_Config
 167              	.LVL9:
 243:Drivers/STM32C0xx_HAL_Driver/Src/stm32c0xx_hal.c ****     {
 168              		.loc 1 243 8 view .LVU30
 169 0026 0028     		cmp	r0, #0
 170 0028 0DD1     		bne	.L9
 246:Drivers/STM32C0xx_HAL_Driver/Src/stm32c0xx_hal.c ****       {
 171              		.loc 1 246 7 is_stmt 1 view .LVU31
 246:Drivers/STM32C0xx_HAL_Driver/Src/stm32c0xx_hal.c ****       {
 172              		.loc 1 246 10 is_stmt 0 view .LVU32
 173 002a 032C     		cmp	r4, #3
 174 002c 01D9     		bls	.L12
 253:Drivers/STM32C0xx_HAL_Driver/Src/stm32c0xx_hal.c ****       }
 175              		.loc 1 253 16 view .LVU33
ARM GAS  C:\Users\xhex8\AppData\Local\Temp\ccXkJLMo.s 			page 9


 176 002e 0120     		movs	r0, #1
 177 0030 EDE7     		b	.L7
 178              	.L12:
 248:Drivers/STM32C0xx_HAL_Driver/Src/stm32c0xx_hal.c ****         uwTickPrio = TickPriority;
 179              		.loc 1 248 9 is_stmt 1 view .LVU34
 180 0032 0130     		adds	r0, r0, #1
 181 0034 0022     		movs	r2, #0
 182 0036 2100     		movs	r1, r4
 183 0038 4042     		rsbs	r0, r0, #0
 184 003a FFF7FEFF 		bl	HAL_NVIC_SetPriority
 185              	.LVL10:
 249:Drivers/STM32C0xx_HAL_Driver/Src/stm32c0xx_hal.c ****       }
 186              		.loc 1 249 9 view .LVU35
 249:Drivers/STM32C0xx_HAL_Driver/Src/stm32c0xx_hal.c ****       }
 187              		.loc 1 249 20 is_stmt 0 view .LVU36
 188 003e 054B     		ldr	r3, .L13+8
 189 0040 1C60     		str	r4, [r3]
 238:Drivers/STM32C0xx_HAL_Driver/Src/stm32c0xx_hal.c **** 
 190              		.loc 1 238 22 view .LVU37
 191 0042 0020     		movs	r0, #0
 192 0044 E3E7     		b	.L7
 193              	.L9:
 258:Drivers/STM32C0xx_HAL_Driver/Src/stm32c0xx_hal.c ****     }
 194              		.loc 1 258 14 view .LVU38
 195 0046 0120     		movs	r0, #1
 196 0048 E1E7     		b	.L7
 197              	.L14:
 198 004a C046     		.align	2
 199              	.L13:
 200 004c 00000000 		.word	uwTickFreq
 201 0050 00000000 		.word	SystemCoreClock
 202 0054 00000000 		.word	uwTickPrio
 203              		.cfi_endproc
 204              	.LFE218:
 206              		.section	.text.HAL_Init,"ax",%progbits
 207              		.align	1
 208              		.global	HAL_Init
 209              		.syntax unified
 210              		.code	16
 211              		.thumb_func
 213              	HAL_Init:
 214              	.LFB214:
 140:Drivers/STM32C0xx_HAL_Driver/Src/stm32c0xx_hal.c ****   HAL_StatusTypeDef  status = HAL_OK;
 215              		.loc 1 140 1 is_stmt 1 view -0
 216              		.cfi_startproc
 217              		@ args = 0, pretend = 0, frame = 0
 218              		@ frame_needed = 0, uses_anonymous_args = 0
 219 0000 10B5     		push	{r4, lr}
 220              		.cfi_def_cfa_offset 8
 221              		.cfi_offset 4, -8
 222              		.cfi_offset 14, -4
 141:Drivers/STM32C0xx_HAL_Driver/Src/stm32c0xx_hal.c **** 
 223              		.loc 1 141 3 view .LVU40
 224              	.LVL11:
 157:Drivers/STM32C0xx_HAL_Driver/Src/stm32c0xx_hal.c ****   {
 225              		.loc 1 157 3 view .LVU41
 157:Drivers/STM32C0xx_HAL_Driver/Src/stm32c0xx_hal.c ****   {
ARM GAS  C:\Users\xhex8\AppData\Local\Temp\ccXkJLMo.s 			page 10


 226              		.loc 1 157 7 is_stmt 0 view .LVU42
 227 0002 0320     		movs	r0, #3
 228 0004 FFF7FEFF 		bl	HAL_InitTick
 229              	.LVL12:
 230 0008 041E     		subs	r4, r0, #0
 157:Drivers/STM32C0xx_HAL_Driver/Src/stm32c0xx_hal.c ****   {
 231              		.loc 1 157 6 view .LVU43
 232 000a 02D0     		beq	.L18
 159:Drivers/STM32C0xx_HAL_Driver/Src/stm32c0xx_hal.c ****   }
 233              		.loc 1 159 12 view .LVU44
 234 000c 0124     		movs	r4, #1
 235              	.L16:
 236              	.LVL13:
 168:Drivers/STM32C0xx_HAL_Driver/Src/stm32c0xx_hal.c **** }
 237              		.loc 1 168 3 is_stmt 1 view .LVU45
 169:Drivers/STM32C0xx_HAL_Driver/Src/stm32c0xx_hal.c **** 
 238              		.loc 1 169 1 is_stmt 0 view .LVU46
 239 000e 2000     		movs	r0, r4
 240              		@ sp needed
 241              	.LVL14:
 169:Drivers/STM32C0xx_HAL_Driver/Src/stm32c0xx_hal.c **** 
 242              		.loc 1 169 1 view .LVU47
 243 0010 10BD     		pop	{r4, pc}
 244              	.LVL15:
 245              	.L18:
 164:Drivers/STM32C0xx_HAL_Driver/Src/stm32c0xx_hal.c ****   }
 246              		.loc 1 164 5 is_stmt 1 view .LVU48
 247 0012 FFF7FEFF 		bl	HAL_MspInit
 248              	.LVL16:
 249 0016 FAE7     		b	.L16
 250              		.cfi_endproc
 251              	.LFE214:
 253              		.section	.text.HAL_IncTick,"ax",%progbits
 254              		.align	1
 255              		.weak	HAL_IncTick
 256              		.syntax unified
 257              		.code	16
 258              		.thumb_func
 260              	HAL_IncTick:
 261              	.LFB219:
 269:Drivers/STM32C0xx_HAL_Driver/Src/stm32c0xx_hal.c **** 
 270:Drivers/STM32C0xx_HAL_Driver/Src/stm32c0xx_hal.c **** /**
 271:Drivers/STM32C0xx_HAL_Driver/Src/stm32c0xx_hal.c ****   * @}
 272:Drivers/STM32C0xx_HAL_Driver/Src/stm32c0xx_hal.c ****   */
 273:Drivers/STM32C0xx_HAL_Driver/Src/stm32c0xx_hal.c **** 
 274:Drivers/STM32C0xx_HAL_Driver/Src/stm32c0xx_hal.c **** /** @addtogroup HAL_Exported_Functions_Group2
 275:Drivers/STM32C0xx_HAL_Driver/Src/stm32c0xx_hal.c ****   *  @brief    HAL Control functions
 276:Drivers/STM32C0xx_HAL_Driver/Src/stm32c0xx_hal.c ****   *
 277:Drivers/STM32C0xx_HAL_Driver/Src/stm32c0xx_hal.c **** @verbatim
 278:Drivers/STM32C0xx_HAL_Driver/Src/stm32c0xx_hal.c ****  ===============================================================================
 279:Drivers/STM32C0xx_HAL_Driver/Src/stm32c0xx_hal.c ****                       ##### HAL Control functions #####
 280:Drivers/STM32C0xx_HAL_Driver/Src/stm32c0xx_hal.c ****  ===============================================================================
 281:Drivers/STM32C0xx_HAL_Driver/Src/stm32c0xx_hal.c ****     [..]  This section provides functions allowing to:
 282:Drivers/STM32C0xx_HAL_Driver/Src/stm32c0xx_hal.c ****       (+) Provide a tick value in millisecond
 283:Drivers/STM32C0xx_HAL_Driver/Src/stm32c0xx_hal.c ****       (+) Provide a blocking delay in millisecond
 284:Drivers/STM32C0xx_HAL_Driver/Src/stm32c0xx_hal.c ****       (+) Suspend the time base source interrupt
 285:Drivers/STM32C0xx_HAL_Driver/Src/stm32c0xx_hal.c ****       (+) Resume the time base source interrupt
ARM GAS  C:\Users\xhex8\AppData\Local\Temp\ccXkJLMo.s 			page 11


 286:Drivers/STM32C0xx_HAL_Driver/Src/stm32c0xx_hal.c ****       (+) Get the HAL API driver version
 287:Drivers/STM32C0xx_HAL_Driver/Src/stm32c0xx_hal.c ****       (+) Get the device identifier
 288:Drivers/STM32C0xx_HAL_Driver/Src/stm32c0xx_hal.c ****       (+) Get the device revision identifier
 289:Drivers/STM32C0xx_HAL_Driver/Src/stm32c0xx_hal.c **** 
 290:Drivers/STM32C0xx_HAL_Driver/Src/stm32c0xx_hal.c **** @endverbatim
 291:Drivers/STM32C0xx_HAL_Driver/Src/stm32c0xx_hal.c ****   * @{
 292:Drivers/STM32C0xx_HAL_Driver/Src/stm32c0xx_hal.c ****   */
 293:Drivers/STM32C0xx_HAL_Driver/Src/stm32c0xx_hal.c **** 
 294:Drivers/STM32C0xx_HAL_Driver/Src/stm32c0xx_hal.c **** /**
 295:Drivers/STM32C0xx_HAL_Driver/Src/stm32c0xx_hal.c ****   * @brief This function is called to increment  a global variable "uwTick"
 296:Drivers/STM32C0xx_HAL_Driver/Src/stm32c0xx_hal.c ****   *        used as application time base.
 297:Drivers/STM32C0xx_HAL_Driver/Src/stm32c0xx_hal.c ****   * @note In the default implementation, this variable is incremented each 1ms
 298:Drivers/STM32C0xx_HAL_Driver/Src/stm32c0xx_hal.c ****   *       in SysTick ISR.
 299:Drivers/STM32C0xx_HAL_Driver/Src/stm32c0xx_hal.c ****   * @note This function is declared as __weak to be overwritten in case of other
 300:Drivers/STM32C0xx_HAL_Driver/Src/stm32c0xx_hal.c ****   *      implementations in user file.
 301:Drivers/STM32C0xx_HAL_Driver/Src/stm32c0xx_hal.c ****   * @retval None
 302:Drivers/STM32C0xx_HAL_Driver/Src/stm32c0xx_hal.c ****   */
 303:Drivers/STM32C0xx_HAL_Driver/Src/stm32c0xx_hal.c **** __weak void HAL_IncTick(void)
 304:Drivers/STM32C0xx_HAL_Driver/Src/stm32c0xx_hal.c **** {
 262              		.loc 1 304 1 view -0
 263              		.cfi_startproc
 264              		@ args = 0, pretend = 0, frame = 0
 265              		@ frame_needed = 0, uses_anonymous_args = 0
 266              		@ link register save eliminated.
 305:Drivers/STM32C0xx_HAL_Driver/Src/stm32c0xx_hal.c ****   uwTick += (uint32_t)uwTickFreq;
 267              		.loc 1 305 3 view .LVU50
 268              		.loc 1 305 13 is_stmt 0 view .LVU51
 269 0000 034B     		ldr	r3, .L20
 270 0002 1B78     		ldrb	r3, [r3]
 271              		.loc 1 305 10 view .LVU52
 272 0004 034A     		ldr	r2, .L20+4
 273 0006 1168     		ldr	r1, [r2]
 274 0008 5B18     		adds	r3, r3, r1
 275 000a 1360     		str	r3, [r2]
 306:Drivers/STM32C0xx_HAL_Driver/Src/stm32c0xx_hal.c **** }
 276              		.loc 1 306 1 view .LVU53
 277              		@ sp needed
 278 000c 7047     		bx	lr
 279              	.L21:
 280 000e C046     		.align	2
 281              	.L20:
 282 0010 00000000 		.word	uwTickFreq
 283 0014 00000000 		.word	uwTick
 284              		.cfi_endproc
 285              	.LFE219:
 287              		.section	.text.HAL_GetTick,"ax",%progbits
 288              		.align	1
 289              		.weak	HAL_GetTick
 290              		.syntax unified
 291              		.code	16
 292              		.thumb_func
 294              	HAL_GetTick:
 295              	.LFB220:
 307:Drivers/STM32C0xx_HAL_Driver/Src/stm32c0xx_hal.c **** 
 308:Drivers/STM32C0xx_HAL_Driver/Src/stm32c0xx_hal.c **** /**
 309:Drivers/STM32C0xx_HAL_Driver/Src/stm32c0xx_hal.c ****   * @brief Provides a tick value in millisecond.
 310:Drivers/STM32C0xx_HAL_Driver/Src/stm32c0xx_hal.c ****   * @note This function is declared as __weak to be overwritten in case of other
ARM GAS  C:\Users\xhex8\AppData\Local\Temp\ccXkJLMo.s 			page 12


 311:Drivers/STM32C0xx_HAL_Driver/Src/stm32c0xx_hal.c ****   *       implementations in user file.
 312:Drivers/STM32C0xx_HAL_Driver/Src/stm32c0xx_hal.c ****   * @retval tick value
 313:Drivers/STM32C0xx_HAL_Driver/Src/stm32c0xx_hal.c ****   */
 314:Drivers/STM32C0xx_HAL_Driver/Src/stm32c0xx_hal.c **** __weak uint32_t HAL_GetTick(void)
 315:Drivers/STM32C0xx_HAL_Driver/Src/stm32c0xx_hal.c **** {
 296              		.loc 1 315 1 is_stmt 1 view -0
 297              		.cfi_startproc
 298              		@ args = 0, pretend = 0, frame = 0
 299              		@ frame_needed = 0, uses_anonymous_args = 0
 300              		@ link register save eliminated.
 316:Drivers/STM32C0xx_HAL_Driver/Src/stm32c0xx_hal.c ****   return uwTick;
 301              		.loc 1 316 3 view .LVU55
 302              		.loc 1 316 10 is_stmt 0 view .LVU56
 303 0000 014B     		ldr	r3, .L23
 304 0002 1868     		ldr	r0, [r3]
 317:Drivers/STM32C0xx_HAL_Driver/Src/stm32c0xx_hal.c **** }
 305              		.loc 1 317 1 view .LVU57
 306              		@ sp needed
 307 0004 7047     		bx	lr
 308              	.L24:
 309 0006 C046     		.align	2
 310              	.L23:
 311 0008 00000000 		.word	uwTick
 312              		.cfi_endproc
 313              	.LFE220:
 315              		.section	.text.HAL_GetTickPrio,"ax",%progbits
 316              		.align	1
 317              		.global	HAL_GetTickPrio
 318              		.syntax unified
 319              		.code	16
 320              		.thumb_func
 322              	HAL_GetTickPrio:
 323              	.LFB221:
 318:Drivers/STM32C0xx_HAL_Driver/Src/stm32c0xx_hal.c **** 
 319:Drivers/STM32C0xx_HAL_Driver/Src/stm32c0xx_hal.c **** /**
 320:Drivers/STM32C0xx_HAL_Driver/Src/stm32c0xx_hal.c ****   * @brief This function returns a tick priority.
 321:Drivers/STM32C0xx_HAL_Driver/Src/stm32c0xx_hal.c ****   * @retval tick priority
 322:Drivers/STM32C0xx_HAL_Driver/Src/stm32c0xx_hal.c ****   */
 323:Drivers/STM32C0xx_HAL_Driver/Src/stm32c0xx_hal.c **** uint32_t HAL_GetTickPrio(void)
 324:Drivers/STM32C0xx_HAL_Driver/Src/stm32c0xx_hal.c **** {
 324              		.loc 1 324 1 is_stmt 1 view -0
 325              		.cfi_startproc
 326              		@ args = 0, pretend = 0, frame = 0
 327              		@ frame_needed = 0, uses_anonymous_args = 0
 328              		@ link register save eliminated.
 325:Drivers/STM32C0xx_HAL_Driver/Src/stm32c0xx_hal.c ****   return uwTickPrio;
 329              		.loc 1 325 3 view .LVU59
 330              		.loc 1 325 10 is_stmt 0 view .LVU60
 331 0000 014B     		ldr	r3, .L26
 332 0002 1868     		ldr	r0, [r3]
 326:Drivers/STM32C0xx_HAL_Driver/Src/stm32c0xx_hal.c **** }
 333              		.loc 1 326 1 view .LVU61
 334              		@ sp needed
 335 0004 7047     		bx	lr
 336              	.L27:
 337 0006 C046     		.align	2
 338              	.L26:
ARM GAS  C:\Users\xhex8\AppData\Local\Temp\ccXkJLMo.s 			page 13


 339 0008 00000000 		.word	uwTickPrio
 340              		.cfi_endproc
 341              	.LFE221:
 343              		.section	.text.HAL_SetTickFreq,"ax",%progbits
 344              		.align	1
 345              		.global	HAL_SetTickFreq
 346              		.syntax unified
 347              		.code	16
 348              		.thumb_func
 350              	HAL_SetTickFreq:
 351              	.LVL17:
 352              	.LFB222:
 327:Drivers/STM32C0xx_HAL_Driver/Src/stm32c0xx_hal.c **** 
 328:Drivers/STM32C0xx_HAL_Driver/Src/stm32c0xx_hal.c **** /**
 329:Drivers/STM32C0xx_HAL_Driver/Src/stm32c0xx_hal.c ****   * @brief Set new tick Freq.
 330:Drivers/STM32C0xx_HAL_Driver/Src/stm32c0xx_hal.c ****   * @retval status
 331:Drivers/STM32C0xx_HAL_Driver/Src/stm32c0xx_hal.c ****   */
 332:Drivers/STM32C0xx_HAL_Driver/Src/stm32c0xx_hal.c **** HAL_StatusTypeDef HAL_SetTickFreq(HAL_TickFreqTypeDef Freq)
 333:Drivers/STM32C0xx_HAL_Driver/Src/stm32c0xx_hal.c **** {
 353              		.loc 1 333 1 is_stmt 1 view -0
 354              		.cfi_startproc
 355              		@ args = 0, pretend = 0, frame = 0
 356              		@ frame_needed = 0, uses_anonymous_args = 0
 357              		.loc 1 333 1 is_stmt 0 view .LVU63
 358 0000 10B5     		push	{r4, lr}
 359              		.cfi_def_cfa_offset 8
 360              		.cfi_offset 4, -8
 361              		.cfi_offset 14, -4
 362 0002 0400     		movs	r4, r0
 334:Drivers/STM32C0xx_HAL_Driver/Src/stm32c0xx_hal.c ****   HAL_StatusTypeDef status  = HAL_OK;
 363              		.loc 1 334 3 is_stmt 1 view .LVU64
 364              	.LVL18:
 335:Drivers/STM32C0xx_HAL_Driver/Src/stm32c0xx_hal.c **** 
 336:Drivers/STM32C0xx_HAL_Driver/Src/stm32c0xx_hal.c ****   assert_param(IS_TICKFREQ(Freq));
 365              		.loc 1 336 3 view .LVU65
 337:Drivers/STM32C0xx_HAL_Driver/Src/stm32c0xx_hal.c **** 
 338:Drivers/STM32C0xx_HAL_Driver/Src/stm32c0xx_hal.c ****   if (uwTickFreq != Freq)
 366              		.loc 1 338 3 view .LVU66
 367              		.loc 1 338 18 is_stmt 0 view .LVU67
 368 0004 074B     		ldr	r3, .L32
 369 0006 1B78     		ldrb	r3, [r3]
 370              		.loc 1 338 6 view .LVU68
 371 0008 8342     		cmp	r3, r0
 372 000a 01D1     		bne	.L31
 334:Drivers/STM32C0xx_HAL_Driver/Src/stm32c0xx_hal.c **** 
 373              		.loc 1 334 21 view .LVU69
 374 000c 0020     		movs	r0, #0
 375              	.LVL19:
 376              	.L29:
 339:Drivers/STM32C0xx_HAL_Driver/Src/stm32c0xx_hal.c ****   {
 340:Drivers/STM32C0xx_HAL_Driver/Src/stm32c0xx_hal.c ****     /* Apply the new tick Freq  */
 341:Drivers/STM32C0xx_HAL_Driver/Src/stm32c0xx_hal.c ****     status = HAL_InitTick(uwTickPrio);
 342:Drivers/STM32C0xx_HAL_Driver/Src/stm32c0xx_hal.c **** 
 343:Drivers/STM32C0xx_HAL_Driver/Src/stm32c0xx_hal.c ****     if (status == HAL_OK)
 344:Drivers/STM32C0xx_HAL_Driver/Src/stm32c0xx_hal.c ****     {
 345:Drivers/STM32C0xx_HAL_Driver/Src/stm32c0xx_hal.c ****       uwTickFreq = Freq;
 346:Drivers/STM32C0xx_HAL_Driver/Src/stm32c0xx_hal.c ****     }
ARM GAS  C:\Users\xhex8\AppData\Local\Temp\ccXkJLMo.s 			page 14


 347:Drivers/STM32C0xx_HAL_Driver/Src/stm32c0xx_hal.c ****   }
 348:Drivers/STM32C0xx_HAL_Driver/Src/stm32c0xx_hal.c **** 
 349:Drivers/STM32C0xx_HAL_Driver/Src/stm32c0xx_hal.c ****   return status;
 377              		.loc 1 349 3 is_stmt 1 view .LVU70
 350:Drivers/STM32C0xx_HAL_Driver/Src/stm32c0xx_hal.c **** }
 378              		.loc 1 350 1 is_stmt 0 view .LVU71
 379              		@ sp needed
 380 000e 10BD     		pop	{r4, pc}
 381              	.LVL20:
 382              	.L31:
 341:Drivers/STM32C0xx_HAL_Driver/Src/stm32c0xx_hal.c **** 
 383              		.loc 1 341 5 is_stmt 1 view .LVU72
 341:Drivers/STM32C0xx_HAL_Driver/Src/stm32c0xx_hal.c **** 
 384              		.loc 1 341 14 is_stmt 0 view .LVU73
 385 0010 054B     		ldr	r3, .L32+4
 386 0012 1868     		ldr	r0, [r3]
 387              	.LVL21:
 341:Drivers/STM32C0xx_HAL_Driver/Src/stm32c0xx_hal.c **** 
 388              		.loc 1 341 14 view .LVU74
 389 0014 FFF7FEFF 		bl	HAL_InitTick
 390              	.LVL22:
 343:Drivers/STM32C0xx_HAL_Driver/Src/stm32c0xx_hal.c ****     {
 391              		.loc 1 343 5 is_stmt 1 view .LVU75
 343:Drivers/STM32C0xx_HAL_Driver/Src/stm32c0xx_hal.c ****     {
 392              		.loc 1 343 8 is_stmt 0 view .LVU76
 393 0018 0028     		cmp	r0, #0
 394 001a F8D1     		bne	.L29
 345:Drivers/STM32C0xx_HAL_Driver/Src/stm32c0xx_hal.c ****     }
 395              		.loc 1 345 7 is_stmt 1 view .LVU77
 345:Drivers/STM32C0xx_HAL_Driver/Src/stm32c0xx_hal.c ****     }
 396              		.loc 1 345 18 is_stmt 0 view .LVU78
 397 001c 014B     		ldr	r3, .L32
 398 001e 1C70     		strb	r4, [r3]
 399 0020 F5E7     		b	.L29
 400              	.L33:
 401 0022 C046     		.align	2
 402              	.L32:
 403 0024 00000000 		.word	uwTickFreq
 404 0028 00000000 		.word	uwTickPrio
 405              		.cfi_endproc
 406              	.LFE222:
 408              		.section	.text.HAL_GetTickFreq,"ax",%progbits
 409              		.align	1
 410              		.global	HAL_GetTickFreq
 411              		.syntax unified
 412              		.code	16
 413              		.thumb_func
 415              	HAL_GetTickFreq:
 416              	.LFB223:
 351:Drivers/STM32C0xx_HAL_Driver/Src/stm32c0xx_hal.c **** 
 352:Drivers/STM32C0xx_HAL_Driver/Src/stm32c0xx_hal.c **** /**
 353:Drivers/STM32C0xx_HAL_Driver/Src/stm32c0xx_hal.c ****   * @brief return tick frequency.
 354:Drivers/STM32C0xx_HAL_Driver/Src/stm32c0xx_hal.c ****   * @retval Tick frequency.
 355:Drivers/STM32C0xx_HAL_Driver/Src/stm32c0xx_hal.c ****   *         Value of @ref HAL_TickFreqTypeDef.
 356:Drivers/STM32C0xx_HAL_Driver/Src/stm32c0xx_hal.c ****   */
 357:Drivers/STM32C0xx_HAL_Driver/Src/stm32c0xx_hal.c **** HAL_TickFreqTypeDef HAL_GetTickFreq(void)
 358:Drivers/STM32C0xx_HAL_Driver/Src/stm32c0xx_hal.c **** {
ARM GAS  C:\Users\xhex8\AppData\Local\Temp\ccXkJLMo.s 			page 15


 417              		.loc 1 358 1 is_stmt 1 view -0
 418              		.cfi_startproc
 419              		@ args = 0, pretend = 0, frame = 0
 420              		@ frame_needed = 0, uses_anonymous_args = 0
 421              		@ link register save eliminated.
 359:Drivers/STM32C0xx_HAL_Driver/Src/stm32c0xx_hal.c ****   return uwTickFreq;
 422              		.loc 1 359 3 view .LVU80
 423              		.loc 1 359 10 is_stmt 0 view .LVU81
 424 0000 014B     		ldr	r3, .L35
 425 0002 1878     		ldrb	r0, [r3]
 360:Drivers/STM32C0xx_HAL_Driver/Src/stm32c0xx_hal.c **** }
 426              		.loc 1 360 1 view .LVU82
 427              		@ sp needed
 428 0004 7047     		bx	lr
 429              	.L36:
 430 0006 C046     		.align	2
 431              	.L35:
 432 0008 00000000 		.word	uwTickFreq
 433              		.cfi_endproc
 434              	.LFE223:
 436              		.section	.text.HAL_Delay,"ax",%progbits
 437              		.align	1
 438              		.weak	HAL_Delay
 439              		.syntax unified
 440              		.code	16
 441              		.thumb_func
 443              	HAL_Delay:
 444              	.LVL23:
 445              	.LFB224:
 361:Drivers/STM32C0xx_HAL_Driver/Src/stm32c0xx_hal.c **** 
 362:Drivers/STM32C0xx_HAL_Driver/Src/stm32c0xx_hal.c **** /**
 363:Drivers/STM32C0xx_HAL_Driver/Src/stm32c0xx_hal.c ****   * @brief This function provides minimum delay (in milliseconds) based
 364:Drivers/STM32C0xx_HAL_Driver/Src/stm32c0xx_hal.c ****   *        on variable incremented.
 365:Drivers/STM32C0xx_HAL_Driver/Src/stm32c0xx_hal.c ****   * @note In the default implementation , SysTick timer is the source of time base.
 366:Drivers/STM32C0xx_HAL_Driver/Src/stm32c0xx_hal.c ****   *       It is used to generate interrupts at regular time intervals where uwTick
 367:Drivers/STM32C0xx_HAL_Driver/Src/stm32c0xx_hal.c ****   *       is incremented.
 368:Drivers/STM32C0xx_HAL_Driver/Src/stm32c0xx_hal.c ****   * @note This function is declared as __weak to be overwritten in case of other
 369:Drivers/STM32C0xx_HAL_Driver/Src/stm32c0xx_hal.c ****   *       implementations in user file.
 370:Drivers/STM32C0xx_HAL_Driver/Src/stm32c0xx_hal.c ****   * @param Delay  specifies the delay time length, in milliseconds.
 371:Drivers/STM32C0xx_HAL_Driver/Src/stm32c0xx_hal.c ****   * @retval None
 372:Drivers/STM32C0xx_HAL_Driver/Src/stm32c0xx_hal.c ****   */
 373:Drivers/STM32C0xx_HAL_Driver/Src/stm32c0xx_hal.c **** __weak void HAL_Delay(uint32_t Delay)
 374:Drivers/STM32C0xx_HAL_Driver/Src/stm32c0xx_hal.c **** {
 446              		.loc 1 374 1 is_stmt 1 view -0
 447              		.cfi_startproc
 448              		@ args = 0, pretend = 0, frame = 0
 449              		@ frame_needed = 0, uses_anonymous_args = 0
 450              		.loc 1 374 1 is_stmt 0 view .LVU84
 451 0000 70B5     		push	{r4, r5, r6, lr}
 452              		.cfi_def_cfa_offset 16
 453              		.cfi_offset 4, -16
 454              		.cfi_offset 5, -12
 455              		.cfi_offset 6, -8
 456              		.cfi_offset 14, -4
 457 0002 0400     		movs	r4, r0
 375:Drivers/STM32C0xx_HAL_Driver/Src/stm32c0xx_hal.c ****   uint32_t tickstart = HAL_GetTick();
 458              		.loc 1 375 3 is_stmt 1 view .LVU85
ARM GAS  C:\Users\xhex8\AppData\Local\Temp\ccXkJLMo.s 			page 16


 459              		.loc 1 375 24 is_stmt 0 view .LVU86
 460 0004 FFF7FEFF 		bl	HAL_GetTick
 461              	.LVL24:
 462              		.loc 1 375 24 view .LVU87
 463 0008 0500     		movs	r5, r0
 464              	.LVL25:
 376:Drivers/STM32C0xx_HAL_Driver/Src/stm32c0xx_hal.c ****   uint32_t wait = Delay;
 465              		.loc 1 376 3 is_stmt 1 view .LVU88
 377:Drivers/STM32C0xx_HAL_Driver/Src/stm32c0xx_hal.c **** 
 378:Drivers/STM32C0xx_HAL_Driver/Src/stm32c0xx_hal.c ****   /* Add a freq to guarantee minimum wait */
 379:Drivers/STM32C0xx_HAL_Driver/Src/stm32c0xx_hal.c ****   if (wait < HAL_MAX_DELAY)
 466              		.loc 1 379 3 view .LVU89
 467              		.loc 1 379 6 is_stmt 0 view .LVU90
 468 000a 631C     		adds	r3, r4, #1
 469 000c 02D0     		beq	.L39
 380:Drivers/STM32C0xx_HAL_Driver/Src/stm32c0xx_hal.c ****   {
 381:Drivers/STM32C0xx_HAL_Driver/Src/stm32c0xx_hal.c ****     wait += (uint32_t)(uwTickFreq);
 470              		.loc 1 381 5 is_stmt 1 view .LVU91
 471              		.loc 1 381 13 is_stmt 0 view .LVU92
 472 000e 044B     		ldr	r3, .L41
 473 0010 1B78     		ldrb	r3, [r3]
 474              		.loc 1 381 10 view .LVU93
 475 0012 E418     		adds	r4, r4, r3
 476              	.LVL26:
 477              	.L39:
 382:Drivers/STM32C0xx_HAL_Driver/Src/stm32c0xx_hal.c ****   }
 383:Drivers/STM32C0xx_HAL_Driver/Src/stm32c0xx_hal.c **** 
 384:Drivers/STM32C0xx_HAL_Driver/Src/stm32c0xx_hal.c ****   while ((HAL_GetTick() - tickstart) < wait)
 385:Drivers/STM32C0xx_HAL_Driver/Src/stm32c0xx_hal.c ****   {
 386:Drivers/STM32C0xx_HAL_Driver/Src/stm32c0xx_hal.c ****   }
 478              		.loc 1 386 3 is_stmt 1 discriminator 1 view .LVU94
 384:Drivers/STM32C0xx_HAL_Driver/Src/stm32c0xx_hal.c ****   {
 479              		.loc 1 384 38 discriminator 1 view .LVU95
 384:Drivers/STM32C0xx_HAL_Driver/Src/stm32c0xx_hal.c ****   {
 480              		.loc 1 384 11 is_stmt 0 discriminator 1 view .LVU96
 481 0014 FFF7FEFF 		bl	HAL_GetTick
 482              	.LVL27:
 384:Drivers/STM32C0xx_HAL_Driver/Src/stm32c0xx_hal.c ****   {
 483              		.loc 1 384 25 discriminator 1 view .LVU97
 484 0018 401B     		subs	r0, r0, r5
 384:Drivers/STM32C0xx_HAL_Driver/Src/stm32c0xx_hal.c ****   {
 485              		.loc 1 384 38 discriminator 1 view .LVU98
 486 001a A042     		cmp	r0, r4
 487 001c FAD3     		bcc	.L39
 387:Drivers/STM32C0xx_HAL_Driver/Src/stm32c0xx_hal.c **** }
 488              		.loc 1 387 1 view .LVU99
 489              		@ sp needed
 490              	.LVL28:
 491              	.LVL29:
 492              		.loc 1 387 1 view .LVU100
 493 001e 70BD     		pop	{r4, r5, r6, pc}
 494              	.L42:
 495              		.align	2
 496              	.L41:
 497 0020 00000000 		.word	uwTickFreq
 498              		.cfi_endproc
 499              	.LFE224:
ARM GAS  C:\Users\xhex8\AppData\Local\Temp\ccXkJLMo.s 			page 17


 501              		.section	.text.HAL_SuspendTick,"ax",%progbits
 502              		.align	1
 503              		.weak	HAL_SuspendTick
 504              		.syntax unified
 505              		.code	16
 506              		.thumb_func
 508              	HAL_SuspendTick:
 509              	.LFB225:
 388:Drivers/STM32C0xx_HAL_Driver/Src/stm32c0xx_hal.c **** 
 389:Drivers/STM32C0xx_HAL_Driver/Src/stm32c0xx_hal.c **** /**
 390:Drivers/STM32C0xx_HAL_Driver/Src/stm32c0xx_hal.c ****   * @brief Suspend Tick increment.
 391:Drivers/STM32C0xx_HAL_Driver/Src/stm32c0xx_hal.c ****   * @note In the default implementation , SysTick timer is the source of time base. It is
 392:Drivers/STM32C0xx_HAL_Driver/Src/stm32c0xx_hal.c ****   *       used to generate interrupts at regular time intervals. Once HAL_SuspendTick()
 393:Drivers/STM32C0xx_HAL_Driver/Src/stm32c0xx_hal.c ****   *       is called, the SysTick interrupt will be disabled and so Tick increment
 394:Drivers/STM32C0xx_HAL_Driver/Src/stm32c0xx_hal.c ****   *       is suspended.
 395:Drivers/STM32C0xx_HAL_Driver/Src/stm32c0xx_hal.c ****   * @note This function is declared as __weak to be overwritten in case of other
 396:Drivers/STM32C0xx_HAL_Driver/Src/stm32c0xx_hal.c ****   *       implementations in user file.
 397:Drivers/STM32C0xx_HAL_Driver/Src/stm32c0xx_hal.c ****   * @retval None
 398:Drivers/STM32C0xx_HAL_Driver/Src/stm32c0xx_hal.c ****   */
 399:Drivers/STM32C0xx_HAL_Driver/Src/stm32c0xx_hal.c **** __weak void HAL_SuspendTick(void)
 400:Drivers/STM32C0xx_HAL_Driver/Src/stm32c0xx_hal.c **** {
 510              		.loc 1 400 1 is_stmt 1 view -0
 511              		.cfi_startproc
 512              		@ args = 0, pretend = 0, frame = 0
 513              		@ frame_needed = 0, uses_anonymous_args = 0
 514              		@ link register save eliminated.
 401:Drivers/STM32C0xx_HAL_Driver/Src/stm32c0xx_hal.c ****   /* Disable SysTick Interrupt */
 402:Drivers/STM32C0xx_HAL_Driver/Src/stm32c0xx_hal.c ****   CLEAR_BIT(SysTick->CTRL, SysTick_CTRL_TICKINT_Msk);
 515              		.loc 1 402 3 view .LVU102
 516 0000 024A     		ldr	r2, .L44
 517 0002 1368     		ldr	r3, [r2]
 518 0004 0221     		movs	r1, #2
 519 0006 8B43     		bics	r3, r1
 520 0008 1360     		str	r3, [r2]
 403:Drivers/STM32C0xx_HAL_Driver/Src/stm32c0xx_hal.c **** }
 521              		.loc 1 403 1 is_stmt 0 view .LVU103
 522              		@ sp needed
 523 000a 7047     		bx	lr
 524              	.L45:
 525              		.align	2
 526              	.L44:
 527 000c 10E000E0 		.word	-536813552
 528              		.cfi_endproc
 529              	.LFE225:
 531              		.section	.text.HAL_ResumeTick,"ax",%progbits
 532              		.align	1
 533              		.weak	HAL_ResumeTick
 534              		.syntax unified
 535              		.code	16
 536              		.thumb_func
 538              	HAL_ResumeTick:
 539              	.LFB226:
 404:Drivers/STM32C0xx_HAL_Driver/Src/stm32c0xx_hal.c **** 
 405:Drivers/STM32C0xx_HAL_Driver/Src/stm32c0xx_hal.c **** /**
 406:Drivers/STM32C0xx_HAL_Driver/Src/stm32c0xx_hal.c ****   * @brief Resume Tick increment.
 407:Drivers/STM32C0xx_HAL_Driver/Src/stm32c0xx_hal.c ****   * @note In the default implementation , SysTick timer is the source of time base. It is
 408:Drivers/STM32C0xx_HAL_Driver/Src/stm32c0xx_hal.c ****   *       used to generate interrupts at regular time intervals. Once HAL_ResumeTick()
ARM GAS  C:\Users\xhex8\AppData\Local\Temp\ccXkJLMo.s 			page 18


 409:Drivers/STM32C0xx_HAL_Driver/Src/stm32c0xx_hal.c ****   *       is called, the SysTick interrupt will be enabled and so Tick increment
 410:Drivers/STM32C0xx_HAL_Driver/Src/stm32c0xx_hal.c ****   *       is resumed.
 411:Drivers/STM32C0xx_HAL_Driver/Src/stm32c0xx_hal.c ****   * @note This function is declared as __weak to be overwritten in case of other
 412:Drivers/STM32C0xx_HAL_Driver/Src/stm32c0xx_hal.c ****   *       implementations in user file.
 413:Drivers/STM32C0xx_HAL_Driver/Src/stm32c0xx_hal.c ****   * @retval None
 414:Drivers/STM32C0xx_HAL_Driver/Src/stm32c0xx_hal.c ****   */
 415:Drivers/STM32C0xx_HAL_Driver/Src/stm32c0xx_hal.c **** __weak void HAL_ResumeTick(void)
 416:Drivers/STM32C0xx_HAL_Driver/Src/stm32c0xx_hal.c **** {
 540              		.loc 1 416 1 is_stmt 1 view -0
 541              		.cfi_startproc
 542              		@ args = 0, pretend = 0, frame = 0
 543              		@ frame_needed = 0, uses_anonymous_args = 0
 544              		@ link register save eliminated.
 417:Drivers/STM32C0xx_HAL_Driver/Src/stm32c0xx_hal.c ****   /* Enable SysTick Interrupt */
 418:Drivers/STM32C0xx_HAL_Driver/Src/stm32c0xx_hal.c ****   SET_BIT(SysTick->CTRL, SysTick_CTRL_TICKINT_Msk);
 545              		.loc 1 418 3 view .LVU105
 546 0000 024A     		ldr	r2, .L47
 547 0002 1368     		ldr	r3, [r2]
 548 0004 0221     		movs	r1, #2
 549 0006 0B43     		orrs	r3, r1
 550 0008 1360     		str	r3, [r2]
 419:Drivers/STM32C0xx_HAL_Driver/Src/stm32c0xx_hal.c **** }
 551              		.loc 1 419 1 is_stmt 0 view .LVU106
 552              		@ sp needed
 553 000a 7047     		bx	lr
 554              	.L48:
 555              		.align	2
 556              	.L47:
 557 000c 10E000E0 		.word	-536813552
 558              		.cfi_endproc
 559              	.LFE226:
 561              		.section	.text.HAL_GetHalVersion,"ax",%progbits
 562              		.align	1
 563              		.global	HAL_GetHalVersion
 564              		.syntax unified
 565              		.code	16
 566              		.thumb_func
 568              	HAL_GetHalVersion:
 569              	.LFB227:
 420:Drivers/STM32C0xx_HAL_Driver/Src/stm32c0xx_hal.c **** 
 421:Drivers/STM32C0xx_HAL_Driver/Src/stm32c0xx_hal.c **** /**
 422:Drivers/STM32C0xx_HAL_Driver/Src/stm32c0xx_hal.c ****   * @brief  Returns the HAL revision
 423:Drivers/STM32C0xx_HAL_Driver/Src/stm32c0xx_hal.c ****   * @retval version : 0xXYZR (8bits for each decimal, R for RC)
 424:Drivers/STM32C0xx_HAL_Driver/Src/stm32c0xx_hal.c ****   */
 425:Drivers/STM32C0xx_HAL_Driver/Src/stm32c0xx_hal.c **** uint32_t HAL_GetHalVersion(void)
 426:Drivers/STM32C0xx_HAL_Driver/Src/stm32c0xx_hal.c **** {
 570              		.loc 1 426 1 is_stmt 1 view -0
 571              		.cfi_startproc
 572              		@ args = 0, pretend = 0, frame = 0
 573              		@ frame_needed = 0, uses_anonymous_args = 0
 574              		@ link register save eliminated.
 427:Drivers/STM32C0xx_HAL_Driver/Src/stm32c0xx_hal.c ****   return __STM32C0xx_HAL_VERSION;
 575              		.loc 1 427 3 view .LVU108
 428:Drivers/STM32C0xx_HAL_Driver/Src/stm32c0xx_hal.c **** }
 576              		.loc 1 428 1 is_stmt 0 view .LVU109
 577 0000 0048     		ldr	r0, .L50
 578              		@ sp needed
ARM GAS  C:\Users\xhex8\AppData\Local\Temp\ccXkJLMo.s 			page 19


 579 0002 7047     		bx	lr
 580              	.L51:
 581              		.align	2
 582              	.L50:
 583 0004 00000101 		.word	16842752
 584              		.cfi_endproc
 585              	.LFE227:
 587              		.section	.text.HAL_GetREVID,"ax",%progbits
 588              		.align	1
 589              		.global	HAL_GetREVID
 590              		.syntax unified
 591              		.code	16
 592              		.thumb_func
 594              	HAL_GetREVID:
 595              	.LFB228:
 429:Drivers/STM32C0xx_HAL_Driver/Src/stm32c0xx_hal.c **** 
 430:Drivers/STM32C0xx_HAL_Driver/Src/stm32c0xx_hal.c **** /**
 431:Drivers/STM32C0xx_HAL_Driver/Src/stm32c0xx_hal.c ****   * @brief  Returns the device revision identifier.
 432:Drivers/STM32C0xx_HAL_Driver/Src/stm32c0xx_hal.c ****   * @retval Device revision identifier
 433:Drivers/STM32C0xx_HAL_Driver/Src/stm32c0xx_hal.c ****   */
 434:Drivers/STM32C0xx_HAL_Driver/Src/stm32c0xx_hal.c **** uint32_t HAL_GetREVID(void)
 435:Drivers/STM32C0xx_HAL_Driver/Src/stm32c0xx_hal.c **** {
 596              		.loc 1 435 1 is_stmt 1 view -0
 597              		.cfi_startproc
 598              		@ args = 0, pretend = 0, frame = 0
 599              		@ frame_needed = 0, uses_anonymous_args = 0
 600              		@ link register save eliminated.
 436:Drivers/STM32C0xx_HAL_Driver/Src/stm32c0xx_hal.c ****   return ((DBG->IDCODE & DBG_IDCODE_REV_ID) >> 16U);
 601              		.loc 1 436 3 view .LVU111
 602              		.loc 1 436 15 is_stmt 0 view .LVU112
 603 0000 014B     		ldr	r3, .L53
 604 0002 1868     		ldr	r0, [r3]
 605              		.loc 1 436 45 view .LVU113
 606 0004 000C     		lsrs	r0, r0, #16
 437:Drivers/STM32C0xx_HAL_Driver/Src/stm32c0xx_hal.c **** }
 607              		.loc 1 437 1 view .LVU114
 608              		@ sp needed
 609 0006 7047     		bx	lr
 610              	.L54:
 611              		.align	2
 612              	.L53:
 613 0008 00580140 		.word	1073829888
 614              		.cfi_endproc
 615              	.LFE228:
 617              		.section	.text.HAL_GetDEVID,"ax",%progbits
 618              		.align	1
 619              		.global	HAL_GetDEVID
 620              		.syntax unified
 621              		.code	16
 622              		.thumb_func
 624              	HAL_GetDEVID:
 625              	.LFB229:
 438:Drivers/STM32C0xx_HAL_Driver/Src/stm32c0xx_hal.c **** 
 439:Drivers/STM32C0xx_HAL_Driver/Src/stm32c0xx_hal.c **** /**
 440:Drivers/STM32C0xx_HAL_Driver/Src/stm32c0xx_hal.c ****   * @brief  Returns the device identifier.
 441:Drivers/STM32C0xx_HAL_Driver/Src/stm32c0xx_hal.c ****   * @retval Device identifier
 442:Drivers/STM32C0xx_HAL_Driver/Src/stm32c0xx_hal.c ****   */
ARM GAS  C:\Users\xhex8\AppData\Local\Temp\ccXkJLMo.s 			page 20


 443:Drivers/STM32C0xx_HAL_Driver/Src/stm32c0xx_hal.c **** uint32_t HAL_GetDEVID(void)
 444:Drivers/STM32C0xx_HAL_Driver/Src/stm32c0xx_hal.c **** {
 626              		.loc 1 444 1 is_stmt 1 view -0
 627              		.cfi_startproc
 628              		@ args = 0, pretend = 0, frame = 0
 629              		@ frame_needed = 0, uses_anonymous_args = 0
 630              		@ link register save eliminated.
 445:Drivers/STM32C0xx_HAL_Driver/Src/stm32c0xx_hal.c ****   return ((DBG->IDCODE) & DBG_IDCODE_DEV_ID);
 631              		.loc 1 445 3 view .LVU116
 632              		.loc 1 445 15 is_stmt 0 view .LVU117
 633 0000 024B     		ldr	r3, .L56
 634 0002 1868     		ldr	r0, [r3]
 635              		.loc 1 445 25 view .LVU118
 636 0004 0005     		lsls	r0, r0, #20
 637 0006 000D     		lsrs	r0, r0, #20
 446:Drivers/STM32C0xx_HAL_Driver/Src/stm32c0xx_hal.c **** }
 638              		.loc 1 446 1 view .LVU119
 639              		@ sp needed
 640 0008 7047     		bx	lr
 641              	.L57:
 642 000a C046     		.align	2
 643              	.L56:
 644 000c 00580140 		.word	1073829888
 645              		.cfi_endproc
 646              	.LFE229:
 648              		.section	.text.HAL_GetUIDw0,"ax",%progbits
 649              		.align	1
 650              		.global	HAL_GetUIDw0
 651              		.syntax unified
 652              		.code	16
 653              		.thumb_func
 655              	HAL_GetUIDw0:
 656              	.LFB230:
 447:Drivers/STM32C0xx_HAL_Driver/Src/stm32c0xx_hal.c **** 
 448:Drivers/STM32C0xx_HAL_Driver/Src/stm32c0xx_hal.c **** /**
 449:Drivers/STM32C0xx_HAL_Driver/Src/stm32c0xx_hal.c ****   * @brief  Returns first word of the unique device identifier (UID based on 96 bits)
 450:Drivers/STM32C0xx_HAL_Driver/Src/stm32c0xx_hal.c ****   * @retval Device identifier
 451:Drivers/STM32C0xx_HAL_Driver/Src/stm32c0xx_hal.c ****   */
 452:Drivers/STM32C0xx_HAL_Driver/Src/stm32c0xx_hal.c **** uint32_t HAL_GetUIDw0(void)
 453:Drivers/STM32C0xx_HAL_Driver/Src/stm32c0xx_hal.c **** {
 657              		.loc 1 453 1 is_stmt 1 view -0
 658              		.cfi_startproc
 659              		@ args = 0, pretend = 0, frame = 0
 660              		@ frame_needed = 0, uses_anonymous_args = 0
 661              		@ link register save eliminated.
 454:Drivers/STM32C0xx_HAL_Driver/Src/stm32c0xx_hal.c ****   return (READ_REG(*((uint32_t *)UID_BASE)));
 662              		.loc 1 454 3 view .LVU121
 663              		.loc 1 454 11 is_stmt 0 view .LVU122
 664 0000 014B     		ldr	r3, .L59
 665 0002 1868     		ldr	r0, [r3]
 455:Drivers/STM32C0xx_HAL_Driver/Src/stm32c0xx_hal.c **** }
 666              		.loc 1 455 1 view .LVU123
 667              		@ sp needed
 668 0004 7047     		bx	lr
 669              	.L60:
 670 0006 C046     		.align	2
 671              	.L59:
ARM GAS  C:\Users\xhex8\AppData\Local\Temp\ccXkJLMo.s 			page 21


 672 0008 5075FF1F 		.word	536835408
 673              		.cfi_endproc
 674              	.LFE230:
 676              		.section	.text.HAL_GetUIDw1,"ax",%progbits
 677              		.align	1
 678              		.global	HAL_GetUIDw1
 679              		.syntax unified
 680              		.code	16
 681              		.thumb_func
 683              	HAL_GetUIDw1:
 684              	.LFB231:
 456:Drivers/STM32C0xx_HAL_Driver/Src/stm32c0xx_hal.c **** 
 457:Drivers/STM32C0xx_HAL_Driver/Src/stm32c0xx_hal.c **** /**
 458:Drivers/STM32C0xx_HAL_Driver/Src/stm32c0xx_hal.c ****   * @brief  Returns second word of the unique device identifier (UID based on 96 bits)
 459:Drivers/STM32C0xx_HAL_Driver/Src/stm32c0xx_hal.c ****   * @retval Device identifier
 460:Drivers/STM32C0xx_HAL_Driver/Src/stm32c0xx_hal.c ****   */
 461:Drivers/STM32C0xx_HAL_Driver/Src/stm32c0xx_hal.c **** uint32_t HAL_GetUIDw1(void)
 462:Drivers/STM32C0xx_HAL_Driver/Src/stm32c0xx_hal.c **** {
 685              		.loc 1 462 1 is_stmt 1 view -0
 686              		.cfi_startproc
 687              		@ args = 0, pretend = 0, frame = 0
 688              		@ frame_needed = 0, uses_anonymous_args = 0
 689              		@ link register save eliminated.
 463:Drivers/STM32C0xx_HAL_Driver/Src/stm32c0xx_hal.c ****   return (READ_REG(*((uint32_t *)(UID_BASE + 4U))));
 690              		.loc 1 463 3 view .LVU125
 691              		.loc 1 463 11 is_stmt 0 view .LVU126
 692 0000 014B     		ldr	r3, .L62
 693 0002 1868     		ldr	r0, [r3]
 464:Drivers/STM32C0xx_HAL_Driver/Src/stm32c0xx_hal.c **** }
 694              		.loc 1 464 1 view .LVU127
 695              		@ sp needed
 696 0004 7047     		bx	lr
 697              	.L63:
 698 0006 C046     		.align	2
 699              	.L62:
 700 0008 5475FF1F 		.word	536835412
 701              		.cfi_endproc
 702              	.LFE231:
 704              		.section	.text.HAL_GetUIDw2,"ax",%progbits
 705              		.align	1
 706              		.global	HAL_GetUIDw2
 707              		.syntax unified
 708              		.code	16
 709              		.thumb_func
 711              	HAL_GetUIDw2:
 712              	.LFB232:
 465:Drivers/STM32C0xx_HAL_Driver/Src/stm32c0xx_hal.c **** 
 466:Drivers/STM32C0xx_HAL_Driver/Src/stm32c0xx_hal.c **** /**
 467:Drivers/STM32C0xx_HAL_Driver/Src/stm32c0xx_hal.c ****   * @brief  Returns third word of the unique device identifier (UID based on 96 bits)
 468:Drivers/STM32C0xx_HAL_Driver/Src/stm32c0xx_hal.c ****   * @retval Device identifier
 469:Drivers/STM32C0xx_HAL_Driver/Src/stm32c0xx_hal.c ****   */
 470:Drivers/STM32C0xx_HAL_Driver/Src/stm32c0xx_hal.c **** uint32_t HAL_GetUIDw2(void)
 471:Drivers/STM32C0xx_HAL_Driver/Src/stm32c0xx_hal.c **** {
 713              		.loc 1 471 1 is_stmt 1 view -0
 714              		.cfi_startproc
 715              		@ args = 0, pretend = 0, frame = 0
 716              		@ frame_needed = 0, uses_anonymous_args = 0
ARM GAS  C:\Users\xhex8\AppData\Local\Temp\ccXkJLMo.s 			page 22


 717              		@ link register save eliminated.
 472:Drivers/STM32C0xx_HAL_Driver/Src/stm32c0xx_hal.c ****   return (READ_REG(*((uint32_t *)(UID_BASE + 8U))));
 718              		.loc 1 472 3 view .LVU129
 719              		.loc 1 472 11 is_stmt 0 view .LVU130
 720 0000 014B     		ldr	r3, .L65
 721 0002 1868     		ldr	r0, [r3]
 473:Drivers/STM32C0xx_HAL_Driver/Src/stm32c0xx_hal.c **** }
 722              		.loc 1 473 1 view .LVU131
 723              		@ sp needed
 724 0004 7047     		bx	lr
 725              	.L66:
 726 0006 C046     		.align	2
 727              	.L65:
 728 0008 5875FF1F 		.word	536835416
 729              		.cfi_endproc
 730              	.LFE232:
 732              		.section	.text.HAL_DBGMCU_EnableDBGStopMode,"ax",%progbits
 733              		.align	1
 734              		.global	HAL_DBGMCU_EnableDBGStopMode
 735              		.syntax unified
 736              		.code	16
 737              		.thumb_func
 739              	HAL_DBGMCU_EnableDBGStopMode:
 740              	.LFB233:
 474:Drivers/STM32C0xx_HAL_Driver/Src/stm32c0xx_hal.c **** 
 475:Drivers/STM32C0xx_HAL_Driver/Src/stm32c0xx_hal.c **** /**
 476:Drivers/STM32C0xx_HAL_Driver/Src/stm32c0xx_hal.c ****   * @}
 477:Drivers/STM32C0xx_HAL_Driver/Src/stm32c0xx_hal.c ****   */
 478:Drivers/STM32C0xx_HAL_Driver/Src/stm32c0xx_hal.c **** 
 479:Drivers/STM32C0xx_HAL_Driver/Src/stm32c0xx_hal.c **** /** @addtogroup HAL_Exported_Functions_Group3
 480:Drivers/STM32C0xx_HAL_Driver/Src/stm32c0xx_hal.c ****   *  @brief    HAL Debug functions
 481:Drivers/STM32C0xx_HAL_Driver/Src/stm32c0xx_hal.c ****   *
 482:Drivers/STM32C0xx_HAL_Driver/Src/stm32c0xx_hal.c **** @verbatim
 483:Drivers/STM32C0xx_HAL_Driver/Src/stm32c0xx_hal.c ****  ===============================================================================
 484:Drivers/STM32C0xx_HAL_Driver/Src/stm32c0xx_hal.c ****                       ##### HAL Debug functions #####
 485:Drivers/STM32C0xx_HAL_Driver/Src/stm32c0xx_hal.c ****  ===============================================================================
 486:Drivers/STM32C0xx_HAL_Driver/Src/stm32c0xx_hal.c ****     [..]  This section provides functions allowing to:
 487:Drivers/STM32C0xx_HAL_Driver/Src/stm32c0xx_hal.c ****       (+) Enable/Disable Debug module during STOP mode
 488:Drivers/STM32C0xx_HAL_Driver/Src/stm32c0xx_hal.c ****       (+) Enable/Disable Debug module during STANDBY mode
 489:Drivers/STM32C0xx_HAL_Driver/Src/stm32c0xx_hal.c **** 
 490:Drivers/STM32C0xx_HAL_Driver/Src/stm32c0xx_hal.c **** @endverbatim
 491:Drivers/STM32C0xx_HAL_Driver/Src/stm32c0xx_hal.c ****   * @{
 492:Drivers/STM32C0xx_HAL_Driver/Src/stm32c0xx_hal.c ****   */
 493:Drivers/STM32C0xx_HAL_Driver/Src/stm32c0xx_hal.c **** 
 494:Drivers/STM32C0xx_HAL_Driver/Src/stm32c0xx_hal.c **** /**
 495:Drivers/STM32C0xx_HAL_Driver/Src/stm32c0xx_hal.c ****   * @brief  Enable the Debug Module during STOP mode
 496:Drivers/STM32C0xx_HAL_Driver/Src/stm32c0xx_hal.c ****   * @retval None
 497:Drivers/STM32C0xx_HAL_Driver/Src/stm32c0xx_hal.c ****   */
 498:Drivers/STM32C0xx_HAL_Driver/Src/stm32c0xx_hal.c **** void HAL_DBGMCU_EnableDBGStopMode(void)
 499:Drivers/STM32C0xx_HAL_Driver/Src/stm32c0xx_hal.c **** {
 741              		.loc 1 499 1 is_stmt 1 view -0
 742              		.cfi_startproc
 743              		@ args = 0, pretend = 0, frame = 0
 744              		@ frame_needed = 0, uses_anonymous_args = 0
 745              		@ link register save eliminated.
 500:Drivers/STM32C0xx_HAL_Driver/Src/stm32c0xx_hal.c ****   SET_BIT(DBG->CR, DBG_CR_DBG_STOP);
 746              		.loc 1 500 3 view .LVU133
ARM GAS  C:\Users\xhex8\AppData\Local\Temp\ccXkJLMo.s 			page 23


 747 0000 024A     		ldr	r2, .L68
 748 0002 5368     		ldr	r3, [r2, #4]
 749 0004 0221     		movs	r1, #2
 750 0006 0B43     		orrs	r3, r1
 751 0008 5360     		str	r3, [r2, #4]
 501:Drivers/STM32C0xx_HAL_Driver/Src/stm32c0xx_hal.c **** }
 752              		.loc 1 501 1 is_stmt 0 view .LVU134
 753              		@ sp needed
 754 000a 7047     		bx	lr
 755              	.L69:
 756              		.align	2
 757              	.L68:
 758 000c 00580140 		.word	1073829888
 759              		.cfi_endproc
 760              	.LFE233:
 762              		.section	.text.HAL_DBGMCU_DisableDBGStopMode,"ax",%progbits
 763              		.align	1
 764              		.global	HAL_DBGMCU_DisableDBGStopMode
 765              		.syntax unified
 766              		.code	16
 767              		.thumb_func
 769              	HAL_DBGMCU_DisableDBGStopMode:
 770              	.LFB234:
 502:Drivers/STM32C0xx_HAL_Driver/Src/stm32c0xx_hal.c **** 
 503:Drivers/STM32C0xx_HAL_Driver/Src/stm32c0xx_hal.c **** /**
 504:Drivers/STM32C0xx_HAL_Driver/Src/stm32c0xx_hal.c ****   * @brief  Disable the Debug Module during STOP mode
 505:Drivers/STM32C0xx_HAL_Driver/Src/stm32c0xx_hal.c ****   * @retval None
 506:Drivers/STM32C0xx_HAL_Driver/Src/stm32c0xx_hal.c ****   */
 507:Drivers/STM32C0xx_HAL_Driver/Src/stm32c0xx_hal.c **** void HAL_DBGMCU_DisableDBGStopMode(void)
 508:Drivers/STM32C0xx_HAL_Driver/Src/stm32c0xx_hal.c **** {
 771              		.loc 1 508 1 is_stmt 1 view -0
 772              		.cfi_startproc
 773              		@ args = 0, pretend = 0, frame = 0
 774              		@ frame_needed = 0, uses_anonymous_args = 0
 775              		@ link register save eliminated.
 509:Drivers/STM32C0xx_HAL_Driver/Src/stm32c0xx_hal.c ****   CLEAR_BIT(DBG->CR, DBG_CR_DBG_STOP);
 776              		.loc 1 509 3 view .LVU136
 777 0000 024A     		ldr	r2, .L71
 778 0002 5368     		ldr	r3, [r2, #4]
 779 0004 0221     		movs	r1, #2
 780 0006 8B43     		bics	r3, r1
 781 0008 5360     		str	r3, [r2, #4]
 510:Drivers/STM32C0xx_HAL_Driver/Src/stm32c0xx_hal.c **** }
 782              		.loc 1 510 1 is_stmt 0 view .LVU137
 783              		@ sp needed
 784 000a 7047     		bx	lr
 785              	.L72:
 786              		.align	2
 787              	.L71:
 788 000c 00580140 		.word	1073829888
 789              		.cfi_endproc
 790              	.LFE234:
 792              		.section	.text.HAL_DBGMCU_EnableDBGStandbyMode,"ax",%progbits
 793              		.align	1
 794              		.global	HAL_DBGMCU_EnableDBGStandbyMode
 795              		.syntax unified
 796              		.code	16
ARM GAS  C:\Users\xhex8\AppData\Local\Temp\ccXkJLMo.s 			page 24


 797              		.thumb_func
 799              	HAL_DBGMCU_EnableDBGStandbyMode:
 800              	.LFB235:
 511:Drivers/STM32C0xx_HAL_Driver/Src/stm32c0xx_hal.c **** 
 512:Drivers/STM32C0xx_HAL_Driver/Src/stm32c0xx_hal.c **** /**
 513:Drivers/STM32C0xx_HAL_Driver/Src/stm32c0xx_hal.c ****   * @brief  Enable the Debug Module during STANDBY mode
 514:Drivers/STM32C0xx_HAL_Driver/Src/stm32c0xx_hal.c ****   * @retval None
 515:Drivers/STM32C0xx_HAL_Driver/Src/stm32c0xx_hal.c ****   */
 516:Drivers/STM32C0xx_HAL_Driver/Src/stm32c0xx_hal.c **** void HAL_DBGMCU_EnableDBGStandbyMode(void)
 517:Drivers/STM32C0xx_HAL_Driver/Src/stm32c0xx_hal.c **** {
 801              		.loc 1 517 1 is_stmt 1 view -0
 802              		.cfi_startproc
 803              		@ args = 0, pretend = 0, frame = 0
 804              		@ frame_needed = 0, uses_anonymous_args = 0
 805              		@ link register save eliminated.
 518:Drivers/STM32C0xx_HAL_Driver/Src/stm32c0xx_hal.c ****   SET_BIT(DBG->CR, DBG_CR_DBG_STANDBY);
 806              		.loc 1 518 3 view .LVU139
 807 0000 024A     		ldr	r2, .L74
 808 0002 5368     		ldr	r3, [r2, #4]
 809 0004 0421     		movs	r1, #4
 810 0006 0B43     		orrs	r3, r1
 811 0008 5360     		str	r3, [r2, #4]
 519:Drivers/STM32C0xx_HAL_Driver/Src/stm32c0xx_hal.c **** }
 812              		.loc 1 519 1 is_stmt 0 view .LVU140
 813              		@ sp needed
 814 000a 7047     		bx	lr
 815              	.L75:
 816              		.align	2
 817              	.L74:
 818 000c 00580140 		.word	1073829888
 819              		.cfi_endproc
 820              	.LFE235:
 822              		.section	.text.HAL_DBGMCU_DisableDBGStandbyMode,"ax",%progbits
 823              		.align	1
 824              		.global	HAL_DBGMCU_DisableDBGStandbyMode
 825              		.syntax unified
 826              		.code	16
 827              		.thumb_func
 829              	HAL_DBGMCU_DisableDBGStandbyMode:
 830              	.LFB236:
 520:Drivers/STM32C0xx_HAL_Driver/Src/stm32c0xx_hal.c **** 
 521:Drivers/STM32C0xx_HAL_Driver/Src/stm32c0xx_hal.c **** /**
 522:Drivers/STM32C0xx_HAL_Driver/Src/stm32c0xx_hal.c ****   * @brief  Disable the Debug Module during STANDBY mode
 523:Drivers/STM32C0xx_HAL_Driver/Src/stm32c0xx_hal.c ****   * @retval None
 524:Drivers/STM32C0xx_HAL_Driver/Src/stm32c0xx_hal.c ****   */
 525:Drivers/STM32C0xx_HAL_Driver/Src/stm32c0xx_hal.c **** void HAL_DBGMCU_DisableDBGStandbyMode(void)
 526:Drivers/STM32C0xx_HAL_Driver/Src/stm32c0xx_hal.c **** {
 831              		.loc 1 526 1 is_stmt 1 view -0
 832              		.cfi_startproc
 833              		@ args = 0, pretend = 0, frame = 0
 834              		@ frame_needed = 0, uses_anonymous_args = 0
 835              		@ link register save eliminated.
 527:Drivers/STM32C0xx_HAL_Driver/Src/stm32c0xx_hal.c ****   CLEAR_BIT(DBG->CR, DBG_CR_DBG_STANDBY);
 836              		.loc 1 527 3 view .LVU142
 837 0000 024A     		ldr	r2, .L77
 838 0002 5368     		ldr	r3, [r2, #4]
 839 0004 0421     		movs	r1, #4
ARM GAS  C:\Users\xhex8\AppData\Local\Temp\ccXkJLMo.s 			page 25


 840 0006 8B43     		bics	r3, r1
 841 0008 5360     		str	r3, [r2, #4]
 528:Drivers/STM32C0xx_HAL_Driver/Src/stm32c0xx_hal.c **** }
 842              		.loc 1 528 1 is_stmt 0 view .LVU143
 843              		@ sp needed
 844 000a 7047     		bx	lr
 845              	.L78:
 846              		.align	2
 847              	.L77:
 848 000c 00580140 		.word	1073829888
 849              		.cfi_endproc
 850              	.LFE236:
 852              		.section	.text.HAL_SYSCFG_EnableIOAnalogSwitchBooster,"ax",%progbits
 853              		.align	1
 854              		.global	HAL_SYSCFG_EnableIOAnalogSwitchBooster
 855              		.syntax unified
 856              		.code	16
 857              		.thumb_func
 859              	HAL_SYSCFG_EnableIOAnalogSwitchBooster:
 860              	.LFB237:
 529:Drivers/STM32C0xx_HAL_Driver/Src/stm32c0xx_hal.c **** 
 530:Drivers/STM32C0xx_HAL_Driver/Src/stm32c0xx_hal.c **** /**
 531:Drivers/STM32C0xx_HAL_Driver/Src/stm32c0xx_hal.c ****   * @}
 532:Drivers/STM32C0xx_HAL_Driver/Src/stm32c0xx_hal.c ****   */
 533:Drivers/STM32C0xx_HAL_Driver/Src/stm32c0xx_hal.c **** 
 534:Drivers/STM32C0xx_HAL_Driver/Src/stm32c0xx_hal.c **** /** @addtogroup HAL_Exported_Functions_Group4
 535:Drivers/STM32C0xx_HAL_Driver/Src/stm32c0xx_hal.c ****   *  @brief    SYSCFG configuration functions
 536:Drivers/STM32C0xx_HAL_Driver/Src/stm32c0xx_hal.c ****   *
 537:Drivers/STM32C0xx_HAL_Driver/Src/stm32c0xx_hal.c **** @verbatim
 538:Drivers/STM32C0xx_HAL_Driver/Src/stm32c0xx_hal.c ****  ===============================================================================
 539:Drivers/STM32C0xx_HAL_Driver/Src/stm32c0xx_hal.c ****                       ##### HAL SYSCFG configuration functions #####
 540:Drivers/STM32C0xx_HAL_Driver/Src/stm32c0xx_hal.c ****  ===============================================================================
 541:Drivers/STM32C0xx_HAL_Driver/Src/stm32c0xx_hal.c ****     [..]  This section provides functions allowing to:
 542:Drivers/STM32C0xx_HAL_Driver/Src/stm32c0xx_hal.c ****       (+) Enable/Disable Pin remap
 543:Drivers/STM32C0xx_HAL_Driver/Src/stm32c0xx_hal.c ****       (+) Enable/Disable the I/O analog switch voltage booster
 544:Drivers/STM32C0xx_HAL_Driver/Src/stm32c0xx_hal.c **** @endverbatim
 545:Drivers/STM32C0xx_HAL_Driver/Src/stm32c0xx_hal.c ****   * @{
 546:Drivers/STM32C0xx_HAL_Driver/Src/stm32c0xx_hal.c ****   */
 547:Drivers/STM32C0xx_HAL_Driver/Src/stm32c0xx_hal.c **** 
 548:Drivers/STM32C0xx_HAL_Driver/Src/stm32c0xx_hal.c **** 
 549:Drivers/STM32C0xx_HAL_Driver/Src/stm32c0xx_hal.c **** /**
 550:Drivers/STM32C0xx_HAL_Driver/Src/stm32c0xx_hal.c ****   * @brief  Enable the I/O analog switch voltage booster
 551:Drivers/STM32C0xx_HAL_Driver/Src/stm32c0xx_hal.c ****   * @retval None
 552:Drivers/STM32C0xx_HAL_Driver/Src/stm32c0xx_hal.c ****   */
 553:Drivers/STM32C0xx_HAL_Driver/Src/stm32c0xx_hal.c **** void HAL_SYSCFG_EnableIOAnalogSwitchBooster(void)
 554:Drivers/STM32C0xx_HAL_Driver/Src/stm32c0xx_hal.c **** {
 861              		.loc 1 554 1 is_stmt 1 view -0
 862              		.cfi_startproc
 863              		@ args = 0, pretend = 0, frame = 0
 864              		@ frame_needed = 0, uses_anonymous_args = 0
 865              		@ link register save eliminated.
 555:Drivers/STM32C0xx_HAL_Driver/Src/stm32c0xx_hal.c ****   SET_BIT(SYSCFG->CFGR1, SYSCFG_CFGR1_BOOSTEN);
 866              		.loc 1 555 3 view .LVU145
 867 0000 034A     		ldr	r2, .L80
 868 0002 1168     		ldr	r1, [r2]
 869 0004 8023     		movs	r3, #128
 870 0006 5B00     		lsls	r3, r3, #1
ARM GAS  C:\Users\xhex8\AppData\Local\Temp\ccXkJLMo.s 			page 26


 871 0008 0B43     		orrs	r3, r1
 872 000a 1360     		str	r3, [r2]
 556:Drivers/STM32C0xx_HAL_Driver/Src/stm32c0xx_hal.c **** }
 873              		.loc 1 556 1 is_stmt 0 view .LVU146
 874              		@ sp needed
 875 000c 7047     		bx	lr
 876              	.L81:
 877 000e C046     		.align	2
 878              	.L80:
 879 0010 00000140 		.word	1073807360
 880              		.cfi_endproc
 881              	.LFE237:
 883              		.section	.text.HAL_SYSCFG_DisableIOAnalogSwitchBooster,"ax",%progbits
 884              		.align	1
 885              		.global	HAL_SYSCFG_DisableIOAnalogSwitchBooster
 886              		.syntax unified
 887              		.code	16
 888              		.thumb_func
 890              	HAL_SYSCFG_DisableIOAnalogSwitchBooster:
 891              	.LFB238:
 557:Drivers/STM32C0xx_HAL_Driver/Src/stm32c0xx_hal.c **** 
 558:Drivers/STM32C0xx_HAL_Driver/Src/stm32c0xx_hal.c **** /**
 559:Drivers/STM32C0xx_HAL_Driver/Src/stm32c0xx_hal.c ****   * @brief  Disable the I/O analog switch voltage booster
 560:Drivers/STM32C0xx_HAL_Driver/Src/stm32c0xx_hal.c ****   * @retval None
 561:Drivers/STM32C0xx_HAL_Driver/Src/stm32c0xx_hal.c ****   */
 562:Drivers/STM32C0xx_HAL_Driver/Src/stm32c0xx_hal.c **** void HAL_SYSCFG_DisableIOAnalogSwitchBooster(void)
 563:Drivers/STM32C0xx_HAL_Driver/Src/stm32c0xx_hal.c **** {
 892              		.loc 1 563 1 is_stmt 1 view -0
 893              		.cfi_startproc
 894              		@ args = 0, pretend = 0, frame = 0
 895              		@ frame_needed = 0, uses_anonymous_args = 0
 896              		@ link register save eliminated.
 564:Drivers/STM32C0xx_HAL_Driver/Src/stm32c0xx_hal.c ****   CLEAR_BIT(SYSCFG->CFGR1, SYSCFG_CFGR1_BOOSTEN);
 897              		.loc 1 564 3 view .LVU148
 898 0000 024A     		ldr	r2, .L83
 899 0002 1368     		ldr	r3, [r2]
 900 0004 0249     		ldr	r1, .L83+4
 901 0006 0B40     		ands	r3, r1
 902 0008 1360     		str	r3, [r2]
 565:Drivers/STM32C0xx_HAL_Driver/Src/stm32c0xx_hal.c **** }
 903              		.loc 1 565 1 is_stmt 0 view .LVU149
 904              		@ sp needed
 905 000a 7047     		bx	lr
 906              	.L84:
 907              		.align	2
 908              	.L83:
 909 000c 00000140 		.word	1073807360
 910 0010 FFFEFFFF 		.word	-257
 911              		.cfi_endproc
 912              	.LFE238:
 914              		.section	.text.HAL_SYSCFG_EnableRemap,"ax",%progbits
 915              		.align	1
 916              		.global	HAL_SYSCFG_EnableRemap
 917              		.syntax unified
 918              		.code	16
 919              		.thumb_func
 921              	HAL_SYSCFG_EnableRemap:
ARM GAS  C:\Users\xhex8\AppData\Local\Temp\ccXkJLMo.s 			page 27


 922              	.LVL30:
 923              	.LFB239:
 566:Drivers/STM32C0xx_HAL_Driver/Src/stm32c0xx_hal.c **** 
 567:Drivers/STM32C0xx_HAL_Driver/Src/stm32c0xx_hal.c **** /**
 568:Drivers/STM32C0xx_HAL_Driver/Src/stm32c0xx_hal.c ****   * @brief  Enable the remap on PA11_PA12
 569:Drivers/STM32C0xx_HAL_Driver/Src/stm32c0xx_hal.c ****   * @param  PinRemap specifies which pins have to be remapped
 570:Drivers/STM32C0xx_HAL_Driver/Src/stm32c0xx_hal.c ****   *         This parameter can be any combination of the following values:
 571:Drivers/STM32C0xx_HAL_Driver/Src/stm32c0xx_hal.c ****   *         @arg @ref SYSCFG_REMAP_PA11
 572:Drivers/STM32C0xx_HAL_Driver/Src/stm32c0xx_hal.c ****   *         @arg @ref SYSCFG_REMAP_PA12
 573:Drivers/STM32C0xx_HAL_Driver/Src/stm32c0xx_hal.c ****   * @retval None
 574:Drivers/STM32C0xx_HAL_Driver/Src/stm32c0xx_hal.c ****   */
 575:Drivers/STM32C0xx_HAL_Driver/Src/stm32c0xx_hal.c **** void HAL_SYSCFG_EnableRemap(uint32_t PinRemap)
 576:Drivers/STM32C0xx_HAL_Driver/Src/stm32c0xx_hal.c **** {
 924              		.loc 1 576 1 is_stmt 1 view -0
 925              		.cfi_startproc
 926              		@ args = 0, pretend = 0, frame = 0
 927              		@ frame_needed = 0, uses_anonymous_args = 0
 928              		@ link register save eliminated.
 577:Drivers/STM32C0xx_HAL_Driver/Src/stm32c0xx_hal.c ****   /* Check the parameter */
 578:Drivers/STM32C0xx_HAL_Driver/Src/stm32c0xx_hal.c ****   assert_param(IS_HAL_REMAP_PIN(PinRemap));
 929              		.loc 1 578 3 view .LVU151
 579:Drivers/STM32C0xx_HAL_Driver/Src/stm32c0xx_hal.c ****   SET_BIT(SYSCFG->CFGR1, PinRemap);
 930              		.loc 1 579 3 view .LVU152
 931 0000 024A     		ldr	r2, .L86
 932 0002 1368     		ldr	r3, [r2]
 933 0004 0343     		orrs	r3, r0
 934 0006 1360     		str	r3, [r2]
 580:Drivers/STM32C0xx_HAL_Driver/Src/stm32c0xx_hal.c **** }
 935              		.loc 1 580 1 is_stmt 0 view .LVU153
 936              		@ sp needed
 937 0008 7047     		bx	lr
 938              	.L87:
 939 000a C046     		.align	2
 940              	.L86:
 941 000c 00000140 		.word	1073807360
 942              		.cfi_endproc
 943              	.LFE239:
 945              		.section	.text.HAL_SYSCFG_DisableRemap,"ax",%progbits
 946              		.align	1
 947              		.global	HAL_SYSCFG_DisableRemap
 948              		.syntax unified
 949              		.code	16
 950              		.thumb_func
 952              	HAL_SYSCFG_DisableRemap:
 953              	.LVL31:
 954              	.LFB240:
 581:Drivers/STM32C0xx_HAL_Driver/Src/stm32c0xx_hal.c **** 
 582:Drivers/STM32C0xx_HAL_Driver/Src/stm32c0xx_hal.c **** /**
 583:Drivers/STM32C0xx_HAL_Driver/Src/stm32c0xx_hal.c ****   * @brief  Disable the remap on PA11_PA12
 584:Drivers/STM32C0xx_HAL_Driver/Src/stm32c0xx_hal.c ****   * @param  PinRemap specifies which pins will behave normally
 585:Drivers/STM32C0xx_HAL_Driver/Src/stm32c0xx_hal.c ****   *         This parameter can be any combination of the following values:
 586:Drivers/STM32C0xx_HAL_Driver/Src/stm32c0xx_hal.c ****   *         @arg @ref SYSCFG_REMAP_PA11
 587:Drivers/STM32C0xx_HAL_Driver/Src/stm32c0xx_hal.c ****   *         @arg @ref SYSCFG_REMAP_PA12
 588:Drivers/STM32C0xx_HAL_Driver/Src/stm32c0xx_hal.c ****   * @retval None
 589:Drivers/STM32C0xx_HAL_Driver/Src/stm32c0xx_hal.c ****   */
 590:Drivers/STM32C0xx_HAL_Driver/Src/stm32c0xx_hal.c **** void HAL_SYSCFG_DisableRemap(uint32_t PinRemap)
 591:Drivers/STM32C0xx_HAL_Driver/Src/stm32c0xx_hal.c **** {
ARM GAS  C:\Users\xhex8\AppData\Local\Temp\ccXkJLMo.s 			page 28


 955              		.loc 1 591 1 is_stmt 1 view -0
 956              		.cfi_startproc
 957              		@ args = 0, pretend = 0, frame = 0
 958              		@ frame_needed = 0, uses_anonymous_args = 0
 959              		@ link register save eliminated.
 592:Drivers/STM32C0xx_HAL_Driver/Src/stm32c0xx_hal.c ****   /* Check the parameter */
 593:Drivers/STM32C0xx_HAL_Driver/Src/stm32c0xx_hal.c ****   assert_param(IS_HAL_REMAP_PIN(PinRemap));
 960              		.loc 1 593 3 view .LVU155
 594:Drivers/STM32C0xx_HAL_Driver/Src/stm32c0xx_hal.c ****   CLEAR_BIT(SYSCFG->CFGR1, PinRemap);
 961              		.loc 1 594 3 view .LVU156
 962 0000 024A     		ldr	r2, .L89
 963 0002 1368     		ldr	r3, [r2]
 964 0004 8343     		bics	r3, r0
 965 0006 1360     		str	r3, [r2]
 595:Drivers/STM32C0xx_HAL_Driver/Src/stm32c0xx_hal.c **** }
 966              		.loc 1 595 1 is_stmt 0 view .LVU157
 967              		@ sp needed
 968 0008 7047     		bx	lr
 969              	.L90:
 970 000a C046     		.align	2
 971              	.L89:
 972 000c 00000140 		.word	1073807360
 973              		.cfi_endproc
 974              	.LFE240:
 976              		.section	.text.HAL_SYSCFG_SetPinBinding,"ax",%progbits
 977              		.align	1
 978              		.global	HAL_SYSCFG_SetPinBinding
 979              		.syntax unified
 980              		.code	16
 981              		.thumb_func
 983              	HAL_SYSCFG_SetPinBinding:
 984              	.LVL32:
 985              	.LFB241:
 596:Drivers/STM32C0xx_HAL_Driver/Src/stm32c0xx_hal.c **** /**
 597:Drivers/STM32C0xx_HAL_Driver/Src/stm32c0xx_hal.c ****   * @brief  Set Pin Binding
 598:Drivers/STM32C0xx_HAL_Driver/Src/stm32c0xx_hal.c ****   * @param  pin_binding specifies which pin will bind a specific GPIO
 599:Drivers/STM32C0xx_HAL_Driver/Src/stm32c0xx_hal.c ****   *         for each die package
 600:Drivers/STM32C0xx_HAL_Driver/Src/stm32c0xx_hal.c ****   *         This parameter can be a value of @ref HAL_BIND_CFG
 601:Drivers/STM32C0xx_HAL_Driver/Src/stm32c0xx_hal.c ****   * @retval None
 602:Drivers/STM32C0xx_HAL_Driver/Src/stm32c0xx_hal.c ****   */
 603:Drivers/STM32C0xx_HAL_Driver/Src/stm32c0xx_hal.c **** void HAL_SYSCFG_SetPinBinding(uint32_t pin_binding)
 604:Drivers/STM32C0xx_HAL_Driver/Src/stm32c0xx_hal.c **** {
 986              		.loc 1 604 1 is_stmt 1 view -0
 987              		.cfi_startproc
 988              		@ args = 0, pretend = 0, frame = 0
 989              		@ frame_needed = 0, uses_anonymous_args = 0
 990              		@ link register save eliminated.
 605:Drivers/STM32C0xx_HAL_Driver/Src/stm32c0xx_hal.c ****   /* Check the parameter */
 606:Drivers/STM32C0xx_HAL_Driver/Src/stm32c0xx_hal.c ****   assert_param(IS_HAL_SYSCFG_PINBINDING(pin_binding));
 991              		.loc 1 606 3 view .LVU159
 607:Drivers/STM32C0xx_HAL_Driver/Src/stm32c0xx_hal.c ****   LL_SYSCFG_ConfigPinMux(pin_binding);
 992              		.loc 1 607 3 view .LVU160
 993              	.LBB6:
 994              	.LBI6:
 995              		.file 2 "Drivers/STM32C0xx_HAL_Driver/Inc/stm32c0xx_ll_system.h"
   1:Drivers/STM32C0xx_HAL_Driver/Inc/stm32c0xx_ll_system.h **** /**
   2:Drivers/STM32C0xx_HAL_Driver/Inc/stm32c0xx_ll_system.h ****   ******************************************************************************
ARM GAS  C:\Users\xhex8\AppData\Local\Temp\ccXkJLMo.s 			page 29


   3:Drivers/STM32C0xx_HAL_Driver/Inc/stm32c0xx_ll_system.h ****   * @file    stm32c0xx_ll_system.h
   4:Drivers/STM32C0xx_HAL_Driver/Inc/stm32c0xx_ll_system.h ****   * @author  MCD Application Team
   5:Drivers/STM32C0xx_HAL_Driver/Inc/stm32c0xx_ll_system.h ****   * @brief   Header file of SYSTEM LL module.
   6:Drivers/STM32C0xx_HAL_Driver/Inc/stm32c0xx_ll_system.h ****   ******************************************************************************
   7:Drivers/STM32C0xx_HAL_Driver/Inc/stm32c0xx_ll_system.h ****   * @attention
   8:Drivers/STM32C0xx_HAL_Driver/Inc/stm32c0xx_ll_system.h ****   *
   9:Drivers/STM32C0xx_HAL_Driver/Inc/stm32c0xx_ll_system.h ****   * Copyright (c) 2022 STMicroelectronics.
  10:Drivers/STM32C0xx_HAL_Driver/Inc/stm32c0xx_ll_system.h ****   * All rights reserved.
  11:Drivers/STM32C0xx_HAL_Driver/Inc/stm32c0xx_ll_system.h ****   *
  12:Drivers/STM32C0xx_HAL_Driver/Inc/stm32c0xx_ll_system.h ****   * This software is licensed under terms that can be found in the LICENSE file
  13:Drivers/STM32C0xx_HAL_Driver/Inc/stm32c0xx_ll_system.h ****   * in the root directory of this software component.
  14:Drivers/STM32C0xx_HAL_Driver/Inc/stm32c0xx_ll_system.h ****   * If no LICENSE file comes with this software, it is provided AS-IS.
  15:Drivers/STM32C0xx_HAL_Driver/Inc/stm32c0xx_ll_system.h ****   *
  16:Drivers/STM32C0xx_HAL_Driver/Inc/stm32c0xx_ll_system.h ****   ******************************************************************************
  17:Drivers/STM32C0xx_HAL_Driver/Inc/stm32c0xx_ll_system.h ****   @verbatim
  18:Drivers/STM32C0xx_HAL_Driver/Inc/stm32c0xx_ll_system.h ****   ==============================================================================
  19:Drivers/STM32C0xx_HAL_Driver/Inc/stm32c0xx_ll_system.h ****                      ##### How to use this driver #####
  20:Drivers/STM32C0xx_HAL_Driver/Inc/stm32c0xx_ll_system.h ****   ==============================================================================
  21:Drivers/STM32C0xx_HAL_Driver/Inc/stm32c0xx_ll_system.h ****     [..]
  22:Drivers/STM32C0xx_HAL_Driver/Inc/stm32c0xx_ll_system.h ****     The LL SYSTEM driver contains a set of generic APIs that can be
  23:Drivers/STM32C0xx_HAL_Driver/Inc/stm32c0xx_ll_system.h ****     used by user:
  24:Drivers/STM32C0xx_HAL_Driver/Inc/stm32c0xx_ll_system.h ****       (+) Some of the FLASH features need to be handled in the SYSTEM file.
  25:Drivers/STM32C0xx_HAL_Driver/Inc/stm32c0xx_ll_system.h ****       (+) Access to DBGCMU registers
  26:Drivers/STM32C0xx_HAL_Driver/Inc/stm32c0xx_ll_system.h ****       (+) Access to SYSCFG registers
  27:Drivers/STM32C0xx_HAL_Driver/Inc/stm32c0xx_ll_system.h ****   @endverbatim
  28:Drivers/STM32C0xx_HAL_Driver/Inc/stm32c0xx_ll_system.h ****   ******************************************************************************
  29:Drivers/STM32C0xx_HAL_Driver/Inc/stm32c0xx_ll_system.h ****   */
  30:Drivers/STM32C0xx_HAL_Driver/Inc/stm32c0xx_ll_system.h **** 
  31:Drivers/STM32C0xx_HAL_Driver/Inc/stm32c0xx_ll_system.h **** /* Define to prevent recursive inclusion -------------------------------------*/
  32:Drivers/STM32C0xx_HAL_Driver/Inc/stm32c0xx_ll_system.h **** #ifndef STM32C0xx_LL_SYSTEM_H
  33:Drivers/STM32C0xx_HAL_Driver/Inc/stm32c0xx_ll_system.h **** #define STM32C0xx_LL_SYSTEM_H
  34:Drivers/STM32C0xx_HAL_Driver/Inc/stm32c0xx_ll_system.h **** 
  35:Drivers/STM32C0xx_HAL_Driver/Inc/stm32c0xx_ll_system.h **** #ifdef __cplusplus
  36:Drivers/STM32C0xx_HAL_Driver/Inc/stm32c0xx_ll_system.h **** extern "C" {
  37:Drivers/STM32C0xx_HAL_Driver/Inc/stm32c0xx_ll_system.h **** #endif
  38:Drivers/STM32C0xx_HAL_Driver/Inc/stm32c0xx_ll_system.h **** 
  39:Drivers/STM32C0xx_HAL_Driver/Inc/stm32c0xx_ll_system.h **** /* Includes ------------------------------------------------------------------*/
  40:Drivers/STM32C0xx_HAL_Driver/Inc/stm32c0xx_ll_system.h **** #include "stm32c0xx.h"
  41:Drivers/STM32C0xx_HAL_Driver/Inc/stm32c0xx_ll_system.h **** 
  42:Drivers/STM32C0xx_HAL_Driver/Inc/stm32c0xx_ll_system.h **** /** @addtogroup STM32C0xx_LL_Driver
  43:Drivers/STM32C0xx_HAL_Driver/Inc/stm32c0xx_ll_system.h ****   * @{
  44:Drivers/STM32C0xx_HAL_Driver/Inc/stm32c0xx_ll_system.h ****   */
  45:Drivers/STM32C0xx_HAL_Driver/Inc/stm32c0xx_ll_system.h **** 
  46:Drivers/STM32C0xx_HAL_Driver/Inc/stm32c0xx_ll_system.h **** #if defined (FLASH) || defined (SYSCFG) || defined (DBG)
  47:Drivers/STM32C0xx_HAL_Driver/Inc/stm32c0xx_ll_system.h **** 
  48:Drivers/STM32C0xx_HAL_Driver/Inc/stm32c0xx_ll_system.h **** /** @defgroup SYSTEM_LL SYSTEM
  49:Drivers/STM32C0xx_HAL_Driver/Inc/stm32c0xx_ll_system.h ****   * @{
  50:Drivers/STM32C0xx_HAL_Driver/Inc/stm32c0xx_ll_system.h ****   */
  51:Drivers/STM32C0xx_HAL_Driver/Inc/stm32c0xx_ll_system.h **** 
  52:Drivers/STM32C0xx_HAL_Driver/Inc/stm32c0xx_ll_system.h **** /* Private types -------------------------------------------------------------*/
  53:Drivers/STM32C0xx_HAL_Driver/Inc/stm32c0xx_ll_system.h **** /* Private variables ---------------------------------------------------------*/
  54:Drivers/STM32C0xx_HAL_Driver/Inc/stm32c0xx_ll_system.h **** 
  55:Drivers/STM32C0xx_HAL_Driver/Inc/stm32c0xx_ll_system.h **** /* Private constants ---------------------------------------------------------*/
  56:Drivers/STM32C0xx_HAL_Driver/Inc/stm32c0xx_ll_system.h **** /** @defgroup SYSTEM_LL_Private_Constants SYSTEM Private Constants
  57:Drivers/STM32C0xx_HAL_Driver/Inc/stm32c0xx_ll_system.h ****   * @{
  58:Drivers/STM32C0xx_HAL_Driver/Inc/stm32c0xx_ll_system.h ****   */
  59:Drivers/STM32C0xx_HAL_Driver/Inc/stm32c0xx_ll_system.h **** 
ARM GAS  C:\Users\xhex8\AppData\Local\Temp\ccXkJLMo.s 			page 30


  60:Drivers/STM32C0xx_HAL_Driver/Inc/stm32c0xx_ll_system.h **** /**
  61:Drivers/STM32C0xx_HAL_Driver/Inc/stm32c0xx_ll_system.h ****   * @}
  62:Drivers/STM32C0xx_HAL_Driver/Inc/stm32c0xx_ll_system.h ****   */
  63:Drivers/STM32C0xx_HAL_Driver/Inc/stm32c0xx_ll_system.h **** 
  64:Drivers/STM32C0xx_HAL_Driver/Inc/stm32c0xx_ll_system.h **** /* Private macros ------------------------------------------------------------*/
  65:Drivers/STM32C0xx_HAL_Driver/Inc/stm32c0xx_ll_system.h **** 
  66:Drivers/STM32C0xx_HAL_Driver/Inc/stm32c0xx_ll_system.h **** /* Exported types ------------------------------------------------------------*/
  67:Drivers/STM32C0xx_HAL_Driver/Inc/stm32c0xx_ll_system.h **** /* Exported constants --------------------------------------------------------*/
  68:Drivers/STM32C0xx_HAL_Driver/Inc/stm32c0xx_ll_system.h **** /** @defgroup SYSTEM_LL_Exported_Constants SYSTEM Exported Constants
  69:Drivers/STM32C0xx_HAL_Driver/Inc/stm32c0xx_ll_system.h ****   * @{
  70:Drivers/STM32C0xx_HAL_Driver/Inc/stm32c0xx_ll_system.h ****   */
  71:Drivers/STM32C0xx_HAL_Driver/Inc/stm32c0xx_ll_system.h **** 
  72:Drivers/STM32C0xx_HAL_Driver/Inc/stm32c0xx_ll_system.h **** /** @defgroup SYSTEM_LL_EC_REMAP SYSCFG REMAP
  73:Drivers/STM32C0xx_HAL_Driver/Inc/stm32c0xx_ll_system.h ****   * @{
  74:Drivers/STM32C0xx_HAL_Driver/Inc/stm32c0xx_ll_system.h ****   */
  75:Drivers/STM32C0xx_HAL_Driver/Inc/stm32c0xx_ll_system.h **** #define LL_SYSCFG_REMAP_FLASH               0x00000000U                                           /
  76:Drivers/STM32C0xx_HAL_Driver/Inc/stm32c0xx_ll_system.h **** #define LL_SYSCFG_REMAP_SYSTEMFLASH         SYSCFG_CFGR1_MEM_MODE_0                               /
  77:Drivers/STM32C0xx_HAL_Driver/Inc/stm32c0xx_ll_system.h **** #define LL_SYSCFG_REMAP_SRAM                (SYSCFG_CFGR1_MEM_MODE_1 | SYSCFG_CFGR1_MEM_MODE_0)   /
  78:Drivers/STM32C0xx_HAL_Driver/Inc/stm32c0xx_ll_system.h **** /**
  79:Drivers/STM32C0xx_HAL_Driver/Inc/stm32c0xx_ll_system.h ****   * @}
  80:Drivers/STM32C0xx_HAL_Driver/Inc/stm32c0xx_ll_system.h ****   */
  81:Drivers/STM32C0xx_HAL_Driver/Inc/stm32c0xx_ll_system.h **** 
  82:Drivers/STM32C0xx_HAL_Driver/Inc/stm32c0xx_ll_system.h **** /** @defgroup SYSTEM_LL_EC_PIN_RMP SYSCFG PIN RMP
  83:Drivers/STM32C0xx_HAL_Driver/Inc/stm32c0xx_ll_system.h ****   * @{
  84:Drivers/STM32C0xx_HAL_Driver/Inc/stm32c0xx_ll_system.h ****   */
  85:Drivers/STM32C0xx_HAL_Driver/Inc/stm32c0xx_ll_system.h **** #define LL_SYSCFG_PIN_RMP_PA11              SYSCFG_CFGR1_PA11_RMP                           /*!< PA
  86:Drivers/STM32C0xx_HAL_Driver/Inc/stm32c0xx_ll_system.h **** #define LL_SYSCFG_PIN_RMP_PA12              SYSCFG_CFGR1_PA12_RMP                           /*!< PA
  87:Drivers/STM32C0xx_HAL_Driver/Inc/stm32c0xx_ll_system.h **** /**
  88:Drivers/STM32C0xx_HAL_Driver/Inc/stm32c0xx_ll_system.h ****   * @}
  89:Drivers/STM32C0xx_HAL_Driver/Inc/stm32c0xx_ll_system.h ****   */
  90:Drivers/STM32C0xx_HAL_Driver/Inc/stm32c0xx_ll_system.h **** 
  91:Drivers/STM32C0xx_HAL_Driver/Inc/stm32c0xx_ll_system.h **** /** @defgroup SYSTEM_LL_EC_IR_MOD SYSCFG IR Modulation
  92:Drivers/STM32C0xx_HAL_Driver/Inc/stm32c0xx_ll_system.h ****   * @{
  93:Drivers/STM32C0xx_HAL_Driver/Inc/stm32c0xx_ll_system.h ****   */
  94:Drivers/STM32C0xx_HAL_Driver/Inc/stm32c0xx_ll_system.h **** #define LL_SYSCFG_IR_MOD_TIM16       (SYSCFG_CFGR1_IR_MOD_0 & SYSCFG_CFGR1_IR_MOD_1)    /*!< 00: Ti
  95:Drivers/STM32C0xx_HAL_Driver/Inc/stm32c0xx_ll_system.h **** #define LL_SYSCFG_IR_MOD_USART1      (SYSCFG_CFGR1_IR_MOD_0)                            /*!< 01: US
  96:Drivers/STM32C0xx_HAL_Driver/Inc/stm32c0xx_ll_system.h **** #define LL_SYSCFG_IR_MOD_USART2      (SYSCFG_CFGR1_IR_MOD_1)                            /*!< 10: US
  97:Drivers/STM32C0xx_HAL_Driver/Inc/stm32c0xx_ll_system.h **** 
  98:Drivers/STM32C0xx_HAL_Driver/Inc/stm32c0xx_ll_system.h **** /**
  99:Drivers/STM32C0xx_HAL_Driver/Inc/stm32c0xx_ll_system.h ****   * @}
 100:Drivers/STM32C0xx_HAL_Driver/Inc/stm32c0xx_ll_system.h ****   */
 101:Drivers/STM32C0xx_HAL_Driver/Inc/stm32c0xx_ll_system.h **** /** @defgroup SYSTEM_LL_EC_IR_POL SYSCFG IR Polarity
 102:Drivers/STM32C0xx_HAL_Driver/Inc/stm32c0xx_ll_system.h ****   * @{
 103:Drivers/STM32C0xx_HAL_Driver/Inc/stm32c0xx_ll_system.h ****   */
 104:Drivers/STM32C0xx_HAL_Driver/Inc/stm32c0xx_ll_system.h **** #define LL_SYSCFG_IR_POL_NOT_INVERTED  0x00000000U                                     /*!< 0: Outp
 105:Drivers/STM32C0xx_HAL_Driver/Inc/stm32c0xx_ll_system.h **** #define LL_SYSCFG_IR_POL_INVERTED     (SYSCFG_CFGR1_IR_POL)                            /*!< 1: Outp
 106:Drivers/STM32C0xx_HAL_Driver/Inc/stm32c0xx_ll_system.h **** /**
 107:Drivers/STM32C0xx_HAL_Driver/Inc/stm32c0xx_ll_system.h ****   * @}
 108:Drivers/STM32C0xx_HAL_Driver/Inc/stm32c0xx_ll_system.h ****   */
 109:Drivers/STM32C0xx_HAL_Driver/Inc/stm32c0xx_ll_system.h **** 
 110:Drivers/STM32C0xx_HAL_Driver/Inc/stm32c0xx_ll_system.h **** /** @defgroup SYSTEM_LL_EC_BOOSTEN SYSCFG I/O analog switch voltage booster enable
 111:Drivers/STM32C0xx_HAL_Driver/Inc/stm32c0xx_ll_system.h ****   * @{
 112:Drivers/STM32C0xx_HAL_Driver/Inc/stm32c0xx_ll_system.h ****   */
 113:Drivers/STM32C0xx_HAL_Driver/Inc/stm32c0xx_ll_system.h **** #define LL_SYSCFG_CFGR1_BOOSTEN       SYSCFG_CFGR1_BOOSTEN                             /*!< I/O ana
 114:Drivers/STM32C0xx_HAL_Driver/Inc/stm32c0xx_ll_system.h **** /**
 115:Drivers/STM32C0xx_HAL_Driver/Inc/stm32c0xx_ll_system.h ****   * @}
 116:Drivers/STM32C0xx_HAL_Driver/Inc/stm32c0xx_ll_system.h ****   */
ARM GAS  C:\Users\xhex8\AppData\Local\Temp\ccXkJLMo.s 			page 31


 117:Drivers/STM32C0xx_HAL_Driver/Inc/stm32c0xx_ll_system.h **** 
 118:Drivers/STM32C0xx_HAL_Driver/Inc/stm32c0xx_ll_system.h **** /** @defgroup SYSTEM_LL_EC_I2C_FASTMODEPLUS SYSCFG I2C FASTMODEPLUS
 119:Drivers/STM32C0xx_HAL_Driver/Inc/stm32c0xx_ll_system.h ****   * @{
 120:Drivers/STM32C0xx_HAL_Driver/Inc/stm32c0xx_ll_system.h ****   */
 121:Drivers/STM32C0xx_HAL_Driver/Inc/stm32c0xx_ll_system.h **** #define LL_SYSCFG_I2C_FASTMODEPLUS_PB6     SYSCFG_CFGR1_I2C_PB6_FMP  /*!< I2C PB6 Fast mode plus */
 122:Drivers/STM32C0xx_HAL_Driver/Inc/stm32c0xx_ll_system.h **** #define LL_SYSCFG_I2C_FASTMODEPLUS_PB7     SYSCFG_CFGR1_I2C_PB7_FMP  /*!< I2C PB7 Fast mode plus */
 123:Drivers/STM32C0xx_HAL_Driver/Inc/stm32c0xx_ll_system.h **** #define LL_SYSCFG_I2C_FASTMODEPLUS_PB8     SYSCFG_CFGR1_I2C_PB8_FMP  /*!< I2C PB8 Fast mode plus */
 124:Drivers/STM32C0xx_HAL_Driver/Inc/stm32c0xx_ll_system.h **** #define LL_SYSCFG_I2C_FASTMODEPLUS_PB9     SYSCFG_CFGR1_I2C_PB9_FMP  /*!< I2C PB9 Fast mode plus */
 125:Drivers/STM32C0xx_HAL_Driver/Inc/stm32c0xx_ll_system.h **** #define LL_SYSCFG_I2C_FASTMODEPLUS_I2C1    SYSCFG_CFGR1_I2C1_FMP     /*!< Enable I2C1 Fast mode Plu
 126:Drivers/STM32C0xx_HAL_Driver/Inc/stm32c0xx_ll_system.h **** #define LL_SYSCFG_I2C_FASTMODEPLUS_PA9     SYSCFG_CFGR1_I2C_PA9_FMP  /*!< Enable Fast Mode Plus on 
 127:Drivers/STM32C0xx_HAL_Driver/Inc/stm32c0xx_ll_system.h **** #define LL_SYSCFG_I2C_FASTMODEPLUS_PA10    SYSCFG_CFGR1_I2C_PA10_FMP /*!< Enable Fast Mode Plus on 
 128:Drivers/STM32C0xx_HAL_Driver/Inc/stm32c0xx_ll_system.h **** #define LL_SYSCFG_I2C_FASTMODEPLUS_PC14    SYSCFG_CFGR1_I2C_PC14_FMP /*!< Enable Fast Mode Plus on 
 129:Drivers/STM32C0xx_HAL_Driver/Inc/stm32c0xx_ll_system.h **** /**
 130:Drivers/STM32C0xx_HAL_Driver/Inc/stm32c0xx_ll_system.h ****   * @}
 131:Drivers/STM32C0xx_HAL_Driver/Inc/stm32c0xx_ll_system.h ****   */
 132:Drivers/STM32C0xx_HAL_Driver/Inc/stm32c0xx_ll_system.h **** 
 133:Drivers/STM32C0xx_HAL_Driver/Inc/stm32c0xx_ll_system.h **** /** @defgroup SYSTEM_LL_EC_TIMBREAK SYSCFG TIMER BREAK
 134:Drivers/STM32C0xx_HAL_Driver/Inc/stm32c0xx_ll_system.h ****   * @{
 135:Drivers/STM32C0xx_HAL_Driver/Inc/stm32c0xx_ll_system.h ****   */
 136:Drivers/STM32C0xx_HAL_Driver/Inc/stm32c0xx_ll_system.h **** #define LL_SYSCFG_TIMBREAK_LOCKUP          SYSCFG_CFGR2_CLL            /*!< Enables and locks the L
 137:Drivers/STM32C0xx_HAL_Driver/Inc/stm32c0xx_ll_system.h ****                                                                             CortexM0 with Break Inp
 138:Drivers/STM32C0xx_HAL_Driver/Inc/stm32c0xx_ll_system.h **** /**
 139:Drivers/STM32C0xx_HAL_Driver/Inc/stm32c0xx_ll_system.h ****   * @}
 140:Drivers/STM32C0xx_HAL_Driver/Inc/stm32c0xx_ll_system.h ****   */
 141:Drivers/STM32C0xx_HAL_Driver/Inc/stm32c0xx_ll_system.h **** 
 142:Drivers/STM32C0xx_HAL_Driver/Inc/stm32c0xx_ll_system.h **** /** @defgroup SYSTEM_LL_EC_APB1_GRP1_STOP_IP  DBGMCU APB1 GRP1 STOP IP
 143:Drivers/STM32C0xx_HAL_Driver/Inc/stm32c0xx_ll_system.h ****   * @{
 144:Drivers/STM32C0xx_HAL_Driver/Inc/stm32c0xx_ll_system.h ****   */
 145:Drivers/STM32C0xx_HAL_Driver/Inc/stm32c0xx_ll_system.h **** #define LL_DBGMCU_APB1_GRP1_TIM3_STOP      DBG_APB_FZ1_DBG_TIM3_STOP        /*!< TIM3 counter stopp
 146:Drivers/STM32C0xx_HAL_Driver/Inc/stm32c0xx_ll_system.h **** #define LL_DBGMCU_APB1_GRP1_RTC_STOP       DBG_APB_FZ1_DBG_RTC_STOP         /*!< RTC Calendar froze
 147:Drivers/STM32C0xx_HAL_Driver/Inc/stm32c0xx_ll_system.h **** #define LL_DBGMCU_APB1_GRP1_WWDG_STOP      DBG_APB_FZ1_DBG_WWDG_STOP        /*!< Debug Window Watch
 148:Drivers/STM32C0xx_HAL_Driver/Inc/stm32c0xx_ll_system.h **** #define LL_DBGMCU_APB1_GRP1_IWDG_STOP      DBG_APB_FZ1_DBG_IWDG_STOP        /*!< Debug Independent 
 149:Drivers/STM32C0xx_HAL_Driver/Inc/stm32c0xx_ll_system.h **** #define LL_DBGMCU_APB1_GRP1_I2C1_STOP      DBG_APB_FZ1_DBG_I2C1_SMBUS_TIMEOUT_STOP /*!< I2C1 SMBUS 
 150:Drivers/STM32C0xx_HAL_Driver/Inc/stm32c0xx_ll_system.h **** 
 151:Drivers/STM32C0xx_HAL_Driver/Inc/stm32c0xx_ll_system.h **** /**
 152:Drivers/STM32C0xx_HAL_Driver/Inc/stm32c0xx_ll_system.h ****   * @}
 153:Drivers/STM32C0xx_HAL_Driver/Inc/stm32c0xx_ll_system.h ****   */
 154:Drivers/STM32C0xx_HAL_Driver/Inc/stm32c0xx_ll_system.h **** 
 155:Drivers/STM32C0xx_HAL_Driver/Inc/stm32c0xx_ll_system.h **** /** @defgroup SYSTEM_LL_EC_APB2_GRP1_STOP_IP DBGMCU APB2 GRP1 STOP IP
 156:Drivers/STM32C0xx_HAL_Driver/Inc/stm32c0xx_ll_system.h ****   * @{
 157:Drivers/STM32C0xx_HAL_Driver/Inc/stm32c0xx_ll_system.h ****   */
 158:Drivers/STM32C0xx_HAL_Driver/Inc/stm32c0xx_ll_system.h **** #define LL_DBGMCU_APB2_GRP1_TIM1_STOP      DBG_APB_FZ2_DBG_TIM1_STOP        /*!< TIM1 counter stopp
 159:Drivers/STM32C0xx_HAL_Driver/Inc/stm32c0xx_ll_system.h **** #if defined(DBG_APB_FZ2_DBG_TIM14_STOP)
 160:Drivers/STM32C0xx_HAL_Driver/Inc/stm32c0xx_ll_system.h **** #define LL_DBGMCU_APB2_GRP1_TIM14_STOP     DBG_APB_FZ2_DBG_TIM14_STOP       /*!< TIM14 counter stop
 161:Drivers/STM32C0xx_HAL_Driver/Inc/stm32c0xx_ll_system.h **** #endif /* DBG_APB_FZ2_DBG_TIM14_STOP */
 162:Drivers/STM32C0xx_HAL_Driver/Inc/stm32c0xx_ll_system.h **** #define LL_DBGMCU_APB2_GRP1_TIM16_STOP     DBG_APB_FZ2_DBG_TIM16_STOP       /*!< TIM16 counter stop
 163:Drivers/STM32C0xx_HAL_Driver/Inc/stm32c0xx_ll_system.h **** #define LL_DBGMCU_APB2_GRP1_TIM17_STOP     DBG_APB_FZ2_DBG_TIM17_STOP       /*!< TIM17 counter stop
 164:Drivers/STM32C0xx_HAL_Driver/Inc/stm32c0xx_ll_system.h **** /**
 165:Drivers/STM32C0xx_HAL_Driver/Inc/stm32c0xx_ll_system.h ****   * @}
 166:Drivers/STM32C0xx_HAL_Driver/Inc/stm32c0xx_ll_system.h ****   */
 167:Drivers/STM32C0xx_HAL_Driver/Inc/stm32c0xx_ll_system.h **** 
 168:Drivers/STM32C0xx_HAL_Driver/Inc/stm32c0xx_ll_system.h **** /** @defgroup SYSTEM_LL_EC_LATENCY FLASH LATENCY
 169:Drivers/STM32C0xx_HAL_Driver/Inc/stm32c0xx_ll_system.h ****   * @{
 170:Drivers/STM32C0xx_HAL_Driver/Inc/stm32c0xx_ll_system.h ****   */
 171:Drivers/STM32C0xx_HAL_Driver/Inc/stm32c0xx_ll_system.h **** #define LL_FLASH_LATENCY_0                 0x00000000U             /*!< FLASH Zero Latency cycle */
 172:Drivers/STM32C0xx_HAL_Driver/Inc/stm32c0xx_ll_system.h **** #define LL_FLASH_LATENCY_1                 FLASH_ACR_LATENCY_0     /*!< FLASH One Latency cycle */
 173:Drivers/STM32C0xx_HAL_Driver/Inc/stm32c0xx_ll_system.h **** 
ARM GAS  C:\Users\xhex8\AppData\Local\Temp\ccXkJLMo.s 			page 32


 174:Drivers/STM32C0xx_HAL_Driver/Inc/stm32c0xx_ll_system.h **** /**
 175:Drivers/STM32C0xx_HAL_Driver/Inc/stm32c0xx_ll_system.h ****   * @}
 176:Drivers/STM32C0xx_HAL_Driver/Inc/stm32c0xx_ll_system.h ****   */
 177:Drivers/STM32C0xx_HAL_Driver/Inc/stm32c0xx_ll_system.h **** 
 178:Drivers/STM32C0xx_HAL_Driver/Inc/stm32c0xx_ll_system.h **** /** @defgroup SYSTEM_LL_PINMUX_CFG PINMUX Config
 179:Drivers/STM32C0xx_HAL_Driver/Inc/stm32c0xx_ll_system.h ****   * @{
 180:Drivers/STM32C0xx_HAL_Driver/Inc/stm32c0xx_ll_system.h ****   */
 181:Drivers/STM32C0xx_HAL_Driver/Inc/stm32c0xx_ll_system.h **** #if (DEV_ID == 0x443UL)
 182:Drivers/STM32C0xx_HAL_Driver/Inc/stm32c0xx_ll_system.h **** #define LL_PINMUX_SO8_PIN1_PB7               (((SYSCFG_CFGR3_PINMUX0_0 | SYSCFG_CFGR3_PINMUX0_1) <<
 183:Drivers/STM32C0xx_HAL_Driver/Inc/stm32c0xx_ll_system.h **** #define LL_PINMUX_SO8_PIN1_PC14              (((SYSCFG_CFGR3_PINMUX0_0 | SYSCFG_CFGR3_PINMUX0_1) <<
 184:Drivers/STM32C0xx_HAL_Driver/Inc/stm32c0xx_ll_system.h **** #define LL_PINMUX_SO8_PIN4_PF2               (((SYSCFG_CFGR3_PINMUX1_0 | SYSCFG_CFGR3_PINMUX1_1) <<
 185:Drivers/STM32C0xx_HAL_Driver/Inc/stm32c0xx_ll_system.h **** #define LL_PINMUX_SO8_PIN4_PA0               (((SYSCFG_CFGR3_PINMUX1_0 | SYSCFG_CFGR3_PINMUX1_1) <<
 186:Drivers/STM32C0xx_HAL_Driver/Inc/stm32c0xx_ll_system.h **** #define LL_PINMUX_SO8_PIN4_PA1               (((SYSCFG_CFGR3_PINMUX1_0 | SYSCFG_CFGR3_PINMUX1_1) <<
 187:Drivers/STM32C0xx_HAL_Driver/Inc/stm32c0xx_ll_system.h **** #define LL_PINMUX_SO8_PIN4_PA2               (((SYSCFG_CFGR3_PINMUX1_0 | SYSCFG_CFGR3_PINMUX1_1) <<
 188:Drivers/STM32C0xx_HAL_Driver/Inc/stm32c0xx_ll_system.h **** #define LL_PINMUX_SO8_PIN5_PA8               (((SYSCFG_CFGR3_PINMUX2_0 | SYSCFG_CFGR3_PINMUX2_1) <<
 189:Drivers/STM32C0xx_HAL_Driver/Inc/stm32c0xx_ll_system.h **** #define LL_PINMUX_SO8_PIN5_PA11              (((SYSCFG_CFGR3_PINMUX2_0 | SYSCFG_CFGR3_PINMUX2_1) <<
 190:Drivers/STM32C0xx_HAL_Driver/Inc/stm32c0xx_ll_system.h **** #define LL_PINMUX_SO8_PIN8_PA14              (((SYSCFG_CFGR3_PINMUX3_0 | SYSCFG_CFGR3_PINMUX3_1) <<
 191:Drivers/STM32C0xx_HAL_Driver/Inc/stm32c0xx_ll_system.h **** #define LL_PINMUX_SO8_PIN8_PB6               (((SYSCFG_CFGR3_PINMUX3_0 | SYSCFG_CFGR3_PINMUX3_1) <<
 192:Drivers/STM32C0xx_HAL_Driver/Inc/stm32c0xx_ll_system.h **** #define LL_PINMUX_SO8_PIN8_PC15              (((SYSCFG_CFGR3_PINMUX3_0 | SYSCFG_CFGR3_PINMUX3_1) <<
 193:Drivers/STM32C0xx_HAL_Driver/Inc/stm32c0xx_ll_system.h **** #define LL_PINMUX_WLCSP12_PINE2_PA7          (((SYSCFG_CFGR3_PINMUX4_0 | SYSCFG_CFGR3_PINMUX4_1) <<
 194:Drivers/STM32C0xx_HAL_Driver/Inc/stm32c0xx_ll_system.h **** #define LL_PINMUX_WLCSP12_PINE2_PA12         (((SYSCFG_CFGR3_PINMUX4_0 | SYSCFG_CFGR3_PINMUX4_1) <<
 195:Drivers/STM32C0xx_HAL_Driver/Inc/stm32c0xx_ll_system.h **** #define LL_PINMUX_WLCSP12_PINF1_PA3          (((SYSCFG_CFGR3_PINMUX5_0 | SYSCFG_CFGR3_PINMUX5_1) <<
 196:Drivers/STM32C0xx_HAL_Driver/Inc/stm32c0xx_ll_system.h **** #define LL_PINMUX_WLCSP12_PINF1_PA4          (((SYSCFG_CFGR3_PINMUX5_0 | SYSCFG_CFGR3_PINMUX5_1) <<
 197:Drivers/STM32C0xx_HAL_Driver/Inc/stm32c0xx_ll_system.h **** #define LL_PINMUX_WLCSP12_PINF1_PA5          (((SYSCFG_CFGR3_PINMUX5_0 | SYSCFG_CFGR3_PINMUX5_1) <<
 198:Drivers/STM32C0xx_HAL_Driver/Inc/stm32c0xx_ll_system.h **** #define LL_PINMUX_WLCSP12_PINF1_PA6          (((SYSCFG_CFGR3_PINMUX5_0 | SYSCFG_CFGR3_PINMUX5_1) <<
 199:Drivers/STM32C0xx_HAL_Driver/Inc/stm32c0xx_ll_system.h **** 
 200:Drivers/STM32C0xx_HAL_Driver/Inc/stm32c0xx_ll_system.h **** #elif (DEV_ID == 0x453UL)
 201:Drivers/STM32C0xx_HAL_Driver/Inc/stm32c0xx_ll_system.h **** #define LL_PINMUX_WLCSP14_PINF2_PA1           (((SYSCFG_CFGR3_PINMUX0_0 | SYSCFG_CFGR3_PINMUX0_1) <
 202:Drivers/STM32C0xx_HAL_Driver/Inc/stm32c0xx_ll_system.h **** #define LL_PINMUX_WLCSP14_PINF2_PA2           (((SYSCFG_CFGR3_PINMUX0_0 | SYSCFG_CFGR3_PINMUX0_1) <
 203:Drivers/STM32C0xx_HAL_Driver/Inc/stm32c0xx_ll_system.h **** #define LL_PINMUX_WLCSP14_PING3_PF2           (((SYSCFG_CFGR3_PINMUX1_0 | SYSCFG_CFGR3_PINMUX1_1) <
 204:Drivers/STM32C0xx_HAL_Driver/Inc/stm32c0xx_ll_system.h **** #define LL_PINMUX_WLCSP14_PING3_PA0           (((SYSCFG_CFGR3_PINMUX1_0 | SYSCFG_CFGR3_PINMUX1_1) <
 205:Drivers/STM32C0xx_HAL_Driver/Inc/stm32c0xx_ll_system.h **** #define LL_PINMUX_WLCSP14_PINJ1_PA8           (((SYSCFG_CFGR3_PINMUX2_0 | SYSCFG_CFGR3_PINMUX2_1) <
 206:Drivers/STM32C0xx_HAL_Driver/Inc/stm32c0xx_ll_system.h **** #define LL_PINMUX_WLCSP14_PINJ1_PA11          (((SYSCFG_CFGR3_PINMUX2_0 | SYSCFG_CFGR3_PINMUX2_1) <
 207:Drivers/STM32C0xx_HAL_Driver/Inc/stm32c0xx_ll_system.h **** #define LL_PINMUX_WLCSP14_PINH2_PA5           (((SYSCFG_CFGR3_PINMUX3_0 | SYSCFG_CFGR3_PINMUX3_1) <
 208:Drivers/STM32C0xx_HAL_Driver/Inc/stm32c0xx_ll_system.h **** #define LL_PINMUX_WLCSP14_PINH2_PA6           (((SYSCFG_CFGR3_PINMUX3_0 | SYSCFG_CFGR3_PINMUX3_1) <
 209:Drivers/STM32C0xx_HAL_Driver/Inc/stm32c0xx_ll_system.h **** #define LL_PINMUX_WLCSP14_PING1_PA7           (((SYSCFG_CFGR3_PINMUX4_0 | SYSCFG_CFGR3_PINMUX4_1) <
 210:Drivers/STM32C0xx_HAL_Driver/Inc/stm32c0xx_ll_system.h **** #define LL_PINMUX_WLCSP14_PING1_PA12          (((SYSCFG_CFGR3_PINMUX4_0 | SYSCFG_CFGR3_PINMUX4_1) <
 211:Drivers/STM32C0xx_HAL_Driver/Inc/stm32c0xx_ll_system.h **** #define LL_PINMUX_WLCSP14_PINJ3_PA3           (((SYSCFG_CFGR3_PINMUX5_0 | SYSCFG_CFGR3_PINMUX5_1) <
 212:Drivers/STM32C0xx_HAL_Driver/Inc/stm32c0xx_ll_system.h **** #define LL_PINMUX_WLCSP14_PINJ3_PA4           (((SYSCFG_CFGR3_PINMUX5_0 | SYSCFG_CFGR3_PINMUX5_1) <
 213:Drivers/STM32C0xx_HAL_Driver/Inc/stm32c0xx_ll_system.h **** #endif /* DEV_ID == 0x443UL */
 214:Drivers/STM32C0xx_HAL_Driver/Inc/stm32c0xx_ll_system.h **** /**
 215:Drivers/STM32C0xx_HAL_Driver/Inc/stm32c0xx_ll_system.h ****   * @}
 216:Drivers/STM32C0xx_HAL_Driver/Inc/stm32c0xx_ll_system.h ****   */
 217:Drivers/STM32C0xx_HAL_Driver/Inc/stm32c0xx_ll_system.h **** 
 218:Drivers/STM32C0xx_HAL_Driver/Inc/stm32c0xx_ll_system.h **** /** @defgroup SYSTEM_LL_PINMUX_SOURCE PINMUX Config Source
 219:Drivers/STM32C0xx_HAL_Driver/Inc/stm32c0xx_ll_system.h ****   * @{
 220:Drivers/STM32C0xx_HAL_Driver/Inc/stm32c0xx_ll_system.h ****   */
 221:Drivers/STM32C0xx_HAL_Driver/Inc/stm32c0xx_ll_system.h **** #if (DEV_ID == 0x443UL)
 222:Drivers/STM32C0xx_HAL_Driver/Inc/stm32c0xx_ll_system.h **** #define LL_PINMUX_SO8_PIN1               (SYSCFG_CFGR3_PINMUX0_0 | SYSCFG_CFGR3_PINMUX0_1)       /*
 223:Drivers/STM32C0xx_HAL_Driver/Inc/stm32c0xx_ll_system.h **** #define LL_PINMUX_SO8_PIN4               (SYSCFG_CFGR3_PINMUX1_0 | SYSCFG_CFGR3_PINMUX1_1)       /*
 224:Drivers/STM32C0xx_HAL_Driver/Inc/stm32c0xx_ll_system.h **** #define LL_PINMUX_SO8_PIN5               (SYSCFG_CFGR3_PINMUX2_0 | SYSCFG_CFGR3_PINMUX2_1)       /*
 225:Drivers/STM32C0xx_HAL_Driver/Inc/stm32c0xx_ll_system.h **** #define LL_PINMUX_SO8_PIN8               (SYSCFG_CFGR3_PINMUX3_0 | SYSCFG_CFGR3_PINMUX3_1)       /*
 226:Drivers/STM32C0xx_HAL_Driver/Inc/stm32c0xx_ll_system.h **** #define LL_PINMUX_WLCSP12_PINE2          (SYSCFG_CFGR3_PINMUX4_0 | SYSCFG_CFGR3_PINMUX4_1)       /*
 227:Drivers/STM32C0xx_HAL_Driver/Inc/stm32c0xx_ll_system.h **** #define LL_PINMUX_WLCSP12_PINF1          (SYSCFG_CFGR3_PINMUX5_0 | SYSCFG_CFGR3_PINMUX5_1)       /*
 228:Drivers/STM32C0xx_HAL_Driver/Inc/stm32c0xx_ll_system.h **** #elif (DEV_ID == 0x453UL)
 229:Drivers/STM32C0xx_HAL_Driver/Inc/stm32c0xx_ll_system.h **** #define LL_PINMUX_WLCSP14_PINF2          (SYSCFG_CFGR3_PINMUX0_0 | SYSCFG_CFGR3_PINMUX0_1)       /*
 230:Drivers/STM32C0xx_HAL_Driver/Inc/stm32c0xx_ll_system.h **** #define LL_PINMUX_WLCSP14_PING3          (SYSCFG_CFGR3_PINMUX1_0 | SYSCFG_CFGR3_PINMUX1_1)       /*
ARM GAS  C:\Users\xhex8\AppData\Local\Temp\ccXkJLMo.s 			page 33


 231:Drivers/STM32C0xx_HAL_Driver/Inc/stm32c0xx_ll_system.h **** #define LL_PINMUX_WLCSP14_PINJ1          (SYSCFG_CFGR3_PINMUX2_0 | SYSCFG_CFGR3_PINMUX2_1)       /*
 232:Drivers/STM32C0xx_HAL_Driver/Inc/stm32c0xx_ll_system.h **** #define LL_PINMUX_WLCSP14_PINH2          (SYSCFG_CFGR3_PINMUX3_0 | SYSCFG_CFGR3_PINMUX3_1)       /*
 233:Drivers/STM32C0xx_HAL_Driver/Inc/stm32c0xx_ll_system.h **** #define LL_PINMUX_WLCSP14_PING1          (SYSCFG_CFGR3_PINMUX4_0 | SYSCFG_CFGR3_PINMUX4_1)       /*
 234:Drivers/STM32C0xx_HAL_Driver/Inc/stm32c0xx_ll_system.h **** #define LL_PINMUX_WLCSP14_PINJ3          (SYSCFG_CFGR3_PINMUX5_0 | SYSCFG_CFGR3_PINMUX5_1)       /*
 235:Drivers/STM32C0xx_HAL_Driver/Inc/stm32c0xx_ll_system.h **** #endif /* DEV_ID == 0x443UL */
 236:Drivers/STM32C0xx_HAL_Driver/Inc/stm32c0xx_ll_system.h ****  /**
 237:Drivers/STM32C0xx_HAL_Driver/Inc/stm32c0xx_ll_system.h ****   * @}
 238:Drivers/STM32C0xx_HAL_Driver/Inc/stm32c0xx_ll_system.h ****   */
 239:Drivers/STM32C0xx_HAL_Driver/Inc/stm32c0xx_ll_system.h **** 
 240:Drivers/STM32C0xx_HAL_Driver/Inc/stm32c0xx_ll_system.h **** /**
 241:Drivers/STM32C0xx_HAL_Driver/Inc/stm32c0xx_ll_system.h ****   * @}
 242:Drivers/STM32C0xx_HAL_Driver/Inc/stm32c0xx_ll_system.h ****   */
 243:Drivers/STM32C0xx_HAL_Driver/Inc/stm32c0xx_ll_system.h **** 
 244:Drivers/STM32C0xx_HAL_Driver/Inc/stm32c0xx_ll_system.h **** /* Exported macro ------------------------------------------------------------*/
 245:Drivers/STM32C0xx_HAL_Driver/Inc/stm32c0xx_ll_system.h **** 
 246:Drivers/STM32C0xx_HAL_Driver/Inc/stm32c0xx_ll_system.h **** /* Exported functions --------------------------------------------------------*/
 247:Drivers/STM32C0xx_HAL_Driver/Inc/stm32c0xx_ll_system.h **** /** @defgroup SYSTEM_LL_Exported_Functions SYSTEM Exported Functions
 248:Drivers/STM32C0xx_HAL_Driver/Inc/stm32c0xx_ll_system.h ****   * @{
 249:Drivers/STM32C0xx_HAL_Driver/Inc/stm32c0xx_ll_system.h ****   */
 250:Drivers/STM32C0xx_HAL_Driver/Inc/stm32c0xx_ll_system.h **** 
 251:Drivers/STM32C0xx_HAL_Driver/Inc/stm32c0xx_ll_system.h **** /** @defgroup SYSTEM_LL_EF_SYSCFG SYSCFG
 252:Drivers/STM32C0xx_HAL_Driver/Inc/stm32c0xx_ll_system.h ****   * @{
 253:Drivers/STM32C0xx_HAL_Driver/Inc/stm32c0xx_ll_system.h ****   */
 254:Drivers/STM32C0xx_HAL_Driver/Inc/stm32c0xx_ll_system.h **** 
 255:Drivers/STM32C0xx_HAL_Driver/Inc/stm32c0xx_ll_system.h **** /**
 256:Drivers/STM32C0xx_HAL_Driver/Inc/stm32c0xx_ll_system.h ****   * @brief  Set memory mapping at address 0x00000000
 257:Drivers/STM32C0xx_HAL_Driver/Inc/stm32c0xx_ll_system.h ****   * @rmtoll SYSCFG_CFGR1 MEM_MODE      LL_SYSCFG_SetRemapMemory
 258:Drivers/STM32C0xx_HAL_Driver/Inc/stm32c0xx_ll_system.h ****   * @param  Memory This parameter can be one of the following values:
 259:Drivers/STM32C0xx_HAL_Driver/Inc/stm32c0xx_ll_system.h ****   *         @arg @ref LL_SYSCFG_REMAP_FLASH
 260:Drivers/STM32C0xx_HAL_Driver/Inc/stm32c0xx_ll_system.h ****   *         @arg @ref LL_SYSCFG_REMAP_SYSTEMFLASH
 261:Drivers/STM32C0xx_HAL_Driver/Inc/stm32c0xx_ll_system.h ****   *         @arg @ref LL_SYSCFG_REMAP_SRAM
 262:Drivers/STM32C0xx_HAL_Driver/Inc/stm32c0xx_ll_system.h ****   * @retval None
 263:Drivers/STM32C0xx_HAL_Driver/Inc/stm32c0xx_ll_system.h ****   */
 264:Drivers/STM32C0xx_HAL_Driver/Inc/stm32c0xx_ll_system.h **** __STATIC_INLINE void LL_SYSCFG_SetRemapMemory(uint32_t Memory)
 265:Drivers/STM32C0xx_HAL_Driver/Inc/stm32c0xx_ll_system.h **** {
 266:Drivers/STM32C0xx_HAL_Driver/Inc/stm32c0xx_ll_system.h ****   MODIFY_REG(SYSCFG->CFGR1, SYSCFG_CFGR1_MEM_MODE, Memory);
 267:Drivers/STM32C0xx_HAL_Driver/Inc/stm32c0xx_ll_system.h **** }
 268:Drivers/STM32C0xx_HAL_Driver/Inc/stm32c0xx_ll_system.h **** 
 269:Drivers/STM32C0xx_HAL_Driver/Inc/stm32c0xx_ll_system.h **** /**
 270:Drivers/STM32C0xx_HAL_Driver/Inc/stm32c0xx_ll_system.h ****   * @brief  Get memory mapping at address 0x00000000
 271:Drivers/STM32C0xx_HAL_Driver/Inc/stm32c0xx_ll_system.h ****   * @rmtoll SYSCFG_CFGR1 MEM_MODE      LL_SYSCFG_GetRemapMemory
 272:Drivers/STM32C0xx_HAL_Driver/Inc/stm32c0xx_ll_system.h ****   * @retval Returned value can be one of the following values:
 273:Drivers/STM32C0xx_HAL_Driver/Inc/stm32c0xx_ll_system.h ****   *         @arg @ref LL_SYSCFG_REMAP_FLASH
 274:Drivers/STM32C0xx_HAL_Driver/Inc/stm32c0xx_ll_system.h ****   *         @arg @ref LL_SYSCFG_REMAP_SYSTEMFLASH
 275:Drivers/STM32C0xx_HAL_Driver/Inc/stm32c0xx_ll_system.h ****   *         @arg @ref LL_SYSCFG_REMAP_SRAM
 276:Drivers/STM32C0xx_HAL_Driver/Inc/stm32c0xx_ll_system.h ****   */
 277:Drivers/STM32C0xx_HAL_Driver/Inc/stm32c0xx_ll_system.h **** __STATIC_INLINE uint32_t LL_SYSCFG_GetRemapMemory(void)
 278:Drivers/STM32C0xx_HAL_Driver/Inc/stm32c0xx_ll_system.h **** {
 279:Drivers/STM32C0xx_HAL_Driver/Inc/stm32c0xx_ll_system.h ****   return (uint32_t)(READ_BIT(SYSCFG->CFGR1, SYSCFG_CFGR1_MEM_MODE));
 280:Drivers/STM32C0xx_HAL_Driver/Inc/stm32c0xx_ll_system.h **** }
 281:Drivers/STM32C0xx_HAL_Driver/Inc/stm32c0xx_ll_system.h **** 
 282:Drivers/STM32C0xx_HAL_Driver/Inc/stm32c0xx_ll_system.h **** /**
 283:Drivers/STM32C0xx_HAL_Driver/Inc/stm32c0xx_ll_system.h ****   * @brief  Enable remap of a pin on different pad
 284:Drivers/STM32C0xx_HAL_Driver/Inc/stm32c0xx_ll_system.h ****   * @rmtoll SYSCFG_CFGR1 PA11_RMP  LL_SYSCFG_EnablePinRemap\n
 285:Drivers/STM32C0xx_HAL_Driver/Inc/stm32c0xx_ll_system.h ****   *         SYSCFG_CFGR1 PA12_RMP   LL_SYSCFG_EnablePinRemap\n
 286:Drivers/STM32C0xx_HAL_Driver/Inc/stm32c0xx_ll_system.h ****   * @param  PinRemap This parameter can be a combination of the following values:
 287:Drivers/STM32C0xx_HAL_Driver/Inc/stm32c0xx_ll_system.h ****   *         @arg @ref LL_SYSCFG_PIN_RMP_PA11
ARM GAS  C:\Users\xhex8\AppData\Local\Temp\ccXkJLMo.s 			page 34


 288:Drivers/STM32C0xx_HAL_Driver/Inc/stm32c0xx_ll_system.h ****   *         @arg @ref LL_SYSCFG_PIN_RMP_PA12
 289:Drivers/STM32C0xx_HAL_Driver/Inc/stm32c0xx_ll_system.h ****   * @retval None
 290:Drivers/STM32C0xx_HAL_Driver/Inc/stm32c0xx_ll_system.h ****   */
 291:Drivers/STM32C0xx_HAL_Driver/Inc/stm32c0xx_ll_system.h **** __STATIC_INLINE void LL_SYSCFG_EnablePinRemap(uint32_t PinRemap)
 292:Drivers/STM32C0xx_HAL_Driver/Inc/stm32c0xx_ll_system.h **** {
 293:Drivers/STM32C0xx_HAL_Driver/Inc/stm32c0xx_ll_system.h ****   SET_BIT(SYSCFG->CFGR1, PinRemap);
 294:Drivers/STM32C0xx_HAL_Driver/Inc/stm32c0xx_ll_system.h **** }
 295:Drivers/STM32C0xx_HAL_Driver/Inc/stm32c0xx_ll_system.h **** 
 296:Drivers/STM32C0xx_HAL_Driver/Inc/stm32c0xx_ll_system.h **** /**
 297:Drivers/STM32C0xx_HAL_Driver/Inc/stm32c0xx_ll_system.h ****   * @brief  Enable remap of a pin on different pad
 298:Drivers/STM32C0xx_HAL_Driver/Inc/stm32c0xx_ll_system.h ****   * @rmtoll SYSCFG_CFGR1 PA11_RMP  LL_SYSCFG_DisablePinRemap\n
 299:Drivers/STM32C0xx_HAL_Driver/Inc/stm32c0xx_ll_system.h ****   *         SYSCFG_CFGR1 PA12_RMP   LL_SYSCFG_DisablePinRemap\n
 300:Drivers/STM32C0xx_HAL_Driver/Inc/stm32c0xx_ll_system.h ****   * @param  PinRemap This parameter can be a combination of the following values:
 301:Drivers/STM32C0xx_HAL_Driver/Inc/stm32c0xx_ll_system.h ****   *         @arg @ref LL_SYSCFG_PIN_RMP_PA11
 302:Drivers/STM32C0xx_HAL_Driver/Inc/stm32c0xx_ll_system.h ****   *         @arg @ref LL_SYSCFG_PIN_RMP_PA12
 303:Drivers/STM32C0xx_HAL_Driver/Inc/stm32c0xx_ll_system.h ****   * @retval None
 304:Drivers/STM32C0xx_HAL_Driver/Inc/stm32c0xx_ll_system.h ****   */
 305:Drivers/STM32C0xx_HAL_Driver/Inc/stm32c0xx_ll_system.h **** __STATIC_INLINE void LL_SYSCFG_DisablePinRemap(uint32_t PinRemap)
 306:Drivers/STM32C0xx_HAL_Driver/Inc/stm32c0xx_ll_system.h **** {
 307:Drivers/STM32C0xx_HAL_Driver/Inc/stm32c0xx_ll_system.h ****   CLEAR_BIT(SYSCFG->CFGR1, PinRemap);
 308:Drivers/STM32C0xx_HAL_Driver/Inc/stm32c0xx_ll_system.h **** }
 309:Drivers/STM32C0xx_HAL_Driver/Inc/stm32c0xx_ll_system.h **** 
 310:Drivers/STM32C0xx_HAL_Driver/Inc/stm32c0xx_ll_system.h **** /**
 311:Drivers/STM32C0xx_HAL_Driver/Inc/stm32c0xx_ll_system.h ****   * @brief  Set IR Modulation Envelope signal source.
 312:Drivers/STM32C0xx_HAL_Driver/Inc/stm32c0xx_ll_system.h ****   * @rmtoll SYSCFG_CFGR1 IR_MOD  LL_SYSCFG_SetIRModEnvelopeSignal
 313:Drivers/STM32C0xx_HAL_Driver/Inc/stm32c0xx_ll_system.h ****   * @param  Source This parameter can be one of the following values:
 314:Drivers/STM32C0xx_HAL_Driver/Inc/stm32c0xx_ll_system.h ****   *         @arg @ref LL_SYSCFG_IR_MOD_TIM16
 315:Drivers/STM32C0xx_HAL_Driver/Inc/stm32c0xx_ll_system.h ****   *         @arg @ref LL_SYSCFG_IR_MOD_USART1
 316:Drivers/STM32C0xx_HAL_Driver/Inc/stm32c0xx_ll_system.h ****   *         @arg @ref LL_SYSCFG_IR_MOD_USART2
 317:Drivers/STM32C0xx_HAL_Driver/Inc/stm32c0xx_ll_system.h ****   * @retval None
 318:Drivers/STM32C0xx_HAL_Driver/Inc/stm32c0xx_ll_system.h ****   */
 319:Drivers/STM32C0xx_HAL_Driver/Inc/stm32c0xx_ll_system.h **** __STATIC_INLINE void LL_SYSCFG_SetIRModEnvelopeSignal(uint32_t Source)
 320:Drivers/STM32C0xx_HAL_Driver/Inc/stm32c0xx_ll_system.h **** {
 321:Drivers/STM32C0xx_HAL_Driver/Inc/stm32c0xx_ll_system.h ****   MODIFY_REG(SYSCFG->CFGR1, SYSCFG_CFGR1_IR_MOD, Source);
 322:Drivers/STM32C0xx_HAL_Driver/Inc/stm32c0xx_ll_system.h **** }
 323:Drivers/STM32C0xx_HAL_Driver/Inc/stm32c0xx_ll_system.h **** 
 324:Drivers/STM32C0xx_HAL_Driver/Inc/stm32c0xx_ll_system.h **** /**
 325:Drivers/STM32C0xx_HAL_Driver/Inc/stm32c0xx_ll_system.h ****   * @brief  Get IR Modulation Envelope signal source.
 326:Drivers/STM32C0xx_HAL_Driver/Inc/stm32c0xx_ll_system.h ****   * @rmtoll SYSCFG_CFGR1 IR_MOD  LL_SYSCFG_GetIRModEnvelopeSignal
 327:Drivers/STM32C0xx_HAL_Driver/Inc/stm32c0xx_ll_system.h ****   * @retval Returned value can be one of the following values:
 328:Drivers/STM32C0xx_HAL_Driver/Inc/stm32c0xx_ll_system.h ****   *         @arg @ref LL_SYSCFG_IR_MOD_TIM16
 329:Drivers/STM32C0xx_HAL_Driver/Inc/stm32c0xx_ll_system.h ****   *         @arg @ref LL_SYSCFG_IR_MOD_USART1
 330:Drivers/STM32C0xx_HAL_Driver/Inc/stm32c0xx_ll_system.h ****   *         @arg @ref LL_SYSCFG_IR_MOD_USART2
 331:Drivers/STM32C0xx_HAL_Driver/Inc/stm32c0xx_ll_system.h ****   */
 332:Drivers/STM32C0xx_HAL_Driver/Inc/stm32c0xx_ll_system.h **** __STATIC_INLINE uint32_t LL_SYSCFG_GetIRModEnvelopeSignal(void)
 333:Drivers/STM32C0xx_HAL_Driver/Inc/stm32c0xx_ll_system.h **** {
 334:Drivers/STM32C0xx_HAL_Driver/Inc/stm32c0xx_ll_system.h ****   return (uint32_t)(READ_BIT(SYSCFG->CFGR1, SYSCFG_CFGR1_IR_MOD));
 335:Drivers/STM32C0xx_HAL_Driver/Inc/stm32c0xx_ll_system.h **** }
 336:Drivers/STM32C0xx_HAL_Driver/Inc/stm32c0xx_ll_system.h **** 
 337:Drivers/STM32C0xx_HAL_Driver/Inc/stm32c0xx_ll_system.h **** /**
 338:Drivers/STM32C0xx_HAL_Driver/Inc/stm32c0xx_ll_system.h ****   * @brief  Set IR Output polarity.
 339:Drivers/STM32C0xx_HAL_Driver/Inc/stm32c0xx_ll_system.h ****   * @rmtoll SYSCFG_CFGR1 IR_POL  LL_SYSCFG_SetIRPolarity
 340:Drivers/STM32C0xx_HAL_Driver/Inc/stm32c0xx_ll_system.h ****   * @param  Polarity This parameter can be one of the following values:
 341:Drivers/STM32C0xx_HAL_Driver/Inc/stm32c0xx_ll_system.h ****   *         @arg @ref LL_SYSCFG_IR_POL_INVERTED
 342:Drivers/STM32C0xx_HAL_Driver/Inc/stm32c0xx_ll_system.h ****   *         @arg @ref LL_SYSCFG_IR_POL_NOT_INVERTED
 343:Drivers/STM32C0xx_HAL_Driver/Inc/stm32c0xx_ll_system.h ****   * @retval None
 344:Drivers/STM32C0xx_HAL_Driver/Inc/stm32c0xx_ll_system.h ****   */
ARM GAS  C:\Users\xhex8\AppData\Local\Temp\ccXkJLMo.s 			page 35


 345:Drivers/STM32C0xx_HAL_Driver/Inc/stm32c0xx_ll_system.h **** __STATIC_INLINE void LL_SYSCFG_SetIRPolarity(uint32_t Polarity)
 346:Drivers/STM32C0xx_HAL_Driver/Inc/stm32c0xx_ll_system.h **** {
 347:Drivers/STM32C0xx_HAL_Driver/Inc/stm32c0xx_ll_system.h ****   MODIFY_REG(SYSCFG->CFGR1, SYSCFG_CFGR1_IR_POL, Polarity);
 348:Drivers/STM32C0xx_HAL_Driver/Inc/stm32c0xx_ll_system.h **** }
 349:Drivers/STM32C0xx_HAL_Driver/Inc/stm32c0xx_ll_system.h **** 
 350:Drivers/STM32C0xx_HAL_Driver/Inc/stm32c0xx_ll_system.h **** /**
 351:Drivers/STM32C0xx_HAL_Driver/Inc/stm32c0xx_ll_system.h ****   * @brief  Get IR Output polarity.
 352:Drivers/STM32C0xx_HAL_Driver/Inc/stm32c0xx_ll_system.h ****   * @rmtoll SYSCFG_CFGR1 IR_POL  LL_SYSCFG_GetIRPolarity
 353:Drivers/STM32C0xx_HAL_Driver/Inc/stm32c0xx_ll_system.h ****   * @retval Returned value can be one of the following values:
 354:Drivers/STM32C0xx_HAL_Driver/Inc/stm32c0xx_ll_system.h ****   *         @arg @ref LL_SYSCFG_IR_POL_INVERTED
 355:Drivers/STM32C0xx_HAL_Driver/Inc/stm32c0xx_ll_system.h ****   *         @arg @ref LL_SYSCFG_IR_POL_NOT_INVERTED
 356:Drivers/STM32C0xx_HAL_Driver/Inc/stm32c0xx_ll_system.h ****   */
 357:Drivers/STM32C0xx_HAL_Driver/Inc/stm32c0xx_ll_system.h **** __STATIC_INLINE uint32_t LL_SYSCFG_GetIRPolarity(void)
 358:Drivers/STM32C0xx_HAL_Driver/Inc/stm32c0xx_ll_system.h **** {
 359:Drivers/STM32C0xx_HAL_Driver/Inc/stm32c0xx_ll_system.h ****   return (uint32_t)(READ_BIT(SYSCFG->CFGR1, SYSCFG_CFGR1_IR_POL));
 360:Drivers/STM32C0xx_HAL_Driver/Inc/stm32c0xx_ll_system.h **** }
 361:Drivers/STM32C0xx_HAL_Driver/Inc/stm32c0xx_ll_system.h **** 
 362:Drivers/STM32C0xx_HAL_Driver/Inc/stm32c0xx_ll_system.h **** 
 363:Drivers/STM32C0xx_HAL_Driver/Inc/stm32c0xx_ll_system.h **** /**
 364:Drivers/STM32C0xx_HAL_Driver/Inc/stm32c0xx_ll_system.h ****   * @brief  Enable the I2C fast mode plus driving capability.
 365:Drivers/STM32C0xx_HAL_Driver/Inc/stm32c0xx_ll_system.h ****   * @rmtoll SYSCFG_CFGR1 I2C_FMP_PB6   LL_SYSCFG_EnableFastModePlus\n
 366:Drivers/STM32C0xx_HAL_Driver/Inc/stm32c0xx_ll_system.h ****   *         SYSCFG_CFGR1 I2C_FMP_PB7   LL_SYSCFG_EnableFastModePlus\n
 367:Drivers/STM32C0xx_HAL_Driver/Inc/stm32c0xx_ll_system.h ****   *         SYSCFG_CFGR1 I2C_FMP_PB8   LL_SYSCFG_EnableFastModePlus\n
 368:Drivers/STM32C0xx_HAL_Driver/Inc/stm32c0xx_ll_system.h ****   *         SYSCFG_CFGR1 I2C_FMP_PB9   LL_SYSCFG_EnableFastModePlus\n
 369:Drivers/STM32C0xx_HAL_Driver/Inc/stm32c0xx_ll_system.h ****   *         SYSCFG_CFGR1 I2C_FMP_I2C1  LL_SYSCFG_EnableFastModePlus\n
 370:Drivers/STM32C0xx_HAL_Driver/Inc/stm32c0xx_ll_system.h ****   *         SYSCFG_CFGR1 I2C_FMP_PA9   LL_SYSCFG_EnableFastModePlus\n
 371:Drivers/STM32C0xx_HAL_Driver/Inc/stm32c0xx_ll_system.h ****   *         SYSCFG_CFGR1 I2C_FMP_PA10  LL_SYSCFG_EnableFastModePlus
 372:Drivers/STM32C0xx_HAL_Driver/Inc/stm32c0xx_ll_system.h ****   *         SYSCFG_CFGR1 I2C_FMP_PC14  LL_SYSCFG_EnableFastModePlus
 373:Drivers/STM32C0xx_HAL_Driver/Inc/stm32c0xx_ll_system.h ****   * @param  ConfigFastModePlus This parameter can be a combination of the following values:
 374:Drivers/STM32C0xx_HAL_Driver/Inc/stm32c0xx_ll_system.h ****   *         @arg @ref LL_SYSCFG_I2C_FASTMODEPLUS_PB6
 375:Drivers/STM32C0xx_HAL_Driver/Inc/stm32c0xx_ll_system.h ****   *         @arg @ref LL_SYSCFG_I2C_FASTMODEPLUS_PB7
 376:Drivers/STM32C0xx_HAL_Driver/Inc/stm32c0xx_ll_system.h ****   *         @arg @ref LL_SYSCFG_I2C_FASTMODEPLUS_PB8
 377:Drivers/STM32C0xx_HAL_Driver/Inc/stm32c0xx_ll_system.h ****   *         @arg @ref LL_SYSCFG_I2C_FASTMODEPLUS_PB9
 378:Drivers/STM32C0xx_HAL_Driver/Inc/stm32c0xx_ll_system.h ****   *         @arg @ref LL_SYSCFG_I2C_FASTMODEPLUS_I2C1
 379:Drivers/STM32C0xx_HAL_Driver/Inc/stm32c0xx_ll_system.h ****   *         @arg @ref LL_SYSCFG_I2C_FASTMODEPLUS_PA9
 380:Drivers/STM32C0xx_HAL_Driver/Inc/stm32c0xx_ll_system.h ****   *         @arg @ref LL_SYSCFG_I2C_FASTMODEPLUS_PA10
 381:Drivers/STM32C0xx_HAL_Driver/Inc/stm32c0xx_ll_system.h ****   *         @arg @ref LL_SYSCFG_I2C_FASTMODEPLUS_PC14
 382:Drivers/STM32C0xx_HAL_Driver/Inc/stm32c0xx_ll_system.h ****   *
 383:Drivers/STM32C0xx_HAL_Driver/Inc/stm32c0xx_ll_system.h ****   * @retval None
 384:Drivers/STM32C0xx_HAL_Driver/Inc/stm32c0xx_ll_system.h ****   */
 385:Drivers/STM32C0xx_HAL_Driver/Inc/stm32c0xx_ll_system.h **** __STATIC_INLINE void LL_SYSCFG_EnableFastModePlus(uint32_t ConfigFastModePlus)
 386:Drivers/STM32C0xx_HAL_Driver/Inc/stm32c0xx_ll_system.h **** {
 387:Drivers/STM32C0xx_HAL_Driver/Inc/stm32c0xx_ll_system.h ****   SET_BIT(SYSCFG->CFGR1, ConfigFastModePlus);
 388:Drivers/STM32C0xx_HAL_Driver/Inc/stm32c0xx_ll_system.h **** }
 389:Drivers/STM32C0xx_HAL_Driver/Inc/stm32c0xx_ll_system.h **** 
 390:Drivers/STM32C0xx_HAL_Driver/Inc/stm32c0xx_ll_system.h **** /**
 391:Drivers/STM32C0xx_HAL_Driver/Inc/stm32c0xx_ll_system.h ****   * @brief  Disable the I2C fast mode plus driving capability.
 392:Drivers/STM32C0xx_HAL_Driver/Inc/stm32c0xx_ll_system.h ****   * @rmtoll SYSCFG_CFGR1 I2C_FMP_PB6   LL_SYSCFG_DisableFastModePlus\n
 393:Drivers/STM32C0xx_HAL_Driver/Inc/stm32c0xx_ll_system.h ****   *         SYSCFG_CFGR1 I2C_FMP_PB7   LL_SYSCFG_DisableFastModePlus\n
 394:Drivers/STM32C0xx_HAL_Driver/Inc/stm32c0xx_ll_system.h ****   *         SYSCFG_CFGR1 I2C_FMP_PB8   LL_SYSCFG_DisableFastModePlus\n
 395:Drivers/STM32C0xx_HAL_Driver/Inc/stm32c0xx_ll_system.h ****   *         SYSCFG_CFGR1 I2C_FMP_PB9   LL_SYSCFG_DisableFastModePlus\n
 396:Drivers/STM32C0xx_HAL_Driver/Inc/stm32c0xx_ll_system.h ****   *         SYSCFG_CFGR1 I2C_FMP_I2C1  LL_SYSCFG_DisableFastModePlus\n
 397:Drivers/STM32C0xx_HAL_Driver/Inc/stm32c0xx_ll_system.h ****   *         SYSCFG_CFGR1 I2C_FMP_PA9   LL_SYSCFG_DisableFastModePlus\n
 398:Drivers/STM32C0xx_HAL_Driver/Inc/stm32c0xx_ll_system.h ****   *         SYSCFG_CFGR1 I2C_FMP_PA10  LL_SYSCFG_DisableFastModePlus
 399:Drivers/STM32C0xx_HAL_Driver/Inc/stm32c0xx_ll_system.h ****   *         SYSCFG_CFGR1 I2C_FMP_PC14  LL_SYSCFG_EnableFastModePlus
 400:Drivers/STM32C0xx_HAL_Driver/Inc/stm32c0xx_ll_system.h ****   * @param  ConfigFastModePlus This parameter can be a combination of the following values:
 401:Drivers/STM32C0xx_HAL_Driver/Inc/stm32c0xx_ll_system.h ****   *         @arg @ref LL_SYSCFG_I2C_FASTMODEPLUS_PB6
ARM GAS  C:\Users\xhex8\AppData\Local\Temp\ccXkJLMo.s 			page 36


 402:Drivers/STM32C0xx_HAL_Driver/Inc/stm32c0xx_ll_system.h ****   *         @arg @ref LL_SYSCFG_I2C_FASTMODEPLUS_PB7
 403:Drivers/STM32C0xx_HAL_Driver/Inc/stm32c0xx_ll_system.h ****   *         @arg @ref LL_SYSCFG_I2C_FASTMODEPLUS_PB8
 404:Drivers/STM32C0xx_HAL_Driver/Inc/stm32c0xx_ll_system.h ****   *         @arg @ref LL_SYSCFG_I2C_FASTMODEPLUS_PB9
 405:Drivers/STM32C0xx_HAL_Driver/Inc/stm32c0xx_ll_system.h ****   *         @arg @ref LL_SYSCFG_I2C_FASTMODEPLUS_I2C1
 406:Drivers/STM32C0xx_HAL_Driver/Inc/stm32c0xx_ll_system.h ****   *         @arg @ref LL_SYSCFG_I2C_FASTMODEPLUS_PA9
 407:Drivers/STM32C0xx_HAL_Driver/Inc/stm32c0xx_ll_system.h ****   *         @arg @ref LL_SYSCFG_I2C_FASTMODEPLUS_PA10
 408:Drivers/STM32C0xx_HAL_Driver/Inc/stm32c0xx_ll_system.h ****   *         @arg @ref LL_SYSCFG_I2C_FASTMODEPLUS_PC14
 409:Drivers/STM32C0xx_HAL_Driver/Inc/stm32c0xx_ll_system.h ****   *
 410:Drivers/STM32C0xx_HAL_Driver/Inc/stm32c0xx_ll_system.h ****   * @retval None
 411:Drivers/STM32C0xx_HAL_Driver/Inc/stm32c0xx_ll_system.h ****   */
 412:Drivers/STM32C0xx_HAL_Driver/Inc/stm32c0xx_ll_system.h **** __STATIC_INLINE void LL_SYSCFG_DisableFastModePlus(uint32_t ConfigFastModePlus)
 413:Drivers/STM32C0xx_HAL_Driver/Inc/stm32c0xx_ll_system.h **** {
 414:Drivers/STM32C0xx_HAL_Driver/Inc/stm32c0xx_ll_system.h ****   CLEAR_BIT(SYSCFG->CFGR1, ConfigFastModePlus);
 415:Drivers/STM32C0xx_HAL_Driver/Inc/stm32c0xx_ll_system.h **** }
 416:Drivers/STM32C0xx_HAL_Driver/Inc/stm32c0xx_ll_system.h **** 
 417:Drivers/STM32C0xx_HAL_Driver/Inc/stm32c0xx_ll_system.h **** /**
 418:Drivers/STM32C0xx_HAL_Driver/Inc/stm32c0xx_ll_system.h ****   * @brief  Set connections to TIM1/16/17 Break inputs
 419:Drivers/STM32C0xx_HAL_Driver/Inc/stm32c0xx_ll_system.h ****   * @rmtoll SYSCFG_CFGR2 CLL   LL_SYSCFG_SetTIMBreakInputs\n
 420:Drivers/STM32C0xx_HAL_Driver/Inc/stm32c0xx_ll_system.h ****   * @param  Break This parameter can be a combination of the following values:
 421:Drivers/STM32C0xx_HAL_Driver/Inc/stm32c0xx_ll_system.h ****   *         @arg @ref LL_SYSCFG_TIMBREAK_LOCKUP
 422:Drivers/STM32C0xx_HAL_Driver/Inc/stm32c0xx_ll_system.h ****   * @retval None
 423:Drivers/STM32C0xx_HAL_Driver/Inc/stm32c0xx_ll_system.h ****   */
 424:Drivers/STM32C0xx_HAL_Driver/Inc/stm32c0xx_ll_system.h **** __STATIC_INLINE void LL_SYSCFG_SetTIMBreakInputs(uint32_t Break)
 425:Drivers/STM32C0xx_HAL_Driver/Inc/stm32c0xx_ll_system.h **** {
 426:Drivers/STM32C0xx_HAL_Driver/Inc/stm32c0xx_ll_system.h ****   MODIFY_REG(SYSCFG->CFGR2, SYSCFG_CFGR2_CLL, Break);
 427:Drivers/STM32C0xx_HAL_Driver/Inc/stm32c0xx_ll_system.h **** }
 428:Drivers/STM32C0xx_HAL_Driver/Inc/stm32c0xx_ll_system.h **** 
 429:Drivers/STM32C0xx_HAL_Driver/Inc/stm32c0xx_ll_system.h **** /**
 430:Drivers/STM32C0xx_HAL_Driver/Inc/stm32c0xx_ll_system.h ****   * @brief  Get connections to TIM1/16/17 Break inputs
 431:Drivers/STM32C0xx_HAL_Driver/Inc/stm32c0xx_ll_system.h ****   * @rmtoll SYSCFG_CFGR2 CLL   LL_SYSCFG_GetTIMBreakInputs\n
 432:Drivers/STM32C0xx_HAL_Driver/Inc/stm32c0xx_ll_system.h ****   * @retval Returned value can be can be a combination of the following values:
 433:Drivers/STM32C0xx_HAL_Driver/Inc/stm32c0xx_ll_system.h ****   *         @arg @ref LL_SYSCFG_TIMBREAK_LOCKUP
 434:Drivers/STM32C0xx_HAL_Driver/Inc/stm32c0xx_ll_system.h ****   */
 435:Drivers/STM32C0xx_HAL_Driver/Inc/stm32c0xx_ll_system.h **** __STATIC_INLINE uint32_t LL_SYSCFG_GetTIMBreakInputs(void)
 436:Drivers/STM32C0xx_HAL_Driver/Inc/stm32c0xx_ll_system.h **** {
 437:Drivers/STM32C0xx_HAL_Driver/Inc/stm32c0xx_ll_system.h ****   return (uint32_t)(READ_BIT(SYSCFG->CFGR2, SYSCFG_CFGR2_CLL));
 438:Drivers/STM32C0xx_HAL_Driver/Inc/stm32c0xx_ll_system.h **** }
 439:Drivers/STM32C0xx_HAL_Driver/Inc/stm32c0xx_ll_system.h **** 
 440:Drivers/STM32C0xx_HAL_Driver/Inc/stm32c0xx_ll_system.h **** /**
 441:Drivers/STM32C0xx_HAL_Driver/Inc/stm32c0xx_ll_system.h ****   * @brief  Config PinMux
 442:Drivers/STM32C0xx_HAL_Driver/Inc/stm32c0xx_ll_system.h ****   * @rmtoll SYSCFG_CFGR3 CLL   LL_SYSCFG_ConfigPinMux\n
 443:Drivers/STM32C0xx_HAL_Driver/Inc/stm32c0xx_ll_system.h ****   * @param  mux_cfg This parameter can be a value of @ref SYSTEM_LL_PINMUX_CFG
 444:Drivers/STM32C0xx_HAL_Driver/Inc/stm32c0xx_ll_system.h ****   * @retval None
 445:Drivers/STM32C0xx_HAL_Driver/Inc/stm32c0xx_ll_system.h ****   */
 446:Drivers/STM32C0xx_HAL_Driver/Inc/stm32c0xx_ll_system.h **** __STATIC_INLINE void LL_SYSCFG_ConfigPinMux(uint32_t mux_cfg)
 996              		.loc 2 446 22 view .LVU161
 997              	.LBB7:
 447:Drivers/STM32C0xx_HAL_Driver/Inc/stm32c0xx_ll_system.h **** {
 448:Drivers/STM32C0xx_HAL_Driver/Inc/stm32c0xx_ll_system.h ****   MODIFY_REG(SYSCFG->CFGR3, (mux_cfg >> 16U), (mux_cfg & 0x0000FFFFU));
 998              		.loc 2 448 3 view .LVU162
 999 0000 044A     		ldr	r2, .L92
 1000 0002 D36B     		ldr	r3, [r2, #60]
 1001 0004 010C     		lsrs	r1, r0, #16
 1002 0006 8B43     		bics	r3, r1
 1003 0008 0004     		lsls	r0, r0, #16
 1004              	.LVL33:
 1005              		.loc 2 448 3 is_stmt 0 view .LVU163
ARM GAS  C:\Users\xhex8\AppData\Local\Temp\ccXkJLMo.s 			page 37


 1006 000a 000C     		lsrs	r0, r0, #16
 1007 000c 0343     		orrs	r3, r0
 1008 000e D363     		str	r3, [r2, #60]
 1009              	.LVL34:
 1010              		.loc 2 448 3 view .LVU164
 1011              	.LBE7:
 1012              	.LBE6:
 608:Drivers/STM32C0xx_HAL_Driver/Src/stm32c0xx_hal.c **** }
 1013              		.loc 1 608 1 view .LVU165
 1014              		@ sp needed
 1015 0010 7047     		bx	lr
 1016              	.L93:
 1017 0012 C046     		.align	2
 1018              	.L92:
 1019 0014 00000140 		.word	1073807360
 1020              		.cfi_endproc
 1021              	.LFE241:
 1023              		.section	.text.HAL_SYSCFG_GetPinBinding,"ax",%progbits
 1024              		.align	1
 1025              		.global	HAL_SYSCFG_GetPinBinding
 1026              		.syntax unified
 1027              		.code	16
 1028              		.thumb_func
 1030              	HAL_SYSCFG_GetPinBinding:
 1031              	.LVL35:
 1032              	.LFB242:
 609:Drivers/STM32C0xx_HAL_Driver/Src/stm32c0xx_hal.c **** 
 610:Drivers/STM32C0xx_HAL_Driver/Src/stm32c0xx_hal.c **** /**
 611:Drivers/STM32C0xx_HAL_Driver/Src/stm32c0xx_hal.c ****   * @brief return Pin Binding configuration
 612:Drivers/STM32C0xx_HAL_Driver/Src/stm32c0xx_hal.c ****   * @param  pin_binding_source
 613:Drivers/STM32C0xx_HAL_Driver/Src/stm32c0xx_hal.c ****   *         This parameter can be a value of @ref HAL_BIND_SCOURCE
 614:Drivers/STM32C0xx_HAL_Driver/Src/stm32c0xx_hal.c ****   * @retval PinMux configuration
 615:Drivers/STM32C0xx_HAL_Driver/Src/stm32c0xx_hal.c ****   */
 616:Drivers/STM32C0xx_HAL_Driver/Src/stm32c0xx_hal.c **** uint32_t HAL_SYSCFG_GetPinBinding(uint32_t pin_binding_source)
 617:Drivers/STM32C0xx_HAL_Driver/Src/stm32c0xx_hal.c **** {
 1033              		.loc 1 617 1 is_stmt 1 view -0
 1034              		.cfi_startproc
 1035              		@ args = 0, pretend = 0, frame = 0
 1036              		@ frame_needed = 0, uses_anonymous_args = 0
 1037              		@ link register save eliminated.
 1038              		.loc 1 617 1 is_stmt 0 view .LVU167
 1039 0000 0300     		movs	r3, r0
 618:Drivers/STM32C0xx_HAL_Driver/Src/stm32c0xx_hal.c ****   return LL_SYSCFG_GetConfigPinMux(pin_binding_source);
 1040              		.loc 1 618 3 is_stmt 1 view .LVU168
 1041              	.LVL36:
 1042              	.LBB8:
 1043              	.LBI8:
 449:Drivers/STM32C0xx_HAL_Driver/Inc/stm32c0xx_ll_system.h **** }
 450:Drivers/STM32C0xx_HAL_Driver/Inc/stm32c0xx_ll_system.h **** 
 451:Drivers/STM32C0xx_HAL_Driver/Inc/stm32c0xx_ll_system.h **** /**
 452:Drivers/STM32C0xx_HAL_Driver/Inc/stm32c0xx_ll_system.h ****   * @brief  Get PinMux configuration
 453:Drivers/STM32C0xx_HAL_Driver/Inc/stm32c0xx_ll_system.h ****   * @rmtoll SYSCFG_CFGR3 CLL   LL_SYSCFG_GetConfigPinMux\n
 454:Drivers/STM32C0xx_HAL_Driver/Inc/stm32c0xx_ll_system.h ****   * @param  LL_PINMUX_PACKx_PINy This parameter can be a value of @ref SYSTEM_LL_PINMUX_SOURCE
 455:Drivers/STM32C0xx_HAL_Driver/Inc/stm32c0xx_ll_system.h ****   * @retval Returned value can be one of SYSTEM_LL_PINMUX_CFG defines
 456:Drivers/STM32C0xx_HAL_Driver/Inc/stm32c0xx_ll_system.h ****   */
 457:Drivers/STM32C0xx_HAL_Driver/Inc/stm32c0xx_ll_system.h **** __STATIC_INLINE uint32_t LL_SYSCFG_GetConfigPinMux(uint32_t LL_PINMUX_PACKx_PINy)
 1044              		.loc 2 457 26 view .LVU169
ARM GAS  C:\Users\xhex8\AppData\Local\Temp\ccXkJLMo.s 			page 38


 1045              	.LBB9:
 458:Drivers/STM32C0xx_HAL_Driver/Inc/stm32c0xx_ll_system.h **** {
 459:Drivers/STM32C0xx_HAL_Driver/Inc/stm32c0xx_ll_system.h ****   return (uint32_t)(READ_BIT(SYSCFG->CFGR3, LL_PINMUX_PACKx_PINy) | (LL_PINMUX_PACKx_PINy << 16U));
 1046              		.loc 2 459 3 view .LVU170
 1047              		.loc 2 459 21 is_stmt 0 view .LVU171
 1048 0002 034A     		ldr	r2, .L95
 1049 0004 D06B     		ldr	r0, [r2, #60]
 1050              	.LVL37:
 1051              		.loc 2 459 21 view .LVU172
 1052 0006 1840     		ands	r0, r3
 1053              		.loc 2 459 91 view .LVU173
 1054 0008 1B04     		lsls	r3, r3, #16
 1055              	.LVL38:
 1056              		.loc 2 459 10 view .LVU174
 1057 000a 1843     		orrs	r0, r3
 1058              	.LVL39:
 1059              		.loc 2 459 10 view .LVU175
 1060              	.LBE9:
 1061              	.LBE8:
 619:Drivers/STM32C0xx_HAL_Driver/Src/stm32c0xx_hal.c **** }
 1062              		.loc 1 619 1 view .LVU176
 1063              		@ sp needed
 1064 000c 7047     		bx	lr
 1065              	.L96:
 1066 000e C046     		.align	2
 1067              	.L95:
 1068 0010 00000140 		.word	1073807360
 1069              		.cfi_endproc
 1070              	.LFE242:
 1072              		.global	uwTickFreq
 1073              		.section	.data.uwTickFreq,"aw"
 1076              	uwTickFreq:
 1077 0000 01       		.byte	1
 1078              		.global	uwTickPrio
 1079              		.section	.data.uwTickPrio,"aw"
 1080              		.align	2
 1083              	uwTickPrio:
 1084 0000 04000000 		.word	4
 1085              		.global	uwTick
 1086              		.section	.bss.uwTick,"aw",%nobits
 1087              		.align	2
 1090              	uwTick:
 1091 0000 00000000 		.space	4
 1092              		.text
 1093              	.Letext0:
 1094              		.file 3 "Drivers/CMSIS/Device/ST/STM32C0xx/Include/stm32c011xx.h"
 1095              		.file 4 "c:\\users\\xhex8\\appdata\\roaming\\code\\user\\globalstorage\\bmd.stm32-for-vscode\\@xpa
 1096              		.file 5 "c:\\users\\xhex8\\appdata\\roaming\\code\\user\\globalstorage\\bmd.stm32-for-vscode\\@xpa
 1097              		.file 6 "Drivers/CMSIS/Include/core_cm0plus.h"
 1098              		.file 7 "Drivers/STM32C0xx_HAL_Driver/Inc/stm32c0xx_hal_def.h"
 1099              		.file 8 "Drivers/STM32C0xx_HAL_Driver/Inc/stm32c0xx_hal.h"
 1100              		.file 9 "Drivers/CMSIS/Device/ST/STM32C0xx/Include/system_stm32c0xx.h"
 1101              		.file 10 "Drivers/STM32C0xx_HAL_Driver/Inc/stm32c0xx_hal_cortex.h"
ARM GAS  C:\Users\xhex8\AppData\Local\Temp\ccXkJLMo.s 			page 39

