ARM GAS  C:\Users\xhex8\AppData\Local\Temp\cc9kN3e4.s 			page 1


   1              		.cpu cortex-m0
   2              		.arch armv6s-m
   3              		.fpu softvfp
   4              		.eabi_attribute 20, 1
   5              		.eabi_attribute 21, 1
   6              		.eabi_attribute 23, 3
   7              		.eabi_attribute 24, 1
   8              		.eabi_attribute 25, 1
   9              		.eabi_attribute 26, 1
  10              		.eabi_attribute 30, 1
  11              		.eabi_attribute 34, 0
  12              		.eabi_attribute 18, 4
  13              		.file	"stm32c0xx_hal_pwr_ex.c"
  14              		.text
  15              	.Ltext0:
  16              		.cfi_sections	.debug_frame
  17              		.file 1 "Drivers/STM32C0xx_HAL_Driver/Src/stm32c0xx_hal_pwr_ex.c"
  18              		.section	.text.HAL_PWREx_EnableInternalWakeUpLine,"ax",%progbits
  19              		.align	1
  20              		.global	HAL_PWREx_EnableInternalWakeUpLine
  21              		.syntax unified
  22              		.code	16
  23              		.thumb_func
  25              	HAL_PWREx_EnableInternalWakeUpLine:
  26              	.LFB214:
   1:Drivers/STM32C0xx_HAL_Driver/Src/stm32c0xx_hal_pwr_ex.c **** /**
   2:Drivers/STM32C0xx_HAL_Driver/Src/stm32c0xx_hal_pwr_ex.c ****   ******************************************************************************
   3:Drivers/STM32C0xx_HAL_Driver/Src/stm32c0xx_hal_pwr_ex.c ****   * @file    stm32c0xx_hal_pwr_ex.c
   4:Drivers/STM32C0xx_HAL_Driver/Src/stm32c0xx_hal_pwr_ex.c ****   * @author  MCD Application Team
   5:Drivers/STM32C0xx_HAL_Driver/Src/stm32c0xx_hal_pwr_ex.c ****   * @brief   Extended PWR HAL module driver.
   6:Drivers/STM32C0xx_HAL_Driver/Src/stm32c0xx_hal_pwr_ex.c ****   *          This file provides firmware functions to manage the following
   7:Drivers/STM32C0xx_HAL_Driver/Src/stm32c0xx_hal_pwr_ex.c ****   *          functionalities of the Power Controller (PWR) peripheral:
   8:Drivers/STM32C0xx_HAL_Driver/Src/stm32c0xx_hal_pwr_ex.c ****   *           + Extended Initialization and de-initialization functions
   9:Drivers/STM32C0xx_HAL_Driver/Src/stm32c0xx_hal_pwr_ex.c ****   *           + Extended Peripheral Control functions
  10:Drivers/STM32C0xx_HAL_Driver/Src/stm32c0xx_hal_pwr_ex.c ****   *
  11:Drivers/STM32C0xx_HAL_Driver/Src/stm32c0xx_hal_pwr_ex.c ****   ******************************************************************************
  12:Drivers/STM32C0xx_HAL_Driver/Src/stm32c0xx_hal_pwr_ex.c ****   * @attention
  13:Drivers/STM32C0xx_HAL_Driver/Src/stm32c0xx_hal_pwr_ex.c ****   *
  14:Drivers/STM32C0xx_HAL_Driver/Src/stm32c0xx_hal_pwr_ex.c ****   * Copyright (c) 2022 STMicroelectronics.
  15:Drivers/STM32C0xx_HAL_Driver/Src/stm32c0xx_hal_pwr_ex.c ****   * All rights reserved.
  16:Drivers/STM32C0xx_HAL_Driver/Src/stm32c0xx_hal_pwr_ex.c ****   *
  17:Drivers/STM32C0xx_HAL_Driver/Src/stm32c0xx_hal_pwr_ex.c ****   * This software is licensed under terms that can be found in the LICENSE file
  18:Drivers/STM32C0xx_HAL_Driver/Src/stm32c0xx_hal_pwr_ex.c ****   * in the root directory of this software component.
  19:Drivers/STM32C0xx_HAL_Driver/Src/stm32c0xx_hal_pwr_ex.c ****   * If no LICENSE file comes with this software, it is provided AS-IS.
  20:Drivers/STM32C0xx_HAL_Driver/Src/stm32c0xx_hal_pwr_ex.c ****   *
  21:Drivers/STM32C0xx_HAL_Driver/Src/stm32c0xx_hal_pwr_ex.c ****   ******************************************************************************
  22:Drivers/STM32C0xx_HAL_Driver/Src/stm32c0xx_hal_pwr_ex.c ****   */
  23:Drivers/STM32C0xx_HAL_Driver/Src/stm32c0xx_hal_pwr_ex.c **** 
  24:Drivers/STM32C0xx_HAL_Driver/Src/stm32c0xx_hal_pwr_ex.c **** /* Includes ------------------------------------------------------------------*/
  25:Drivers/STM32C0xx_HAL_Driver/Src/stm32c0xx_hal_pwr_ex.c **** #include "stm32c0xx_hal.h"
  26:Drivers/STM32C0xx_HAL_Driver/Src/stm32c0xx_hal_pwr_ex.c **** 
  27:Drivers/STM32C0xx_HAL_Driver/Src/stm32c0xx_hal_pwr_ex.c **** /** @addtogroup STM32C0xx_HAL_Driver
  28:Drivers/STM32C0xx_HAL_Driver/Src/stm32c0xx_hal_pwr_ex.c ****   * @{
  29:Drivers/STM32C0xx_HAL_Driver/Src/stm32c0xx_hal_pwr_ex.c ****   */
  30:Drivers/STM32C0xx_HAL_Driver/Src/stm32c0xx_hal_pwr_ex.c **** 
  31:Drivers/STM32C0xx_HAL_Driver/Src/stm32c0xx_hal_pwr_ex.c **** /** @addtogroup PWREx
  32:Drivers/STM32C0xx_HAL_Driver/Src/stm32c0xx_hal_pwr_ex.c ****   * @{
ARM GAS  C:\Users\xhex8\AppData\Local\Temp\cc9kN3e4.s 			page 2


  33:Drivers/STM32C0xx_HAL_Driver/Src/stm32c0xx_hal_pwr_ex.c ****   */
  34:Drivers/STM32C0xx_HAL_Driver/Src/stm32c0xx_hal_pwr_ex.c **** 
  35:Drivers/STM32C0xx_HAL_Driver/Src/stm32c0xx_hal_pwr_ex.c **** #ifdef HAL_PWR_MODULE_ENABLED
  36:Drivers/STM32C0xx_HAL_Driver/Src/stm32c0xx_hal_pwr_ex.c **** 
  37:Drivers/STM32C0xx_HAL_Driver/Src/stm32c0xx_hal_pwr_ex.c **** /* Private typedef -----------------------------------------------------------*/
  38:Drivers/STM32C0xx_HAL_Driver/Src/stm32c0xx_hal_pwr_ex.c **** /* Private define ------------------------------------------------------------*/
  39:Drivers/STM32C0xx_HAL_Driver/Src/stm32c0xx_hal_pwr_ex.c **** /** @defgroup PWR_Extended_Private_Defines PWR Extended Private Defines
  40:Drivers/STM32C0xx_HAL_Driver/Src/stm32c0xx_hal_pwr_ex.c ****   * @{
  41:Drivers/STM32C0xx_HAL_Driver/Src/stm32c0xx_hal_pwr_ex.c ****   */
  42:Drivers/STM32C0xx_HAL_Driver/Src/stm32c0xx_hal_pwr_ex.c **** 
  43:Drivers/STM32C0xx_HAL_Driver/Src/stm32c0xx_hal_pwr_ex.c **** /** @defgroup PWREx_Gpio_Pin_Number  PWREx Gpio Pin Number
  44:Drivers/STM32C0xx_HAL_Driver/Src/stm32c0xx_hal_pwr_ex.c ****   * @{
  45:Drivers/STM32C0xx_HAL_Driver/Src/stm32c0xx_hal_pwr_ex.c ****   */
  46:Drivers/STM32C0xx_HAL_Driver/Src/stm32c0xx_hal_pwr_ex.c **** #define PWR_GPIO_PIN_NB                     16u  /*!< Number of gpio pin in bank */
  47:Drivers/STM32C0xx_HAL_Driver/Src/stm32c0xx_hal_pwr_ex.c **** /**
  48:Drivers/STM32C0xx_HAL_Driver/Src/stm32c0xx_hal_pwr_ex.c ****   * @}
  49:Drivers/STM32C0xx_HAL_Driver/Src/stm32c0xx_hal_pwr_ex.c ****   */
  50:Drivers/STM32C0xx_HAL_Driver/Src/stm32c0xx_hal_pwr_ex.c **** 
  51:Drivers/STM32C0xx_HAL_Driver/Src/stm32c0xx_hal_pwr_ex.c **** /**
  52:Drivers/STM32C0xx_HAL_Driver/Src/stm32c0xx_hal_pwr_ex.c ****   * @}
  53:Drivers/STM32C0xx_HAL_Driver/Src/stm32c0xx_hal_pwr_ex.c ****   */
  54:Drivers/STM32C0xx_HAL_Driver/Src/stm32c0xx_hal_pwr_ex.c **** 
  55:Drivers/STM32C0xx_HAL_Driver/Src/stm32c0xx_hal_pwr_ex.c **** /* Private macro -------------------------------------------------------------*/
  56:Drivers/STM32C0xx_HAL_Driver/Src/stm32c0xx_hal_pwr_ex.c **** /* Private variables ---------------------------------------------------------*/
  57:Drivers/STM32C0xx_HAL_Driver/Src/stm32c0xx_hal_pwr_ex.c **** /* Private function prototypes -----------------------------------------------*/
  58:Drivers/STM32C0xx_HAL_Driver/Src/stm32c0xx_hal_pwr_ex.c **** /* Exported functions --------------------------------------------------------*/
  59:Drivers/STM32C0xx_HAL_Driver/Src/stm32c0xx_hal_pwr_ex.c **** /** @addtogroup PWREx_Exported_Functions PWR Extended Exported Functions
  60:Drivers/STM32C0xx_HAL_Driver/Src/stm32c0xx_hal_pwr_ex.c ****   * @{
  61:Drivers/STM32C0xx_HAL_Driver/Src/stm32c0xx_hal_pwr_ex.c ****   */
  62:Drivers/STM32C0xx_HAL_Driver/Src/stm32c0xx_hal_pwr_ex.c **** 
  63:Drivers/STM32C0xx_HAL_Driver/Src/stm32c0xx_hal_pwr_ex.c **** /** @addtogroup PWREx_Exported_Functions_Group1 Extended Peripheral Control functions
  64:Drivers/STM32C0xx_HAL_Driver/Src/stm32c0xx_hal_pwr_ex.c ****   *  @brief   Extended Peripheral Control functions
  65:Drivers/STM32C0xx_HAL_Driver/Src/stm32c0xx_hal_pwr_ex.c ****   *
  66:Drivers/STM32C0xx_HAL_Driver/Src/stm32c0xx_hal_pwr_ex.c **** @verbatim
  67:Drivers/STM32C0xx_HAL_Driver/Src/stm32c0xx_hal_pwr_ex.c ****  ===============================================================================
  68:Drivers/STM32C0xx_HAL_Driver/Src/stm32c0xx_hal_pwr_ex.c ****   ##### Extended Peripheral Initialization and de-initialization functions #####
  69:Drivers/STM32C0xx_HAL_Driver/Src/stm32c0xx_hal_pwr_ex.c ****  ===============================================================================
  70:Drivers/STM32C0xx_HAL_Driver/Src/stm32c0xx_hal_pwr_ex.c ****     [..]
  71:Drivers/STM32C0xx_HAL_Driver/Src/stm32c0xx_hal_pwr_ex.c **** 
  72:Drivers/STM32C0xx_HAL_Driver/Src/stm32c0xx_hal_pwr_ex.c **** @endverbatim
  73:Drivers/STM32C0xx_HAL_Driver/Src/stm32c0xx_hal_pwr_ex.c ****   * @{
  74:Drivers/STM32C0xx_HAL_Driver/Src/stm32c0xx_hal_pwr_ex.c ****   */
  75:Drivers/STM32C0xx_HAL_Driver/Src/stm32c0xx_hal_pwr_ex.c **** 
  76:Drivers/STM32C0xx_HAL_Driver/Src/stm32c0xx_hal_pwr_ex.c **** /**
  77:Drivers/STM32C0xx_HAL_Driver/Src/stm32c0xx_hal_pwr_ex.c ****   * @brief  Enable Internal Wake-up Line.
  78:Drivers/STM32C0xx_HAL_Driver/Src/stm32c0xx_hal_pwr_ex.c ****   * @retval None
  79:Drivers/STM32C0xx_HAL_Driver/Src/stm32c0xx_hal_pwr_ex.c ****   */
  80:Drivers/STM32C0xx_HAL_Driver/Src/stm32c0xx_hal_pwr_ex.c **** void HAL_PWREx_EnableInternalWakeUpLine(void)
  81:Drivers/STM32C0xx_HAL_Driver/Src/stm32c0xx_hal_pwr_ex.c **** {
  27              		.loc 1 81 1 view -0
  28              		.cfi_startproc
  29              		@ args = 0, pretend = 0, frame = 0
  30              		@ frame_needed = 0, uses_anonymous_args = 0
  31              		@ link register save eliminated.
  82:Drivers/STM32C0xx_HAL_Driver/Src/stm32c0xx_hal_pwr_ex.c ****   SET_BIT(PWR->CR3, PWR_CR3_EIWUL);
  32              		.loc 1 82 3 view .LVU1
  33 0000 034A     		ldr	r2, .L2
ARM GAS  C:\Users\xhex8\AppData\Local\Temp\cc9kN3e4.s 			page 3


  34 0002 9168     		ldr	r1, [r2, #8]
  35 0004 8023     		movs	r3, #128
  36 0006 1B02     		lsls	r3, r3, #8
  37 0008 0B43     		orrs	r3, r1
  38 000a 9360     		str	r3, [r2, #8]
  83:Drivers/STM32C0xx_HAL_Driver/Src/stm32c0xx_hal_pwr_ex.c **** }
  39              		.loc 1 83 1 is_stmt 0 view .LVU2
  40              		@ sp needed
  41 000c 7047     		bx	lr
  42              	.L3:
  43 000e C046     		.align	2
  44              	.L2:
  45 0010 00700040 		.word	1073770496
  46              		.cfi_endproc
  47              	.LFE214:
  49              		.section	.text.HAL_PWREx_DisableInternalWakeUpLine,"ax",%progbits
  50              		.align	1
  51              		.global	HAL_PWREx_DisableInternalWakeUpLine
  52              		.syntax unified
  53              		.code	16
  54              		.thumb_func
  56              	HAL_PWREx_DisableInternalWakeUpLine:
  57              	.LFB215:
  84:Drivers/STM32C0xx_HAL_Driver/Src/stm32c0xx_hal_pwr_ex.c **** 
  85:Drivers/STM32C0xx_HAL_Driver/Src/stm32c0xx_hal_pwr_ex.c **** 
  86:Drivers/STM32C0xx_HAL_Driver/Src/stm32c0xx_hal_pwr_ex.c **** /**
  87:Drivers/STM32C0xx_HAL_Driver/Src/stm32c0xx_hal_pwr_ex.c ****   * @brief  Disable Internal Wake-up Line.
  88:Drivers/STM32C0xx_HAL_Driver/Src/stm32c0xx_hal_pwr_ex.c ****   * @retval None
  89:Drivers/STM32C0xx_HAL_Driver/Src/stm32c0xx_hal_pwr_ex.c ****   */
  90:Drivers/STM32C0xx_HAL_Driver/Src/stm32c0xx_hal_pwr_ex.c **** void HAL_PWREx_DisableInternalWakeUpLine(void)
  91:Drivers/STM32C0xx_HAL_Driver/Src/stm32c0xx_hal_pwr_ex.c **** {
  58              		.loc 1 91 1 is_stmt 1 view -0
  59              		.cfi_startproc
  60              		@ args = 0, pretend = 0, frame = 0
  61              		@ frame_needed = 0, uses_anonymous_args = 0
  62              		@ link register save eliminated.
  92:Drivers/STM32C0xx_HAL_Driver/Src/stm32c0xx_hal_pwr_ex.c ****   CLEAR_BIT(PWR->CR3, PWR_CR3_EIWUL);
  63              		.loc 1 92 3 view .LVU4
  64 0000 024A     		ldr	r2, .L5
  65 0002 9368     		ldr	r3, [r2, #8]
  66 0004 0249     		ldr	r1, .L5+4
  67 0006 0B40     		ands	r3, r1
  68 0008 9360     		str	r3, [r2, #8]
  93:Drivers/STM32C0xx_HAL_Driver/Src/stm32c0xx_hal_pwr_ex.c **** }
  69              		.loc 1 93 1 is_stmt 0 view .LVU5
  70              		@ sp needed
  71 000a 7047     		bx	lr
  72              	.L6:
  73              		.align	2
  74              	.L5:
  75 000c 00700040 		.word	1073770496
  76 0010 FF7FFFFF 		.word	-32769
  77              		.cfi_endproc
  78              	.LFE215:
  80              		.section	.text.HAL_PWREx_EnableGPIOPullUp,"ax",%progbits
  81              		.align	1
  82              		.global	HAL_PWREx_EnableGPIOPullUp
ARM GAS  C:\Users\xhex8\AppData\Local\Temp\cc9kN3e4.s 			page 4


  83              		.syntax unified
  84              		.code	16
  85              		.thumb_func
  87              	HAL_PWREx_EnableGPIOPullUp:
  88              	.LVL0:
  89              	.LFB216:
  94:Drivers/STM32C0xx_HAL_Driver/Src/stm32c0xx_hal_pwr_ex.c **** 
  95:Drivers/STM32C0xx_HAL_Driver/Src/stm32c0xx_hal_pwr_ex.c **** 
  96:Drivers/STM32C0xx_HAL_Driver/Src/stm32c0xx_hal_pwr_ex.c **** /**
  97:Drivers/STM32C0xx_HAL_Driver/Src/stm32c0xx_hal_pwr_ex.c ****   * @brief  Enable GPIO pull-up state in Standby and Shutdown modes.
  98:Drivers/STM32C0xx_HAL_Driver/Src/stm32c0xx_hal_pwr_ex.c ****   * @note   Set the relevant PUy bit of PWR_PUCRx register to configure the I/O in
  99:Drivers/STM32C0xx_HAL_Driver/Src/stm32c0xx_hal_pwr_ex.c ****   *         pull-up state in Standby and Shutdown modes.
 100:Drivers/STM32C0xx_HAL_Driver/Src/stm32c0xx_hal_pwr_ex.c ****   * @note   This state is effective in Standby and Shutdown modes only if APC bit
 101:Drivers/STM32C0xx_HAL_Driver/Src/stm32c0xx_hal_pwr_ex.c ****   *         is set through HAL_PWREx_EnablePullUpPullDownConfig() API.
 102:Drivers/STM32C0xx_HAL_Driver/Src/stm32c0xx_hal_pwr_ex.c ****   * @note   The configuration is lost when exiting the Shutdown mode due to the
 103:Drivers/STM32C0xx_HAL_Driver/Src/stm32c0xx_hal_pwr_ex.c ****   *         power-on reset, maintained when exiting the Standby mode.
 104:Drivers/STM32C0xx_HAL_Driver/Src/stm32c0xx_hal_pwr_ex.c ****   * @note   To avoid any conflict at Standby and Shutdown modes exits, the corresponding
 105:Drivers/STM32C0xx_HAL_Driver/Src/stm32c0xx_hal_pwr_ex.c ****   *         PDy bit of PWR_PDCRx register is cleared unless it is reserved.
 106:Drivers/STM32C0xx_HAL_Driver/Src/stm32c0xx_hal_pwr_ex.c ****   * @param  GPIO Specify the IO port. This parameter can be PWR_GPIO_A, ..., PWR_GPIO_F
 107:Drivers/STM32C0xx_HAL_Driver/Src/stm32c0xx_hal_pwr_ex.c ****   *         to select the GPIO peripheral.
 108:Drivers/STM32C0xx_HAL_Driver/Src/stm32c0xx_hal_pwr_ex.c ****   * @param  GPIONumber Specify the I/O pins numbers.
 109:Drivers/STM32C0xx_HAL_Driver/Src/stm32c0xx_hal_pwr_ex.c ****   *         This parameter can be one of the following values:
 110:Drivers/STM32C0xx_HAL_Driver/Src/stm32c0xx_hal_pwr_ex.c ****   *         PWR_GPIO_BIT_0, ..., PWR_GPIO_BIT_15 (except for ports where less
 111:Drivers/STM32C0xx_HAL_Driver/Src/stm32c0xx_hal_pwr_ex.c ****   *         I/O pins are available) or the logical OR of several of them to set
 112:Drivers/STM32C0xx_HAL_Driver/Src/stm32c0xx_hal_pwr_ex.c ****   *         several bits for a given port in a single API call.
 113:Drivers/STM32C0xx_HAL_Driver/Src/stm32c0xx_hal_pwr_ex.c ****   * @retval HAL Status
 114:Drivers/STM32C0xx_HAL_Driver/Src/stm32c0xx_hal_pwr_ex.c ****   */
 115:Drivers/STM32C0xx_HAL_Driver/Src/stm32c0xx_hal_pwr_ex.c **** HAL_StatusTypeDef HAL_PWREx_EnableGPIOPullUp(uint32_t GPIO, uint32_t GPIONumber)
 116:Drivers/STM32C0xx_HAL_Driver/Src/stm32c0xx_hal_pwr_ex.c **** {
  90              		.loc 1 116 1 is_stmt 1 view -0
  91              		.cfi_startproc
  92              		@ args = 0, pretend = 0, frame = 0
  93              		@ frame_needed = 0, uses_anonymous_args = 0
  94              		@ link register save eliminated.
 117:Drivers/STM32C0xx_HAL_Driver/Src/stm32c0xx_hal_pwr_ex.c ****   HAL_StatusTypeDef status = HAL_OK;
  95              		.loc 1 117 3 view .LVU7
 118:Drivers/STM32C0xx_HAL_Driver/Src/stm32c0xx_hal_pwr_ex.c **** 
 119:Drivers/STM32C0xx_HAL_Driver/Src/stm32c0xx_hal_pwr_ex.c ****   assert_param(IS_PWR_GPIO(GPIO));
  96              		.loc 1 119 3 view .LVU8
 120:Drivers/STM32C0xx_HAL_Driver/Src/stm32c0xx_hal_pwr_ex.c ****   assert_param(IS_PWR_GPIO_BIT_NUMBER(GPIONumber));
  97              		.loc 1 120 3 view .LVU9
 121:Drivers/STM32C0xx_HAL_Driver/Src/stm32c0xx_hal_pwr_ex.c **** 
 122:Drivers/STM32C0xx_HAL_Driver/Src/stm32c0xx_hal_pwr_ex.c ****   switch (GPIO)
  98              		.loc 1 122 3 view .LVU10
  99 0000 0228     		cmp	r0, #2
 100 0002 25D0     		beq	.L8
 101 0004 0ED8     		bhi	.L9
 102 0006 0028     		cmp	r0, #0
 103 0008 19D0     		beq	.L10
 104 000a 0128     		cmp	r0, #1
 105 000c 08D1     		bne	.L14
 123:Drivers/STM32C0xx_HAL_Driver/Src/stm32c0xx_hal_pwr_ex.c ****   {
 124:Drivers/STM32C0xx_HAL_Driver/Src/stm32c0xx_hal_pwr_ex.c ****     case PWR_GPIO_A:
 125:Drivers/STM32C0xx_HAL_Driver/Src/stm32c0xx_hal_pwr_ex.c ****       SET_BIT(PWR->PUCRA, GPIONumber);
 126:Drivers/STM32C0xx_HAL_Driver/Src/stm32c0xx_hal_pwr_ex.c ****       CLEAR_BIT(PWR->PDCRA, GPIONumber);
 127:Drivers/STM32C0xx_HAL_Driver/Src/stm32c0xx_hal_pwr_ex.c ****       break;
 128:Drivers/STM32C0xx_HAL_Driver/Src/stm32c0xx_hal_pwr_ex.c **** 
ARM GAS  C:\Users\xhex8\AppData\Local\Temp\cc9kN3e4.s 			page 5


 129:Drivers/STM32C0xx_HAL_Driver/Src/stm32c0xx_hal_pwr_ex.c ****     case PWR_GPIO_B:
 130:Drivers/STM32C0xx_HAL_Driver/Src/stm32c0xx_hal_pwr_ex.c ****       SET_BIT(PWR->PUCRB, GPIONumber);
 106              		.loc 1 130 7 view .LVU11
 107 000e 154B     		ldr	r3, .L16
 108 0010 9A6A     		ldr	r2, [r3, #40]
 109 0012 0A43     		orrs	r2, r1
 110 0014 9A62     		str	r2, [r3, #40]
 131:Drivers/STM32C0xx_HAL_Driver/Src/stm32c0xx_hal_pwr_ex.c ****       CLEAR_BIT(PWR->PDCRB, GPIONumber);
 111              		.loc 1 131 7 view .LVU12
 112 0016 DA6A     		ldr	r2, [r3, #44]
 113 0018 8A43     		bics	r2, r1
 114 001a DA62     		str	r2, [r3, #44]
 132:Drivers/STM32C0xx_HAL_Driver/Src/stm32c0xx_hal_pwr_ex.c ****       break;
 115              		.loc 1 132 7 view .LVU13
 117:Drivers/STM32C0xx_HAL_Driver/Src/stm32c0xx_hal_pwr_ex.c **** 
 116              		.loc 1 117 21 is_stmt 0 view .LVU14
 117 001c 0020     		movs	r0, #0
 118              	.LVL1:
 119              		.loc 1 132 7 view .LVU15
 120 001e 0DE0     		b	.L12
 121              	.LVL2:
 122              	.L14:
 122:Drivers/STM32C0xx_HAL_Driver/Src/stm32c0xx_hal_pwr_ex.c ****   {
 123              		.loc 1 122 3 view .LVU16
 124 0020 0120     		movs	r0, #1
 125              	.LVL3:
 122:Drivers/STM32C0xx_HAL_Driver/Src/stm32c0xx_hal_pwr_ex.c ****   {
 126              		.loc 1 122 3 view .LVU17
 127 0022 0BE0     		b	.L12
 128              	.LVL4:
 129              	.L9:
 122:Drivers/STM32C0xx_HAL_Driver/Src/stm32c0xx_hal_pwr_ex.c ****   {
 130              		.loc 1 122 3 view .LVU18
 131 0024 0528     		cmp	r0, #5
 132 0026 08D1     		bne	.L15
 133:Drivers/STM32C0xx_HAL_Driver/Src/stm32c0xx_hal_pwr_ex.c **** 
 134:Drivers/STM32C0xx_HAL_Driver/Src/stm32c0xx_hal_pwr_ex.c ****     case PWR_GPIO_C:
 135:Drivers/STM32C0xx_HAL_Driver/Src/stm32c0xx_hal_pwr_ex.c ****       SET_BIT(PWR->PUCRC, GPIONumber);
 136:Drivers/STM32C0xx_HAL_Driver/Src/stm32c0xx_hal_pwr_ex.c ****       CLEAR_BIT(PWR->PDCRC, GPIONumber);
 137:Drivers/STM32C0xx_HAL_Driver/Src/stm32c0xx_hal_pwr_ex.c ****       break;
 138:Drivers/STM32C0xx_HAL_Driver/Src/stm32c0xx_hal_pwr_ex.c **** #if defined (STM32C031xx)
 139:Drivers/STM32C0xx_HAL_Driver/Src/stm32c0xx_hal_pwr_ex.c ****     case PWR_GPIO_D:
 140:Drivers/STM32C0xx_HAL_Driver/Src/stm32c0xx_hal_pwr_ex.c ****       SET_BIT(PWR->PUCRD, GPIONumber);
 141:Drivers/STM32C0xx_HAL_Driver/Src/stm32c0xx_hal_pwr_ex.c ****       CLEAR_BIT(PWR->PDCRD, GPIONumber);
 142:Drivers/STM32C0xx_HAL_Driver/Src/stm32c0xx_hal_pwr_ex.c ****       break;
 143:Drivers/STM32C0xx_HAL_Driver/Src/stm32c0xx_hal_pwr_ex.c **** #endif /* STM32C031xx */
 144:Drivers/STM32C0xx_HAL_Driver/Src/stm32c0xx_hal_pwr_ex.c ****     case PWR_GPIO_F:
 145:Drivers/STM32C0xx_HAL_Driver/Src/stm32c0xx_hal_pwr_ex.c ****       SET_BIT(PWR->PUCRF, GPIONumber);
 133              		.loc 1 145 7 is_stmt 1 view .LVU19
 134 0028 0E4B     		ldr	r3, .L16
 135 002a 9A6C     		ldr	r2, [r3, #72]
 136 002c 0A43     		orrs	r2, r1
 137 002e 9A64     		str	r2, [r3, #72]
 146:Drivers/STM32C0xx_HAL_Driver/Src/stm32c0xx_hal_pwr_ex.c ****       CLEAR_BIT(PWR->PDCRF, GPIONumber);
 138              		.loc 1 146 7 view .LVU20
 139 0030 DA6C     		ldr	r2, [r3, #76]
 140 0032 8A43     		bics	r2, r1
ARM GAS  C:\Users\xhex8\AppData\Local\Temp\cc9kN3e4.s 			page 6


 141 0034 DA64     		str	r2, [r3, #76]
 147:Drivers/STM32C0xx_HAL_Driver/Src/stm32c0xx_hal_pwr_ex.c ****       break;
 142              		.loc 1 147 7 view .LVU21
 117:Drivers/STM32C0xx_HAL_Driver/Src/stm32c0xx_hal_pwr_ex.c **** 
 143              		.loc 1 117 21 is_stmt 0 view .LVU22
 144 0036 0020     		movs	r0, #0
 145              	.LVL5:
 146              		.loc 1 147 7 view .LVU23
 147 0038 00E0     		b	.L12
 148              	.LVL6:
 149              	.L15:
 122:Drivers/STM32C0xx_HAL_Driver/Src/stm32c0xx_hal_pwr_ex.c ****   {
 150              		.loc 1 122 3 view .LVU24
 151 003a 0120     		movs	r0, #1
 152              	.LVL7:
 153              	.L12:
 148:Drivers/STM32C0xx_HAL_Driver/Src/stm32c0xx_hal_pwr_ex.c **** 
 149:Drivers/STM32C0xx_HAL_Driver/Src/stm32c0xx_hal_pwr_ex.c ****     default:
 150:Drivers/STM32C0xx_HAL_Driver/Src/stm32c0xx_hal_pwr_ex.c ****       status = HAL_ERROR;
 151:Drivers/STM32C0xx_HAL_Driver/Src/stm32c0xx_hal_pwr_ex.c ****       break;
 152:Drivers/STM32C0xx_HAL_Driver/Src/stm32c0xx_hal_pwr_ex.c ****   }
 153:Drivers/STM32C0xx_HAL_Driver/Src/stm32c0xx_hal_pwr_ex.c **** 
 154:Drivers/STM32C0xx_HAL_Driver/Src/stm32c0xx_hal_pwr_ex.c ****   return status;
 154              		.loc 1 154 3 is_stmt 1 view .LVU25
 155:Drivers/STM32C0xx_HAL_Driver/Src/stm32c0xx_hal_pwr_ex.c **** }
 155              		.loc 1 155 1 is_stmt 0 view .LVU26
 156              		@ sp needed
 157 003c 7047     		bx	lr
 158              	.LVL8:
 159              	.L10:
 125:Drivers/STM32C0xx_HAL_Driver/Src/stm32c0xx_hal_pwr_ex.c ****       CLEAR_BIT(PWR->PDCRA, GPIONumber);
 160              		.loc 1 125 7 is_stmt 1 view .LVU27
 161 003e 094B     		ldr	r3, .L16
 162 0040 1A6A     		ldr	r2, [r3, #32]
 163 0042 0A43     		orrs	r2, r1
 164 0044 1A62     		str	r2, [r3, #32]
 126:Drivers/STM32C0xx_HAL_Driver/Src/stm32c0xx_hal_pwr_ex.c ****       break;
 165              		.loc 1 126 7 view .LVU28
 166 0046 5A6A     		ldr	r2, [r3, #36]
 167 0048 8A43     		bics	r2, r1
 168 004a 5A62     		str	r2, [r3, #36]
 127:Drivers/STM32C0xx_HAL_Driver/Src/stm32c0xx_hal_pwr_ex.c **** 
 169              		.loc 1 127 7 view .LVU29
 117:Drivers/STM32C0xx_HAL_Driver/Src/stm32c0xx_hal_pwr_ex.c **** 
 170              		.loc 1 117 21 is_stmt 0 view .LVU30
 171 004c 0020     		movs	r0, #0
 172              	.LVL9:
 127:Drivers/STM32C0xx_HAL_Driver/Src/stm32c0xx_hal_pwr_ex.c **** 
 173              		.loc 1 127 7 view .LVU31
 174 004e F5E7     		b	.L12
 175              	.LVL10:
 176              	.L8:
 135:Drivers/STM32C0xx_HAL_Driver/Src/stm32c0xx_hal_pwr_ex.c ****       CLEAR_BIT(PWR->PDCRC, GPIONumber);
 177              		.loc 1 135 7 is_stmt 1 view .LVU32
 178 0050 044B     		ldr	r3, .L16
 179 0052 1A6B     		ldr	r2, [r3, #48]
 180 0054 0A43     		orrs	r2, r1
ARM GAS  C:\Users\xhex8\AppData\Local\Temp\cc9kN3e4.s 			page 7


 181 0056 1A63     		str	r2, [r3, #48]
 136:Drivers/STM32C0xx_HAL_Driver/Src/stm32c0xx_hal_pwr_ex.c ****       break;
 182              		.loc 1 136 7 view .LVU33
 183 0058 5A6B     		ldr	r2, [r3, #52]
 184 005a 8A43     		bics	r2, r1
 185 005c 5A63     		str	r2, [r3, #52]
 137:Drivers/STM32C0xx_HAL_Driver/Src/stm32c0xx_hal_pwr_ex.c **** #if defined (STM32C031xx)
 186              		.loc 1 137 7 view .LVU34
 117:Drivers/STM32C0xx_HAL_Driver/Src/stm32c0xx_hal_pwr_ex.c **** 
 187              		.loc 1 117 21 is_stmt 0 view .LVU35
 188 005e 0020     		movs	r0, #0
 189              	.LVL11:
 137:Drivers/STM32C0xx_HAL_Driver/Src/stm32c0xx_hal_pwr_ex.c **** #if defined (STM32C031xx)
 190              		.loc 1 137 7 view .LVU36
 191 0060 ECE7     		b	.L12
 192              	.L17:
 193 0062 C046     		.align	2
 194              	.L16:
 195 0064 00700040 		.word	1073770496
 196              		.cfi_endproc
 197              	.LFE216:
 199              		.section	.text.HAL_PWREx_DisableGPIOPullUp,"ax",%progbits
 200              		.align	1
 201              		.global	HAL_PWREx_DisableGPIOPullUp
 202              		.syntax unified
 203              		.code	16
 204              		.thumb_func
 206              	HAL_PWREx_DisableGPIOPullUp:
 207              	.LVL12:
 208              	.LFB217:
 156:Drivers/STM32C0xx_HAL_Driver/Src/stm32c0xx_hal_pwr_ex.c **** 
 157:Drivers/STM32C0xx_HAL_Driver/Src/stm32c0xx_hal_pwr_ex.c **** 
 158:Drivers/STM32C0xx_HAL_Driver/Src/stm32c0xx_hal_pwr_ex.c **** /**
 159:Drivers/STM32C0xx_HAL_Driver/Src/stm32c0xx_hal_pwr_ex.c ****   * @brief  Disable GPIO pull-up state in Standby mode and Shutdown modes.
 160:Drivers/STM32C0xx_HAL_Driver/Src/stm32c0xx_hal_pwr_ex.c ****   * @note   Reset the relevant PUy bit of PWR_PUCRx register used to configure the I/O
 161:Drivers/STM32C0xx_HAL_Driver/Src/stm32c0xx_hal_pwr_ex.c ****   *         in pull-up state in Standby and Shutdown modes.
 162:Drivers/STM32C0xx_HAL_Driver/Src/stm32c0xx_hal_pwr_ex.c ****   * @param  GPIO Specifies the IO port. This parameter can be PWR_GPIO_A, ..., PWR_GPIO_F
 163:Drivers/STM32C0xx_HAL_Driver/Src/stm32c0xx_hal_pwr_ex.c ****   *         to select the GPIO peripheral.
 164:Drivers/STM32C0xx_HAL_Driver/Src/stm32c0xx_hal_pwr_ex.c ****   * @param  GPIONumber Specify the I/O pins numbers.
 165:Drivers/STM32C0xx_HAL_Driver/Src/stm32c0xx_hal_pwr_ex.c ****   *         This parameter can be one of the following values:
 166:Drivers/STM32C0xx_HAL_Driver/Src/stm32c0xx_hal_pwr_ex.c ****   *         PWR_GPIO_BIT_0, ..., PWR_GPIO_BIT_15 (except for ports where less
 167:Drivers/STM32C0xx_HAL_Driver/Src/stm32c0xx_hal_pwr_ex.c ****   *         I/O pins are available) or the logical OR of several of them to reset
 168:Drivers/STM32C0xx_HAL_Driver/Src/stm32c0xx_hal_pwr_ex.c ****   *         several bits for a given port in a single API call.
 169:Drivers/STM32C0xx_HAL_Driver/Src/stm32c0xx_hal_pwr_ex.c ****   * @retval HAL Status
 170:Drivers/STM32C0xx_HAL_Driver/Src/stm32c0xx_hal_pwr_ex.c ****   */
 171:Drivers/STM32C0xx_HAL_Driver/Src/stm32c0xx_hal_pwr_ex.c **** HAL_StatusTypeDef HAL_PWREx_DisableGPIOPullUp(uint32_t GPIO, uint32_t GPIONumber)
 172:Drivers/STM32C0xx_HAL_Driver/Src/stm32c0xx_hal_pwr_ex.c **** {
 209              		.loc 1 172 1 is_stmt 1 view -0
 210              		.cfi_startproc
 211              		@ args = 0, pretend = 0, frame = 0
 212              		@ frame_needed = 0, uses_anonymous_args = 0
 213              		@ link register save eliminated.
 173:Drivers/STM32C0xx_HAL_Driver/Src/stm32c0xx_hal_pwr_ex.c ****   HAL_StatusTypeDef status = HAL_OK;
 214              		.loc 1 173 3 view .LVU38
 174:Drivers/STM32C0xx_HAL_Driver/Src/stm32c0xx_hal_pwr_ex.c **** 
 175:Drivers/STM32C0xx_HAL_Driver/Src/stm32c0xx_hal_pwr_ex.c ****   assert_param(IS_PWR_GPIO(GPIO));
 215              		.loc 1 175 3 view .LVU39
ARM GAS  C:\Users\xhex8\AppData\Local\Temp\cc9kN3e4.s 			page 8


 176:Drivers/STM32C0xx_HAL_Driver/Src/stm32c0xx_hal_pwr_ex.c ****   assert_param(IS_PWR_GPIO_BIT_NUMBER(GPIONumber));
 216              		.loc 1 176 3 view .LVU40
 177:Drivers/STM32C0xx_HAL_Driver/Src/stm32c0xx_hal_pwr_ex.c **** 
 178:Drivers/STM32C0xx_HAL_Driver/Src/stm32c0xx_hal_pwr_ex.c ****   switch (GPIO)
 217              		.loc 1 178 3 view .LVU41
 218 0000 0228     		cmp	r0, #2
 219 0002 1CD0     		beq	.L19
 220 0004 0BD8     		bhi	.L20
 221 0006 0028     		cmp	r0, #0
 222 0008 13D0     		beq	.L21
 223 000a 0128     		cmp	r0, #1
 224 000c 05D1     		bne	.L25
 179:Drivers/STM32C0xx_HAL_Driver/Src/stm32c0xx_hal_pwr_ex.c ****   {
 180:Drivers/STM32C0xx_HAL_Driver/Src/stm32c0xx_hal_pwr_ex.c ****     case PWR_GPIO_A:
 181:Drivers/STM32C0xx_HAL_Driver/Src/stm32c0xx_hal_pwr_ex.c ****       CLEAR_BIT(PWR->PUCRA, GPIONumber);
 182:Drivers/STM32C0xx_HAL_Driver/Src/stm32c0xx_hal_pwr_ex.c ****       break;
 183:Drivers/STM32C0xx_HAL_Driver/Src/stm32c0xx_hal_pwr_ex.c **** 
 184:Drivers/STM32C0xx_HAL_Driver/Src/stm32c0xx_hal_pwr_ex.c ****     case PWR_GPIO_B:
 185:Drivers/STM32C0xx_HAL_Driver/Src/stm32c0xx_hal_pwr_ex.c ****       CLEAR_BIT(PWR->PUCRB, GPIONumber);
 225              		.loc 1 185 7 view .LVU42
 226 000e 0F4A     		ldr	r2, .L27
 227 0010 936A     		ldr	r3, [r2, #40]
 228 0012 8B43     		bics	r3, r1
 229 0014 9362     		str	r3, [r2, #40]
 186:Drivers/STM32C0xx_HAL_Driver/Src/stm32c0xx_hal_pwr_ex.c ****       break;
 230              		.loc 1 186 7 view .LVU43
 173:Drivers/STM32C0xx_HAL_Driver/Src/stm32c0xx_hal_pwr_ex.c **** 
 231              		.loc 1 173 21 is_stmt 0 view .LVU44
 232 0016 0020     		movs	r0, #0
 233              	.LVL13:
 234              		.loc 1 186 7 view .LVU45
 235 0018 0AE0     		b	.L23
 236              	.LVL14:
 237              	.L25:
 178:Drivers/STM32C0xx_HAL_Driver/Src/stm32c0xx_hal_pwr_ex.c ****   {
 238              		.loc 1 178 3 view .LVU46
 239 001a 0120     		movs	r0, #1
 240              	.LVL15:
 178:Drivers/STM32C0xx_HAL_Driver/Src/stm32c0xx_hal_pwr_ex.c ****   {
 241              		.loc 1 178 3 view .LVU47
 242 001c 08E0     		b	.L23
 243              	.LVL16:
 244              	.L20:
 178:Drivers/STM32C0xx_HAL_Driver/Src/stm32c0xx_hal_pwr_ex.c ****   {
 245              		.loc 1 178 3 view .LVU48
 246 001e 0528     		cmp	r0, #5
 247 0020 05D1     		bne	.L26
 187:Drivers/STM32C0xx_HAL_Driver/Src/stm32c0xx_hal_pwr_ex.c **** 
 188:Drivers/STM32C0xx_HAL_Driver/Src/stm32c0xx_hal_pwr_ex.c ****     case PWR_GPIO_C:
 189:Drivers/STM32C0xx_HAL_Driver/Src/stm32c0xx_hal_pwr_ex.c ****       CLEAR_BIT(PWR->PUCRC, GPIONumber);
 190:Drivers/STM32C0xx_HAL_Driver/Src/stm32c0xx_hal_pwr_ex.c ****       break;
 191:Drivers/STM32C0xx_HAL_Driver/Src/stm32c0xx_hal_pwr_ex.c **** #if defined (STM32C031xx)
 192:Drivers/STM32C0xx_HAL_Driver/Src/stm32c0xx_hal_pwr_ex.c ****     case PWR_GPIO_D:
 193:Drivers/STM32C0xx_HAL_Driver/Src/stm32c0xx_hal_pwr_ex.c ****       CLEAR_BIT(PWR->PUCRD, GPIONumber);
 194:Drivers/STM32C0xx_HAL_Driver/Src/stm32c0xx_hal_pwr_ex.c ****       break;
 195:Drivers/STM32C0xx_HAL_Driver/Src/stm32c0xx_hal_pwr_ex.c **** #endif /* STM32C031xx */
 196:Drivers/STM32C0xx_HAL_Driver/Src/stm32c0xx_hal_pwr_ex.c ****     case PWR_GPIO_F:
ARM GAS  C:\Users\xhex8\AppData\Local\Temp\cc9kN3e4.s 			page 9


 197:Drivers/STM32C0xx_HAL_Driver/Src/stm32c0xx_hal_pwr_ex.c ****       CLEAR_BIT(PWR->PUCRF, GPIONumber);
 248              		.loc 1 197 7 is_stmt 1 view .LVU49
 249 0022 0A4A     		ldr	r2, .L27
 250 0024 936C     		ldr	r3, [r2, #72]
 251 0026 8B43     		bics	r3, r1
 252 0028 9364     		str	r3, [r2, #72]
 198:Drivers/STM32C0xx_HAL_Driver/Src/stm32c0xx_hal_pwr_ex.c ****       break;
 253              		.loc 1 198 7 view .LVU50
 173:Drivers/STM32C0xx_HAL_Driver/Src/stm32c0xx_hal_pwr_ex.c **** 
 254              		.loc 1 173 21 is_stmt 0 view .LVU51
 255 002a 0020     		movs	r0, #0
 256              	.LVL17:
 257              		.loc 1 198 7 view .LVU52
 258 002c 00E0     		b	.L23
 259              	.LVL18:
 260              	.L26:
 178:Drivers/STM32C0xx_HAL_Driver/Src/stm32c0xx_hal_pwr_ex.c ****   {
 261              		.loc 1 178 3 view .LVU53
 262 002e 0120     		movs	r0, #1
 263              	.LVL19:
 264              	.L23:
 199:Drivers/STM32C0xx_HAL_Driver/Src/stm32c0xx_hal_pwr_ex.c **** 
 200:Drivers/STM32C0xx_HAL_Driver/Src/stm32c0xx_hal_pwr_ex.c ****     default:
 201:Drivers/STM32C0xx_HAL_Driver/Src/stm32c0xx_hal_pwr_ex.c ****       status = HAL_ERROR;
 202:Drivers/STM32C0xx_HAL_Driver/Src/stm32c0xx_hal_pwr_ex.c ****       break;
 203:Drivers/STM32C0xx_HAL_Driver/Src/stm32c0xx_hal_pwr_ex.c ****   }
 204:Drivers/STM32C0xx_HAL_Driver/Src/stm32c0xx_hal_pwr_ex.c **** 
 205:Drivers/STM32C0xx_HAL_Driver/Src/stm32c0xx_hal_pwr_ex.c ****   return status;
 265              		.loc 1 205 3 is_stmt 1 view .LVU54
 206:Drivers/STM32C0xx_HAL_Driver/Src/stm32c0xx_hal_pwr_ex.c **** }
 266              		.loc 1 206 1 is_stmt 0 view .LVU55
 267              		@ sp needed
 268 0030 7047     		bx	lr
 269              	.LVL20:
 270              	.L21:
 181:Drivers/STM32C0xx_HAL_Driver/Src/stm32c0xx_hal_pwr_ex.c ****       break;
 271              		.loc 1 181 7 is_stmt 1 view .LVU56
 272 0032 064A     		ldr	r2, .L27
 273 0034 136A     		ldr	r3, [r2, #32]
 274 0036 8B43     		bics	r3, r1
 275 0038 1362     		str	r3, [r2, #32]
 182:Drivers/STM32C0xx_HAL_Driver/Src/stm32c0xx_hal_pwr_ex.c **** 
 276              		.loc 1 182 7 view .LVU57
 173:Drivers/STM32C0xx_HAL_Driver/Src/stm32c0xx_hal_pwr_ex.c **** 
 277              		.loc 1 173 21 is_stmt 0 view .LVU58
 278 003a 0020     		movs	r0, #0
 279              	.LVL21:
 182:Drivers/STM32C0xx_HAL_Driver/Src/stm32c0xx_hal_pwr_ex.c **** 
 280              		.loc 1 182 7 view .LVU59
 281 003c F8E7     		b	.L23
 282              	.LVL22:
 283              	.L19:
 189:Drivers/STM32C0xx_HAL_Driver/Src/stm32c0xx_hal_pwr_ex.c ****       break;
 284              		.loc 1 189 7 is_stmt 1 view .LVU60
 285 003e 034A     		ldr	r2, .L27
 286 0040 136B     		ldr	r3, [r2, #48]
 287 0042 8B43     		bics	r3, r1
ARM GAS  C:\Users\xhex8\AppData\Local\Temp\cc9kN3e4.s 			page 10


 288 0044 1363     		str	r3, [r2, #48]
 190:Drivers/STM32C0xx_HAL_Driver/Src/stm32c0xx_hal_pwr_ex.c **** #if defined (STM32C031xx)
 289              		.loc 1 190 7 view .LVU61
 173:Drivers/STM32C0xx_HAL_Driver/Src/stm32c0xx_hal_pwr_ex.c **** 
 290              		.loc 1 173 21 is_stmt 0 view .LVU62
 291 0046 0020     		movs	r0, #0
 292              	.LVL23:
 190:Drivers/STM32C0xx_HAL_Driver/Src/stm32c0xx_hal_pwr_ex.c **** #if defined (STM32C031xx)
 293              		.loc 1 190 7 view .LVU63
 294 0048 F2E7     		b	.L23
 295              	.L28:
 296 004a C046     		.align	2
 297              	.L27:
 298 004c 00700040 		.word	1073770496
 299              		.cfi_endproc
 300              	.LFE217:
 302              		.section	.text.HAL_PWREx_EnableGPIOPullDown,"ax",%progbits
 303              		.align	1
 304              		.global	HAL_PWREx_EnableGPIOPullDown
 305              		.syntax unified
 306              		.code	16
 307              		.thumb_func
 309              	HAL_PWREx_EnableGPIOPullDown:
 310              	.LVL24:
 311              	.LFB218:
 207:Drivers/STM32C0xx_HAL_Driver/Src/stm32c0xx_hal_pwr_ex.c **** 
 208:Drivers/STM32C0xx_HAL_Driver/Src/stm32c0xx_hal_pwr_ex.c **** 
 209:Drivers/STM32C0xx_HAL_Driver/Src/stm32c0xx_hal_pwr_ex.c **** /**
 210:Drivers/STM32C0xx_HAL_Driver/Src/stm32c0xx_hal_pwr_ex.c ****   * @brief  Enable GPIO pull-down state in Standby and Shutdown modes.
 211:Drivers/STM32C0xx_HAL_Driver/Src/stm32c0xx_hal_pwr_ex.c ****   * @note   Set the relevant PDy bit of PWR_PDCRx register to configure the I/O in
 212:Drivers/STM32C0xx_HAL_Driver/Src/stm32c0xx_hal_pwr_ex.c ****   *         pull-down state in Standby and Shutdown modes.
 213:Drivers/STM32C0xx_HAL_Driver/Src/stm32c0xx_hal_pwr_ex.c ****   * @note   This state is effective in Standby and Shutdown modes only if APC bit
 214:Drivers/STM32C0xx_HAL_Driver/Src/stm32c0xx_hal_pwr_ex.c ****   *         is set through HAL_PWREx_EnablePullUpPullDownConfig() API.
 215:Drivers/STM32C0xx_HAL_Driver/Src/stm32c0xx_hal_pwr_ex.c ****   * @note   The configuration is lost when exiting the Shutdown mode due to the
 216:Drivers/STM32C0xx_HAL_Driver/Src/stm32c0xx_hal_pwr_ex.c ****   *         power-on reset, maintained when exiting the Standby mode.
 217:Drivers/STM32C0xx_HAL_Driver/Src/stm32c0xx_hal_pwr_ex.c ****   * @note   To avoid any conflict at Standby and Shutdown modes exits, the corresponding
 218:Drivers/STM32C0xx_HAL_Driver/Src/stm32c0xx_hal_pwr_ex.c ****   *         PUy bit of PWR_PUCRx register is cleared unless it is reserved.
 219:Drivers/STM32C0xx_HAL_Driver/Src/stm32c0xx_hal_pwr_ex.c ****   * @param  GPIO Specify the IO port. This parameter can be PWR_GPIO_A..PWR_GPIO_F
 220:Drivers/STM32C0xx_HAL_Driver/Src/stm32c0xx_hal_pwr_ex.c ****   *         to select the GPIO peripheral.
 221:Drivers/STM32C0xx_HAL_Driver/Src/stm32c0xx_hal_pwr_ex.c ****   * @param  GPIONumber Specify the I/O pins numbers.
 222:Drivers/STM32C0xx_HAL_Driver/Src/stm32c0xx_hal_pwr_ex.c ****   *         This parameter can be one of the following values:
 223:Drivers/STM32C0xx_HAL_Driver/Src/stm32c0xx_hal_pwr_ex.c ****   *         PWR_GPIO_BIT_0, ..., PWR_GPIO_BIT_15 (except for ports where less
 224:Drivers/STM32C0xx_HAL_Driver/Src/stm32c0xx_hal_pwr_ex.c ****   *         I/O pins are available) or the logical OR of several of them to set
 225:Drivers/STM32C0xx_HAL_Driver/Src/stm32c0xx_hal_pwr_ex.c ****   *         several bits for a given port in a single API call.
 226:Drivers/STM32C0xx_HAL_Driver/Src/stm32c0xx_hal_pwr_ex.c ****   * @retval HAL Status
 227:Drivers/STM32C0xx_HAL_Driver/Src/stm32c0xx_hal_pwr_ex.c ****   */
 228:Drivers/STM32C0xx_HAL_Driver/Src/stm32c0xx_hal_pwr_ex.c **** HAL_StatusTypeDef HAL_PWREx_EnableGPIOPullDown(uint32_t GPIO, uint32_t GPIONumber)
 229:Drivers/STM32C0xx_HAL_Driver/Src/stm32c0xx_hal_pwr_ex.c **** {
 312              		.loc 1 229 1 is_stmt 1 view -0
 313              		.cfi_startproc
 314              		@ args = 0, pretend = 0, frame = 0
 315              		@ frame_needed = 0, uses_anonymous_args = 0
 316              		@ link register save eliminated.
 230:Drivers/STM32C0xx_HAL_Driver/Src/stm32c0xx_hal_pwr_ex.c ****   HAL_StatusTypeDef status = HAL_OK;
 317              		.loc 1 230 3 view .LVU65
 231:Drivers/STM32C0xx_HAL_Driver/Src/stm32c0xx_hal_pwr_ex.c **** 
 232:Drivers/STM32C0xx_HAL_Driver/Src/stm32c0xx_hal_pwr_ex.c ****   assert_param(IS_PWR_GPIO(GPIO));
ARM GAS  C:\Users\xhex8\AppData\Local\Temp\cc9kN3e4.s 			page 11


 318              		.loc 1 232 3 view .LVU66
 233:Drivers/STM32C0xx_HAL_Driver/Src/stm32c0xx_hal_pwr_ex.c ****   assert_param(IS_PWR_GPIO_BIT_NUMBER(GPIONumber));
 319              		.loc 1 233 3 view .LVU67
 234:Drivers/STM32C0xx_HAL_Driver/Src/stm32c0xx_hal_pwr_ex.c **** 
 235:Drivers/STM32C0xx_HAL_Driver/Src/stm32c0xx_hal_pwr_ex.c ****   switch (GPIO)
 320              		.loc 1 235 3 view .LVU68
 321 0000 0228     		cmp	r0, #2
 322 0002 25D0     		beq	.L30
 323 0004 0ED8     		bhi	.L31
 324 0006 0028     		cmp	r0, #0
 325 0008 19D0     		beq	.L32
 326 000a 0128     		cmp	r0, #1
 327 000c 08D1     		bne	.L36
 236:Drivers/STM32C0xx_HAL_Driver/Src/stm32c0xx_hal_pwr_ex.c ****   {
 237:Drivers/STM32C0xx_HAL_Driver/Src/stm32c0xx_hal_pwr_ex.c ****     case PWR_GPIO_A:
 238:Drivers/STM32C0xx_HAL_Driver/Src/stm32c0xx_hal_pwr_ex.c ****       SET_BIT(PWR->PDCRA, GPIONumber);
 239:Drivers/STM32C0xx_HAL_Driver/Src/stm32c0xx_hal_pwr_ex.c ****       CLEAR_BIT(PWR->PUCRA, GPIONumber);
 240:Drivers/STM32C0xx_HAL_Driver/Src/stm32c0xx_hal_pwr_ex.c ****       break;
 241:Drivers/STM32C0xx_HAL_Driver/Src/stm32c0xx_hal_pwr_ex.c **** 
 242:Drivers/STM32C0xx_HAL_Driver/Src/stm32c0xx_hal_pwr_ex.c ****     case PWR_GPIO_B:
 243:Drivers/STM32C0xx_HAL_Driver/Src/stm32c0xx_hal_pwr_ex.c ****       SET_BIT(PWR->PDCRB, GPIONumber);
 328              		.loc 1 243 7 view .LVU69
 329 000e 154B     		ldr	r3, .L38
 330 0010 DA6A     		ldr	r2, [r3, #44]
 331 0012 0A43     		orrs	r2, r1
 332 0014 DA62     		str	r2, [r3, #44]
 244:Drivers/STM32C0xx_HAL_Driver/Src/stm32c0xx_hal_pwr_ex.c ****       CLEAR_BIT(PWR->PUCRB, GPIONumber);
 333              		.loc 1 244 7 view .LVU70
 334 0016 9A6A     		ldr	r2, [r3, #40]
 335 0018 8A43     		bics	r2, r1
 336 001a 9A62     		str	r2, [r3, #40]
 245:Drivers/STM32C0xx_HAL_Driver/Src/stm32c0xx_hal_pwr_ex.c ****       break;
 337              		.loc 1 245 7 view .LVU71
 230:Drivers/STM32C0xx_HAL_Driver/Src/stm32c0xx_hal_pwr_ex.c **** 
 338              		.loc 1 230 21 is_stmt 0 view .LVU72
 339 001c 0020     		movs	r0, #0
 340              	.LVL25:
 341              		.loc 1 245 7 view .LVU73
 342 001e 0DE0     		b	.L34
 343              	.LVL26:
 344              	.L36:
 235:Drivers/STM32C0xx_HAL_Driver/Src/stm32c0xx_hal_pwr_ex.c ****   {
 345              		.loc 1 235 3 view .LVU74
 346 0020 0120     		movs	r0, #1
 347              	.LVL27:
 235:Drivers/STM32C0xx_HAL_Driver/Src/stm32c0xx_hal_pwr_ex.c ****   {
 348              		.loc 1 235 3 view .LVU75
 349 0022 0BE0     		b	.L34
 350              	.LVL28:
 351              	.L31:
 235:Drivers/STM32C0xx_HAL_Driver/Src/stm32c0xx_hal_pwr_ex.c ****   {
 352              		.loc 1 235 3 view .LVU76
 353 0024 0528     		cmp	r0, #5
 354 0026 08D1     		bne	.L37
 246:Drivers/STM32C0xx_HAL_Driver/Src/stm32c0xx_hal_pwr_ex.c **** 
 247:Drivers/STM32C0xx_HAL_Driver/Src/stm32c0xx_hal_pwr_ex.c ****     case PWR_GPIO_C:
 248:Drivers/STM32C0xx_HAL_Driver/Src/stm32c0xx_hal_pwr_ex.c ****       SET_BIT(PWR->PDCRC, GPIONumber);
ARM GAS  C:\Users\xhex8\AppData\Local\Temp\cc9kN3e4.s 			page 12


 249:Drivers/STM32C0xx_HAL_Driver/Src/stm32c0xx_hal_pwr_ex.c ****       CLEAR_BIT(PWR->PUCRC, GPIONumber);
 250:Drivers/STM32C0xx_HAL_Driver/Src/stm32c0xx_hal_pwr_ex.c ****       break;
 251:Drivers/STM32C0xx_HAL_Driver/Src/stm32c0xx_hal_pwr_ex.c **** #if defined (STM32C031xx)
 252:Drivers/STM32C0xx_HAL_Driver/Src/stm32c0xx_hal_pwr_ex.c ****     case PWR_GPIO_D:
 253:Drivers/STM32C0xx_HAL_Driver/Src/stm32c0xx_hal_pwr_ex.c ****       SET_BIT(PWR->PDCRD, GPIONumber);
 254:Drivers/STM32C0xx_HAL_Driver/Src/stm32c0xx_hal_pwr_ex.c ****       CLEAR_BIT(PWR->PUCRD, GPIONumber);
 255:Drivers/STM32C0xx_HAL_Driver/Src/stm32c0xx_hal_pwr_ex.c ****       break;
 256:Drivers/STM32C0xx_HAL_Driver/Src/stm32c0xx_hal_pwr_ex.c **** #endif /* STM32C031xx */
 257:Drivers/STM32C0xx_HAL_Driver/Src/stm32c0xx_hal_pwr_ex.c ****     case PWR_GPIO_F:
 258:Drivers/STM32C0xx_HAL_Driver/Src/stm32c0xx_hal_pwr_ex.c ****       SET_BIT(PWR->PDCRF, GPIONumber);
 355              		.loc 1 258 7 is_stmt 1 view .LVU77
 356 0028 0E4B     		ldr	r3, .L38
 357 002a DA6C     		ldr	r2, [r3, #76]
 358 002c 0A43     		orrs	r2, r1
 359 002e DA64     		str	r2, [r3, #76]
 259:Drivers/STM32C0xx_HAL_Driver/Src/stm32c0xx_hal_pwr_ex.c ****       CLEAR_BIT(PWR->PUCRF, GPIONumber);
 360              		.loc 1 259 7 view .LVU78
 361 0030 9A6C     		ldr	r2, [r3, #72]
 362 0032 8A43     		bics	r2, r1
 363 0034 9A64     		str	r2, [r3, #72]
 260:Drivers/STM32C0xx_HAL_Driver/Src/stm32c0xx_hal_pwr_ex.c ****       break;
 364              		.loc 1 260 7 view .LVU79
 230:Drivers/STM32C0xx_HAL_Driver/Src/stm32c0xx_hal_pwr_ex.c **** 
 365              		.loc 1 230 21 is_stmt 0 view .LVU80
 366 0036 0020     		movs	r0, #0
 367              	.LVL29:
 368              		.loc 1 260 7 view .LVU81
 369 0038 00E0     		b	.L34
 370              	.LVL30:
 371              	.L37:
 235:Drivers/STM32C0xx_HAL_Driver/Src/stm32c0xx_hal_pwr_ex.c ****   {
 372              		.loc 1 235 3 view .LVU82
 373 003a 0120     		movs	r0, #1
 374              	.LVL31:
 375              	.L34:
 261:Drivers/STM32C0xx_HAL_Driver/Src/stm32c0xx_hal_pwr_ex.c **** 
 262:Drivers/STM32C0xx_HAL_Driver/Src/stm32c0xx_hal_pwr_ex.c ****     default:
 263:Drivers/STM32C0xx_HAL_Driver/Src/stm32c0xx_hal_pwr_ex.c ****       status = HAL_ERROR;
 264:Drivers/STM32C0xx_HAL_Driver/Src/stm32c0xx_hal_pwr_ex.c ****       break;
 265:Drivers/STM32C0xx_HAL_Driver/Src/stm32c0xx_hal_pwr_ex.c ****   }
 266:Drivers/STM32C0xx_HAL_Driver/Src/stm32c0xx_hal_pwr_ex.c **** 
 267:Drivers/STM32C0xx_HAL_Driver/Src/stm32c0xx_hal_pwr_ex.c ****   return status;
 376              		.loc 1 267 3 is_stmt 1 view .LVU83
 268:Drivers/STM32C0xx_HAL_Driver/Src/stm32c0xx_hal_pwr_ex.c **** }
 377              		.loc 1 268 1 is_stmt 0 view .LVU84
 378              		@ sp needed
 379 003c 7047     		bx	lr
 380              	.LVL32:
 381              	.L32:
 238:Drivers/STM32C0xx_HAL_Driver/Src/stm32c0xx_hal_pwr_ex.c ****       CLEAR_BIT(PWR->PUCRA, GPIONumber);
 382              		.loc 1 238 7 is_stmt 1 view .LVU85
 383 003e 094B     		ldr	r3, .L38
 384 0040 5A6A     		ldr	r2, [r3, #36]
 385 0042 0A43     		orrs	r2, r1
 386 0044 5A62     		str	r2, [r3, #36]
 239:Drivers/STM32C0xx_HAL_Driver/Src/stm32c0xx_hal_pwr_ex.c ****       break;
 387              		.loc 1 239 7 view .LVU86
ARM GAS  C:\Users\xhex8\AppData\Local\Temp\cc9kN3e4.s 			page 13


 388 0046 1A6A     		ldr	r2, [r3, #32]
 389 0048 8A43     		bics	r2, r1
 390 004a 1A62     		str	r2, [r3, #32]
 240:Drivers/STM32C0xx_HAL_Driver/Src/stm32c0xx_hal_pwr_ex.c **** 
 391              		.loc 1 240 7 view .LVU87
 230:Drivers/STM32C0xx_HAL_Driver/Src/stm32c0xx_hal_pwr_ex.c **** 
 392              		.loc 1 230 21 is_stmt 0 view .LVU88
 393 004c 0020     		movs	r0, #0
 394              	.LVL33:
 240:Drivers/STM32C0xx_HAL_Driver/Src/stm32c0xx_hal_pwr_ex.c **** 
 395              		.loc 1 240 7 view .LVU89
 396 004e F5E7     		b	.L34
 397              	.LVL34:
 398              	.L30:
 248:Drivers/STM32C0xx_HAL_Driver/Src/stm32c0xx_hal_pwr_ex.c ****       CLEAR_BIT(PWR->PUCRC, GPIONumber);
 399              		.loc 1 248 7 is_stmt 1 view .LVU90
 400 0050 044B     		ldr	r3, .L38
 401 0052 5A6B     		ldr	r2, [r3, #52]
 402 0054 0A43     		orrs	r2, r1
 403 0056 5A63     		str	r2, [r3, #52]
 249:Drivers/STM32C0xx_HAL_Driver/Src/stm32c0xx_hal_pwr_ex.c ****       break;
 404              		.loc 1 249 7 view .LVU91
 405 0058 1A6B     		ldr	r2, [r3, #48]
 406 005a 8A43     		bics	r2, r1
 407 005c 1A63     		str	r2, [r3, #48]
 250:Drivers/STM32C0xx_HAL_Driver/Src/stm32c0xx_hal_pwr_ex.c **** #if defined (STM32C031xx)
 408              		.loc 1 250 7 view .LVU92
 230:Drivers/STM32C0xx_HAL_Driver/Src/stm32c0xx_hal_pwr_ex.c **** 
 409              		.loc 1 230 21 is_stmt 0 view .LVU93
 410 005e 0020     		movs	r0, #0
 411              	.LVL35:
 250:Drivers/STM32C0xx_HAL_Driver/Src/stm32c0xx_hal_pwr_ex.c **** #if defined (STM32C031xx)
 412              		.loc 1 250 7 view .LVU94
 413 0060 ECE7     		b	.L34
 414              	.L39:
 415 0062 C046     		.align	2
 416              	.L38:
 417 0064 00700040 		.word	1073770496
 418              		.cfi_endproc
 419              	.LFE218:
 421              		.section	.text.HAL_PWREx_DisableGPIOPullDown,"ax",%progbits
 422              		.align	1
 423              		.global	HAL_PWREx_DisableGPIOPullDown
 424              		.syntax unified
 425              		.code	16
 426              		.thumb_func
 428              	HAL_PWREx_DisableGPIOPullDown:
 429              	.LVL36:
 430              	.LFB219:
 269:Drivers/STM32C0xx_HAL_Driver/Src/stm32c0xx_hal_pwr_ex.c **** 
 270:Drivers/STM32C0xx_HAL_Driver/Src/stm32c0xx_hal_pwr_ex.c **** 
 271:Drivers/STM32C0xx_HAL_Driver/Src/stm32c0xx_hal_pwr_ex.c **** /**
 272:Drivers/STM32C0xx_HAL_Driver/Src/stm32c0xx_hal_pwr_ex.c ****   * @brief  Disable GPIO pull-down state in Standby and Shutdown modes.
 273:Drivers/STM32C0xx_HAL_Driver/Src/stm32c0xx_hal_pwr_ex.c ****   * @note   Reset the relevant PDy bit of PWR_PDCRx register used to configure the I/O
 274:Drivers/STM32C0xx_HAL_Driver/Src/stm32c0xx_hal_pwr_ex.c ****   *         in pull-down state in Standby and Shutdown modes.
 275:Drivers/STM32C0xx_HAL_Driver/Src/stm32c0xx_hal_pwr_ex.c ****   * @param  GPIO Specifies the IO port. This parameter can be PWR_GPIO_A..PWR_GPIO_F
 276:Drivers/STM32C0xx_HAL_Driver/Src/stm32c0xx_hal_pwr_ex.c ****   *         to select the GPIO peripheral.
ARM GAS  C:\Users\xhex8\AppData\Local\Temp\cc9kN3e4.s 			page 14


 277:Drivers/STM32C0xx_HAL_Driver/Src/stm32c0xx_hal_pwr_ex.c ****   * @param  GPIONumber Specify the I/O pins numbers.
 278:Drivers/STM32C0xx_HAL_Driver/Src/stm32c0xx_hal_pwr_ex.c ****   *         This parameter can be one of the following values:
 279:Drivers/STM32C0xx_HAL_Driver/Src/stm32c0xx_hal_pwr_ex.c ****   *         PWR_GPIO_BIT_0, ..., PWR_GPIO_BIT_15 (except for ports where less
 280:Drivers/STM32C0xx_HAL_Driver/Src/stm32c0xx_hal_pwr_ex.c ****   *         I/O pins are available) or the logical OR of several of them to reset
 281:Drivers/STM32C0xx_HAL_Driver/Src/stm32c0xx_hal_pwr_ex.c ****   *         several bits for a given port in a single API call.
 282:Drivers/STM32C0xx_HAL_Driver/Src/stm32c0xx_hal_pwr_ex.c ****   * @retval HAL Status
 283:Drivers/STM32C0xx_HAL_Driver/Src/stm32c0xx_hal_pwr_ex.c ****   */
 284:Drivers/STM32C0xx_HAL_Driver/Src/stm32c0xx_hal_pwr_ex.c **** HAL_StatusTypeDef HAL_PWREx_DisableGPIOPullDown(uint32_t GPIO, uint32_t GPIONumber)
 285:Drivers/STM32C0xx_HAL_Driver/Src/stm32c0xx_hal_pwr_ex.c **** {
 431              		.loc 1 285 1 is_stmt 1 view -0
 432              		.cfi_startproc
 433              		@ args = 0, pretend = 0, frame = 0
 434              		@ frame_needed = 0, uses_anonymous_args = 0
 435              		@ link register save eliminated.
 286:Drivers/STM32C0xx_HAL_Driver/Src/stm32c0xx_hal_pwr_ex.c ****   HAL_StatusTypeDef status = HAL_OK;
 436              		.loc 1 286 3 view .LVU96
 287:Drivers/STM32C0xx_HAL_Driver/Src/stm32c0xx_hal_pwr_ex.c **** 
 288:Drivers/STM32C0xx_HAL_Driver/Src/stm32c0xx_hal_pwr_ex.c ****   assert_param(IS_PWR_GPIO(GPIO));
 437              		.loc 1 288 3 view .LVU97
 289:Drivers/STM32C0xx_HAL_Driver/Src/stm32c0xx_hal_pwr_ex.c ****   assert_param(IS_PWR_GPIO_BIT_NUMBER(GPIONumber));
 438              		.loc 1 289 3 view .LVU98
 290:Drivers/STM32C0xx_HAL_Driver/Src/stm32c0xx_hal_pwr_ex.c **** 
 291:Drivers/STM32C0xx_HAL_Driver/Src/stm32c0xx_hal_pwr_ex.c ****   switch (GPIO)
 439              		.loc 1 291 3 view .LVU99
 440 0000 0228     		cmp	r0, #2
 441 0002 1CD0     		beq	.L41
 442 0004 0BD8     		bhi	.L42
 443 0006 0028     		cmp	r0, #0
 444 0008 13D0     		beq	.L43
 445 000a 0128     		cmp	r0, #1
 446 000c 05D1     		bne	.L47
 292:Drivers/STM32C0xx_HAL_Driver/Src/stm32c0xx_hal_pwr_ex.c ****   {
 293:Drivers/STM32C0xx_HAL_Driver/Src/stm32c0xx_hal_pwr_ex.c ****     case PWR_GPIO_A:
 294:Drivers/STM32C0xx_HAL_Driver/Src/stm32c0xx_hal_pwr_ex.c ****       CLEAR_BIT(PWR->PDCRA, GPIONumber);
 295:Drivers/STM32C0xx_HAL_Driver/Src/stm32c0xx_hal_pwr_ex.c ****       break;
 296:Drivers/STM32C0xx_HAL_Driver/Src/stm32c0xx_hal_pwr_ex.c **** 
 297:Drivers/STM32C0xx_HAL_Driver/Src/stm32c0xx_hal_pwr_ex.c ****     case PWR_GPIO_B:
 298:Drivers/STM32C0xx_HAL_Driver/Src/stm32c0xx_hal_pwr_ex.c ****       CLEAR_BIT(PWR->PDCRB, GPIONumber);
 447              		.loc 1 298 7 view .LVU100
 448 000e 0F4A     		ldr	r2, .L49
 449 0010 D36A     		ldr	r3, [r2, #44]
 450 0012 8B43     		bics	r3, r1
 451 0014 D362     		str	r3, [r2, #44]
 299:Drivers/STM32C0xx_HAL_Driver/Src/stm32c0xx_hal_pwr_ex.c ****       break;
 452              		.loc 1 299 7 view .LVU101
 286:Drivers/STM32C0xx_HAL_Driver/Src/stm32c0xx_hal_pwr_ex.c **** 
 453              		.loc 1 286 21 is_stmt 0 view .LVU102
 454 0016 0020     		movs	r0, #0
 455              	.LVL37:
 456              		.loc 1 299 7 view .LVU103
 457 0018 0AE0     		b	.L45
 458              	.LVL38:
 459              	.L47:
 291:Drivers/STM32C0xx_HAL_Driver/Src/stm32c0xx_hal_pwr_ex.c ****   {
 460              		.loc 1 291 3 view .LVU104
 461 001a 0120     		movs	r0, #1
 462              	.LVL39:
ARM GAS  C:\Users\xhex8\AppData\Local\Temp\cc9kN3e4.s 			page 15


 291:Drivers/STM32C0xx_HAL_Driver/Src/stm32c0xx_hal_pwr_ex.c ****   {
 463              		.loc 1 291 3 view .LVU105
 464 001c 08E0     		b	.L45
 465              	.LVL40:
 466              	.L42:
 291:Drivers/STM32C0xx_HAL_Driver/Src/stm32c0xx_hal_pwr_ex.c ****   {
 467              		.loc 1 291 3 view .LVU106
 468 001e 0528     		cmp	r0, #5
 469 0020 05D1     		bne	.L48
 300:Drivers/STM32C0xx_HAL_Driver/Src/stm32c0xx_hal_pwr_ex.c **** 
 301:Drivers/STM32C0xx_HAL_Driver/Src/stm32c0xx_hal_pwr_ex.c ****     case PWR_GPIO_C:
 302:Drivers/STM32C0xx_HAL_Driver/Src/stm32c0xx_hal_pwr_ex.c ****       CLEAR_BIT(PWR->PDCRC, GPIONumber);
 303:Drivers/STM32C0xx_HAL_Driver/Src/stm32c0xx_hal_pwr_ex.c ****       break;
 304:Drivers/STM32C0xx_HAL_Driver/Src/stm32c0xx_hal_pwr_ex.c **** #if defined (STM32C031xx)
 305:Drivers/STM32C0xx_HAL_Driver/Src/stm32c0xx_hal_pwr_ex.c ****     case PWR_GPIO_D:
 306:Drivers/STM32C0xx_HAL_Driver/Src/stm32c0xx_hal_pwr_ex.c ****       CLEAR_BIT(PWR->PDCRD, GPIONumber);
 307:Drivers/STM32C0xx_HAL_Driver/Src/stm32c0xx_hal_pwr_ex.c ****       break;
 308:Drivers/STM32C0xx_HAL_Driver/Src/stm32c0xx_hal_pwr_ex.c **** #endif /* STM32C031xx */
 309:Drivers/STM32C0xx_HAL_Driver/Src/stm32c0xx_hal_pwr_ex.c ****     case PWR_GPIO_F:
 310:Drivers/STM32C0xx_HAL_Driver/Src/stm32c0xx_hal_pwr_ex.c ****       CLEAR_BIT(PWR->PDCRF, GPIONumber);
 470              		.loc 1 310 7 is_stmt 1 view .LVU107
 471 0022 0A4A     		ldr	r2, .L49
 472 0024 D36C     		ldr	r3, [r2, #76]
 473 0026 8B43     		bics	r3, r1
 474 0028 D364     		str	r3, [r2, #76]
 311:Drivers/STM32C0xx_HAL_Driver/Src/stm32c0xx_hal_pwr_ex.c ****       break;
 475              		.loc 1 311 7 view .LVU108
 286:Drivers/STM32C0xx_HAL_Driver/Src/stm32c0xx_hal_pwr_ex.c **** 
 476              		.loc 1 286 21 is_stmt 0 view .LVU109
 477 002a 0020     		movs	r0, #0
 478              	.LVL41:
 479              		.loc 1 311 7 view .LVU110
 480 002c 00E0     		b	.L45
 481              	.LVL42:
 482              	.L48:
 291:Drivers/STM32C0xx_HAL_Driver/Src/stm32c0xx_hal_pwr_ex.c ****   {
 483              		.loc 1 291 3 view .LVU111
 484 002e 0120     		movs	r0, #1
 485              	.LVL43:
 486              	.L45:
 312:Drivers/STM32C0xx_HAL_Driver/Src/stm32c0xx_hal_pwr_ex.c **** 
 313:Drivers/STM32C0xx_HAL_Driver/Src/stm32c0xx_hal_pwr_ex.c ****     default:
 314:Drivers/STM32C0xx_HAL_Driver/Src/stm32c0xx_hal_pwr_ex.c ****       status = HAL_ERROR;
 315:Drivers/STM32C0xx_HAL_Driver/Src/stm32c0xx_hal_pwr_ex.c ****       break;
 316:Drivers/STM32C0xx_HAL_Driver/Src/stm32c0xx_hal_pwr_ex.c ****   }
 317:Drivers/STM32C0xx_HAL_Driver/Src/stm32c0xx_hal_pwr_ex.c **** 
 318:Drivers/STM32C0xx_HAL_Driver/Src/stm32c0xx_hal_pwr_ex.c ****   return status;
 487              		.loc 1 318 3 is_stmt 1 view .LVU112
 319:Drivers/STM32C0xx_HAL_Driver/Src/stm32c0xx_hal_pwr_ex.c **** }
 488              		.loc 1 319 1 is_stmt 0 view .LVU113
 489              		@ sp needed
 490 0030 7047     		bx	lr
 491              	.LVL44:
 492              	.L43:
 294:Drivers/STM32C0xx_HAL_Driver/Src/stm32c0xx_hal_pwr_ex.c ****       break;
 493              		.loc 1 294 7 is_stmt 1 view .LVU114
 494 0032 064A     		ldr	r2, .L49
ARM GAS  C:\Users\xhex8\AppData\Local\Temp\cc9kN3e4.s 			page 16


 495 0034 536A     		ldr	r3, [r2, #36]
 496 0036 8B43     		bics	r3, r1
 497 0038 5362     		str	r3, [r2, #36]
 295:Drivers/STM32C0xx_HAL_Driver/Src/stm32c0xx_hal_pwr_ex.c **** 
 498              		.loc 1 295 7 view .LVU115
 286:Drivers/STM32C0xx_HAL_Driver/Src/stm32c0xx_hal_pwr_ex.c **** 
 499              		.loc 1 286 21 is_stmt 0 view .LVU116
 500 003a 0020     		movs	r0, #0
 501              	.LVL45:
 295:Drivers/STM32C0xx_HAL_Driver/Src/stm32c0xx_hal_pwr_ex.c **** 
 502              		.loc 1 295 7 view .LVU117
 503 003c F8E7     		b	.L45
 504              	.LVL46:
 505              	.L41:
 302:Drivers/STM32C0xx_HAL_Driver/Src/stm32c0xx_hal_pwr_ex.c ****       break;
 506              		.loc 1 302 7 is_stmt 1 view .LVU118
 507 003e 034A     		ldr	r2, .L49
 508 0040 536B     		ldr	r3, [r2, #52]
 509 0042 8B43     		bics	r3, r1
 510 0044 5363     		str	r3, [r2, #52]
 303:Drivers/STM32C0xx_HAL_Driver/Src/stm32c0xx_hal_pwr_ex.c **** #if defined (STM32C031xx)
 511              		.loc 1 303 7 view .LVU119
 286:Drivers/STM32C0xx_HAL_Driver/Src/stm32c0xx_hal_pwr_ex.c **** 
 512              		.loc 1 286 21 is_stmt 0 view .LVU120
 513 0046 0020     		movs	r0, #0
 514              	.LVL47:
 303:Drivers/STM32C0xx_HAL_Driver/Src/stm32c0xx_hal_pwr_ex.c **** #if defined (STM32C031xx)
 515              		.loc 1 303 7 view .LVU121
 516 0048 F2E7     		b	.L45
 517              	.L50:
 518 004a C046     		.align	2
 519              	.L49:
 520 004c 00700040 		.word	1073770496
 521              		.cfi_endproc
 522              	.LFE219:
 524              		.section	.text.HAL_PWREx_EnablePullUpPullDownConfig,"ax",%progbits
 525              		.align	1
 526              		.global	HAL_PWREx_EnablePullUpPullDownConfig
 527              		.syntax unified
 528              		.code	16
 529              		.thumb_func
 531              	HAL_PWREx_EnablePullUpPullDownConfig:
 532              	.LFB220:
 320:Drivers/STM32C0xx_HAL_Driver/Src/stm32c0xx_hal_pwr_ex.c **** 
 321:Drivers/STM32C0xx_HAL_Driver/Src/stm32c0xx_hal_pwr_ex.c **** 
 322:Drivers/STM32C0xx_HAL_Driver/Src/stm32c0xx_hal_pwr_ex.c **** /**
 323:Drivers/STM32C0xx_HAL_Driver/Src/stm32c0xx_hal_pwr_ex.c ****   * @brief  Enable pull-up and pull-down configuration.
 324:Drivers/STM32C0xx_HAL_Driver/Src/stm32c0xx_hal_pwr_ex.c ****   * @note   When APC bit is set, the I/O pull-up and pull-down configurations defined in
 325:Drivers/STM32C0xx_HAL_Driver/Src/stm32c0xx_hal_pwr_ex.c ****   *         PWR_PUCRx and PWR_PDCRx registers are applied in Standby and Shutdown modes.
 326:Drivers/STM32C0xx_HAL_Driver/Src/stm32c0xx_hal_pwr_ex.c ****   * @note   Pull-up set by PUy bit of PWR_PUCRx register is not activated if the corresponding
 327:Drivers/STM32C0xx_HAL_Driver/Src/stm32c0xx_hal_pwr_ex.c ****   *         PDy bit of PWR_PDCRx register is also set (pull-down configuration priority is higher).
 328:Drivers/STM32C0xx_HAL_Driver/Src/stm32c0xx_hal_pwr_ex.c ****   *         HAL_PWREx_EnableGPIOPullUp() and HAL_PWREx_EnableGPIOPullDown() APIs ensure there
 329:Drivers/STM32C0xx_HAL_Driver/Src/stm32c0xx_hal_pwr_ex.c ****   *         is no conflict when setting PUy or PDy bit.
 330:Drivers/STM32C0xx_HAL_Driver/Src/stm32c0xx_hal_pwr_ex.c ****   * @retval None
 331:Drivers/STM32C0xx_HAL_Driver/Src/stm32c0xx_hal_pwr_ex.c ****   */
 332:Drivers/STM32C0xx_HAL_Driver/Src/stm32c0xx_hal_pwr_ex.c **** void HAL_PWREx_EnablePullUpPullDownConfig(void)
 333:Drivers/STM32C0xx_HAL_Driver/Src/stm32c0xx_hal_pwr_ex.c **** {
ARM GAS  C:\Users\xhex8\AppData\Local\Temp\cc9kN3e4.s 			page 17


 533              		.loc 1 333 1 is_stmt 1 view -0
 534              		.cfi_startproc
 535              		@ args = 0, pretend = 0, frame = 0
 536              		@ frame_needed = 0, uses_anonymous_args = 0
 537              		@ link register save eliminated.
 334:Drivers/STM32C0xx_HAL_Driver/Src/stm32c0xx_hal_pwr_ex.c ****   SET_BIT(PWR->CR3, PWR_CR3_APC);
 538              		.loc 1 334 3 view .LVU123
 539 0000 034A     		ldr	r2, .L52
 540 0002 9168     		ldr	r1, [r2, #8]
 541 0004 8023     		movs	r3, #128
 542 0006 DB00     		lsls	r3, r3, #3
 543 0008 0B43     		orrs	r3, r1
 544 000a 9360     		str	r3, [r2, #8]
 335:Drivers/STM32C0xx_HAL_Driver/Src/stm32c0xx_hal_pwr_ex.c **** }
 545              		.loc 1 335 1 is_stmt 0 view .LVU124
 546              		@ sp needed
 547 000c 7047     		bx	lr
 548              	.L53:
 549 000e C046     		.align	2
 550              	.L52:
 551 0010 00700040 		.word	1073770496
 552              		.cfi_endproc
 553              	.LFE220:
 555              		.section	.text.HAL_PWREx_DisablePullUpPullDownConfig,"ax",%progbits
 556              		.align	1
 557              		.global	HAL_PWREx_DisablePullUpPullDownConfig
 558              		.syntax unified
 559              		.code	16
 560              		.thumb_func
 562              	HAL_PWREx_DisablePullUpPullDownConfig:
 563              	.LFB221:
 336:Drivers/STM32C0xx_HAL_Driver/Src/stm32c0xx_hal_pwr_ex.c **** 
 337:Drivers/STM32C0xx_HAL_Driver/Src/stm32c0xx_hal_pwr_ex.c **** /**
 338:Drivers/STM32C0xx_HAL_Driver/Src/stm32c0xx_hal_pwr_ex.c ****   * @brief  Disable pull-up and pull-down configuration.
 339:Drivers/STM32C0xx_HAL_Driver/Src/stm32c0xx_hal_pwr_ex.c ****   * @note   When APC bit is cleared, the I/O pull-up and pull-down configurations defined in
 340:Drivers/STM32C0xx_HAL_Driver/Src/stm32c0xx_hal_pwr_ex.c ****   *         PWR_PUCRx and PWR_PDCRx registers are not applied in Standby and Shutdown modes.
 341:Drivers/STM32C0xx_HAL_Driver/Src/stm32c0xx_hal_pwr_ex.c ****   * @retval None
 342:Drivers/STM32C0xx_HAL_Driver/Src/stm32c0xx_hal_pwr_ex.c ****   */
 343:Drivers/STM32C0xx_HAL_Driver/Src/stm32c0xx_hal_pwr_ex.c **** void HAL_PWREx_DisablePullUpPullDownConfig(void)
 344:Drivers/STM32C0xx_HAL_Driver/Src/stm32c0xx_hal_pwr_ex.c **** {
 564              		.loc 1 344 1 is_stmt 1 view -0
 565              		.cfi_startproc
 566              		@ args = 0, pretend = 0, frame = 0
 567              		@ frame_needed = 0, uses_anonymous_args = 0
 568              		@ link register save eliminated.
 345:Drivers/STM32C0xx_HAL_Driver/Src/stm32c0xx_hal_pwr_ex.c ****   CLEAR_BIT(PWR->CR3, PWR_CR3_APC);
 569              		.loc 1 345 3 view .LVU126
 570 0000 024A     		ldr	r2, .L55
 571 0002 9368     		ldr	r3, [r2, #8]
 572 0004 0249     		ldr	r1, .L55+4
 573 0006 0B40     		ands	r3, r1
 574 0008 9360     		str	r3, [r2, #8]
 346:Drivers/STM32C0xx_HAL_Driver/Src/stm32c0xx_hal_pwr_ex.c **** }
 575              		.loc 1 346 1 is_stmt 0 view .LVU127
 576              		@ sp needed
 577 000a 7047     		bx	lr
 578              	.L56:
ARM GAS  C:\Users\xhex8\AppData\Local\Temp\cc9kN3e4.s 			page 18


 579              		.align	2
 580              	.L55:
 581 000c 00700040 		.word	1073770496
 582 0010 FFFBFFFF 		.word	-1025
 583              		.cfi_endproc
 584              	.LFE221:
 586              		.section	.text.HAL_PWREx_EnableFlashPowerDown,"ax",%progbits
 587              		.align	1
 588              		.global	HAL_PWREx_EnableFlashPowerDown
 589              		.syntax unified
 590              		.code	16
 591              		.thumb_func
 593              	HAL_PWREx_EnableFlashPowerDown:
 594              	.LVL48:
 595              	.LFB222:
 347:Drivers/STM32C0xx_HAL_Driver/Src/stm32c0xx_hal_pwr_ex.c **** 
 348:Drivers/STM32C0xx_HAL_Driver/Src/stm32c0xx_hal_pwr_ex.c **** 
 349:Drivers/STM32C0xx_HAL_Driver/Src/stm32c0xx_hal_pwr_ex.c **** /**
 350:Drivers/STM32C0xx_HAL_Driver/Src/stm32c0xx_hal_pwr_ex.c ****   * @brief  Enable Flash Power Down.
 351:Drivers/STM32C0xx_HAL_Driver/Src/stm32c0xx_hal_pwr_ex.c ****   * @note   This API allows to enable flash power down capabilities in sleep and stop modes.
 352:Drivers/STM32C0xx_HAL_Driver/Src/stm32c0xx_hal_pwr_ex.c ****   * @param  PowerMode this can be a combination of following values:
 353:Drivers/STM32C0xx_HAL_Driver/Src/stm32c0xx_hal_pwr_ex.c ****   *           @arg @ref PWR_FLASHPD_SLEEP
 354:Drivers/STM32C0xx_HAL_Driver/Src/stm32c0xx_hal_pwr_ex.c ****   *           @arg @ref PWR_FLASHPD_STOP
 355:Drivers/STM32C0xx_HAL_Driver/Src/stm32c0xx_hal_pwr_ex.c ****   * @retval None
 356:Drivers/STM32C0xx_HAL_Driver/Src/stm32c0xx_hal_pwr_ex.c ****   */
 357:Drivers/STM32C0xx_HAL_Driver/Src/stm32c0xx_hal_pwr_ex.c **** void HAL_PWREx_EnableFlashPowerDown(uint32_t PowerMode)
 358:Drivers/STM32C0xx_HAL_Driver/Src/stm32c0xx_hal_pwr_ex.c **** {
 596              		.loc 1 358 1 is_stmt 1 view -0
 597              		.cfi_startproc
 598              		@ args = 0, pretend = 0, frame = 0
 599              		@ frame_needed = 0, uses_anonymous_args = 0
 600              		@ link register save eliminated.
 359:Drivers/STM32C0xx_HAL_Driver/Src/stm32c0xx_hal_pwr_ex.c ****   assert_param(IS_PWR_FLASH_POWERDOWN(PowerMode));
 601              		.loc 1 359 3 view .LVU129
 360:Drivers/STM32C0xx_HAL_Driver/Src/stm32c0xx_hal_pwr_ex.c **** 
 361:Drivers/STM32C0xx_HAL_Driver/Src/stm32c0xx_hal_pwr_ex.c ****   PWR->CR1 |= PowerMode;
 602              		.loc 1 361 3 view .LVU130
 603              		.loc 1 361 6 is_stmt 0 view .LVU131
 604 0000 024A     		ldr	r2, .L58
 605 0002 1368     		ldr	r3, [r2]
 606              		.loc 1 361 12 view .LVU132
 607 0004 0343     		orrs	r3, r0
 608 0006 1360     		str	r3, [r2]
 362:Drivers/STM32C0xx_HAL_Driver/Src/stm32c0xx_hal_pwr_ex.c **** }
 609              		.loc 1 362 1 view .LVU133
 610              		@ sp needed
 611 0008 7047     		bx	lr
 612              	.L59:
 613 000a C046     		.align	2
 614              	.L58:
 615 000c 00700040 		.word	1073770496
 616              		.cfi_endproc
 617              	.LFE222:
 619              		.section	.text.HAL_PWREx_DisableFlashPowerDown,"ax",%progbits
 620              		.align	1
 621              		.global	HAL_PWREx_DisableFlashPowerDown
 622              		.syntax unified
ARM GAS  C:\Users\xhex8\AppData\Local\Temp\cc9kN3e4.s 			page 19


 623              		.code	16
 624              		.thumb_func
 626              	HAL_PWREx_DisableFlashPowerDown:
 627              	.LVL49:
 628              	.LFB223:
 363:Drivers/STM32C0xx_HAL_Driver/Src/stm32c0xx_hal_pwr_ex.c **** 
 364:Drivers/STM32C0xx_HAL_Driver/Src/stm32c0xx_hal_pwr_ex.c **** 
 365:Drivers/STM32C0xx_HAL_Driver/Src/stm32c0xx_hal_pwr_ex.c **** /**
 366:Drivers/STM32C0xx_HAL_Driver/Src/stm32c0xx_hal_pwr_ex.c ****   * @brief  Disable Flash Power Down.
 367:Drivers/STM32C0xx_HAL_Driver/Src/stm32c0xx_hal_pwr_ex.c ****   * @note   This API allows to disable flash power down capabilities in sleep and stop modes.
 368:Drivers/STM32C0xx_HAL_Driver/Src/stm32c0xx_hal_pwr_ex.c ****   * @param  PowerMode this can be a combination of following values:
 369:Drivers/STM32C0xx_HAL_Driver/Src/stm32c0xx_hal_pwr_ex.c ****   *           @arg @ref PWR_FLASHPD_SLEEP
 370:Drivers/STM32C0xx_HAL_Driver/Src/stm32c0xx_hal_pwr_ex.c ****   *           @arg @ref PWR_FLASHPD_STOP
 371:Drivers/STM32C0xx_HAL_Driver/Src/stm32c0xx_hal_pwr_ex.c ****   * @retval None
 372:Drivers/STM32C0xx_HAL_Driver/Src/stm32c0xx_hal_pwr_ex.c ****   */
 373:Drivers/STM32C0xx_HAL_Driver/Src/stm32c0xx_hal_pwr_ex.c **** void HAL_PWREx_DisableFlashPowerDown(uint32_t PowerMode)
 374:Drivers/STM32C0xx_HAL_Driver/Src/stm32c0xx_hal_pwr_ex.c **** {
 629              		.loc 1 374 1 is_stmt 1 view -0
 630              		.cfi_startproc
 631              		@ args = 0, pretend = 0, frame = 0
 632              		@ frame_needed = 0, uses_anonymous_args = 0
 633              		@ link register save eliminated.
 375:Drivers/STM32C0xx_HAL_Driver/Src/stm32c0xx_hal_pwr_ex.c ****   assert_param(IS_PWR_FLASH_POWERDOWN(PowerMode));
 634              		.loc 1 375 3 view .LVU135
 376:Drivers/STM32C0xx_HAL_Driver/Src/stm32c0xx_hal_pwr_ex.c **** 
 377:Drivers/STM32C0xx_HAL_Driver/Src/stm32c0xx_hal_pwr_ex.c ****   PWR->CR1 &= ~PowerMode;
 635              		.loc 1 377 3 view .LVU136
 636              		.loc 1 377 6 is_stmt 0 view .LVU137
 637 0000 024A     		ldr	r2, .L61
 638 0002 1368     		ldr	r3, [r2]
 639              		.loc 1 377 12 view .LVU138
 640 0004 8343     		bics	r3, r0
 641 0006 1360     		str	r3, [r2]
 378:Drivers/STM32C0xx_HAL_Driver/Src/stm32c0xx_hal_pwr_ex.c **** }
 642              		.loc 1 378 1 view .LVU139
 643              		@ sp needed
 644 0008 7047     		bx	lr
 645              	.L62:
 646 000a C046     		.align	2
 647              	.L61:
 648 000c 00700040 		.word	1073770496
 649              		.cfi_endproc
 650              	.LFE223:
 652              		.section	.text.HAL_PWREx_EnterSHUTDOWNMode,"ax",%progbits
 653              		.align	1
 654              		.global	HAL_PWREx_EnterSHUTDOWNMode
 655              		.syntax unified
 656              		.code	16
 657              		.thumb_func
 659              	HAL_PWREx_EnterSHUTDOWNMode:
 660              	.LFB224:
 379:Drivers/STM32C0xx_HAL_Driver/Src/stm32c0xx_hal_pwr_ex.c **** 
 380:Drivers/STM32C0xx_HAL_Driver/Src/stm32c0xx_hal_pwr_ex.c **** 
 381:Drivers/STM32C0xx_HAL_Driver/Src/stm32c0xx_hal_pwr_ex.c **** /**
 382:Drivers/STM32C0xx_HAL_Driver/Src/stm32c0xx_hal_pwr_ex.c ****   * @brief  Enter Shutdown mode.
 383:Drivers/STM32C0xx_HAL_Driver/Src/stm32c0xx_hal_pwr_ex.c ****   * @note   In Shutdown mode, the PLL, the HSI, the LSI and the HSE oscillators are switched
 384:Drivers/STM32C0xx_HAL_Driver/Src/stm32c0xx_hal_pwr_ex.c ****   *         off. The voltage regulator is disabled and Vcore domain is powered off.
ARM GAS  C:\Users\xhex8\AppData\Local\Temp\cc9kN3e4.s 			page 20


 385:Drivers/STM32C0xx_HAL_Driver/Src/stm32c0xx_hal_pwr_ex.c ****   *         SRAM and registers contents are lost except for registers in the Backup domain.
 386:Drivers/STM32C0xx_HAL_Driver/Src/stm32c0xx_hal_pwr_ex.c ****   *         The BOR is not available.
 387:Drivers/STM32C0xx_HAL_Driver/Src/stm32c0xx_hal_pwr_ex.c ****   * @note   The I/Os can be configured either with a pull-up or pull-down or can
 388:Drivers/STM32C0xx_HAL_Driver/Src/stm32c0xx_hal_pwr_ex.c ****   *         be kept in analog state.
 389:Drivers/STM32C0xx_HAL_Driver/Src/stm32c0xx_hal_pwr_ex.c ****   *         HAL_PWREx_EnableGPIOPullUp() and HAL_PWREx_EnableGPIOPullDown()
 390:Drivers/STM32C0xx_HAL_Driver/Src/stm32c0xx_hal_pwr_ex.c ****   *         respectively enable Pull Up and PullDown state.
 391:Drivers/STM32C0xx_HAL_Driver/Src/stm32c0xx_hal_pwr_ex.c ****   *         HAL_PWREx_DisableGPIOPullUp() & HAL_PWREx_DisableGPIOPullDown()
 392:Drivers/STM32C0xx_HAL_Driver/Src/stm32c0xx_hal_pwr_ex.c ****   *         disable the same. These states are effective in Standby mode only if
 393:Drivers/STM32C0xx_HAL_Driver/Src/stm32c0xx_hal_pwr_ex.c ****   *         APC bit is set through HAL_PWREx_EnablePullUpPullDownConfig() API.
 394:Drivers/STM32C0xx_HAL_Driver/Src/stm32c0xx_hal_pwr_ex.c ****   * @retval None
 395:Drivers/STM32C0xx_HAL_Driver/Src/stm32c0xx_hal_pwr_ex.c **** 
 396:Drivers/STM32C0xx_HAL_Driver/Src/stm32c0xx_hal_pwr_ex.c ****   * @retval None
 397:Drivers/STM32C0xx_HAL_Driver/Src/stm32c0xx_hal_pwr_ex.c ****   */
 398:Drivers/STM32C0xx_HAL_Driver/Src/stm32c0xx_hal_pwr_ex.c **** void HAL_PWREx_EnterSHUTDOWNMode(void)
 399:Drivers/STM32C0xx_HAL_Driver/Src/stm32c0xx_hal_pwr_ex.c **** {
 661              		.loc 1 399 1 is_stmt 1 view -0
 662              		.cfi_startproc
 663              		@ args = 0, pretend = 0, frame = 0
 664              		@ frame_needed = 0, uses_anonymous_args = 0
 665              		@ link register save eliminated.
 400:Drivers/STM32C0xx_HAL_Driver/Src/stm32c0xx_hal_pwr_ex.c ****   /* Set Shutdown mode */
 401:Drivers/STM32C0xx_HAL_Driver/Src/stm32c0xx_hal_pwr_ex.c ****   MODIFY_REG(PWR->CR1, PWR_CR1_LPMS, PWR_LOWPOWERMODE_SHUTDOWN);
 666              		.loc 1 401 3 view .LVU141
 667 0000 064A     		ldr	r2, .L64
 668 0002 1368     		ldr	r3, [r2]
 669 0004 0721     		movs	r1, #7
 670 0006 8B43     		bics	r3, r1
 671 0008 0339     		subs	r1, r1, #3
 672 000a 0B43     		orrs	r3, r1
 673 000c 1360     		str	r3, [r2]
 402:Drivers/STM32C0xx_HAL_Driver/Src/stm32c0xx_hal_pwr_ex.c **** 
 403:Drivers/STM32C0xx_HAL_Driver/Src/stm32c0xx_hal_pwr_ex.c ****   /* Set SLEEPDEEP bit of Cortex System Control Register */
 404:Drivers/STM32C0xx_HAL_Driver/Src/stm32c0xx_hal_pwr_ex.c ****   SET_BIT(SCB->SCR, ((uint32_t)SCB_SCR_SLEEPDEEP_Msk));
 674              		.loc 1 404 3 view .LVU142
 675 000e 044A     		ldr	r2, .L64+4
 676 0010 1369     		ldr	r3, [r2, #16]
 677 0012 0B43     		orrs	r3, r1
 678 0014 1361     		str	r3, [r2, #16]
 405:Drivers/STM32C0xx_HAL_Driver/Src/stm32c0xx_hal_pwr_ex.c **** 
 406:Drivers/STM32C0xx_HAL_Driver/Src/stm32c0xx_hal_pwr_ex.c ****   /* This option is used to ensure that store operations are completed */
 407:Drivers/STM32C0xx_HAL_Driver/Src/stm32c0xx_hal_pwr_ex.c **** #if defined ( __CC_ARM)
 408:Drivers/STM32C0xx_HAL_Driver/Src/stm32c0xx_hal_pwr_ex.c ****   __force_stores();
 409:Drivers/STM32C0xx_HAL_Driver/Src/stm32c0xx_hal_pwr_ex.c **** #endif /* __CC_ARM */
 410:Drivers/STM32C0xx_HAL_Driver/Src/stm32c0xx_hal_pwr_ex.c **** 
 411:Drivers/STM32C0xx_HAL_Driver/Src/stm32c0xx_hal_pwr_ex.c ****   /* Request Wait For Interrupt */
 412:Drivers/STM32C0xx_HAL_Driver/Src/stm32c0xx_hal_pwr_ex.c ****   __WFI();
 679              		.loc 1 412 3 view .LVU143
 680              		.syntax divided
 681              	@ 412 "Drivers/STM32C0xx_HAL_Driver/Src/stm32c0xx_hal_pwr_ex.c" 1
 682 0016 30BF     		wfi
 683              	@ 0 "" 2
 413:Drivers/STM32C0xx_HAL_Driver/Src/stm32c0xx_hal_pwr_ex.c **** }
 684              		.loc 1 413 1 is_stmt 0 view .LVU144
 685              		.thumb
 686              		.syntax unified
 687              		@ sp needed
 688 0018 7047     		bx	lr
ARM GAS  C:\Users\xhex8\AppData\Local\Temp\cc9kN3e4.s 			page 21


 689              	.L65:
 690 001a C046     		.align	2
 691              	.L64:
 692 001c 00700040 		.word	1073770496
 693 0020 00ED00E0 		.word	-536810240
 694              		.cfi_endproc
 695              	.LFE224:
 697              		.section	.text.HAL_PWREx_BKUPWrite,"ax",%progbits
 698              		.align	1
 699              		.global	HAL_PWREx_BKUPWrite
 700              		.syntax unified
 701              		.code	16
 702              		.thumb_func
 704              	HAL_PWREx_BKUPWrite:
 705              	.LVL50:
 706              	.LFB225:
 414:Drivers/STM32C0xx_HAL_Driver/Src/stm32c0xx_hal_pwr_ex.c **** 
 415:Drivers/STM32C0xx_HAL_Driver/Src/stm32c0xx_hal_pwr_ex.c **** /**
 416:Drivers/STM32C0xx_HAL_Driver/Src/stm32c0xx_hal_pwr_ex.c ****   * @}
 417:Drivers/STM32C0xx_HAL_Driver/Src/stm32c0xx_hal_pwr_ex.c ****   */
 418:Drivers/STM32C0xx_HAL_Driver/Src/stm32c0xx_hal_pwr_ex.c **** 
 419:Drivers/STM32C0xx_HAL_Driver/Src/stm32c0xx_hal_pwr_ex.c **** /** @addtogroup PWREx_Exported_Functions_Group2 Extended PWR Backup register functions
 420:Drivers/STM32C0xx_HAL_Driver/Src/stm32c0xx_hal_pwr_ex.c ****   * @brief      Extended PWR Backup register functions
 421:Drivers/STM32C0xx_HAL_Driver/Src/stm32c0xx_hal_pwr_ex.c ****   *
 422:Drivers/STM32C0xx_HAL_Driver/Src/stm32c0xx_hal_pwr_ex.c **** @verbatim
 423:Drivers/STM32C0xx_HAL_Driver/Src/stm32c0xx_hal_pwr_ex.c ****   ===============================================================================
 424:Drivers/STM32C0xx_HAL_Driver/Src/stm32c0xx_hal_pwr_ex.c ****              ##### Extended PWR Backup register functions #####
 425:Drivers/STM32C0xx_HAL_Driver/Src/stm32c0xx_hal_pwr_ex.c ****   ===============================================================================
 426:Drivers/STM32C0xx_HAL_Driver/Src/stm32c0xx_hal_pwr_ex.c ****   [..]
 427:Drivers/STM32C0xx_HAL_Driver/Src/stm32c0xx_hal_pwr_ex.c ****    This subsection provides functions allowing to
 428:Drivers/STM32C0xx_HAL_Driver/Src/stm32c0xx_hal_pwr_ex.c ****    (+) Write a data in a specified PWR Backup data register
 429:Drivers/STM32C0xx_HAL_Driver/Src/stm32c0xx_hal_pwr_ex.c ****    (+) Read a data in a specified PWR Backup data register
 430:Drivers/STM32C0xx_HAL_Driver/Src/stm32c0xx_hal_pwr_ex.c **** @endverbatim
 431:Drivers/STM32C0xx_HAL_Driver/Src/stm32c0xx_hal_pwr_ex.c ****   * @{
 432:Drivers/STM32C0xx_HAL_Driver/Src/stm32c0xx_hal_pwr_ex.c ****   */
 433:Drivers/STM32C0xx_HAL_Driver/Src/stm32c0xx_hal_pwr_ex.c **** 
 434:Drivers/STM32C0xx_HAL_Driver/Src/stm32c0xx_hal_pwr_ex.c **** 
 435:Drivers/STM32C0xx_HAL_Driver/Src/stm32c0xx_hal_pwr_ex.c **** /**
 436:Drivers/STM32C0xx_HAL_Driver/Src/stm32c0xx_hal_pwr_ex.c ****   * @brief  Write a data in a specified PWR Backup data register.
 437:Drivers/STM32C0xx_HAL_Driver/Src/stm32c0xx_hal_pwr_ex.c ****   * @param  BackupRegister PWR Backup data Register number.
 438:Drivers/STM32C0xx_HAL_Driver/Src/stm32c0xx_hal_pwr_ex.c ****   *          This parameter can be PWR_BKP_DRx where x can be from 0 to PWR_BACKUP_NB
 439:Drivers/STM32C0xx_HAL_Driver/Src/stm32c0xx_hal_pwr_ex.c ****   * @param  Data Data to be written in the specified Backup data register.
 440:Drivers/STM32C0xx_HAL_Driver/Src/stm32c0xx_hal_pwr_ex.c ****   * @retval None
 441:Drivers/STM32C0xx_HAL_Driver/Src/stm32c0xx_hal_pwr_ex.c ****   */
 442:Drivers/STM32C0xx_HAL_Driver/Src/stm32c0xx_hal_pwr_ex.c **** void HAL_PWREx_BKUPWrite(uint32_t BackupRegister, uint16_t Data)
 443:Drivers/STM32C0xx_HAL_Driver/Src/stm32c0xx_hal_pwr_ex.c **** {
 707              		.loc 1 443 1 is_stmt 1 view -0
 708              		.cfi_startproc
 709              		@ args = 0, pretend = 0, frame = 0
 710              		@ frame_needed = 0, uses_anonymous_args = 0
 711              		@ link register save eliminated.
 444:Drivers/STM32C0xx_HAL_Driver/Src/stm32c0xx_hal_pwr_ex.c ****   uint32_t tmp;
 712              		.loc 1 444 3 view .LVU146
 445:Drivers/STM32C0xx_HAL_Driver/Src/stm32c0xx_hal_pwr_ex.c **** 
 446:Drivers/STM32C0xx_HAL_Driver/Src/stm32c0xx_hal_pwr_ex.c ****   /* Check the parameters */
 447:Drivers/STM32C0xx_HAL_Driver/Src/stm32c0xx_hal_pwr_ex.c ****   assert_param(IS_PWR_BKP(BackupRegister));
 713              		.loc 1 447 3 view .LVU147
ARM GAS  C:\Users\xhex8\AppData\Local\Temp\cc9kN3e4.s 			page 22


 448:Drivers/STM32C0xx_HAL_Driver/Src/stm32c0xx_hal_pwr_ex.c **** 
 449:Drivers/STM32C0xx_HAL_Driver/Src/stm32c0xx_hal_pwr_ex.c ****   tmp = (uint32_t) &(PWR->BKP0R);
 714              		.loc 1 449 3 view .LVU148
 450:Drivers/STM32C0xx_HAL_Driver/Src/stm32c0xx_hal_pwr_ex.c ****   tmp += (BackupRegister * 4U);
 715              		.loc 1 450 3 view .LVU149
 716              		.loc 1 450 26 is_stmt 0 view .LVU150
 717 0000 8000     		lsls	r0, r0, #2
 718              	.LVL51:
 719              		.loc 1 450 7 view .LVU151
 720 0002 024B     		ldr	r3, .L67
 721 0004 9C46     		mov	ip, r3
 722 0006 6044     		add	r0, r0, ip
 723              	.LVL52:
 451:Drivers/STM32C0xx_HAL_Driver/Src/stm32c0xx_hal_pwr_ex.c **** 
 452:Drivers/STM32C0xx_HAL_Driver/Src/stm32c0xx_hal_pwr_ex.c ****   /* Write the specified register */
 453:Drivers/STM32C0xx_HAL_Driver/Src/stm32c0xx_hal_pwr_ex.c ****   *(__IO uint32_t *)tmp = (uint16_t)Data;
 724              		.loc 1 453 3 is_stmt 1 view .LVU152
 725              		.loc 1 453 25 is_stmt 0 view .LVU153
 726 0008 0160     		str	r1, [r0]
 454:Drivers/STM32C0xx_HAL_Driver/Src/stm32c0xx_hal_pwr_ex.c **** }
 727              		.loc 1 454 1 view .LVU154
 728              		@ sp needed
 729 000a 7047     		bx	lr
 730              	.L68:
 731              		.align	2
 732              	.L67:
 733 000c 70700040 		.word	1073770608
 734              		.cfi_endproc
 735              	.LFE225:
 737              		.section	.text.HAL_PWREx_BKUPRead,"ax",%progbits
 738              		.align	1
 739              		.global	HAL_PWREx_BKUPRead
 740              		.syntax unified
 741              		.code	16
 742              		.thumb_func
 744              	HAL_PWREx_BKUPRead:
 745              	.LVL53:
 746              	.LFB226:
 455:Drivers/STM32C0xx_HAL_Driver/Src/stm32c0xx_hal_pwr_ex.c **** 
 456:Drivers/STM32C0xx_HAL_Driver/Src/stm32c0xx_hal_pwr_ex.c **** 
 457:Drivers/STM32C0xx_HAL_Driver/Src/stm32c0xx_hal_pwr_ex.c **** /**
 458:Drivers/STM32C0xx_HAL_Driver/Src/stm32c0xx_hal_pwr_ex.c ****   * @brief  Reads data from the specified PWR Backup data Register.
 459:Drivers/STM32C0xx_HAL_Driver/Src/stm32c0xx_hal_pwr_ex.c ****   * @param  BackupRegister PWR Backup data Register number.
 460:Drivers/STM32C0xx_HAL_Driver/Src/stm32c0xx_hal_pwr_ex.c ****   *          This parameter can be PWR_BKP_DRx where x can be from 0 to PWR_BACKUP_NB
 461:Drivers/STM32C0xx_HAL_Driver/Src/stm32c0xx_hal_pwr_ex.c ****   * @retval Read value
 462:Drivers/STM32C0xx_HAL_Driver/Src/stm32c0xx_hal_pwr_ex.c ****   */
 463:Drivers/STM32C0xx_HAL_Driver/Src/stm32c0xx_hal_pwr_ex.c **** uint32_t HAL_PWREx_BKUPRead(uint32_t BackupRegister)
 464:Drivers/STM32C0xx_HAL_Driver/Src/stm32c0xx_hal_pwr_ex.c **** {
 747              		.loc 1 464 1 is_stmt 1 view -0
 748              		.cfi_startproc
 749              		@ args = 0, pretend = 0, frame = 0
 750              		@ frame_needed = 0, uses_anonymous_args = 0
 751              		@ link register save eliminated.
 465:Drivers/STM32C0xx_HAL_Driver/Src/stm32c0xx_hal_pwr_ex.c ****   uint32_t tmp;
 752              		.loc 1 465 3 view .LVU156
 466:Drivers/STM32C0xx_HAL_Driver/Src/stm32c0xx_hal_pwr_ex.c **** 
 467:Drivers/STM32C0xx_HAL_Driver/Src/stm32c0xx_hal_pwr_ex.c ****   /* Check the parameters */
ARM GAS  C:\Users\xhex8\AppData\Local\Temp\cc9kN3e4.s 			page 23


 468:Drivers/STM32C0xx_HAL_Driver/Src/stm32c0xx_hal_pwr_ex.c ****   assert_param(IS_PWR_BKP(BackupRegister));
 753              		.loc 1 468 3 view .LVU157
 469:Drivers/STM32C0xx_HAL_Driver/Src/stm32c0xx_hal_pwr_ex.c **** 
 470:Drivers/STM32C0xx_HAL_Driver/Src/stm32c0xx_hal_pwr_ex.c ****   tmp = (uint32_t) &(PWR->BKP0R);
 754              		.loc 1 470 3 view .LVU158
 471:Drivers/STM32C0xx_HAL_Driver/Src/stm32c0xx_hal_pwr_ex.c ****   tmp += (BackupRegister * 4U);
 755              		.loc 1 471 3 view .LVU159
 756              		.loc 1 471 26 is_stmt 0 view .LVU160
 757 0000 8000     		lsls	r0, r0, #2
 758              	.LVL54:
 759              		.loc 1 471 7 view .LVU161
 760 0002 024B     		ldr	r3, .L70
 761 0004 9C46     		mov	ip, r3
 762 0006 6044     		add	r0, r0, ip
 763              	.LVL55:
 472:Drivers/STM32C0xx_HAL_Driver/Src/stm32c0xx_hal_pwr_ex.c **** 
 473:Drivers/STM32C0xx_HAL_Driver/Src/stm32c0xx_hal_pwr_ex.c ****   /* Read the specified register */
 474:Drivers/STM32C0xx_HAL_Driver/Src/stm32c0xx_hal_pwr_ex.c ****   return (*(__IO uint32_t *)tmp);
 764              		.loc 1 474 3 is_stmt 1 view .LVU162
 765              		.loc 1 474 11 is_stmt 0 view .LVU163
 766 0008 0068     		ldr	r0, [r0]
 767              	.LVL56:
 475:Drivers/STM32C0xx_HAL_Driver/Src/stm32c0xx_hal_pwr_ex.c **** }
 768              		.loc 1 475 1 view .LVU164
 769              		@ sp needed
 770 000a 7047     		bx	lr
 771              	.L71:
 772              		.align	2
 773              	.L70:
 774 000c 70700040 		.word	1073770608
 775              		.cfi_endproc
 776              	.LFE226:
 778              		.text
 779              	.Letext0:
 780              		.file 2 "c:\\users\\xhex8\\appdata\\roaming\\code\\user\\globalstorage\\bmd.stm32-for-vscode\\@xpa
 781              		.file 3 "c:\\users\\xhex8\\appdata\\roaming\\code\\user\\globalstorage\\bmd.stm32-for-vscode\\@xpa
 782              		.file 4 "Drivers/CMSIS/Include/core_cm0plus.h"
 783              		.file 5 "Drivers/CMSIS/Device/ST/STM32C0xx/Include/stm32c011xx.h"
 784              		.file 6 "Drivers/STM32C0xx_HAL_Driver/Inc/stm32c0xx_hal_def.h"
ARM GAS  C:\Users\xhex8\AppData\Local\Temp\cc9kN3e4.s 			page 24

