ARM GAS  C:\Users\xhex8\AppData\Local\Temp\ccVZjTbA.s 			page 1


   1              		.cpu cortex-m0
   2              		.arch armv6s-m
   3              		.fpu softvfp
   4              		.eabi_attribute 20, 1
   5              		.eabi_attribute 21, 1
   6              		.eabi_attribute 23, 3
   7              		.eabi_attribute 24, 1
   8              		.eabi_attribute 25, 1
   9              		.eabi_attribute 26, 1
  10              		.eabi_attribute 30, 1
  11              		.eabi_attribute 34, 0
  12              		.eabi_attribute 18, 4
  13              		.file	"stm32c0xx_hal_exti.c"
  14              		.text
  15              	.Ltext0:
  16              		.cfi_sections	.debug_frame
  17              		.file 1 "Drivers/STM32C0xx_HAL_Driver/Src/stm32c0xx_hal_exti.c"
  18              		.section	.text.HAL_EXTI_SetConfigLine,"ax",%progbits
  19              		.align	1
  20              		.global	HAL_EXTI_SetConfigLine
  21              		.syntax unified
  22              		.code	16
  23              		.thumb_func
  25              	HAL_EXTI_SetConfigLine:
  26              	.LVL0:
  27              	.LFB214:
   1:Drivers/STM32C0xx_HAL_Driver/Src/stm32c0xx_hal_exti.c **** /**
   2:Drivers/STM32C0xx_HAL_Driver/Src/stm32c0xx_hal_exti.c ****   ******************************************************************************
   3:Drivers/STM32C0xx_HAL_Driver/Src/stm32c0xx_hal_exti.c ****   * @file    stm32c0xx_hal_exti.c
   4:Drivers/STM32C0xx_HAL_Driver/Src/stm32c0xx_hal_exti.c ****   * @author  MCD Application Team
   5:Drivers/STM32C0xx_HAL_Driver/Src/stm32c0xx_hal_exti.c ****   * @brief   EXTI HAL module driver.
   6:Drivers/STM32C0xx_HAL_Driver/Src/stm32c0xx_hal_exti.c ****   *          This file provides firmware functions to manage the following
   7:Drivers/STM32C0xx_HAL_Driver/Src/stm32c0xx_hal_exti.c ****   *          functionalities of the General Purpose Input/Output (EXTI) peripheral:
   8:Drivers/STM32C0xx_HAL_Driver/Src/stm32c0xx_hal_exti.c ****   *           + Initialization and de-initialization functions
   9:Drivers/STM32C0xx_HAL_Driver/Src/stm32c0xx_hal_exti.c ****   *           + IO operation functions
  10:Drivers/STM32C0xx_HAL_Driver/Src/stm32c0xx_hal_exti.c ****   *
  11:Drivers/STM32C0xx_HAL_Driver/Src/stm32c0xx_hal_exti.c ****   ******************************************************************************
  12:Drivers/STM32C0xx_HAL_Driver/Src/stm32c0xx_hal_exti.c ****   * @attention
  13:Drivers/STM32C0xx_HAL_Driver/Src/stm32c0xx_hal_exti.c ****   *
  14:Drivers/STM32C0xx_HAL_Driver/Src/stm32c0xx_hal_exti.c ****   * Copyright (c) 2022 STMicroelectronics.
  15:Drivers/STM32C0xx_HAL_Driver/Src/stm32c0xx_hal_exti.c ****   * All rights reserved.
  16:Drivers/STM32C0xx_HAL_Driver/Src/stm32c0xx_hal_exti.c ****   *
  17:Drivers/STM32C0xx_HAL_Driver/Src/stm32c0xx_hal_exti.c ****   * This software is licensed under terms that can be found in the LICENSE file
  18:Drivers/STM32C0xx_HAL_Driver/Src/stm32c0xx_hal_exti.c ****   * in the root directory of this software component.
  19:Drivers/STM32C0xx_HAL_Driver/Src/stm32c0xx_hal_exti.c ****   * If no LICENSE file comes with this software, it is provided AS-IS.
  20:Drivers/STM32C0xx_HAL_Driver/Src/stm32c0xx_hal_exti.c ****   *
  21:Drivers/STM32C0xx_HAL_Driver/Src/stm32c0xx_hal_exti.c ****   ******************************************************************************
  22:Drivers/STM32C0xx_HAL_Driver/Src/stm32c0xx_hal_exti.c ****   @verbatim
  23:Drivers/STM32C0xx_HAL_Driver/Src/stm32c0xx_hal_exti.c ****   ==============================================================================
  24:Drivers/STM32C0xx_HAL_Driver/Src/stm32c0xx_hal_exti.c ****                     ##### EXTI Peripheral features #####
  25:Drivers/STM32C0xx_HAL_Driver/Src/stm32c0xx_hal_exti.c ****   ==============================================================================
  26:Drivers/STM32C0xx_HAL_Driver/Src/stm32c0xx_hal_exti.c ****   [..]
  27:Drivers/STM32C0xx_HAL_Driver/Src/stm32c0xx_hal_exti.c ****     (+) Each Exti line can be configured within this driver.
  28:Drivers/STM32C0xx_HAL_Driver/Src/stm32c0xx_hal_exti.c **** 
  29:Drivers/STM32C0xx_HAL_Driver/Src/stm32c0xx_hal_exti.c ****     (+) Exti line can be configured in 3 different modes
  30:Drivers/STM32C0xx_HAL_Driver/Src/stm32c0xx_hal_exti.c ****         (++) Interrupt
  31:Drivers/STM32C0xx_HAL_Driver/Src/stm32c0xx_hal_exti.c ****         (++) Event
ARM GAS  C:\Users\xhex8\AppData\Local\Temp\ccVZjTbA.s 			page 2


  32:Drivers/STM32C0xx_HAL_Driver/Src/stm32c0xx_hal_exti.c ****         (++) Both of them
  33:Drivers/STM32C0xx_HAL_Driver/Src/stm32c0xx_hal_exti.c **** 
  34:Drivers/STM32C0xx_HAL_Driver/Src/stm32c0xx_hal_exti.c ****     (+) Configurable Exti lines can be configured with 3 different triggers
  35:Drivers/STM32C0xx_HAL_Driver/Src/stm32c0xx_hal_exti.c ****         (++) Rising
  36:Drivers/STM32C0xx_HAL_Driver/Src/stm32c0xx_hal_exti.c ****         (++) Falling
  37:Drivers/STM32C0xx_HAL_Driver/Src/stm32c0xx_hal_exti.c ****         (++) Both of them
  38:Drivers/STM32C0xx_HAL_Driver/Src/stm32c0xx_hal_exti.c **** 
  39:Drivers/STM32C0xx_HAL_Driver/Src/stm32c0xx_hal_exti.c ****     (+) When set in interrupt mode, configurable Exti lines have two diffenrents
  40:Drivers/STM32C0xx_HAL_Driver/Src/stm32c0xx_hal_exti.c ****         interrupt pending registers which allow to distinguish which transition
  41:Drivers/STM32C0xx_HAL_Driver/Src/stm32c0xx_hal_exti.c ****         occurs:
  42:Drivers/STM32C0xx_HAL_Driver/Src/stm32c0xx_hal_exti.c ****         (++) Rising edge pending interrupt
  43:Drivers/STM32C0xx_HAL_Driver/Src/stm32c0xx_hal_exti.c ****         (++) Falling
  44:Drivers/STM32C0xx_HAL_Driver/Src/stm32c0xx_hal_exti.c **** 
  45:Drivers/STM32C0xx_HAL_Driver/Src/stm32c0xx_hal_exti.c ****     (+) Exti lines 0 to 15 are linked to gpio pin number 0 to 15. Gpio port can
  46:Drivers/STM32C0xx_HAL_Driver/Src/stm32c0xx_hal_exti.c ****         be selected through multiplexer.
  47:Drivers/STM32C0xx_HAL_Driver/Src/stm32c0xx_hal_exti.c **** 
  48:Drivers/STM32C0xx_HAL_Driver/Src/stm32c0xx_hal_exti.c ****                      ##### How to use this driver #####
  49:Drivers/STM32C0xx_HAL_Driver/Src/stm32c0xx_hal_exti.c ****   ==============================================================================
  50:Drivers/STM32C0xx_HAL_Driver/Src/stm32c0xx_hal_exti.c ****   [..]
  51:Drivers/STM32C0xx_HAL_Driver/Src/stm32c0xx_hal_exti.c **** 
  52:Drivers/STM32C0xx_HAL_Driver/Src/stm32c0xx_hal_exti.c ****     (#) Configure the EXTI line using HAL_EXTI_SetConfigLine().
  53:Drivers/STM32C0xx_HAL_Driver/Src/stm32c0xx_hal_exti.c ****         (++) Choose the interrupt line number by setting "Line" member from
  54:Drivers/STM32C0xx_HAL_Driver/Src/stm32c0xx_hal_exti.c ****              EXTI_ConfigTypeDef structure.
  55:Drivers/STM32C0xx_HAL_Driver/Src/stm32c0xx_hal_exti.c ****         (++) Configure the interrupt and/or event mode using "Mode" member from
  56:Drivers/STM32C0xx_HAL_Driver/Src/stm32c0xx_hal_exti.c ****              EXTI_ConfigTypeDef structure.
  57:Drivers/STM32C0xx_HAL_Driver/Src/stm32c0xx_hal_exti.c ****         (++) For configurable lines, configure rising and/or falling trigger
  58:Drivers/STM32C0xx_HAL_Driver/Src/stm32c0xx_hal_exti.c ****              "Trigger" member from EXTI_ConfigTypeDef structure.
  59:Drivers/STM32C0xx_HAL_Driver/Src/stm32c0xx_hal_exti.c ****         (++) For Exti lines linked to gpio, choose gpio port using "GPIOSel"
  60:Drivers/STM32C0xx_HAL_Driver/Src/stm32c0xx_hal_exti.c ****              member from GPIO_InitTypeDef structure.
  61:Drivers/STM32C0xx_HAL_Driver/Src/stm32c0xx_hal_exti.c **** 
  62:Drivers/STM32C0xx_HAL_Driver/Src/stm32c0xx_hal_exti.c ****     (#) Get current Exti configuration of a dedicated line using
  63:Drivers/STM32C0xx_HAL_Driver/Src/stm32c0xx_hal_exti.c ****         HAL_EXTI_GetConfigLine().
  64:Drivers/STM32C0xx_HAL_Driver/Src/stm32c0xx_hal_exti.c ****         (++) Provide exiting handle as parameter.
  65:Drivers/STM32C0xx_HAL_Driver/Src/stm32c0xx_hal_exti.c ****         (++) Provide pointer on EXTI_ConfigTypeDef structure as second parameter.
  66:Drivers/STM32C0xx_HAL_Driver/Src/stm32c0xx_hal_exti.c **** 
  67:Drivers/STM32C0xx_HAL_Driver/Src/stm32c0xx_hal_exti.c ****     (#) Clear Exti configuration of a dedicated line using HAL_EXTI_GetConfigLine().
  68:Drivers/STM32C0xx_HAL_Driver/Src/stm32c0xx_hal_exti.c ****         (++) Provide exiting handle as parameter.
  69:Drivers/STM32C0xx_HAL_Driver/Src/stm32c0xx_hal_exti.c **** 
  70:Drivers/STM32C0xx_HAL_Driver/Src/stm32c0xx_hal_exti.c ****     (#) Register callback to treat Exti interrupts using HAL_EXTI_RegisterCallback().
  71:Drivers/STM32C0xx_HAL_Driver/Src/stm32c0xx_hal_exti.c ****         (++) Provide exiting handle as first parameter.
  72:Drivers/STM32C0xx_HAL_Driver/Src/stm32c0xx_hal_exti.c ****         (++) Provide which callback will be registered using one value from
  73:Drivers/STM32C0xx_HAL_Driver/Src/stm32c0xx_hal_exti.c ****              EXTI_CallbackIDTypeDef.
  74:Drivers/STM32C0xx_HAL_Driver/Src/stm32c0xx_hal_exti.c ****         (++) Provide callback function pointer.
  75:Drivers/STM32C0xx_HAL_Driver/Src/stm32c0xx_hal_exti.c **** 
  76:Drivers/STM32C0xx_HAL_Driver/Src/stm32c0xx_hal_exti.c ****     (#) Get interrupt pending bit using HAL_EXTI_GetPending().
  77:Drivers/STM32C0xx_HAL_Driver/Src/stm32c0xx_hal_exti.c **** 
  78:Drivers/STM32C0xx_HAL_Driver/Src/stm32c0xx_hal_exti.c ****     (#) Clear interrupt pending bit using HAL_EXTI_GetPending().
  79:Drivers/STM32C0xx_HAL_Driver/Src/stm32c0xx_hal_exti.c **** 
  80:Drivers/STM32C0xx_HAL_Driver/Src/stm32c0xx_hal_exti.c ****     (#) Generate software interrupt using HAL_EXTI_GenerateSWI().
  81:Drivers/STM32C0xx_HAL_Driver/Src/stm32c0xx_hal_exti.c **** 
  82:Drivers/STM32C0xx_HAL_Driver/Src/stm32c0xx_hal_exti.c ****   @endverbatim
  83:Drivers/STM32C0xx_HAL_Driver/Src/stm32c0xx_hal_exti.c ****   */
  84:Drivers/STM32C0xx_HAL_Driver/Src/stm32c0xx_hal_exti.c **** 
  85:Drivers/STM32C0xx_HAL_Driver/Src/stm32c0xx_hal_exti.c **** /* Includes ------------------------------------------------------------------*/
  86:Drivers/STM32C0xx_HAL_Driver/Src/stm32c0xx_hal_exti.c **** #include "stm32c0xx_hal.h"
  87:Drivers/STM32C0xx_HAL_Driver/Src/stm32c0xx_hal_exti.c **** 
  88:Drivers/STM32C0xx_HAL_Driver/Src/stm32c0xx_hal_exti.c **** /** @addtogroup STM32C0xx_HAL_Driver
ARM GAS  C:\Users\xhex8\AppData\Local\Temp\ccVZjTbA.s 			page 3


  89:Drivers/STM32C0xx_HAL_Driver/Src/stm32c0xx_hal_exti.c ****   * @{
  90:Drivers/STM32C0xx_HAL_Driver/Src/stm32c0xx_hal_exti.c ****   */
  91:Drivers/STM32C0xx_HAL_Driver/Src/stm32c0xx_hal_exti.c **** 
  92:Drivers/STM32C0xx_HAL_Driver/Src/stm32c0xx_hal_exti.c **** /** @addtogroup EXTI
  93:Drivers/STM32C0xx_HAL_Driver/Src/stm32c0xx_hal_exti.c ****   * @{
  94:Drivers/STM32C0xx_HAL_Driver/Src/stm32c0xx_hal_exti.c ****   */
  95:Drivers/STM32C0xx_HAL_Driver/Src/stm32c0xx_hal_exti.c **** 
  96:Drivers/STM32C0xx_HAL_Driver/Src/stm32c0xx_hal_exti.c **** #ifdef HAL_EXTI_MODULE_ENABLED
  97:Drivers/STM32C0xx_HAL_Driver/Src/stm32c0xx_hal_exti.c **** 
  98:Drivers/STM32C0xx_HAL_Driver/Src/stm32c0xx_hal_exti.c **** /* Private typedef -----------------------------------------------------------*/
  99:Drivers/STM32C0xx_HAL_Driver/Src/stm32c0xx_hal_exti.c **** /* Private defines ------------------------------------------------------------*/
 100:Drivers/STM32C0xx_HAL_Driver/Src/stm32c0xx_hal_exti.c **** /** @defgroup EXTI_Private_Constants EXTI Private Constants
 101:Drivers/STM32C0xx_HAL_Driver/Src/stm32c0xx_hal_exti.c ****   * @{
 102:Drivers/STM32C0xx_HAL_Driver/Src/stm32c0xx_hal_exti.c ****   */
 103:Drivers/STM32C0xx_HAL_Driver/Src/stm32c0xx_hal_exti.c **** #define EXTI_MODE_OFFSET                 0x04u   /* 0x10: offset between CPU IMR/EMR registers */
 104:Drivers/STM32C0xx_HAL_Driver/Src/stm32c0xx_hal_exti.c **** #define EXTI_CONFIG_OFFSET               0x08u   /* 0x20: offset between CPU Rising/Falling configu
 105:Drivers/STM32C0xx_HAL_Driver/Src/stm32c0xx_hal_exti.c **** /**
 106:Drivers/STM32C0xx_HAL_Driver/Src/stm32c0xx_hal_exti.c ****   * @}
 107:Drivers/STM32C0xx_HAL_Driver/Src/stm32c0xx_hal_exti.c ****   */
 108:Drivers/STM32C0xx_HAL_Driver/Src/stm32c0xx_hal_exti.c **** 
 109:Drivers/STM32C0xx_HAL_Driver/Src/stm32c0xx_hal_exti.c **** /* Private macros ------------------------------------------------------------*/
 110:Drivers/STM32C0xx_HAL_Driver/Src/stm32c0xx_hal_exti.c **** /* Private variables ---------------------------------------------------------*/
 111:Drivers/STM32C0xx_HAL_Driver/Src/stm32c0xx_hal_exti.c **** /* Private function prototypes -----------------------------------------------*/
 112:Drivers/STM32C0xx_HAL_Driver/Src/stm32c0xx_hal_exti.c **** /* Exported functions --------------------------------------------------------*/
 113:Drivers/STM32C0xx_HAL_Driver/Src/stm32c0xx_hal_exti.c **** 
 114:Drivers/STM32C0xx_HAL_Driver/Src/stm32c0xx_hal_exti.c **** /** @addtogroup EXTI_Exported_Functions
 115:Drivers/STM32C0xx_HAL_Driver/Src/stm32c0xx_hal_exti.c ****   * @{
 116:Drivers/STM32C0xx_HAL_Driver/Src/stm32c0xx_hal_exti.c ****   */
 117:Drivers/STM32C0xx_HAL_Driver/Src/stm32c0xx_hal_exti.c **** 
 118:Drivers/STM32C0xx_HAL_Driver/Src/stm32c0xx_hal_exti.c **** /** @addtogroup EXTI_Exported_Functions_Group1
 119:Drivers/STM32C0xx_HAL_Driver/Src/stm32c0xx_hal_exti.c ****   *  @brief    Configuration functions
 120:Drivers/STM32C0xx_HAL_Driver/Src/stm32c0xx_hal_exti.c ****   *
 121:Drivers/STM32C0xx_HAL_Driver/Src/stm32c0xx_hal_exti.c **** @verbatim
 122:Drivers/STM32C0xx_HAL_Driver/Src/stm32c0xx_hal_exti.c ****  ===============================================================================
 123:Drivers/STM32C0xx_HAL_Driver/Src/stm32c0xx_hal_exti.c ****               ##### Configuration functions #####
 124:Drivers/STM32C0xx_HAL_Driver/Src/stm32c0xx_hal_exti.c ****  ===============================================================================
 125:Drivers/STM32C0xx_HAL_Driver/Src/stm32c0xx_hal_exti.c **** 
 126:Drivers/STM32C0xx_HAL_Driver/Src/stm32c0xx_hal_exti.c **** @endverbatim
 127:Drivers/STM32C0xx_HAL_Driver/Src/stm32c0xx_hal_exti.c ****   * @{
 128:Drivers/STM32C0xx_HAL_Driver/Src/stm32c0xx_hal_exti.c ****   */
 129:Drivers/STM32C0xx_HAL_Driver/Src/stm32c0xx_hal_exti.c **** 
 130:Drivers/STM32C0xx_HAL_Driver/Src/stm32c0xx_hal_exti.c **** /**
 131:Drivers/STM32C0xx_HAL_Driver/Src/stm32c0xx_hal_exti.c ****   * @brief  Set configuration of a dedicated Exti line.
 132:Drivers/STM32C0xx_HAL_Driver/Src/stm32c0xx_hal_exti.c ****   * @param  hexti Exti handle.
 133:Drivers/STM32C0xx_HAL_Driver/Src/stm32c0xx_hal_exti.c ****   * @param  pExtiConfig Pointer on EXTI configuration to be set.
 134:Drivers/STM32C0xx_HAL_Driver/Src/stm32c0xx_hal_exti.c ****   * @retval HAL Status.
 135:Drivers/STM32C0xx_HAL_Driver/Src/stm32c0xx_hal_exti.c ****   */
 136:Drivers/STM32C0xx_HAL_Driver/Src/stm32c0xx_hal_exti.c **** HAL_StatusTypeDef HAL_EXTI_SetConfigLine(EXTI_HandleTypeDef *hexti, EXTI_ConfigTypeDef *pExtiConfig
 137:Drivers/STM32C0xx_HAL_Driver/Src/stm32c0xx_hal_exti.c **** {
  28              		.loc 1 137 1 view -0
  29              		.cfi_startproc
  30              		@ args = 0, pretend = 0, frame = 0
  31              		@ frame_needed = 0, uses_anonymous_args = 0
  32              		.loc 1 137 1 is_stmt 0 view .LVU1
  33 0000 F0B5     		push	{r4, r5, r6, r7, lr}
  34              		.cfi_def_cfa_offset 20
  35              		.cfi_offset 4, -20
ARM GAS  C:\Users\xhex8\AppData\Local\Temp\ccVZjTbA.s 			page 4


  36              		.cfi_offset 5, -16
  37              		.cfi_offset 6, -12
  38              		.cfi_offset 7, -8
  39              		.cfi_offset 14, -4
  40 0002 C646     		mov	lr, r8
  41 0004 00B5     		push	{lr}
  42              		.cfi_def_cfa_offset 24
  43              		.cfi_offset 8, -24
 138:Drivers/STM32C0xx_HAL_Driver/Src/stm32c0xx_hal_exti.c ****   __IO uint32_t *regaddr;
  44              		.loc 1 138 3 is_stmt 1 view .LVU2
 139:Drivers/STM32C0xx_HAL_Driver/Src/stm32c0xx_hal_exti.c ****   uint32_t regval;
  45              		.loc 1 139 3 view .LVU3
 140:Drivers/STM32C0xx_HAL_Driver/Src/stm32c0xx_hal_exti.c ****   uint32_t linepos;
  46              		.loc 1 140 3 view .LVU4
 141:Drivers/STM32C0xx_HAL_Driver/Src/stm32c0xx_hal_exti.c ****   uint32_t maskline;
  47              		.loc 1 141 3 view .LVU5
 142:Drivers/STM32C0xx_HAL_Driver/Src/stm32c0xx_hal_exti.c ****   uint32_t offset;
  48              		.loc 1 142 3 view .LVU6
 143:Drivers/STM32C0xx_HAL_Driver/Src/stm32c0xx_hal_exti.c **** 
 144:Drivers/STM32C0xx_HAL_Driver/Src/stm32c0xx_hal_exti.c ****   /* Check null pointer */
 145:Drivers/STM32C0xx_HAL_Driver/Src/stm32c0xx_hal_exti.c ****   if ((hexti == NULL) || (pExtiConfig == NULL))
  49              		.loc 1 145 3 view .LVU7
  50              		.loc 1 145 6 is_stmt 0 view .LVU8
  51 0006 0028     		cmp	r0, #0
  52 0008 56D0     		beq	.L12
  53              		.loc 1 145 23 discriminator 1 view .LVU9
  54 000a 0029     		cmp	r1, #0
  55 000c 56D0     		beq	.L13
 146:Drivers/STM32C0xx_HAL_Driver/Src/stm32c0xx_hal_exti.c ****   {
 147:Drivers/STM32C0xx_HAL_Driver/Src/stm32c0xx_hal_exti.c ****     return HAL_ERROR;
 148:Drivers/STM32C0xx_HAL_Driver/Src/stm32c0xx_hal_exti.c ****   }
 149:Drivers/STM32C0xx_HAL_Driver/Src/stm32c0xx_hal_exti.c **** 
 150:Drivers/STM32C0xx_HAL_Driver/Src/stm32c0xx_hal_exti.c ****   /* Check the parameters */
 151:Drivers/STM32C0xx_HAL_Driver/Src/stm32c0xx_hal_exti.c ****   assert_param(IS_EXTI_LINE(pExtiConfig->Line));
  56              		.loc 1 151 3 is_stmt 1 view .LVU10
 152:Drivers/STM32C0xx_HAL_Driver/Src/stm32c0xx_hal_exti.c ****   assert_param(IS_EXTI_MODE(pExtiConfig->Mode));
  57              		.loc 1 152 3 view .LVU11
 153:Drivers/STM32C0xx_HAL_Driver/Src/stm32c0xx_hal_exti.c **** 
 154:Drivers/STM32C0xx_HAL_Driver/Src/stm32c0xx_hal_exti.c ****   /* Assign line number to handle */
 155:Drivers/STM32C0xx_HAL_Driver/Src/stm32c0xx_hal_exti.c ****   hexti->Line = pExtiConfig->Line;
  58              		.loc 1 155 3 view .LVU12
  59              		.loc 1 155 28 is_stmt 0 view .LVU13
  60 000e 0C68     		ldr	r4, [r1]
  61              		.loc 1 155 15 view .LVU14
  62 0010 0460     		str	r4, [r0]
 156:Drivers/STM32C0xx_HAL_Driver/Src/stm32c0xx_hal_exti.c **** 
 157:Drivers/STM32C0xx_HAL_Driver/Src/stm32c0xx_hal_exti.c ****   /* compute line register offset and line mask */
 158:Drivers/STM32C0xx_HAL_Driver/Src/stm32c0xx_hal_exti.c ****   offset = ((pExtiConfig->Line & EXTI_REG_MASK) >> EXTI_REG_SHIFT);
  63              		.loc 1 158 3 is_stmt 1 view .LVU15
  64              		.loc 1 158 49 is_stmt 0 view .LVU16
  65 0012 230C     		lsrs	r3, r4, #16
  66              		.loc 1 158 10 view .LVU17
  67 0014 0122     		movs	r2, #1
  68 0016 1340     		ands	r3, r2
  69              	.LVL1:
 159:Drivers/STM32C0xx_HAL_Driver/Src/stm32c0xx_hal_exti.c ****   linepos = (pExtiConfig->Line & EXTI_PIN_MASK);
  70              		.loc 1 159 3 is_stmt 1 view .LVU18
ARM GAS  C:\Users\xhex8\AppData\Local\Temp\ccVZjTbA.s 			page 5


  71              		.loc 1 159 11 is_stmt 0 view .LVU19
  72 0018 1F20     		movs	r0, #31
  73              	.LVL2:
  74              		.loc 1 159 11 view .LVU20
  75 001a 2040     		ands	r0, r4
  76              	.LVL3:
 160:Drivers/STM32C0xx_HAL_Driver/Src/stm32c0xx_hal_exti.c ****   maskline = (1UL << linepos);
  77              		.loc 1 160 3 is_stmt 1 view .LVU21
  78              		.loc 1 160 12 is_stmt 0 view .LVU22
  79 001c 8240     		lsls	r2, r2, r0
  80              	.LVL4:
 161:Drivers/STM32C0xx_HAL_Driver/Src/stm32c0xx_hal_exti.c **** 
 162:Drivers/STM32C0xx_HAL_Driver/Src/stm32c0xx_hal_exti.c ****   /* Configure triggers for configurable lines */
 163:Drivers/STM32C0xx_HAL_Driver/Src/stm32c0xx_hal_exti.c ****   if ((pExtiConfig->Line & EXTI_CONFIG) != 0U)
  81              		.loc 1 163 3 is_stmt 1 view .LVU23
  82              		.loc 1 163 6 is_stmt 0 view .LVU24
  83 001e A501     		lsls	r5, r4, #6
  84 0020 19D5     		bpl	.L3
 164:Drivers/STM32C0xx_HAL_Driver/Src/stm32c0xx_hal_exti.c ****   {
 165:Drivers/STM32C0xx_HAL_Driver/Src/stm32c0xx_hal_exti.c ****     assert_param(IS_EXTI_TRIGGER(pExtiConfig->Trigger));
  85              		.loc 1 165 5 is_stmt 1 view .LVU25
 166:Drivers/STM32C0xx_HAL_Driver/Src/stm32c0xx_hal_exti.c **** 
 167:Drivers/STM32C0xx_HAL_Driver/Src/stm32c0xx_hal_exti.c ****     /* Configure rising trigger */
 168:Drivers/STM32C0xx_HAL_Driver/Src/stm32c0xx_hal_exti.c ****     regaddr = (__IO uint32_t *)(&EXTI->RTSR1 + (EXTI_CONFIG_OFFSET * offset));
  86              		.loc 1 168 5 view .LVU26
  87              		.loc 1 168 15 is_stmt 0 view .LVU27
  88 0022 5D01     		lsls	r5, r3, #5
  89              		.loc 1 168 13 view .LVU28
  90 0024 264E     		ldr	r6, .L16
  91 0026 AF19     		adds	r7, r5, r6
  92              	.LVL5:
 169:Drivers/STM32C0xx_HAL_Driver/Src/stm32c0xx_hal_exti.c ****     regval = *regaddr;
  93              		.loc 1 169 5 is_stmt 1 view .LVU29
  94              		.loc 1 169 12 is_stmt 0 view .LVU30
  95 0028 3E68     		ldr	r6, [r7]
  96 002a B046     		mov	r8, r6
  97              	.LVL6:
 170:Drivers/STM32C0xx_HAL_Driver/Src/stm32c0xx_hal_exti.c **** 
 171:Drivers/STM32C0xx_HAL_Driver/Src/stm32c0xx_hal_exti.c ****     /* Mask or set line */
 172:Drivers/STM32C0xx_HAL_Driver/Src/stm32c0xx_hal_exti.c ****     if ((pExtiConfig->Trigger & EXTI_TRIGGER_RISING) != 0U)
  98              		.loc 1 172 5 is_stmt 1 view .LVU31
  99              		.loc 1 172 21 is_stmt 0 view .LVU32
 100 002c 8E68     		ldr	r6, [r1, #8]
 101              	.LVL7:
 102              		.loc 1 172 8 view .LVU33
 103 002e F607     		lsls	r6, r6, #31
 104 0030 27D5     		bpl	.L4
 173:Drivers/STM32C0xx_HAL_Driver/Src/stm32c0xx_hal_exti.c ****     {
 174:Drivers/STM32C0xx_HAL_Driver/Src/stm32c0xx_hal_exti.c ****       regval |= maskline;
 105              		.loc 1 174 7 is_stmt 1 view .LVU34
 106              		.loc 1 174 14 is_stmt 0 view .LVU35
 107 0032 4646     		mov	r6, r8
 108 0034 1643     		orrs	r6, r2
 109              	.LVL8:
 110              	.L5:
 175:Drivers/STM32C0xx_HAL_Driver/Src/stm32c0xx_hal_exti.c ****     }
 176:Drivers/STM32C0xx_HAL_Driver/Src/stm32c0xx_hal_exti.c ****     else
ARM GAS  C:\Users\xhex8\AppData\Local\Temp\ccVZjTbA.s 			page 6


 177:Drivers/STM32C0xx_HAL_Driver/Src/stm32c0xx_hal_exti.c ****     {
 178:Drivers/STM32C0xx_HAL_Driver/Src/stm32c0xx_hal_exti.c ****       regval &= ~maskline;
 179:Drivers/STM32C0xx_HAL_Driver/Src/stm32c0xx_hal_exti.c ****     }
 180:Drivers/STM32C0xx_HAL_Driver/Src/stm32c0xx_hal_exti.c **** 
 181:Drivers/STM32C0xx_HAL_Driver/Src/stm32c0xx_hal_exti.c ****     /* Store rising trigger mode */
 182:Drivers/STM32C0xx_HAL_Driver/Src/stm32c0xx_hal_exti.c ****     *regaddr = regval;
 111              		.loc 1 182 5 is_stmt 1 view .LVU36
 112              		.loc 1 182 14 is_stmt 0 view .LVU37
 113 0036 3E60     		str	r6, [r7]
 183:Drivers/STM32C0xx_HAL_Driver/Src/stm32c0xx_hal_exti.c **** 
 184:Drivers/STM32C0xx_HAL_Driver/Src/stm32c0xx_hal_exti.c ****     /* Configure falling trigger */
 185:Drivers/STM32C0xx_HAL_Driver/Src/stm32c0xx_hal_exti.c ****     regaddr = (__IO uint32_t *)(&EXTI->FTSR1 + (EXTI_CONFIG_OFFSET * offset));
 114              		.loc 1 185 5 is_stmt 1 view .LVU38
 115              		.loc 1 185 13 is_stmt 0 view .LVU39
 116 0038 224E     		ldr	r6, .L16+4
 117              	.LVL9:
 118              		.loc 1 185 13 view .LVU40
 119 003a B446     		mov	ip, r6
 120 003c 6544     		add	r5, r5, ip
 121              	.LVL10:
 186:Drivers/STM32C0xx_HAL_Driver/Src/stm32c0xx_hal_exti.c ****     regval = *regaddr;
 122              		.loc 1 186 5 is_stmt 1 view .LVU41
 123              		.loc 1 186 12 is_stmt 0 view .LVU42
 124 003e 2E68     		ldr	r6, [r5]
 125              	.LVL11:
 187:Drivers/STM32C0xx_HAL_Driver/Src/stm32c0xx_hal_exti.c **** 
 188:Drivers/STM32C0xx_HAL_Driver/Src/stm32c0xx_hal_exti.c ****     /* Mask or set line */
 189:Drivers/STM32C0xx_HAL_Driver/Src/stm32c0xx_hal_exti.c ****     if ((pExtiConfig->Trigger & EXTI_TRIGGER_FALLING) != 0U)
 126              		.loc 1 189 5 is_stmt 1 view .LVU43
 127              		.loc 1 189 21 is_stmt 0 view .LVU44
 128 0040 8F68     		ldr	r7, [r1, #8]
 129              		.loc 1 189 8 view .LVU45
 130 0042 BF07     		lsls	r7, r7, #30
 131 0044 20D5     		bpl	.L6
 190:Drivers/STM32C0xx_HAL_Driver/Src/stm32c0xx_hal_exti.c ****     {
 191:Drivers/STM32C0xx_HAL_Driver/Src/stm32c0xx_hal_exti.c ****       regval |= maskline;
 132              		.loc 1 191 7 is_stmt 1 view .LVU46
 133              		.loc 1 191 14 is_stmt 0 view .LVU47
 134 0046 1643     		orrs	r6, r2
 135              	.LVL12:
 136              	.L7:
 192:Drivers/STM32C0xx_HAL_Driver/Src/stm32c0xx_hal_exti.c ****     }
 193:Drivers/STM32C0xx_HAL_Driver/Src/stm32c0xx_hal_exti.c ****     else
 194:Drivers/STM32C0xx_HAL_Driver/Src/stm32c0xx_hal_exti.c ****     {
 195:Drivers/STM32C0xx_HAL_Driver/Src/stm32c0xx_hal_exti.c ****       regval &= ~maskline;
 196:Drivers/STM32C0xx_HAL_Driver/Src/stm32c0xx_hal_exti.c ****     }
 197:Drivers/STM32C0xx_HAL_Driver/Src/stm32c0xx_hal_exti.c **** 
 198:Drivers/STM32C0xx_HAL_Driver/Src/stm32c0xx_hal_exti.c ****     /* Store falling trigger mode */
 199:Drivers/STM32C0xx_HAL_Driver/Src/stm32c0xx_hal_exti.c ****     *regaddr = regval;
 137              		.loc 1 199 5 is_stmt 1 view .LVU48
 138              		.loc 1 199 14 is_stmt 0 view .LVU49
 139 0048 2E60     		str	r6, [r5]
 200:Drivers/STM32C0xx_HAL_Driver/Src/stm32c0xx_hal_exti.c **** 
 201:Drivers/STM32C0xx_HAL_Driver/Src/stm32c0xx_hal_exti.c ****     /* Configure gpio port selection in case of gpio exti line */
 202:Drivers/STM32C0xx_HAL_Driver/Src/stm32c0xx_hal_exti.c ****     if ((pExtiConfig->Line & EXTI_GPIO) == EXTI_GPIO)
 140              		.loc 1 202 5 is_stmt 1 view .LVU50
 141              		.loc 1 202 21 is_stmt 0 view .LVU51
ARM GAS  C:\Users\xhex8\AppData\Local\Temp\ccVZjTbA.s 			page 7


 142 004a 0D68     		ldr	r5, [r1]
 143              	.LVL13:
 144              		.loc 1 202 28 view .LVU52
 145 004c C026     		movs	r6, #192
 146              	.LVL14:
 147              		.loc 1 202 28 view .LVU53
 148 004e F604     		lsls	r6, r6, #19
 149 0050 3540     		ands	r5, r6
 150              		.loc 1 202 8 view .LVU54
 151 0052 B542     		cmp	r5, r6
 152 0054 1AD0     		beq	.L15
 153              	.LVL15:
 154              	.L3:
 203:Drivers/STM32C0xx_HAL_Driver/Src/stm32c0xx_hal_exti.c ****     {
 204:Drivers/STM32C0xx_HAL_Driver/Src/stm32c0xx_hal_exti.c ****       assert_param(IS_EXTI_GPIO_PORT(pExtiConfig->GPIOSel));
 205:Drivers/STM32C0xx_HAL_Driver/Src/stm32c0xx_hal_exti.c ****       assert_param(IS_EXTI_GPIO_PIN(linepos));
 206:Drivers/STM32C0xx_HAL_Driver/Src/stm32c0xx_hal_exti.c **** 
 207:Drivers/STM32C0xx_HAL_Driver/Src/stm32c0xx_hal_exti.c ****       regval = EXTI->EXTICR[(linepos >> 2U) & 0x03UL];
 208:Drivers/STM32C0xx_HAL_Driver/Src/stm32c0xx_hal_exti.c ****       regval &= ~(EXTI_EXTICR1_EXTI0 << (EXTI_EXTICR1_EXTI1_Pos * (linepos & 0x03U)));
 209:Drivers/STM32C0xx_HAL_Driver/Src/stm32c0xx_hal_exti.c ****       regval |= (pExtiConfig->GPIOSel << (EXTI_EXTICR1_EXTI1_Pos * (linepos & 0x03U)));
 210:Drivers/STM32C0xx_HAL_Driver/Src/stm32c0xx_hal_exti.c ****       EXTI->EXTICR[(linepos >> 2U) & 0x03UL] = regval;
 211:Drivers/STM32C0xx_HAL_Driver/Src/stm32c0xx_hal_exti.c ****     }
 212:Drivers/STM32C0xx_HAL_Driver/Src/stm32c0xx_hal_exti.c ****   }
 213:Drivers/STM32C0xx_HAL_Driver/Src/stm32c0xx_hal_exti.c **** 
 214:Drivers/STM32C0xx_HAL_Driver/Src/stm32c0xx_hal_exti.c ****   /* Configure interrupt mode : read current mode */
 215:Drivers/STM32C0xx_HAL_Driver/Src/stm32c0xx_hal_exti.c ****   regaddr = (__IO uint32_t *)(&EXTI->IMR1 + (EXTI_MODE_OFFSET * offset));
 155              		.loc 1 215 3 is_stmt 1 view .LVU55
 156              		.loc 1 215 13 is_stmt 0 view .LVU56
 157 0056 1B01     		lsls	r3, r3, #4
 158              	.LVL16:
 159              		.loc 1 215 11 view .LVU57
 160 0058 1B48     		ldr	r0, .L16+8
 161 005a 1C18     		adds	r4, r3, r0
 162              	.LVL17:
 216:Drivers/STM32C0xx_HAL_Driver/Src/stm32c0xx_hal_exti.c ****   regval = *regaddr;
 163              		.loc 1 216 3 is_stmt 1 view .LVU58
 164              		.loc 1 216 10 is_stmt 0 view .LVU59
 165 005c 2068     		ldr	r0, [r4]
 166              	.LVL18:
 217:Drivers/STM32C0xx_HAL_Driver/Src/stm32c0xx_hal_exti.c **** 
 218:Drivers/STM32C0xx_HAL_Driver/Src/stm32c0xx_hal_exti.c ****   /* Mask or set line */
 219:Drivers/STM32C0xx_HAL_Driver/Src/stm32c0xx_hal_exti.c ****   if ((pExtiConfig->Mode & EXTI_MODE_INTERRUPT) != 0U)
 167              		.loc 1 219 3 is_stmt 1 view .LVU60
 168              		.loc 1 219 19 is_stmt 0 view .LVU61
 169 005e 4D68     		ldr	r5, [r1, #4]
 170              		.loc 1 219 6 view .LVU62
 171 0060 ED07     		lsls	r5, r5, #31
 172 0062 25D5     		bpl	.L8
 220:Drivers/STM32C0xx_HAL_Driver/Src/stm32c0xx_hal_exti.c ****   {
 221:Drivers/STM32C0xx_HAL_Driver/Src/stm32c0xx_hal_exti.c ****     regval |= maskline;
 173              		.loc 1 221 5 is_stmt 1 view .LVU63
 174              		.loc 1 221 12 is_stmt 0 view .LVU64
 175 0064 1043     		orrs	r0, r2
 176              	.LVL19:
 177              	.L9:
 222:Drivers/STM32C0xx_HAL_Driver/Src/stm32c0xx_hal_exti.c ****   }
 223:Drivers/STM32C0xx_HAL_Driver/Src/stm32c0xx_hal_exti.c ****   else
ARM GAS  C:\Users\xhex8\AppData\Local\Temp\ccVZjTbA.s 			page 8


 224:Drivers/STM32C0xx_HAL_Driver/Src/stm32c0xx_hal_exti.c ****   {
 225:Drivers/STM32C0xx_HAL_Driver/Src/stm32c0xx_hal_exti.c ****     regval &= ~maskline;
 226:Drivers/STM32C0xx_HAL_Driver/Src/stm32c0xx_hal_exti.c ****   }
 227:Drivers/STM32C0xx_HAL_Driver/Src/stm32c0xx_hal_exti.c **** 
 228:Drivers/STM32C0xx_HAL_Driver/Src/stm32c0xx_hal_exti.c ****   /* Store interrupt mode */
 229:Drivers/STM32C0xx_HAL_Driver/Src/stm32c0xx_hal_exti.c ****   *regaddr = regval;
 178              		.loc 1 229 3 is_stmt 1 view .LVU65
 179              		.loc 1 229 12 is_stmt 0 view .LVU66
 180 0066 2060     		str	r0, [r4]
 230:Drivers/STM32C0xx_HAL_Driver/Src/stm32c0xx_hal_exti.c **** 
 231:Drivers/STM32C0xx_HAL_Driver/Src/stm32c0xx_hal_exti.c ****   /* Configure event mode : read current mode */
 232:Drivers/STM32C0xx_HAL_Driver/Src/stm32c0xx_hal_exti.c ****   regaddr = (__IO uint32_t *)(&EXTI->EMR1 + (EXTI_MODE_OFFSET * offset));
 181              		.loc 1 232 3 is_stmt 1 view .LVU67
 182              		.loc 1 232 11 is_stmt 0 view .LVU68
 183 0068 1848     		ldr	r0, .L16+12
 184              	.LVL20:
 185              		.loc 1 232 11 view .LVU69
 186 006a 8446     		mov	ip, r0
 187 006c 6344     		add	r3, r3, ip
 188              	.LVL21:
 233:Drivers/STM32C0xx_HAL_Driver/Src/stm32c0xx_hal_exti.c ****   regval = *regaddr;
 189              		.loc 1 233 3 is_stmt 1 view .LVU70
 190              		.loc 1 233 10 is_stmt 0 view .LVU71
 191 006e 1868     		ldr	r0, [r3]
 192              	.LVL22:
 234:Drivers/STM32C0xx_HAL_Driver/Src/stm32c0xx_hal_exti.c **** 
 235:Drivers/STM32C0xx_HAL_Driver/Src/stm32c0xx_hal_exti.c ****   /* Mask or set line */
 236:Drivers/STM32C0xx_HAL_Driver/Src/stm32c0xx_hal_exti.c ****   if ((pExtiConfig->Mode & EXTI_MODE_EVENT) != 0U)
 193              		.loc 1 236 3 is_stmt 1 view .LVU72
 194              		.loc 1 236 19 is_stmt 0 view .LVU73
 195 0070 4968     		ldr	r1, [r1, #4]
 196              	.LVL23:
 197              		.loc 1 236 6 view .LVU74
 198 0072 8907     		lsls	r1, r1, #30
 199 0074 1ED5     		bpl	.L10
 237:Drivers/STM32C0xx_HAL_Driver/Src/stm32c0xx_hal_exti.c ****   {
 238:Drivers/STM32C0xx_HAL_Driver/Src/stm32c0xx_hal_exti.c ****     regval |= maskline;
 200              		.loc 1 238 5 is_stmt 1 view .LVU75
 201              		.loc 1 238 12 is_stmt 0 view .LVU76
 202 0076 1043     		orrs	r0, r2
 203              	.LVL24:
 204              	.L11:
 239:Drivers/STM32C0xx_HAL_Driver/Src/stm32c0xx_hal_exti.c ****   }
 240:Drivers/STM32C0xx_HAL_Driver/Src/stm32c0xx_hal_exti.c ****   else
 241:Drivers/STM32C0xx_HAL_Driver/Src/stm32c0xx_hal_exti.c ****   {
 242:Drivers/STM32C0xx_HAL_Driver/Src/stm32c0xx_hal_exti.c ****     regval &= ~maskline;
 243:Drivers/STM32C0xx_HAL_Driver/Src/stm32c0xx_hal_exti.c ****   }
 244:Drivers/STM32C0xx_HAL_Driver/Src/stm32c0xx_hal_exti.c **** 
 245:Drivers/STM32C0xx_HAL_Driver/Src/stm32c0xx_hal_exti.c ****   /* Store event mode */
 246:Drivers/STM32C0xx_HAL_Driver/Src/stm32c0xx_hal_exti.c ****   *regaddr = regval;
 205              		.loc 1 246 3 is_stmt 1 view .LVU77
 206              		.loc 1 246 12 is_stmt 0 view .LVU78
 207 0078 1860     		str	r0, [r3]
 247:Drivers/STM32C0xx_HAL_Driver/Src/stm32c0xx_hal_exti.c **** 
 248:Drivers/STM32C0xx_HAL_Driver/Src/stm32c0xx_hal_exti.c ****   return HAL_OK;
 208              		.loc 1 248 3 is_stmt 1 view .LVU79
 209              		.loc 1 248 10 is_stmt 0 view .LVU80
ARM GAS  C:\Users\xhex8\AppData\Local\Temp\ccVZjTbA.s 			page 9


 210 007a 0020     		movs	r0, #0
 211              	.LVL25:
 212              	.L2:
 249:Drivers/STM32C0xx_HAL_Driver/Src/stm32c0xx_hal_exti.c **** }
 213              		.loc 1 249 1 view .LVU81
 214              		@ sp needed
 215 007c 80BC     		pop	{r7}
 216 007e B846     		mov	r8, r7
 217 0080 F0BD     		pop	{r4, r5, r6, r7, pc}
 218              	.LVL26:
 219              	.L4:
 178:Drivers/STM32C0xx_HAL_Driver/Src/stm32c0xx_hal_exti.c ****     }
 220              		.loc 1 178 7 is_stmt 1 view .LVU82
 178:Drivers/STM32C0xx_HAL_Driver/Src/stm32c0xx_hal_exti.c ****     }
 221              		.loc 1 178 14 is_stmt 0 view .LVU83
 222 0082 4646     		mov	r6, r8
 223 0084 9643     		bics	r6, r2
 224              	.LVL27:
 178:Drivers/STM32C0xx_HAL_Driver/Src/stm32c0xx_hal_exti.c ****     }
 225              		.loc 1 178 14 view .LVU84
 226 0086 D6E7     		b	.L5
 227              	.LVL28:
 228              	.L6:
 195:Drivers/STM32C0xx_HAL_Driver/Src/stm32c0xx_hal_exti.c ****     }
 229              		.loc 1 195 7 is_stmt 1 view .LVU85
 195:Drivers/STM32C0xx_HAL_Driver/Src/stm32c0xx_hal_exti.c ****     }
 230              		.loc 1 195 14 is_stmt 0 view .LVU86
 231 0088 9643     		bics	r6, r2
 232              	.LVL29:
 195:Drivers/STM32C0xx_HAL_Driver/Src/stm32c0xx_hal_exti.c ****     }
 233              		.loc 1 195 14 view .LVU87
 234 008a DDE7     		b	.L7
 235              	.LVL30:
 236              	.L15:
 204:Drivers/STM32C0xx_HAL_Driver/Src/stm32c0xx_hal_exti.c ****       assert_param(IS_EXTI_GPIO_PIN(linepos));
 237              		.loc 1 204 7 is_stmt 1 view .LVU88
 205:Drivers/STM32C0xx_HAL_Driver/Src/stm32c0xx_hal_exti.c **** 
 238              		.loc 1 205 7 view .LVU89
 207:Drivers/STM32C0xx_HAL_Driver/Src/stm32c0xx_hal_exti.c ****       regval &= ~(EXTI_EXTICR1_EXTI0 << (EXTI_EXTICR1_EXTI1_Pos * (linepos & 0x03U)));
 239              		.loc 1 207 7 view .LVU90
 207:Drivers/STM32C0xx_HAL_Driver/Src/stm32c0xx_hal_exti.c ****       regval &= ~(EXTI_EXTICR1_EXTI0 << (EXTI_EXTICR1_EXTI1_Pos * (linepos & 0x03U)));
 240              		.loc 1 207 38 is_stmt 0 view .LVU91
 241 008c 8008     		lsrs	r0, r0, #2
 242              	.LVL31:
 207:Drivers/STM32C0xx_HAL_Driver/Src/stm32c0xx_hal_exti.c ****       regval &= ~(EXTI_EXTICR1_EXTI0 << (EXTI_EXTICR1_EXTI1_Pos * (linepos & 0x03U)));
 243              		.loc 1 207 45 view .LVU92
 244 008e 0325     		movs	r5, #3
 245 0090 2840     		ands	r0, r5
 207:Drivers/STM32C0xx_HAL_Driver/Src/stm32c0xx_hal_exti.c ****       regval &= ~(EXTI_EXTICR1_EXTI0 << (EXTI_EXTICR1_EXTI1_Pos * (linepos & 0x03U)));
 246              		.loc 1 207 14 view .LVU93
 247 0092 0B4E     		ldr	r6, .L16
 248 0094 1830     		adds	r0, r0, #24
 249 0096 8000     		lsls	r0, r0, #2
 250 0098 8759     		ldr	r7, [r0, r6]
 251              	.LVL32:
 208:Drivers/STM32C0xx_HAL_Driver/Src/stm32c0xx_hal_exti.c ****       regval |= (pExtiConfig->GPIOSel << (EXTI_EXTICR1_EXTI1_Pos * (linepos & 0x03U)));
 252              		.loc 1 208 7 is_stmt 1 view .LVU94
ARM GAS  C:\Users\xhex8\AppData\Local\Temp\ccVZjTbA.s 			page 10


 208:Drivers/STM32C0xx_HAL_Driver/Src/stm32c0xx_hal_exti.c ****       regval |= (pExtiConfig->GPIOSel << (EXTI_EXTICR1_EXTI1_Pos * (linepos & 0x03U)));
 253              		.loc 1 208 76 is_stmt 0 view .LVU95
 254 009a 2C40     		ands	r4, r5
 255              	.LVL33:
 208:Drivers/STM32C0xx_HAL_Driver/Src/stm32c0xx_hal_exti.c ****       regval |= (pExtiConfig->GPIOSel << (EXTI_EXTICR1_EXTI1_Pos * (linepos & 0x03U)));
 256              		.loc 1 208 65 view .LVU96
 257 009c E400     		lsls	r4, r4, #3
 208:Drivers/STM32C0xx_HAL_Driver/Src/stm32c0xx_hal_exti.c ****       regval |= (pExtiConfig->GPIOSel << (EXTI_EXTICR1_EXTI1_Pos * (linepos & 0x03U)));
 258              		.loc 1 208 38 view .LVU97
 259 009e 0435     		adds	r5, r5, #4
 260 00a0 A540     		lsls	r5, r5, r4
 208:Drivers/STM32C0xx_HAL_Driver/Src/stm32c0xx_hal_exti.c ****       regval |= (pExtiConfig->GPIOSel << (EXTI_EXTICR1_EXTI1_Pos * (linepos & 0x03U)));
 261              		.loc 1 208 14 view .LVU98
 262 00a2 AF43     		bics	r7, r5
 263              	.LVL34:
 209:Drivers/STM32C0xx_HAL_Driver/Src/stm32c0xx_hal_exti.c ****       EXTI->EXTICR[(linepos >> 2U) & 0x03UL] = regval;
 264              		.loc 1 209 7 is_stmt 1 view .LVU99
 209:Drivers/STM32C0xx_HAL_Driver/Src/stm32c0xx_hal_exti.c ****       EXTI->EXTICR[(linepos >> 2U) & 0x03UL] = regval;
 265              		.loc 1 209 29 is_stmt 0 view .LVU100
 266 00a4 CD68     		ldr	r5, [r1, #12]
 209:Drivers/STM32C0xx_HAL_Driver/Src/stm32c0xx_hal_exti.c ****       EXTI->EXTICR[(linepos >> 2U) & 0x03UL] = regval;
 267              		.loc 1 209 39 view .LVU101
 268 00a6 A540     		lsls	r5, r5, r4
 269 00a8 2C00     		movs	r4, r5
 209:Drivers/STM32C0xx_HAL_Driver/Src/stm32c0xx_hal_exti.c ****       EXTI->EXTICR[(linepos >> 2U) & 0x03UL] = regval;
 270              		.loc 1 209 14 view .LVU102
 271 00aa 3C43     		orrs	r4, r7
 272              	.LVL35:
 210:Drivers/STM32C0xx_HAL_Driver/Src/stm32c0xx_hal_exti.c ****     }
 273              		.loc 1 210 7 is_stmt 1 view .LVU103
 210:Drivers/STM32C0xx_HAL_Driver/Src/stm32c0xx_hal_exti.c ****     }
 274              		.loc 1 210 46 is_stmt 0 view .LVU104
 275 00ac 8451     		str	r4, [r0, r6]
 276 00ae D2E7     		b	.L3
 277              	.LVL36:
 278              	.L8:
 225:Drivers/STM32C0xx_HAL_Driver/Src/stm32c0xx_hal_exti.c ****   }
 279              		.loc 1 225 5 is_stmt 1 view .LVU105
 225:Drivers/STM32C0xx_HAL_Driver/Src/stm32c0xx_hal_exti.c ****   }
 280              		.loc 1 225 12 is_stmt 0 view .LVU106
 281 00b0 9043     		bics	r0, r2
 282              	.LVL37:
 225:Drivers/STM32C0xx_HAL_Driver/Src/stm32c0xx_hal_exti.c ****   }
 283              		.loc 1 225 12 view .LVU107
 284 00b2 D8E7     		b	.L9
 285              	.LVL38:
 286              	.L10:
 242:Drivers/STM32C0xx_HAL_Driver/Src/stm32c0xx_hal_exti.c ****   }
 287              		.loc 1 242 5 is_stmt 1 view .LVU108
 242:Drivers/STM32C0xx_HAL_Driver/Src/stm32c0xx_hal_exti.c ****   }
 288              		.loc 1 242 12 is_stmt 0 view .LVU109
 289 00b4 9043     		bics	r0, r2
 290              	.LVL39:
 242:Drivers/STM32C0xx_HAL_Driver/Src/stm32c0xx_hal_exti.c ****   }
 291              		.loc 1 242 12 view .LVU110
 292 00b6 DFE7     		b	.L11
 293              	.LVL40:
ARM GAS  C:\Users\xhex8\AppData\Local\Temp\ccVZjTbA.s 			page 11


 294              	.L12:
 147:Drivers/STM32C0xx_HAL_Driver/Src/stm32c0xx_hal_exti.c ****   }
 295              		.loc 1 147 12 view .LVU111
 296 00b8 0120     		movs	r0, #1
 297              	.LVL41:
 147:Drivers/STM32C0xx_HAL_Driver/Src/stm32c0xx_hal_exti.c ****   }
 298              		.loc 1 147 12 view .LVU112
 299 00ba DFE7     		b	.L2
 300              	.LVL42:
 301              	.L13:
 147:Drivers/STM32C0xx_HAL_Driver/Src/stm32c0xx_hal_exti.c ****   }
 302              		.loc 1 147 12 view .LVU113
 303 00bc 0120     		movs	r0, #1
 304              	.LVL43:
 147:Drivers/STM32C0xx_HAL_Driver/Src/stm32c0xx_hal_exti.c ****   }
 305              		.loc 1 147 12 view .LVU114
 306 00be DDE7     		b	.L2
 307              	.L17:
 308              		.align	2
 309              	.L16:
 310 00c0 00180240 		.word	1073879040
 311 00c4 04180240 		.word	1073879044
 312 00c8 80180240 		.word	1073879168
 313 00cc 84180240 		.word	1073879172
 314              		.cfi_endproc
 315              	.LFE214:
 317              		.section	.text.HAL_EXTI_GetConfigLine,"ax",%progbits
 318              		.align	1
 319              		.global	HAL_EXTI_GetConfigLine
 320              		.syntax unified
 321              		.code	16
 322              		.thumb_func
 324              	HAL_EXTI_GetConfigLine:
 325              	.LVL44:
 326              	.LFB215:
 250:Drivers/STM32C0xx_HAL_Driver/Src/stm32c0xx_hal_exti.c **** 
 251:Drivers/STM32C0xx_HAL_Driver/Src/stm32c0xx_hal_exti.c **** 
 252:Drivers/STM32C0xx_HAL_Driver/Src/stm32c0xx_hal_exti.c **** /**
 253:Drivers/STM32C0xx_HAL_Driver/Src/stm32c0xx_hal_exti.c ****   * @brief  Get configuration of a dedicated Exti line.
 254:Drivers/STM32C0xx_HAL_Driver/Src/stm32c0xx_hal_exti.c ****   * @param  hexti Exti handle.
 255:Drivers/STM32C0xx_HAL_Driver/Src/stm32c0xx_hal_exti.c ****   * @param  pExtiConfig Pointer on structure to store Exti configuration.
 256:Drivers/STM32C0xx_HAL_Driver/Src/stm32c0xx_hal_exti.c ****   * @retval HAL Status.
 257:Drivers/STM32C0xx_HAL_Driver/Src/stm32c0xx_hal_exti.c ****   */
 258:Drivers/STM32C0xx_HAL_Driver/Src/stm32c0xx_hal_exti.c **** HAL_StatusTypeDef HAL_EXTI_GetConfigLine(EXTI_HandleTypeDef *hexti, EXTI_ConfigTypeDef *pExtiConfig
 259:Drivers/STM32C0xx_HAL_Driver/Src/stm32c0xx_hal_exti.c **** {
 327              		.loc 1 259 1 is_stmt 1 view -0
 328              		.cfi_startproc
 329              		@ args = 0, pretend = 0, frame = 0
 330              		@ frame_needed = 0, uses_anonymous_args = 0
 331              		.loc 1 259 1 is_stmt 0 view .LVU116
 332 0000 70B5     		push	{r4, r5, r6, lr}
 333              		.cfi_def_cfa_offset 16
 334              		.cfi_offset 4, -16
 335              		.cfi_offset 5, -12
 336              		.cfi_offset 6, -8
 337              		.cfi_offset 14, -4
 260:Drivers/STM32C0xx_HAL_Driver/Src/stm32c0xx_hal_exti.c ****   __IO uint32_t *regaddr;
ARM GAS  C:\Users\xhex8\AppData\Local\Temp\ccVZjTbA.s 			page 12


 338              		.loc 1 260 3 is_stmt 1 view .LVU117
 261:Drivers/STM32C0xx_HAL_Driver/Src/stm32c0xx_hal_exti.c ****   uint32_t regval;
 339              		.loc 1 261 3 view .LVU118
 262:Drivers/STM32C0xx_HAL_Driver/Src/stm32c0xx_hal_exti.c ****   uint32_t linepos;
 340              		.loc 1 262 3 view .LVU119
 263:Drivers/STM32C0xx_HAL_Driver/Src/stm32c0xx_hal_exti.c ****   uint32_t maskline;
 341              		.loc 1 263 3 view .LVU120
 264:Drivers/STM32C0xx_HAL_Driver/Src/stm32c0xx_hal_exti.c ****   uint32_t offset;
 342              		.loc 1 264 3 view .LVU121
 265:Drivers/STM32C0xx_HAL_Driver/Src/stm32c0xx_hal_exti.c **** 
 266:Drivers/STM32C0xx_HAL_Driver/Src/stm32c0xx_hal_exti.c ****   /* Check null pointer */
 267:Drivers/STM32C0xx_HAL_Driver/Src/stm32c0xx_hal_exti.c ****   if ((hexti == NULL) || (pExtiConfig == NULL))
 343              		.loc 1 267 3 view .LVU122
 344              		.loc 1 267 6 is_stmt 0 view .LVU123
 345 0002 0028     		cmp	r0, #0
 346 0004 4DD0     		beq	.L25
 347              		.loc 1 267 23 discriminator 1 view .LVU124
 348 0006 0029     		cmp	r1, #0
 349 0008 4DD0     		beq	.L26
 268:Drivers/STM32C0xx_HAL_Driver/Src/stm32c0xx_hal_exti.c ****   {
 269:Drivers/STM32C0xx_HAL_Driver/Src/stm32c0xx_hal_exti.c ****     return HAL_ERROR;
 270:Drivers/STM32C0xx_HAL_Driver/Src/stm32c0xx_hal_exti.c ****   }
 271:Drivers/STM32C0xx_HAL_Driver/Src/stm32c0xx_hal_exti.c **** 
 272:Drivers/STM32C0xx_HAL_Driver/Src/stm32c0xx_hal_exti.c ****   /* Check the parameter */
 273:Drivers/STM32C0xx_HAL_Driver/Src/stm32c0xx_hal_exti.c ****   assert_param(IS_EXTI_LINE(hexti->Line));
 350              		.loc 1 273 3 is_stmt 1 view .LVU125
 274:Drivers/STM32C0xx_HAL_Driver/Src/stm32c0xx_hal_exti.c **** 
 275:Drivers/STM32C0xx_HAL_Driver/Src/stm32c0xx_hal_exti.c ****   /* Store handle line number to configiguration structure */
 276:Drivers/STM32C0xx_HAL_Driver/Src/stm32c0xx_hal_exti.c ****   pExtiConfig->Line = hexti->Line;
 351              		.loc 1 276 3 view .LVU126
 352              		.loc 1 276 28 is_stmt 0 view .LVU127
 353 000a 0468     		ldr	r4, [r0]
 354              		.loc 1 276 21 view .LVU128
 355 000c 0C60     		str	r4, [r1]
 277:Drivers/STM32C0xx_HAL_Driver/Src/stm32c0xx_hal_exti.c **** 
 278:Drivers/STM32C0xx_HAL_Driver/Src/stm32c0xx_hal_exti.c ****   /* compute line register offset and line mask */
 279:Drivers/STM32C0xx_HAL_Driver/Src/stm32c0xx_hal_exti.c ****   offset = ((pExtiConfig->Line & EXTI_REG_MASK) >> EXTI_REG_SHIFT);
 356              		.loc 1 279 3 is_stmt 1 view .LVU129
 357              		.loc 1 279 49 is_stmt 0 view .LVU130
 358 000e 220C     		lsrs	r2, r4, #16
 359              		.loc 1 279 10 view .LVU131
 360 0010 0123     		movs	r3, #1
 361 0012 1A40     		ands	r2, r3
 362              	.LVL45:
 280:Drivers/STM32C0xx_HAL_Driver/Src/stm32c0xx_hal_exti.c ****   linepos = (pExtiConfig->Line & EXTI_PIN_MASK);
 363              		.loc 1 280 3 is_stmt 1 view .LVU132
 364              		.loc 1 280 11 is_stmt 0 view .LVU133
 365 0014 1F25     		movs	r5, #31
 366 0016 2540     		ands	r5, r4
 367              	.LVL46:
 281:Drivers/STM32C0xx_HAL_Driver/Src/stm32c0xx_hal_exti.c ****   maskline = (1UL << linepos);
 368              		.loc 1 281 3 is_stmt 1 view .LVU134
 369              		.loc 1 281 12 is_stmt 0 view .LVU135
 370 0018 AB40     		lsls	r3, r3, r5
 371              	.LVL47:
 282:Drivers/STM32C0xx_HAL_Driver/Src/stm32c0xx_hal_exti.c **** 
 283:Drivers/STM32C0xx_HAL_Driver/Src/stm32c0xx_hal_exti.c ****   /* 1] Get core mode : interrupt */
ARM GAS  C:\Users\xhex8\AppData\Local\Temp\ccVZjTbA.s 			page 13


 284:Drivers/STM32C0xx_HAL_Driver/Src/stm32c0xx_hal_exti.c ****   regaddr = (__IO uint32_t *)(&EXTI->IMR1 + (EXTI_MODE_OFFSET * offset));
 372              		.loc 1 284 3 is_stmt 1 view .LVU136
 373              		.loc 1 284 13 is_stmt 0 view .LVU137
 374 001a 1001     		lsls	r0, r2, #4
 375              	.LVL48:
 376              		.loc 1 284 11 view .LVU138
 377 001c 244E     		ldr	r6, .L30
 378 001e 8619     		adds	r6, r0, r6
 379              	.LVL49:
 285:Drivers/STM32C0xx_HAL_Driver/Src/stm32c0xx_hal_exti.c ****   regval = *regaddr;
 380              		.loc 1 285 3 is_stmt 1 view .LVU139
 381              		.loc 1 285 10 is_stmt 0 view .LVU140
 382 0020 3668     		ldr	r6, [r6]
 383              	.LVL50:
 286:Drivers/STM32C0xx_HAL_Driver/Src/stm32c0xx_hal_exti.c **** 
 287:Drivers/STM32C0xx_HAL_Driver/Src/stm32c0xx_hal_exti.c ****   /* Check if selected line is enable */
 288:Drivers/STM32C0xx_HAL_Driver/Src/stm32c0xx_hal_exti.c ****   if ((regval & maskline) != 0U)
 384              		.loc 1 288 3 is_stmt 1 view .LVU141
 385              		.loc 1 288 6 is_stmt 0 view .LVU142
 386 0022 1E42     		tst	r6, r3
 387 0024 2AD0     		beq	.L20
 289:Drivers/STM32C0xx_HAL_Driver/Src/stm32c0xx_hal_exti.c ****   {
 290:Drivers/STM32C0xx_HAL_Driver/Src/stm32c0xx_hal_exti.c ****     pExtiConfig->Mode = EXTI_MODE_INTERRUPT;
 388              		.loc 1 290 5 is_stmt 1 view .LVU143
 389              		.loc 1 290 23 is_stmt 0 view .LVU144
 390 0026 0126     		movs	r6, #1
 391              	.LVL51:
 392              		.loc 1 290 23 view .LVU145
 393 0028 4E60     		str	r6, [r1, #4]
 394              	.L21:
 291:Drivers/STM32C0xx_HAL_Driver/Src/stm32c0xx_hal_exti.c ****   }
 292:Drivers/STM32C0xx_HAL_Driver/Src/stm32c0xx_hal_exti.c ****   else
 293:Drivers/STM32C0xx_HAL_Driver/Src/stm32c0xx_hal_exti.c ****   {
 294:Drivers/STM32C0xx_HAL_Driver/Src/stm32c0xx_hal_exti.c ****     pExtiConfig->Mode = EXTI_MODE_NONE;
 295:Drivers/STM32C0xx_HAL_Driver/Src/stm32c0xx_hal_exti.c ****   }
 296:Drivers/STM32C0xx_HAL_Driver/Src/stm32c0xx_hal_exti.c **** 
 297:Drivers/STM32C0xx_HAL_Driver/Src/stm32c0xx_hal_exti.c ****   /* Get event mode */
 298:Drivers/STM32C0xx_HAL_Driver/Src/stm32c0xx_hal_exti.c ****   regaddr = (__IO uint32_t *)(&EXTI->EMR1 + (EXTI_MODE_OFFSET * offset));
 395              		.loc 1 298 3 is_stmt 1 view .LVU146
 396              		.loc 1 298 11 is_stmt 0 view .LVU147
 397 002a 224E     		ldr	r6, .L30+4
 398 002c B446     		mov	ip, r6
 399 002e 6044     		add	r0, r0, ip
 400              	.LVL52:
 299:Drivers/STM32C0xx_HAL_Driver/Src/stm32c0xx_hal_exti.c ****   regval = *regaddr;
 401              		.loc 1 299 3 is_stmt 1 view .LVU148
 402              		.loc 1 299 10 is_stmt 0 view .LVU149
 403 0030 0068     		ldr	r0, [r0]
 404              	.LVL53:
 300:Drivers/STM32C0xx_HAL_Driver/Src/stm32c0xx_hal_exti.c **** 
 301:Drivers/STM32C0xx_HAL_Driver/Src/stm32c0xx_hal_exti.c ****   /* Check if selected line is enable */
 302:Drivers/STM32C0xx_HAL_Driver/Src/stm32c0xx_hal_exti.c ****   if ((regval & maskline) != 0U)
 405              		.loc 1 302 3 is_stmt 1 view .LVU150
 406              		.loc 1 302 6 is_stmt 0 view .LVU151
 407 0032 1842     		tst	r0, r3
 408 0034 03D0     		beq	.L22
 303:Drivers/STM32C0xx_HAL_Driver/Src/stm32c0xx_hal_exti.c ****   {
ARM GAS  C:\Users\xhex8\AppData\Local\Temp\ccVZjTbA.s 			page 14


 304:Drivers/STM32C0xx_HAL_Driver/Src/stm32c0xx_hal_exti.c ****     pExtiConfig->Mode |= EXTI_MODE_EVENT;
 409              		.loc 1 304 5 is_stmt 1 view .LVU152
 410              		.loc 1 304 16 is_stmt 0 view .LVU153
 411 0036 4868     		ldr	r0, [r1, #4]
 412              	.LVL54:
 413              		.loc 1 304 23 view .LVU154
 414 0038 0226     		movs	r6, #2
 415              	.LVL55:
 416              		.loc 1 304 23 view .LVU155
 417 003a 3043     		orrs	r0, r6
 418 003c 4860     		str	r0, [r1, #4]
 419              	.L22:
 305:Drivers/STM32C0xx_HAL_Driver/Src/stm32c0xx_hal_exti.c ****   }
 306:Drivers/STM32C0xx_HAL_Driver/Src/stm32c0xx_hal_exti.c **** 
 307:Drivers/STM32C0xx_HAL_Driver/Src/stm32c0xx_hal_exti.c ****   /* 2] Get trigger for configurable lines : rising */
 308:Drivers/STM32C0xx_HAL_Driver/Src/stm32c0xx_hal_exti.c ****   if ((pExtiConfig->Line & EXTI_CONFIG) != 0U)
 420              		.loc 1 308 3 is_stmt 1 view .LVU156
 421              		.loc 1 308 6 is_stmt 0 view .LVU157
 422 003e A001     		lsls	r0, r4, #6
 423 0040 33D5     		bpl	.L27
 309:Drivers/STM32C0xx_HAL_Driver/Src/stm32c0xx_hal_exti.c ****   {
 310:Drivers/STM32C0xx_HAL_Driver/Src/stm32c0xx_hal_exti.c ****     regaddr = (__IO uint32_t *)(&EXTI->RTSR1 + (EXTI_CONFIG_OFFSET * offset));
 424              		.loc 1 310 5 is_stmt 1 view .LVU158
 425              		.loc 1 310 15 is_stmt 0 view .LVU159
 426 0042 5201     		lsls	r2, r2, #5
 427              	.LVL56:
 428              		.loc 1 310 13 view .LVU160
 429 0044 1C48     		ldr	r0, .L30+8
 430 0046 1018     		adds	r0, r2, r0
 431              	.LVL57:
 311:Drivers/STM32C0xx_HAL_Driver/Src/stm32c0xx_hal_exti.c ****     regval = *regaddr;
 432              		.loc 1 311 5 is_stmt 1 view .LVU161
 433              		.loc 1 311 12 is_stmt 0 view .LVU162
 434 0048 0668     		ldr	r6, [r0]
 435              	.LVL58:
 312:Drivers/STM32C0xx_HAL_Driver/Src/stm32c0xx_hal_exti.c **** 
 313:Drivers/STM32C0xx_HAL_Driver/Src/stm32c0xx_hal_exti.c ****     /* Get default Trigger and GPIOSel configuration */
 314:Drivers/STM32C0xx_HAL_Driver/Src/stm32c0xx_hal_exti.c ****     pExtiConfig->Trigger = EXTI_TRIGGER_NONE;
 436              		.loc 1 314 5 is_stmt 1 view .LVU163
 437              		.loc 1 314 26 is_stmt 0 view .LVU164
 438 004a 0020     		movs	r0, #0
 439              	.LVL59:
 440              		.loc 1 314 26 view .LVU165
 441 004c 8860     		str	r0, [r1, #8]
 315:Drivers/STM32C0xx_HAL_Driver/Src/stm32c0xx_hal_exti.c ****     pExtiConfig->GPIOSel = 0x00u;
 442              		.loc 1 315 5 is_stmt 1 view .LVU166
 443              		.loc 1 315 26 is_stmt 0 view .LVU167
 444 004e C860     		str	r0, [r1, #12]
 316:Drivers/STM32C0xx_HAL_Driver/Src/stm32c0xx_hal_exti.c **** 
 317:Drivers/STM32C0xx_HAL_Driver/Src/stm32c0xx_hal_exti.c ****     /* Check if configuration of selected line is enable */
 318:Drivers/STM32C0xx_HAL_Driver/Src/stm32c0xx_hal_exti.c ****     if ((regval & maskline) != 0U)
 445              		.loc 1 318 5 is_stmt 1 view .LVU168
 446              		.loc 1 318 8 is_stmt 0 view .LVU169
 447 0050 1E42     		tst	r6, r3
 448 0052 01D0     		beq	.L23
 319:Drivers/STM32C0xx_HAL_Driver/Src/stm32c0xx_hal_exti.c ****     {
 320:Drivers/STM32C0xx_HAL_Driver/Src/stm32c0xx_hal_exti.c ****       pExtiConfig->Trigger = EXTI_TRIGGER_RISING;
ARM GAS  C:\Users\xhex8\AppData\Local\Temp\ccVZjTbA.s 			page 15


 449              		.loc 1 320 7 is_stmt 1 view .LVU170
 450              		.loc 1 320 28 is_stmt 0 view .LVU171
 451 0054 0130     		adds	r0, r0, #1
 452 0056 8860     		str	r0, [r1, #8]
 453              	.L23:
 321:Drivers/STM32C0xx_HAL_Driver/Src/stm32c0xx_hal_exti.c ****     }
 322:Drivers/STM32C0xx_HAL_Driver/Src/stm32c0xx_hal_exti.c **** 
 323:Drivers/STM32C0xx_HAL_Driver/Src/stm32c0xx_hal_exti.c ****     /* Get falling configuration */
 324:Drivers/STM32C0xx_HAL_Driver/Src/stm32c0xx_hal_exti.c ****     regaddr = (__IO uint32_t *)(&EXTI->FTSR1 + (EXTI_CONFIG_OFFSET * offset));
 454              		.loc 1 324 5 is_stmt 1 view .LVU172
 455              		.loc 1 324 13 is_stmt 0 view .LVU173
 456 0058 1848     		ldr	r0, .L30+12
 457 005a 8446     		mov	ip, r0
 458 005c 6244     		add	r2, r2, ip
 459              	.LVL60:
 325:Drivers/STM32C0xx_HAL_Driver/Src/stm32c0xx_hal_exti.c ****     regval = *regaddr;
 460              		.loc 1 325 5 is_stmt 1 view .LVU174
 461              		.loc 1 325 12 is_stmt 0 view .LVU175
 462 005e 1268     		ldr	r2, [r2]
 463              	.LVL61:
 326:Drivers/STM32C0xx_HAL_Driver/Src/stm32c0xx_hal_exti.c **** 
 327:Drivers/STM32C0xx_HAL_Driver/Src/stm32c0xx_hal_exti.c ****     /* Check if configuration of selected line is enable */
 328:Drivers/STM32C0xx_HAL_Driver/Src/stm32c0xx_hal_exti.c ****     if ((regval & maskline) != 0U)
 464              		.loc 1 328 5 is_stmt 1 view .LVU176
 465              		.loc 1 328 8 is_stmt 0 view .LVU177
 466 0060 1A42     		tst	r2, r3
 467 0062 03D0     		beq	.L24
 329:Drivers/STM32C0xx_HAL_Driver/Src/stm32c0xx_hal_exti.c ****     {
 330:Drivers/STM32C0xx_HAL_Driver/Src/stm32c0xx_hal_exti.c ****       pExtiConfig->Trigger |= EXTI_TRIGGER_FALLING;
 468              		.loc 1 330 7 is_stmt 1 view .LVU178
 469              		.loc 1 330 18 is_stmt 0 view .LVU179
 470 0064 8B68     		ldr	r3, [r1, #8]
 471              	.LVL62:
 472              		.loc 1 330 28 view .LVU180
 473 0066 0222     		movs	r2, #2
 474              	.LVL63:
 475              		.loc 1 330 28 view .LVU181
 476 0068 1343     		orrs	r3, r2
 477 006a 8B60     		str	r3, [r1, #8]
 478              	.L24:
 331:Drivers/STM32C0xx_HAL_Driver/Src/stm32c0xx_hal_exti.c ****     }
 332:Drivers/STM32C0xx_HAL_Driver/Src/stm32c0xx_hal_exti.c **** 
 333:Drivers/STM32C0xx_HAL_Driver/Src/stm32c0xx_hal_exti.c ****     /* Get Gpio port selection for gpio lines */
 334:Drivers/STM32C0xx_HAL_Driver/Src/stm32c0xx_hal_exti.c ****     if ((pExtiConfig->Line & EXTI_GPIO) == EXTI_GPIO)
 479              		.loc 1 334 5 is_stmt 1 view .LVU182
 480              		.loc 1 334 28 is_stmt 0 view .LVU183
 481 006c C023     		movs	r3, #192
 482 006e DB04     		lsls	r3, r3, #19
 483 0070 2200     		movs	r2, r4
 484 0072 1A40     		ands	r2, r3
 485              		.loc 1 334 8 view .LVU184
 486 0074 9A42     		cmp	r2, r3
 487 0076 04D0     		beq	.L29
 335:Drivers/STM32C0xx_HAL_Driver/Src/stm32c0xx_hal_exti.c ****     {
 336:Drivers/STM32C0xx_HAL_Driver/Src/stm32c0xx_hal_exti.c ****       assert_param(IS_EXTI_GPIO_PIN(linepos));
 337:Drivers/STM32C0xx_HAL_Driver/Src/stm32c0xx_hal_exti.c **** 
 338:Drivers/STM32C0xx_HAL_Driver/Src/stm32c0xx_hal_exti.c ****       regval = EXTI->EXTICR[(linepos >> 2U) & 0x03UL];
ARM GAS  C:\Users\xhex8\AppData\Local\Temp\ccVZjTbA.s 			page 16


 339:Drivers/STM32C0xx_HAL_Driver/Src/stm32c0xx_hal_exti.c ****       pExtiConfig->GPIOSel = (regval >> (EXTI_EXTICR1_EXTI1_Pos * (linepos & 0x03u))) & EXTI_EXTICR
 340:Drivers/STM32C0xx_HAL_Driver/Src/stm32c0xx_hal_exti.c ****     }
 341:Drivers/STM32C0xx_HAL_Driver/Src/stm32c0xx_hal_exti.c ****   }
 342:Drivers/STM32C0xx_HAL_Driver/Src/stm32c0xx_hal_exti.c **** 
 343:Drivers/STM32C0xx_HAL_Driver/Src/stm32c0xx_hal_exti.c ****   return HAL_OK;
 488              		.loc 1 343 10 view .LVU185
 489 0078 0020     		movs	r0, #0
 490              	.LVL64:
 491              		.loc 1 343 10 view .LVU186
 492 007a 17E0     		b	.L19
 493              	.LVL65:
 494              	.L20:
 294:Drivers/STM32C0xx_HAL_Driver/Src/stm32c0xx_hal_exti.c ****   }
 495              		.loc 1 294 5 is_stmt 1 view .LVU187
 294:Drivers/STM32C0xx_HAL_Driver/Src/stm32c0xx_hal_exti.c ****   }
 496              		.loc 1 294 23 is_stmt 0 view .LVU188
 497 007c 0026     		movs	r6, #0
 498              	.LVL66:
 294:Drivers/STM32C0xx_HAL_Driver/Src/stm32c0xx_hal_exti.c ****   }
 499              		.loc 1 294 23 view .LVU189
 500 007e 4E60     		str	r6, [r1, #4]
 501 0080 D3E7     		b	.L21
 502              	.LVL67:
 503              	.L29:
 336:Drivers/STM32C0xx_HAL_Driver/Src/stm32c0xx_hal_exti.c **** 
 504              		.loc 1 336 7 is_stmt 1 view .LVU190
 338:Drivers/STM32C0xx_HAL_Driver/Src/stm32c0xx_hal_exti.c ****       pExtiConfig->GPIOSel = (regval >> (EXTI_EXTICR1_EXTI1_Pos * (linepos & 0x03u))) & EXTI_EXTICR
 505              		.loc 1 338 7 view .LVU191
 338:Drivers/STM32C0xx_HAL_Driver/Src/stm32c0xx_hal_exti.c ****       pExtiConfig->GPIOSel = (regval >> (EXTI_EXTICR1_EXTI1_Pos * (linepos & 0x03u))) & EXTI_EXTICR
 506              		.loc 1 338 38 is_stmt 0 view .LVU192
 507 0082 AB08     		lsrs	r3, r5, #2
 338:Drivers/STM32C0xx_HAL_Driver/Src/stm32c0xx_hal_exti.c ****       pExtiConfig->GPIOSel = (regval >> (EXTI_EXTICR1_EXTI1_Pos * (linepos & 0x03u))) & EXTI_EXTICR
 508              		.loc 1 338 45 view .LVU193
 509 0084 0322     		movs	r2, #3
 510 0086 1340     		ands	r3, r2
 338:Drivers/STM32C0xx_HAL_Driver/Src/stm32c0xx_hal_exti.c ****       pExtiConfig->GPIOSel = (regval >> (EXTI_EXTICR1_EXTI1_Pos * (linepos & 0x03u))) & EXTI_EXTICR
 511              		.loc 1 338 14 view .LVU194
 512 0088 1833     		adds	r3, r3, #24
 513 008a 9B00     		lsls	r3, r3, #2
 514 008c 0A48     		ldr	r0, .L30+8
 515              	.LVL68:
 338:Drivers/STM32C0xx_HAL_Driver/Src/stm32c0xx_hal_exti.c ****       pExtiConfig->GPIOSel = (regval >> (EXTI_EXTICR1_EXTI1_Pos * (linepos & 0x03u))) & EXTI_EXTICR
 516              		.loc 1 338 14 view .LVU195
 517 008e 1B58     		ldr	r3, [r3, r0]
 518              	.LVL69:
 339:Drivers/STM32C0xx_HAL_Driver/Src/stm32c0xx_hal_exti.c ****     }
 519              		.loc 1 339 7 is_stmt 1 view .LVU196
 339:Drivers/STM32C0xx_HAL_Driver/Src/stm32c0xx_hal_exti.c ****     }
 520              		.loc 1 339 76 is_stmt 0 view .LVU197
 521 0090 2240     		ands	r2, r4
 339:Drivers/STM32C0xx_HAL_Driver/Src/stm32c0xx_hal_exti.c ****     }
 522              		.loc 1 339 65 view .LVU198
 523 0092 D200     		lsls	r2, r2, #3
 339:Drivers/STM32C0xx_HAL_Driver/Src/stm32c0xx_hal_exti.c ****     }
 524              		.loc 1 339 38 view .LVU199
 525 0094 D340     		lsrs	r3, r3, r2
 526              	.LVL70:
ARM GAS  C:\Users\xhex8\AppData\Local\Temp\ccVZjTbA.s 			page 17


 339:Drivers/STM32C0xx_HAL_Driver/Src/stm32c0xx_hal_exti.c ****     }
 527              		.loc 1 339 38 view .LVU200
 528 0096 1A00     		movs	r2, r3
 339:Drivers/STM32C0xx_HAL_Driver/Src/stm32c0xx_hal_exti.c ****     }
 529              		.loc 1 339 87 view .LVU201
 530 0098 0723     		movs	r3, #7
 531 009a 1340     		ands	r3, r2
 339:Drivers/STM32C0xx_HAL_Driver/Src/stm32c0xx_hal_exti.c ****     }
 532              		.loc 1 339 28 view .LVU202
 533 009c CB60     		str	r3, [r1, #12]
 534              		.loc 1 343 10 view .LVU203
 535 009e 0020     		movs	r0, #0
 536 00a0 04E0     		b	.L19
 537              	.LVL71:
 538              	.L25:
 269:Drivers/STM32C0xx_HAL_Driver/Src/stm32c0xx_hal_exti.c ****   }
 539              		.loc 1 269 12 view .LVU204
 540 00a2 0120     		movs	r0, #1
 541              	.LVL72:
 269:Drivers/STM32C0xx_HAL_Driver/Src/stm32c0xx_hal_exti.c ****   }
 542              		.loc 1 269 12 view .LVU205
 543 00a4 02E0     		b	.L19
 544              	.LVL73:
 545              	.L26:
 269:Drivers/STM32C0xx_HAL_Driver/Src/stm32c0xx_hal_exti.c ****   }
 546              		.loc 1 269 12 view .LVU206
 547 00a6 0120     		movs	r0, #1
 548              	.LVL74:
 269:Drivers/STM32C0xx_HAL_Driver/Src/stm32c0xx_hal_exti.c ****   }
 549              		.loc 1 269 12 view .LVU207
 550 00a8 00E0     		b	.L19
 551              	.LVL75:
 552              	.L27:
 553              		.loc 1 343 10 view .LVU208
 554 00aa 0020     		movs	r0, #0
 555              	.LVL76:
 556              	.L19:
 344:Drivers/STM32C0xx_HAL_Driver/Src/stm32c0xx_hal_exti.c **** }
 557              		.loc 1 344 1 view .LVU209
 558              		@ sp needed
 559 00ac 70BD     		pop	{r4, r5, r6, pc}
 560              	.L31:
 561 00ae C046     		.align	2
 562              	.L30:
 563 00b0 80180240 		.word	1073879168
 564 00b4 84180240 		.word	1073879172
 565 00b8 00180240 		.word	1073879040
 566 00bc 04180240 		.word	1073879044
 567              		.cfi_endproc
 568              	.LFE215:
 570              		.section	.text.HAL_EXTI_ClearConfigLine,"ax",%progbits
 571              		.align	1
 572              		.global	HAL_EXTI_ClearConfigLine
 573              		.syntax unified
 574              		.code	16
 575              		.thumb_func
 577              	HAL_EXTI_ClearConfigLine:
ARM GAS  C:\Users\xhex8\AppData\Local\Temp\ccVZjTbA.s 			page 18


 578              	.LVL77:
 579              	.LFB216:
 345:Drivers/STM32C0xx_HAL_Driver/Src/stm32c0xx_hal_exti.c **** 
 346:Drivers/STM32C0xx_HAL_Driver/Src/stm32c0xx_hal_exti.c **** 
 347:Drivers/STM32C0xx_HAL_Driver/Src/stm32c0xx_hal_exti.c **** /**
 348:Drivers/STM32C0xx_HAL_Driver/Src/stm32c0xx_hal_exti.c ****   * @brief  Clear whole configuration of a dedicated Exti line.
 349:Drivers/STM32C0xx_HAL_Driver/Src/stm32c0xx_hal_exti.c ****   * @param  hexti Exti handle.
 350:Drivers/STM32C0xx_HAL_Driver/Src/stm32c0xx_hal_exti.c ****   * @retval HAL Status.
 351:Drivers/STM32C0xx_HAL_Driver/Src/stm32c0xx_hal_exti.c ****   */
 352:Drivers/STM32C0xx_HAL_Driver/Src/stm32c0xx_hal_exti.c **** HAL_StatusTypeDef HAL_EXTI_ClearConfigLine(const EXTI_HandleTypeDef *hexti)
 353:Drivers/STM32C0xx_HAL_Driver/Src/stm32c0xx_hal_exti.c **** {
 580              		.loc 1 353 1 is_stmt 1 view -0
 581              		.cfi_startproc
 582              		@ args = 0, pretend = 0, frame = 0
 583              		@ frame_needed = 0, uses_anonymous_args = 0
 584              		.loc 1 353 1 is_stmt 0 view .LVU211
 585 0000 F0B5     		push	{r4, r5, r6, r7, lr}
 586              		.cfi_def_cfa_offset 20
 587              		.cfi_offset 4, -20
 588              		.cfi_offset 5, -16
 589              		.cfi_offset 6, -12
 590              		.cfi_offset 7, -8
 591              		.cfi_offset 14, -4
 592 0002 C646     		mov	lr, r8
 593 0004 00B5     		push	{lr}
 594              		.cfi_def_cfa_offset 24
 595              		.cfi_offset 8, -24
 354:Drivers/STM32C0xx_HAL_Driver/Src/stm32c0xx_hal_exti.c ****   __IO uint32_t *regaddr;
 596              		.loc 1 354 3 is_stmt 1 view .LVU212
 355:Drivers/STM32C0xx_HAL_Driver/Src/stm32c0xx_hal_exti.c ****   uint32_t regval;
 597              		.loc 1 355 3 view .LVU213
 356:Drivers/STM32C0xx_HAL_Driver/Src/stm32c0xx_hal_exti.c ****   uint32_t linepos;
 598              		.loc 1 356 3 view .LVU214
 357:Drivers/STM32C0xx_HAL_Driver/Src/stm32c0xx_hal_exti.c ****   uint32_t maskline;
 599              		.loc 1 357 3 view .LVU215
 358:Drivers/STM32C0xx_HAL_Driver/Src/stm32c0xx_hal_exti.c ****   uint32_t offset;
 600              		.loc 1 358 3 view .LVU216
 359:Drivers/STM32C0xx_HAL_Driver/Src/stm32c0xx_hal_exti.c **** 
 360:Drivers/STM32C0xx_HAL_Driver/Src/stm32c0xx_hal_exti.c ****   /* Check null pointer */
 361:Drivers/STM32C0xx_HAL_Driver/Src/stm32c0xx_hal_exti.c ****   if (hexti == NULL)
 601              		.loc 1 361 3 view .LVU217
 602              		.loc 1 361 6 is_stmt 0 view .LVU218
 603 0006 0028     		cmp	r0, #0
 604 0008 3ED0     		beq	.L34
 362:Drivers/STM32C0xx_HAL_Driver/Src/stm32c0xx_hal_exti.c ****   {
 363:Drivers/STM32C0xx_HAL_Driver/Src/stm32c0xx_hal_exti.c ****     return HAL_ERROR;
 364:Drivers/STM32C0xx_HAL_Driver/Src/stm32c0xx_hal_exti.c ****   }
 365:Drivers/STM32C0xx_HAL_Driver/Src/stm32c0xx_hal_exti.c **** 
 366:Drivers/STM32C0xx_HAL_Driver/Src/stm32c0xx_hal_exti.c ****   /* Check the parameter */
 367:Drivers/STM32C0xx_HAL_Driver/Src/stm32c0xx_hal_exti.c ****   assert_param(IS_EXTI_LINE(hexti->Line));
 605              		.loc 1 367 3 is_stmt 1 view .LVU219
 368:Drivers/STM32C0xx_HAL_Driver/Src/stm32c0xx_hal_exti.c **** 
 369:Drivers/STM32C0xx_HAL_Driver/Src/stm32c0xx_hal_exti.c ****   /* compute line register offset and line mask */
 370:Drivers/STM32C0xx_HAL_Driver/Src/stm32c0xx_hal_exti.c ****   offset = ((hexti->Line & EXTI_REG_MASK) >> EXTI_REG_SHIFT);
 606              		.loc 1 370 3 view .LVU220
 607              		.loc 1 370 19 is_stmt 0 view .LVU221
 608 000a 0668     		ldr	r6, [r0]
ARM GAS  C:\Users\xhex8\AppData\Local\Temp\ccVZjTbA.s 			page 19


 609              		.loc 1 370 43 view .LVU222
 610 000c 330C     		lsrs	r3, r6, #16
 611              		.loc 1 370 10 view .LVU223
 612 000e 0122     		movs	r2, #1
 613 0010 1340     		ands	r3, r2
 614              	.LVL78:
 371:Drivers/STM32C0xx_HAL_Driver/Src/stm32c0xx_hal_exti.c ****   linepos = (hexti->Line & EXTI_PIN_MASK);
 615              		.loc 1 371 3 is_stmt 1 view .LVU224
 616              		.loc 1 371 11 is_stmt 0 view .LVU225
 617 0012 1F24     		movs	r4, #31
 618 0014 3440     		ands	r4, r6
 619              	.LVL79:
 372:Drivers/STM32C0xx_HAL_Driver/Src/stm32c0xx_hal_exti.c ****   maskline = (1UL << linepos);
 620              		.loc 1 372 3 is_stmt 1 view .LVU226
 621              		.loc 1 372 12 is_stmt 0 view .LVU227
 622 0016 A240     		lsls	r2, r2, r4
 623              	.LVL80:
 373:Drivers/STM32C0xx_HAL_Driver/Src/stm32c0xx_hal_exti.c **** 
 374:Drivers/STM32C0xx_HAL_Driver/Src/stm32c0xx_hal_exti.c ****   /* 1] Clear interrupt mode */
 375:Drivers/STM32C0xx_HAL_Driver/Src/stm32c0xx_hal_exti.c ****   regaddr = (__IO uint32_t *)(&EXTI->IMR1 + (EXTI_MODE_OFFSET * offset));
 624              		.loc 1 375 3 is_stmt 1 view .LVU228
 625              		.loc 1 375 13 is_stmt 0 view .LVU229
 626 0018 1901     		lsls	r1, r3, #4
 627              		.loc 1 375 11 view .LVU230
 628 001a 1E4D     		ldr	r5, .L38
 629 001c AC46     		mov	ip, r5
 630 001e 8C44     		add	ip, ip, r1
 631              	.LVL81:
 376:Drivers/STM32C0xx_HAL_Driver/Src/stm32c0xx_hal_exti.c ****   regval = (*regaddr & ~maskline);
 632              		.loc 1 376 3 is_stmt 1 view .LVU231
 633              		.loc 1 376 13 is_stmt 0 view .LVU232
 634 0020 6546     		mov	r5, ip
 635 0022 2D68     		ldr	r5, [r5]
 636              		.loc 1 376 24 view .LVU233
 637 0024 D743     		mvns	r7, r2
 638 0026 B846     		mov	r8, r7
 639              		.loc 1 376 10 view .LVU234
 640 0028 9543     		bics	r5, r2
 641              	.LVL82:
 377:Drivers/STM32C0xx_HAL_Driver/Src/stm32c0xx_hal_exti.c ****   *regaddr = regval;
 642              		.loc 1 377 3 is_stmt 1 view .LVU235
 643              		.loc 1 377 12 is_stmt 0 view .LVU236
 644 002a 6746     		mov	r7, ip
 645 002c 3D60     		str	r5, [r7]
 378:Drivers/STM32C0xx_HAL_Driver/Src/stm32c0xx_hal_exti.c **** 
 379:Drivers/STM32C0xx_HAL_Driver/Src/stm32c0xx_hal_exti.c ****   /* 2] Clear event mode */
 380:Drivers/STM32C0xx_HAL_Driver/Src/stm32c0xx_hal_exti.c ****   regaddr = (__IO uint32_t *)(&EXTI->EMR1 + (EXTI_MODE_OFFSET * offset));
 646              		.loc 1 380 3 is_stmt 1 view .LVU237
 647              		.loc 1 380 11 is_stmt 0 view .LVU238
 648 002e 1A4D     		ldr	r5, .L38+4
 649              	.LVL83:
 650              		.loc 1 380 11 view .LVU239
 651 0030 AC46     		mov	ip, r5
 652              	.LVL84:
 653              		.loc 1 380 11 view .LVU240
 654 0032 6144     		add	r1, r1, ip
 655              	.LVL85:
ARM GAS  C:\Users\xhex8\AppData\Local\Temp\ccVZjTbA.s 			page 20


 381:Drivers/STM32C0xx_HAL_Driver/Src/stm32c0xx_hal_exti.c ****   regval = (*regaddr & ~maskline);
 656              		.loc 1 381 3 is_stmt 1 view .LVU241
 657              		.loc 1 381 13 is_stmt 0 view .LVU242
 658 0034 0D68     		ldr	r5, [r1]
 659              		.loc 1 381 10 view .LVU243
 660 0036 9543     		bics	r5, r2
 661              	.LVL86:
 382:Drivers/STM32C0xx_HAL_Driver/Src/stm32c0xx_hal_exti.c ****   *regaddr = regval;
 662              		.loc 1 382 3 is_stmt 1 view .LVU244
 663              		.loc 1 382 12 is_stmt 0 view .LVU245
 664 0038 0D60     		str	r5, [r1]
 383:Drivers/STM32C0xx_HAL_Driver/Src/stm32c0xx_hal_exti.c **** 
 384:Drivers/STM32C0xx_HAL_Driver/Src/stm32c0xx_hal_exti.c ****   /* 3] Clear triggers in case of configurable lines */
 385:Drivers/STM32C0xx_HAL_Driver/Src/stm32c0xx_hal_exti.c ****   if ((hexti->Line & EXTI_CONFIG) != 0U)
 665              		.loc 1 385 3 is_stmt 1 view .LVU246
 666              		.loc 1 385 13 is_stmt 0 view .LVU247
 667 003a 0268     		ldr	r2, [r0]
 668              	.LVL87:
 669              		.loc 1 385 6 view .LVU248
 670 003c 9201     		lsls	r2, r2, #6
 671 003e 25D5     		bpl	.L35
 386:Drivers/STM32C0xx_HAL_Driver/Src/stm32c0xx_hal_exti.c ****   {
 387:Drivers/STM32C0xx_HAL_Driver/Src/stm32c0xx_hal_exti.c ****     regaddr = (__IO uint32_t *)(&EXTI->RTSR1 + (EXTI_CONFIG_OFFSET * offset));
 672              		.loc 1 387 5 is_stmt 1 view .LVU249
 673              		.loc 1 387 15 is_stmt 0 view .LVU250
 674 0040 5B01     		lsls	r3, r3, #5
 675              	.LVL88:
 676              		.loc 1 387 13 view .LVU251
 677 0042 164A     		ldr	r2, .L38+8
 678 0044 9918     		adds	r1, r3, r2
 679              	.LVL89:
 388:Drivers/STM32C0xx_HAL_Driver/Src/stm32c0xx_hal_exti.c ****     regval = (*regaddr & ~maskline);
 680              		.loc 1 388 5 is_stmt 1 view .LVU252
 681              		.loc 1 388 15 is_stmt 0 view .LVU253
 682 0046 0A68     		ldr	r2, [r1]
 683              		.loc 1 388 12 view .LVU254
 684 0048 4546     		mov	r5, r8
 685              	.LVL90:
 686              		.loc 1 388 12 view .LVU255
 687 004a 2A40     		ands	r2, r5
 688              	.LVL91:
 389:Drivers/STM32C0xx_HAL_Driver/Src/stm32c0xx_hal_exti.c ****     *regaddr = regval;
 689              		.loc 1 389 5 is_stmt 1 view .LVU256
 690              		.loc 1 389 14 is_stmt 0 view .LVU257
 691 004c 0A60     		str	r2, [r1]
 390:Drivers/STM32C0xx_HAL_Driver/Src/stm32c0xx_hal_exti.c **** 
 391:Drivers/STM32C0xx_HAL_Driver/Src/stm32c0xx_hal_exti.c ****     regaddr = (__IO uint32_t *)(&EXTI->FTSR1 + (EXTI_CONFIG_OFFSET * offset));
 692              		.loc 1 391 5 is_stmt 1 view .LVU258
 693              		.loc 1 391 13 is_stmt 0 view .LVU259
 694 004e 144A     		ldr	r2, .L38+12
 695              	.LVL92:
 696              		.loc 1 391 13 view .LVU260
 697 0050 9446     		mov	ip, r2
 698 0052 6344     		add	r3, r3, ip
 699              	.LVL93:
 392:Drivers/STM32C0xx_HAL_Driver/Src/stm32c0xx_hal_exti.c ****     regval = (*regaddr & ~maskline);
 700              		.loc 1 392 5 is_stmt 1 view .LVU261
ARM GAS  C:\Users\xhex8\AppData\Local\Temp\ccVZjTbA.s 			page 21


 701              		.loc 1 392 15 is_stmt 0 view .LVU262
 702 0054 1A68     		ldr	r2, [r3]
 703              		.loc 1 392 12 view .LVU263
 704 0056 2A40     		ands	r2, r5
 705              	.LVL94:
 393:Drivers/STM32C0xx_HAL_Driver/Src/stm32c0xx_hal_exti.c ****     *regaddr = regval;
 706              		.loc 1 393 5 is_stmt 1 view .LVU264
 707              		.loc 1 393 14 is_stmt 0 view .LVU265
 708 0058 1A60     		str	r2, [r3]
 394:Drivers/STM32C0xx_HAL_Driver/Src/stm32c0xx_hal_exti.c **** 
 395:Drivers/STM32C0xx_HAL_Driver/Src/stm32c0xx_hal_exti.c ****     /* Get Gpio port selection for gpio lines */
 396:Drivers/STM32C0xx_HAL_Driver/Src/stm32c0xx_hal_exti.c ****     if ((hexti->Line & EXTI_GPIO) == EXTI_GPIO)
 709              		.loc 1 396 5 is_stmt 1 view .LVU266
 710              		.loc 1 396 15 is_stmt 0 view .LVU267
 711 005a 0368     		ldr	r3, [r0]
 712              	.LVL95:
 713              		.loc 1 396 22 view .LVU268
 714 005c C022     		movs	r2, #192
 715              	.LVL96:
 716              		.loc 1 396 22 view .LVU269
 717 005e D204     		lsls	r2, r2, #19
 718 0060 1340     		ands	r3, r2
 719              		.loc 1 396 8 view .LVU270
 720 0062 9342     		cmp	r3, r2
 721 0064 01D0     		beq	.L37
 397:Drivers/STM32C0xx_HAL_Driver/Src/stm32c0xx_hal_exti.c ****     {
 398:Drivers/STM32C0xx_HAL_Driver/Src/stm32c0xx_hal_exti.c ****       assert_param(IS_EXTI_GPIO_PIN(linepos));
 399:Drivers/STM32C0xx_HAL_Driver/Src/stm32c0xx_hal_exti.c **** 
 400:Drivers/STM32C0xx_HAL_Driver/Src/stm32c0xx_hal_exti.c ****       regval = EXTI->EXTICR[(linepos >> 2U) & 0x03UL];
 401:Drivers/STM32C0xx_HAL_Driver/Src/stm32c0xx_hal_exti.c ****       regval &= ~(EXTI_EXTICR1_EXTI0 << (EXTI_EXTICR1_EXTI1_Pos * (linepos & 0x03U)));
 402:Drivers/STM32C0xx_HAL_Driver/Src/stm32c0xx_hal_exti.c ****       EXTI->EXTICR[(linepos >> 2U) & 0x03UL] = regval;
 403:Drivers/STM32C0xx_HAL_Driver/Src/stm32c0xx_hal_exti.c ****     }
 404:Drivers/STM32C0xx_HAL_Driver/Src/stm32c0xx_hal_exti.c ****   }
 405:Drivers/STM32C0xx_HAL_Driver/Src/stm32c0xx_hal_exti.c **** 
 406:Drivers/STM32C0xx_HAL_Driver/Src/stm32c0xx_hal_exti.c ****   return HAL_OK;
 722              		.loc 1 406 10 view .LVU271
 723 0066 0020     		movs	r0, #0
 724              	.LVL97:
 725              		.loc 1 406 10 view .LVU272
 726 0068 11E0     		b	.L33
 727              	.LVL98:
 728              	.L37:
 398:Drivers/STM32C0xx_HAL_Driver/Src/stm32c0xx_hal_exti.c **** 
 729              		.loc 1 398 7 is_stmt 1 view .LVU273
 400:Drivers/STM32C0xx_HAL_Driver/Src/stm32c0xx_hal_exti.c ****       regval &= ~(EXTI_EXTICR1_EXTI0 << (EXTI_EXTICR1_EXTI1_Pos * (linepos & 0x03U)));
 730              		.loc 1 400 7 view .LVU274
 400:Drivers/STM32C0xx_HAL_Driver/Src/stm32c0xx_hal_exti.c ****       regval &= ~(EXTI_EXTICR1_EXTI0 << (EXTI_EXTICR1_EXTI1_Pos * (linepos & 0x03U)));
 731              		.loc 1 400 38 is_stmt 0 view .LVU275
 732 006a A408     		lsrs	r4, r4, #2
 733              	.LVL99:
 400:Drivers/STM32C0xx_HAL_Driver/Src/stm32c0xx_hal_exti.c ****       regval &= ~(EXTI_EXTICR1_EXTI0 << (EXTI_EXTICR1_EXTI1_Pos * (linepos & 0x03U)));
 734              		.loc 1 400 45 view .LVU276
 735 006c 0323     		movs	r3, #3
 736 006e 1C40     		ands	r4, r3
 400:Drivers/STM32C0xx_HAL_Driver/Src/stm32c0xx_hal_exti.c ****       regval &= ~(EXTI_EXTICR1_EXTI0 << (EXTI_EXTICR1_EXTI1_Pos * (linepos & 0x03U)));
 737              		.loc 1 400 14 view .LVU277
 738 0070 0A48     		ldr	r0, .L38+8
ARM GAS  C:\Users\xhex8\AppData\Local\Temp\ccVZjTbA.s 			page 22


 739              	.LVL100:
 400:Drivers/STM32C0xx_HAL_Driver/Src/stm32c0xx_hal_exti.c ****       regval &= ~(EXTI_EXTICR1_EXTI0 << (EXTI_EXTICR1_EXTI1_Pos * (linepos & 0x03U)));
 740              		.loc 1 400 14 view .LVU278
 741 0072 1834     		adds	r4, r4, #24
 742 0074 A400     		lsls	r4, r4, #2
 743 0076 2258     		ldr	r2, [r4, r0]
 744              	.LVL101:
 401:Drivers/STM32C0xx_HAL_Driver/Src/stm32c0xx_hal_exti.c ****       EXTI->EXTICR[(linepos >> 2U) & 0x03UL] = regval;
 745              		.loc 1 401 7 is_stmt 1 view .LVU279
 401:Drivers/STM32C0xx_HAL_Driver/Src/stm32c0xx_hal_exti.c ****       EXTI->EXTICR[(linepos >> 2U) & 0x03UL] = regval;
 746              		.loc 1 401 76 is_stmt 0 view .LVU280
 747 0078 3340     		ands	r3, r6
 401:Drivers/STM32C0xx_HAL_Driver/Src/stm32c0xx_hal_exti.c ****       EXTI->EXTICR[(linepos >> 2U) & 0x03UL] = regval;
 748              		.loc 1 401 65 view .LVU281
 749 007a DB00     		lsls	r3, r3, #3
 401:Drivers/STM32C0xx_HAL_Driver/Src/stm32c0xx_hal_exti.c ****       EXTI->EXTICR[(linepos >> 2U) & 0x03UL] = regval;
 750              		.loc 1 401 38 view .LVU282
 751 007c 0721     		movs	r1, #7
 752              	.LVL102:
 401:Drivers/STM32C0xx_HAL_Driver/Src/stm32c0xx_hal_exti.c ****       EXTI->EXTICR[(linepos >> 2U) & 0x03UL] = regval;
 753              		.loc 1 401 38 view .LVU283
 754 007e 9940     		lsls	r1, r1, r3
 401:Drivers/STM32C0xx_HAL_Driver/Src/stm32c0xx_hal_exti.c ****       EXTI->EXTICR[(linepos >> 2U) & 0x03UL] = regval;
 755              		.loc 1 401 14 view .LVU284
 756 0080 8A43     		bics	r2, r1
 757              	.LVL103:
 402:Drivers/STM32C0xx_HAL_Driver/Src/stm32c0xx_hal_exti.c ****     }
 758              		.loc 1 402 7 is_stmt 1 view .LVU285
 402:Drivers/STM32C0xx_HAL_Driver/Src/stm32c0xx_hal_exti.c ****     }
 759              		.loc 1 402 46 is_stmt 0 view .LVU286
 760 0082 2250     		str	r2, [r4, r0]
 761              		.loc 1 406 10 view .LVU287
 762 0084 0020     		movs	r0, #0
 763 0086 02E0     		b	.L33
 764              	.LVL104:
 765              	.L34:
 363:Drivers/STM32C0xx_HAL_Driver/Src/stm32c0xx_hal_exti.c ****   }
 766              		.loc 1 363 12 view .LVU288
 767 0088 0120     		movs	r0, #1
 768              	.LVL105:
 363:Drivers/STM32C0xx_HAL_Driver/Src/stm32c0xx_hal_exti.c ****   }
 769              		.loc 1 363 12 view .LVU289
 770 008a 00E0     		b	.L33
 771              	.LVL106:
 772              	.L35:
 773              		.loc 1 406 10 view .LVU290
 774 008c 0020     		movs	r0, #0
 775              	.LVL107:
 776              	.L33:
 407:Drivers/STM32C0xx_HAL_Driver/Src/stm32c0xx_hal_exti.c **** }
 777              		.loc 1 407 1 view .LVU291
 778              		@ sp needed
 779 008e 80BC     		pop	{r7}
 780 0090 B846     		mov	r8, r7
 781 0092 F0BD     		pop	{r4, r5, r6, r7, pc}
 782              	.L39:
 783              		.align	2
ARM GAS  C:\Users\xhex8\AppData\Local\Temp\ccVZjTbA.s 			page 23


 784              	.L38:
 785 0094 80180240 		.word	1073879168
 786 0098 84180240 		.word	1073879172
 787 009c 00180240 		.word	1073879040
 788 00a0 04180240 		.word	1073879044
 789              		.cfi_endproc
 790              	.LFE216:
 792              		.section	.text.HAL_EXTI_RegisterCallback,"ax",%progbits
 793              		.align	1
 794              		.global	HAL_EXTI_RegisterCallback
 795              		.syntax unified
 796              		.code	16
 797              		.thumb_func
 799              	HAL_EXTI_RegisterCallback:
 800              	.LVL108:
 801              	.LFB217:
 408:Drivers/STM32C0xx_HAL_Driver/Src/stm32c0xx_hal_exti.c **** 
 409:Drivers/STM32C0xx_HAL_Driver/Src/stm32c0xx_hal_exti.c **** 
 410:Drivers/STM32C0xx_HAL_Driver/Src/stm32c0xx_hal_exti.c **** /**
 411:Drivers/STM32C0xx_HAL_Driver/Src/stm32c0xx_hal_exti.c ****   * @brief  Register callback for a dedicaated Exti line.
 412:Drivers/STM32C0xx_HAL_Driver/Src/stm32c0xx_hal_exti.c ****   * @param  hexti Exti handle.
 413:Drivers/STM32C0xx_HAL_Driver/Src/stm32c0xx_hal_exti.c ****   * @param  CallbackID User callback identifier.
 414:Drivers/STM32C0xx_HAL_Driver/Src/stm32c0xx_hal_exti.c ****   *         This parameter can be one of @arg @ref EXTI_CallbackIDTypeDef values.
 415:Drivers/STM32C0xx_HAL_Driver/Src/stm32c0xx_hal_exti.c ****   * @param  pPendingCbfn function pointer to be stored as callback.
 416:Drivers/STM32C0xx_HAL_Driver/Src/stm32c0xx_hal_exti.c ****   * @retval HAL Status.
 417:Drivers/STM32C0xx_HAL_Driver/Src/stm32c0xx_hal_exti.c ****   */
 418:Drivers/STM32C0xx_HAL_Driver/Src/stm32c0xx_hal_exti.c **** HAL_StatusTypeDef HAL_EXTI_RegisterCallback(EXTI_HandleTypeDef *hexti, EXTI_CallbackIDTypeDef Callb
 419:Drivers/STM32C0xx_HAL_Driver/Src/stm32c0xx_hal_exti.c ****                                             void (*pPendingCbfn)(void))
 420:Drivers/STM32C0xx_HAL_Driver/Src/stm32c0xx_hal_exti.c **** {
 802              		.loc 1 420 1 is_stmt 1 view -0
 803              		.cfi_startproc
 804              		@ args = 0, pretend = 0, frame = 0
 805              		@ frame_needed = 0, uses_anonymous_args = 0
 806              		@ link register save eliminated.
 421:Drivers/STM32C0xx_HAL_Driver/Src/stm32c0xx_hal_exti.c ****   HAL_StatusTypeDef status = HAL_OK;
 807              		.loc 1 421 3 view .LVU293
 422:Drivers/STM32C0xx_HAL_Driver/Src/stm32c0xx_hal_exti.c **** 
 423:Drivers/STM32C0xx_HAL_Driver/Src/stm32c0xx_hal_exti.c ****   switch (CallbackID)
 808              		.loc 1 423 3 view .LVU294
 809 0000 0129     		cmp	r1, #1
 810 0002 09D0     		beq	.L41
 811 0004 0229     		cmp	r1, #2
 812 0006 0AD0     		beq	.L42
 813 0008 0029     		cmp	r1, #0
 814 000a 01D0     		beq	.L45
 815 000c 0120     		movs	r0, #1
 816              	.LVL109:
 817              	.L43:
 424:Drivers/STM32C0xx_HAL_Driver/Src/stm32c0xx_hal_exti.c ****   {
 425:Drivers/STM32C0xx_HAL_Driver/Src/stm32c0xx_hal_exti.c ****     case  HAL_EXTI_COMMON_CB_ID:
 426:Drivers/STM32C0xx_HAL_Driver/Src/stm32c0xx_hal_exti.c ****       hexti->RisingCallback = pPendingCbfn;
 427:Drivers/STM32C0xx_HAL_Driver/Src/stm32c0xx_hal_exti.c ****       hexti->FallingCallback = pPendingCbfn;
 428:Drivers/STM32C0xx_HAL_Driver/Src/stm32c0xx_hal_exti.c ****       break;
 429:Drivers/STM32C0xx_HAL_Driver/Src/stm32c0xx_hal_exti.c **** 
 430:Drivers/STM32C0xx_HAL_Driver/Src/stm32c0xx_hal_exti.c ****     case  HAL_EXTI_RISING_CB_ID:
 431:Drivers/STM32C0xx_HAL_Driver/Src/stm32c0xx_hal_exti.c ****       hexti->RisingCallback = pPendingCbfn;
 432:Drivers/STM32C0xx_HAL_Driver/Src/stm32c0xx_hal_exti.c ****       break;
ARM GAS  C:\Users\xhex8\AppData\Local\Temp\ccVZjTbA.s 			page 24


 433:Drivers/STM32C0xx_HAL_Driver/Src/stm32c0xx_hal_exti.c **** 
 434:Drivers/STM32C0xx_HAL_Driver/Src/stm32c0xx_hal_exti.c ****     case  HAL_EXTI_FALLING_CB_ID:
 435:Drivers/STM32C0xx_HAL_Driver/Src/stm32c0xx_hal_exti.c ****       hexti->FallingCallback = pPendingCbfn;
 436:Drivers/STM32C0xx_HAL_Driver/Src/stm32c0xx_hal_exti.c ****       break;
 437:Drivers/STM32C0xx_HAL_Driver/Src/stm32c0xx_hal_exti.c **** 
 438:Drivers/STM32C0xx_HAL_Driver/Src/stm32c0xx_hal_exti.c ****     default:
 439:Drivers/STM32C0xx_HAL_Driver/Src/stm32c0xx_hal_exti.c ****       status = HAL_ERROR;
 440:Drivers/STM32C0xx_HAL_Driver/Src/stm32c0xx_hal_exti.c ****       break;
 441:Drivers/STM32C0xx_HAL_Driver/Src/stm32c0xx_hal_exti.c ****   }
 442:Drivers/STM32C0xx_HAL_Driver/Src/stm32c0xx_hal_exti.c **** 
 443:Drivers/STM32C0xx_HAL_Driver/Src/stm32c0xx_hal_exti.c ****   return status;
 818              		.loc 1 443 3 view .LVU295
 444:Drivers/STM32C0xx_HAL_Driver/Src/stm32c0xx_hal_exti.c **** }
 819              		.loc 1 444 1 is_stmt 0 view .LVU296
 820              		@ sp needed
 821 000e 7047     		bx	lr
 822              	.LVL110:
 823              	.L45:
 426:Drivers/STM32C0xx_HAL_Driver/Src/stm32c0xx_hal_exti.c ****       hexti->FallingCallback = pPendingCbfn;
 824              		.loc 1 426 7 is_stmt 1 view .LVU297
 426:Drivers/STM32C0xx_HAL_Driver/Src/stm32c0xx_hal_exti.c ****       hexti->FallingCallback = pPendingCbfn;
 825              		.loc 1 426 29 is_stmt 0 view .LVU298
 826 0010 4260     		str	r2, [r0, #4]
 427:Drivers/STM32C0xx_HAL_Driver/Src/stm32c0xx_hal_exti.c ****       break;
 827              		.loc 1 427 7 is_stmt 1 view .LVU299
 427:Drivers/STM32C0xx_HAL_Driver/Src/stm32c0xx_hal_exti.c ****       break;
 828              		.loc 1 427 30 is_stmt 0 view .LVU300
 829 0012 8260     		str	r2, [r0, #8]
 428:Drivers/STM32C0xx_HAL_Driver/Src/stm32c0xx_hal_exti.c **** 
 830              		.loc 1 428 7 is_stmt 1 view .LVU301
 421:Drivers/STM32C0xx_HAL_Driver/Src/stm32c0xx_hal_exti.c **** 
 831              		.loc 1 421 21 is_stmt 0 view .LVU302
 832 0014 0800     		movs	r0, r1
 833              	.LVL111:
 428:Drivers/STM32C0xx_HAL_Driver/Src/stm32c0xx_hal_exti.c **** 
 834              		.loc 1 428 7 view .LVU303
 835 0016 FAE7     		b	.L43
 836              	.LVL112:
 837              	.L41:
 431:Drivers/STM32C0xx_HAL_Driver/Src/stm32c0xx_hal_exti.c ****       break;
 838              		.loc 1 431 7 is_stmt 1 view .LVU304
 431:Drivers/STM32C0xx_HAL_Driver/Src/stm32c0xx_hal_exti.c ****       break;
 839              		.loc 1 431 29 is_stmt 0 view .LVU305
 840 0018 4260     		str	r2, [r0, #4]
 432:Drivers/STM32C0xx_HAL_Driver/Src/stm32c0xx_hal_exti.c **** 
 841              		.loc 1 432 7 is_stmt 1 view .LVU306
 421:Drivers/STM32C0xx_HAL_Driver/Src/stm32c0xx_hal_exti.c **** 
 842              		.loc 1 421 21 is_stmt 0 view .LVU307
 843 001a 0020     		movs	r0, #0
 844              	.LVL113:
 432:Drivers/STM32C0xx_HAL_Driver/Src/stm32c0xx_hal_exti.c **** 
 845              		.loc 1 432 7 view .LVU308
 846 001c F7E7     		b	.L43
 847              	.LVL114:
 848              	.L42:
 435:Drivers/STM32C0xx_HAL_Driver/Src/stm32c0xx_hal_exti.c ****       break;
 849              		.loc 1 435 7 is_stmt 1 view .LVU309
ARM GAS  C:\Users\xhex8\AppData\Local\Temp\ccVZjTbA.s 			page 25


 435:Drivers/STM32C0xx_HAL_Driver/Src/stm32c0xx_hal_exti.c ****       break;
 850              		.loc 1 435 30 is_stmt 0 view .LVU310
 851 001e 8260     		str	r2, [r0, #8]
 436:Drivers/STM32C0xx_HAL_Driver/Src/stm32c0xx_hal_exti.c **** 
 852              		.loc 1 436 7 is_stmt 1 view .LVU311
 421:Drivers/STM32C0xx_HAL_Driver/Src/stm32c0xx_hal_exti.c **** 
 853              		.loc 1 421 21 is_stmt 0 view .LVU312
 854 0020 0020     		movs	r0, #0
 855              	.LVL115:
 436:Drivers/STM32C0xx_HAL_Driver/Src/stm32c0xx_hal_exti.c **** 
 856              		.loc 1 436 7 view .LVU313
 857 0022 F4E7     		b	.L43
 858              		.cfi_endproc
 859              	.LFE217:
 861              		.section	.text.HAL_EXTI_GetHandle,"ax",%progbits
 862              		.align	1
 863              		.global	HAL_EXTI_GetHandle
 864              		.syntax unified
 865              		.code	16
 866              		.thumb_func
 868              	HAL_EXTI_GetHandle:
 869              	.LVL116:
 870              	.LFB218:
 445:Drivers/STM32C0xx_HAL_Driver/Src/stm32c0xx_hal_exti.c **** 
 446:Drivers/STM32C0xx_HAL_Driver/Src/stm32c0xx_hal_exti.c **** 
 447:Drivers/STM32C0xx_HAL_Driver/Src/stm32c0xx_hal_exti.c **** /**
 448:Drivers/STM32C0xx_HAL_Driver/Src/stm32c0xx_hal_exti.c ****   * @brief  Store line number as handle private field.
 449:Drivers/STM32C0xx_HAL_Driver/Src/stm32c0xx_hal_exti.c ****   * @param  hexti Exti handle.
 450:Drivers/STM32C0xx_HAL_Driver/Src/stm32c0xx_hal_exti.c ****   * @param  ExtiLine Exti line number.
 451:Drivers/STM32C0xx_HAL_Driver/Src/stm32c0xx_hal_exti.c ****   *         This parameter can be from 0 to @ref EXTI_LINE_NB.
 452:Drivers/STM32C0xx_HAL_Driver/Src/stm32c0xx_hal_exti.c ****   * @retval HAL Status.
 453:Drivers/STM32C0xx_HAL_Driver/Src/stm32c0xx_hal_exti.c ****   */
 454:Drivers/STM32C0xx_HAL_Driver/Src/stm32c0xx_hal_exti.c **** HAL_StatusTypeDef HAL_EXTI_GetHandle(EXTI_HandleTypeDef *hexti, uint32_t ExtiLine)
 455:Drivers/STM32C0xx_HAL_Driver/Src/stm32c0xx_hal_exti.c **** {
 871              		.loc 1 455 1 is_stmt 1 view -0
 872              		.cfi_startproc
 873              		@ args = 0, pretend = 0, frame = 0
 874              		@ frame_needed = 0, uses_anonymous_args = 0
 875              		@ link register save eliminated.
 456:Drivers/STM32C0xx_HAL_Driver/Src/stm32c0xx_hal_exti.c ****   /* Check the parameters */
 457:Drivers/STM32C0xx_HAL_Driver/Src/stm32c0xx_hal_exti.c ****   assert_param(IS_EXTI_LINE(ExtiLine));
 876              		.loc 1 457 3 view .LVU315
 458:Drivers/STM32C0xx_HAL_Driver/Src/stm32c0xx_hal_exti.c **** 
 459:Drivers/STM32C0xx_HAL_Driver/Src/stm32c0xx_hal_exti.c ****   /* Check null pointer */
 460:Drivers/STM32C0xx_HAL_Driver/Src/stm32c0xx_hal_exti.c ****   if (hexti == NULL)
 877              		.loc 1 460 3 view .LVU316
 878              		.loc 1 460 6 is_stmt 0 view .LVU317
 879 0000 0028     		cmp	r0, #0
 880 0002 02D0     		beq	.L48
 461:Drivers/STM32C0xx_HAL_Driver/Src/stm32c0xx_hal_exti.c ****   {
 462:Drivers/STM32C0xx_HAL_Driver/Src/stm32c0xx_hal_exti.c ****     return HAL_ERROR;
 463:Drivers/STM32C0xx_HAL_Driver/Src/stm32c0xx_hal_exti.c ****   }
 464:Drivers/STM32C0xx_HAL_Driver/Src/stm32c0xx_hal_exti.c ****   else
 465:Drivers/STM32C0xx_HAL_Driver/Src/stm32c0xx_hal_exti.c ****   {
 466:Drivers/STM32C0xx_HAL_Driver/Src/stm32c0xx_hal_exti.c ****     /* Store line number as handle private field */
 467:Drivers/STM32C0xx_HAL_Driver/Src/stm32c0xx_hal_exti.c ****     hexti->Line = ExtiLine;
 881              		.loc 1 467 5 is_stmt 1 view .LVU318
ARM GAS  C:\Users\xhex8\AppData\Local\Temp\ccVZjTbA.s 			page 26


 882              		.loc 1 467 17 is_stmt 0 view .LVU319
 883 0004 0160     		str	r1, [r0]
 468:Drivers/STM32C0xx_HAL_Driver/Src/stm32c0xx_hal_exti.c **** 
 469:Drivers/STM32C0xx_HAL_Driver/Src/stm32c0xx_hal_exti.c ****     return HAL_OK;
 884              		.loc 1 469 5 is_stmt 1 view .LVU320
 885              		.loc 1 469 12 is_stmt 0 view .LVU321
 886 0006 0020     		movs	r0, #0
 887              	.LVL117:
 888              	.L47:
 470:Drivers/STM32C0xx_HAL_Driver/Src/stm32c0xx_hal_exti.c ****   }
 471:Drivers/STM32C0xx_HAL_Driver/Src/stm32c0xx_hal_exti.c **** }
 889              		.loc 1 471 1 view .LVU322
 890              		@ sp needed
 891 0008 7047     		bx	lr
 892              	.LVL118:
 893              	.L48:
 462:Drivers/STM32C0xx_HAL_Driver/Src/stm32c0xx_hal_exti.c ****   }
 894              		.loc 1 462 12 view .LVU323
 895 000a 0120     		movs	r0, #1
 896              	.LVL119:
 462:Drivers/STM32C0xx_HAL_Driver/Src/stm32c0xx_hal_exti.c ****   }
 897              		.loc 1 462 12 view .LVU324
 898 000c FCE7     		b	.L47
 899              		.cfi_endproc
 900              	.LFE218:
 902              		.section	.text.HAL_EXTI_IRQHandler,"ax",%progbits
 903              		.align	1
 904              		.global	HAL_EXTI_IRQHandler
 905              		.syntax unified
 906              		.code	16
 907              		.thumb_func
 909              	HAL_EXTI_IRQHandler:
 910              	.LVL120:
 911              	.LFB219:
 472:Drivers/STM32C0xx_HAL_Driver/Src/stm32c0xx_hal_exti.c **** 
 473:Drivers/STM32C0xx_HAL_Driver/Src/stm32c0xx_hal_exti.c **** 
 474:Drivers/STM32C0xx_HAL_Driver/Src/stm32c0xx_hal_exti.c **** /**
 475:Drivers/STM32C0xx_HAL_Driver/Src/stm32c0xx_hal_exti.c ****   * @}
 476:Drivers/STM32C0xx_HAL_Driver/Src/stm32c0xx_hal_exti.c ****   */
 477:Drivers/STM32C0xx_HAL_Driver/Src/stm32c0xx_hal_exti.c **** 
 478:Drivers/STM32C0xx_HAL_Driver/Src/stm32c0xx_hal_exti.c **** /** @addtogroup EXTI_Exported_Functions_Group2
 479:Drivers/STM32C0xx_HAL_Driver/Src/stm32c0xx_hal_exti.c ****   *  @brief EXTI IO functions.
 480:Drivers/STM32C0xx_HAL_Driver/Src/stm32c0xx_hal_exti.c ****   *
 481:Drivers/STM32C0xx_HAL_Driver/Src/stm32c0xx_hal_exti.c **** @verbatim
 482:Drivers/STM32C0xx_HAL_Driver/Src/stm32c0xx_hal_exti.c ****  ===============================================================================
 483:Drivers/STM32C0xx_HAL_Driver/Src/stm32c0xx_hal_exti.c ****                        ##### IO operation functions #####
 484:Drivers/STM32C0xx_HAL_Driver/Src/stm32c0xx_hal_exti.c ****  ===============================================================================
 485:Drivers/STM32C0xx_HAL_Driver/Src/stm32c0xx_hal_exti.c **** 
 486:Drivers/STM32C0xx_HAL_Driver/Src/stm32c0xx_hal_exti.c **** @endverbatim
 487:Drivers/STM32C0xx_HAL_Driver/Src/stm32c0xx_hal_exti.c ****   * @{
 488:Drivers/STM32C0xx_HAL_Driver/Src/stm32c0xx_hal_exti.c ****   */
 489:Drivers/STM32C0xx_HAL_Driver/Src/stm32c0xx_hal_exti.c **** 
 490:Drivers/STM32C0xx_HAL_Driver/Src/stm32c0xx_hal_exti.c **** /**
 491:Drivers/STM32C0xx_HAL_Driver/Src/stm32c0xx_hal_exti.c ****   * @brief  Handle EXTI interrupt request.
 492:Drivers/STM32C0xx_HAL_Driver/Src/stm32c0xx_hal_exti.c ****   * @param  hexti Exti handle.
 493:Drivers/STM32C0xx_HAL_Driver/Src/stm32c0xx_hal_exti.c ****   * @retval none.
 494:Drivers/STM32C0xx_HAL_Driver/Src/stm32c0xx_hal_exti.c ****   */
ARM GAS  C:\Users\xhex8\AppData\Local\Temp\ccVZjTbA.s 			page 27


 495:Drivers/STM32C0xx_HAL_Driver/Src/stm32c0xx_hal_exti.c **** void HAL_EXTI_IRQHandler(const EXTI_HandleTypeDef *hexti)
 496:Drivers/STM32C0xx_HAL_Driver/Src/stm32c0xx_hal_exti.c **** {
 912              		.loc 1 496 1 is_stmt 1 view -0
 913              		.cfi_startproc
 914              		@ args = 0, pretend = 0, frame = 0
 915              		@ frame_needed = 0, uses_anonymous_args = 0
 916              		.loc 1 496 1 is_stmt 0 view .LVU326
 917 0000 70B5     		push	{r4, r5, r6, lr}
 918              		.cfi_def_cfa_offset 16
 919              		.cfi_offset 4, -16
 920              		.cfi_offset 5, -12
 921              		.cfi_offset 6, -8
 922              		.cfi_offset 14, -4
 923 0002 0600     		movs	r6, r0
 497:Drivers/STM32C0xx_HAL_Driver/Src/stm32c0xx_hal_exti.c ****   __IO uint32_t *regaddr;
 924              		.loc 1 497 3 is_stmt 1 view .LVU327
 498:Drivers/STM32C0xx_HAL_Driver/Src/stm32c0xx_hal_exti.c ****   uint32_t regval;
 925              		.loc 1 498 3 view .LVU328
 499:Drivers/STM32C0xx_HAL_Driver/Src/stm32c0xx_hal_exti.c ****   uint32_t maskline;
 926              		.loc 1 499 3 view .LVU329
 500:Drivers/STM32C0xx_HAL_Driver/Src/stm32c0xx_hal_exti.c ****   uint32_t offset;
 927              		.loc 1 500 3 view .LVU330
 501:Drivers/STM32C0xx_HAL_Driver/Src/stm32c0xx_hal_exti.c **** 
 502:Drivers/STM32C0xx_HAL_Driver/Src/stm32c0xx_hal_exti.c ****   /* Compute line register offset and line mask */
 503:Drivers/STM32C0xx_HAL_Driver/Src/stm32c0xx_hal_exti.c ****   offset = ((hexti->Line & EXTI_REG_MASK) >> EXTI_REG_SHIFT);
 928              		.loc 1 503 3 view .LVU331
 929              		.loc 1 503 19 is_stmt 0 view .LVU332
 930 0004 0268     		ldr	r2, [r0]
 931              		.loc 1 503 43 view .LVU333
 932 0006 140C     		lsrs	r4, r2, #16
 933              		.loc 1 503 10 view .LVU334
 934 0008 0125     		movs	r5, #1
 935 000a 2C40     		ands	r4, r5
 936              	.LVL121:
 504:Drivers/STM32C0xx_HAL_Driver/Src/stm32c0xx_hal_exti.c ****   maskline = (1UL << (hexti->Line & EXTI_PIN_MASK));
 937              		.loc 1 504 3 is_stmt 1 view .LVU335
 938              		.loc 1 504 35 is_stmt 0 view .LVU336
 939 000c 1F23     		movs	r3, #31
 940 000e 1340     		ands	r3, r2
 941              		.loc 1 504 12 view .LVU337
 942 0010 9D40     		lsls	r5, r5, r3
 943              	.LVL122:
 505:Drivers/STM32C0xx_HAL_Driver/Src/stm32c0xx_hal_exti.c **** 
 506:Drivers/STM32C0xx_HAL_Driver/Src/stm32c0xx_hal_exti.c ****   /* Get rising edge pending bit  */
 507:Drivers/STM32C0xx_HAL_Driver/Src/stm32c0xx_hal_exti.c ****   regaddr = (__IO uint32_t *)(&EXTI->RPR1 + (EXTI_CONFIG_OFFSET * offset));
 944              		.loc 1 507 3 is_stmt 1 view .LVU338
 945              		.loc 1 507 13 is_stmt 0 view .LVU339
 946 0012 6401     		lsls	r4, r4, #5
 947              	.LVL123:
 948              		.loc 1 507 11 view .LVU340
 949 0014 0A4B     		ldr	r3, .L52
 950 0016 E318     		adds	r3, r4, r3
 951              	.LVL124:
 508:Drivers/STM32C0xx_HAL_Driver/Src/stm32c0xx_hal_exti.c ****   regval = (*regaddr & maskline);
 952              		.loc 1 508 3 is_stmt 1 view .LVU341
 953              		.loc 1 508 13 is_stmt 0 view .LVU342
 954 0018 1A68     		ldr	r2, [r3]
ARM GAS  C:\Users\xhex8\AppData\Local\Temp\ccVZjTbA.s 			page 28


 955              	.LVL125:
 509:Drivers/STM32C0xx_HAL_Driver/Src/stm32c0xx_hal_exti.c **** 
 510:Drivers/STM32C0xx_HAL_Driver/Src/stm32c0xx_hal_exti.c ****   if (regval != 0U)
 956              		.loc 1 510 3 is_stmt 1 view .LVU343
 957              		.loc 1 510 6 is_stmt 0 view .LVU344
 958 001a 1542     		tst	r5, r2
 959 001c 04D0     		beq	.L50
 511:Drivers/STM32C0xx_HAL_Driver/Src/stm32c0xx_hal_exti.c ****   {
 512:Drivers/STM32C0xx_HAL_Driver/Src/stm32c0xx_hal_exti.c ****     /* Clear pending bit */
 513:Drivers/STM32C0xx_HAL_Driver/Src/stm32c0xx_hal_exti.c ****     *regaddr = maskline;
 960              		.loc 1 513 5 is_stmt 1 view .LVU345
 961              		.loc 1 513 14 is_stmt 0 view .LVU346
 962 001e 1D60     		str	r5, [r3]
 963              	.LVL126:
 514:Drivers/STM32C0xx_HAL_Driver/Src/stm32c0xx_hal_exti.c **** 
 515:Drivers/STM32C0xx_HAL_Driver/Src/stm32c0xx_hal_exti.c ****     /* Call rising callback */
 516:Drivers/STM32C0xx_HAL_Driver/Src/stm32c0xx_hal_exti.c ****     if (hexti->RisingCallback != NULL)
 964              		.loc 1 516 5 is_stmt 1 view .LVU347
 965              		.loc 1 516 14 is_stmt 0 view .LVU348
 966 0020 4368     		ldr	r3, [r0, #4]
 967              	.LVL127:
 968              		.loc 1 516 8 view .LVU349
 969 0022 002B     		cmp	r3, #0
 970 0024 00D0     		beq	.L50
 517:Drivers/STM32C0xx_HAL_Driver/Src/stm32c0xx_hal_exti.c ****     {
 518:Drivers/STM32C0xx_HAL_Driver/Src/stm32c0xx_hal_exti.c ****       hexti->RisingCallback();
 971              		.loc 1 518 7 is_stmt 1 view .LVU350
 972 0026 9847     		blx	r3
 973              	.LVL128:
 974              	.L50:
 519:Drivers/STM32C0xx_HAL_Driver/Src/stm32c0xx_hal_exti.c ****     }
 520:Drivers/STM32C0xx_HAL_Driver/Src/stm32c0xx_hal_exti.c ****   }
 521:Drivers/STM32C0xx_HAL_Driver/Src/stm32c0xx_hal_exti.c **** 
 522:Drivers/STM32C0xx_HAL_Driver/Src/stm32c0xx_hal_exti.c ****   /* Get falling edge pending bit  */
 523:Drivers/STM32C0xx_HAL_Driver/Src/stm32c0xx_hal_exti.c ****   regaddr = (__IO uint32_t *)(&EXTI->FPR1 + (EXTI_CONFIG_OFFSET * offset));
 975              		.loc 1 523 3 view .LVU351
 976              		.loc 1 523 11 is_stmt 0 view .LVU352
 977 0028 064B     		ldr	r3, .L52+4
 978 002a 9C46     		mov	ip, r3
 979 002c 6444     		add	r4, r4, ip
 980              	.LVL129:
 524:Drivers/STM32C0xx_HAL_Driver/Src/stm32c0xx_hal_exti.c ****   regval = (*regaddr & maskline);
 981              		.loc 1 524 3 is_stmt 1 view .LVU353
 982              		.loc 1 524 13 is_stmt 0 view .LVU354
 983 002e 2368     		ldr	r3, [r4]
 984              	.LVL130:
 525:Drivers/STM32C0xx_HAL_Driver/Src/stm32c0xx_hal_exti.c **** 
 526:Drivers/STM32C0xx_HAL_Driver/Src/stm32c0xx_hal_exti.c ****   if (regval != 0U)
 985              		.loc 1 526 3 is_stmt 1 view .LVU355
 986              		.loc 1 526 6 is_stmt 0 view .LVU356
 987 0030 1D42     		tst	r5, r3
 988 0032 04D0     		beq	.L49
 527:Drivers/STM32C0xx_HAL_Driver/Src/stm32c0xx_hal_exti.c ****   {
 528:Drivers/STM32C0xx_HAL_Driver/Src/stm32c0xx_hal_exti.c ****     /* Clear pending bit */
 529:Drivers/STM32C0xx_HAL_Driver/Src/stm32c0xx_hal_exti.c ****     *regaddr = maskline;
 989              		.loc 1 529 5 is_stmt 1 view .LVU357
 990              		.loc 1 529 14 is_stmt 0 view .LVU358
ARM GAS  C:\Users\xhex8\AppData\Local\Temp\ccVZjTbA.s 			page 29


 991 0034 2560     		str	r5, [r4]
 530:Drivers/STM32C0xx_HAL_Driver/Src/stm32c0xx_hal_exti.c **** 
 531:Drivers/STM32C0xx_HAL_Driver/Src/stm32c0xx_hal_exti.c ****     /* Call rising callback */
 532:Drivers/STM32C0xx_HAL_Driver/Src/stm32c0xx_hal_exti.c ****     if (hexti->FallingCallback != NULL)
 992              		.loc 1 532 5 is_stmt 1 view .LVU359
 993              		.loc 1 532 14 is_stmt 0 view .LVU360
 994 0036 B368     		ldr	r3, [r6, #8]
 995              	.LVL131:
 996              		.loc 1 532 8 view .LVU361
 997 0038 002B     		cmp	r3, #0
 998 003a 00D0     		beq	.L49
 533:Drivers/STM32C0xx_HAL_Driver/Src/stm32c0xx_hal_exti.c ****     {
 534:Drivers/STM32C0xx_HAL_Driver/Src/stm32c0xx_hal_exti.c ****       hexti->FallingCallback();
 999              		.loc 1 534 7 is_stmt 1 view .LVU362
 1000 003c 9847     		blx	r3
 1001              	.LVL132:
 1002              	.L49:
 535:Drivers/STM32C0xx_HAL_Driver/Src/stm32c0xx_hal_exti.c ****     }
 536:Drivers/STM32C0xx_HAL_Driver/Src/stm32c0xx_hal_exti.c ****   }
 537:Drivers/STM32C0xx_HAL_Driver/Src/stm32c0xx_hal_exti.c **** }
 1003              		.loc 1 537 1 is_stmt 0 view .LVU363
 1004              		@ sp needed
 1005              	.LVL133:
 1006              	.LVL134:
 1007              	.LVL135:
 1008              		.loc 1 537 1 view .LVU364
 1009 003e 70BD     		pop	{r4, r5, r6, pc}
 1010              	.L53:
 1011              		.align	2
 1012              	.L52:
 1013 0040 0C180240 		.word	1073879052
 1014 0044 10180240 		.word	1073879056
 1015              		.cfi_endproc
 1016              	.LFE219:
 1018              		.section	.text.HAL_EXTI_GetPending,"ax",%progbits
 1019              		.align	1
 1020              		.global	HAL_EXTI_GetPending
 1021              		.syntax unified
 1022              		.code	16
 1023              		.thumb_func
 1025              	HAL_EXTI_GetPending:
 1026              	.LVL136:
 1027              	.LFB220:
 538:Drivers/STM32C0xx_HAL_Driver/Src/stm32c0xx_hal_exti.c **** 
 539:Drivers/STM32C0xx_HAL_Driver/Src/stm32c0xx_hal_exti.c **** 
 540:Drivers/STM32C0xx_HAL_Driver/Src/stm32c0xx_hal_exti.c **** /**
 541:Drivers/STM32C0xx_HAL_Driver/Src/stm32c0xx_hal_exti.c ****   * @brief  Get interrupt pending bit of a dedicated line.
 542:Drivers/STM32C0xx_HAL_Driver/Src/stm32c0xx_hal_exti.c ****   * @param  hexti Exti handle.
 543:Drivers/STM32C0xx_HAL_Driver/Src/stm32c0xx_hal_exti.c ****   * @param  Edge Specify which pending edge as to be checked.
 544:Drivers/STM32C0xx_HAL_Driver/Src/stm32c0xx_hal_exti.c ****   *         This parameter can be one of the following values:
 545:Drivers/STM32C0xx_HAL_Driver/Src/stm32c0xx_hal_exti.c ****   *           @arg @ref EXTI_TRIGGER_RISING
 546:Drivers/STM32C0xx_HAL_Driver/Src/stm32c0xx_hal_exti.c ****   *           @arg @ref EXTI_TRIGGER_FALLING
 547:Drivers/STM32C0xx_HAL_Driver/Src/stm32c0xx_hal_exti.c ****   * @retval 1 if interrupt is pending else 0.
 548:Drivers/STM32C0xx_HAL_Driver/Src/stm32c0xx_hal_exti.c ****   */
 549:Drivers/STM32C0xx_HAL_Driver/Src/stm32c0xx_hal_exti.c **** uint32_t HAL_EXTI_GetPending(const EXTI_HandleTypeDef *hexti, uint32_t Edge)
 550:Drivers/STM32C0xx_HAL_Driver/Src/stm32c0xx_hal_exti.c **** {
 1028              		.loc 1 550 1 is_stmt 1 view -0
ARM GAS  C:\Users\xhex8\AppData\Local\Temp\ccVZjTbA.s 			page 30


 1029              		.cfi_startproc
 1030              		@ args = 0, pretend = 0, frame = 0
 1031              		@ frame_needed = 0, uses_anonymous_args = 0
 1032              		.loc 1 550 1 is_stmt 0 view .LVU366
 1033 0000 10B5     		push	{r4, lr}
 1034              		.cfi_def_cfa_offset 8
 1035              		.cfi_offset 4, -8
 1036              		.cfi_offset 14, -4
 551:Drivers/STM32C0xx_HAL_Driver/Src/stm32c0xx_hal_exti.c ****   __IO uint32_t *regaddr;
 1037              		.loc 1 551 3 is_stmt 1 view .LVU367
 552:Drivers/STM32C0xx_HAL_Driver/Src/stm32c0xx_hal_exti.c ****   uint32_t regval;
 1038              		.loc 1 552 3 view .LVU368
 553:Drivers/STM32C0xx_HAL_Driver/Src/stm32c0xx_hal_exti.c ****   uint32_t linepos;
 1039              		.loc 1 553 3 view .LVU369
 554:Drivers/STM32C0xx_HAL_Driver/Src/stm32c0xx_hal_exti.c ****   uint32_t maskline;
 1040              		.loc 1 554 3 view .LVU370
 555:Drivers/STM32C0xx_HAL_Driver/Src/stm32c0xx_hal_exti.c ****   uint32_t offset;
 1041              		.loc 1 555 3 view .LVU371
 556:Drivers/STM32C0xx_HAL_Driver/Src/stm32c0xx_hal_exti.c **** 
 557:Drivers/STM32C0xx_HAL_Driver/Src/stm32c0xx_hal_exti.c ****   /* Check the parameters */
 558:Drivers/STM32C0xx_HAL_Driver/Src/stm32c0xx_hal_exti.c ****   assert_param(IS_EXTI_LINE(hexti->Line));
 1042              		.loc 1 558 3 view .LVU372
 559:Drivers/STM32C0xx_HAL_Driver/Src/stm32c0xx_hal_exti.c ****   assert_param(IS_EXTI_CONFIG_LINE(hexti->Line));
 1043              		.loc 1 559 3 view .LVU373
 560:Drivers/STM32C0xx_HAL_Driver/Src/stm32c0xx_hal_exti.c ****   assert_param(IS_EXTI_PENDING_EDGE(Edge));
 1044              		.loc 1 560 3 view .LVU374
 561:Drivers/STM32C0xx_HAL_Driver/Src/stm32c0xx_hal_exti.c **** 
 562:Drivers/STM32C0xx_HAL_Driver/Src/stm32c0xx_hal_exti.c ****   /* compute line register offset and line mask */
 563:Drivers/STM32C0xx_HAL_Driver/Src/stm32c0xx_hal_exti.c ****   offset = ((hexti->Line & EXTI_REG_MASK) >> EXTI_REG_SHIFT);
 1045              		.loc 1 563 3 view .LVU375
 1046              		.loc 1 563 19 is_stmt 0 view .LVU376
 1047 0002 0468     		ldr	r4, [r0]
 1048              		.loc 1 563 43 view .LVU377
 1049 0004 230C     		lsrs	r3, r4, #16
 1050              		.loc 1 563 10 view .LVU378
 1051 0006 0120     		movs	r0, #1
 1052              	.LVL137:
 1053              		.loc 1 563 10 view .LVU379
 1054 0008 0340     		ands	r3, r0
 1055              	.LVL138:
 564:Drivers/STM32C0xx_HAL_Driver/Src/stm32c0xx_hal_exti.c ****   linepos = (hexti->Line & EXTI_PIN_MASK);
 1056              		.loc 1 564 3 is_stmt 1 view .LVU380
 1057              		.loc 1 564 11 is_stmt 0 view .LVU381
 1058 000a 1F22     		movs	r2, #31
 1059 000c 2240     		ands	r2, r4
 1060              	.LVL139:
 565:Drivers/STM32C0xx_HAL_Driver/Src/stm32c0xx_hal_exti.c ****   maskline = (1UL << linepos);
 1061              		.loc 1 565 3 is_stmt 1 view .LVU382
 1062              		.loc 1 565 12 is_stmt 0 view .LVU383
 1063 000e 9040     		lsls	r0, r0, r2
 1064              	.LVL140:
 566:Drivers/STM32C0xx_HAL_Driver/Src/stm32c0xx_hal_exti.c **** 
 567:Drivers/STM32C0xx_HAL_Driver/Src/stm32c0xx_hal_exti.c ****   if (Edge != EXTI_TRIGGER_RISING)
 1065              		.loc 1 567 3 is_stmt 1 view .LVU384
 1066              		.loc 1 567 6 is_stmt 0 view .LVU385
 1067 0010 0129     		cmp	r1, #1
 1068 0012 07D0     		beq	.L55
ARM GAS  C:\Users\xhex8\AppData\Local\Temp\ccVZjTbA.s 			page 31


 568:Drivers/STM32C0xx_HAL_Driver/Src/stm32c0xx_hal_exti.c ****   {
 569:Drivers/STM32C0xx_HAL_Driver/Src/stm32c0xx_hal_exti.c ****     /* Get falling edge pending bit */
 570:Drivers/STM32C0xx_HAL_Driver/Src/stm32c0xx_hal_exti.c ****     regaddr = (__IO uint32_t *)(&EXTI->FPR1 + (EXTI_CONFIG_OFFSET * offset));
 1069              		.loc 1 570 5 is_stmt 1 view .LVU386
 1070              		.loc 1 570 15 is_stmt 0 view .LVU387
 1071 0014 5B01     		lsls	r3, r3, #5
 1072              	.LVL141:
 1073              		.loc 1 570 13 view .LVU388
 1074 0016 0649     		ldr	r1, .L57
 1075              	.LVL142:
 1076              		.loc 1 570 13 view .LVU389
 1077 0018 8C46     		mov	ip, r1
 1078 001a 6344     		add	r3, r3, ip
 1079              	.LVL143:
 1080              	.L56:
 571:Drivers/STM32C0xx_HAL_Driver/Src/stm32c0xx_hal_exti.c ****   }
 572:Drivers/STM32C0xx_HAL_Driver/Src/stm32c0xx_hal_exti.c ****   else
 573:Drivers/STM32C0xx_HAL_Driver/Src/stm32c0xx_hal_exti.c ****   {
 574:Drivers/STM32C0xx_HAL_Driver/Src/stm32c0xx_hal_exti.c ****     /* Get rising edge pending bit */
 575:Drivers/STM32C0xx_HAL_Driver/Src/stm32c0xx_hal_exti.c ****     regaddr = (__IO uint32_t *)(&EXTI->RPR1 + (EXTI_CONFIG_OFFSET * offset));
 576:Drivers/STM32C0xx_HAL_Driver/Src/stm32c0xx_hal_exti.c ****   }
 577:Drivers/STM32C0xx_HAL_Driver/Src/stm32c0xx_hal_exti.c **** 
 578:Drivers/STM32C0xx_HAL_Driver/Src/stm32c0xx_hal_exti.c ****   /* return 1 if bit is set else 0 */
 579:Drivers/STM32C0xx_HAL_Driver/Src/stm32c0xx_hal_exti.c ****   regval = ((*regaddr & maskline) >> linepos);
 1081              		.loc 1 579 3 is_stmt 1 view .LVU390
 1082              		.loc 1 579 14 is_stmt 0 view .LVU391
 1083 001c 1B68     		ldr	r3, [r3]
 1084              	.LVL144:
 1085              		.loc 1 579 23 view .LVU392
 1086 001e 1840     		ands	r0, r3
 1087              	.LVL145:
 1088              		.loc 1 579 10 view .LVU393
 1089 0020 D040     		lsrs	r0, r0, r2
 1090              	.LVL146:
 580:Drivers/STM32C0xx_HAL_Driver/Src/stm32c0xx_hal_exti.c ****   return regval;
 1091              		.loc 1 580 3 is_stmt 1 view .LVU394
 581:Drivers/STM32C0xx_HAL_Driver/Src/stm32c0xx_hal_exti.c **** }
 1092              		.loc 1 581 1 is_stmt 0 view .LVU395
 1093              		@ sp needed
 1094              	.LVL147:
 1095              		.loc 1 581 1 view .LVU396
 1096 0022 10BD     		pop	{r4, pc}
 1097              	.LVL148:
 1098              	.L55:
 575:Drivers/STM32C0xx_HAL_Driver/Src/stm32c0xx_hal_exti.c ****   }
 1099              		.loc 1 575 5 is_stmt 1 view .LVU397
 575:Drivers/STM32C0xx_HAL_Driver/Src/stm32c0xx_hal_exti.c ****   }
 1100              		.loc 1 575 15 is_stmt 0 view .LVU398
 1101 0024 5B01     		lsls	r3, r3, #5
 1102              	.LVL149:
 575:Drivers/STM32C0xx_HAL_Driver/Src/stm32c0xx_hal_exti.c ****   }
 1103              		.loc 1 575 13 view .LVU399
 1104 0026 0349     		ldr	r1, .L57+4
 1105              	.LVL150:
 575:Drivers/STM32C0xx_HAL_Driver/Src/stm32c0xx_hal_exti.c ****   }
 1106              		.loc 1 575 13 view .LVU400
 1107 0028 8C46     		mov	ip, r1
ARM GAS  C:\Users\xhex8\AppData\Local\Temp\ccVZjTbA.s 			page 32


 1108 002a 6344     		add	r3, r3, ip
 1109              	.LVL151:
 575:Drivers/STM32C0xx_HAL_Driver/Src/stm32c0xx_hal_exti.c ****   }
 1110              		.loc 1 575 13 view .LVU401
 1111 002c F6E7     		b	.L56
 1112              	.L58:
 1113 002e C046     		.align	2
 1114              	.L57:
 1115 0030 10180240 		.word	1073879056
 1116 0034 0C180240 		.word	1073879052
 1117              		.cfi_endproc
 1118              	.LFE220:
 1120              		.section	.text.HAL_EXTI_ClearPending,"ax",%progbits
 1121              		.align	1
 1122              		.global	HAL_EXTI_ClearPending
 1123              		.syntax unified
 1124              		.code	16
 1125              		.thumb_func
 1127              	HAL_EXTI_ClearPending:
 1128              	.LVL152:
 1129              	.LFB221:
 582:Drivers/STM32C0xx_HAL_Driver/Src/stm32c0xx_hal_exti.c **** 
 583:Drivers/STM32C0xx_HAL_Driver/Src/stm32c0xx_hal_exti.c **** 
 584:Drivers/STM32C0xx_HAL_Driver/Src/stm32c0xx_hal_exti.c **** /**
 585:Drivers/STM32C0xx_HAL_Driver/Src/stm32c0xx_hal_exti.c ****   * @brief  Clear interrupt pending bit of a dedicated line.
 586:Drivers/STM32C0xx_HAL_Driver/Src/stm32c0xx_hal_exti.c ****   * @param  hexti Exti handle.
 587:Drivers/STM32C0xx_HAL_Driver/Src/stm32c0xx_hal_exti.c ****   * @param  Edge Specify which pending edge as to be clear.
 588:Drivers/STM32C0xx_HAL_Driver/Src/stm32c0xx_hal_exti.c ****   *         This parameter can be one of the following values:
 589:Drivers/STM32C0xx_HAL_Driver/Src/stm32c0xx_hal_exti.c ****   *           @arg @ref EXTI_TRIGGER_RISING
 590:Drivers/STM32C0xx_HAL_Driver/Src/stm32c0xx_hal_exti.c ****   *           @arg @ref EXTI_TRIGGER_FALLING
 591:Drivers/STM32C0xx_HAL_Driver/Src/stm32c0xx_hal_exti.c ****   * @retval None.
 592:Drivers/STM32C0xx_HAL_Driver/Src/stm32c0xx_hal_exti.c ****   */
 593:Drivers/STM32C0xx_HAL_Driver/Src/stm32c0xx_hal_exti.c **** void HAL_EXTI_ClearPending(const EXTI_HandleTypeDef *hexti, uint32_t Edge)
 594:Drivers/STM32C0xx_HAL_Driver/Src/stm32c0xx_hal_exti.c **** {
 1130              		.loc 1 594 1 is_stmt 1 view -0
 1131              		.cfi_startproc
 1132              		@ args = 0, pretend = 0, frame = 0
 1133              		@ frame_needed = 0, uses_anonymous_args = 0
 1134              		.loc 1 594 1 is_stmt 0 view .LVU403
 1135 0000 10B5     		push	{r4, lr}
 1136              		.cfi_def_cfa_offset 8
 1137              		.cfi_offset 4, -8
 1138              		.cfi_offset 14, -4
 595:Drivers/STM32C0xx_HAL_Driver/Src/stm32c0xx_hal_exti.c ****   __IO uint32_t *regaddr;
 1139              		.loc 1 595 3 is_stmt 1 view .LVU404
 596:Drivers/STM32C0xx_HAL_Driver/Src/stm32c0xx_hal_exti.c ****   uint32_t maskline;
 1140              		.loc 1 596 3 view .LVU405
 597:Drivers/STM32C0xx_HAL_Driver/Src/stm32c0xx_hal_exti.c ****   uint32_t offset;
 1141              		.loc 1 597 3 view .LVU406
 598:Drivers/STM32C0xx_HAL_Driver/Src/stm32c0xx_hal_exti.c **** 
 599:Drivers/STM32C0xx_HAL_Driver/Src/stm32c0xx_hal_exti.c ****   /* Check the parameters */
 600:Drivers/STM32C0xx_HAL_Driver/Src/stm32c0xx_hal_exti.c ****   assert_param(IS_EXTI_LINE(hexti->Line));
 1142              		.loc 1 600 3 view .LVU407
 601:Drivers/STM32C0xx_HAL_Driver/Src/stm32c0xx_hal_exti.c ****   assert_param(IS_EXTI_CONFIG_LINE(hexti->Line));
 1143              		.loc 1 601 3 view .LVU408
 602:Drivers/STM32C0xx_HAL_Driver/Src/stm32c0xx_hal_exti.c ****   assert_param(IS_EXTI_PENDING_EDGE(Edge));
 1144              		.loc 1 602 3 view .LVU409
ARM GAS  C:\Users\xhex8\AppData\Local\Temp\ccVZjTbA.s 			page 33


 603:Drivers/STM32C0xx_HAL_Driver/Src/stm32c0xx_hal_exti.c **** 
 604:Drivers/STM32C0xx_HAL_Driver/Src/stm32c0xx_hal_exti.c ****   /* compute line register offset and line mask */
 605:Drivers/STM32C0xx_HAL_Driver/Src/stm32c0xx_hal_exti.c ****   offset = ((hexti->Line & EXTI_REG_MASK) >> EXTI_REG_SHIFT);
 1145              		.loc 1 605 3 view .LVU410
 1146              		.loc 1 605 19 is_stmt 0 view .LVU411
 1147 0002 0468     		ldr	r4, [r0]
 1148              		.loc 1 605 43 view .LVU412
 1149 0004 230C     		lsrs	r3, r4, #16
 1150              		.loc 1 605 10 view .LVU413
 1151 0006 0122     		movs	r2, #1
 1152 0008 1340     		ands	r3, r2
 1153              	.LVL153:
 606:Drivers/STM32C0xx_HAL_Driver/Src/stm32c0xx_hal_exti.c ****   maskline = (1UL << (hexti->Line & EXTI_PIN_MASK));
 1154              		.loc 1 606 3 is_stmt 1 view .LVU414
 1155              		.loc 1 606 35 is_stmt 0 view .LVU415
 1156 000a 1F20     		movs	r0, #31
 1157              	.LVL154:
 1158              		.loc 1 606 35 view .LVU416
 1159 000c 2040     		ands	r0, r4
 1160              		.loc 1 606 12 view .LVU417
 1161 000e 8240     		lsls	r2, r2, r0
 1162              	.LVL155:
 607:Drivers/STM32C0xx_HAL_Driver/Src/stm32c0xx_hal_exti.c **** 
 608:Drivers/STM32C0xx_HAL_Driver/Src/stm32c0xx_hal_exti.c ****   if (Edge != EXTI_TRIGGER_RISING)
 1163              		.loc 1 608 3 is_stmt 1 view .LVU418
 1164              		.loc 1 608 6 is_stmt 0 view .LVU419
 1165 0010 0129     		cmp	r1, #1
 1166 0012 05D0     		beq	.L60
 609:Drivers/STM32C0xx_HAL_Driver/Src/stm32c0xx_hal_exti.c ****   {
 610:Drivers/STM32C0xx_HAL_Driver/Src/stm32c0xx_hal_exti.c ****     /* Get falling edge pending register address */
 611:Drivers/STM32C0xx_HAL_Driver/Src/stm32c0xx_hal_exti.c ****     regaddr = (__IO uint32_t *)(&EXTI->FPR1 + (EXTI_CONFIG_OFFSET * offset));
 1167              		.loc 1 611 5 is_stmt 1 view .LVU420
 1168              		.loc 1 611 15 is_stmt 0 view .LVU421
 1169 0014 5B01     		lsls	r3, r3, #5
 1170              	.LVL156:
 1171              		.loc 1 611 13 view .LVU422
 1172 0016 0549     		ldr	r1, .L62
 1173              	.LVL157:
 1174              		.loc 1 611 13 view .LVU423
 1175 0018 8C46     		mov	ip, r1
 1176 001a 6344     		add	r3, r3, ip
 1177              	.LVL158:
 1178              	.L61:
 612:Drivers/STM32C0xx_HAL_Driver/Src/stm32c0xx_hal_exti.c ****   }
 613:Drivers/STM32C0xx_HAL_Driver/Src/stm32c0xx_hal_exti.c ****   else
 614:Drivers/STM32C0xx_HAL_Driver/Src/stm32c0xx_hal_exti.c ****   {
 615:Drivers/STM32C0xx_HAL_Driver/Src/stm32c0xx_hal_exti.c ****     /* Get falling edge pending register address */
 616:Drivers/STM32C0xx_HAL_Driver/Src/stm32c0xx_hal_exti.c ****     regaddr = (__IO uint32_t *)(&EXTI->RPR1 + (EXTI_CONFIG_OFFSET * offset));
 617:Drivers/STM32C0xx_HAL_Driver/Src/stm32c0xx_hal_exti.c ****   }
 618:Drivers/STM32C0xx_HAL_Driver/Src/stm32c0xx_hal_exti.c **** 
 619:Drivers/STM32C0xx_HAL_Driver/Src/stm32c0xx_hal_exti.c ****   /* Clear Pending bit */
 620:Drivers/STM32C0xx_HAL_Driver/Src/stm32c0xx_hal_exti.c ****   *regaddr =  maskline;
 1179              		.loc 1 620 3 is_stmt 1 view .LVU424
 1180              		.loc 1 620 12 is_stmt 0 view .LVU425
 1181 001c 1A60     		str	r2, [r3]
 621:Drivers/STM32C0xx_HAL_Driver/Src/stm32c0xx_hal_exti.c **** }
 1182              		.loc 1 621 1 view .LVU426
ARM GAS  C:\Users\xhex8\AppData\Local\Temp\ccVZjTbA.s 			page 34


 1183              		@ sp needed
 1184              	.LVL159:
 1185              		.loc 1 621 1 view .LVU427
 1186 001e 10BD     		pop	{r4, pc}
 1187              	.LVL160:
 1188              	.L60:
 616:Drivers/STM32C0xx_HAL_Driver/Src/stm32c0xx_hal_exti.c ****   }
 1189              		.loc 1 616 5 is_stmt 1 view .LVU428
 616:Drivers/STM32C0xx_HAL_Driver/Src/stm32c0xx_hal_exti.c ****   }
 1190              		.loc 1 616 15 is_stmt 0 view .LVU429
 1191 0020 5B01     		lsls	r3, r3, #5
 1192              	.LVL161:
 616:Drivers/STM32C0xx_HAL_Driver/Src/stm32c0xx_hal_exti.c ****   }
 1193              		.loc 1 616 13 view .LVU430
 1194 0022 0349     		ldr	r1, .L62+4
 1195              	.LVL162:
 616:Drivers/STM32C0xx_HAL_Driver/Src/stm32c0xx_hal_exti.c ****   }
 1196              		.loc 1 616 13 view .LVU431
 1197 0024 8C46     		mov	ip, r1
 1198 0026 6344     		add	r3, r3, ip
 1199              	.LVL163:
 616:Drivers/STM32C0xx_HAL_Driver/Src/stm32c0xx_hal_exti.c ****   }
 1200              		.loc 1 616 13 view .LVU432
 1201 0028 F8E7     		b	.L61
 1202              	.L63:
 1203 002a C046     		.align	2
 1204              	.L62:
 1205 002c 10180240 		.word	1073879056
 1206 0030 0C180240 		.word	1073879052
 1207              		.cfi_endproc
 1208              	.LFE221:
 1210              		.section	.text.HAL_EXTI_GenerateSWI,"ax",%progbits
 1211              		.align	1
 1212              		.global	HAL_EXTI_GenerateSWI
 1213              		.syntax unified
 1214              		.code	16
 1215              		.thumb_func
 1217              	HAL_EXTI_GenerateSWI:
 1218              	.LVL164:
 1219              	.LFB222:
 622:Drivers/STM32C0xx_HAL_Driver/Src/stm32c0xx_hal_exti.c **** 
 623:Drivers/STM32C0xx_HAL_Driver/Src/stm32c0xx_hal_exti.c **** 
 624:Drivers/STM32C0xx_HAL_Driver/Src/stm32c0xx_hal_exti.c **** /**
 625:Drivers/STM32C0xx_HAL_Driver/Src/stm32c0xx_hal_exti.c ****   * @brief  Generate a software interrupt for a dedicated line.
 626:Drivers/STM32C0xx_HAL_Driver/Src/stm32c0xx_hal_exti.c ****   * @param  hexti Exti handle.
 627:Drivers/STM32C0xx_HAL_Driver/Src/stm32c0xx_hal_exti.c ****   * @retval None.
 628:Drivers/STM32C0xx_HAL_Driver/Src/stm32c0xx_hal_exti.c ****   */
 629:Drivers/STM32C0xx_HAL_Driver/Src/stm32c0xx_hal_exti.c **** void HAL_EXTI_GenerateSWI(const EXTI_HandleTypeDef *hexti)
 630:Drivers/STM32C0xx_HAL_Driver/Src/stm32c0xx_hal_exti.c **** {
 1220              		.loc 1 630 1 is_stmt 1 view -0
 1221              		.cfi_startproc
 1222              		@ args = 0, pretend = 0, frame = 0
 1223              		@ frame_needed = 0, uses_anonymous_args = 0
 1224              		@ link register save eliminated.
 631:Drivers/STM32C0xx_HAL_Driver/Src/stm32c0xx_hal_exti.c ****   __IO uint32_t *regaddr;
 1225              		.loc 1 631 3 view .LVU434
 632:Drivers/STM32C0xx_HAL_Driver/Src/stm32c0xx_hal_exti.c ****   uint32_t maskline;
ARM GAS  C:\Users\xhex8\AppData\Local\Temp\ccVZjTbA.s 			page 35


 1226              		.loc 1 632 3 view .LVU435
 633:Drivers/STM32C0xx_HAL_Driver/Src/stm32c0xx_hal_exti.c ****   uint32_t offset;
 1227              		.loc 1 633 3 view .LVU436
 634:Drivers/STM32C0xx_HAL_Driver/Src/stm32c0xx_hal_exti.c **** 
 635:Drivers/STM32C0xx_HAL_Driver/Src/stm32c0xx_hal_exti.c ****   /* Check the parameters */
 636:Drivers/STM32C0xx_HAL_Driver/Src/stm32c0xx_hal_exti.c ****   assert_param(IS_EXTI_LINE(hexti->Line));
 1228              		.loc 1 636 3 view .LVU437
 637:Drivers/STM32C0xx_HAL_Driver/Src/stm32c0xx_hal_exti.c ****   assert_param(IS_EXTI_CONFIG_LINE(hexti->Line));
 1229              		.loc 1 637 3 view .LVU438
 638:Drivers/STM32C0xx_HAL_Driver/Src/stm32c0xx_hal_exti.c **** 
 639:Drivers/STM32C0xx_HAL_Driver/Src/stm32c0xx_hal_exti.c ****   /* compute line register offset and line mask */
 640:Drivers/STM32C0xx_HAL_Driver/Src/stm32c0xx_hal_exti.c ****   offset = ((hexti->Line & EXTI_REG_MASK) >> EXTI_REG_SHIFT);
 1230              		.loc 1 640 3 view .LVU439
 1231              		.loc 1 640 19 is_stmt 0 view .LVU440
 1232 0000 0068     		ldr	r0, [r0]
 1233              	.LVL165:
 1234              		.loc 1 640 43 view .LVU441
 1235 0002 030C     		lsrs	r3, r0, #16
 1236              		.loc 1 640 10 view .LVU442
 1237 0004 0122     		movs	r2, #1
 1238 0006 1340     		ands	r3, r2
 1239              	.LVL166:
 641:Drivers/STM32C0xx_HAL_Driver/Src/stm32c0xx_hal_exti.c ****   maskline = (1UL << (hexti->Line & EXTI_PIN_MASK));
 1240              		.loc 1 641 3 is_stmt 1 view .LVU443
 1241              		.loc 1 641 35 is_stmt 0 view .LVU444
 1242 0008 1F21     		movs	r1, #31
 1243 000a 0140     		ands	r1, r0
 1244              		.loc 1 641 12 view .LVU445
 1245 000c 8A40     		lsls	r2, r2, r1
 1246              	.LVL167:
 642:Drivers/STM32C0xx_HAL_Driver/Src/stm32c0xx_hal_exti.c **** 
 643:Drivers/STM32C0xx_HAL_Driver/Src/stm32c0xx_hal_exti.c ****   regaddr = (__IO uint32_t *)(&EXTI->SWIER1 + (EXTI_CONFIG_OFFSET * offset));
 1247              		.loc 1 643 3 is_stmt 1 view .LVU446
 1248              		.loc 1 643 13 is_stmt 0 view .LVU447
 1249 000e 5B01     		lsls	r3, r3, #5
 1250              	.LVL168:
 1251              		.loc 1 643 11 view .LVU448
 1252 0010 0249     		ldr	r1, .L65
 1253 0012 8C46     		mov	ip, r1
 1254 0014 6344     		add	r3, r3, ip
 1255              	.LVL169:
 644:Drivers/STM32C0xx_HAL_Driver/Src/stm32c0xx_hal_exti.c ****   *regaddr = maskline;
 1256              		.loc 1 644 3 is_stmt 1 view .LVU449
 1257              		.loc 1 644 12 is_stmt 0 view .LVU450
 1258 0016 1A60     		str	r2, [r3]
 645:Drivers/STM32C0xx_HAL_Driver/Src/stm32c0xx_hal_exti.c **** }
 1259              		.loc 1 645 1 view .LVU451
 1260              		@ sp needed
 1261 0018 7047     		bx	lr
 1262              	.L66:
 1263 001a C046     		.align	2
 1264              	.L65:
 1265 001c 08180240 		.word	1073879048
 1266              		.cfi_endproc
 1267              	.LFE222:
 1269              		.text
 1270              	.Letext0:
ARM GAS  C:\Users\xhex8\AppData\Local\Temp\ccVZjTbA.s 			page 36


 1271              		.file 2 "c:\\users\\xhex8\\appdata\\roaming\\code\\user\\globalstorage\\bmd.stm32-for-vscode\\@xpa
 1272              		.file 3 "c:\\users\\xhex8\\appdata\\roaming\\code\\user\\globalstorage\\bmd.stm32-for-vscode\\@xpa
 1273              		.file 4 "Drivers/CMSIS/Device/ST/STM32C0xx/Include/stm32c011xx.h"
 1274              		.file 5 "Drivers/STM32C0xx_HAL_Driver/Inc/stm32c0xx_hal_def.h"
 1275              		.file 6 "Drivers/STM32C0xx_HAL_Driver/Inc/stm32c0xx_hal_exti.h"
ARM GAS  C:\Users\xhex8\AppData\Local\Temp\ccVZjTbA.s 			page 37

