ARM GAS  C:\Users\sapph\AppData\Local\Temp\ccD1R6H9.s 			page 1


   1              		.cpu cortex-m33
   2              		.arch armv8-m.main
   3              		.fpu fpv4-sp-d16
   4              		.arch_extension dsp
   5              		.eabi_attribute 27, 1
   6              		.eabi_attribute 28, 1
   7              		.eabi_attribute 20, 1
   8              		.eabi_attribute 21, 1
   9              		.eabi_attribute 23, 3
  10              		.eabi_attribute 24, 1
  11              		.eabi_attribute 25, 1
  12              		.eabi_attribute 26, 1
  13              		.eabi_attribute 30, 1
  14              		.eabi_attribute 34, 1
  15              		.eabi_attribute 18, 4
  16              		.file	"usbd_ioreq.c"
  17              		.text
  18              	.Ltext0:
  19              		.cfi_sections	.debug_frame
  20              		.file 1 "USB/Core/Src/usbd_ioreq.c"
  21              		.section	.text.USBD_CtlSendData,"ax",%progbits
  22              		.align	1
  23              		.global	USBD_CtlSendData
  24              		.syntax unified
  25              		.thumb
  26              		.thumb_func
  28              	USBD_CtlSendData:
  29              	.LVL0:
  30              	.LFB164:
   1:USB/Core/Src/usbd_ioreq.c **** /**
   2:USB/Core/Src/usbd_ioreq.c ****   ******************************************************************************
   3:USB/Core/Src/usbd_ioreq.c ****   * @file    usbd_ioreq.c
   4:USB/Core/Src/usbd_ioreq.c ****   * @author  MCD Application Team
   5:USB/Core/Src/usbd_ioreq.c ****   * @brief   This file provides the IO requests APIs for control endpoints.
   6:USB/Core/Src/usbd_ioreq.c ****   ******************************************************************************
   7:USB/Core/Src/usbd_ioreq.c ****   * @attention
   8:USB/Core/Src/usbd_ioreq.c ****   *
   9:USB/Core/Src/usbd_ioreq.c ****   * Copyright (c) 2015 STMicroelectronics.
  10:USB/Core/Src/usbd_ioreq.c ****   * All rights reserved.
  11:USB/Core/Src/usbd_ioreq.c ****   *
  12:USB/Core/Src/usbd_ioreq.c ****   * This software is licensed under terms that can be found in the LICENSE file
  13:USB/Core/Src/usbd_ioreq.c ****   * in the root directory of this software component.
  14:USB/Core/Src/usbd_ioreq.c ****   * If no LICENSE file comes with this software, it is provided AS-IS.
  15:USB/Core/Src/usbd_ioreq.c ****   *
  16:USB/Core/Src/usbd_ioreq.c ****   ******************************************************************************
  17:USB/Core/Src/usbd_ioreq.c ****   */
  18:USB/Core/Src/usbd_ioreq.c **** 
  19:USB/Core/Src/usbd_ioreq.c **** /* Includes ------------------------------------------------------------------*/
  20:USB/Core/Src/usbd_ioreq.c **** #include "usbd_ioreq.h"
  21:USB/Core/Src/usbd_ioreq.c **** 
  22:USB/Core/Src/usbd_ioreq.c **** /** @addtogroup STM32_USB_DEVICE_LIBRARY
  23:USB/Core/Src/usbd_ioreq.c ****   * @{
  24:USB/Core/Src/usbd_ioreq.c ****   */
  25:USB/Core/Src/usbd_ioreq.c **** 
  26:USB/Core/Src/usbd_ioreq.c **** 
  27:USB/Core/Src/usbd_ioreq.c **** /** @defgroup USBD_IOREQ
  28:USB/Core/Src/usbd_ioreq.c ****   * @brief control I/O requests module
ARM GAS  C:\Users\sapph\AppData\Local\Temp\ccD1R6H9.s 			page 2


  29:USB/Core/Src/usbd_ioreq.c ****   * @{
  30:USB/Core/Src/usbd_ioreq.c ****   */
  31:USB/Core/Src/usbd_ioreq.c **** 
  32:USB/Core/Src/usbd_ioreq.c **** /** @defgroup USBD_IOREQ_Private_TypesDefinitions
  33:USB/Core/Src/usbd_ioreq.c ****   * @{
  34:USB/Core/Src/usbd_ioreq.c ****   */
  35:USB/Core/Src/usbd_ioreq.c **** /**
  36:USB/Core/Src/usbd_ioreq.c ****   * @}
  37:USB/Core/Src/usbd_ioreq.c ****   */
  38:USB/Core/Src/usbd_ioreq.c **** 
  39:USB/Core/Src/usbd_ioreq.c **** 
  40:USB/Core/Src/usbd_ioreq.c **** /** @defgroup USBD_IOREQ_Private_Defines
  41:USB/Core/Src/usbd_ioreq.c ****   * @{
  42:USB/Core/Src/usbd_ioreq.c ****   */
  43:USB/Core/Src/usbd_ioreq.c **** 
  44:USB/Core/Src/usbd_ioreq.c **** /**
  45:USB/Core/Src/usbd_ioreq.c ****   * @}
  46:USB/Core/Src/usbd_ioreq.c ****   */
  47:USB/Core/Src/usbd_ioreq.c **** 
  48:USB/Core/Src/usbd_ioreq.c **** 
  49:USB/Core/Src/usbd_ioreq.c **** /** @defgroup USBD_IOREQ_Private_Macros
  50:USB/Core/Src/usbd_ioreq.c ****   * @{
  51:USB/Core/Src/usbd_ioreq.c ****   */
  52:USB/Core/Src/usbd_ioreq.c **** /**
  53:USB/Core/Src/usbd_ioreq.c ****   * @}
  54:USB/Core/Src/usbd_ioreq.c ****   */
  55:USB/Core/Src/usbd_ioreq.c **** 
  56:USB/Core/Src/usbd_ioreq.c **** 
  57:USB/Core/Src/usbd_ioreq.c **** /** @defgroup USBD_IOREQ_Private_Variables
  58:USB/Core/Src/usbd_ioreq.c ****   * @{
  59:USB/Core/Src/usbd_ioreq.c ****   */
  60:USB/Core/Src/usbd_ioreq.c **** 
  61:USB/Core/Src/usbd_ioreq.c **** /**
  62:USB/Core/Src/usbd_ioreq.c ****   * @}
  63:USB/Core/Src/usbd_ioreq.c ****   */
  64:USB/Core/Src/usbd_ioreq.c **** 
  65:USB/Core/Src/usbd_ioreq.c **** 
  66:USB/Core/Src/usbd_ioreq.c **** /** @defgroup USBD_IOREQ_Private_FunctionPrototypes
  67:USB/Core/Src/usbd_ioreq.c ****   * @{
  68:USB/Core/Src/usbd_ioreq.c ****   */
  69:USB/Core/Src/usbd_ioreq.c **** /**
  70:USB/Core/Src/usbd_ioreq.c ****   * @}
  71:USB/Core/Src/usbd_ioreq.c ****   */
  72:USB/Core/Src/usbd_ioreq.c **** 
  73:USB/Core/Src/usbd_ioreq.c **** 
  74:USB/Core/Src/usbd_ioreq.c **** /** @defgroup USBD_IOREQ_Private_Functions
  75:USB/Core/Src/usbd_ioreq.c ****   * @{
  76:USB/Core/Src/usbd_ioreq.c ****   */
  77:USB/Core/Src/usbd_ioreq.c **** 
  78:USB/Core/Src/usbd_ioreq.c **** /**
  79:USB/Core/Src/usbd_ioreq.c ****   * @brief  USBD_CtlSendData
  80:USB/Core/Src/usbd_ioreq.c ****   *         send data on the ctl pipe
  81:USB/Core/Src/usbd_ioreq.c ****   * @param  pdev: device instance
  82:USB/Core/Src/usbd_ioreq.c ****   * @param  buff: pointer to data buffer
  83:USB/Core/Src/usbd_ioreq.c ****   * @param  len: length of data to be sent
  84:USB/Core/Src/usbd_ioreq.c ****   * @retval status
  85:USB/Core/Src/usbd_ioreq.c ****   */
ARM GAS  C:\Users\sapph\AppData\Local\Temp\ccD1R6H9.s 			page 3


  86:USB/Core/Src/usbd_ioreq.c **** USBD_StatusTypeDef USBD_CtlSendData(USBD_HandleTypeDef *pdev,
  87:USB/Core/Src/usbd_ioreq.c ****                                     uint8_t *pbuf, uint32_t len)
  88:USB/Core/Src/usbd_ioreq.c **** {
  31              		.loc 1 88 1 view -0
  32              		.cfi_startproc
  33              		@ args = 0, pretend = 0, frame = 0
  34              		@ frame_needed = 0, uses_anonymous_args = 0
  35              		.loc 1 88 1 is_stmt 0 view .LVU1
  36 0000 08B5     		push	{r3, lr}
  37              		.cfi_def_cfa_offset 8
  38              		.cfi_offset 3, -8
  39              		.cfi_offset 14, -4
  40 0002 1346     		mov	r3, r2
  89:USB/Core/Src/usbd_ioreq.c ****   /* Set EP0 State */
  90:USB/Core/Src/usbd_ioreq.c ****   pdev->ep0_state = USBD_EP0_DATA_IN;
  41              		.loc 1 90 3 is_stmt 1 view .LVU2
  42              		.loc 1 90 19 is_stmt 0 view .LVU3
  43 0004 0222     		movs	r2, #2
  44              	.LVL1:
  45              		.loc 1 90 19 view .LVU4
  46 0006 C0F89422 		str	r2, [r0, #660]
  91:USB/Core/Src/usbd_ioreq.c ****   pdev->ep_in[0].total_length = len;
  47              		.loc 1 91 3 is_stmt 1 view .LVU5
  48              		.loc 1 91 31 is_stmt 0 view .LVU6
  49 000a 8361     		str	r3, [r0, #24]
  92:USB/Core/Src/usbd_ioreq.c **** 
  93:USB/Core/Src/usbd_ioreq.c **** #ifdef USBD_AVOID_PACKET_SPLIT_MPS
  94:USB/Core/Src/usbd_ioreq.c ****   pdev->ep_in[0].rem_length = 0U;
  95:USB/Core/Src/usbd_ioreq.c **** #else
  96:USB/Core/Src/usbd_ioreq.c ****   pdev->ep_in[0].rem_length = len;
  50              		.loc 1 96 3 is_stmt 1 view .LVU7
  51              		.loc 1 96 29 is_stmt 0 view .LVU8
  52 000c C361     		str	r3, [r0, #28]
  97:USB/Core/Src/usbd_ioreq.c **** #endif /* USBD_AVOID_PACKET_SPLIT_MPS */
  98:USB/Core/Src/usbd_ioreq.c **** 
  99:USB/Core/Src/usbd_ioreq.c ****   /* Start the transfer */
 100:USB/Core/Src/usbd_ioreq.c ****   (void)USBD_LL_Transmit(pdev, 0x00U, pbuf, len);
  53              		.loc 1 100 3 is_stmt 1 view .LVU9
  54              		.loc 1 100 9 is_stmt 0 view .LVU10
  55 000e 0A46     		mov	r2, r1
  56 0010 0021     		movs	r1, #0
  57              	.LVL2:
  58              		.loc 1 100 9 view .LVU11
  59 0012 FFF7FEFF 		bl	USBD_LL_Transmit
  60              	.LVL3:
 101:USB/Core/Src/usbd_ioreq.c **** 
 102:USB/Core/Src/usbd_ioreq.c ****   return USBD_OK;
  61              		.loc 1 102 3 is_stmt 1 view .LVU12
 103:USB/Core/Src/usbd_ioreq.c **** }
  62              		.loc 1 103 1 is_stmt 0 view .LVU13
  63 0016 0020     		movs	r0, #0
  64 0018 08BD     		pop	{r3, pc}
  65              		.cfi_endproc
  66              	.LFE164:
  68              		.section	.text.USBD_CtlContinueSendData,"ax",%progbits
  69              		.align	1
  70              		.global	USBD_CtlContinueSendData
ARM GAS  C:\Users\sapph\AppData\Local\Temp\ccD1R6H9.s 			page 4


  71              		.syntax unified
  72              		.thumb
  73              		.thumb_func
  75              	USBD_CtlContinueSendData:
  76              	.LVL4:
  77              	.LFB165:
 104:USB/Core/Src/usbd_ioreq.c **** 
 105:USB/Core/Src/usbd_ioreq.c **** /**
 106:USB/Core/Src/usbd_ioreq.c ****   * @brief  USBD_CtlContinueSendData
 107:USB/Core/Src/usbd_ioreq.c ****   *         continue sending data on the ctl pipe
 108:USB/Core/Src/usbd_ioreq.c ****   * @param  pdev: device instance
 109:USB/Core/Src/usbd_ioreq.c ****   * @param  buff: pointer to data buffer
 110:USB/Core/Src/usbd_ioreq.c ****   * @param  len: length of data to be sent
 111:USB/Core/Src/usbd_ioreq.c ****   * @retval status
 112:USB/Core/Src/usbd_ioreq.c ****   */
 113:USB/Core/Src/usbd_ioreq.c **** USBD_StatusTypeDef USBD_CtlContinueSendData(USBD_HandleTypeDef *pdev,
 114:USB/Core/Src/usbd_ioreq.c ****                                             uint8_t *pbuf, uint32_t len)
 115:USB/Core/Src/usbd_ioreq.c **** {
  78              		.loc 1 115 1 is_stmt 1 view -0
  79              		.cfi_startproc
  80              		@ args = 0, pretend = 0, frame = 0
  81              		@ frame_needed = 0, uses_anonymous_args = 0
  82              		.loc 1 115 1 is_stmt 0 view .LVU15
  83 0000 08B5     		push	{r3, lr}
  84              		.cfi_def_cfa_offset 8
  85              		.cfi_offset 3, -8
  86              		.cfi_offset 14, -4
  87 0002 1346     		mov	r3, r2
 116:USB/Core/Src/usbd_ioreq.c ****   /* Start the next transfer */
 117:USB/Core/Src/usbd_ioreq.c ****   (void)USBD_LL_Transmit(pdev, 0x00U, pbuf, len);
  88              		.loc 1 117 3 is_stmt 1 view .LVU16
  89              		.loc 1 117 9 is_stmt 0 view .LVU17
  90 0004 0A46     		mov	r2, r1
  91              	.LVL5:
  92              		.loc 1 117 9 view .LVU18
  93 0006 0021     		movs	r1, #0
  94              	.LVL6:
  95              		.loc 1 117 9 view .LVU19
  96 0008 FFF7FEFF 		bl	USBD_LL_Transmit
  97              	.LVL7:
 118:USB/Core/Src/usbd_ioreq.c **** 
 119:USB/Core/Src/usbd_ioreq.c ****   return USBD_OK;
  98              		.loc 1 119 3 is_stmt 1 view .LVU20
 120:USB/Core/Src/usbd_ioreq.c **** }
  99              		.loc 1 120 1 is_stmt 0 view .LVU21
 100 000c 0020     		movs	r0, #0
 101 000e 08BD     		pop	{r3, pc}
 102              		.cfi_endproc
 103              	.LFE165:
 105              		.section	.text.USBD_CtlPrepareRx,"ax",%progbits
 106              		.align	1
 107              		.global	USBD_CtlPrepareRx
 108              		.syntax unified
 109              		.thumb
 110              		.thumb_func
 112              	USBD_CtlPrepareRx:
 113              	.LVL8:
ARM GAS  C:\Users\sapph\AppData\Local\Temp\ccD1R6H9.s 			page 5


 114              	.LFB166:
 121:USB/Core/Src/usbd_ioreq.c **** 
 122:USB/Core/Src/usbd_ioreq.c **** /**
 123:USB/Core/Src/usbd_ioreq.c ****   * @brief  USBD_CtlPrepareRx
 124:USB/Core/Src/usbd_ioreq.c ****   *         receive data on the ctl pipe
 125:USB/Core/Src/usbd_ioreq.c ****   * @param  pdev: device instance
 126:USB/Core/Src/usbd_ioreq.c ****   * @param  buff: pointer to data buffer
 127:USB/Core/Src/usbd_ioreq.c ****   * @param  len: length of data to be received
 128:USB/Core/Src/usbd_ioreq.c ****   * @retval status
 129:USB/Core/Src/usbd_ioreq.c ****   */
 130:USB/Core/Src/usbd_ioreq.c **** USBD_StatusTypeDef USBD_CtlPrepareRx(USBD_HandleTypeDef *pdev,
 131:USB/Core/Src/usbd_ioreq.c ****                                      uint8_t *pbuf, uint32_t len)
 132:USB/Core/Src/usbd_ioreq.c **** {
 115              		.loc 1 132 1 is_stmt 1 view -0
 116              		.cfi_startproc
 117              		@ args = 0, pretend = 0, frame = 0
 118              		@ frame_needed = 0, uses_anonymous_args = 0
 119              		.loc 1 132 1 is_stmt 0 view .LVU23
 120 0000 08B5     		push	{r3, lr}
 121              		.cfi_def_cfa_offset 8
 122              		.cfi_offset 3, -8
 123              		.cfi_offset 14, -4
 124 0002 1346     		mov	r3, r2
 133:USB/Core/Src/usbd_ioreq.c ****   /* Set EP0 State */
 134:USB/Core/Src/usbd_ioreq.c ****   pdev->ep0_state = USBD_EP0_DATA_OUT;
 125              		.loc 1 134 3 is_stmt 1 view .LVU24
 126              		.loc 1 134 19 is_stmt 0 view .LVU25
 127 0004 0322     		movs	r2, #3
 128              	.LVL9:
 129              		.loc 1 134 19 view .LVU26
 130 0006 C0F89422 		str	r2, [r0, #660]
 135:USB/Core/Src/usbd_ioreq.c ****   pdev->ep_out[0].total_length = len;
 131              		.loc 1 135 3 is_stmt 1 view .LVU27
 132              		.loc 1 135 32 is_stmt 0 view .LVU28
 133 000a C0F85831 		str	r3, [r0, #344]
 136:USB/Core/Src/usbd_ioreq.c **** 
 137:USB/Core/Src/usbd_ioreq.c **** #ifdef USBD_AVOID_PACKET_SPLIT_MPS
 138:USB/Core/Src/usbd_ioreq.c ****   pdev->ep_out[0].rem_length = 0U;
 139:USB/Core/Src/usbd_ioreq.c **** #else
 140:USB/Core/Src/usbd_ioreq.c ****   pdev->ep_out[0].rem_length = len;
 134              		.loc 1 140 3 is_stmt 1 view .LVU29
 135              		.loc 1 140 30 is_stmt 0 view .LVU30
 136 000e C0F85C31 		str	r3, [r0, #348]
 141:USB/Core/Src/usbd_ioreq.c **** #endif /* USBD_AVOID_PACKET_SPLIT_MPS */
 142:USB/Core/Src/usbd_ioreq.c **** 
 143:USB/Core/Src/usbd_ioreq.c ****   /* Start the transfer */
 144:USB/Core/Src/usbd_ioreq.c ****   (void)USBD_LL_PrepareReceive(pdev, 0U, pbuf, len);
 137              		.loc 1 144 3 is_stmt 1 view .LVU31
 138              		.loc 1 144 9 is_stmt 0 view .LVU32
 139 0012 0A46     		mov	r2, r1
 140 0014 0021     		movs	r1, #0
 141              	.LVL10:
 142              		.loc 1 144 9 view .LVU33
 143 0016 FFF7FEFF 		bl	USBD_LL_PrepareReceive
 144              	.LVL11:
 145:USB/Core/Src/usbd_ioreq.c **** 
 146:USB/Core/Src/usbd_ioreq.c ****   return USBD_OK;
ARM GAS  C:\Users\sapph\AppData\Local\Temp\ccD1R6H9.s 			page 6


 145              		.loc 1 146 3 is_stmt 1 view .LVU34
 147:USB/Core/Src/usbd_ioreq.c **** }
 146              		.loc 1 147 1 is_stmt 0 view .LVU35
 147 001a 0020     		movs	r0, #0
 148 001c 08BD     		pop	{r3, pc}
 149              		.cfi_endproc
 150              	.LFE166:
 152              		.section	.text.USBD_CtlContinueRx,"ax",%progbits
 153              		.align	1
 154              		.global	USBD_CtlContinueRx
 155              		.syntax unified
 156              		.thumb
 157              		.thumb_func
 159              	USBD_CtlContinueRx:
 160              	.LVL12:
 161              	.LFB167:
 148:USB/Core/Src/usbd_ioreq.c **** 
 149:USB/Core/Src/usbd_ioreq.c **** /**
 150:USB/Core/Src/usbd_ioreq.c ****   * @brief  USBD_CtlContinueRx
 151:USB/Core/Src/usbd_ioreq.c ****   *         continue receive data on the ctl pipe
 152:USB/Core/Src/usbd_ioreq.c ****   * @param  pdev: device instance
 153:USB/Core/Src/usbd_ioreq.c ****   * @param  buff: pointer to data buffer
 154:USB/Core/Src/usbd_ioreq.c ****   * @param  len: length of data to be received
 155:USB/Core/Src/usbd_ioreq.c ****   * @retval status
 156:USB/Core/Src/usbd_ioreq.c ****   */
 157:USB/Core/Src/usbd_ioreq.c **** USBD_StatusTypeDef USBD_CtlContinueRx(USBD_HandleTypeDef *pdev,
 158:USB/Core/Src/usbd_ioreq.c ****                                       uint8_t *pbuf, uint32_t len)
 159:USB/Core/Src/usbd_ioreq.c **** {
 162              		.loc 1 159 1 is_stmt 1 view -0
 163              		.cfi_startproc
 164              		@ args = 0, pretend = 0, frame = 0
 165              		@ frame_needed = 0, uses_anonymous_args = 0
 166              		.loc 1 159 1 is_stmt 0 view .LVU37
 167 0000 08B5     		push	{r3, lr}
 168              		.cfi_def_cfa_offset 8
 169              		.cfi_offset 3, -8
 170              		.cfi_offset 14, -4
 171 0002 1346     		mov	r3, r2
 160:USB/Core/Src/usbd_ioreq.c ****   (void)USBD_LL_PrepareReceive(pdev, 0U, pbuf, len);
 172              		.loc 1 160 3 is_stmt 1 view .LVU38
 173              		.loc 1 160 9 is_stmt 0 view .LVU39
 174 0004 0A46     		mov	r2, r1
 175              	.LVL13:
 176              		.loc 1 160 9 view .LVU40
 177 0006 0021     		movs	r1, #0
 178              	.LVL14:
 179              		.loc 1 160 9 view .LVU41
 180 0008 FFF7FEFF 		bl	USBD_LL_PrepareReceive
 181              	.LVL15:
 161:USB/Core/Src/usbd_ioreq.c **** 
 162:USB/Core/Src/usbd_ioreq.c ****   return USBD_OK;
 182              		.loc 1 162 3 is_stmt 1 view .LVU42
 163:USB/Core/Src/usbd_ioreq.c **** }
 183              		.loc 1 163 1 is_stmt 0 view .LVU43
 184 000c 0020     		movs	r0, #0
 185 000e 08BD     		pop	{r3, pc}
 186              		.cfi_endproc
ARM GAS  C:\Users\sapph\AppData\Local\Temp\ccD1R6H9.s 			page 7


 187              	.LFE167:
 189              		.section	.text.USBD_CtlSendStatus,"ax",%progbits
 190              		.align	1
 191              		.global	USBD_CtlSendStatus
 192              		.syntax unified
 193              		.thumb
 194              		.thumb_func
 196              	USBD_CtlSendStatus:
 197              	.LVL16:
 198              	.LFB168:
 164:USB/Core/Src/usbd_ioreq.c **** 
 165:USB/Core/Src/usbd_ioreq.c **** /**
 166:USB/Core/Src/usbd_ioreq.c ****   * @brief  USBD_CtlSendStatus
 167:USB/Core/Src/usbd_ioreq.c ****   *         send zero lzngth packet on the ctl pipe
 168:USB/Core/Src/usbd_ioreq.c ****   * @param  pdev: device instance
 169:USB/Core/Src/usbd_ioreq.c ****   * @retval status
 170:USB/Core/Src/usbd_ioreq.c ****   */
 171:USB/Core/Src/usbd_ioreq.c **** USBD_StatusTypeDef USBD_CtlSendStatus(USBD_HandleTypeDef *pdev)
 172:USB/Core/Src/usbd_ioreq.c **** {
 199              		.loc 1 172 1 is_stmt 1 view -0
 200              		.cfi_startproc
 201              		@ args = 0, pretend = 0, frame = 0
 202              		@ frame_needed = 0, uses_anonymous_args = 0
 203              		.loc 1 172 1 is_stmt 0 view .LVU45
 204 0000 08B5     		push	{r3, lr}
 205              		.cfi_def_cfa_offset 8
 206              		.cfi_offset 3, -8
 207              		.cfi_offset 14, -4
 173:USB/Core/Src/usbd_ioreq.c ****   /* Set EP0 State */
 174:USB/Core/Src/usbd_ioreq.c ****   pdev->ep0_state = USBD_EP0_STATUS_IN;
 208              		.loc 1 174 3 is_stmt 1 view .LVU46
 209              		.loc 1 174 19 is_stmt 0 view .LVU47
 210 0002 0422     		movs	r2, #4
 211 0004 C0F89422 		str	r2, [r0, #660]
 175:USB/Core/Src/usbd_ioreq.c **** 
 176:USB/Core/Src/usbd_ioreq.c ****   /* Start the transfer */
 177:USB/Core/Src/usbd_ioreq.c ****   (void)USBD_LL_Transmit(pdev, 0x00U, NULL, 0U);
 212              		.loc 1 177 3 is_stmt 1 view .LVU48
 213              		.loc 1 177 9 is_stmt 0 view .LVU49
 214 0008 0023     		movs	r3, #0
 215 000a 1A46     		mov	r2, r3
 216 000c 1946     		mov	r1, r3
 217 000e FFF7FEFF 		bl	USBD_LL_Transmit
 218              	.LVL17:
 178:USB/Core/Src/usbd_ioreq.c **** 
 179:USB/Core/Src/usbd_ioreq.c ****   return USBD_OK;
 219              		.loc 1 179 3 is_stmt 1 view .LVU50
 180:USB/Core/Src/usbd_ioreq.c **** }
 220              		.loc 1 180 1 is_stmt 0 view .LVU51
 221 0012 0020     		movs	r0, #0
 222 0014 08BD     		pop	{r3, pc}
 223              		.cfi_endproc
 224              	.LFE168:
 226              		.section	.text.USBD_CtlReceiveStatus,"ax",%progbits
 227              		.align	1
 228              		.global	USBD_CtlReceiveStatus
 229              		.syntax unified
ARM GAS  C:\Users\sapph\AppData\Local\Temp\ccD1R6H9.s 			page 8


 230              		.thumb
 231              		.thumb_func
 233              	USBD_CtlReceiveStatus:
 234              	.LVL18:
 235              	.LFB169:
 181:USB/Core/Src/usbd_ioreq.c **** 
 182:USB/Core/Src/usbd_ioreq.c **** /**
 183:USB/Core/Src/usbd_ioreq.c ****   * @brief  USBD_CtlReceiveStatus
 184:USB/Core/Src/usbd_ioreq.c ****   *         receive zero lzngth packet on the ctl pipe
 185:USB/Core/Src/usbd_ioreq.c ****   * @param  pdev: device instance
 186:USB/Core/Src/usbd_ioreq.c ****   * @retval status
 187:USB/Core/Src/usbd_ioreq.c ****   */
 188:USB/Core/Src/usbd_ioreq.c **** USBD_StatusTypeDef USBD_CtlReceiveStatus(USBD_HandleTypeDef *pdev)
 189:USB/Core/Src/usbd_ioreq.c **** {
 236              		.loc 1 189 1 is_stmt 1 view -0
 237              		.cfi_startproc
 238              		@ args = 0, pretend = 0, frame = 0
 239              		@ frame_needed = 0, uses_anonymous_args = 0
 240              		.loc 1 189 1 is_stmt 0 view .LVU53
 241 0000 08B5     		push	{r3, lr}
 242              		.cfi_def_cfa_offset 8
 243              		.cfi_offset 3, -8
 244              		.cfi_offset 14, -4
 190:USB/Core/Src/usbd_ioreq.c ****   /* Set EP0 State */
 191:USB/Core/Src/usbd_ioreq.c ****   pdev->ep0_state = USBD_EP0_STATUS_OUT;
 245              		.loc 1 191 3 is_stmt 1 view .LVU54
 246              		.loc 1 191 19 is_stmt 0 view .LVU55
 247 0002 0522     		movs	r2, #5
 248 0004 C0F89422 		str	r2, [r0, #660]
 192:USB/Core/Src/usbd_ioreq.c **** 
 193:USB/Core/Src/usbd_ioreq.c ****   /* Start the transfer */
 194:USB/Core/Src/usbd_ioreq.c ****   (void)USBD_LL_PrepareReceive(pdev, 0U, NULL, 0U);
 249              		.loc 1 194 3 is_stmt 1 view .LVU56
 250              		.loc 1 194 9 is_stmt 0 view .LVU57
 251 0008 0023     		movs	r3, #0
 252 000a 1A46     		mov	r2, r3
 253 000c 1946     		mov	r1, r3
 254 000e FFF7FEFF 		bl	USBD_LL_PrepareReceive
 255              	.LVL19:
 195:USB/Core/Src/usbd_ioreq.c **** 
 196:USB/Core/Src/usbd_ioreq.c ****   return USBD_OK;
 256              		.loc 1 196 3 is_stmt 1 view .LVU58
 197:USB/Core/Src/usbd_ioreq.c **** }
 257              		.loc 1 197 1 is_stmt 0 view .LVU59
 258 0012 0020     		movs	r0, #0
 259 0014 08BD     		pop	{r3, pc}
 260              		.cfi_endproc
 261              	.LFE169:
 263              		.section	.text.USBD_GetRxCount,"ax",%progbits
 264              		.align	1
 265              		.global	USBD_GetRxCount
 266              		.syntax unified
 267              		.thumb
 268              		.thumb_func
 270              	USBD_GetRxCount:
 271              	.LVL20:
 272              	.LFB170:
ARM GAS  C:\Users\sapph\AppData\Local\Temp\ccD1R6H9.s 			page 9


 198:USB/Core/Src/usbd_ioreq.c **** 
 199:USB/Core/Src/usbd_ioreq.c **** /**
 200:USB/Core/Src/usbd_ioreq.c ****   * @brief  USBD_GetRxCount
 201:USB/Core/Src/usbd_ioreq.c ****   *         returns the received data length
 202:USB/Core/Src/usbd_ioreq.c ****   * @param  pdev: device instance
 203:USB/Core/Src/usbd_ioreq.c ****   * @param  ep_addr: endpoint address
 204:USB/Core/Src/usbd_ioreq.c ****   * @retval Rx Data blength
 205:USB/Core/Src/usbd_ioreq.c ****   */
 206:USB/Core/Src/usbd_ioreq.c **** uint32_t USBD_GetRxCount(USBD_HandleTypeDef *pdev, uint8_t ep_addr)
 207:USB/Core/Src/usbd_ioreq.c **** {
 273              		.loc 1 207 1 is_stmt 1 view -0
 274              		.cfi_startproc
 275              		@ args = 0, pretend = 0, frame = 0
 276              		@ frame_needed = 0, uses_anonymous_args = 0
 277              		.loc 1 207 1 is_stmt 0 view .LVU61
 278 0000 08B5     		push	{r3, lr}
 279              		.cfi_def_cfa_offset 8
 280              		.cfi_offset 3, -8
 281              		.cfi_offset 14, -4
 208:USB/Core/Src/usbd_ioreq.c ****   return USBD_LL_GetRxDataSize(pdev, ep_addr);
 282              		.loc 1 208 3 is_stmt 1 view .LVU62
 283              		.loc 1 208 10 is_stmt 0 view .LVU63
 284 0002 FFF7FEFF 		bl	USBD_LL_GetRxDataSize
 285              	.LVL21:
 209:USB/Core/Src/usbd_ioreq.c **** }
 286              		.loc 1 209 1 view .LVU64
 287 0006 08BD     		pop	{r3, pc}
 288              		.cfi_endproc
 289              	.LFE170:
 291              		.text
 292              	.Letext0:
 293              		.file 2 "C:/Users/sapph/AppData/Roaming/Code/User/globalStorage/bmd.stm32-for-vscode/@xpack-dev-to
 294              		.file 3 "C:/Users/sapph/AppData/Roaming/Code/User/globalStorage/bmd.stm32-for-vscode/@xpack-dev-to
 295              		.file 4 "USB/Core/Inc/usbd_def.h"
 296              		.file 5 "USB/Core/Inc/usbd_core.h"
ARM GAS  C:\Users\sapph\AppData\Local\Temp\ccD1R6H9.s 			page 10

